
phototrigger.elf:     file format elf32-avr

Sections:
Idx Name          Size      VMA       LMA       File off  Algn
  0 .data         000001f4  00800100  00002dd0  00002e64  2**0
                  CONTENTS, ALLOC, LOAD, DATA
  1 .text         00002dd0  00000000  00000000  00000094  2**1
                  CONTENTS, ALLOC, LOAD, READONLY, CODE
  2 .bss          0000001c  008002f4  00002fc4  00003058  2**0
                  ALLOC
  3 .eeprom       00000016  00810000  00810000  00003058  2**0
                  CONTENTS, ALLOC, LOAD, DATA
  4 .stab         00002520  00000000  00000000  00003070  2**2
                  CONTENTS, READONLY, DEBUGGING
  5 .stabstr      00000f37  00000000  00000000  00005590  2**0
                  CONTENTS, READONLY, DEBUGGING
Disassembly of section .text:

00000000 <__vectors>:
       0:	0c 94 85 01 	jmp	0x30a	; 0x30a <__ctors_end>
       4:	0c 94 a2 01 	jmp	0x344	; 0x344 <__bad_interrupt>
       8:	0c 94 a2 01 	jmp	0x344	; 0x344 <__bad_interrupt>
       c:	0c 94 a2 01 	jmp	0x344	; 0x344 <__bad_interrupt>
      10:	0c 94 a2 01 	jmp	0x344	; 0x344 <__bad_interrupt>
      14:	0c 94 a2 01 	jmp	0x344	; 0x344 <__bad_interrupt>
      18:	0c 94 a2 01 	jmp	0x344	; 0x344 <__bad_interrupt>
      1c:	0c 94 a2 01 	jmp	0x344	; 0x344 <__bad_interrupt>
      20:	0c 94 a2 01 	jmp	0x344	; 0x344 <__bad_interrupt>
      24:	0c 94 f2 10 	jmp	0x21e4	; 0x21e4 <__vector_9>
      28:	0c 94 a2 01 	jmp	0x344	; 0x344 <__bad_interrupt>
      2c:	0c 94 a2 01 	jmp	0x344	; 0x344 <__bad_interrupt>
      30:	0c 94 a2 01 	jmp	0x344	; 0x344 <__bad_interrupt>
      34:	0c 94 0f 0a 	jmp	0x141e	; 0x141e <__vector_13>
      38:	0c 94 a2 01 	jmp	0x344	; 0x344 <__bad_interrupt>
      3c:	0c 94 a2 01 	jmp	0x344	; 0x344 <__bad_interrupt>
      40:	0c 94 78 06 	jmp	0xcf0	; 0xcf0 <__vector_16>
      44:	0c 94 a2 01 	jmp	0x344	; 0x344 <__bad_interrupt>
      48:	0c 94 a2 01 	jmp	0x344	; 0x344 <__bad_interrupt>
      4c:	0c 94 a2 01 	jmp	0x344	; 0x344 <__bad_interrupt>
      50:	0c 94 a2 01 	jmp	0x344	; 0x344 <__bad_interrupt>
      54:	0c 94 a2 01 	jmp	0x344	; 0x344 <__bad_interrupt>
      58:	0c 94 a2 01 	jmp	0x344	; 0x344 <__bad_interrupt>
      5c:	0c 94 a2 01 	jmp	0x344	; 0x344 <__bad_interrupt>
      60:	0c 94 a2 01 	jmp	0x344	; 0x344 <__bad_interrupt>
      64:	0c 94 a2 01 	jmp	0x344	; 0x344 <__bad_interrupt>

00000068 <__c.1882>:
      68:	4e 6f 3a 20 20 25 30 35 64 2f 25 30 35 64 0a 4e     No:  %05d/%05d.N
      78:	65 78 74 3a 20 20 20 25 30 32 64 3a 25 30 32 64     ext:   %02d:%02d
      88:	3a 25 30 32 64 00                                   :%02d.

0000008e <__c.1869>:
      8e:	42 75 6c 62 20 69 6e 20 70 72 6f 67 72 65 73 73     Bulb in progress
      9e:	0a 4c 65 66 74 3a 20 20 20 25 30 32 64 3a 25 30     .Left:   %02d:%0
      ae:	32 64 3a 25 30 32 64 00                             2d:%02d.

000000b6 <__c.1848>:
      b6:	53 74 61 72 74 3a 20 20 25 30 32 64 3a 25 30 32     Start:  %02d:%02
      c6:	64 3a 25 30 32 64 0a 4c 65 66 74 3a 20 20 20 25     d:%02d.Left:   %
      d6:	30 32 64 3a 25 30 32 64 3a 25 30 32 64 00           02d:%02d:%02d.

000000e4 <__c.1807>:
      e4:	42 61 63 6b 20 20 20 20 20 20 25 32 64 25 63 20     Back      %2d%c 
      f4:	4f 4b 00                                            OK.

000000f7 <__c.1805>:
      f7:	42 61 63 6b 20 20 20 25 33 64 25 30 32 64 25 63     Back   %3d%02d%c
     107:	20 4f 4b 00                                          OK.

0000010b <__c.1783>:
     10b:	4e 6f 20 25 2d 39 73 20 59 65 73 00                 No %-9s Yes.

00000117 <__c.1726>:
     117:	42 61 63 6b 20 25 30 32 64 3a 25 30 32 64 3a 25     Back %02d:%02d:%
     127:	30 32 64 20 4f 4b 00                                02d OK.

0000012e <__c.1827>:
     12e:	4c 6f 77 20 62 61 74 74 65 72 79 00                 Low battery.

0000013a <__c.1825>:
     13a:	70 68 6f 74 6f 74 72 69 67 67 65 72 00              phototrigger.

00000147 <custchar>:
     147:	06 0f 09 09 09 09 0f 00 00 04 1e 1f 1e 04 00 00     ................
     157:	04 0e 1f 0e 0e 0e 0e 00 04 0e 1b 0a 0a 0a 0e 00     ................
     167:	0a 15 00 0f 1e 01 1e 00 00 00 00 00 00 00 00 00     ................
	...

00000187 <__c.1786>:
     187:	45 45 50 52 4f 4d 20 64 61 74 61 20 6d 61 79 0a     EEPROM data may.
     197:	62 65 20 69 6e 76 2e 20 6f 72 20 63 6f 72 72 2e     be inv. or corr.
	...

000001a8 <__c.1778>:
     1a8:	53 65 74 20 6e 65 77 20 74 69 6d 65 00              Set new time.

000001b5 <__c.2067>:
     1b5:	56 62 61 74 74 20 3d 20 25 31 75 2e 25 30 32 75     Vbatt = %1u.%02u
     1c5:	56 20 4f 4b 0a 20 20 20 20 20 20 20 20 20 20 20     V OK.           
     1d5:	20 20 20 25 63 25 63 00                                %c%c.

000001dd <__c.2043>:
     1dd:	25 30 32 64 3a 25 30 32 64 3a 25 30 32 64 20 20     %02d:%02d:%02d  
     1ed:	20 20 20 20 4f 4b 0a 20 20 20 20 20 20 20 20 20         OK.         
     1fd:	20 20 20 20 20 25 63 25 63 00                            %c%c.

00000207 <__c.1979>:
     207:	42 75 6c 62 20 64 6f 6e 65 0a 50 72 65 73 73 20     Bulb done.Press 
     217:	61 6e 79 20 6b 65 79 00                             any key.

0000021f <__c.1977>:
     21f:	53 74 61 72 74 69 6e 67 2e 2e 2e 00                 Starting....

0000022b <__c.1975>:
     22b:	53 65 74 20 62 75 6c 62 20 74 69 6d 65 00           Set bulb time.

00000239 <__c.1973>:
     239:	53 65 74 20 73 74 61 72 74 20 74 69 6d 65 00        Set start time.

00000248 <__c.1888>:
     248:	0d 44 6f 6e 65 2c 70 72 65 73 73 20 61 20 6b 65     .Done,press a ke
     258:	79 00                                               y.

0000025a <__c.1886>:
     25a:	53 74 61 72 74 69 6e 67 2e 2e 2e 00                 Starting....

00000266 <__c.1879>:
     266:	42 75 6c 62 20 74 69 6d 65 0a 30 20 2d 20 6e 6f     Bulb time.0 - no
     276:	20 62 75 6c 62 00                                    bulb.

0000027c <__c.1876>:
     27c:	53 65 74 20 74 69 6d 65 20 64 69 73 74 2e 0a 62     Set time dist..b
     28c:	65 74 77 65 65 6e 20 70 68 6f 74 6f 73 00           etween photos.

0000029a <__c.1873>:
     29a:	53 65 74 20 6e 6f 20 6f 66 20 70 68 6f 74 6f 73     Set no of photos
     2aa:	0a 30 20 2d 20 69 6e 66 69 6e 69 74 65 00           .0 - infinite.

000002b8 <__c.1869>:
     2b8:	53 65 74 20 73 74 61 72 74 20 74 69 6d 65 00        Set start time.

000002c7 <__c.1852>:
     2c7:	20 20 20 20 20 20 20 20 20 20 20 20 20 20 25 63                   %c
     2d7:	25 63 00                                            %c.

000002da <__c.1850>:
     2da:	76 25 2d 31 30 73 20 20 20 4f 4b 0a 00              v%-10s   OK..

000002e7 <__c.1848>:
     2e7:	70 68 6f 74 6f 74 72 69 67 67 65 72 20 62 79 3a     phototrigger by:
     2f7:	0a 4c 75 6b 61 73 7a 20 47 6f 72 61 6c 63 7a 79     .Lukasz Goralczy
     307:	6b 00 00                                            k..

0000030a <__ctors_end>:
     30a:	11 24       	eor	r1, r1
     30c:	1f be       	out	0x3f, r1	; 63
     30e:	cf ef       	ldi	r28, 0xFF	; 255
     310:	d4 e0       	ldi	r29, 0x04	; 4
     312:	de bf       	out	0x3e, r29	; 62
     314:	cd bf       	out	0x3d, r28	; 61

00000316 <__do_copy_data>:
     316:	12 e0       	ldi	r17, 0x02	; 2
     318:	a0 e0       	ldi	r26, 0x00	; 0
     31a:	b1 e0       	ldi	r27, 0x01	; 1
     31c:	e0 ed       	ldi	r30, 0xD0	; 208
     31e:	fd e2       	ldi	r31, 0x2D	; 45
     320:	02 c0       	rjmp	.+4      	; 0x326 <.do_copy_data_start>

00000322 <.do_copy_data_loop>:
     322:	05 90       	lpm	r0, Z+
     324:	0d 92       	st	X+, r0

00000326 <.do_copy_data_start>:
     326:	a4 3f       	cpi	r26, 0xF4	; 244
     328:	b1 07       	cpc	r27, r17
     32a:	d9 f7       	brne	.-10     	; 0x322 <.do_copy_data_loop>

0000032c <__do_clear_bss>:
     32c:	13 e0       	ldi	r17, 0x03	; 3
     32e:	a4 ef       	ldi	r26, 0xF4	; 244
     330:	b2 e0       	ldi	r27, 0x02	; 2
     332:	01 c0       	rjmp	.+2      	; 0x336 <.do_clear_bss_start>

00000334 <.do_clear_bss_loop>:
     334:	1d 92       	st	X+, r1

00000336 <.do_clear_bss_start>:
     336:	a0 31       	cpi	r26, 0x10	; 16
     338:	b1 07       	cpc	r27, r17
     33a:	e1 f7       	brne	.-8      	; 0x334 <.do_clear_bss_loop>
     33c:	0e 94 ca 0a 	call	0x1594	; 0x1594 <main>
     340:	0c 94 e6 16 	jmp	0x2dcc	; 0x2dcc <_exit>

00000344 <__bad_interrupt>:
     344:	0c 94 00 00 	jmp	0	; 0x0 <__heap_end>

00000348 <dlgIncVar>:
     348:	8f 92       	push	r8
     34a:	af 92       	push	r10
     34c:	bf 92       	push	r11
     34e:	cf 92       	push	r12
     350:	df 92       	push	r13
     352:	ef 92       	push	r14
     354:	ff 92       	push	r15
     356:	0f 93       	push	r16
     358:	1f 93       	push	r17
     35a:	df 93       	push	r29
     35c:	cf 93       	push	r28
     35e:	cd b7       	in	r28, 0x3d	; 61
     360:	de b7       	in	r29, 0x3e	; 62
     362:	26 0f       	add	r18, r22
     364:	37 1f       	adc	r19, r23
     366:	48 1f       	adc	r20, r24
     368:	59 1f       	adc	r21, r25
     36a:	a2 16       	cp	r10, r18
     36c:	b3 06       	cpc	r11, r19
     36e:	c4 06       	cpc	r12, r20
     370:	d5 06       	cpc	r13, r21
     372:	44 f4       	brge	.+16     	; 0x384 <dlgIncVar+0x3c>
     374:	88 20       	and	r8, r8
     376:	91 f0       	breq	.+36     	; 0x39c <dlgIncVar+0x54>
     378:	6a 15       	cp	r22, r10
     37a:	7b 05       	cpc	r23, r11
     37c:	8c 05       	cpc	r24, r12
     37e:	9d 05       	cpc	r25, r13
     380:	6c f0       	brlt	.+26     	; 0x39c <dlgIncVar+0x54>
     382:	0f c0       	rjmp	.+30     	; 0x3a2 <dlgIncVar+0x5a>
     384:	2e 15       	cp	r18, r14
     386:	3f 05       	cpc	r19, r15
     388:	40 07       	cpc	r20, r16
     38a:	51 07       	cpc	r21, r17
     38c:	64 f4       	brge	.+24     	; 0x3a6 <dlgIncVar+0x5e>
     38e:	88 20       	and	r8, r8
     390:	41 f0       	breq	.+16     	; 0x3a2 <dlgIncVar+0x5a>
     392:	e6 16       	cp	r14, r22
     394:	f7 06       	cpc	r15, r23
     396:	08 07       	cpc	r16, r24
     398:	19 07       	cpc	r17, r25
     39a:	1c f0       	brlt	.+6      	; 0x3a2 <dlgIncVar+0x5a>
     39c:	a6 01       	movw	r20, r12
     39e:	95 01       	movw	r18, r10
     3a0:	02 c0       	rjmp	.+4      	; 0x3a6 <dlgIncVar+0x5e>
     3a2:	a8 01       	movw	r20, r16
     3a4:	97 01       	movw	r18, r14
     3a6:	b9 01       	movw	r22, r18
     3a8:	ca 01       	movw	r24, r20
     3aa:	cf 91       	pop	r28
     3ac:	df 91       	pop	r29
     3ae:	1f 91       	pop	r17
     3b0:	0f 91       	pop	r16
     3b2:	ff 90       	pop	r15
     3b4:	ef 90       	pop	r14
     3b6:	df 90       	pop	r13
     3b8:	cf 90       	pop	r12
     3ba:	bf 90       	pop	r11
     3bc:	af 90       	pop	r10
     3be:	8f 90       	pop	r8
     3c0:	08 95       	ret

000003c2 <dlgPrintCountAndTime>:
     3c2:	cf 92       	push	r12
     3c4:	df 92       	push	r13
     3c6:	ef 92       	push	r14
     3c8:	ff 92       	push	r15
     3ca:	0f 93       	push	r16
     3cc:	1f 93       	push	r17
     3ce:	7c 01       	movw	r14, r24
     3d0:	6b 01       	movw	r12, r22
     3d2:	8a 01       	movw	r16, r20
     3d4:	80 e0       	ldi	r24, 0x00	; 0
     3d6:	60 e0       	ldi	r22, 0x00	; 0
     3d8:	0e 94 96 09 	call	0x132c	; 0x132c <lcd_setxy>
     3dc:	8d b7       	in	r24, 0x3d	; 61
     3de:	9e b7       	in	r25, 0x3e	; 62
     3e0:	0c 97       	sbiw	r24, 0x0c	; 12
     3e2:	0f b6       	in	r0, 0x3f	; 63
     3e4:	f8 94       	cli
     3e6:	9e bf       	out	0x3e, r25	; 62
     3e8:	0f be       	out	0x3f, r0	; 63
     3ea:	8d bf       	out	0x3d, r24	; 61
     3ec:	ed b7       	in	r30, 0x3d	; 61
     3ee:	fe b7       	in	r31, 0x3e	; 62
     3f0:	31 96       	adiw	r30, 0x01	; 1
     3f2:	88 e6       	ldi	r24, 0x68	; 104
     3f4:	90 e0       	ldi	r25, 0x00	; 0
     3f6:	ad b7       	in	r26, 0x3d	; 61
     3f8:	be b7       	in	r27, 0x3e	; 62
     3fa:	12 96       	adiw	r26, 0x02	; 2
     3fc:	9c 93       	st	X, r25
     3fe:	8e 93       	st	-X, r24
     400:	11 97       	sbiw	r26, 0x01	; 1
     402:	f3 82       	std	Z+3, r15	; 0x03
     404:	e2 82       	std	Z+2, r14	; 0x02
     406:	d5 82       	std	Z+5, r13	; 0x05
     408:	c4 82       	std	Z+4, r12	; 0x04
     40a:	d8 01       	movw	r26, r16
     40c:	12 96       	adiw	r26, 0x02	; 2
     40e:	8c 91       	ld	r24, X
     410:	12 97       	sbiw	r26, 0x02	; 2
     412:	86 83       	std	Z+6, r24	; 0x06
     414:	17 82       	std	Z+7, r1	; 0x07
     416:	11 96       	adiw	r26, 0x01	; 1
     418:	8c 91       	ld	r24, X
     41a:	11 97       	sbiw	r26, 0x01	; 1
     41c:	80 87       	std	Z+8, r24	; 0x08
     41e:	11 86       	std	Z+9, r1	; 0x09
     420:	8c 91       	ld	r24, X
     422:	82 87       	std	Z+10, r24	; 0x0a
     424:	13 86       	std	Z+11, r1	; 0x0b
     426:	0e 94 c8 13 	call	0x2790	; 0x2790 <printf_P>
     42a:	8d b7       	in	r24, 0x3d	; 61
     42c:	9e b7       	in	r25, 0x3e	; 62
     42e:	0c 96       	adiw	r24, 0x0c	; 12
     430:	0f b6       	in	r0, 0x3f	; 63
     432:	f8 94       	cli
     434:	9e bf       	out	0x3e, r25	; 62
     436:	0f be       	out	0x3f, r0	; 63
     438:	8d bf       	out	0x3d, r24	; 61
     43a:	1f 91       	pop	r17
     43c:	0f 91       	pop	r16
     43e:	ff 90       	pop	r15
     440:	ef 90       	pop	r14
     442:	df 90       	pop	r13
     444:	cf 90       	pop	r12
     446:	08 95       	ret

00000448 <dlgPrintBulb>:
     448:	0f 93       	push	r16
     44a:	1f 93       	push	r17
     44c:	8c 01       	movw	r16, r24
     44e:	80 e0       	ldi	r24, 0x00	; 0
     450:	60 e0       	ldi	r22, 0x00	; 0
     452:	0e 94 96 09 	call	0x132c	; 0x132c <lcd_setxy>
     456:	8d b7       	in	r24, 0x3d	; 61
     458:	9e b7       	in	r25, 0x3e	; 62
     45a:	08 97       	sbiw	r24, 0x08	; 8
     45c:	0f b6       	in	r0, 0x3f	; 63
     45e:	f8 94       	cli
     460:	9e bf       	out	0x3e, r25	; 62
     462:	0f be       	out	0x3f, r0	; 63
     464:	8d bf       	out	0x3d, r24	; 61
     466:	ed b7       	in	r30, 0x3d	; 61
     468:	fe b7       	in	r31, 0x3e	; 62
     46a:	31 96       	adiw	r30, 0x01	; 1
     46c:	8e e8       	ldi	r24, 0x8E	; 142
     46e:	90 e0       	ldi	r25, 0x00	; 0
     470:	ad b7       	in	r26, 0x3d	; 61
     472:	be b7       	in	r27, 0x3e	; 62
     474:	12 96       	adiw	r26, 0x02	; 2
     476:	9c 93       	st	X, r25
     478:	8e 93       	st	-X, r24
     47a:	11 97       	sbiw	r26, 0x01	; 1
     47c:	d8 01       	movw	r26, r16
     47e:	12 96       	adiw	r26, 0x02	; 2
     480:	8c 91       	ld	r24, X
     482:	12 97       	sbiw	r26, 0x02	; 2
     484:	82 83       	std	Z+2, r24	; 0x02
     486:	13 82       	std	Z+3, r1	; 0x03
     488:	11 96       	adiw	r26, 0x01	; 1
     48a:	8c 91       	ld	r24, X
     48c:	11 97       	sbiw	r26, 0x01	; 1
     48e:	84 83       	std	Z+4, r24	; 0x04
     490:	15 82       	std	Z+5, r1	; 0x05
     492:	8c 91       	ld	r24, X
     494:	86 83       	std	Z+6, r24	; 0x06
     496:	17 82       	std	Z+7, r1	; 0x07
     498:	0e 94 c8 13 	call	0x2790	; 0x2790 <printf_P>
     49c:	8d b7       	in	r24, 0x3d	; 61
     49e:	9e b7       	in	r25, 0x3e	; 62
     4a0:	08 96       	adiw	r24, 0x08	; 8
     4a2:	0f b6       	in	r0, 0x3f	; 63
     4a4:	f8 94       	cli
     4a6:	9e bf       	out	0x3e, r25	; 62
     4a8:	0f be       	out	0x3f, r0	; 63
     4aa:	8d bf       	out	0x3d, r24	; 61
     4ac:	1f 91       	pop	r17
     4ae:	0f 91       	pop	r16
     4b0:	08 95       	ret

000004b2 <dlgPrintTimeLeft>:
     4b2:	af 92       	push	r10
     4b4:	bf 92       	push	r11
     4b6:	cf 92       	push	r12
     4b8:	df 92       	push	r13
     4ba:	ef 92       	push	r14
     4bc:	ff 92       	push	r15
     4be:	0f 93       	push	r16
     4c0:	1f 93       	push	r17
     4c2:	df 93       	push	r29
     4c4:	cf 93       	push	r28
     4c6:	00 d0       	rcall	.+0      	; 0x4c8 <dlgPrintTimeLeft+0x16>
     4c8:	0f 92       	push	r0
     4ca:	cd b7       	in	r28, 0x3d	; 61
     4cc:	de b7       	in	r29, 0x3e	; 62
     4ce:	5c 01       	movw	r10, r24
     4d0:	8e 01       	movw	r16, r28
     4d2:	0f 5f       	subi	r16, 0xFF	; 255
     4d4:	1f 4f       	sbci	r17, 0xFF	; 255
     4d6:	c8 01       	movw	r24, r16
     4d8:	0e 94 e2 0f 	call	0x1fc4	; 0x1fc4 <rtcGetSysTime>
     4dc:	c5 01       	movw	r24, r10
     4de:	0e 94 fc 0f 	call	0x1ff8	; 0x1ff8 <rtcTm2Int>
     4e2:	6b 01       	movw	r12, r22
     4e4:	7c 01       	movw	r14, r24
     4e6:	c8 01       	movw	r24, r16
     4e8:	0e 94 fc 0f 	call	0x1ff8	; 0x1ff8 <rtcTm2Int>
     4ec:	9b 01       	movw	r18, r22
     4ee:	ac 01       	movw	r20, r24
     4f0:	c2 16       	cp	r12, r18
     4f2:	d3 06       	cpc	r13, r19
     4f4:	e4 06       	cpc	r14, r20
     4f6:	f5 06       	cpc	r15, r21
     4f8:	3c f4       	brge	.+14     	; 0x508 <__stack+0x9>
     4fa:	c7 01       	movw	r24, r14
     4fc:	b6 01       	movw	r22, r12
     4fe:	60 58       	subi	r22, 0x80	; 128
     500:	7e 4a       	sbci	r23, 0xAE	; 174
     502:	8e 4f       	sbci	r24, 0xFE	; 254
     504:	9f 4f       	sbci	r25, 0xFF	; 255
     506:	02 c0       	rjmp	.+4      	; 0x50c <__stack+0xd>
     508:	c7 01       	movw	r24, r14
     50a:	b6 01       	movw	r22, r12
     50c:	62 1b       	sub	r22, r18
     50e:	73 0b       	sbc	r23, r19
     510:	84 0b       	sbc	r24, r20
     512:	95 0b       	sbc	r25, r21
     514:	ae 01       	movw	r20, r28
     516:	4f 5f       	subi	r20, 0xFF	; 255
     518:	5f 4f       	sbci	r21, 0xFF	; 255
     51a:	0e 94 2e 10 	call	0x205c	; 0x205c <rtcInt2Tm>
     51e:	80 e0       	ldi	r24, 0x00	; 0
     520:	60 e0       	ldi	r22, 0x00	; 0
     522:	0e 94 96 09 	call	0x132c	; 0x132c <lcd_setxy>
     526:	8d b7       	in	r24, 0x3d	; 61
     528:	9e b7       	in	r25, 0x3e	; 62
     52a:	0e 97       	sbiw	r24, 0x0e	; 14
     52c:	0f b6       	in	r0, 0x3f	; 63
     52e:	f8 94       	cli
     530:	9e bf       	out	0x3e, r25	; 62
     532:	0f be       	out	0x3f, r0	; 63
     534:	8d bf       	out	0x3d, r24	; 61
     536:	ed b7       	in	r30, 0x3d	; 61
     538:	fe b7       	in	r31, 0x3e	; 62
     53a:	31 96       	adiw	r30, 0x01	; 1
     53c:	86 eb       	ldi	r24, 0xB6	; 182
     53e:	90 e0       	ldi	r25, 0x00	; 0
     540:	ad b7       	in	r26, 0x3d	; 61
     542:	be b7       	in	r27, 0x3e	; 62
     544:	12 96       	adiw	r26, 0x02	; 2
     546:	9c 93       	st	X, r25
     548:	8e 93       	st	-X, r24
     54a:	11 97       	sbiw	r26, 0x01	; 1
     54c:	d5 01       	movw	r26, r10
     54e:	12 96       	adiw	r26, 0x02	; 2
     550:	8c 91       	ld	r24, X
     552:	12 97       	sbiw	r26, 0x02	; 2
     554:	82 83       	std	Z+2, r24	; 0x02
     556:	13 82       	std	Z+3, r1	; 0x03
     558:	11 96       	adiw	r26, 0x01	; 1
     55a:	8c 91       	ld	r24, X
     55c:	11 97       	sbiw	r26, 0x01	; 1
     55e:	84 83       	std	Z+4, r24	; 0x04
     560:	15 82       	std	Z+5, r1	; 0x05
     562:	8c 91       	ld	r24, X
     564:	86 83       	std	Z+6, r24	; 0x06
     566:	17 82       	std	Z+7, r1	; 0x07
     568:	8b 81       	ldd	r24, Y+3	; 0x03
     56a:	80 87       	std	Z+8, r24	; 0x08
     56c:	11 86       	std	Z+9, r1	; 0x09
     56e:	8a 81       	ldd	r24, Y+2	; 0x02
     570:	82 87       	std	Z+10, r24	; 0x0a
     572:	13 86       	std	Z+11, r1	; 0x0b
     574:	89 81       	ldd	r24, Y+1	; 0x01
     576:	84 87       	std	Z+12, r24	; 0x0c
     578:	15 86       	std	Z+13, r1	; 0x0d
     57a:	0e 94 c8 13 	call	0x2790	; 0x2790 <printf_P>
     57e:	8d b7       	in	r24, 0x3d	; 61
     580:	9e b7       	in	r25, 0x3e	; 62
     582:	0e 96       	adiw	r24, 0x0e	; 14
     584:	0f b6       	in	r0, 0x3f	; 63
     586:	f8 94       	cli
     588:	9e bf       	out	0x3e, r25	; 62
     58a:	0f be       	out	0x3f, r0	; 63
     58c:	8d bf       	out	0x3d, r24	; 61
     58e:	0f 90       	pop	r0
     590:	0f 90       	pop	r0
     592:	0f 90       	pop	r0
     594:	cf 91       	pop	r28
     596:	df 91       	pop	r29
     598:	1f 91       	pop	r17
     59a:	0f 91       	pop	r16
     59c:	ff 90       	pop	r15
     59e:	ef 90       	pop	r14
     5a0:	df 90       	pop	r13
     5a2:	cf 90       	pop	r12
     5a4:	bf 90       	pop	r11
     5a6:	af 90       	pop	r10
     5a8:	08 95       	ret

000005aa <dlgInfo_P>:
     5aa:	0f 93       	push	r16
     5ac:	1f 93       	push	r17
     5ae:	8c 01       	movw	r16, r24
     5b0:	0e 94 a9 09 	call	0x1352	; 0x1352 <lcd_clr>
     5b4:	00 d0       	rcall	.+0      	; 0x5b6 <dlgInfo_P+0xc>
     5b6:	ed b7       	in	r30, 0x3d	; 61
     5b8:	fe b7       	in	r31, 0x3e	; 62
     5ba:	12 83       	std	Z+2, r17	; 0x02
     5bc:	01 83       	std	Z+1, r16	; 0x01
     5be:	0e 94 c8 13 	call	0x2790	; 0x2790 <printf_P>
     5c2:	20 e1       	ldi	r18, 0x10	; 16
     5c4:	37 e2       	ldi	r19, 0x27	; 39
     5c6:	0f 90       	pop	r0
     5c8:	0f 90       	pop	r0
     5ca:	49 e1       	ldi	r20, 0x19	; 25
     5cc:	50 e0       	ldi	r21, 0x00	; 0
     5ce:	ca 01       	movw	r24, r20
     5d0:	01 97       	sbiw	r24, 0x01	; 1
     5d2:	f1 f7       	brne	.-4      	; 0x5d0 <dlgInfo_P+0x26>
     5d4:	21 50       	subi	r18, 0x01	; 1
     5d6:	30 40       	sbci	r19, 0x00	; 0
     5d8:	d1 f7       	brne	.-12     	; 0x5ce <dlgInfo_P+0x24>
     5da:	0e 94 6d 06 	call	0xcda	; 0xcda <encClrKeyBuf>
     5de:	1f 91       	pop	r17
     5e0:	0f 91       	pop	r16
     5e2:	08 95       	ret

000005e4 <dlgPrintSel>:
     5e4:	cf 92       	push	r12
     5e6:	df 92       	push	r13
     5e8:	ef 92       	push	r14
     5ea:	ff 92       	push	r15
     5ec:	0f 93       	push	r16
     5ee:	1f 93       	push	r17
     5f0:	cf 93       	push	r28
     5f2:	df 93       	push	r29
     5f4:	8c 01       	movw	r16, r24
     5f6:	e6 2e       	mov	r14, r22
     5f8:	c4 2e       	mov	r12, r20
     5fa:	fc 01       	movw	r30, r24
     5fc:	01 90       	ld	r0, Z+
     5fe:	00 20       	and	r0, r0
     600:	e9 f7       	brne	.-6      	; 0x5fc <dlgPrintSel+0x18>
     602:	31 97       	sbiw	r30, 0x01	; 1
     604:	de 2e       	mov	r13, r30
     606:	d8 1a       	sub	r13, r24
     608:	fc 01       	movw	r30, r24
     60a:	f0 80       	ld	r15, Z
     60c:	80 e0       	ldi	r24, 0x00	; 0
     60e:	61 e0       	ldi	r22, 0x01	; 1
     610:	0e 94 96 09 	call	0x132c	; 0x132c <lcd_setxy>
     614:	e8 01       	movw	r28, r16
     616:	00 e0       	ldi	r16, 0x00	; 0
     618:	10 e0       	ldi	r17, 0x00	; 0
     61a:	1b c0       	rjmp	.+54     	; 0x652 <dlgPrintSel+0x6e>
     61c:	88 81       	ld	r24, Y
     61e:	80 32       	cpi	r24, 0x20	; 32
     620:	71 f0       	breq	.+28     	; 0x63e <dlgPrintSel+0x5a>
     622:	8f 11       	cpse	r24, r15
     624:	0f 5f       	subi	r16, 0xFF	; 255
     626:	e0 16       	cp	r14, r16
     628:	51 f4       	brne	.+20     	; 0x63e <dlgPrintSel+0x5a>
     62a:	60 91 0c 03 	lds	r22, 0x030C
     62e:	70 91 0d 03 	lds	r23, 0x030D
     632:	8c 2d       	mov	r24, r12
     634:	90 e0       	ldi	r25, 0x00	; 0
     636:	0e 94 9c 13 	call	0x2738	; 0x2738 <fputc>
     63a:	0e 2d       	mov	r16, r14
     63c:	08 c0       	rjmp	.+16     	; 0x64e <dlgPrintSel+0x6a>
     63e:	60 91 0c 03 	lds	r22, 0x030C
     642:	70 91 0d 03 	lds	r23, 0x030D
     646:	80 e2       	ldi	r24, 0x20	; 32
     648:	90 e0       	ldi	r25, 0x00	; 0
     64a:	0e 94 9c 13 	call	0x2738	; 0x2738 <fputc>
     64e:	f9 90       	ld	r15, Y+
     650:	1f 5f       	subi	r17, 0xFF	; 255
     652:	1d 15       	cp	r17, r13
     654:	18 f3       	brcs	.-58     	; 0x61c <dlgPrintSel+0x38>
     656:	df 91       	pop	r29
     658:	cf 91       	pop	r28
     65a:	1f 91       	pop	r17
     65c:	0f 91       	pop	r16
     65e:	ff 90       	pop	r15
     660:	ef 90       	pop	r14
     662:	df 90       	pop	r13
     664:	cf 90       	pop	r12
     666:	08 95       	ret

00000668 <dlgSetVar>:
     668:	2f 92       	push	r2
     66a:	3f 92       	push	r3
     66c:	4f 92       	push	r4
     66e:	5f 92       	push	r5
     670:	6f 92       	push	r6
     672:	7f 92       	push	r7
     674:	8f 92       	push	r8
     676:	9f 92       	push	r9
     678:	af 92       	push	r10
     67a:	bf 92       	push	r11
     67c:	cf 92       	push	r12
     67e:	df 92       	push	r13
     680:	ef 92       	push	r14
     682:	ff 92       	push	r15
     684:	0f 93       	push	r16
     686:	1f 93       	push	r17
     688:	df 93       	push	r29
     68a:	cf 93       	push	r28
     68c:	cd b7       	in	r28, 0x3d	; 61
     68e:	de b7       	in	r29, 0x3e	; 62
     690:	27 97       	sbiw	r28, 0x07	; 7
     692:	0f b6       	in	r0, 0x3f	; 63
     694:	f8 94       	cli
     696:	de bf       	out	0x3e, r29	; 62
     698:	0f be       	out	0x3f, r0	; 63
     69a:	cd bf       	out	0x3d, r28	; 61
     69c:	9c 83       	std	Y+4, r25	; 0x04
     69e:	8b 83       	std	Y+3, r24	; 0x03
     6a0:	1a 01       	movw	r2, r20
     6a2:	2b 01       	movw	r4, r22
     6a4:	38 01       	movw	r6, r16
     6a6:	49 01       	movw	r8, r18
     6a8:	ff 82       	std	Y+7, r15	; 0x07
     6aa:	ee 82       	std	Y+6, r14	; 0x06
     6ac:	cd 82       	std	Y+5, r12	; 0x05
     6ae:	0e 94 a9 09 	call	0x1352	; 0x1352 <lcd_clr>
     6b2:	ab 81       	ldd	r26, Y+3	; 0x03
     6b4:	bc 81       	ldd	r27, Y+4	; 0x04
     6b6:	ad 90       	ld	r10, X+
     6b8:	bd 90       	ld	r11, X+
     6ba:	cd 90       	ld	r12, X+
     6bc:	dc 90       	ld	r13, X
     6be:	ba e0       	ldi	r27, 0x0A	; 10
     6c0:	ba 83       	std	Y+2, r27	; 0x02
     6c2:	19 82       	std	Y+1, r1	; 0x01
     6c4:	04 c0       	rjmp	.+8      	; 0x6ce <dlgSetVar+0x66>
     6c6:	86 01       	movw	r16, r12
     6c8:	75 01       	movw	r14, r10
     6ca:	57 01       	movw	r10, r14
     6cc:	68 01       	movw	r12, r16
     6ce:	c6 01       	movw	r24, r12
     6d0:	b5 01       	movw	r22, r10
     6d2:	24 e6       	ldi	r18, 0x64	; 100
     6d4:	30 e0       	ldi	r19, 0x00	; 0
     6d6:	40 e0       	ldi	r20, 0x00	; 0
     6d8:	50 e0       	ldi	r21, 0x00	; 0
     6da:	0e 94 94 16 	call	0x2d28	; 0x2d28 <__divmodsi4>
     6de:	7b 01       	movw	r14, r22
     6e0:	77 ff       	sbrs	r23, 7
     6e2:	04 c0       	rjmp	.+8      	; 0x6ec <dlgSetVar+0x84>
     6e4:	f0 94       	com	r15
     6e6:	e1 94       	neg	r14
     6e8:	f1 08       	sbc	r15, r1
     6ea:	f3 94       	inc	r15
     6ec:	c6 01       	movw	r24, r12
     6ee:	b5 01       	movw	r22, r10
     6f0:	24 e6       	ldi	r18, 0x64	; 100
     6f2:	30 e0       	ldi	r19, 0x00	; 0
     6f4:	40 e0       	ldi	r20, 0x00	; 0
     6f6:	50 e0       	ldi	r21, 0x00	; 0
     6f8:	0e 94 94 16 	call	0x2d28	; 0x2d28 <__divmodsi4>
     6fc:	89 01       	movw	r16, r18
     6fe:	80 e0       	ldi	r24, 0x00	; 0
     700:	60 e0       	ldi	r22, 0x00	; 0
     702:	0e 94 96 09 	call	0x132c	; 0x132c <lcd_setxy>
     706:	01 15       	cp	r16, r1
     708:	11 05       	cpc	r17, r1
     70a:	f1 f0       	breq	.+60     	; 0x748 <dlgSetVar+0xe0>
     70c:	ed b7       	in	r30, 0x3d	; 61
     70e:	fe b7       	in	r31, 0x3e	; 62
     710:	38 97       	sbiw	r30, 0x08	; 8
     712:	0f b6       	in	r0, 0x3f	; 63
     714:	f8 94       	cli
     716:	fe bf       	out	0x3e, r31	; 62
     718:	0f be       	out	0x3f, r0	; 63
     71a:	ed bf       	out	0x3d, r30	; 61
     71c:	31 96       	adiw	r30, 0x01	; 1
     71e:	27 ef       	ldi	r18, 0xF7	; 247
     720:	30 e0       	ldi	r19, 0x00	; 0
     722:	ad b7       	in	r26, 0x3d	; 61
     724:	be b7       	in	r27, 0x3e	; 62
     726:	12 96       	adiw	r26, 0x02	; 2
     728:	3c 93       	st	X, r19
     72a:	2e 93       	st	-X, r18
     72c:	11 97       	sbiw	r26, 0x01	; 1
     72e:	13 83       	std	Z+3, r17	; 0x03
     730:	02 83       	std	Z+2, r16	; 0x02
     732:	f5 82       	std	Z+5, r15	; 0x05
     734:	e4 82       	std	Z+4, r14	; 0x04
     736:	3d 81       	ldd	r19, Y+5	; 0x05
     738:	36 83       	std	Z+6, r19	; 0x06
     73a:	17 82       	std	Z+7, r1	; 0x07
     73c:	0e 94 c8 13 	call	0x2790	; 0x2790 <printf_P>
     740:	8d b7       	in	r24, 0x3d	; 61
     742:	9e b7       	in	r25, 0x3e	; 62
     744:	08 96       	adiw	r24, 0x08	; 8
     746:	18 c0       	rjmp	.+48     	; 0x778 <dlgSetVar+0x110>
     748:	00 d0       	rcall	.+0      	; 0x74a <dlgSetVar+0xe2>
     74a:	00 d0       	rcall	.+0      	; 0x74c <dlgSetVar+0xe4>
     74c:	00 d0       	rcall	.+0      	; 0x74e <dlgSetVar+0xe6>
     74e:	ed b7       	in	r30, 0x3d	; 61
     750:	fe b7       	in	r31, 0x3e	; 62
     752:	31 96       	adiw	r30, 0x01	; 1
     754:	24 ee       	ldi	r18, 0xE4	; 228
     756:	30 e0       	ldi	r19, 0x00	; 0
     758:	ad b7       	in	r26, 0x3d	; 61
     75a:	be b7       	in	r27, 0x3e	; 62
     75c:	12 96       	adiw	r26, 0x02	; 2
     75e:	3c 93       	st	X, r19
     760:	2e 93       	st	-X, r18
     762:	11 97       	sbiw	r26, 0x01	; 1
     764:	f3 82       	std	Z+3, r15	; 0x03
     766:	e2 82       	std	Z+2, r14	; 0x02
     768:	3d 81       	ldd	r19, Y+5	; 0x05
     76a:	34 83       	std	Z+4, r19	; 0x04
     76c:	15 82       	std	Z+5, r1	; 0x05
     76e:	0e 94 c8 13 	call	0x2790	; 0x2790 <printf_P>
     772:	8d b7       	in	r24, 0x3d	; 61
     774:	9e b7       	in	r25, 0x3e	; 62
     776:	06 96       	adiw	r24, 0x06	; 6
     778:	0f b6       	in	r0, 0x3f	; 63
     77a:	f8 94       	cli
     77c:	9e bf       	out	0x3e, r25	; 62
     77e:	0f be       	out	0x3f, r0	; 63
     780:	8d bf       	out	0x3d, r24	; 61
     782:	9a 81       	ldd	r25, Y+2	; 0x02
     784:	9a 30       	cpi	r25, 0x0A	; 10
     786:	11 f4       	brne	.+4      	; 0x78c <dlgSetVar+0x124>
     788:	42 e0       	ldi	r20, 0x02	; 2
     78a:	01 c0       	rjmp	.+2      	; 0x78e <dlgSetVar+0x126>
     78c:	43 e0       	ldi	r20, 0x03	; 3
     78e:	80 e0       	ldi	r24, 0x00	; 0
     790:	91 e0       	ldi	r25, 0x01	; 1
     792:	69 81       	ldd	r22, Y+1	; 0x01
     794:	0e 94 f2 02 	call	0x5e4	; 0x5e4 <dlgPrintSel>
     798:	aa 81       	ldd	r26, Y+2	; 0x02
     79a:	a2 30       	cpi	r26, 0x02	; 2
     79c:	09 f4       	brne	.+2      	; 0x7a0 <dlgSetVar+0x138>
     79e:	61 c0       	rjmp	.+194    	; 0x862 <dlgSetVar+0x1fa>
     7a0:	a3 30       	cpi	r26, 0x03	; 3
     7a2:	38 f4       	brcc	.+14     	; 0x7b2 <dlgSetVar+0x14a>
     7a4:	aa 23       	and	r26, r26
     7a6:	09 f4       	brne	.+2      	; 0x7aa <dlgSetVar+0x142>
     7a8:	4d c0       	rjmp	.+154    	; 0x844 <dlgSetVar+0x1dc>
     7aa:	a1 30       	cpi	r26, 0x01	; 1
     7ac:	09 f0       	breq	.+2      	; 0x7b0 <dlgSetVar+0x148>
     7ae:	a7 cf       	rjmp	.-178    	; 0x6fe <dlgSetVar+0x96>
     7b0:	08 c0       	rjmp	.+16     	; 0x7c2 <dlgSetVar+0x15a>
     7b2:	ba 81       	ldd	r27, Y+2	; 0x02
     7b4:	b3 30       	cpi	r27, 0x03	; 3
     7b6:	09 f4       	brne	.+2      	; 0x7ba <dlgSetVar+0x152>
     7b8:	9c c0       	rjmp	.+312    	; 0x8f2 <dlgSetVar+0x28a>
     7ba:	ba 30       	cpi	r27, 0x0A	; 10
     7bc:	09 f0       	breq	.+2      	; 0x7c0 <dlgSetVar+0x158>
     7be:	9f cf       	rjmp	.-194    	; 0x6fe <dlgSetVar+0x96>
     7c0:	06 c0       	rjmp	.+12     	; 0x7ce <dlgSetVar+0x166>
     7c2:	94 e6       	ldi	r25, 0x64	; 100
     7c4:	e9 2e       	mov	r14, r25
     7c6:	f1 2c       	mov	r15, r1
     7c8:	01 2d       	mov	r16, r1
     7ca:	11 2d       	mov	r17, r1
     7cc:	4f c0       	rjmp	.+158    	; 0x86c <dlgSetVar+0x204>
     7ce:	81 e0       	ldi	r24, 0x01	; 1
     7d0:	0e 94 41 06 	call	0xc82	; 0xc82 <encGetKey>
     7d4:	88 23       	and	r24, r24
     7d6:	c9 f4       	brne	.+50     	; 0x80a <dlgSetVar+0x1a2>
     7d8:	e9 81       	ldd	r30, Y+1	; 0x01
     7da:	6e 2f       	mov	r22, r30
     7dc:	70 e0       	ldi	r23, 0x00	; 0
     7de:	80 e0       	ldi	r24, 0x00	; 0
     7e0:	90 e0       	ldi	r25, 0x00	; 0
     7e2:	65 30       	cpi	r22, 0x05	; 5
     7e4:	71 05       	cpc	r23, r1
     7e6:	81 05       	cpc	r24, r1
     7e8:	91 05       	cpc	r25, r1
     7ea:	dc f4       	brge	.+54     	; 0x822 <dlgSetVar+0x1ba>
     7ec:	61 15       	cp	r22, r1
     7ee:	71 05       	cpc	r23, r1
     7f0:	81 05       	cpc	r24, r1
     7f2:	91 05       	cpc	r25, r1
     7f4:	29 f4       	brne	.+10     	; 0x800 <dlgSetVar+0x198>
     7f6:	60 e0       	ldi	r22, 0x00	; 0
     7f8:	70 e0       	ldi	r23, 0x00	; 0
     7fa:	80 e0       	ldi	r24, 0x00	; 0
     7fc:	90 e0       	ldi	r25, 0x00	; 0
     7fe:	1a c0       	rjmp	.+52     	; 0x834 <dlgSetVar+0x1cc>
     800:	61 50       	subi	r22, 0x01	; 1
     802:	70 40       	sbci	r23, 0x00	; 0
     804:	80 40       	sbci	r24, 0x00	; 0
     806:	90 40       	sbci	r25, 0x00	; 0
     808:	15 c0       	rjmp	.+42     	; 0x834 <dlgSetVar+0x1cc>
     80a:	81 30       	cpi	r24, 0x01	; 1
     80c:	a9 f4       	brne	.+42     	; 0x838 <dlgSetVar+0x1d0>
     80e:	f9 81       	ldd	r31, Y+1	; 0x01
     810:	6f 2f       	mov	r22, r31
     812:	70 e0       	ldi	r23, 0x00	; 0
     814:	80 e0       	ldi	r24, 0x00	; 0
     816:	90 e0       	ldi	r25, 0x00	; 0
     818:	63 30       	cpi	r22, 0x03	; 3
     81a:	71 05       	cpc	r23, r1
     81c:	81 05       	cpc	r24, r1
     81e:	91 05       	cpc	r25, r1
     820:	2c f0       	brlt	.+10     	; 0x82c <dlgSetVar+0x1c4>
     822:	63 e0       	ldi	r22, 0x03	; 3
     824:	70 e0       	ldi	r23, 0x00	; 0
     826:	80 e0       	ldi	r24, 0x00	; 0
     828:	90 e0       	ldi	r25, 0x00	; 0
     82a:	04 c0       	rjmp	.+8      	; 0x834 <dlgSetVar+0x1cc>
     82c:	6f 5f       	subi	r22, 0xFF	; 255
     82e:	7f 4f       	sbci	r23, 0xFF	; 255
     830:	8f 4f       	sbci	r24, 0xFF	; 255
     832:	9f 4f       	sbci	r25, 0xFF	; 255
     834:	69 83       	std	Y+1, r22	; 0x01
     836:	47 cf       	rjmp	.-370    	; 0x6c6 <dlgSetVar+0x5e>
     838:	82 30       	cpi	r24, 0x02	; 2
     83a:	09 f0       	breq	.+2      	; 0x83e <dlgSetVar+0x1d6>
     83c:	44 cf       	rjmp	.-376    	; 0x6c6 <dlgSetVar+0x5e>
     83e:	29 81       	ldd	r18, Y+1	; 0x01
     840:	2a 83       	std	Y+2, r18	; 0x02
     842:	41 cf       	rjmp	.-382    	; 0x6c6 <dlgSetVar+0x5e>
     844:	8e 81       	ldd	r24, Y+6	; 0x06
     846:	9f 81       	ldd	r25, Y+7	; 0x07
     848:	89 2b       	or	r24, r25
     84a:	49 f0       	breq	.+18     	; 0x85e <dlgSetVar+0x1f6>
     84c:	ab 81       	ldd	r26, Y+3	; 0x03
     84e:	bc 81       	ldd	r27, Y+4	; 0x04
     850:	6d 91       	ld	r22, X+
     852:	7d 91       	ld	r23, X+
     854:	8d 91       	ld	r24, X+
     856:	9c 91       	ld	r25, X
     858:	ee 81       	ldd	r30, Y+6	; 0x06
     85a:	ff 81       	ldd	r31, Y+7	; 0x07
     85c:	09 95       	icall
     85e:	80 e0       	ldi	r24, 0x00	; 0
     860:	4f c0       	rjmp	.+158    	; 0x900 <dlgSetVar+0x298>
     862:	81 e0       	ldi	r24, 0x01	; 1
     864:	e8 2e       	mov	r14, r24
     866:	f1 2c       	mov	r15, r1
     868:	01 2d       	mov	r16, r1
     86a:	11 2d       	mov	r17, r1
     86c:	81 e0       	ldi	r24, 0x01	; 1
     86e:	0e 94 41 06 	call	0xc82	; 0xc82 <encGetKey>
     872:	88 23       	and	r24, r24
     874:	49 f4       	brne	.+18     	; 0x888 <dlgSetVar+0x220>
     876:	d6 01       	movw	r26, r12
     878:	c5 01       	movw	r24, r10
     87a:	8e 19       	sub	r24, r14
     87c:	9f 09       	sbc	r25, r15
     87e:	a0 0b       	sbc	r26, r16
     880:	b1 0b       	sbc	r27, r17
     882:	7c 01       	movw	r14, r24
     884:	8d 01       	movw	r16, r26
     886:	06 c0       	rjmp	.+12     	; 0x894 <dlgSetVar+0x22c>
     888:	81 30       	cpi	r24, 0x01	; 1
     88a:	d1 f4       	brne	.+52     	; 0x8c0 <dlgSetVar+0x258>
     88c:	ea 0c       	add	r14, r10
     88e:	fb 1c       	adc	r15, r11
     890:	0c 1d       	adc	r16, r12
     892:	1d 1d       	adc	r17, r13
     894:	6e 14       	cp	r6, r14
     896:	7f 04       	cpc	r7, r15
     898:	80 06       	cpc	r8, r16
     89a:	91 06       	cpc	r9, r17
     89c:	34 f4       	brge	.+12     	; 0x8aa <dlgSetVar+0x242>
     89e:	a6 14       	cp	r10, r6
     8a0:	b7 04       	cpc	r11, r7
     8a2:	c8 04       	cpc	r12, r8
     8a4:	d9 04       	cpc	r13, r9
     8a6:	b4 f0       	brlt	.+44     	; 0x8d4 <dlgSetVar+0x26c>
     8a8:	18 c0       	rjmp	.+48     	; 0x8da <dlgSetVar+0x272>
     8aa:	e2 14       	cp	r14, r2
     8ac:	f3 04       	cpc	r15, r3
     8ae:	04 05       	cpc	r16, r4
     8b0:	15 05       	cpc	r17, r5
     8b2:	ac f4       	brge	.+42     	; 0x8de <dlgSetVar+0x276>
     8b4:	2a 14       	cp	r2, r10
     8b6:	3b 04       	cpc	r3, r11
     8b8:	4c 04       	cpc	r4, r12
     8ba:	5d 04       	cpc	r5, r13
     8bc:	74 f0       	brlt	.+28     	; 0x8da <dlgSetVar+0x272>
     8be:	0a c0       	rjmp	.+20     	; 0x8d4 <dlgSetVar+0x26c>
     8c0:	82 30       	cpi	r24, 0x02	; 2
     8c2:	29 f4       	brne	.+10     	; 0x8ce <dlgSetVar+0x266>
     8c4:	86 01       	movw	r16, r12
     8c6:	75 01       	movw	r14, r10
     8c8:	9a e0       	ldi	r25, 0x0A	; 10
     8ca:	9a 83       	std	Y+2, r25	; 0x02
     8cc:	08 c0       	rjmp	.+16     	; 0x8de <dlgSetVar+0x276>
     8ce:	86 01       	movw	r16, r12
     8d0:	75 01       	movw	r14, r10
     8d2:	05 c0       	rjmp	.+10     	; 0x8de <dlgSetVar+0x276>
     8d4:	84 01       	movw	r16, r8
     8d6:	73 01       	movw	r14, r6
     8d8:	02 c0       	rjmp	.+4      	; 0x8de <dlgSetVar+0x276>
     8da:	82 01       	movw	r16, r4
     8dc:	71 01       	movw	r14, r2
     8de:	ae 81       	ldd	r26, Y+6	; 0x06
     8e0:	bf 81       	ldd	r27, Y+7	; 0x07
     8e2:	10 97       	sbiw	r26, 0x00	; 0
     8e4:	09 f4       	brne	.+2      	; 0x8e8 <dlgSetVar+0x280>
     8e6:	f1 ce       	rjmp	.-542    	; 0x6ca <dlgSetVar+0x62>
     8e8:	c8 01       	movw	r24, r16
     8ea:	b7 01       	movw	r22, r14
     8ec:	fd 01       	movw	r30, r26
     8ee:	09 95       	icall
     8f0:	ec ce       	rjmp	.-552    	; 0x6ca <dlgSetVar+0x62>
     8f2:	eb 81       	ldd	r30, Y+3	; 0x03
     8f4:	fc 81       	ldd	r31, Y+4	; 0x04
     8f6:	a0 82       	st	Z, r10
     8f8:	b1 82       	std	Z+1, r11	; 0x01
     8fa:	c2 82       	std	Z+2, r12	; 0x02
     8fc:	d3 82       	std	Z+3, r13	; 0x03
     8fe:	81 e0       	ldi	r24, 0x01	; 1
     900:	27 96       	adiw	r28, 0x07	; 7
     902:	0f b6       	in	r0, 0x3f	; 63
     904:	f8 94       	cli
     906:	de bf       	out	0x3e, r29	; 62
     908:	0f be       	out	0x3f, r0	; 63
     90a:	cd bf       	out	0x3d, r28	; 61
     90c:	cf 91       	pop	r28
     90e:	df 91       	pop	r29
     910:	1f 91       	pop	r17
     912:	0f 91       	pop	r16
     914:	ff 90       	pop	r15
     916:	ef 90       	pop	r14
     918:	df 90       	pop	r13
     91a:	cf 90       	pop	r12
     91c:	bf 90       	pop	r11
     91e:	af 90       	pop	r10
     920:	9f 90       	pop	r9
     922:	8f 90       	pop	r8
     924:	7f 90       	pop	r7
     926:	6f 90       	pop	r6
     928:	5f 90       	pop	r5
     92a:	4f 90       	pop	r4
     92c:	3f 90       	pop	r3
     92e:	2f 90       	pop	r2
     930:	08 95       	ret

00000932 <dlgYesNo>:
     932:	ef 92       	push	r14
     934:	ff 92       	push	r15
     936:	1f 93       	push	r17
     938:	cf 93       	push	r28
     93a:	df 93       	push	r29
     93c:	ec 01       	movw	r28, r24
     93e:	0e 94 a9 09 	call	0x1352	; 0x1352 <lcd_clr>
     942:	10 e0       	ldi	r17, 0x00	; 0
     944:	2b e0       	ldi	r18, 0x0B	; 11
     946:	e2 2e       	mov	r14, r18
     948:	21 e0       	ldi	r18, 0x01	; 1
     94a:	f2 2e       	mov	r15, r18
     94c:	01 c0       	rjmp	.+2      	; 0x950 <dlgYesNo+0x1e>
     94e:	11 e0       	ldi	r17, 0x01	; 1
     950:	00 d0       	rcall	.+0      	; 0x952 <dlgYesNo+0x20>
     952:	00 d0       	rcall	.+0      	; 0x954 <dlgYesNo+0x22>
     954:	ed b7       	in	r30, 0x3d	; 61
     956:	fe b7       	in	r31, 0x3e	; 62
     958:	f2 82       	std	Z+2, r15	; 0x02
     95a:	e1 82       	std	Z+1, r14	; 0x01
     95c:	d4 83       	std	Z+4, r29	; 0x04
     95e:	c3 83       	std	Z+3, r28	; 0x03
     960:	0e 94 c8 13 	call	0x2790	; 0x2790 <printf_P>
     964:	0f 90       	pop	r0
     966:	0f 90       	pop	r0
     968:	0f 90       	pop	r0
     96a:	0f 90       	pop	r0
     96c:	81 e1       	ldi	r24, 0x11	; 17
     96e:	91 e0       	ldi	r25, 0x01	; 1
     970:	61 2f       	mov	r22, r17
     972:	4e e5       	ldi	r20, 0x5E	; 94
     974:	0e 94 f2 02 	call	0x5e4	; 0x5e4 <dlgPrintSel>
     978:	81 e0       	ldi	r24, 0x01	; 1
     97a:	0e 94 41 06 	call	0xc82	; 0xc82 <encGetKey>
     97e:	88 23       	and	r24, r24
     980:	11 f4       	brne	.+4      	; 0x986 <dlgYesNo+0x54>
     982:	10 e0       	ldi	r17, 0x00	; 0
     984:	e5 cf       	rjmp	.-54     	; 0x950 <dlgYesNo+0x1e>
     986:	81 30       	cpi	r24, 0x01	; 1
     988:	11 f3       	breq	.-60     	; 0x94e <dlgYesNo+0x1c>
     98a:	82 30       	cpi	r24, 0x02	; 2
     98c:	09 f7       	brne	.-62     	; 0x950 <dlgYesNo+0x1e>
     98e:	61 2f       	mov	r22, r17
     990:	11 11       	cpse	r17, r1
     992:	61 e0       	ldi	r22, 0x01	; 1
     994:	86 2f       	mov	r24, r22
     996:	df 91       	pop	r29
     998:	cf 91       	pop	r28
     99a:	1f 91       	pop	r17
     99c:	ff 90       	pop	r15
     99e:	ef 90       	pop	r14
     9a0:	08 95       	ret

000009a2 <dlgSetTime>:
     9a2:	2f 92       	push	r2
     9a4:	3f 92       	push	r3
     9a6:	4f 92       	push	r4
     9a8:	5f 92       	push	r5
     9aa:	6f 92       	push	r6
     9ac:	7f 92       	push	r7
     9ae:	8f 92       	push	r8
     9b0:	9f 92       	push	r9
     9b2:	af 92       	push	r10
     9b4:	bf 92       	push	r11
     9b6:	cf 92       	push	r12
     9b8:	df 92       	push	r13
     9ba:	ef 92       	push	r14
     9bc:	ff 92       	push	r15
     9be:	0f 93       	push	r16
     9c0:	1f 93       	push	r17
     9c2:	df 93       	push	r29
     9c4:	cf 93       	push	r28
     9c6:	cd b7       	in	r28, 0x3d	; 61
     9c8:	de b7       	in	r29, 0x3e	; 62
     9ca:	2b 97       	sbiw	r28, 0x0b	; 11
     9cc:	0f b6       	in	r0, 0x3f	; 63
     9ce:	f8 94       	cli
     9d0:	de bf       	out	0x3e, r29	; 62
     9d2:	0f be       	out	0x3f, r0	; 63
     9d4:	cd bf       	out	0x3d, r28	; 61
     9d6:	8a 87       	std	Y+10, r24	; 0x0a
     9d8:	9b 87       	std	Y+11, r25	; 0x0b
     9da:	16 2f       	mov	r17, r22
     9dc:	04 2f       	mov	r16, r20
     9de:	0e 94 a9 09 	call	0x1352	; 0x1352 <lcd_clr>
     9e2:	de 01       	movw	r26, r28
     9e4:	11 96       	adiw	r26, 0x01	; 1
     9e6:	8a 85       	ldd	r24, Y+10	; 0x0a
     9e8:	9b 85       	ldd	r25, Y+11	; 0x0b
     9ea:	9c 01       	movw	r18, r24
     9ec:	f9 01       	movw	r30, r18
     9ee:	83 e0       	ldi	r24, 0x03	; 3
     9f0:	01 90       	ld	r0, Z+
     9f2:	0d 92       	st	X+, r0
     9f4:	81 50       	subi	r24, 0x01	; 1
     9f6:	e1 f7       	brne	.-8      	; 0x9f0 <dlgSetTime+0x4e>
     9f8:	ce 01       	movw	r24, r28
     9fa:	01 96       	adiw	r24, 0x01	; 1
     9fc:	0e 94 fc 0f 	call	0x1ff8	; 0x1ff8 <rtcTm2Int>
     a00:	de 01       	movw	r26, r28
     a02:	14 96       	adiw	r26, 0x04	; 4
     a04:	e6 e3       	ldi	r30, 0x36	; 54
     a06:	f1 e0       	ldi	r31, 0x01	; 1
     a08:	83 e0       	ldi	r24, 0x03	; 3
     a0a:	01 90       	ld	r0, Z+
     a0c:	0d 92       	st	X+, r0
     a0e:	81 50       	subi	r24, 0x01	; 1
     a10:	e1 f7       	brne	.-8      	; 0xa0a <dlgSetTime+0x68>
     a12:	de 01       	movw	r26, r28
     a14:	17 96       	adiw	r26, 0x07	; 7
     a16:	e3 e3       	ldi	r30, 0x33	; 51
     a18:	f1 e0       	ldi	r31, 0x01	; 1
     a1a:	83 e0       	ldi	r24, 0x03	; 3
     a1c:	01 90       	ld	r0, Z+
     a1e:	0d 92       	st	X+, r0
     a20:	81 50       	subi	r24, 0x01	; 1
     a22:	e1 f7       	brne	.-8      	; 0xa1c <dlgSetTime+0x7a>
     a24:	8a 85       	ldd	r24, Y+10	; 0x0a
     a26:	9b 85       	ldd	r25, Y+11	; 0x0b
     a28:	0e 94 fc 0f 	call	0x1ff8	; 0x1ff8 <rtcTm2Int>
     a2c:	e8 2f       	mov	r30, r24
     a2e:	11 23       	and	r17, r17
     a30:	11 f0       	breq	.+4      	; 0xa36 <dlgSetTime+0x94>
     a32:	87 e1       	ldi	r24, 0x17	; 23
     a34:	89 87       	std	Y+9, r24	; 0x09
     a36:	00 23       	and	r16, r16
     a38:	11 f0       	breq	.+4      	; 0xa3e <dlgSetTime+0x9c>
     a3a:	81 e0       	ldi	r24, 0x01	; 1
     a3c:	8c 83       	std	Y+4, r24	; 0x04
     a3e:	4e 2f       	mov	r20, r30
     a40:	59 2f       	mov	r21, r25
     a42:	cb 01       	movw	r24, r22
     a44:	da 01       	movw	r26, r20
     a46:	4c 01       	movw	r8, r24
     a48:	5d 01       	movw	r10, r26
     a4a:	ce 01       	movw	r24, r28
     a4c:	04 96       	adiw	r24, 0x04	; 4
     a4e:	0e 94 fc 0f 	call	0x1ff8	; 0x1ff8 <rtcTm2Int>
     a52:	2b 01       	movw	r4, r22
     a54:	3c 01       	movw	r6, r24
     a56:	ce 01       	movw	r24, r28
     a58:	07 96       	adiw	r24, 0x07	; 7
     a5a:	0e 94 fc 0f 	call	0x1ff8	; 0x1ff8 <rtcTm2Int>
     a5e:	6b 01       	movw	r12, r22
     a60:	7c 01       	movw	r14, r24
     a62:	7a e0       	ldi	r23, 0x0A	; 10
     a64:	37 2e       	mov	r3, r23
     a66:	22 24       	eor	r2, r2
     a68:	0a c0       	rjmp	.+20     	; 0xa7e <dlgSetTime+0xdc>
     a6a:	a7 01       	movw	r20, r14
     a6c:	96 01       	movw	r18, r12
     a6e:	05 c0       	rjmp	.+10     	; 0xa7a <dlgSetTime+0xd8>
     a70:	a3 01       	movw	r20, r6
     a72:	92 01       	movw	r18, r4
     a74:	02 c0       	rjmp	.+4      	; 0xa7a <dlgSetTime+0xd8>
     a76:	a5 01       	movw	r20, r10
     a78:	94 01       	movw	r18, r8
     a7a:	49 01       	movw	r8, r18
     a7c:	5a 01       	movw	r10, r20
     a7e:	c5 01       	movw	r24, r10
     a80:	b4 01       	movw	r22, r8
     a82:	ae 01       	movw	r20, r28
     a84:	4f 5f       	subi	r20, 0xFF	; 255
     a86:	5f 4f       	sbci	r21, 0xFF	; 255
     a88:	0e 94 2e 10 	call	0x205c	; 0x205c <rtcInt2Tm>
     a8c:	80 e0       	ldi	r24, 0x00	; 0
     a8e:	60 e0       	ldi	r22, 0x00	; 0
     a90:	0e 94 96 09 	call	0x132c	; 0x132c <lcd_setxy>
     a94:	8d b7       	in	r24, 0x3d	; 61
     a96:	9e b7       	in	r25, 0x3e	; 62
     a98:	08 97       	sbiw	r24, 0x08	; 8
     a9a:	0f b6       	in	r0, 0x3f	; 63
     a9c:	f8 94       	cli
     a9e:	9e bf       	out	0x3e, r25	; 62
     aa0:	0f be       	out	0x3f, r0	; 63
     aa2:	8d bf       	out	0x3d, r24	; 61
     aa4:	ed b7       	in	r30, 0x3d	; 61
     aa6:	fe b7       	in	r31, 0x3e	; 62
     aa8:	31 96       	adiw	r30, 0x01	; 1
     aaa:	87 e1       	ldi	r24, 0x17	; 23
     aac:	91 e0       	ldi	r25, 0x01	; 1
     aae:	ad b7       	in	r26, 0x3d	; 61
     ab0:	be b7       	in	r27, 0x3e	; 62
     ab2:	12 96       	adiw	r26, 0x02	; 2
     ab4:	9c 93       	st	X, r25
     ab6:	8e 93       	st	-X, r24
     ab8:	11 97       	sbiw	r26, 0x01	; 1
     aba:	8b 81       	ldd	r24, Y+3	; 0x03
     abc:	82 83       	std	Z+2, r24	; 0x02
     abe:	13 82       	std	Z+3, r1	; 0x03
     ac0:	8a 81       	ldd	r24, Y+2	; 0x02
     ac2:	84 83       	std	Z+4, r24	; 0x04
     ac4:	15 82       	std	Z+5, r1	; 0x05
     ac6:	89 81       	ldd	r24, Y+1	; 0x01
     ac8:	86 83       	std	Z+6, r24	; 0x06
     aca:	17 82       	std	Z+7, r1	; 0x07
     acc:	0e 94 c8 13 	call	0x2790	; 0x2790 <printf_P>
     ad0:	ad b7       	in	r26, 0x3d	; 61
     ad2:	be b7       	in	r27, 0x3e	; 62
     ad4:	18 96       	adiw	r26, 0x08	; 8
     ad6:	0f b6       	in	r0, 0x3f	; 63
     ad8:	f8 94       	cli
     ada:	be bf       	out	0x3e, r27	; 62
     adc:	0f be       	out	0x3f, r0	; 63
     ade:	ad bf       	out	0x3d, r26	; 61
     ae0:	ba e0       	ldi	r27, 0x0A	; 10
     ae2:	3b 16       	cp	r3, r27
     ae4:	11 f4       	brne	.+4      	; 0xaea <dlgSetTime+0x148>
     ae6:	42 e0       	ldi	r20, 0x02	; 2
     ae8:	01 c0       	rjmp	.+2      	; 0xaec <dlgSetTime+0x14a>
     aea:	43 e0       	ldi	r20, 0x03	; 3
     aec:	82 e2       	ldi	r24, 0x22	; 34
     aee:	91 e0       	ldi	r25, 0x01	; 1
     af0:	62 2d       	mov	r22, r2
     af2:	0e 94 f2 02 	call	0x5e4	; 0x5e4 <dlgPrintSel>
     af6:	22 e0       	ldi	r18, 0x02	; 2
     af8:	32 16       	cp	r3, r18
     afa:	b9 f0       	breq	.+46     	; 0xb2a <dlgSetTime+0x188>
     afc:	23 15       	cp	r18, r3
     afe:	3c f0       	brlt	.+14     	; 0xb0e <dlgSetTime+0x16c>
     b00:	33 20       	and	r3, r3
     b02:	89 f0       	breq	.+34     	; 0xb26 <dlgSetTime+0x184>
     b04:	81 e0       	ldi	r24, 0x01	; 1
     b06:	38 16       	cp	r3, r24
     b08:	09 f0       	breq	.+2      	; 0xb0c <dlgSetTime+0x16a>
     b0a:	b9 cf       	rjmp	.-142    	; 0xa7e <dlgSetTime+0xdc>
     b0c:	b7 c0       	rjmp	.+366    	; 0xc7c <dlgSetTime+0x2da>
     b0e:	94 e0       	ldi	r25, 0x04	; 4
     b10:	39 16       	cp	r3, r25
     b12:	09 f4       	brne	.+2      	; 0xb16 <dlgSetTime+0x174>
     b14:	8e c0       	rjmp	.+284    	; 0xc32 <dlgSetTime+0x290>
     b16:	39 16       	cp	r3, r25
     b18:	0c f4       	brge	.+2      	; 0xb1c <dlgSetTime+0x17a>
     b1a:	4e c0       	rjmp	.+156    	; 0xbb8 <dlgSetTime+0x216>
     b1c:	aa e0       	ldi	r26, 0x0A	; 10
     b1e:	3a 16       	cp	r3, r26
     b20:	09 f0       	breq	.+2      	; 0xb24 <dlgSetTime+0x182>
     b22:	ad cf       	rjmp	.-166    	; 0xa7e <dlgSetTime+0xdc>
     b24:	05 c0       	rjmp	.+10     	; 0xb30 <dlgSetTime+0x18e>
     b26:	80 e0       	ldi	r24, 0x00	; 0
     b28:	90 c0       	rjmp	.+288    	; 0xc4a <dlgSetTime+0x2a8>
     b2a:	0c e3       	ldi	r16, 0x3C	; 60
     b2c:	10 e0       	ldi	r17, 0x00	; 0
     b2e:	46 c0       	rjmp	.+140    	; 0xbbc <dlgSetTime+0x21a>
     b30:	81 e0       	ldi	r24, 0x01	; 1
     b32:	0e 94 41 06 	call	0xc82	; 0xc82 <encGetKey>
     b36:	88 23       	and	r24, r24
     b38:	a9 f4       	brne	.+42     	; 0xb64 <dlgSetTime+0x1c2>
     b3a:	62 2d       	mov	r22, r2
     b3c:	77 27       	eor	r23, r23
     b3e:	67 fd       	sbrc	r22, 7
     b40:	70 95       	com	r23
     b42:	87 2f       	mov	r24, r23
     b44:	97 2f       	mov	r25, r23
     b46:	66 30       	cpi	r22, 0x06	; 6
     b48:	71 05       	cpc	r23, r1
     b4a:	81 05       	cpc	r24, r1
     b4c:	91 05       	cpc	r25, r1
     b4e:	bc f4       	brge	.+46     	; 0xb7e <dlgSetTime+0x1dc>
     b50:	16 16       	cp	r1, r22
     b52:	17 06       	cpc	r1, r23
     b54:	18 06       	cpc	r1, r24
     b56:	19 06       	cpc	r1, r25
     b58:	fc f4       	brge	.+62     	; 0xb98 <dlgSetTime+0x1f6>
     b5a:	61 50       	subi	r22, 0x01	; 1
     b5c:	70 40       	sbci	r23, 0x00	; 0
     b5e:	80 40       	sbci	r24, 0x00	; 0
     b60:	90 40       	sbci	r25, 0x00	; 0
     b62:	23 c0       	rjmp	.+70     	; 0xbaa <dlgSetTime+0x208>
     b64:	81 30       	cpi	r24, 0x01	; 1
     b66:	19 f5       	brne	.+70     	; 0xbae <dlgSetTime+0x20c>
     b68:	62 2d       	mov	r22, r2
     b6a:	77 27       	eor	r23, r23
     b6c:	67 fd       	sbrc	r22, 7
     b6e:	70 95       	com	r23
     b70:	87 2f       	mov	r24, r23
     b72:	97 2f       	mov	r25, r23
     b74:	64 30       	cpi	r22, 0x04	; 4
     b76:	71 05       	cpc	r23, r1
     b78:	81 05       	cpc	r24, r1
     b7a:	91 05       	cpc	r25, r1
     b7c:	2c f0       	brlt	.+10     	; 0xb88 <dlgSetTime+0x1e6>
     b7e:	64 e0       	ldi	r22, 0x04	; 4
     b80:	70 e0       	ldi	r23, 0x00	; 0
     b82:	80 e0       	ldi	r24, 0x00	; 0
     b84:	90 e0       	ldi	r25, 0x00	; 0
     b86:	11 c0       	rjmp	.+34     	; 0xbaa <dlgSetTime+0x208>
     b88:	6f 3f       	cpi	r22, 0xFF	; 255
     b8a:	bf ef       	ldi	r27, 0xFF	; 255
     b8c:	7b 07       	cpc	r23, r27
     b8e:	bf ef       	ldi	r27, 0xFF	; 255
     b90:	8b 07       	cpc	r24, r27
     b92:	bf ef       	ldi	r27, 0xFF	; 255
     b94:	9b 07       	cpc	r25, r27
     b96:	2c f4       	brge	.+10     	; 0xba2 <dlgSetTime+0x200>
     b98:	60 e0       	ldi	r22, 0x00	; 0
     b9a:	70 e0       	ldi	r23, 0x00	; 0
     b9c:	80 e0       	ldi	r24, 0x00	; 0
     b9e:	90 e0       	ldi	r25, 0x00	; 0
     ba0:	04 c0       	rjmp	.+8      	; 0xbaa <dlgSetTime+0x208>
     ba2:	6f 5f       	subi	r22, 0xFF	; 255
     ba4:	7f 4f       	sbci	r23, 0xFF	; 255
     ba6:	8f 4f       	sbci	r24, 0xFF	; 255
     ba8:	9f 4f       	sbci	r25, 0xFF	; 255
     baa:	26 2e       	mov	r2, r22
     bac:	64 cf       	rjmp	.-312    	; 0xa76 <dlgSetTime+0xd4>
     bae:	82 30       	cpi	r24, 0x02	; 2
     bb0:	09 f0       	breq	.+2      	; 0xbb4 <dlgSetTime+0x212>
     bb2:	61 cf       	rjmp	.-318    	; 0xa76 <dlgSetTime+0xd4>
     bb4:	32 2c       	mov	r3, r2
     bb6:	5f cf       	rjmp	.-322    	; 0xa76 <dlgSetTime+0xd4>
     bb8:	01 e0       	ldi	r16, 0x01	; 1
     bba:	10 e0       	ldi	r17, 0x00	; 0
     bbc:	81 e0       	ldi	r24, 0x01	; 1
     bbe:	0e 94 41 06 	call	0xc82	; 0xc82 <encGetKey>
     bc2:	88 23       	and	r24, r24
     bc4:	51 f4       	brne	.+20     	; 0xbda <dlgSetTime+0x238>
     bc6:	88 27       	eor	r24, r24
     bc8:	99 27       	eor	r25, r25
     bca:	80 1b       	sub	r24, r16
     bcc:	91 0b       	sbc	r25, r17
     bce:	9c 01       	movw	r18, r24
     bd0:	44 27       	eor	r20, r20
     bd2:	37 fd       	sbrc	r19, 7
     bd4:	40 95       	com	r20
     bd6:	54 2f       	mov	r21, r20
     bd8:	07 c0       	rjmp	.+14     	; 0xbe8 <dlgSetTime+0x246>
     bda:	81 30       	cpi	r24, 0x01	; 1
     bdc:	11 f5       	brne	.+68     	; 0xc22 <dlgSetTime+0x280>
     bde:	98 01       	movw	r18, r16
     be0:	44 27       	eor	r20, r20
     be2:	37 fd       	sbrc	r19, 7
     be4:	40 95       	com	r20
     be6:	54 2f       	mov	r21, r20
     be8:	28 0d       	add	r18, r8
     bea:	39 1d       	adc	r19, r9
     bec:	4a 1d       	adc	r20, r10
     bee:	5b 1d       	adc	r21, r11
     bf0:	c2 16       	cp	r12, r18
     bf2:	d3 06       	cpc	r13, r19
     bf4:	e4 06       	cpc	r14, r20
     bf6:	f5 06       	cpc	r15, r21
     bf8:	3c f4       	brge	.+14     	; 0xc08 <dlgSetTime+0x266>
     bfa:	8c 14       	cp	r8, r12
     bfc:	9d 04       	cpc	r9, r13
     bfe:	ae 04       	cpc	r10, r14
     c00:	bf 04       	cpc	r11, r15
     c02:	0c f4       	brge	.+2      	; 0xc06 <dlgSetTime+0x264>
     c04:	32 cf       	rjmp	.-412    	; 0xa6a <dlgSetTime+0xc8>
     c06:	34 cf       	rjmp	.-408    	; 0xa70 <dlgSetTime+0xce>
     c08:	24 15       	cp	r18, r4
     c0a:	35 05       	cpc	r19, r5
     c0c:	46 05       	cpc	r20, r6
     c0e:	57 05       	cpc	r21, r7
     c10:	0c f0       	brlt	.+2      	; 0xc14 <dlgSetTime+0x272>
     c12:	33 cf       	rjmp	.-410    	; 0xa7a <dlgSetTime+0xd8>
     c14:	48 14       	cp	r4, r8
     c16:	59 04       	cpc	r5, r9
     c18:	6a 04       	cpc	r6, r10
     c1a:	7b 04       	cpc	r7, r11
     c1c:	0c f4       	brge	.+2      	; 0xc20 <dlgSetTime+0x27e>
     c1e:	28 cf       	rjmp	.-432    	; 0xa70 <dlgSetTime+0xce>
     c20:	24 cf       	rjmp	.-440    	; 0xa6a <dlgSetTime+0xc8>
     c22:	82 30       	cpi	r24, 0x02	; 2
     c24:	09 f0       	breq	.+2      	; 0xc28 <dlgSetTime+0x286>
     c26:	27 cf       	rjmp	.-434    	; 0xa76 <dlgSetTime+0xd4>
     c28:	a5 01       	movw	r20, r10
     c2a:	94 01       	movw	r18, r8
     c2c:	6a e0       	ldi	r22, 0x0A	; 10
     c2e:	36 2e       	mov	r3, r22
     c30:	24 cf       	rjmp	.-440    	; 0xa7a <dlgSetTime+0xd8>
     c32:	8a 85       	ldd	r24, Y+10	; 0x0a
     c34:	9b 85       	ldd	r25, Y+11	; 0x0b
     c36:	9c 01       	movw	r18, r24
     c38:	d9 01       	movw	r26, r18
     c3a:	fe 01       	movw	r30, r28
     c3c:	31 96       	adiw	r30, 0x01	; 1
     c3e:	83 e0       	ldi	r24, 0x03	; 3
     c40:	01 90       	ld	r0, Z+
     c42:	0d 92       	st	X+, r0
     c44:	81 50       	subi	r24, 0x01	; 1
     c46:	e1 f7       	brne	.-8      	; 0xc40 <dlgSetTime+0x29e>
     c48:	81 e0       	ldi	r24, 0x01	; 1
     c4a:	2b 96       	adiw	r28, 0x0b	; 11
     c4c:	0f b6       	in	r0, 0x3f	; 63
     c4e:	f8 94       	cli
     c50:	de bf       	out	0x3e, r29	; 62
     c52:	0f be       	out	0x3f, r0	; 63
     c54:	cd bf       	out	0x3d, r28	; 61
     c56:	cf 91       	pop	r28
     c58:	df 91       	pop	r29
     c5a:	1f 91       	pop	r17
     c5c:	0f 91       	pop	r16
     c5e:	ff 90       	pop	r15
     c60:	ef 90       	pop	r14
     c62:	df 90       	pop	r13
     c64:	cf 90       	pop	r12
     c66:	bf 90       	pop	r11
     c68:	af 90       	pop	r10
     c6a:	9f 90       	pop	r9
     c6c:	8f 90       	pop	r8
     c6e:	7f 90       	pop	r7
     c70:	6f 90       	pop	r6
     c72:	5f 90       	pop	r5
     c74:	4f 90       	pop	r4
     c76:	3f 90       	pop	r3
     c78:	2f 90       	pop	r2
     c7a:	08 95       	ret
     c7c:	00 e1       	ldi	r16, 0x10	; 16
     c7e:	1e e0       	ldi	r17, 0x0E	; 14
     c80:	9d cf       	rjmp	.-198    	; 0xbbc <dlgSetTime+0x21a>

00000c82 <encGetKey>:
     c82:	88 23       	and	r24, r24
     c84:	81 f0       	breq	.+32     	; 0xca6 <encGetKey+0x24>
     c86:	80 91 f5 02 	lds	r24, 0x02F5
     c8a:	83 30       	cpi	r24, 0x03	; 3
     c8c:	40 f4       	brcc	.+16     	; 0xc9e <encGetKey+0x1c>
     c8e:	80 91 f6 02 	lds	r24, 0x02F6
     c92:	83 30       	cpi	r24, 0x03	; 3
     c94:	20 f4       	brcc	.+8      	; 0xc9e <encGetKey+0x1c>
     c96:	80 91 f4 02 	lds	r24, 0x02F4
     c9a:	88 23       	and	r24, r24
     c9c:	a1 f3       	breq	.-24     	; 0xc86 <encGetKey+0x4>
     c9e:	8c e4       	ldi	r24, 0x4C	; 76
     ca0:	9d e1       	ldi	r25, 0x1D	; 29
     ca2:	01 97       	sbiw	r24, 0x01	; 1
     ca4:	f1 f7       	brne	.-4      	; 0xca2 <encGetKey+0x20>
     ca6:	80 91 f6 02 	lds	r24, 0x02F6
     caa:	84 30       	cpi	r24, 0x04	; 4
     cac:	20 f0       	brcs	.+8      	; 0xcb6 <encGetKey+0x34>
     cae:	10 92 f6 02 	sts	0x02F6, r1
     cb2:	81 e0       	ldi	r24, 0x01	; 1
     cb4:	08 95       	ret
     cb6:	80 91 f4 02 	lds	r24, 0x02F4
     cba:	88 23       	and	r24, r24
     cbc:	21 f0       	breq	.+8      	; 0xcc6 <encGetKey+0x44>
     cbe:	10 92 f4 02 	sts	0x02F4, r1
     cc2:	82 e0       	ldi	r24, 0x02	; 2
     cc4:	08 95       	ret
     cc6:	80 91 f5 02 	lds	r24, 0x02F5
     cca:	84 30       	cpi	r24, 0x04	; 4
     ccc:	10 f4       	brcc	.+4      	; 0xcd2 <encGetKey+0x50>
     cce:	83 e0       	ldi	r24, 0x03	; 3
     cd0:	08 95       	ret
     cd2:	10 92 f5 02 	sts	0x02F5, r1
     cd6:	80 e0       	ldi	r24, 0x00	; 0
     cd8:	08 95       	ret

00000cda <encClrKeyBuf>:
     cda:	10 92 f4 02 	sts	0x02F4, r1
     cde:	80 91 f4 02 	lds	r24, 0x02F4
     ce2:	80 93 f5 02 	sts	0x02F5, r24
     ce6:	80 91 f5 02 	lds	r24, 0x02F5
     cea:	80 93 f6 02 	sts	0x02F6, r24
     cee:	08 95       	ret

00000cf0 <__vector_16>:
     cf0:	1f 92       	push	r1
     cf2:	0f 92       	push	r0
     cf4:	0f b6       	in	r0, 0x3f	; 63
     cf6:	0f 92       	push	r0
     cf8:	11 24       	eor	r1, r1
     cfa:	1f 93       	push	r17
     cfc:	2f 93       	push	r18
     cfe:	3f 93       	push	r19
     d00:	4f 93       	push	r20
     d02:	5f 93       	push	r21
     d04:	6f 93       	push	r22
     d06:	7f 93       	push	r23
     d08:	8f 93       	push	r24
     d0a:	9f 93       	push	r25
     d0c:	af 93       	push	r26
     d0e:	bf 93       	push	r27
     d10:	ef 93       	push	r30
     d12:	ff 93       	push	r31
     d14:	16 b1       	in	r17, 0x06	; 6
     d16:	1e 70       	andi	r17, 0x0E	; 14
     d18:	80 91 f7 02 	lds	r24, 0x02F7
     d1c:	81 17       	cp	r24, r17
     d1e:	09 f4       	brne	.+2      	; 0xd22 <__vector_16+0x32>
     d20:	44 c0       	rjmp	.+136    	; 0xdaa <__vector_16+0xba>
     d22:	10 93 f7 02 	sts	0x02F7, r17
     d26:	0e 94 e2 10 	call	0x21c4	; 0x21c4 <rtcUpdInactTimer>
     d2a:	11 fd       	sbrc	r17, 1
     d2c:	05 c0       	rjmp	.+10     	; 0xd38 <__vector_16+0x48>
     d2e:	80 91 f4 02 	lds	r24, 0x02F4
     d32:	8f 5f       	subi	r24, 0xFF	; 255
     d34:	80 93 f4 02 	sts	0x02F4, r24
     d38:	16 95       	lsr	r17
     d3a:	16 95       	lsr	r17
     d3c:	21 e0       	ldi	r18, 0x01	; 1
     d3e:	30 e0       	ldi	r19, 0x00	; 0
     d40:	41 2f       	mov	r20, r17
     d42:	50 e0       	ldi	r21, 0x00	; 0
     d44:	6e e1       	ldi	r22, 0x1E	; 30
     d46:	7e e1       	ldi	r23, 0x1E	; 30
     d48:	e2 2f       	mov	r30, r18
     d4a:	c9 01       	movw	r24, r18
     d4c:	88 0f       	add	r24, r24
     d4e:	99 1f       	adc	r25, r25
     d50:	db 01       	movw	r26, r22
     d52:	02 c0       	rjmp	.+4      	; 0xd58 <__vector_16+0x68>
     d54:	b6 95       	lsr	r27
     d56:	a7 95       	ror	r26
     d58:	8a 95       	dec	r24
     d5a:	e2 f7       	brpl	.-8      	; 0xd54 <__vector_16+0x64>
     d5c:	cd 01       	movw	r24, r26
     d5e:	83 70       	andi	r24, 0x03	; 3
     d60:	90 70       	andi	r25, 0x00	; 0
     d62:	48 17       	cp	r20, r24
     d64:	59 07       	cpc	r21, r25
     d66:	e1 f4       	brne	.+56     	; 0xda0 <__vector_16+0xb0>
     d68:	80 91 f8 02 	lds	r24, 0x02F8
     d6c:	48 2f       	mov	r20, r24
     d6e:	50 e0       	ldi	r21, 0x00	; 0
     d70:	c9 01       	movw	r24, r18
     d72:	01 97       	sbiw	r24, 0x01	; 1
     d74:	84 17       	cp	r24, r20
     d76:	95 07       	cpc	r25, r21
     d78:	31 f4       	brne	.+12     	; 0xd86 <__vector_16+0x96>
     d7a:	80 91 f5 02 	lds	r24, 0x02F5
     d7e:	8f 5f       	subi	r24, 0xFF	; 255
     d80:	80 93 f5 02 	sts	0x02F5, r24
     d84:	0a c0       	rjmp	.+20     	; 0xd9a <__vector_16+0xaa>
     d86:	2f 5f       	subi	r18, 0xFF	; 255
     d88:	3f 4f       	sbci	r19, 0xFF	; 255
     d8a:	24 17       	cp	r18, r20
     d8c:	35 07       	cpc	r19, r21
     d8e:	29 f4       	brne	.+10     	; 0xd9a <__vector_16+0xaa>
     d90:	80 91 f6 02 	lds	r24, 0x02F6
     d94:	8f 5f       	subi	r24, 0xFF	; 255
     d96:	80 93 f6 02 	sts	0x02F6, r24
     d9a:	e0 93 f8 02 	sts	0x02F8, r30
     d9e:	05 c0       	rjmp	.+10     	; 0xdaa <__vector_16+0xba>
     da0:	2f 5f       	subi	r18, 0xFF	; 255
     da2:	3f 4f       	sbci	r19, 0xFF	; 255
     da4:	25 30       	cpi	r18, 0x05	; 5
     da6:	31 05       	cpc	r19, r1
     da8:	79 f6       	brne	.-98     	; 0xd48 <__vector_16+0x58>
     daa:	ff 91       	pop	r31
     dac:	ef 91       	pop	r30
     dae:	bf 91       	pop	r27
     db0:	af 91       	pop	r26
     db2:	9f 91       	pop	r25
     db4:	8f 91       	pop	r24
     db6:	7f 91       	pop	r23
     db8:	6f 91       	pop	r22
     dba:	5f 91       	pop	r21
     dbc:	4f 91       	pop	r20
     dbe:	3f 91       	pop	r19
     dc0:	2f 91       	pop	r18
     dc2:	1f 91       	pop	r17
     dc4:	0f 90       	pop	r0
     dc6:	0f be       	out	0x3f, r0	; 63
     dc8:	0f 90       	pop	r0
     dca:	1f 90       	pop	r1
     dcc:	18 95       	reti

00000dce <hd44780_outbyte>:
     dce:	28 2f       	mov	r18, r24
     dd0:	5d 98       	cbi	0x0b, 5	; 11
     dd2:	66 23       	and	r22, r22
     dd4:	11 f0       	breq	.+4      	; 0xdda <hd44780_outbyte+0xc>
     dd6:	5c 9a       	sbi	0x0b, 4	; 11
     dd8:	01 c0       	rjmp	.+2      	; 0xddc <hd44780_outbyte+0xe>
     dda:	5c 98       	cbi	0x0b, 4	; 11
     ddc:	8b b1       	in	r24, 0x0b	; 11
     dde:	92 2f       	mov	r25, r18
     de0:	92 95       	swap	r25
     de2:	9f 70       	andi	r25, 0x0F	; 15
     de4:	80 7f       	andi	r24, 0xF0	; 240
     de6:	98 2b       	or	r25, r24
     de8:	9b b9       	out	0x0b, r25	; 11
     dea:	5f 9a       	sbi	0x0b, 7	; 11
     dec:	5f 98       	cbi	0x0b, 7	; 11
     dee:	5d 98       	cbi	0x0b, 5	; 11
     df0:	66 23       	and	r22, r22
     df2:	11 f0       	breq	.+4      	; 0xdf8 <hd44780_outbyte+0x2a>
     df4:	5c 9a       	sbi	0x0b, 4	; 11
     df6:	01 c0       	rjmp	.+2      	; 0xdfa <hd44780_outbyte+0x2c>
     df8:	5c 98       	cbi	0x0b, 4	; 11
     dfa:	8b b1       	in	r24, 0x0b	; 11
     dfc:	2f 70       	andi	r18, 0x0F	; 15
     dfe:	80 7f       	andi	r24, 0xF0	; 240
     e00:	82 2b       	or	r24, r18
     e02:	8b b9       	out	0x0b, r24	; 11
     e04:	5f 9a       	sbi	0x0b, 7	; 11
     e06:	5f 98       	cbi	0x0b, 7	; 11
     e08:	08 95       	ret

00000e0a <hd44780_inbyte>:
     e0a:	98 2f       	mov	r25, r24
     e0c:	5d 9a       	sbi	0x0b, 5	; 11
     e0e:	8a b1       	in	r24, 0x0a	; 10
     e10:	80 7f       	andi	r24, 0xF0	; 240
     e12:	8a b9       	out	0x0a, r24	; 10
     e14:	99 23       	and	r25, r25
     e16:	11 f0       	breq	.+4      	; 0xe1c <hd44780_inbyte+0x12>
     e18:	5c 9a       	sbi	0x0b, 4	; 11
     e1a:	01 c0       	rjmp	.+2      	; 0xe1e <hd44780_inbyte+0x14>
     e1c:	5c 98       	cbi	0x0b, 4	; 11
     e1e:	5f 9a       	sbi	0x0b, 7	; 11
     e20:	00 00       	nop
     e22:	29 b1       	in	r18, 0x09	; 9
     e24:	5f 98       	cbi	0x0b, 7	; 11
     e26:	8a b1       	in	r24, 0x0a	; 10
     e28:	8f 60       	ori	r24, 0x0F	; 15
     e2a:	8a b9       	out	0x0a, r24	; 10
     e2c:	5d 98       	cbi	0x0b, 5	; 11
     e2e:	5d 9a       	sbi	0x0b, 5	; 11
     e30:	8a b1       	in	r24, 0x0a	; 10
     e32:	80 7f       	andi	r24, 0xF0	; 240
     e34:	8a b9       	out	0x0a, r24	; 10
     e36:	99 23       	and	r25, r25
     e38:	11 f0       	breq	.+4      	; 0xe3e <hd44780_inbyte+0x34>
     e3a:	5c 9a       	sbi	0x0b, 4	; 11
     e3c:	01 c0       	rjmp	.+2      	; 0xe40 <hd44780_inbyte+0x36>
     e3e:	5c 98       	cbi	0x0b, 4	; 11
     e40:	5f 9a       	sbi	0x0b, 7	; 11
     e42:	00 00       	nop
     e44:	99 b1       	in	r25, 0x09	; 9
     e46:	5f 98       	cbi	0x0b, 7	; 11
     e48:	8a b1       	in	r24, 0x0a	; 10
     e4a:	8f 60       	ori	r24, 0x0F	; 15
     e4c:	8a b9       	out	0x0a, r24	; 10
     e4e:	5d 98       	cbi	0x0b, 5	; 11
     e50:	22 95       	swap	r18
     e52:	20 7f       	andi	r18, 0xF0	; 240
     e54:	9f 70       	andi	r25, 0x0F	; 15
     e56:	82 2f       	mov	r24, r18
     e58:	89 2b       	or	r24, r25
     e5a:	08 95       	ret

00000e5c <hd44780_wait_ready>:
     e5c:	80 e0       	ldi	r24, 0x00	; 0
     e5e:	0e 94 05 07 	call	0xe0a	; 0xe0a <hd44780_inbyte>
     e62:	87 fd       	sbrc	r24, 7
     e64:	fb cf       	rjmp	.-10     	; 0xe5c <hd44780_wait_ready>
     e66:	08 95       	ret

00000e68 <hd44780_init>:
     e68:	80 e1       	ldi	r24, 0x10	; 16
     e6a:	97 e2       	ldi	r25, 0x27	; 39
     e6c:	01 97       	sbiw	r24, 0x01	; 1
     e6e:	f1 f7       	brne	.-4      	; 0xe6c <hd44780_init+0x4>
     e70:	5d 98       	cbi	0x0b, 5	; 11
     e72:	5c 98       	cbi	0x0b, 4	; 11
     e74:	8b b1       	in	r24, 0x0b	; 11
     e76:	80 7f       	andi	r24, 0xF0	; 240
     e78:	83 60       	ori	r24, 0x03	; 3
     e7a:	8b b9       	out	0x0b, r24	; 11
     e7c:	5f 9a       	sbi	0x0b, 7	; 11
     e7e:	5f 98       	cbi	0x0b, 7	; 11
     e80:	81 e0       	ldi	r24, 0x01	; 1
     e82:	94 e0       	ldi	r25, 0x04	; 4
     e84:	01 97       	sbiw	r24, 0x01	; 1
     e86:	f1 f7       	brne	.-4      	; 0xe84 <hd44780_init+0x1c>
     e88:	5d 98       	cbi	0x0b, 5	; 11
     e8a:	5c 98       	cbi	0x0b, 4	; 11
     e8c:	8b b1       	in	r24, 0x0b	; 11
     e8e:	80 7f       	andi	r24, 0xF0	; 240
     e90:	83 60       	ori	r24, 0x03	; 3
     e92:	8b b9       	out	0x0b, r24	; 11
     e94:	5f 9a       	sbi	0x0b, 7	; 11
     e96:	5f 98       	cbi	0x0b, 7	; 11
     e98:	89 e1       	ldi	r24, 0x19	; 25
     e9a:	90 e0       	ldi	r25, 0x00	; 0
     e9c:	01 97       	sbiw	r24, 0x01	; 1
     e9e:	f1 f7       	brne	.-4      	; 0xe9c <hd44780_init+0x34>
     ea0:	5d 98       	cbi	0x0b, 5	; 11
     ea2:	5c 98       	cbi	0x0b, 4	; 11
     ea4:	8b b1       	in	r24, 0x0b	; 11
     ea6:	80 7f       	andi	r24, 0xF0	; 240
     ea8:	83 60       	ori	r24, 0x03	; 3
     eaa:	8b b9       	out	0x0b, r24	; 11
     eac:	5f 9a       	sbi	0x0b, 7	; 11
     eae:	5f 98       	cbi	0x0b, 7	; 11
     eb0:	5d 98       	cbi	0x0b, 5	; 11
     eb2:	5c 98       	cbi	0x0b, 4	; 11
     eb4:	8b b1       	in	r24, 0x0b	; 11
     eb6:	80 7f       	andi	r24, 0xF0	; 240
     eb8:	82 60       	ori	r24, 0x02	; 2
     eba:	8b b9       	out	0x0b, r24	; 11
     ebc:	5f 9a       	sbi	0x0b, 7	; 11
     ebe:	5f 98       	cbi	0x0b, 7	; 11
     ec0:	0e 94 2e 07 	call	0xe5c	; 0xe5c <hd44780_wait_ready>
     ec4:	88 e2       	ldi	r24, 0x28	; 40
     ec6:	60 e0       	ldi	r22, 0x00	; 0
     ec8:	0e 94 e7 06 	call	0xdce	; 0xdce <hd44780_outbyte>
     ecc:	0e 94 2e 07 	call	0xe5c	; 0xe5c <hd44780_wait_ready>
     ed0:	88 e0       	ldi	r24, 0x08	; 8
     ed2:	60 e0       	ldi	r22, 0x00	; 0
     ed4:	0e 94 e7 06 	call	0xdce	; 0xdce <hd44780_outbyte>
     ed8:	0e 94 2e 07 	call	0xe5c	; 0xe5c <hd44780_wait_ready>
     edc:	08 95       	ret

00000ede <eeprom_read_byte>:
     ede:	9c 01       	movw	r18, r24
     ee0:	f9 99       	sbic	0x1f, 1	; 31
     ee2:	fe cf       	rjmp	.-4      	; 0xee0 <eeprom_read_byte+0x2>
     ee4:	32 bd       	out	0x22, r19	; 34
     ee6:	21 bd       	out	0x21, r18	; 33
     ee8:	f8 9a       	sbi	0x1f, 0	; 31
     eea:	80 b5       	in	r24, 0x20	; 32
     eec:	08 95       	ret

00000eee <hwSetupPorts>:
     eee:	83 e0       	ldi	r24, 0x03	; 3
     ef0:	84 b9       	out	0x04, r24	; 4
     ef2:	8c e3       	ldi	r24, 0x3C	; 60
     ef4:	85 b9       	out	0x05, r24	; 5
     ef6:	80 e1       	ldi	r24, 0x10	; 16
     ef8:	87 b9       	out	0x07, r24	; 7
     efa:	8f e0       	ldi	r24, 0x0F	; 15
     efc:	88 b9       	out	0x08, r24	; 8
     efe:	80 e2       	ldi	r24, 0x20	; 32
     f00:	80 93 7e 00 	sts	0x007E, r24
     f04:	8f ef       	ldi	r24, 0xFF	; 255
     f06:	8a b9       	out	0x0a, r24	; 10
     f08:	1b b8       	out	0x0b, r1	; 11
     f0a:	00 00       	nop
     f0c:	08 95       	ret

00000f0e <hwSetupADC>:
     f0e:	85 ec       	ldi	r24, 0xC5	; 197
     f10:	80 93 7c 00 	sts	0x007C, r24
     f14:	83 e9       	ldi	r24, 0x93	; 147
     f16:	80 93 7a 00 	sts	0x007A, r24
     f1a:	10 92 7b 00 	sts	0x007B, r1
     f1e:	08 95       	ret

00000f20 <hwSetupT0>:
     f20:	83 ec       	ldi	r24, 0xC3	; 195
     f22:	84 bd       	out	0x24, r24	; 36
     f24:	81 e0       	ldi	r24, 0x01	; 1
     f26:	85 bd       	out	0x25, r24	; 37
     f28:	10 92 6e 00 	sts	0x006E, r1
     f2c:	8f ef       	ldi	r24, 0xFF	; 255
     f2e:	87 bd       	out	0x27, r24	; 39
     f30:	08 95       	ret

00000f32 <hwSetupT1>:
     f32:	83 e8       	ldi	r24, 0x83	; 131
     f34:	80 93 80 00 	sts	0x0080, r24
     f38:	82 e0       	ldi	r24, 0x02	; 2
     f3a:	80 93 81 00 	sts	0x0081, r24
     f3e:	10 92 6f 00 	sts	0x006F, r1
     f42:	8f b7       	in	r24, 0x3f	; 63
     f44:	f8 94       	cli
     f46:	10 92 89 00 	sts	0x0089, r1
     f4a:	10 92 88 00 	sts	0x0088, r1
     f4e:	8f bf       	out	0x3f, r24	; 63
     f50:	08 95       	ret

00000f52 <hwSetupT2>:
     f52:	10 92 70 00 	sts	0x0070, r1
     f56:	80 e2       	ldi	r24, 0x20	; 32
     f58:	80 93 b6 00 	sts	0x00B6, r24
     f5c:	10 92 b0 00 	sts	0x00B0, r1
     f60:	85 e0       	ldi	r24, 0x05	; 5
     f62:	80 93 b1 00 	sts	0x00B1, r24
     f66:	80 91 b6 00 	lds	r24, 0x00B6
     f6a:	90 e0       	ldi	r25, 0x00	; 0
     f6c:	8f 71       	andi	r24, 0x1F	; 31
     f6e:	90 70       	andi	r25, 0x00	; 0
     f70:	89 2b       	or	r24, r25
     f72:	c9 f7       	brne	.-14     	; 0xf66 <hwSetupT2+0x14>
     f74:	17 ba       	out	0x17, r1	; 23
     f76:	81 e0       	ldi	r24, 0x01	; 1
     f78:	80 93 70 00 	sts	0x0070, r24
     f7c:	08 95       	ret

00000f7e <hwSetupPwr>:
     f7e:	e4 e6       	ldi	r30, 0x64	; 100
     f80:	f0 e0       	ldi	r31, 0x00	; 0
     f82:	80 81       	ld	r24, Z
     f84:	80 68       	ori	r24, 0x80	; 128
     f86:	80 83       	st	Z, r24
     f88:	80 81       	ld	r24, Z
     f8a:	82 60       	ori	r24, 0x02	; 2
     f8c:	80 83       	st	Z, r24
     f8e:	83 b7       	in	r24, 0x33	; 51
     f90:	81 7f       	andi	r24, 0xF1	; 241
     f92:	86 60       	ori	r24, 0x06	; 6
     f94:	83 bf       	out	0x33, r24	; 51
     f96:	08 95       	ret

00000f98 <hwSetupAll>:
     f98:	80 91 64 00 	lds	r24, 0x0064
     f9c:	80 68       	ori	r24, 0x80	; 128
     f9e:	80 93 64 00 	sts	0x0064, r24
     fa2:	80 91 64 00 	lds	r24, 0x0064
     fa6:	82 60       	ori	r24, 0x02	; 2
     fa8:	80 93 64 00 	sts	0x0064, r24
     fac:	83 b7       	in	r24, 0x33	; 51
     fae:	81 7f       	andi	r24, 0xF1	; 241
     fb0:	86 60       	ori	r24, 0x06	; 6
     fb2:	83 bf       	out	0x33, r24	; 51
     fb4:	83 e0       	ldi	r24, 0x03	; 3
     fb6:	84 b9       	out	0x04, r24	; 4
     fb8:	8c e3       	ldi	r24, 0x3C	; 60
     fba:	85 b9       	out	0x05, r24	; 5
     fbc:	80 e1       	ldi	r24, 0x10	; 16
     fbe:	87 b9       	out	0x07, r24	; 7
     fc0:	8f e0       	ldi	r24, 0x0F	; 15
     fc2:	88 b9       	out	0x08, r24	; 8
     fc4:	80 e2       	ldi	r24, 0x20	; 32
     fc6:	80 93 7e 00 	sts	0x007E, r24
     fca:	9f ef       	ldi	r25, 0xFF	; 255
     fcc:	9a b9       	out	0x0a, r25	; 10
     fce:	1b b8       	out	0x0b, r1	; 11
     fd0:	00 00       	nop
     fd2:	85 ec       	ldi	r24, 0xC5	; 197
     fd4:	80 93 7c 00 	sts	0x007C, r24
     fd8:	83 e9       	ldi	r24, 0x93	; 147
     fda:	80 93 7a 00 	sts	0x007A, r24
     fde:	10 92 7b 00 	sts	0x007B, r1
     fe2:	83 ec       	ldi	r24, 0xC3	; 195
     fe4:	84 bd       	out	0x24, r24	; 36
     fe6:	81 e0       	ldi	r24, 0x01	; 1
     fe8:	85 bd       	out	0x25, r24	; 37
     fea:	10 92 6e 00 	sts	0x006E, r1
     fee:	97 bd       	out	0x27, r25	; 39
     ff0:	83 e8       	ldi	r24, 0x83	; 131
     ff2:	80 93 80 00 	sts	0x0080, r24
     ff6:	82 e0       	ldi	r24, 0x02	; 2
     ff8:	80 93 81 00 	sts	0x0081, r24
     ffc:	10 92 6f 00 	sts	0x006F, r1
    1000:	8f b7       	in	r24, 0x3f	; 63
    1002:	f8 94       	cli
    1004:	10 92 89 00 	sts	0x0089, r1
    1008:	10 92 88 00 	sts	0x0088, r1
    100c:	8f bf       	out	0x3f, r24	; 63
    100e:	10 92 70 00 	sts	0x0070, r1
    1012:	80 e2       	ldi	r24, 0x20	; 32
    1014:	80 93 b6 00 	sts	0x00B6, r24
    1018:	10 92 b0 00 	sts	0x00B0, r1
    101c:	85 e0       	ldi	r24, 0x05	; 5
    101e:	80 93 b1 00 	sts	0x00B1, r24
    1022:	80 91 b6 00 	lds	r24, 0x00B6
    1026:	90 e0       	ldi	r25, 0x00	; 0
    1028:	8f 71       	andi	r24, 0x1F	; 31
    102a:	90 70       	andi	r25, 0x00	; 0
    102c:	89 2b       	or	r24, r25
    102e:	c9 f7       	brne	.-14     	; 0x1022 <hwSetupAll+0x8a>
    1030:	17 ba       	out	0x17, r1	; 23
    1032:	81 e0       	ldi	r24, 0x01	; 1
    1034:	80 93 70 00 	sts	0x0070, r24
    1038:	78 94       	sei
    103a:	08 95       	ret

0000103c <hwLCDOff>:
    103c:	1b b8       	out	0x0b, r1	; 11
    103e:	8f ef       	ldi	r24, 0xFF	; 255
    1040:	8a b9       	out	0x0a, r24	; 10
    1042:	44 98       	cbi	0x08, 4	; 8
    1044:	00 00       	nop
    1046:	08 95       	ret

00001048 <hwEncOn>:
    1048:	87 b1       	in	r24, 0x07	; 7
    104a:	83 7f       	andi	r24, 0xF3	; 243
    104c:	87 b9       	out	0x07, r24	; 7
    104e:	88 b1       	in	r24, 0x08	; 8
    1050:	8c 60       	ori	r24, 0x0C	; 12
    1052:	88 b9       	out	0x08, r24	; 8
    1054:	ee e6       	ldi	r30, 0x6E	; 110
    1056:	f0 e0       	ldi	r31, 0x00	; 0
    1058:	80 81       	ld	r24, Z
    105a:	81 60       	ori	r24, 0x01	; 1
    105c:	80 83       	st	Z, r24
    105e:	08 95       	ret

00001060 <hwEncOff>:
    1060:	ee e6       	ldi	r30, 0x6E	; 110
    1062:	f0 e0       	ldi	r31, 0x00	; 0
    1064:	80 81       	ld	r24, Z
    1066:	8e 7f       	andi	r24, 0xFE	; 254
    1068:	80 83       	st	Z, r24
    106a:	87 b1       	in	r24, 0x07	; 7
    106c:	8c 60       	ori	r24, 0x0C	; 12
    106e:	87 b9       	out	0x07, r24	; 7
    1070:	88 b1       	in	r24, 0x08	; 8
    1072:	83 7f       	andi	r24, 0xF3	; 243
    1074:	88 b9       	out	0x08, r24	; 8
    1076:	00 00       	nop
    1078:	08 95       	ret

0000107a <hwIsPwrOn>:
    107a:	80 91 f9 02 	lds	r24, 0x02F9
    107e:	08 95       	ret

00001080 <hwGetADC>:
    1080:	80 91 7a 00 	lds	r24, 0x007A
    1084:	80 64       	ori	r24, 0x40	; 64
    1086:	80 93 7a 00 	sts	0x007A, r24
    108a:	80 91 7a 00 	lds	r24, 0x007A
    108e:	86 fd       	sbrc	r24, 6
    1090:	fc cf       	rjmp	.-8      	; 0x108a <hwGetADC+0xa>
    1092:	20 91 78 00 	lds	r18, 0x0078
    1096:	40 91 79 00 	lds	r20, 0x0079
    109a:	94 2f       	mov	r25, r20
    109c:	80 e0       	ldi	r24, 0x00	; 0
    109e:	30 e0       	ldi	r19, 0x00	; 0
    10a0:	28 2b       	or	r18, r24
    10a2:	39 2b       	or	r19, r25
    10a4:	c9 01       	movw	r24, r18
    10a6:	08 95       	ret

000010a8 <hwGetBattVol>:
    10a8:	60 e0       	ldi	r22, 0x00	; 0
    10aa:	70 e0       	ldi	r23, 0x00	; 0
    10ac:	30 e0       	ldi	r19, 0x00	; 0
    10ae:	80 91 7a 00 	lds	r24, 0x007A
    10b2:	80 64       	ori	r24, 0x40	; 64
    10b4:	80 93 7a 00 	sts	0x007A, r24
    10b8:	80 91 7a 00 	lds	r24, 0x007A
    10bc:	86 fd       	sbrc	r24, 6
    10be:	fc cf       	rjmp	.-8      	; 0x10b8 <hwGetBattVol+0x10>
    10c0:	80 91 78 00 	lds	r24, 0x0078
    10c4:	20 91 79 00 	lds	r18, 0x0079
    10c8:	52 2f       	mov	r21, r18
    10ca:	40 e0       	ldi	r20, 0x00	; 0
    10cc:	90 e0       	ldi	r25, 0x00	; 0
    10ce:	84 2b       	or	r24, r20
    10d0:	95 2b       	or	r25, r21
    10d2:	68 0f       	add	r22, r24
    10d4:	79 1f       	adc	r23, r25
    10d6:	3f 5f       	subi	r19, 0xFF	; 255
    10d8:	38 30       	cpi	r19, 0x08	; 8
    10da:	49 f7       	brne	.-46     	; 0x10ae <hwGetBattVol+0x6>
    10dc:	9b 01       	movw	r18, r22
    10de:	83 e0       	ldi	r24, 0x03	; 3
    10e0:	36 95       	lsr	r19
    10e2:	27 95       	ror	r18
    10e4:	8a 95       	dec	r24
    10e6:	e1 f7       	brne	.-8      	; 0x10e0 <hwGetBattVol+0x38>
    10e8:	c9 01       	movw	r24, r18
    10ea:	08 95       	ret

000010ec <hwMulCoeff>:
    10ec:	ef 92       	push	r14
    10ee:	ff 92       	push	r15
    10f0:	0f 93       	push	r16
    10f2:	1f 93       	push	r17
    10f4:	7a 01       	movw	r14, r20
    10f6:	68 9f       	mul	r22, r24
    10f8:	f0 01       	movw	r30, r0
    10fa:	69 9f       	mul	r22, r25
    10fc:	f0 0d       	add	r31, r0
    10fe:	78 9f       	mul	r23, r24
    1100:	f0 0d       	add	r31, r0
    1102:	11 24       	eor	r1, r1
    1104:	cf 01       	movw	r24, r30
    1106:	ba 01       	movw	r22, r20
    1108:	0e 94 5e 16 	call	0x2cbc	; 0x2cbc <__udivmodhi4>
    110c:	8b 01       	movw	r16, r22
    110e:	6e 9d       	mul	r22, r14
    1110:	c0 01       	movw	r24, r0
    1112:	6f 9d       	mul	r22, r15
    1114:	90 0d       	add	r25, r0
    1116:	7e 9d       	mul	r23, r14
    1118:	90 0d       	add	r25, r0
    111a:	11 24       	eor	r1, r1
    111c:	e8 1b       	sub	r30, r24
    111e:	f9 0b       	sbc	r31, r25
    1120:	9f 01       	movw	r18, r30
    1122:	73 e0       	ldi	r23, 0x03	; 3
    1124:	22 0f       	add	r18, r18
    1126:	33 1f       	adc	r19, r19
    1128:	7a 95       	dec	r23
    112a:	e1 f7       	brne	.-8      	; 0x1124 <hwMulCoeff+0x38>
    112c:	ee 0f       	add	r30, r30
    112e:	ff 1f       	adc	r31, r31
    1130:	2e 0f       	add	r18, r30
    1132:	3f 1f       	adc	r19, r31
    1134:	c9 01       	movw	r24, r18
    1136:	b7 01       	movw	r22, r14
    1138:	0e 94 5e 16 	call	0x2cbc	; 0x2cbc <__udivmodhi4>
    113c:	e6 2f       	mov	r30, r22
    113e:	86 2f       	mov	r24, r22
    1140:	90 e0       	ldi	r25, 0x00	; 0
    1142:	ac 01       	movw	r20, r24
    1144:	4e 9d       	mul	r20, r14
    1146:	c0 01       	movw	r24, r0
    1148:	4f 9d       	mul	r20, r15
    114a:	90 0d       	add	r25, r0
    114c:	5e 9d       	mul	r21, r14
    114e:	90 0d       	add	r25, r0
    1150:	11 24       	eor	r1, r1
    1152:	28 1b       	sub	r18, r24
    1154:	39 0b       	sbc	r19, r25
    1156:	c9 01       	movw	r24, r18
    1158:	53 e0       	ldi	r21, 0x03	; 3
    115a:	88 0f       	add	r24, r24
    115c:	99 1f       	adc	r25, r25
    115e:	5a 95       	dec	r21
    1160:	e1 f7       	brne	.-8      	; 0x115a <hwMulCoeff+0x6e>
    1162:	22 0f       	add	r18, r18
    1164:	33 1f       	adc	r19, r19
    1166:	82 0f       	add	r24, r18
    1168:	93 1f       	adc	r25, r19
    116a:	b7 01       	movw	r22, r14
    116c:	0e 94 5e 16 	call	0x2cbc	; 0x2cbc <__udivmodhi4>
    1170:	8a e0       	ldi	r24, 0x0A	; 10
    1172:	e8 9f       	mul	r30, r24
    1174:	f0 01       	movw	r30, r0
    1176:	11 24       	eor	r1, r1
    1178:	6e 0f       	add	r22, r30
    117a:	70 e0       	ldi	r23, 0x00	; 0
    117c:	10 2f       	mov	r17, r16
    117e:	00 27       	eor	r16, r16
    1180:	60 2b       	or	r22, r16
    1182:	71 2b       	or	r23, r17
    1184:	cb 01       	movw	r24, r22
    1186:	1f 91       	pop	r17
    1188:	0f 91       	pop	r16
    118a:	ff 90       	pop	r15
    118c:	ef 90       	pop	r14
    118e:	08 95       	ret

00001190 <hwEnterPwrSave>:
    1190:	80 e0       	ldi	r24, 0x00	; 0
    1192:	90 e0       	ldi	r25, 0x00	; 0
    1194:	0e 94 55 09 	call	0x12aa	; 0x12aa <lcd_setbacklight>
    1198:	8f ef       	ldi	r24, 0xFF	; 255
    119a:	87 bd       	out	0x27, r24	; 39
    119c:	1b b8       	out	0x0b, r1	; 11
    119e:	8a b9       	out	0x0a, r24	; 10
    11a0:	44 98       	cbi	0x08, 4	; 8
    11a2:	00 00       	nop
    11a4:	8a ef       	ldi	r24, 0xFA	; 250
    11a6:	9f e0       	ldi	r25, 0x0F	; 15
    11a8:	29 e1       	ldi	r18, 0x19	; 25
    11aa:	30 e0       	ldi	r19, 0x00	; 0
    11ac:	f9 01       	movw	r30, r18
    11ae:	31 97       	sbiw	r30, 0x01	; 1
    11b0:	f1 f7       	brne	.-4      	; 0x11ae <hwEnterPwrSave+0x1e>
    11b2:	01 97       	sbiw	r24, 0x01	; 1
    11b4:	d9 f7       	brne	.-10     	; 0x11ac <hwEnterPwrSave+0x1c>
    11b6:	10 92 89 00 	sts	0x0089, r1
    11ba:	10 92 88 00 	sts	0x0088, r1
    11be:	84 ec       	ldi	r24, 0xC4	; 196
    11c0:	99 e0       	ldi	r25, 0x09	; 9
    11c2:	01 97       	sbiw	r24, 0x01	; 1
    11c4:	f1 f7       	brne	.-4      	; 0x11c2 <hwEnterPwrSave+0x32>
    11c6:	80 91 7a 00 	lds	r24, 0x007A
    11ca:	8f 77       	andi	r24, 0x7F	; 127
    11cc:	80 93 7a 00 	sts	0x007A, r24
    11d0:	28 98       	cbi	0x05, 0	; 5
    11d2:	80 91 6e 00 	lds	r24, 0x006E
    11d6:	8e 7f       	andi	r24, 0xFE	; 254
    11d8:	80 93 6e 00 	sts	0x006E, r24
    11dc:	87 b1       	in	r24, 0x07	; 7
    11de:	8c 60       	ori	r24, 0x0C	; 12
    11e0:	87 b9       	out	0x07, r24	; 7
    11e2:	88 b1       	in	r24, 0x08	; 8
    11e4:	83 7f       	andi	r24, 0xF3	; 243
    11e6:	88 b9       	out	0x08, r24	; 8
    11e8:	00 00       	nop
    11ea:	80 91 64 00 	lds	r24, 0x0064
    11ee:	80 62       	ori	r24, 0x20	; 32
    11f0:	80 93 64 00 	sts	0x0064, r24
    11f4:	80 91 64 00 	lds	r24, 0x0064
    11f8:	88 60       	ori	r24, 0x08	; 8
    11fa:	80 93 64 00 	sts	0x0064, r24
    11fe:	80 91 64 00 	lds	r24, 0x0064
    1202:	81 60       	ori	r24, 0x01	; 1
    1204:	80 93 64 00 	sts	0x0064, r24
    1208:	10 92 f9 02 	sts	0x02F9, r1
    120c:	83 b7       	in	r24, 0x33	; 51
    120e:	81 60       	ori	r24, 0x01	; 1
    1210:	83 bf       	out	0x33, r24	; 51
    1212:	88 95       	sleep
    1214:	83 b7       	in	r24, 0x33	; 51
    1216:	8e 7f       	andi	r24, 0xFE	; 254
    1218:	83 bf       	out	0x33, r24	; 51
    121a:	0e 94 9b 10 	call	0x2136	; 0x2136 <rtcGetPwrOnFlag>
    121e:	88 23       	and	r24, r24
    1220:	a9 f3       	breq	.-22     	; 0x120c <hwEnterPwrSave+0x7c>
    1222:	80 91 64 00 	lds	r24, 0x0064
    1226:	8e 7f       	andi	r24, 0xFE	; 254
    1228:	80 93 64 00 	sts	0x0064, r24
    122c:	80 91 64 00 	lds	r24, 0x0064
    1230:	87 7f       	andi	r24, 0xF7	; 247
    1232:	80 93 64 00 	sts	0x0064, r24
    1236:	80 91 7a 00 	lds	r24, 0x007A
    123a:	80 68       	ori	r24, 0x80	; 128
    123c:	80 93 7a 00 	sts	0x007A, r24
    1240:	80 91 64 00 	lds	r24, 0x0064
    1244:	8f 7d       	andi	r24, 0xDF	; 223
    1246:	80 93 64 00 	sts	0x0064, r24
    124a:	85 e0       	ldi	r24, 0x05	; 5
    124c:	90 e0       	ldi	r25, 0x00	; 0
    124e:	6f e6       	ldi	r22, 0x6F	; 111
    1250:	77 e0       	ldi	r23, 0x07	; 7
    1252:	0e 94 55 13 	call	0x26aa	; 0x26aa <__eerd_word>
    1256:	0e 94 55 09 	call	0x12aa	; 0x12aa <lcd_setbacklight>
    125a:	44 9a       	sbi	0x08, 4	; 8
    125c:	0e 94 d6 09 	call	0x13ac	; 0x13ac <lcd_init>
    1260:	f9 99       	sbic	0x1f, 1	; 31
    1262:	fe cf       	rjmp	.-4      	; 0x1260 <hwEnterPwrSave+0xd0>
    1264:	84 e0       	ldi	r24, 0x04	; 4
    1266:	90 e0       	ldi	r25, 0x00	; 0
    1268:	92 bd       	out	0x22, r25	; 34
    126a:	81 bd       	out	0x21, r24	; 33
    126c:	f8 9a       	sbi	0x1f, 0	; 31
    126e:	80 b5       	in	r24, 0x20	; 32
    1270:	87 bd       	out	0x27, r24	; 39
    1272:	8a e3       	ldi	r24, 0x3A	; 58
    1274:	91 e0       	ldi	r25, 0x01	; 1
    1276:	0e 94 d5 02 	call	0x5aa	; 0x5aa <dlgInfo_P>
    127a:	0e 94 54 08 	call	0x10a8	; 0x10a8 <hwGetBattVol>
    127e:	88 56       	subi	r24, 0x68	; 104
    1280:	92 40       	sbci	r25, 0x02	; 2
    1282:	20 f4       	brcc	.+8      	; 0x128c <hwEnterPwrSave+0xfc>
    1284:	8e e2       	ldi	r24, 0x2E	; 46
    1286:	91 e0       	ldi	r25, 0x01	; 1
    1288:	0e 94 d5 02 	call	0x5aa	; 0x5aa <dlgInfo_P>
    128c:	87 b1       	in	r24, 0x07	; 7
    128e:	83 7f       	andi	r24, 0xF3	; 243
    1290:	87 b9       	out	0x07, r24	; 7
    1292:	88 b1       	in	r24, 0x08	; 8
    1294:	8c 60       	ori	r24, 0x0C	; 12
    1296:	88 b9       	out	0x08, r24	; 8
    1298:	80 91 6e 00 	lds	r24, 0x006E
    129c:	81 60       	ori	r24, 0x01	; 1
    129e:	80 93 6e 00 	sts	0x006E, r24
    12a2:	81 e0       	ldi	r24, 0x01	; 1
    12a4:	80 93 f9 02 	sts	0x02F9, r24
    12a8:	08 95       	ret

000012aa <lcd_setbacklight>:
    12aa:	9c 01       	movw	r18, r24
    12ac:	80 91 fa 02 	lds	r24, 0x02FA
    12b0:	90 91 fb 02 	lds	r25, 0x02FB
    12b4:	82 17       	cp	r24, r18
    12b6:	93 07       	cpc	r25, r19
    12b8:	61 f0       	breq	.+24     	; 0x12d2 <lcd_setbacklight+0x28>
    12ba:	8f b7       	in	r24, 0x3f	; 63
    12bc:	f8 94       	cli
    12be:	30 93 fd 02 	sts	0x02FD, r19
    12c2:	20 93 fc 02 	sts	0x02FC, r18
    12c6:	8f bf       	out	0x3f, r24	; 63
    12c8:	80 91 6f 00 	lds	r24, 0x006F
    12cc:	81 60       	ori	r24, 0x01	; 1
    12ce:	80 93 6f 00 	sts	0x006F, r24
    12d2:	30 93 fb 02 	sts	0x02FB, r19
    12d6:	20 93 fa 02 	sts	0x02FA, r18
    12da:	08 95       	ret

000012dc <lcd_setfont>:
    12dc:	ef 92       	push	r14
    12de:	ff 92       	push	r15
    12e0:	1f 93       	push	r17
    12e2:	cf 93       	push	r28
    12e4:	df 93       	push	r29
    12e6:	18 2f       	mov	r17, r24
    12e8:	7b 01       	movw	r14, r22
    12ea:	0e 94 2e 07 	call	0xe5c	; 0xe5c <hd44780_wait_ready>
    12ee:	11 0f       	add	r17, r17
    12f0:	11 0f       	add	r17, r17
    12f2:	11 0f       	add	r17, r17
    12f4:	18 73       	andi	r17, 0x38	; 56
    12f6:	81 2f       	mov	r24, r17
    12f8:	80 64       	ori	r24, 0x40	; 64
    12fa:	60 e0       	ldi	r22, 0x00	; 0
    12fc:	0e 94 e7 06 	call	0xdce	; 0xdce <hd44780_outbyte>
    1300:	c0 e0       	ldi	r28, 0x00	; 0
    1302:	d0 e0       	ldi	r29, 0x00	; 0
    1304:	0e 94 2e 07 	call	0xe5c	; 0xe5c <hd44780_wait_ready>
    1308:	f7 01       	movw	r30, r14
    130a:	ec 0f       	add	r30, r28
    130c:	fd 1f       	adc	r31, r29
    130e:	e4 91       	lpm	r30, Z+
    1310:	8e 2f       	mov	r24, r30
    1312:	61 e0       	ldi	r22, 0x01	; 1
    1314:	0e 94 e7 06 	call	0xdce	; 0xdce <hd44780_outbyte>
    1318:	21 96       	adiw	r28, 0x01	; 1
    131a:	c8 30       	cpi	r28, 0x08	; 8
    131c:	d1 05       	cpc	r29, r1
    131e:	91 f7       	brne	.-28     	; 0x1304 <lcd_setfont+0x28>
    1320:	df 91       	pop	r29
    1322:	cf 91       	pop	r28
    1324:	1f 91       	pop	r17
    1326:	ff 90       	pop	r15
    1328:	ef 90       	pop	r14
    132a:	08 95       	ret

0000132c <lcd_setxy>:
    132c:	0f 93       	push	r16
    132e:	1f 93       	push	r17
    1330:	08 2f       	mov	r16, r24
    1332:	16 2f       	mov	r17, r22
    1334:	0e 94 2e 07 	call	0xe5c	; 0xe5c <hd44780_wait_ready>
    1338:	12 95       	swap	r17
    133a:	11 0f       	add	r17, r17
    133c:	11 0f       	add	r17, r17
    133e:	10 7c       	andi	r17, 0xC0	; 192
    1340:	10 0f       	add	r17, r16
    1342:	81 2f       	mov	r24, r17
    1344:	80 68       	ori	r24, 0x80	; 128
    1346:	60 e0       	ldi	r22, 0x00	; 0
    1348:	0e 94 e7 06 	call	0xdce	; 0xdce <hd44780_outbyte>
    134c:	1f 91       	pop	r17
    134e:	0f 91       	pop	r16
    1350:	08 95       	ret

00001352 <lcd_clr>:
    1352:	0e 94 2e 07 	call	0xe5c	; 0xe5c <hd44780_wait_ready>
    1356:	81 e0       	ldi	r24, 0x01	; 1
    1358:	60 e0       	ldi	r22, 0x00	; 0
    135a:	0e 94 e7 06 	call	0xdce	; 0xdce <hd44780_outbyte>
    135e:	08 95       	ret

00001360 <lcd_putchar>:
    1360:	1f 93       	push	r17
    1362:	18 2f       	mov	r17, r24
    1364:	8a 30       	cpi	r24, 0x0A	; 10
    1366:	11 f0       	breq	.+4      	; 0x136c <lcd_putchar+0xc>
    1368:	8d 30       	cpi	r24, 0x0D	; 13
    136a:	b1 f4       	brne	.+44     	; 0x1398 <lcd_putchar+0x38>
    136c:	0e 94 2e 07 	call	0xe5c	; 0xe5c <hd44780_wait_ready>
    1370:	80 e0       	ldi	r24, 0x00	; 0
    1372:	0e 94 05 07 	call	0xe0a	; 0xe0a <hd44780_inbyte>
    1376:	8f 77       	andi	r24, 0x7F	; 127
    1378:	88 32       	cpi	r24, 0x28	; 40
    137a:	18 f4       	brcc	.+6      	; 0x1382 <lcd_putchar+0x22>
    137c:	1a 30       	cpi	r17, 0x0A	; 10
    137e:	19 f4       	brne	.+6      	; 0x1386 <lcd_putchar+0x26>
    1380:	04 c0       	rjmp	.+8      	; 0x138a <lcd_putchar+0x2a>
    1382:	1a 30       	cpi	r17, 0x0A	; 10
    1384:	11 f4       	brne	.+4      	; 0x138a <lcd_putchar+0x2a>
    1386:	10 e0       	ldi	r17, 0x00	; 0
    1388:	01 c0       	rjmp	.+2      	; 0x138c <lcd_putchar+0x2c>
    138a:	10 e4       	ldi	r17, 0x40	; 64
    138c:	0e 94 2e 07 	call	0xe5c	; 0xe5c <hd44780_wait_ready>
    1390:	81 2f       	mov	r24, r17
    1392:	80 68       	ori	r24, 0x80	; 128
    1394:	60 e0       	ldi	r22, 0x00	; 0
    1396:	04 c0       	rjmp	.+8      	; 0x13a0 <lcd_putchar+0x40>
    1398:	0e 94 2e 07 	call	0xe5c	; 0xe5c <hd44780_wait_ready>
    139c:	81 2f       	mov	r24, r17
    139e:	61 e0       	ldi	r22, 0x01	; 1
    13a0:	0e 94 e7 06 	call	0xdce	; 0xdce <hd44780_outbyte>
    13a4:	80 e0       	ldi	r24, 0x00	; 0
    13a6:	90 e0       	ldi	r25, 0x00	; 0
    13a8:	1f 91       	pop	r17
    13aa:	08 95       	ret

000013ac <lcd_init>:
    13ac:	1f 93       	push	r17
    13ae:	cf 93       	push	r28
    13b0:	df 93       	push	r29
    13b2:	0e 94 34 07 	call	0xe68	; 0xe68 <hd44780_init>
    13b6:	81 e0       	ldi	r24, 0x01	; 1
    13b8:	60 e0       	ldi	r22, 0x00	; 0
    13ba:	0e 94 e7 06 	call	0xdce	; 0xdce <hd44780_outbyte>
    13be:	0e 94 2e 07 	call	0xe5c	; 0xe5c <hd44780_wait_ready>
    13c2:	86 e0       	ldi	r24, 0x06	; 6
    13c4:	60 e0       	ldi	r22, 0x00	; 0
    13c6:	0e 94 e7 06 	call	0xdce	; 0xdce <hd44780_outbyte>
    13ca:	0e 94 2e 07 	call	0xe5c	; 0xe5c <hd44780_wait_ready>
    13ce:	8c e0       	ldi	r24, 0x0C	; 12
    13d0:	60 e0       	ldi	r22, 0x00	; 0
    13d2:	0e 94 e7 06 	call	0xdce	; 0xdce <hd44780_outbyte>
    13d6:	0e 94 2e 07 	call	0xe5c	; 0xe5c <hd44780_wait_ready>
    13da:	f9 99       	sbic	0x1f, 1	; 31
    13dc:	fe cf       	rjmp	.-4      	; 0x13da <lcd_init+0x2e>
    13de:	84 e0       	ldi	r24, 0x04	; 4
    13e0:	90 e0       	ldi	r25, 0x00	; 0
    13e2:	92 bd       	out	0x22, r25	; 34
    13e4:	81 bd       	out	0x21, r24	; 33
    13e6:	f8 9a       	sbi	0x1f, 0	; 31
    13e8:	80 b5       	in	r24, 0x20	; 32
    13ea:	87 bd       	out	0x27, r24	; 39
    13ec:	89 e3       	ldi	r24, 0x39	; 57
    13ee:	91 e0       	ldi	r25, 0x01	; 1
    13f0:	90 93 0f 03 	sts	0x030F, r25
    13f4:	80 93 0e 03 	sts	0x030E, r24
    13f8:	90 93 0d 03 	sts	0x030D, r25
    13fc:	80 93 0c 03 	sts	0x030C, r24
    1400:	c7 e4       	ldi	r28, 0x47	; 71
    1402:	d1 e0       	ldi	r29, 0x01	; 1
    1404:	10 e0       	ldi	r17, 0x00	; 0
    1406:	81 2f       	mov	r24, r17
    1408:	be 01       	movw	r22, r28
    140a:	0e 94 6e 09 	call	0x12dc	; 0x12dc <lcd_setfont>
    140e:	1f 5f       	subi	r17, 0xFF	; 255
    1410:	28 96       	adiw	r28, 0x08	; 8
    1412:	18 30       	cpi	r17, 0x08	; 8
    1414:	c1 f7       	brne	.-16     	; 0x1406 <lcd_init+0x5a>
    1416:	df 91       	pop	r29
    1418:	cf 91       	pop	r28
    141a:	1f 91       	pop	r17
    141c:	08 95       	ret

0000141e <__vector_13>:
    141e:	1f 92       	push	r1
    1420:	0f 92       	push	r0
    1422:	0f b6       	in	r0, 0x3f	; 63
    1424:	0f 92       	push	r0
    1426:	11 24       	eor	r1, r1
    1428:	8f 92       	push	r8
    142a:	9f 92       	push	r9
    142c:	af 92       	push	r10
    142e:	bf 92       	push	r11
    1430:	cf 92       	push	r12
    1432:	df 92       	push	r13
    1434:	ef 92       	push	r14
    1436:	ff 92       	push	r15
    1438:	0f 93       	push	r16
    143a:	1f 93       	push	r17
    143c:	2f 93       	push	r18
    143e:	3f 93       	push	r19
    1440:	4f 93       	push	r20
    1442:	5f 93       	push	r21
    1444:	6f 93       	push	r22
    1446:	7f 93       	push	r23
    1448:	8f 93       	push	r24
    144a:	9f 93       	push	r25
    144c:	af 93       	push	r26
    144e:	bf 93       	push	r27
    1450:	ef 93       	push	r30
    1452:	ff 93       	push	r31
    1454:	9f b6       	in	r9, 0x3f	; 63
    1456:	f8 94       	cli
    1458:	20 91 88 00 	lds	r18, 0x0088
    145c:	30 91 89 00 	lds	r19, 0x0089
    1460:	80 91 fc 02 	lds	r24, 0x02FC
    1464:	90 91 fd 02 	lds	r25, 0x02FD
    1468:	28 17       	cp	r18, r24
    146a:	39 07       	cpc	r19, r25
    146c:	31 f4       	brne	.+12     	; 0x147a <__vector_13+0x5c>
    146e:	80 91 6f 00 	lds	r24, 0x006F
    1472:	8e 7f       	andi	r24, 0xFE	; 254
    1474:	80 93 6f 00 	sts	0x006F, r24
    1478:	30 c0       	rjmp	.+96     	; 0x14da <__vector_13+0xbc>
    147a:	20 91 88 00 	lds	r18, 0x0088
    147e:	30 91 89 00 	lds	r19, 0x0089
    1482:	80 91 fc 02 	lds	r24, 0x02FC
    1486:	90 91 fd 02 	lds	r25, 0x02FD
    148a:	28 17       	cp	r18, r24
    148c:	39 07       	cpc	r19, r25
    148e:	58 f4       	brcc	.+22     	; 0x14a6 <__vector_13+0x88>
    1490:	60 91 88 00 	lds	r22, 0x0088
    1494:	70 91 89 00 	lds	r23, 0x0089
    1498:	80 e0       	ldi	r24, 0x00	; 0
    149a:	90 e0       	ldi	r25, 0x00	; 0
    149c:	24 e1       	ldi	r18, 0x14	; 20
    149e:	30 e0       	ldi	r19, 0x00	; 0
    14a0:	40 e0       	ldi	r20, 0x00	; 0
    14a2:	50 e0       	ldi	r21, 0x00	; 0
    14a4:	0a c0       	rjmp	.+20     	; 0x14ba <__vector_13+0x9c>
    14a6:	60 91 88 00 	lds	r22, 0x0088
    14aa:	70 91 89 00 	lds	r23, 0x0089
    14ae:	80 e0       	ldi	r24, 0x00	; 0
    14b0:	90 e0       	ldi	r25, 0x00	; 0
    14b2:	2c ee       	ldi	r18, 0xEC	; 236
    14b4:	3f ef       	ldi	r19, 0xFF	; 255
    14b6:	4f ef       	ldi	r20, 0xFF	; 255
    14b8:	5f ef       	ldi	r21, 0xFF	; 255
    14ba:	ee 24       	eor	r14, r14
    14bc:	ff 24       	eor	r15, r15
    14be:	87 01       	movw	r16, r14
    14c0:	ef ef       	ldi	r30, 0xFF	; 255
    14c2:	ae 2e       	mov	r10, r30
    14c4:	e3 e0       	ldi	r30, 0x03	; 3
    14c6:	be 2e       	mov	r11, r30
    14c8:	c1 2c       	mov	r12, r1
    14ca:	d1 2c       	mov	r13, r1
    14cc:	88 24       	eor	r8, r8
    14ce:	0e 94 a4 01 	call	0x348	; 0x348 <dlgIncVar>
    14d2:	70 93 89 00 	sts	0x0089, r23
    14d6:	60 93 88 00 	sts	0x0088, r22
    14da:	9f be       	out	0x3f, r9	; 63
    14dc:	ff 91       	pop	r31
    14de:	ef 91       	pop	r30
    14e0:	bf 91       	pop	r27
    14e2:	af 91       	pop	r26
    14e4:	9f 91       	pop	r25
    14e6:	8f 91       	pop	r24
    14e8:	7f 91       	pop	r23
    14ea:	6f 91       	pop	r22
    14ec:	5f 91       	pop	r21
    14ee:	4f 91       	pop	r20
    14f0:	3f 91       	pop	r19
    14f2:	2f 91       	pop	r18
    14f4:	1f 91       	pop	r17
    14f6:	0f 91       	pop	r16
    14f8:	ff 90       	pop	r15
    14fa:	ef 90       	pop	r14
    14fc:	df 90       	pop	r13
    14fe:	cf 90       	pop	r12
    1500:	bf 90       	pop	r11
    1502:	af 90       	pop	r10
    1504:	9f 90       	pop	r9
    1506:	8f 90       	pop	r8
    1508:	0f 90       	pop	r0
    150a:	0f be       	out	0x3f, r0	; 63
    150c:	0f 90       	pop	r0
    150e:	1f 90       	pop	r1
    1510:	18 95       	reti

00001512 <eeprom_read_byte>:
    1512:	9c 01       	movw	r18, r24
    1514:	f9 99       	sbic	0x1f, 1	; 31
    1516:	fe cf       	rjmp	.-4      	; 0x1514 <eeprom_read_byte+0x2>
    1518:	32 bd       	out	0x22, r19	; 34
    151a:	21 bd       	out	0x21, r18	; 33
    151c:	f8 9a       	sbi	0x1f, 0	; 31
    151e:	80 b5       	in	r24, 0x20	; 32
    1520:	08 95       	ret

00001522 <setNewTime>:
    1522:	0f 93       	push	r16
    1524:	1f 93       	push	r17
    1526:	df 93       	push	r29
    1528:	cf 93       	push	r28
    152a:	00 d0       	rcall	.+0      	; 0x152c <setNewTime+0xa>
    152c:	0f 92       	push	r0
    152e:	cd b7       	in	r28, 0x3d	; 61
    1530:	de b7       	in	r29, 0x3e	; 62
    1532:	88 ea       	ldi	r24, 0xA8	; 168
    1534:	91 e0       	ldi	r25, 0x01	; 1
    1536:	0e 94 d5 02 	call	0x5aa	; 0x5aa <dlgInfo_P>
    153a:	de 01       	movw	r26, r28
    153c:	11 96       	adiw	r26, 0x01	; 1
    153e:	e7 e4       	ldi	r30, 0x47	; 71
    1540:	f1 e0       	ldi	r31, 0x01	; 1
    1542:	83 e0       	ldi	r24, 0x03	; 3
    1544:	01 90       	ld	r0, Z+
    1546:	0d 92       	st	X+, r0
    1548:	81 50       	subi	r24, 0x01	; 1
    154a:	e1 f7       	brne	.-8      	; 0x1544 <setNewTime+0x22>
    154c:	8e 01       	movw	r16, r28
    154e:	0f 5f       	subi	r16, 0xFF	; 255
    1550:	1f 4f       	sbci	r17, 0xFF	; 255
    1552:	c8 01       	movw	r24, r16
    1554:	61 e0       	ldi	r22, 0x01	; 1
    1556:	40 e0       	ldi	r20, 0x00	; 0
    1558:	0e 94 d1 04 	call	0x9a2	; 0x9a2 <dlgSetTime>
    155c:	88 23       	and	r24, r24
    155e:	19 f0       	breq	.+6      	; 0x1566 <setNewTime+0x44>
    1560:	c8 01       	movw	r24, r16
    1562:	0e 94 ee 0f 	call	0x1fdc	; 0x1fdc <rtcSetSysTime>
    1566:	0f 90       	pop	r0
    1568:	0f 90       	pop	r0
    156a:	0f 90       	pop	r0
    156c:	cf 91       	pop	r28
    156e:	df 91       	pop	r29
    1570:	1f 91       	pop	r17
    1572:	0f 91       	pop	r16
    1574:	08 95       	ret

00001576 <checkMagic>:
    1576:	80 e0       	ldi	r24, 0x00	; 0
    1578:	90 e0       	ldi	r25, 0x00	; 0
    157a:	69 e8       	ldi	r22, 0x89	; 137
    157c:	7a e0       	ldi	r23, 0x0A	; 10
    157e:	0e 94 2f 13 	call	0x265e	; 0x265e <__eerd_dword>
    1582:	20 e0       	ldi	r18, 0x00	; 0
    1584:	62 57       	subi	r22, 0x72	; 114
    1586:	74 47       	sbci	r23, 0x74	; 116
    1588:	88 46       	sbci	r24, 0x68	; 104
    158a:	90 47       	sbci	r25, 0x70	; 112
    158c:	09 f4       	brne	.+2      	; 0x1590 <checkMagic+0x1a>
    158e:	21 e0       	ldi	r18, 0x01	; 1
    1590:	82 2f       	mov	r24, r18
    1592:	08 95       	ret

00001594 <main>:
    1594:	0e 94 cc 07 	call	0xf98	; 0xf98 <hwSetupAll>
    1598:	0e 94 c8 08 	call	0x1190	; 0x1190 <hwEnterPwrSave>
    159c:	0e 94 bb 0a 	call	0x1576	; 0x1576 <checkMagic>
    15a0:	88 23       	and	r24, r24
    15a2:	21 f4       	brne	.+8      	; 0x15ac <main+0x18>
    15a4:	87 e8       	ldi	r24, 0x87	; 135
    15a6:	91 e0       	ldi	r25, 0x01	; 1
    15a8:	0e 94 d5 02 	call	0x5aa	; 0x5aa <dlgInfo_P>
    15ac:	0e 94 91 0a 	call	0x1522	; 0x1522 <setNewTime>
    15b0:	0e 94 fa 0b 	call	0x17f4	; 0x17f4 <startPT>
    15b4:	80 e0       	ldi	r24, 0x00	; 0
    15b6:	90 e0       	ldi	r25, 0x00	; 0
    15b8:	08 95       	ret

000015ba <eeprom_read_byte>:
    15ba:	9c 01       	movw	r18, r24
    15bc:	f9 99       	sbic	0x1f, 1	; 31
    15be:	fe cf       	rjmp	.-4      	; 0x15bc <eeprom_read_byte+0x2>
    15c0:	32 bd       	out	0x22, r19	; 34
    15c2:	21 bd       	out	0x21, r18	; 33
    15c4:	f8 9a       	sbi	0x1f, 0	; 31
    15c6:	80 b5       	in	r24, 0x20	; 32
    15c8:	08 95       	ret

000015ca <eeprom_write_byte>:
    15ca:	9c 01       	movw	r18, r24
    15cc:	f9 99       	sbic	0x1f, 1	; 31
    15ce:	fe cf       	rjmp	.-4      	; 0x15cc <eeprom_write_byte+0x2>
    15d0:	1f ba       	out	0x1f, r1	; 31
    15d2:	32 bd       	out	0x22, r19	; 34
    15d4:	21 bd       	out	0x21, r18	; 33
    15d6:	60 bd       	out	0x20, r22	; 32
    15d8:	0f b6       	in	r0, 0x3f	; 63
    15da:	f8 94       	cli
    15dc:	fa 9a       	sbi	0x1f, 2	; 31
    15de:	f9 9a       	sbi	0x1f, 1	; 31
    15e0:	0f be       	out	0x3f, r0	; 63
    15e2:	08 95       	ret

000015e4 <glueSetContr>:
    15e4:	2f ef       	ldi	r18, 0xFF	; 255
    15e6:	30 e0       	ldi	r19, 0x00	; 0
    15e8:	40 e0       	ldi	r20, 0x00	; 0
    15ea:	50 e0       	ldi	r21, 0x00	; 0
    15ec:	0e 94 3f 16 	call	0x2c7e	; 0x2c7e <__mulsi3>
    15f0:	24 e6       	ldi	r18, 0x64	; 100
    15f2:	30 e0       	ldi	r19, 0x00	; 0
    15f4:	40 e0       	ldi	r20, 0x00	; 0
    15f6:	50 e0       	ldi	r21, 0x00	; 0
    15f8:	0e 94 94 16 	call	0x2d28	; 0x2d28 <__divmodsi4>
    15fc:	27 bd       	out	0x27, r18	; 39
    15fe:	08 95       	ret

00001600 <handleLCDContr>:
    1600:	cf 92       	push	r12
    1602:	ef 92       	push	r14
    1604:	ff 92       	push	r15
    1606:	0f 93       	push	r16
    1608:	1f 93       	push	r17
    160a:	df 93       	push	r29
    160c:	cf 93       	push	r28
    160e:	00 d0       	rcall	.+0      	; 0x1610 <handleLCDContr+0x10>
    1610:	00 d0       	rcall	.+0      	; 0x1612 <handleLCDContr+0x12>
    1612:	cd b7       	in	r28, 0x3d	; 61
    1614:	de b7       	in	r29, 0x3e	; 62
    1616:	67 b5       	in	r22, 0x27	; 39
    1618:	70 e0       	ldi	r23, 0x00	; 0
    161a:	80 e0       	ldi	r24, 0x00	; 0
    161c:	90 e0       	ldi	r25, 0x00	; 0
    161e:	24 e6       	ldi	r18, 0x64	; 100
    1620:	30 e0       	ldi	r19, 0x00	; 0
    1622:	40 e0       	ldi	r20, 0x00	; 0
    1624:	50 e0       	ldi	r21, 0x00	; 0
    1626:	0e 94 3f 16 	call	0x2c7e	; 0x2c7e <__mulsi3>
    162a:	2f ef       	ldi	r18, 0xFF	; 255
    162c:	30 e0       	ldi	r19, 0x00	; 0
    162e:	40 e0       	ldi	r20, 0x00	; 0
    1630:	50 e0       	ldi	r21, 0x00	; 0
    1632:	0e 94 94 16 	call	0x2d28	; 0x2d28 <__divmodsi4>
    1636:	29 83       	std	Y+1, r18	; 0x01
    1638:	3a 83       	std	Y+2, r19	; 0x02
    163a:	4b 83       	std	Y+3, r20	; 0x03
    163c:	5c 83       	std	Y+4, r21	; 0x04
    163e:	ce 01       	movw	r24, r28
    1640:	01 96       	adiw	r24, 0x01	; 1
    1642:	40 e0       	ldi	r20, 0x00	; 0
    1644:	50 e0       	ldi	r21, 0x00	; 0
    1646:	60 e0       	ldi	r22, 0x00	; 0
    1648:	70 e0       	ldi	r23, 0x00	; 0
    164a:	04 e6       	ldi	r16, 0x64	; 100
    164c:	10 e0       	ldi	r17, 0x00	; 0
    164e:	20 e0       	ldi	r18, 0x00	; 0
    1650:	30 e0       	ldi	r19, 0x00	; 0
    1652:	f2 ef       	ldi	r31, 0xF2	; 242
    1654:	ef 2e       	mov	r14, r31
    1656:	fa e0       	ldi	r31, 0x0A	; 10
    1658:	ff 2e       	mov	r15, r31
    165a:	e5 e2       	ldi	r30, 0x25	; 37
    165c:	ce 2e       	mov	r12, r30
    165e:	0e 94 34 03 	call	0x668	; 0x668 <dlgSetVar>
    1662:	88 23       	and	r24, r24
    1664:	01 f1       	breq	.+64     	; 0x16a6 <handleLCDContr+0xa6>
    1666:	29 81       	ldd	r18, Y+1	; 0x01
    1668:	3a 81       	ldd	r19, Y+2	; 0x02
    166a:	4b 81       	ldd	r20, Y+3	; 0x03
    166c:	5c 81       	ldd	r21, Y+4	; 0x04
    166e:	f9 99       	sbic	0x1f, 1	; 31
    1670:	fe cf       	rjmp	.-4      	; 0x166e <handleLCDContr+0x6e>
    1672:	1f ba       	out	0x1f, r1	; 31
    1674:	84 e0       	ldi	r24, 0x04	; 4
    1676:	90 e0       	ldi	r25, 0x00	; 0
    1678:	92 bd       	out	0x22, r25	; 34
    167a:	81 bd       	out	0x21, r24	; 33
    167c:	ca 01       	movw	r24, r20
    167e:	b9 01       	movw	r22, r18
    1680:	2f ef       	ldi	r18, 0xFF	; 255
    1682:	30 e0       	ldi	r19, 0x00	; 0
    1684:	40 e0       	ldi	r20, 0x00	; 0
    1686:	50 e0       	ldi	r21, 0x00	; 0
    1688:	0e 94 3f 16 	call	0x2c7e	; 0x2c7e <__mulsi3>
    168c:	24 e6       	ldi	r18, 0x64	; 100
    168e:	30 e0       	ldi	r19, 0x00	; 0
    1690:	40 e0       	ldi	r20, 0x00	; 0
    1692:	50 e0       	ldi	r21, 0x00	; 0
    1694:	0e 94 94 16 	call	0x2d28	; 0x2d28 <__divmodsi4>
    1698:	20 bd       	out	0x20, r18	; 32
    169a:	0f b6       	in	r0, 0x3f	; 63
    169c:	f8 94       	cli
    169e:	fa 9a       	sbi	0x1f, 2	; 31
    16a0:	f9 9a       	sbi	0x1f, 1	; 31
    16a2:	0f be       	out	0x3f, r0	; 63
    16a4:	09 c0       	rjmp	.+18     	; 0x16b8 <handleLCDContr+0xb8>
    16a6:	f9 99       	sbic	0x1f, 1	; 31
    16a8:	fe cf       	rjmp	.-4      	; 0x16a6 <handleLCDContr+0xa6>
    16aa:	84 e0       	ldi	r24, 0x04	; 4
    16ac:	90 e0       	ldi	r25, 0x00	; 0
    16ae:	92 bd       	out	0x22, r25	; 34
    16b0:	81 bd       	out	0x21, r24	; 33
    16b2:	f8 9a       	sbi	0x1f, 0	; 31
    16b4:	80 b5       	in	r24, 0x20	; 32
    16b6:	87 bd       	out	0x27, r24	; 39
    16b8:	0f 90       	pop	r0
    16ba:	0f 90       	pop	r0
    16bc:	0f 90       	pop	r0
    16be:	0f 90       	pop	r0
    16c0:	cf 91       	pop	r28
    16c2:	df 91       	pop	r29
    16c4:	1f 91       	pop	r17
    16c6:	0f 91       	pop	r16
    16c8:	ff 90       	pop	r15
    16ca:	ef 90       	pop	r14
    16cc:	cf 90       	pop	r12
    16ce:	08 95       	ret

000016d0 <handleShutRelTime>:
    16d0:	cf 92       	push	r12
    16d2:	ef 92       	push	r14
    16d4:	ff 92       	push	r15
    16d6:	0f 93       	push	r16
    16d8:	1f 93       	push	r17
    16da:	df 93       	push	r29
    16dc:	cf 93       	push	r28
    16de:	00 d0       	rcall	.+0      	; 0x16e0 <handleShutRelTime+0x10>
    16e0:	00 d0       	rcall	.+0      	; 0x16e2 <handleShutRelTime+0x12>
    16e2:	cd b7       	in	r28, 0x3d	; 61
    16e4:	de b7       	in	r29, 0x3e	; 62
    16e6:	8b e0       	ldi	r24, 0x0B	; 11
    16e8:	90 e0       	ldi	r25, 0x00	; 0
    16ea:	6d ed       	ldi	r22, 0xDD	; 221
    16ec:	7a e0       	ldi	r23, 0x0A	; 10
    16ee:	0e 94 55 13 	call	0x26aa	; 0x26aa <__eerd_word>
    16f2:	a0 e0       	ldi	r26, 0x00	; 0
    16f4:	b0 e0       	ldi	r27, 0x00	; 0
    16f6:	89 83       	std	Y+1, r24	; 0x01
    16f8:	9a 83       	std	Y+2, r25	; 0x02
    16fa:	ab 83       	std	Y+3, r26	; 0x03
    16fc:	bc 83       	std	Y+4, r27	; 0x04
    16fe:	ce 01       	movw	r24, r28
    1700:	01 96       	adiw	r24, 0x01	; 1
    1702:	41 e0       	ldi	r20, 0x01	; 1
    1704:	50 e0       	ldi	r21, 0x00	; 0
    1706:	60 e0       	ldi	r22, 0x00	; 0
    1708:	70 e0       	ldi	r23, 0x00	; 0
    170a:	04 ef       	ldi	r16, 0xF4	; 244
    170c:	11 e0       	ldi	r17, 0x01	; 1
    170e:	20 e0       	ldi	r18, 0x00	; 0
    1710:	30 e0       	ldi	r19, 0x00	; 0
    1712:	ee 24       	eor	r14, r14
    1714:	ff 24       	eor	r15, r15
    1716:	a4 e0       	ldi	r26, 0x04	; 4
    1718:	ca 2e       	mov	r12, r26
    171a:	0e 94 34 03 	call	0x668	; 0x668 <dlgSetVar>
    171e:	88 23       	and	r24, r24
    1720:	41 f0       	breq	.+16     	; 0x1732 <handleShutRelTime+0x62>
    1722:	69 81       	ldd	r22, Y+1	; 0x01
    1724:	7a 81       	ldd	r23, Y+2	; 0x02
    1726:	8b e0       	ldi	r24, 0x0B	; 11
    1728:	90 e0       	ldi	r25, 0x00	; 0
    172a:	45 ee       	ldi	r20, 0xE5	; 229
    172c:	5a e0       	ldi	r21, 0x0A	; 10
    172e:	0e 94 87 13 	call	0x270e	; 0x270e <__eewr_word>
    1732:	0f 90       	pop	r0
    1734:	0f 90       	pop	r0
    1736:	0f 90       	pop	r0
    1738:	0f 90       	pop	r0
    173a:	cf 91       	pop	r28
    173c:	df 91       	pop	r29
    173e:	1f 91       	pop	r17
    1740:	0f 91       	pop	r16
    1742:	ff 90       	pop	r15
    1744:	ef 90       	pop	r14
    1746:	cf 90       	pop	r12
    1748:	08 95       	ret

0000174a <handleBattVoltage>:
    174a:	cf 92       	push	r12
    174c:	df 92       	push	r13
    174e:	ef 92       	push	r14
    1750:	ff 92       	push	r15
    1752:	0f 93       	push	r16
    1754:	1f 93       	push	r17
    1756:	cf 93       	push	r28
    1758:	df 93       	push	r29
    175a:	15 eb       	ldi	r17, 0xB5	; 181
    175c:	c1 2e       	mov	r12, r17
    175e:	11 e0       	ldi	r17, 0x01	; 1
    1760:	d1 2e       	mov	r13, r17
    1762:	c2 e0       	ldi	r28, 0x02	; 2
    1764:	d0 e0       	ldi	r29, 0x00	; 0
    1766:	b8 ea       	ldi	r27, 0xA8	; 168
    1768:	eb 2e       	mov	r14, r27
    176a:	b1 e6       	ldi	r27, 0x61	; 97
    176c:	fb 2e       	mov	r15, r27
    176e:	34 c0       	rjmp	.+104    	; 0x17d8 <handleBattVoltage+0x8e>
    1770:	0e 94 54 08 	call	0x10a8	; 0x10a8 <hwGetBattVol>
    1774:	6b e0       	ldi	r22, 0x0B	; 11
    1776:	70 e0       	ldi	r23, 0x00	; 0
    1778:	40 e0       	ldi	r20, 0x00	; 0
    177a:	5a e0       	ldi	r21, 0x0A	; 10
    177c:	0e 94 76 08 	call	0x10ec	; 0x10ec <hwMulCoeff>
    1780:	8c 01       	movw	r16, r24
    1782:	80 e0       	ldi	r24, 0x00	; 0
    1784:	60 e0       	ldi	r22, 0x00	; 0
    1786:	0e 94 96 09 	call	0x132c	; 0x132c <lcd_setxy>
    178a:	8d b7       	in	r24, 0x3d	; 61
    178c:	9e b7       	in	r25, 0x3e	; 62
    178e:	0a 97       	sbiw	r24, 0x0a	; 10
    1790:	0f b6       	in	r0, 0x3f	; 63
    1792:	f8 94       	cli
    1794:	9e bf       	out	0x3e, r25	; 62
    1796:	0f be       	out	0x3f, r0	; 63
    1798:	8d bf       	out	0x3d, r24	; 61
    179a:	ed b7       	in	r30, 0x3d	; 61
    179c:	fe b7       	in	r31, 0x3e	; 62
    179e:	31 96       	adiw	r30, 0x01	; 1
    17a0:	ad b7       	in	r26, 0x3d	; 61
    17a2:	be b7       	in	r27, 0x3e	; 62
    17a4:	12 96       	adiw	r26, 0x02	; 2
    17a6:	dc 92       	st	X, r13
    17a8:	ce 92       	st	-X, r12
    17aa:	11 97       	sbiw	r26, 0x01	; 1
    17ac:	12 83       	std	Z+2, r17	; 0x02
    17ae:	13 82       	std	Z+3, r1	; 0x03
    17b0:	10 70       	andi	r17, 0x00	; 0
    17b2:	15 83       	std	Z+5, r17	; 0x05
    17b4:	04 83       	std	Z+4, r16	; 0x04
    17b6:	d7 83       	std	Z+7, r29	; 0x07
    17b8:	c6 83       	std	Z+6, r28	; 0x06
    17ba:	d1 87       	std	Z+9, r29	; 0x09
    17bc:	c0 87       	std	Z+8, r28	; 0x08
    17be:	0e 94 c8 13 	call	0x2790	; 0x2790 <printf_P>
    17c2:	c7 01       	movw	r24, r14
    17c4:	01 97       	sbiw	r24, 0x01	; 1
    17c6:	f1 f7       	brne	.-4      	; 0x17c4 <handleBattVoltage+0x7a>
    17c8:	8d b7       	in	r24, 0x3d	; 61
    17ca:	9e b7       	in	r25, 0x3e	; 62
    17cc:	0a 96       	adiw	r24, 0x0a	; 10
    17ce:	0f b6       	in	r0, 0x3f	; 63
    17d0:	f8 94       	cli
    17d2:	9e bf       	out	0x3e, r25	; 62
    17d4:	0f be       	out	0x3f, r0	; 63
    17d6:	8d bf       	out	0x3d, r24	; 61
    17d8:	80 e0       	ldi	r24, 0x00	; 0
    17da:	0e 94 41 06 	call	0xc82	; 0xc82 <encGetKey>
    17de:	82 30       	cpi	r24, 0x02	; 2
    17e0:	39 f6       	brne	.-114    	; 0x1770 <handleBattVoltage+0x26>
    17e2:	df 91       	pop	r29
    17e4:	cf 91       	pop	r28
    17e6:	1f 91       	pop	r17
    17e8:	0f 91       	pop	r16
    17ea:	ff 90       	pop	r15
    17ec:	ef 90       	pop	r14
    17ee:	df 90       	pop	r13
    17f0:	cf 90       	pop	r12
    17f2:	08 95       	ret

000017f4 <startPT>:
    17f4:	cf 93       	push	r28
    17f6:	df 93       	push	r29
    17f8:	89 ee       	ldi	r24, 0xE9	; 233
    17fa:	92 e0       	ldi	r25, 0x02	; 2
    17fc:	60 e9       	ldi	r22, 0x90	; 144
    17fe:	72 e0       	ldi	r23, 0x02	; 2
    1800:	0e 94 4c 12 	call	0x2498	; 0x2498 <menu_enter>
    1804:	c0 e5       	ldi	r28, 0x50	; 80
    1806:	d3 ec       	ldi	r29, 0xC3	; 195
    1808:	81 e0       	ldi	r24, 0x01	; 1
    180a:	0e 94 41 06 	call	0xc82	; 0xc82 <encGetKey>
    180e:	81 30       	cpi	r24, 0x01	; 1
    1810:	29 f4       	brne	.+10     	; 0x181c <startPT+0x28>
    1812:	89 ee       	ldi	r24, 0xE9	; 233
    1814:	92 e0       	ldi	r25, 0x02	; 2
    1816:	0e 94 93 12 	call	0x2526	; 0x2526 <menu_next_entry>
    181a:	0d c0       	rjmp	.+26     	; 0x1836 <startPT+0x42>
    181c:	88 23       	and	r24, r24
    181e:	29 f4       	brne	.+10     	; 0x182a <startPT+0x36>
    1820:	89 ee       	ldi	r24, 0xE9	; 233
    1822:	92 e0       	ldi	r25, 0x02	; 2
    1824:	0e 94 6b 12 	call	0x24d6	; 0x24d6 <menu_prev_entry>
    1828:	06 c0       	rjmp	.+12     	; 0x1836 <startPT+0x42>
    182a:	82 30       	cpi	r24, 0x02	; 2
    182c:	21 f4       	brne	.+8      	; 0x1836 <startPT+0x42>
    182e:	89 ee       	ldi	r24, 0xE9	; 233
    1830:	92 e0       	ldi	r25, 0x02	; 2
    1832:	0e 94 c5 12 	call	0x258a	; 0x258a <menu_select>
    1836:	ce 01       	movw	r24, r28
    1838:	01 97       	sbiw	r24, 0x01	; 1
    183a:	f1 f7       	brne	.-4      	; 0x1838 <startPT+0x44>
    183c:	e5 cf       	rjmp	.-54     	; 0x1808 <startPT+0x14>

0000183e <handleClock>:
    183e:	cf 92       	push	r12
    1840:	df 92       	push	r13
    1842:	ef 92       	push	r14
    1844:	ff 92       	push	r15
    1846:	0f 93       	push	r16
    1848:	1f 93       	push	r17
    184a:	df 93       	push	r29
    184c:	cf 93       	push	r28
    184e:	00 d0       	rcall	.+0      	; 0x1850 <handleClock+0x12>
    1850:	0f 92       	push	r0
    1852:	cd b7       	in	r28, 0x3d	; 61
    1854:	de b7       	in	r29, 0x3e	; 62
    1856:	6e 01       	movw	r12, r28
    1858:	08 94       	sec
    185a:	c1 1c       	adc	r12, r1
    185c:	d1 1c       	adc	r13, r1
    185e:	0d ed       	ldi	r16, 0xDD	; 221
    1860:	e0 2e       	mov	r14, r16
    1862:	01 e0       	ldi	r16, 0x01	; 1
    1864:	f0 2e       	mov	r15, r16
    1866:	02 e0       	ldi	r16, 0x02	; 2
    1868:	10 e0       	ldi	r17, 0x00	; 0
    186a:	2f c0       	rjmp	.+94     	; 0x18ca <handleClock+0x8c>
    186c:	c6 01       	movw	r24, r12
    186e:	0e 94 e2 0f 	call	0x1fc4	; 0x1fc4 <rtcGetSysTime>
    1872:	80 e0       	ldi	r24, 0x00	; 0
    1874:	60 e0       	ldi	r22, 0x00	; 0
    1876:	0e 94 96 09 	call	0x132c	; 0x132c <lcd_setxy>
    187a:	8d b7       	in	r24, 0x3d	; 61
    187c:	9e b7       	in	r25, 0x3e	; 62
    187e:	0c 97       	sbiw	r24, 0x0c	; 12
    1880:	0f b6       	in	r0, 0x3f	; 63
    1882:	f8 94       	cli
    1884:	9e bf       	out	0x3e, r25	; 62
    1886:	0f be       	out	0x3f, r0	; 63
    1888:	8d bf       	out	0x3d, r24	; 61
    188a:	ed b7       	in	r30, 0x3d	; 61
    188c:	fe b7       	in	r31, 0x3e	; 62
    188e:	31 96       	adiw	r30, 0x01	; 1
    1890:	ad b7       	in	r26, 0x3d	; 61
    1892:	be b7       	in	r27, 0x3e	; 62
    1894:	12 96       	adiw	r26, 0x02	; 2
    1896:	fc 92       	st	X, r15
    1898:	ee 92       	st	-X, r14
    189a:	11 97       	sbiw	r26, 0x01	; 1
    189c:	8b 81       	ldd	r24, Y+3	; 0x03
    189e:	82 83       	std	Z+2, r24	; 0x02
    18a0:	13 82       	std	Z+3, r1	; 0x03
    18a2:	8a 81       	ldd	r24, Y+2	; 0x02
    18a4:	84 83       	std	Z+4, r24	; 0x04
    18a6:	15 82       	std	Z+5, r1	; 0x05
    18a8:	89 81       	ldd	r24, Y+1	; 0x01
    18aa:	86 83       	std	Z+6, r24	; 0x06
    18ac:	17 82       	std	Z+7, r1	; 0x07
    18ae:	11 87       	std	Z+9, r17	; 0x09
    18b0:	00 87       	std	Z+8, r16	; 0x08
    18b2:	13 87       	std	Z+11, r17	; 0x0b
    18b4:	02 87       	std	Z+10, r16	; 0x0a
    18b6:	0e 94 c8 13 	call	0x2790	; 0x2790 <printf_P>
    18ba:	8d b7       	in	r24, 0x3d	; 61
    18bc:	9e b7       	in	r25, 0x3e	; 62
    18be:	0c 96       	adiw	r24, 0x0c	; 12
    18c0:	0f b6       	in	r0, 0x3f	; 63
    18c2:	f8 94       	cli
    18c4:	9e bf       	out	0x3e, r25	; 62
    18c6:	0f be       	out	0x3f, r0	; 63
    18c8:	8d bf       	out	0x3d, r24	; 61
    18ca:	80 e0       	ldi	r24, 0x00	; 0
    18cc:	0e 94 41 06 	call	0xc82	; 0xc82 <encGetKey>
    18d0:	82 30       	cpi	r24, 0x02	; 2
    18d2:	61 f6       	brne	.-104    	; 0x186c <handleClock+0x2e>
    18d4:	0f 90       	pop	r0
    18d6:	0f 90       	pop	r0
    18d8:	0f 90       	pop	r0
    18da:	cf 91       	pop	r28
    18dc:	df 91       	pop	r29
    18de:	1f 91       	pop	r17
    18e0:	0f 91       	pop	r16
    18e2:	ff 90       	pop	r15
    18e4:	ef 90       	pop	r14
    18e6:	df 90       	pop	r13
    18e8:	cf 90       	pop	r12
    18ea:	08 95       	ret

000018ec <handleLCDBacklight>:
    18ec:	cf 92       	push	r12
    18ee:	ef 92       	push	r14
    18f0:	ff 92       	push	r15
    18f2:	0f 93       	push	r16
    18f4:	1f 93       	push	r17
    18f6:	df 93       	push	r29
    18f8:	cf 93       	push	r28
    18fa:	00 d0       	rcall	.+0      	; 0x18fc <handleLCDBacklight+0x10>
    18fc:	00 d0       	rcall	.+0      	; 0x18fe <handleLCDBacklight+0x12>
    18fe:	cd b7       	in	r28, 0x3d	; 61
    1900:	de b7       	in	r29, 0x3e	; 62
    1902:	60 91 88 00 	lds	r22, 0x0088
    1906:	70 91 89 00 	lds	r23, 0x0089
    190a:	80 e0       	ldi	r24, 0x00	; 0
    190c:	90 e0       	ldi	r25, 0x00	; 0
    190e:	24 e6       	ldi	r18, 0x64	; 100
    1910:	30 e0       	ldi	r19, 0x00	; 0
    1912:	40 e0       	ldi	r20, 0x00	; 0
    1914:	50 e0       	ldi	r21, 0x00	; 0
    1916:	0e 94 3f 16 	call	0x2c7e	; 0x2c7e <__mulsi3>
    191a:	2f ef       	ldi	r18, 0xFF	; 255
    191c:	33 e0       	ldi	r19, 0x03	; 3
    191e:	40 e0       	ldi	r20, 0x00	; 0
    1920:	50 e0       	ldi	r21, 0x00	; 0
    1922:	0e 94 94 16 	call	0x2d28	; 0x2d28 <__divmodsi4>
    1926:	29 83       	std	Y+1, r18	; 0x01
    1928:	3a 83       	std	Y+2, r19	; 0x02
    192a:	4b 83       	std	Y+3, r20	; 0x03
    192c:	5c 83       	std	Y+4, r21	; 0x04
    192e:	ce 01       	movw	r24, r28
    1930:	01 96       	adiw	r24, 0x01	; 1
    1932:	40 e0       	ldi	r20, 0x00	; 0
    1934:	50 e0       	ldi	r21, 0x00	; 0
    1936:	60 e0       	ldi	r22, 0x00	; 0
    1938:	70 e0       	ldi	r23, 0x00	; 0
    193a:	04 e6       	ldi	r16, 0x64	; 100
    193c:	10 e0       	ldi	r17, 0x00	; 0
    193e:	20 e0       	ldi	r18, 0x00	; 0
    1940:	30 e0       	ldi	r19, 0x00	; 0
    1942:	f7 ed       	ldi	r31, 0xD7	; 215
    1944:	ef 2e       	mov	r14, r31
    1946:	fc e0       	ldi	r31, 0x0C	; 12
    1948:	ff 2e       	mov	r15, r31
    194a:	e5 e2       	ldi	r30, 0x25	; 37
    194c:	ce 2e       	mov	r12, r30
    194e:	0e 94 34 03 	call	0x668	; 0x668 <dlgSetVar>
    1952:	88 23       	and	r24, r24
    1954:	c1 f0       	breq	.+48     	; 0x1986 <handleLCDBacklight+0x9a>
    1956:	69 81       	ldd	r22, Y+1	; 0x01
    1958:	7a 81       	ldd	r23, Y+2	; 0x02
    195a:	8b 81       	ldd	r24, Y+3	; 0x03
    195c:	9c 81       	ldd	r25, Y+4	; 0x04
    195e:	2f ef       	ldi	r18, 0xFF	; 255
    1960:	33 e0       	ldi	r19, 0x03	; 3
    1962:	40 e0       	ldi	r20, 0x00	; 0
    1964:	50 e0       	ldi	r21, 0x00	; 0
    1966:	0e 94 3f 16 	call	0x2c7e	; 0x2c7e <__mulsi3>
    196a:	24 e6       	ldi	r18, 0x64	; 100
    196c:	30 e0       	ldi	r19, 0x00	; 0
    196e:	40 e0       	ldi	r20, 0x00	; 0
    1970:	50 e0       	ldi	r21, 0x00	; 0
    1972:	0e 94 94 16 	call	0x2d28	; 0x2d28 <__divmodsi4>
    1976:	85 e0       	ldi	r24, 0x05	; 5
    1978:	90 e0       	ldi	r25, 0x00	; 0
    197a:	b9 01       	movw	r22, r18
    197c:	45 ee       	ldi	r20, 0xE5	; 229
    197e:	5a e0       	ldi	r21, 0x0A	; 10
    1980:	0e 94 87 13 	call	0x270e	; 0x270e <__eewr_word>
    1984:	08 c0       	rjmp	.+16     	; 0x1996 <handleLCDBacklight+0xaa>
    1986:	85 e0       	ldi	r24, 0x05	; 5
    1988:	90 e0       	ldi	r25, 0x00	; 0
    198a:	6d ed       	ldi	r22, 0xDD	; 221
    198c:	7a e0       	ldi	r23, 0x0A	; 10
    198e:	0e 94 55 13 	call	0x26aa	; 0x26aa <__eerd_word>
    1992:	0e 94 55 09 	call	0x12aa	; 0x12aa <lcd_setbacklight>
    1996:	0f 90       	pop	r0
    1998:	0f 90       	pop	r0
    199a:	0f 90       	pop	r0
    199c:	0f 90       	pop	r0
    199e:	cf 91       	pop	r28
    19a0:	df 91       	pop	r29
    19a2:	1f 91       	pop	r17
    19a4:	0f 91       	pop	r16
    19a6:	ff 90       	pop	r15
    19a8:	ef 90       	pop	r14
    19aa:	cf 90       	pop	r12
    19ac:	08 95       	ret

000019ae <glueSetBL>:
    19ae:	2f ef       	ldi	r18, 0xFF	; 255
    19b0:	33 e0       	ldi	r19, 0x03	; 3
    19b2:	40 e0       	ldi	r20, 0x00	; 0
    19b4:	50 e0       	ldi	r21, 0x00	; 0
    19b6:	0e 94 3f 16 	call	0x2c7e	; 0x2c7e <__mulsi3>
    19ba:	24 e6       	ldi	r18, 0x64	; 100
    19bc:	30 e0       	ldi	r19, 0x00	; 0
    19be:	40 e0       	ldi	r20, 0x00	; 0
    19c0:	50 e0       	ldi	r21, 0x00	; 0
    19c2:	0e 94 94 16 	call	0x2d28	; 0x2d28 <__divmodsi4>
    19c6:	da 01       	movw	r26, r20
    19c8:	c9 01       	movw	r24, r18
    19ca:	0e 94 55 09 	call	0x12aa	; 0x12aa <lcd_setbacklight>
    19ce:	08 95       	ret

000019d0 <handleSetTime>:
    19d0:	0f 93       	push	r16
    19d2:	1f 93       	push	r17
    19d4:	df 93       	push	r29
    19d6:	cf 93       	push	r28
    19d8:	00 d0       	rcall	.+0      	; 0x19da <handleSetTime+0xa>
    19da:	0f 92       	push	r0
    19dc:	cd b7       	in	r28, 0x3d	; 61
    19de:	de b7       	in	r29, 0x3e	; 62
    19e0:	8e 01       	movw	r16, r28
    19e2:	0f 5f       	subi	r16, 0xFF	; 255
    19e4:	1f 4f       	sbci	r17, 0xFF	; 255
    19e6:	c8 01       	movw	r24, r16
    19e8:	0e 94 e2 0f 	call	0x1fc4	; 0x1fc4 <rtcGetSysTime>
    19ec:	c8 01       	movw	r24, r16
    19ee:	61 e0       	ldi	r22, 0x01	; 1
    19f0:	40 e0       	ldi	r20, 0x00	; 0
    19f2:	0e 94 d1 04 	call	0x9a2	; 0x9a2 <dlgSetTime>
    19f6:	88 23       	and	r24, r24
    19f8:	19 f0       	breq	.+6      	; 0x1a00 <handleSetTime+0x30>
    19fa:	c8 01       	movw	r24, r16
    19fc:	0e 94 ee 0f 	call	0x1fdc	; 0x1fdc <rtcSetSysTime>
    1a00:	0f 90       	pop	r0
    1a02:	0f 90       	pop	r0
    1a04:	0f 90       	pop	r0
    1a06:	cf 91       	pop	r28
    1a08:	df 91       	pop	r29
    1a0a:	1f 91       	pop	r17
    1a0c:	0f 91       	pop	r16
    1a0e:	08 95       	ret

00001a10 <handleAbout>:
    1a10:	87 ee       	ldi	r24, 0xE7	; 231
    1a12:	92 e0       	ldi	r25, 0x02	; 2
    1a14:	0e 94 d5 02 	call	0x5aa	; 0x5aa <dlgInfo_P>
    1a18:	80 e0       	ldi	r24, 0x00	; 0
    1a1a:	60 e0       	ldi	r22, 0x00	; 0
    1a1c:	0e 94 96 09 	call	0x132c	; 0x132c <lcd_setxy>
    1a20:	00 d0       	rcall	.+0      	; 0x1a22 <handleAbout+0x12>
    1a22:	00 d0       	rcall	.+0      	; 0x1a24 <handleAbout+0x14>
    1a24:	8a ed       	ldi	r24, 0xDA	; 218
    1a26:	92 e0       	ldi	r25, 0x02	; 2
    1a28:	ad b7       	in	r26, 0x3d	; 61
    1a2a:	be b7       	in	r27, 0x3e	; 62
    1a2c:	12 96       	adiw	r26, 0x02	; 2
    1a2e:	9c 93       	st	X, r25
    1a30:	8e 93       	st	-X, r24
    1a32:	11 97       	sbiw	r26, 0x01	; 1
    1a34:	8a e4       	ldi	r24, 0x4A	; 74
    1a36:	91 e0       	ldi	r25, 0x01	; 1
    1a38:	14 96       	adiw	r26, 0x04	; 4
    1a3a:	9c 93       	st	X, r25
    1a3c:	8e 93       	st	-X, r24
    1a3e:	13 97       	sbiw	r26, 0x03	; 3
    1a40:	0e 94 c8 13 	call	0x2790	; 0x2790 <printf_P>
    1a44:	00 d0       	rcall	.+0      	; 0x1a46 <handleAbout+0x36>
    1a46:	ed b7       	in	r30, 0x3d	; 61
    1a48:	fe b7       	in	r31, 0x3e	; 62
    1a4a:	31 96       	adiw	r30, 0x01	; 1
    1a4c:	87 ec       	ldi	r24, 0xC7	; 199
    1a4e:	92 e0       	ldi	r25, 0x02	; 2
    1a50:	ad b7       	in	r26, 0x3d	; 61
    1a52:	be b7       	in	r27, 0x3e	; 62
    1a54:	12 96       	adiw	r26, 0x02	; 2
    1a56:	9c 93       	st	X, r25
    1a58:	8e 93       	st	-X, r24
    1a5a:	11 97       	sbiw	r26, 0x01	; 1
    1a5c:	82 e0       	ldi	r24, 0x02	; 2
    1a5e:	90 e0       	ldi	r25, 0x00	; 0
    1a60:	93 83       	std	Z+3, r25	; 0x03
    1a62:	82 83       	std	Z+2, r24	; 0x02
    1a64:	95 83       	std	Z+5, r25	; 0x05
    1a66:	84 83       	std	Z+4, r24	; 0x04
    1a68:	0e 94 c8 13 	call	0x2790	; 0x2790 <printf_P>
    1a6c:	ed b7       	in	r30, 0x3d	; 61
    1a6e:	fe b7       	in	r31, 0x3e	; 62
    1a70:	36 96       	adiw	r30, 0x06	; 6
    1a72:	0f b6       	in	r0, 0x3f	; 63
    1a74:	f8 94       	cli
    1a76:	fe bf       	out	0x3e, r31	; 62
    1a78:	0f be       	out	0x3f, r0	; 63
    1a7a:	ed bf       	out	0x3d, r30	; 61
    1a7c:	80 e0       	ldi	r24, 0x00	; 0
    1a7e:	0e 94 41 06 	call	0xc82	; 0xc82 <encGetKey>
    1a82:	82 30       	cpi	r24, 0x02	; 2
    1a84:	d9 f7       	brne	.-10     	; 0x1a7c <handleAbout+0x6c>
    1a86:	08 95       	ret

00001a88 <waitForStart>:
    1a88:	cf 92       	push	r12
    1a8a:	df 92       	push	r13
    1a8c:	ef 92       	push	r14
    1a8e:	ff 92       	push	r15
    1a90:	0f 93       	push	r16
    1a92:	1f 93       	push	r17
    1a94:	df 93       	push	r29
    1a96:	cf 93       	push	r28
    1a98:	00 d0       	rcall	.+0      	; 0x1a9a <waitForStart+0x12>
    1a9a:	0f 92       	push	r0
    1a9c:	cd b7       	in	r28, 0x3d	; 61
    1a9e:	de b7       	in	r29, 0x3e	; 62
    1aa0:	8c 01       	movw	r16, r24
    1aa2:	6e 01       	movw	r12, r28
    1aa4:	08 94       	sec
    1aa6:	c1 1c       	adc	r12, r1
    1aa8:	d1 1c       	adc	r13, r1
    1aaa:	a4 ed       	ldi	r26, 0xD4	; 212
    1aac:	ea 2e       	mov	r14, r26
    1aae:	a0 e3       	ldi	r26, 0x30	; 48
    1ab0:	fa 2e       	mov	r15, r26
    1ab2:	c8 01       	movw	r24, r16
    1ab4:	0e 94 59 02 	call	0x4b2	; 0x4b2 <dlgPrintTimeLeft>
    1ab8:	80 e0       	ldi	r24, 0x00	; 0
    1aba:	0e 94 41 06 	call	0xc82	; 0xc82 <encGetKey>
    1abe:	82 30       	cpi	r24, 0x02	; 2
    1ac0:	31 f4       	brne	.+12     	; 0x1ace <waitForStart+0x46>
    1ac2:	83 e5       	ldi	r24, 0x53	; 83
    1ac4:	91 e0       	ldi	r25, 0x01	; 1
    1ac6:	0e 94 99 04 	call	0x932	; 0x932 <dlgYesNo>
    1aca:	88 23       	and	r24, r24
    1acc:	b1 f4       	brne	.+44     	; 0x1afa <waitForStart+0x72>
    1ace:	c6 01       	movw	r24, r12
    1ad0:	0e 94 e2 0f 	call	0x1fc4	; 0x1fc4 <rtcGetSysTime>
    1ad4:	9b 81       	ldd	r25, Y+3	; 0x03
    1ad6:	f8 01       	movw	r30, r16
    1ad8:	82 81       	ldd	r24, Z+2	; 0x02
    1ada:	98 17       	cp	r25, r24
    1adc:	51 f4       	brne	.+20     	; 0x1af2 <waitForStart+0x6a>
    1ade:	9a 81       	ldd	r25, Y+2	; 0x02
    1ae0:	81 81       	ldd	r24, Z+1	; 0x01
    1ae2:	98 17       	cp	r25, r24
    1ae4:	31 f4       	brne	.+12     	; 0x1af2 <waitForStart+0x6a>
    1ae6:	99 81       	ldd	r25, Y+1	; 0x01
    1ae8:	80 81       	ld	r24, Z
    1aea:	98 17       	cp	r25, r24
    1aec:	11 f4       	brne	.+4      	; 0x1af2 <waitForStart+0x6a>
    1aee:	81 e0       	ldi	r24, 0x01	; 1
    1af0:	05 c0       	rjmp	.+10     	; 0x1afc <waitForStart+0x74>
    1af2:	c7 01       	movw	r24, r14
    1af4:	01 97       	sbiw	r24, 0x01	; 1
    1af6:	f1 f7       	brne	.-4      	; 0x1af4 <waitForStart+0x6c>
    1af8:	dc cf       	rjmp	.-72     	; 0x1ab2 <waitForStart+0x2a>
    1afa:	80 e0       	ldi	r24, 0x00	; 0
    1afc:	0f 90       	pop	r0
    1afe:	0f 90       	pop	r0
    1b00:	0f 90       	pop	r0
    1b02:	cf 91       	pop	r28
    1b04:	df 91       	pop	r29
    1b06:	1f 91       	pop	r17
    1b08:	0f 91       	pop	r16
    1b0a:	ff 90       	pop	r15
    1b0c:	ef 90       	pop	r14
    1b0e:	df 90       	pop	r13
    1b10:	cf 90       	pop	r12
    1b12:	08 95       	ret

00001b14 <waitForNextPhoto>:
    1b14:	8f 92       	push	r8
    1b16:	9f 92       	push	r9
    1b18:	af 92       	push	r10
    1b1a:	bf 92       	push	r11
    1b1c:	cf 92       	push	r12
    1b1e:	df 92       	push	r13
    1b20:	ef 92       	push	r14
    1b22:	ff 92       	push	r15
    1b24:	0f 93       	push	r16
    1b26:	1f 93       	push	r17
    1b28:	df 93       	push	r29
    1b2a:	cf 93       	push	r28
    1b2c:	00 d0       	rcall	.+0      	; 0x1b2e <waitForNextPhoto+0x1a>
    1b2e:	0f 92       	push	r0
    1b30:	cd b7       	in	r28, 0x3d	; 61
    1b32:	de b7       	in	r29, 0x3e	; 62
    1b34:	8c 01       	movw	r16, r24
    1b36:	4b 01       	movw	r8, r22
    1b38:	5a 01       	movw	r10, r20
    1b3a:	0e 94 96 10 	call	0x212c	; 0x212c <rtcSyncToSec>
    1b3e:	c8 01       	movw	r24, r16
    1b40:	0e 94 fc 0f 	call	0x1ff8	; 0x1ff8 <rtcTm2Int>
    1b44:	ab 01       	movw	r20, r22
    1b46:	bc 01       	movw	r22, r24
    1b48:	80 e0       	ldi	r24, 0x00	; 0
    1b4a:	0e 94 84 10 	call	0x2108	; 0x2108 <rtcSetStatTimer>
    1b4e:	6e 01       	movw	r12, r28
    1b50:	08 94       	sec
    1b52:	c1 1c       	adc	r12, r1
    1b54:	d1 1c       	adc	r13, r1
    1b56:	80 e0       	ldi	r24, 0x00	; 0
    1b58:	0e 94 6b 10 	call	0x20d6	; 0x20d6 <rtcGetStatTimer>
    1b5c:	7b 01       	movw	r14, r22
    1b5e:	8c 01       	movw	r16, r24
    1b60:	a6 01       	movw	r20, r12
    1b62:	0e 94 2e 10 	call	0x205c	; 0x205c <rtcInt2Tm>
    1b66:	c4 01       	movw	r24, r8
    1b68:	b5 01       	movw	r22, r10
    1b6a:	a6 01       	movw	r20, r12
    1b6c:	0e 94 e1 01 	call	0x3c2	; 0x3c2 <dlgPrintCountAndTime>
    1b70:	e1 14       	cp	r14, r1
    1b72:	f1 04       	cpc	r15, r1
    1b74:	01 05       	cpc	r16, r1
    1b76:	11 05       	cpc	r17, r1
    1b78:	11 f4       	brne	.+4      	; 0x1b7e <waitForNextPhoto+0x6a>
    1b7a:	81 e0       	ldi	r24, 0x01	; 1
    1b7c:	0c c0       	rjmp	.+24     	; 0x1b96 <waitForNextPhoto+0x82>
    1b7e:	80 e0       	ldi	r24, 0x00	; 0
    1b80:	0e 94 41 06 	call	0xc82	; 0xc82 <encGetKey>
    1b84:	82 30       	cpi	r24, 0x02	; 2
    1b86:	39 f7       	brne	.-50     	; 0x1b56 <waitForNextPhoto+0x42>
    1b88:	83 e5       	ldi	r24, 0x53	; 83
    1b8a:	91 e0       	ldi	r25, 0x01	; 1
    1b8c:	0e 94 99 04 	call	0x932	; 0x932 <dlgYesNo>
    1b90:	88 23       	and	r24, r24
    1b92:	09 f3       	breq	.-62     	; 0x1b56 <waitForNextPhoto+0x42>
    1b94:	80 e0       	ldi	r24, 0x00	; 0
    1b96:	0f 90       	pop	r0
    1b98:	0f 90       	pop	r0
    1b9a:	0f 90       	pop	r0
    1b9c:	cf 91       	pop	r28
    1b9e:	df 91       	pop	r29
    1ba0:	1f 91       	pop	r17
    1ba2:	0f 91       	pop	r16
    1ba4:	ff 90       	pop	r15
    1ba6:	ef 90       	pop	r14
    1ba8:	df 90       	pop	r13
    1baa:	cf 90       	pop	r12
    1bac:	bf 90       	pop	r11
    1bae:	af 90       	pop	r10
    1bb0:	9f 90       	pop	r9
    1bb2:	8f 90       	pop	r8
    1bb4:	08 95       	ret

00001bb6 <doBulb>:
    1bb6:	cf 92       	push	r12
    1bb8:	df 92       	push	r13
    1bba:	ef 92       	push	r14
    1bbc:	ff 92       	push	r15
    1bbe:	0f 93       	push	r16
    1bc0:	1f 93       	push	r17
    1bc2:	df 93       	push	r29
    1bc4:	cf 93       	push	r28
    1bc6:	00 d0       	rcall	.+0      	; 0x1bc8 <doBulb+0x12>
    1bc8:	0f 92       	push	r0
    1bca:	cd b7       	in	r28, 0x3d	; 61
    1bcc:	de b7       	in	r29, 0x3e	; 62
    1bce:	8c 01       	movw	r16, r24
    1bd0:	0e 94 96 10 	call	0x212c	; 0x212c <rtcSyncToSec>
    1bd4:	c8 01       	movw	r24, r16
    1bd6:	0e 94 fc 0f 	call	0x1ff8	; 0x1ff8 <rtcTm2Int>
    1bda:	ab 01       	movw	r20, r22
    1bdc:	bc 01       	movw	r22, r24
    1bde:	80 e0       	ldi	r24, 0x00	; 0
    1be0:	0e 94 84 10 	call	0x2108	; 0x2108 <rtcSetStatTimer>
    1be4:	28 9a       	sbi	0x05, 0	; 5
    1be6:	6e 01       	movw	r12, r28
    1be8:	08 94       	sec
    1bea:	c1 1c       	adc	r12, r1
    1bec:	d1 1c       	adc	r13, r1
    1bee:	80 e0       	ldi	r24, 0x00	; 0
    1bf0:	0e 94 6b 10 	call	0x20d6	; 0x20d6 <rtcGetStatTimer>
    1bf4:	7b 01       	movw	r14, r22
    1bf6:	8c 01       	movw	r16, r24
    1bf8:	a6 01       	movw	r20, r12
    1bfa:	0e 94 2e 10 	call	0x205c	; 0x205c <rtcInt2Tm>
    1bfe:	c6 01       	movw	r24, r12
    1c00:	0e 94 24 02 	call	0x448	; 0x448 <dlgPrintBulb>
    1c04:	e1 14       	cp	r14, r1
    1c06:	f1 04       	cpc	r15, r1
    1c08:	01 05       	cpc	r16, r1
    1c0a:	11 05       	cpc	r17, r1
    1c0c:	71 f0       	breq	.+28     	; 0x1c2a <doBulb+0x74>
    1c0e:	80 e0       	ldi	r24, 0x00	; 0
    1c10:	0e 94 41 06 	call	0xc82	; 0xc82 <encGetKey>
    1c14:	82 30       	cpi	r24, 0x02	; 2
    1c16:	59 f7       	brne	.-42     	; 0x1bee <doBulb+0x38>
    1c18:	83 e5       	ldi	r24, 0x53	; 83
    1c1a:	91 e0       	ldi	r25, 0x01	; 1
    1c1c:	0e 94 99 04 	call	0x932	; 0x932 <dlgYesNo>
    1c20:	88 23       	and	r24, r24
    1c22:	29 f3       	breq	.-54     	; 0x1bee <doBulb+0x38>
    1c24:	28 98       	cbi	0x05, 0	; 5
    1c26:	80 e0       	ldi	r24, 0x00	; 0
    1c28:	02 c0       	rjmp	.+4      	; 0x1c2e <doBulb+0x78>
    1c2a:	28 98       	cbi	0x05, 0	; 5
    1c2c:	81 e0       	ldi	r24, 0x01	; 1
    1c2e:	0f 90       	pop	r0
    1c30:	0f 90       	pop	r0
    1c32:	0f 90       	pop	r0
    1c34:	cf 91       	pop	r28
    1c36:	df 91       	pop	r29
    1c38:	1f 91       	pop	r17
    1c3a:	0f 91       	pop	r16
    1c3c:	ff 90       	pop	r15
    1c3e:	ef 90       	pop	r14
    1c40:	df 90       	pop	r13
    1c42:	cf 90       	pop	r12
    1c44:	08 95       	ret

00001c46 <handleBulb>:
    1c46:	ef 92       	push	r14
    1c48:	ff 92       	push	r15
    1c4a:	0f 93       	push	r16
    1c4c:	1f 93       	push	r17
    1c4e:	df 93       	push	r29
    1c50:	cf 93       	push	r28
    1c52:	00 d0       	rcall	.+0      	; 0x1c54 <handleBulb+0xe>
    1c54:	00 d0       	rcall	.+0      	; 0x1c56 <handleBulb+0x10>
    1c56:	00 d0       	rcall	.+0      	; 0x1c58 <handleBulb+0x12>
    1c58:	cd b7       	in	r28, 0x3d	; 61
    1c5a:	de b7       	in	r29, 0x3e	; 62
    1c5c:	ff 24       	eor	r15, r15
    1c5e:	01 97       	sbiw	r24, 0x01	; 1
    1c60:	11 f4       	brne	.+4      	; 0x1c66 <handleBulb+0x20>
    1c62:	ff 24       	eor	r15, r15
    1c64:	f3 94       	inc	r15
    1c66:	81 e0       	ldi	r24, 0x01	; 1
    1c68:	8f 25       	eor	r24, r15
    1c6a:	ee 24       	eor	r14, r14
    1c6c:	88 23       	and	r24, r24
    1c6e:	a9 f4       	brne	.+42     	; 0x1c9a <handleBulb+0x54>
    1c70:	89 e3       	ldi	r24, 0x39	; 57
    1c72:	92 e0       	ldi	r25, 0x02	; 2
    1c74:	0e 94 d5 02 	call	0x5aa	; 0x5aa <dlgInfo_P>
    1c78:	ee 20       	and	r14, r14
    1c7a:	31 f4       	brne	.+12     	; 0x1c88 <handleBulb+0x42>
    1c7c:	ce 01       	movw	r24, r28
    1c7e:	01 96       	adiw	r24, 0x01	; 1
    1c80:	0e 94 e2 0f 	call	0x1fc4	; 0x1fc4 <rtcGetSysTime>
    1c84:	ee 24       	eor	r14, r14
    1c86:	e3 94       	inc	r14
    1c88:	ce 01       	movw	r24, r28
    1c8a:	01 96       	adiw	r24, 0x01	; 1
    1c8c:	61 e0       	ldi	r22, 0x01	; 1
    1c8e:	40 e0       	ldi	r20, 0x00	; 0
    1c90:	0e 94 d1 04 	call	0x9a2	; 0x9a2 <dlgSetTime>
    1c94:	88 23       	and	r24, r24
    1c96:	19 f4       	brne	.+6      	; 0x1c9e <handleBulb+0x58>
    1c98:	46 c0       	rjmp	.+140    	; 0x1d26 <handleBulb+0xe0>
    1c9a:	81 30       	cpi	r24, 0x01	; 1
    1c9c:	21 f5       	brne	.+72     	; 0x1ce6 <handleBulb+0xa0>
    1c9e:	8b e2       	ldi	r24, 0x2B	; 43
    1ca0:	92 e0       	ldi	r25, 0x02	; 2
    1ca2:	0e 94 d5 02 	call	0x5aa	; 0x5aa <dlgInfo_P>
    1ca6:	8e 01       	movw	r16, r28
    1ca8:	0c 5f       	subi	r16, 0xFC	; 252
    1caa:	1f 4f       	sbci	r17, 0xFF	; 255
    1cac:	c8 01       	movw	r24, r16
    1cae:	63 e1       	ldi	r22, 0x13	; 19
    1cb0:	70 e0       	ldi	r23, 0x00	; 0
    1cb2:	43 e0       	ldi	r20, 0x03	; 3
    1cb4:	50 e0       	ldi	r21, 0x00	; 0
    1cb6:	2d ed       	ldi	r18, 0xDD	; 221
    1cb8:	3a e0       	ldi	r19, 0x0A	; 10
    1cba:	0e 94 13 13 	call	0x2626	; 0x2626 <__eerd_block>
    1cbe:	c8 01       	movw	r24, r16
    1cc0:	60 e0       	ldi	r22, 0x00	; 0
    1cc2:	41 e0       	ldi	r20, 0x01	; 1
    1cc4:	0e 94 d1 04 	call	0x9a2	; 0x9a2 <dlgSetTime>
    1cc8:	88 23       	and	r24, r24
    1cca:	51 f0       	breq	.+20     	; 0x1ce0 <handleBulb+0x9a>
    1ccc:	83 e1       	ldi	r24, 0x13	; 19
    1cce:	90 e0       	ldi	r25, 0x00	; 0
    1cd0:	b8 01       	movw	r22, r16
    1cd2:	43 e0       	ldi	r20, 0x03	; 3
    1cd4:	50 e0       	ldi	r21, 0x00	; 0
    1cd6:	25 ee       	ldi	r18, 0xE5	; 229
    1cd8:	3a e0       	ldi	r19, 0x0A	; 10
    1cda:	0e 94 6b 13 	call	0x26d6	; 0x26d6 <__eewr_block>
    1cde:	03 c0       	rjmp	.+6      	; 0x1ce6 <handleBulb+0xa0>
    1ce0:	ff 20       	and	r15, r15
    1ce2:	31 f6       	brne	.-116    	; 0x1c70 <handleBulb+0x2a>
    1ce4:	20 c0       	rjmp	.+64     	; 0x1d26 <handleBulb+0xe0>
    1ce6:	ff 20       	and	r15, r15
    1ce8:	31 f0       	breq	.+12     	; 0x1cf6 <handleBulb+0xb0>
    1cea:	ce 01       	movw	r24, r28
    1cec:	01 96       	adiw	r24, 0x01	; 1
    1cee:	0e 94 44 0d 	call	0x1a88	; 0x1a88 <waitForStart>
    1cf2:	88 23       	and	r24, r24
    1cf4:	c1 f0       	breq	.+48     	; 0x1d26 <handleBulb+0xe0>
    1cf6:	8f e1       	ldi	r24, 0x1F	; 31
    1cf8:	92 e0       	ldi	r25, 0x02	; 2
    1cfa:	0e 94 d5 02 	call	0x5aa	; 0x5aa <dlgInfo_P>
    1cfe:	ce 01       	movw	r24, r28
    1d00:	04 96       	adiw	r24, 0x04	; 4
    1d02:	0e 94 db 0d 	call	0x1bb6	; 0x1bb6 <doBulb>
    1d06:	0e 94 a9 09 	call	0x1352	; 0x1352 <lcd_clr>
    1d0a:	00 d0       	rcall	.+0      	; 0x1d0c <handleBulb+0xc6>
    1d0c:	87 e0       	ldi	r24, 0x07	; 7
    1d0e:	92 e0       	ldi	r25, 0x02	; 2
    1d10:	ed b7       	in	r30, 0x3d	; 61
    1d12:	fe b7       	in	r31, 0x3e	; 62
    1d14:	92 83       	std	Z+2, r25	; 0x02
    1d16:	81 83       	std	Z+1, r24	; 0x01
    1d18:	0e 94 c8 13 	call	0x2790	; 0x2790 <printf_P>
    1d1c:	0f 90       	pop	r0
    1d1e:	0f 90       	pop	r0
    1d20:	81 e0       	ldi	r24, 0x01	; 1
    1d22:	0e 94 41 06 	call	0xc82	; 0xc82 <encGetKey>
    1d26:	26 96       	adiw	r28, 0x06	; 6
    1d28:	0f b6       	in	r0, 0x3f	; 63
    1d2a:	f8 94       	cli
    1d2c:	de bf       	out	0x3e, r29	; 62
    1d2e:	0f be       	out	0x3f, r0	; 63
    1d30:	cd bf       	out	0x3d, r28	; 61
    1d32:	cf 91       	pop	r28
    1d34:	df 91       	pop	r29
    1d36:	1f 91       	pop	r17
    1d38:	0f 91       	pop	r16
    1d3a:	ff 90       	pop	r15
    1d3c:	ef 90       	pop	r14
    1d3e:	08 95       	ret

00001d40 <handleTL>:
    1d40:	2f 92       	push	r2
    1d42:	3f 92       	push	r3
    1d44:	4f 92       	push	r4
    1d46:	5f 92       	push	r5
    1d48:	6f 92       	push	r6
    1d4a:	7f 92       	push	r7
    1d4c:	9f 92       	push	r9
    1d4e:	af 92       	push	r10
    1d50:	bf 92       	push	r11
    1d52:	cf 92       	push	r12
    1d54:	df 92       	push	r13
    1d56:	ef 92       	push	r14
    1d58:	ff 92       	push	r15
    1d5a:	0f 93       	push	r16
    1d5c:	1f 93       	push	r17
    1d5e:	df 93       	push	r29
    1d60:	cf 93       	push	r28
    1d62:	cd b7       	in	r28, 0x3d	; 61
    1d64:	de b7       	in	r29, 0x3e	; 62
    1d66:	2d 97       	sbiw	r28, 0x0d	; 13
    1d68:	0f b6       	in	r0, 0x3f	; 63
    1d6a:	f8 94       	cli
    1d6c:	de bf       	out	0x3e, r29	; 62
    1d6e:	0f be       	out	0x3f, r0	; 63
    1d70:	cd bf       	out	0x3d, r28	; 61
    1d72:	dd 24       	eor	r13, r13
    1d74:	01 97       	sbiw	r24, 0x01	; 1
    1d76:	11 f4       	brne	.+4      	; 0x1d7c <handleTL+0x3c>
    1d78:	dd 24       	eor	r13, r13
    1d7a:	d3 94       	inc	r13
    1d7c:	81 e0       	ldi	r24, 0x01	; 1
    1d7e:	8d 25       	eor	r24, r13
    1d80:	1a 86       	std	Y+10, r1	; 0x0a
    1d82:	1b 86       	std	Y+11, r1	; 0x0b
    1d84:	1c 86       	std	Y+12, r1	; 0x0c
    1d86:	1d 86       	std	Y+13, r1	; 0x0d
    1d88:	bb 24       	eor	r11, r11
    1d8a:	88 23       	and	r24, r24
    1d8c:	19 f0       	breq	.+6      	; 0x1d94 <handleTL+0x54>
    1d8e:	81 30       	cpi	r24, 0x01	; 1
    1d90:	e1 f7       	brne	.-8      	; 0x1d8a <handleTL+0x4a>
    1d92:	15 c0       	rjmp	.+42     	; 0x1dbe <handleTL+0x7e>
    1d94:	88 eb       	ldi	r24, 0xB8	; 184
    1d96:	92 e0       	ldi	r25, 0x02	; 2
    1d98:	0e 94 d5 02 	call	0x5aa	; 0x5aa <dlgInfo_P>
    1d9c:	bb 20       	and	r11, r11
    1d9e:	31 f4       	brne	.+12     	; 0x1dac <handleTL+0x6c>
    1da0:	ce 01       	movw	r24, r28
    1da2:	01 96       	adiw	r24, 0x01	; 1
    1da4:	0e 94 e2 0f 	call	0x1fc4	; 0x1fc4 <rtcGetSysTime>
    1da8:	bb 24       	eor	r11, r11
    1daa:	b3 94       	inc	r11
    1dac:	ce 01       	movw	r24, r28
    1dae:	01 96       	adiw	r24, 0x01	; 1
    1db0:	61 e0       	ldi	r22, 0x01	; 1
    1db2:	40 e0       	ldi	r20, 0x00	; 0
    1db4:	0e 94 d1 04 	call	0x9a2	; 0x9a2 <dlgSetTime>
    1db8:	88 23       	and	r24, r24
    1dba:	09 f4       	brne	.+2      	; 0x1dbe <handleTL+0x7e>
    1dbc:	e8 c0       	rjmp	.+464    	; 0x1f8e <handleTL+0x24e>
    1dbe:	8a e9       	ldi	r24, 0x9A	; 154
    1dc0:	92 e0       	ldi	r25, 0x02	; 2
    1dc2:	0e 94 d5 02 	call	0x5aa	; 0x5aa <dlgInfo_P>
    1dc6:	87 e0       	ldi	r24, 0x07	; 7
    1dc8:	90 e0       	ldi	r25, 0x00	; 0
    1dca:	6d ed       	ldi	r22, 0xDD	; 221
    1dcc:	7a e0       	ldi	r23, 0x0A	; 10
    1dce:	0e 94 55 13 	call	0x26aa	; 0x26aa <__eerd_word>
    1dd2:	a0 e0       	ldi	r26, 0x00	; 0
    1dd4:	b0 e0       	ldi	r27, 0x00	; 0
    1dd6:	8a 87       	std	Y+10, r24	; 0x0a
    1dd8:	9b 87       	std	Y+11, r25	; 0x0b
    1dda:	ac 87       	std	Y+12, r26	; 0x0c
    1ddc:	bd 87       	std	Y+13, r27	; 0x0d
    1dde:	ce 01       	movw	r24, r28
    1de0:	0a 96       	adiw	r24, 0x0a	; 10
    1de2:	40 e0       	ldi	r20, 0x00	; 0
    1de4:	50 e0       	ldi	r21, 0x00	; 0
    1de6:	60 e0       	ldi	r22, 0x00	; 0
    1de8:	70 e0       	ldi	r23, 0x00	; 0
    1dea:	00 e2       	ldi	r16, 0x20	; 32
    1dec:	1e e4       	ldi	r17, 0x4E	; 78
    1dee:	20 e0       	ldi	r18, 0x00	; 0
    1df0:	30 e0       	ldi	r19, 0x00	; 0
    1df2:	ee 24       	eor	r14, r14
    1df4:	ff 24       	eor	r15, r15
    1df6:	e0 e2       	ldi	r30, 0x20	; 32
    1df8:	ce 2e       	mov	r12, r30
    1dfa:	0e 94 34 03 	call	0x668	; 0x668 <dlgSetVar>
    1dfe:	88 23       	and	r24, r24
    1e00:	49 f0       	breq	.+18     	; 0x1e14 <handleTL+0xd4>
    1e02:	6a 85       	ldd	r22, Y+10	; 0x0a
    1e04:	7b 85       	ldd	r23, Y+11	; 0x0b
    1e06:	87 e0       	ldi	r24, 0x07	; 7
    1e08:	90 e0       	ldi	r25, 0x00	; 0
    1e0a:	45 ee       	ldi	r20, 0xE5	; 229
    1e0c:	5a e0       	ldi	r21, 0x0A	; 10
    1e0e:	0e 94 87 13 	call	0x270e	; 0x270e <__eewr_word>
    1e12:	04 c0       	rjmp	.+8      	; 0x1e1c <handleTL+0xdc>
    1e14:	dd 20       	and	r13, r13
    1e16:	09 f0       	breq	.+2      	; 0x1e1a <handleTL+0xda>
    1e18:	bd cf       	rjmp	.-134    	; 0x1d94 <handleTL+0x54>
    1e1a:	b9 c0       	rjmp	.+370    	; 0x1f8e <handleTL+0x24e>
    1e1c:	8c e7       	ldi	r24, 0x7C	; 124
    1e1e:	92 e0       	ldi	r25, 0x02	; 2
    1e20:	0e 94 d5 02 	call	0x5aa	; 0x5aa <dlgInfo_P>
    1e24:	8e 01       	movw	r16, r28
    1e26:	0c 5f       	subi	r16, 0xFC	; 252
    1e28:	1f 4f       	sbci	r17, 0xFF	; 255
    1e2a:	c8 01       	movw	r24, r16
    1e2c:	60 e1       	ldi	r22, 0x10	; 16
    1e2e:	70 e0       	ldi	r23, 0x00	; 0
    1e30:	43 e0       	ldi	r20, 0x03	; 3
    1e32:	50 e0       	ldi	r21, 0x00	; 0
    1e34:	2d ed       	ldi	r18, 0xDD	; 221
    1e36:	3a e0       	ldi	r19, 0x0A	; 10
    1e38:	0e 94 13 13 	call	0x2626	; 0x2626 <__eerd_block>
    1e3c:	c8 01       	movw	r24, r16
    1e3e:	60 e0       	ldi	r22, 0x00	; 0
    1e40:	41 e0       	ldi	r20, 0x01	; 1
    1e42:	0e 94 d1 04 	call	0x9a2	; 0x9a2 <dlgSetTime>
    1e46:	88 23       	and	r24, r24
    1e48:	09 f4       	brne	.+2      	; 0x1e4c <handleTL+0x10c>
    1e4a:	b9 cf       	rjmp	.-142    	; 0x1dbe <handleTL+0x7e>
    1e4c:	80 e1       	ldi	r24, 0x10	; 16
    1e4e:	90 e0       	ldi	r25, 0x00	; 0
    1e50:	b8 01       	movw	r22, r16
    1e52:	43 e0       	ldi	r20, 0x03	; 3
    1e54:	50 e0       	ldi	r21, 0x00	; 0
    1e56:	25 ee       	ldi	r18, 0xE5	; 229
    1e58:	3a e0       	ldi	r19, 0x0A	; 10
    1e5a:	0e 94 6b 13 	call	0x26d6	; 0x26d6 <__eewr_block>
    1e5e:	86 e6       	ldi	r24, 0x66	; 102
    1e60:	92 e0       	ldi	r25, 0x02	; 2
    1e62:	0e 94 d5 02 	call	0x5aa	; 0x5aa <dlgInfo_P>
    1e66:	8e 01       	movw	r16, r28
    1e68:	09 5f       	subi	r16, 0xF9	; 249
    1e6a:	1f 4f       	sbci	r17, 0xFF	; 255
    1e6c:	c8 01       	movw	r24, r16
    1e6e:	6d e0       	ldi	r22, 0x0D	; 13
    1e70:	70 e0       	ldi	r23, 0x00	; 0
    1e72:	43 e0       	ldi	r20, 0x03	; 3
    1e74:	50 e0       	ldi	r21, 0x00	; 0
    1e76:	2d ed       	ldi	r18, 0xDD	; 221
    1e78:	3a e0       	ldi	r19, 0x0A	; 10
    1e7a:	0e 94 13 13 	call	0x2626	; 0x2626 <__eerd_block>
    1e7e:	c8 01       	movw	r24, r16
    1e80:	60 e0       	ldi	r22, 0x00	; 0
    1e82:	40 e0       	ldi	r20, 0x00	; 0
    1e84:	0e 94 d1 04 	call	0x9a2	; 0x9a2 <dlgSetTime>
    1e88:	88 23       	and	r24, r24
    1e8a:	41 f2       	breq	.-112    	; 0x1e1c <handleTL+0xdc>
    1e8c:	8d e0       	ldi	r24, 0x0D	; 13
    1e8e:	90 e0       	ldi	r25, 0x00	; 0
    1e90:	b8 01       	movw	r22, r16
    1e92:	43 e0       	ldi	r20, 0x03	; 3
    1e94:	50 e0       	ldi	r21, 0x00	; 0
    1e96:	25 ee       	ldi	r18, 0xE5	; 229
    1e98:	3a e0       	ldi	r19, 0x0A	; 10
    1e9a:	0e 94 6b 13 	call	0x26d6	; 0x26d6 <__eewr_block>
    1e9e:	dd 20       	and	r13, r13
    1ea0:	39 f0       	breq	.+14     	; 0x1eb0 <handleTL+0x170>
    1ea2:	ce 01       	movw	r24, r28
    1ea4:	01 96       	adiw	r24, 0x01	; 1
    1ea6:	0e 94 44 0d 	call	0x1a88	; 0x1a88 <waitForStart>
    1eaa:	88 23       	and	r24, r24
    1eac:	09 f4       	brne	.+2      	; 0x1eb0 <handleTL+0x170>
    1eae:	6f c0       	rjmp	.+222    	; 0x1f8e <handleTL+0x24e>
    1eb0:	8b e0       	ldi	r24, 0x0B	; 11
    1eb2:	90 e0       	ldi	r25, 0x00	; 0
    1eb4:	6d ed       	ldi	r22, 0xDD	; 221
    1eb6:	7a e0       	ldi	r23, 0x0A	; 10
    1eb8:	0e 94 55 13 	call	0x26aa	; 0x26aa <__eerd_word>
    1ebc:	3c 01       	movw	r6, r24
    1ebe:	ce 01       	movw	r24, r28
    1ec0:	04 96       	adiw	r24, 0x04	; 4
    1ec2:	0e 94 a8 10 	call	0x2150	; 0x2150 <rtcDec1sFromTm>
    1ec6:	aa 84       	ldd	r10, Y+10	; 0x0a
    1ec8:	bb 84       	ldd	r11, Y+11	; 0x0b
    1eca:	cc 84       	ldd	r12, Y+12	; 0x0c
    1ecc:	dd 84       	ldd	r13, Y+13	; 0x0d
    1ece:	8e 01       	movw	r16, r28
    1ed0:	09 5f       	subi	r16, 0xF9	; 249
    1ed2:	1f 4f       	sbci	r17, 0xFF	; 255
    1ed4:	c8 01       	movw	r24, r16
    1ed6:	0e 94 fc 0f 	call	0x1ff8	; 0x1ff8 <rtcTm2Int>
    1eda:	61 15       	cp	r22, r1
    1edc:	71 05       	cpc	r23, r1
    1ede:	81 05       	cpc	r24, r1
    1ee0:	91 05       	cpc	r25, r1
    1ee2:	11 f4       	brne	.+4      	; 0x1ee8 <handleTL+0x1a8>
    1ee4:	99 24       	eor	r9, r9
    1ee6:	05 c0       	rjmp	.+10     	; 0x1ef2 <handleTL+0x1b2>
    1ee8:	c8 01       	movw	r24, r16
    1eea:	0e 94 a8 10 	call	0x2150	; 0x2150 <rtcDec1sFromTm>
    1eee:	99 24       	eor	r9, r9
    1ef0:	93 94       	inc	r9
    1ef2:	8a e5       	ldi	r24, 0x5A	; 90
    1ef4:	92 e0       	ldi	r25, 0x02	; 2
    1ef6:	0e 94 d5 02 	call	0x5aa	; 0x5aa <dlgInfo_P>
    1efa:	ee 24       	eor	r14, r14
    1efc:	ff 24       	eor	r15, r15
    1efe:	87 01       	movw	r16, r14
    1f00:	87 e0       	ldi	r24, 0x07	; 7
    1f02:	28 2e       	mov	r2, r24
    1f04:	31 2c       	mov	r3, r1
    1f06:	2c 0e       	add	r2, r28
    1f08:	3d 1e       	adc	r3, r29
    1f0a:	b4 e0       	ldi	r27, 0x04	; 4
    1f0c:	4b 2e       	mov	r4, r27
    1f0e:	51 2c       	mov	r5, r1
    1f10:	4c 0e       	add	r4, r28
    1f12:	5d 1e       	adc	r5, r29
    1f14:	99 20       	and	r9, r9
    1f16:	31 f0       	breq	.+12     	; 0x1f24 <handleTL+0x1e4>
    1f18:	c1 01       	movw	r24, r2
    1f1a:	0e 94 db 0d 	call	0x1bb6	; 0x1bb6 <doBulb>
    1f1e:	88 23       	and	r24, r24
    1f20:	31 f4       	brne	.+12     	; 0x1f2e <handleTL+0x1ee>
    1f22:	35 c0       	rjmp	.+106    	; 0x1f8e <handleTL+0x24e>
    1f24:	28 9a       	sbi	0x05, 0	; 5
    1f26:	c3 01       	movw	r24, r6
    1f28:	0e 94 9e 10 	call	0x213c	; 0x213c <rtcWaitMs>
    1f2c:	28 98       	cbi	0x05, 0	; 5
    1f2e:	08 94       	sec
    1f30:	e1 1c       	adc	r14, r1
    1f32:	f1 1c       	adc	r15, r1
    1f34:	01 1d       	adc	r16, r1
    1f36:	11 1d       	adc	r17, r1
    1f38:	2a 85       	ldd	r18, Y+10	; 0x0a
    1f3a:	3b 85       	ldd	r19, Y+11	; 0x0b
    1f3c:	4c 85       	ldd	r20, Y+12	; 0x0c
    1f3e:	5d 85       	ldd	r21, Y+13	; 0x0d
    1f40:	e2 16       	cp	r14, r18
    1f42:	f3 06       	cpc	r15, r19
    1f44:	04 07       	cpc	r16, r20
    1f46:	15 07       	cpc	r17, r21
    1f48:	dc f0       	brlt	.+54     	; 0x1f80 <handleTL+0x240>
    1f4a:	a1 14       	cp	r10, r1
    1f4c:	b1 04       	cpc	r11, r1
    1f4e:	c1 04       	cpc	r12, r1
    1f50:	d1 04       	cpc	r13, r1
    1f52:	b1 f0       	breq	.+44     	; 0x1f80 <handleTL+0x240>
    1f54:	c7 01       	movw	r24, r14
    1f56:	b9 01       	movw	r22, r18
    1f58:	ae 01       	movw	r20, r28
    1f5a:	4c 5f       	subi	r20, 0xFC	; 252
    1f5c:	5f 4f       	sbci	r21, 0xFF	; 255
    1f5e:	0e 94 e1 01 	call	0x3c2	; 0x3c2 <dlgPrintCountAndTime>
    1f62:	00 d0       	rcall	.+0      	; 0x1f64 <handleTL+0x224>
    1f64:	88 e4       	ldi	r24, 0x48	; 72
    1f66:	92 e0       	ldi	r25, 0x02	; 2
    1f68:	ed b7       	in	r30, 0x3d	; 61
    1f6a:	fe b7       	in	r31, 0x3e	; 62
    1f6c:	92 83       	std	Z+2, r25	; 0x02
    1f6e:	81 83       	std	Z+1, r24	; 0x01
    1f70:	0e 94 c8 13 	call	0x2790	; 0x2790 <printf_P>
    1f74:	0f 90       	pop	r0
    1f76:	0f 90       	pop	r0
    1f78:	81 e0       	ldi	r24, 0x01	; 1
    1f7a:	0e 94 41 06 	call	0xc82	; 0xc82 <encGetKey>
    1f7e:	07 c0       	rjmp	.+14     	; 0x1f8e <handleTL+0x24e>
    1f80:	c2 01       	movw	r24, r4
    1f82:	b7 01       	movw	r22, r14
    1f84:	a9 01       	movw	r20, r18
    1f86:	0e 94 8a 0d 	call	0x1b14	; 0x1b14 <waitForNextPhoto>
    1f8a:	88 23       	and	r24, r24
    1f8c:	19 f6       	brne	.-122    	; 0x1f14 <handleTL+0x1d4>
    1f8e:	2d 96       	adiw	r28, 0x0d	; 13
    1f90:	0f b6       	in	r0, 0x3f	; 63
    1f92:	f8 94       	cli
    1f94:	de bf       	out	0x3e, r29	; 62
    1f96:	0f be       	out	0x3f, r0	; 63
    1f98:	cd bf       	out	0x3d, r28	; 61
    1f9a:	cf 91       	pop	r28
    1f9c:	df 91       	pop	r29
    1f9e:	1f 91       	pop	r17
    1fa0:	0f 91       	pop	r16
    1fa2:	ff 90       	pop	r15
    1fa4:	ef 90       	pop	r14
    1fa6:	df 90       	pop	r13
    1fa8:	cf 90       	pop	r12
    1faa:	bf 90       	pop	r11
    1fac:	af 90       	pop	r10
    1fae:	9f 90       	pop	r9
    1fb0:	7f 90       	pop	r7
    1fb2:	6f 90       	pop	r6
    1fb4:	5f 90       	pop	r5
    1fb6:	4f 90       	pop	r4
    1fb8:	3f 90       	pop	r3
    1fba:	2f 90       	pop	r2
    1fbc:	08 95       	ret

00001fbe <handlePowerOff>:
    1fbe:	0e 94 c8 08 	call	0x1190	; 0x1190 <hwEnterPwrSave>
    1fc2:	08 95       	ret

00001fc4 <rtcGetSysTime>:
    1fc4:	4f b7       	in	r20, 0x3f	; 63
    1fc6:	f8 94       	cli
    1fc8:	dc 01       	movw	r26, r24
    1fca:	e0 ef       	ldi	r30, 0xF0	; 240
    1fcc:	f2 e0       	ldi	r31, 0x02	; 2
    1fce:	83 e0       	ldi	r24, 0x03	; 3
    1fd0:	01 90       	ld	r0, Z+
    1fd2:	0d 92       	st	X+, r0
    1fd4:	81 50       	subi	r24, 0x01	; 1
    1fd6:	e1 f7       	brne	.-8      	; 0x1fd0 <rtcGetSysTime+0xc>
    1fd8:	4f bf       	out	0x3f, r20	; 63
    1fda:	08 95       	ret

00001fdc <rtcSetSysTime>:
    1fdc:	4f b7       	in	r20, 0x3f	; 63
    1fde:	f8 94       	cli
    1fe0:	a0 ef       	ldi	r26, 0xF0	; 240
    1fe2:	b2 e0       	ldi	r27, 0x02	; 2
    1fe4:	fc 01       	movw	r30, r24
    1fe6:	83 e0       	ldi	r24, 0x03	; 3
    1fe8:	01 90       	ld	r0, Z+
    1fea:	0d 92       	st	X+, r0
    1fec:	81 50       	subi	r24, 0x01	; 1
    1fee:	e1 f7       	brne	.-8      	; 0x1fe8 <rtcSetSysTime+0xc>
    1ff0:	4f bf       	out	0x3f, r20	; 63
    1ff2:	10 92 b2 00 	sts	0x00B2, r1
    1ff6:	08 95       	ret

00001ff8 <rtcTm2Int>:
    1ff8:	cf 92       	push	r12
    1ffa:	df 92       	push	r13
    1ffc:	ef 92       	push	r14
    1ffe:	ff 92       	push	r15
    2000:	0f 93       	push	r16
    2002:	1f 93       	push	r17
    2004:	6c 01       	movw	r12, r24
    2006:	fc 01       	movw	r30, r24
    2008:	62 81       	ldd	r22, Z+2	; 0x02
    200a:	70 e0       	ldi	r23, 0x00	; 0
    200c:	80 e0       	ldi	r24, 0x00	; 0
    200e:	90 e0       	ldi	r25, 0x00	; 0
    2010:	20 e1       	ldi	r18, 0x10	; 16
    2012:	3e e0       	ldi	r19, 0x0E	; 14
    2014:	40 e0       	ldi	r20, 0x00	; 0
    2016:	50 e0       	ldi	r21, 0x00	; 0
    2018:	0e 94 3f 16 	call	0x2c7e	; 0x2c7e <__mulsi3>
    201c:	7b 01       	movw	r14, r22
    201e:	8c 01       	movw	r16, r24
    2020:	f6 01       	movw	r30, r12
    2022:	61 81       	ldd	r22, Z+1	; 0x01
    2024:	70 e0       	ldi	r23, 0x00	; 0
    2026:	80 e0       	ldi	r24, 0x00	; 0
    2028:	90 e0       	ldi	r25, 0x00	; 0
    202a:	2c e3       	ldi	r18, 0x3C	; 60
    202c:	30 e0       	ldi	r19, 0x00	; 0
    202e:	40 e0       	ldi	r20, 0x00	; 0
    2030:	50 e0       	ldi	r21, 0x00	; 0
    2032:	0e 94 3f 16 	call	0x2c7e	; 0x2c7e <__mulsi3>
    2036:	e6 0e       	add	r14, r22
    2038:	f7 1e       	adc	r15, r23
    203a:	08 1f       	adc	r16, r24
    203c:	19 1f       	adc	r17, r25
    203e:	f6 01       	movw	r30, r12
    2040:	80 81       	ld	r24, Z
    2042:	e8 0e       	add	r14, r24
    2044:	f1 1c       	adc	r15, r1
    2046:	01 1d       	adc	r16, r1
    2048:	11 1d       	adc	r17, r1
    204a:	b7 01       	movw	r22, r14
    204c:	c8 01       	movw	r24, r16
    204e:	1f 91       	pop	r17
    2050:	0f 91       	pop	r16
    2052:	ff 90       	pop	r15
    2054:	ef 90       	pop	r14
    2056:	df 90       	pop	r13
    2058:	cf 90       	pop	r12
    205a:	08 95       	ret

0000205c <rtcInt2Tm>:
    205c:	cf 92       	push	r12
    205e:	df 92       	push	r13
    2060:	ef 92       	push	r14
    2062:	ff 92       	push	r15
    2064:	0f 93       	push	r16
    2066:	1f 93       	push	r17
    2068:	7b 01       	movw	r14, r22
    206a:	8c 01       	movw	r16, r24
    206c:	6a 01       	movw	r12, r20
    206e:	20 e1       	ldi	r18, 0x10	; 16
    2070:	3e e0       	ldi	r19, 0x0E	; 14
    2072:	40 e0       	ldi	r20, 0x00	; 0
    2074:	50 e0       	ldi	r21, 0x00	; 0
    2076:	0e 94 72 16 	call	0x2ce4	; 0x2ce4 <__udivmodsi4>
    207a:	f6 01       	movw	r30, r12
    207c:	22 83       	std	Z+2, r18	; 0x02
    207e:	30 e0       	ldi	r19, 0x00	; 0
    2080:	40 e0       	ldi	r20, 0x00	; 0
    2082:	50 e0       	ldi	r21, 0x00	; 0
    2084:	ca 01       	movw	r24, r20
    2086:	b9 01       	movw	r22, r18
    2088:	20 e1       	ldi	r18, 0x10	; 16
    208a:	3e e0       	ldi	r19, 0x0E	; 14
    208c:	40 e0       	ldi	r20, 0x00	; 0
    208e:	50 e0       	ldi	r21, 0x00	; 0
    2090:	0e 94 3f 16 	call	0x2c7e	; 0x2c7e <__mulsi3>
    2094:	a8 01       	movw	r20, r16
    2096:	97 01       	movw	r18, r14
    2098:	26 1b       	sub	r18, r22
    209a:	37 0b       	sbc	r19, r23
    209c:	48 0b       	sbc	r20, r24
    209e:	59 0b       	sbc	r21, r25
    20a0:	ca 01       	movw	r24, r20
    20a2:	b9 01       	movw	r22, r18
    20a4:	2c e3       	ldi	r18, 0x3C	; 60
    20a6:	30 e0       	ldi	r19, 0x00	; 0
    20a8:	40 e0       	ldi	r20, 0x00	; 0
    20aa:	50 e0       	ldi	r21, 0x00	; 0
    20ac:	0e 94 72 16 	call	0x2ce4	; 0x2ce4 <__udivmodsi4>
    20b0:	f6 01       	movw	r30, r12
    20b2:	21 83       	std	Z+1, r18	; 0x01
    20b4:	c8 01       	movw	r24, r16
    20b6:	b7 01       	movw	r22, r14
    20b8:	2c e3       	ldi	r18, 0x3C	; 60
    20ba:	30 e0       	ldi	r19, 0x00	; 0
    20bc:	40 e0       	ldi	r20, 0x00	; 0
    20be:	50 e0       	ldi	r21, 0x00	; 0
    20c0:	0e 94 72 16 	call	0x2ce4	; 0x2ce4 <__udivmodsi4>
    20c4:	f6 01       	movw	r30, r12
    20c6:	60 83       	st	Z, r22
    20c8:	1f 91       	pop	r17
    20ca:	0f 91       	pop	r16
    20cc:	ff 90       	pop	r15
    20ce:	ef 90       	pop	r14
    20d0:	df 90       	pop	r13
    20d2:	cf 90       	pop	r12
    20d4:	08 95       	ret

000020d6 <rtcGetStatTimer>:
    20d6:	9f b7       	in	r25, 0x3f	; 63
    20d8:	f8 94       	cli
    20da:	82 30       	cpi	r24, 0x02	; 2
    20dc:	28 f0       	brcs	.+10     	; 0x20e8 <rtcGetStatTimer+0x12>
    20de:	20 e0       	ldi	r18, 0x00	; 0
    20e0:	30 e0       	ldi	r19, 0x00	; 0
    20e2:	40 e0       	ldi	r20, 0x00	; 0
    20e4:	50 e0       	ldi	r21, 0x00	; 0
    20e6:	0c c0       	rjmp	.+24     	; 0x2100 <rtcGetStatTimer+0x2a>
    20e8:	e8 2f       	mov	r30, r24
    20ea:	f0 e0       	ldi	r31, 0x00	; 0
    20ec:	ee 0f       	add	r30, r30
    20ee:	ff 1f       	adc	r31, r31
    20f0:	ee 0f       	add	r30, r30
    20f2:	ff 1f       	adc	r31, r31
    20f4:	ee 5f       	subi	r30, 0xFE	; 254
    20f6:	fc 4f       	sbci	r31, 0xFC	; 252
    20f8:	20 81       	ld	r18, Z
    20fa:	31 81       	ldd	r19, Z+1	; 0x01
    20fc:	42 81       	ldd	r20, Z+2	; 0x02
    20fe:	53 81       	ldd	r21, Z+3	; 0x03
    2100:	9f bf       	out	0x3f, r25	; 63
    2102:	b9 01       	movw	r22, r18
    2104:	ca 01       	movw	r24, r20
    2106:	08 95       	ret

00002108 <rtcSetStatTimer>:
    2108:	9f b7       	in	r25, 0x3f	; 63
    210a:	f8 94       	cli
    210c:	82 30       	cpi	r24, 0x02	; 2
    210e:	60 f4       	brcc	.+24     	; 0x2128 <rtcSetStatTimer+0x20>
    2110:	e8 2f       	mov	r30, r24
    2112:	f0 e0       	ldi	r31, 0x00	; 0
    2114:	ee 0f       	add	r30, r30
    2116:	ff 1f       	adc	r31, r31
    2118:	ee 0f       	add	r30, r30
    211a:	ff 1f       	adc	r31, r31
    211c:	ee 5f       	subi	r30, 0xFE	; 254
    211e:	fc 4f       	sbci	r31, 0xFC	; 252
    2120:	40 83       	st	Z, r20
    2122:	51 83       	std	Z+1, r21	; 0x01
    2124:	62 83       	std	Z+2, r22	; 0x02
    2126:	73 83       	std	Z+3, r23	; 0x03
    2128:	9f bf       	out	0x3f, r25	; 63
    212a:	08 95       	ret

0000212c <rtcSyncToSec>:
    212c:	80 91 b2 00 	lds	r24, 0x00B2
    2130:	88 23       	and	r24, r24
    2132:	e1 f7       	brne	.-8      	; 0x212c <rtcSyncToSec>
    2134:	08 95       	ret

00002136 <rtcGetPwrOnFlag>:
    2136:	80 91 01 03 	lds	r24, 0x0301
    213a:	08 95       	ret

0000213c <rtcWaitMs>:
    213c:	2a ef       	ldi	r18, 0xFA	; 250
    213e:	30 e0       	ldi	r19, 0x00	; 0
    2140:	04 c0       	rjmp	.+8      	; 0x214a <rtcWaitMs+0xe>
    2142:	f9 01       	movw	r30, r18
    2144:	31 97       	sbiw	r30, 0x01	; 1
    2146:	f1 f7       	brne	.-4      	; 0x2144 <rtcWaitMs+0x8>
    2148:	01 97       	sbiw	r24, 0x01	; 1
    214a:	00 97       	sbiw	r24, 0x00	; 0
    214c:	d1 f7       	brne	.-12     	; 0x2142 <rtcWaitMs+0x6>
    214e:	08 95       	ret

00002150 <rtcDec1sFromTm>:
    2150:	cf 92       	push	r12
    2152:	df 92       	push	r13
    2154:	ef 92       	push	r14
    2156:	ff 92       	push	r15
    2158:	0f 93       	push	r16
    215a:	1f 93       	push	r17
    215c:	6c 01       	movw	r12, r24
    215e:	fc 01       	movw	r30, r24
    2160:	e0 80       	ld	r14, Z
    2162:	ff 24       	eor	r15, r15
    2164:	00 e0       	ldi	r16, 0x00	; 0
    2166:	10 e0       	ldi	r17, 0x00	; 0
    2168:	08 94       	sec
    216a:	e1 08       	sbc	r14, r1
    216c:	f1 08       	sbc	r15, r1
    216e:	01 09       	sbc	r16, r1
    2170:	11 09       	sbc	r17, r1
    2172:	62 81       	ldd	r22, Z+2	; 0x02
    2174:	70 e0       	ldi	r23, 0x00	; 0
    2176:	80 e0       	ldi	r24, 0x00	; 0
    2178:	90 e0       	ldi	r25, 0x00	; 0
    217a:	20 e1       	ldi	r18, 0x10	; 16
    217c:	3e e0       	ldi	r19, 0x0E	; 14
    217e:	40 e0       	ldi	r20, 0x00	; 0
    2180:	50 e0       	ldi	r21, 0x00	; 0
    2182:	0e 94 3f 16 	call	0x2c7e	; 0x2c7e <__mulsi3>
    2186:	e6 0e       	add	r14, r22
    2188:	f7 1e       	adc	r15, r23
    218a:	08 1f       	adc	r16, r24
    218c:	19 1f       	adc	r17, r25
    218e:	f6 01       	movw	r30, r12
    2190:	61 81       	ldd	r22, Z+1	; 0x01
    2192:	70 e0       	ldi	r23, 0x00	; 0
    2194:	80 e0       	ldi	r24, 0x00	; 0
    2196:	90 e0       	ldi	r25, 0x00	; 0
    2198:	2c e3       	ldi	r18, 0x3C	; 60
    219a:	30 e0       	ldi	r19, 0x00	; 0
    219c:	40 e0       	ldi	r20, 0x00	; 0
    219e:	50 e0       	ldi	r21, 0x00	; 0
    21a0:	0e 94 3f 16 	call	0x2c7e	; 0x2c7e <__mulsi3>
    21a4:	e6 0e       	add	r14, r22
    21a6:	f7 1e       	adc	r15, r23
    21a8:	08 1f       	adc	r16, r24
    21aa:	19 1f       	adc	r17, r25
    21ac:	c8 01       	movw	r24, r16
    21ae:	b7 01       	movw	r22, r14
    21b0:	a6 01       	movw	r20, r12
    21b2:	0e 94 2e 10 	call	0x205c	; 0x205c <rtcInt2Tm>
    21b6:	1f 91       	pop	r17
    21b8:	0f 91       	pop	r16
    21ba:	ff 90       	pop	r15
    21bc:	ef 90       	pop	r14
    21be:	df 90       	pop	r13
    21c0:	cf 90       	pop	r12
    21c2:	08 95       	ret

000021c4 <rtcUpdInactTimer>:
    21c4:	8a e0       	ldi	r24, 0x0A	; 10
    21c6:	80 93 ef 02 	sts	0x02EF, r24
    21ca:	80 91 fe 02 	lds	r24, 0x02FE
    21ce:	88 23       	and	r24, r24
    21d0:	31 f0       	breq	.+12     	; 0x21de <rtcUpdInactTimer+0x1a>
    21d2:	80 91 ff 02 	lds	r24, 0x02FF
    21d6:	90 91 00 03 	lds	r25, 0x0300
    21da:	0e 94 55 09 	call	0x12aa	; 0x12aa <lcd_setbacklight>
    21de:	10 92 fe 02 	sts	0x02FE, r1
    21e2:	08 95       	ret

000021e4 <__vector_9>:
    21e4:	1f 92       	push	r1
    21e6:	0f 92       	push	r0
    21e8:	0f b6       	in	r0, 0x3f	; 63
    21ea:	0f 92       	push	r0
    21ec:	11 24       	eor	r1, r1
    21ee:	2f 93       	push	r18
    21f0:	3f 93       	push	r19
    21f2:	4f 93       	push	r20
    21f4:	5f 93       	push	r21
    21f6:	6f 93       	push	r22
    21f8:	7f 93       	push	r23
    21fa:	8f 93       	push	r24
    21fc:	9f 93       	push	r25
    21fe:	af 93       	push	r26
    2200:	bf 93       	push	r27
    2202:	ef 93       	push	r30
    2204:	ff 93       	push	r31
    2206:	80 91 f0 02 	lds	r24, 0x02F0
    220a:	8f 5f       	subi	r24, 0xFF	; 255
    220c:	80 93 f0 02 	sts	0x02F0, r24
    2210:	80 91 f0 02 	lds	r24, 0x02F0
    2214:	8c 33       	cpi	r24, 0x3C	; 60
    2216:	c1 f4       	brne	.+48     	; 0x2248 <__vector_9+0x64>
    2218:	10 92 f0 02 	sts	0x02F0, r1
    221c:	80 91 f1 02 	lds	r24, 0x02F1
    2220:	8f 5f       	subi	r24, 0xFF	; 255
    2222:	80 93 f1 02 	sts	0x02F1, r24
    2226:	80 91 f1 02 	lds	r24, 0x02F1
    222a:	8c 33       	cpi	r24, 0x3C	; 60
    222c:	69 f4       	brne	.+26     	; 0x2248 <__vector_9+0x64>
    222e:	10 92 f1 02 	sts	0x02F1, r1
    2232:	80 91 f2 02 	lds	r24, 0x02F2
    2236:	8f 5f       	subi	r24, 0xFF	; 255
    2238:	80 93 f2 02 	sts	0x02F2, r24
    223c:	80 91 f2 02 	lds	r24, 0x02F2
    2240:	88 31       	cpi	r24, 0x18	; 24
    2242:	11 f4       	brne	.+4      	; 0x2248 <__vector_9+0x64>
    2244:	10 92 f2 02 	sts	0x02F2, r1
    2248:	80 91 02 03 	lds	r24, 0x0302
    224c:	90 91 03 03 	lds	r25, 0x0303
    2250:	a0 91 04 03 	lds	r26, 0x0304
    2254:	b0 91 05 03 	lds	r27, 0x0305
    2258:	00 97       	sbiw	r24, 0x00	; 0
    225a:	a1 05       	cpc	r26, r1
    225c:	b1 05       	cpc	r27, r1
    225e:	99 f0       	breq	.+38     	; 0x2286 <__vector_9+0xa2>
    2260:	80 91 02 03 	lds	r24, 0x0302
    2264:	90 91 03 03 	lds	r25, 0x0303
    2268:	a0 91 04 03 	lds	r26, 0x0304
    226c:	b0 91 05 03 	lds	r27, 0x0305
    2270:	01 97       	sbiw	r24, 0x01	; 1
    2272:	a1 09       	sbc	r26, r1
    2274:	b1 09       	sbc	r27, r1
    2276:	80 93 02 03 	sts	0x0302, r24
    227a:	90 93 03 03 	sts	0x0303, r25
    227e:	a0 93 04 03 	sts	0x0304, r26
    2282:	b0 93 05 03 	sts	0x0305, r27
    2286:	80 91 06 03 	lds	r24, 0x0306
    228a:	90 91 07 03 	lds	r25, 0x0307
    228e:	a0 91 08 03 	lds	r26, 0x0308
    2292:	b0 91 09 03 	lds	r27, 0x0309
    2296:	00 97       	sbiw	r24, 0x00	; 0
    2298:	a1 05       	cpc	r26, r1
    229a:	b1 05       	cpc	r27, r1
    229c:	99 f0       	breq	.+38     	; 0x22c4 <__vector_9+0xe0>
    229e:	80 91 06 03 	lds	r24, 0x0306
    22a2:	90 91 07 03 	lds	r25, 0x0307
    22a6:	a0 91 08 03 	lds	r26, 0x0308
    22aa:	b0 91 09 03 	lds	r27, 0x0309
    22ae:	01 97       	sbiw	r24, 0x01	; 1
    22b0:	a1 09       	sbc	r26, r1
    22b2:	b1 09       	sbc	r27, r1
    22b4:	80 93 06 03 	sts	0x0306, r24
    22b8:	90 93 07 03 	sts	0x0307, r25
    22bc:	a0 93 08 03 	sts	0x0308, r26
    22c0:	b0 93 09 03 	sts	0x0309, r27
    22c4:	0e 94 3d 08 	call	0x107a	; 0x107a <hwIsPwrOn>
    22c8:	88 23       	and	r24, r24
    22ca:	a1 f4       	brne	.+40     	; 0x22f4 <__vector_9+0x110>
    22cc:	31 9b       	sbis	0x06, 1	; 6
    22ce:	06 c0       	rjmp	.+12     	; 0x22dc <__vector_9+0xf8>
    22d0:	82 e0       	ldi	r24, 0x02	; 2
    22d2:	80 93 f3 02 	sts	0x02F3, r24
    22d6:	10 92 01 03 	sts	0x0301, r1
    22da:	0c c0       	rjmp	.+24     	; 0x22f4 <__vector_9+0x110>
    22dc:	80 91 f3 02 	lds	r24, 0x02F3
    22e0:	81 50       	subi	r24, 0x01	; 1
    22e2:	80 93 f3 02 	sts	0x02F3, r24
    22e6:	80 91 f3 02 	lds	r24, 0x02F3
    22ea:	88 23       	and	r24, r24
    22ec:	19 f4       	brne	.+6      	; 0x22f4 <__vector_9+0x110>
    22ee:	81 e0       	ldi	r24, 0x01	; 1
    22f0:	80 93 01 03 	sts	0x0301, r24
    22f4:	0e 94 3d 08 	call	0x107a	; 0x107a <hwIsPwrOn>
    22f8:	88 23       	and	r24, r24
    22fa:	f9 f0       	breq	.+62     	; 0x233a <__vector_9+0x156>
    22fc:	80 91 ef 02 	lds	r24, 0x02EF
    2300:	81 50       	subi	r24, 0x01	; 1
    2302:	80 93 ef 02 	sts	0x02EF, r24
    2306:	80 91 ef 02 	lds	r24, 0x02EF
    230a:	88 23       	and	r24, r24
    230c:	b1 f4       	brne	.+44     	; 0x233a <__vector_9+0x156>
    230e:	80 91 fe 02 	lds	r24, 0x02FE
    2312:	88 23       	and	r24, r24
    2314:	91 f4       	brne	.+36     	; 0x233a <__vector_9+0x156>
    2316:	8f b7       	in	r24, 0x3f	; 63
    2318:	f8 94       	cli
    231a:	20 91 88 00 	lds	r18, 0x0088
    231e:	30 91 89 00 	lds	r19, 0x0089
    2322:	30 93 00 03 	sts	0x0300, r19
    2326:	20 93 ff 02 	sts	0x02FF, r18
    232a:	8f bf       	out	0x3f, r24	; 63
    232c:	80 e0       	ldi	r24, 0x00	; 0
    232e:	90 e0       	ldi	r25, 0x00	; 0
    2330:	0e 94 55 09 	call	0x12aa	; 0x12aa <lcd_setbacklight>
    2334:	81 e0       	ldi	r24, 0x01	; 1
    2336:	80 93 fe 02 	sts	0x02FE, r24
    233a:	ff 91       	pop	r31
    233c:	ef 91       	pop	r30
    233e:	bf 91       	pop	r27
    2340:	af 91       	pop	r26
    2342:	9f 91       	pop	r25
    2344:	8f 91       	pop	r24
    2346:	7f 91       	pop	r23
    2348:	6f 91       	pop	r22
    234a:	5f 91       	pop	r21
    234c:	4f 91       	pop	r20
    234e:	3f 91       	pop	r19
    2350:	2f 91       	pop	r18
    2352:	0f 90       	pop	r0
    2354:	0f be       	out	0x3f, r0	; 63
    2356:	0f 90       	pop	r0
    2358:	1f 90       	pop	r1
    235a:	18 95       	reti

0000235c <menu_display>:
    235c:	6f 92       	push	r6
    235e:	7f 92       	push	r7
    2360:	8f 92       	push	r8
    2362:	9f 92       	push	r9
    2364:	af 92       	push	r10
    2366:	bf 92       	push	r11
    2368:	cf 92       	push	r12
    236a:	df 92       	push	r13
    236c:	ef 92       	push	r14
    236e:	ff 92       	push	r15
    2370:	0f 93       	push	r16
    2372:	1f 93       	push	r17
    2374:	cf 93       	push	r28
    2376:	df 93       	push	r29
    2378:	7c 01       	movw	r14, r24
    237a:	fc 01       	movw	r30, r24
    237c:	c4 80       	ldd	r12, Z+4	; 0x04
    237e:	d5 80       	ldd	r13, Z+5	; 0x05
    2380:	00 e0       	ldi	r16, 0x00	; 0
    2382:	aa 24       	eor	r10, r10
    2384:	85 e1       	ldi	r24, 0x15	; 21
    2386:	68 2e       	mov	r6, r24
    2388:	71 2c       	mov	r7, r1
    238a:	52 c0       	rjmp	.+164    	; 0x2430 <menu_display+0xd4>
    238c:	ea 2d       	mov	r30, r10
    238e:	f0 e0       	ldi	r31, 0x00	; 0
    2390:	e2 17       	cp	r30, r18
    2392:	f3 07       	cpc	r31, r19
    2394:	0c f0       	brlt	.+2      	; 0x2398 <menu_display+0x3c>
    2396:	6d c0       	rjmp	.+218    	; 0x2472 <menu_display+0x116>
    2398:	4f 01       	movw	r8, r30
    239a:	84 0e       	add	r8, r20
    239c:	95 1e       	adc	r9, r21
    239e:	a3 94       	inc	r10
    23a0:	86 9c       	mul	r8, r6
    23a2:	f0 01       	movw	r30, r0
    23a4:	87 9c       	mul	r8, r7
    23a6:	f0 0d       	add	r31, r0
    23a8:	96 9c       	mul	r9, r6
    23aa:	f0 0d       	add	r31, r0
    23ac:	11 24       	eor	r1, r1
    23ae:	ec 0d       	add	r30, r12
    23b0:	fd 1d       	adc	r31, r13
    23b2:	85 81       	ldd	r24, Z+5	; 0x05
    23b4:	81 fd       	sbrc	r24, 1
    23b6:	ea cf       	rjmp	.-44     	; 0x238c <menu_display+0x30>
    23b8:	f7 01       	movw	r30, r14
    23ba:	61 81       	ldd	r22, Z+1	; 0x01
    23bc:	60 0f       	add	r22, r16
    23be:	80 81       	ld	r24, Z
    23c0:	0e 94 96 09 	call	0x132c	; 0x132c <lcd_setxy>
    23c4:	f7 01       	movw	r30, r14
    23c6:	b3 80       	ldd	r11, Z+3	; 0x03
    23c8:	ba 94       	dec	r11
    23ca:	f6 01       	movw	r30, r12
    23cc:	21 81       	ldd	r18, Z+1	; 0x01
    23ce:	30 e0       	ldi	r19, 0x00	; 0
    23d0:	2f 5f       	subi	r18, 0xFF	; 255
    23d2:	3f 4f       	sbci	r19, 0xFF	; 255
    23d4:	80 81       	ld	r24, Z
    23d6:	90 e0       	ldi	r25, 0x00	; 0
    23d8:	8a 0d       	add	r24, r10
    23da:	91 1d       	adc	r25, r1
    23dc:	28 17       	cp	r18, r24
    23de:	39 07       	cpc	r19, r25
    23e0:	11 f4       	brne	.+4      	; 0x23e6 <menu_display+0x8a>
    23e2:	81 e0       	ldi	r24, 0x01	; 1
    23e4:	01 c0       	rjmp	.+2      	; 0x23e8 <menu_display+0x8c>
    23e6:	80 e2       	ldi	r24, 0x20	; 32
    23e8:	60 e0       	ldi	r22, 0x00	; 0
    23ea:	70 e0       	ldi	r23, 0x00	; 0
    23ec:	0e 94 b0 09 	call	0x1360	; 0x1360 <lcd_putchar>
    23f0:	86 9c       	mul	r8, r6
    23f2:	e0 01       	movw	r28, r0
    23f4:	87 9c       	mul	r8, r7
    23f6:	d0 0d       	add	r29, r0
    23f8:	96 9c       	mul	r9, r6
    23fa:	d0 0d       	add	r29, r0
    23fc:	11 24       	eor	r1, r1
    23fe:	28 96       	adiw	r28, 0x08	; 8
    2400:	cc 0d       	add	r28, r12
    2402:	dd 1d       	adc	r29, r13
    2404:	10 e0       	ldi	r17, 0x00	; 0
    2406:	08 c0       	rjmp	.+16     	; 0x2418 <menu_display+0xbc>
    2408:	89 91       	ld	r24, Y+
    240a:	88 23       	and	r24, r24
    240c:	41 f0       	breq	.+16     	; 0x241e <menu_display+0xc2>
    240e:	60 e0       	ldi	r22, 0x00	; 0
    2410:	70 e0       	ldi	r23, 0x00	; 0
    2412:	0e 94 b0 09 	call	0x1360	; 0x1360 <lcd_putchar>
    2416:	1f 5f       	subi	r17, 0xFF	; 255
    2418:	1b 15       	cp	r17, r11
    241a:	b0 f3       	brcs	.-20     	; 0x2408 <menu_display+0xac>
    241c:	08 c0       	rjmp	.+16     	; 0x242e <menu_display+0xd2>
    241e:	80 e2       	ldi	r24, 0x20	; 32
    2420:	60 e0       	ldi	r22, 0x00	; 0
    2422:	70 e0       	ldi	r23, 0x00	; 0
    2424:	0e 94 b0 09 	call	0x1360	; 0x1360 <lcd_putchar>
    2428:	1f 5f       	subi	r17, 0xFF	; 255
    242a:	1b 15       	cp	r17, r11
    242c:	c0 f3       	brcs	.-16     	; 0x241e <menu_display+0xc2>
    242e:	0f 5f       	subi	r16, 0xFF	; 255
    2430:	f7 01       	movw	r30, r14
    2432:	82 81       	ldd	r24, Z+2	; 0x02
    2434:	08 17       	cp	r16, r24
    2436:	e8 f4       	brcc	.+58     	; 0x2472 <menu_display+0x116>
    2438:	f6 01       	movw	r30, r12
    243a:	80 81       	ld	r24, Z
    243c:	48 2f       	mov	r20, r24
    243e:	50 e0       	ldi	r21, 0x00	; 0
    2440:	82 81       	ldd	r24, Z+2	; 0x02
    2442:	28 2f       	mov	r18, r24
    2444:	30 e0       	ldi	r19, 0x00	; 0
    2446:	24 1b       	sub	r18, r20
    2448:	35 0b       	sbc	r19, r21
    244a:	a0 cf       	rjmp	.-192    	; 0x238c <menu_display+0x30>
    244c:	f7 01       	movw	r30, r14
    244e:	61 81       	ldd	r22, Z+1	; 0x01
    2450:	60 0f       	add	r22, r16
    2452:	80 81       	ld	r24, Z
    2454:	0e 94 96 09 	call	0x132c	; 0x132c <lcd_setxy>
    2458:	10 e0       	ldi	r17, 0x00	; 0
    245a:	06 c0       	rjmp	.+12     	; 0x2468 <menu_display+0x10c>
    245c:	80 e2       	ldi	r24, 0x20	; 32
    245e:	60 e0       	ldi	r22, 0x00	; 0
    2460:	70 e0       	ldi	r23, 0x00	; 0
    2462:	0e 94 b0 09 	call	0x1360	; 0x1360 <lcd_putchar>
    2466:	1f 5f       	subi	r17, 0xFF	; 255
    2468:	f7 01       	movw	r30, r14
    246a:	83 81       	ldd	r24, Z+3	; 0x03
    246c:	18 17       	cp	r17, r24
    246e:	b0 f3       	brcs	.-20     	; 0x245c <menu_display+0x100>
    2470:	0f 5f       	subi	r16, 0xFF	; 255
    2472:	f7 01       	movw	r30, r14
    2474:	82 81       	ldd	r24, Z+2	; 0x02
    2476:	08 17       	cp	r16, r24
    2478:	48 f3       	brcs	.-46     	; 0x244c <menu_display+0xf0>
    247a:	df 91       	pop	r29
    247c:	cf 91       	pop	r28
    247e:	1f 91       	pop	r17
    2480:	0f 91       	pop	r16
    2482:	ff 90       	pop	r15
    2484:	ef 90       	pop	r14
    2486:	df 90       	pop	r13
    2488:	cf 90       	pop	r12
    248a:	bf 90       	pop	r11
    248c:	af 90       	pop	r10
    248e:	9f 90       	pop	r9
    2490:	8f 90       	pop	r8
    2492:	7f 90       	pop	r7
    2494:	6f 90       	pop	r6
    2496:	08 95       	ret

00002498 <menu_enter>:
    2498:	fc 01       	movw	r30, r24
    249a:	db 01       	movw	r26, r22
    249c:	84 81       	ldd	r24, Z+4	; 0x04
    249e:	95 81       	ldd	r25, Z+5	; 0x05
    24a0:	14 96       	adiw	r26, 0x04	; 4
    24a2:	9c 93       	st	X, r25
    24a4:	8e 93       	st	-X, r24
    24a6:	13 97       	sbiw	r26, 0x03	; 3
    24a8:	75 83       	std	Z+5, r23	; 0x05
    24aa:	64 83       	std	Z+4, r22	; 0x04
    24ac:	cf 01       	movw	r24, r30
    24ae:	0e 94 ae 11 	call	0x235c	; 0x235c <menu_display>
    24b2:	08 95       	ret

000024b4 <menu_exit>:
    24b4:	dc 01       	movw	r26, r24
    24b6:	14 96       	adiw	r26, 0x04	; 4
    24b8:	ed 91       	ld	r30, X+
    24ba:	fc 91       	ld	r31, X
    24bc:	15 97       	sbiw	r26, 0x05	; 5
    24be:	83 81       	ldd	r24, Z+3	; 0x03
    24c0:	94 81       	ldd	r25, Z+4	; 0x04
    24c2:	00 97       	sbiw	r24, 0x00	; 0
    24c4:	39 f0       	breq	.+14     	; 0x24d4 <menu_exit+0x20>
    24c6:	15 96       	adiw	r26, 0x05	; 5
    24c8:	9c 93       	st	X, r25
    24ca:	8e 93       	st	-X, r24
    24cc:	14 97       	sbiw	r26, 0x04	; 4
    24ce:	cd 01       	movw	r24, r26
    24d0:	0e 94 ae 11 	call	0x235c	; 0x235c <menu_display>
    24d4:	08 95       	ret

000024d6 <menu_prev_entry>:
    24d6:	cf 93       	push	r28
    24d8:	df 93       	push	r29
    24da:	ec 01       	movw	r28, r24
    24dc:	ac 81       	ldd	r26, Y+4	; 0x04
    24de:	bd 81       	ldd	r27, Y+5	; 0x05
    24e0:	11 96       	adiw	r26, 0x01	; 1
    24e2:	2c 91       	ld	r18, X
    24e4:	11 97       	sbiw	r26, 0x01	; 1
    24e6:	45 e1       	ldi	r20, 0x15	; 21
    24e8:	50 e0       	ldi	r21, 0x00	; 0
    24ea:	22 23       	and	r18, r18
    24ec:	c9 f0       	breq	.+50     	; 0x2520 <menu_prev_entry+0x4a>
    24ee:	21 50       	subi	r18, 0x01	; 1
    24f0:	82 2f       	mov	r24, r18
    24f2:	90 e0       	ldi	r25, 0x00	; 0
    24f4:	84 9f       	mul	r24, r20
    24f6:	f0 01       	movw	r30, r0
    24f8:	85 9f       	mul	r24, r21
    24fa:	f0 0d       	add	r31, r0
    24fc:	94 9f       	mul	r25, r20
    24fe:	f0 0d       	add	r31, r0
    2500:	11 24       	eor	r1, r1
    2502:	ea 0f       	add	r30, r26
    2504:	fb 1f       	adc	r31, r27
    2506:	85 81       	ldd	r24, Z+5	; 0x05
    2508:	81 fd       	sbrc	r24, 1
    250a:	ef cf       	rjmp	.-34     	; 0x24ea <menu_prev_entry+0x14>
    250c:	11 96       	adiw	r26, 0x01	; 1
    250e:	2c 93       	st	X, r18
    2510:	11 97       	sbiw	r26, 0x01	; 1
    2512:	8c 91       	ld	r24, X
    2514:	28 17       	cp	r18, r24
    2516:	08 f4       	brcc	.+2      	; 0x251a <menu_prev_entry+0x44>
    2518:	2c 93       	st	X, r18
    251a:	ce 01       	movw	r24, r28
    251c:	0e 94 ae 11 	call	0x235c	; 0x235c <menu_display>
    2520:	df 91       	pop	r29
    2522:	cf 91       	pop	r28
    2524:	08 95       	ret

00002526 <menu_next_entry>:
    2526:	cf 93       	push	r28
    2528:	df 93       	push	r29
    252a:	ec 01       	movw	r28, r24
    252c:	ac 81       	ldd	r26, Y+4	; 0x04
    252e:	bd 81       	ldd	r27, Y+5	; 0x05
    2530:	11 96       	adiw	r26, 0x01	; 1
    2532:	2c 91       	ld	r18, X
    2534:	11 97       	sbiw	r26, 0x01	; 1
    2536:	12 96       	adiw	r26, 0x02	; 2
    2538:	9c 91       	ld	r25, X
    253a:	12 97       	sbiw	r26, 0x02	; 2
    253c:	65 e1       	ldi	r22, 0x15	; 21
    253e:	70 e0       	ldi	r23, 0x00	; 0
    2540:	2f 5f       	subi	r18, 0xFF	; 255
    2542:	29 17       	cp	r18, r25
    2544:	f8 f4       	brcc	.+62     	; 0x2584 <menu_next_entry+0x5e>
    2546:	42 2f       	mov	r20, r18
    2548:	50 e0       	ldi	r21, 0x00	; 0
    254a:	46 9f       	mul	r20, r22
    254c:	f0 01       	movw	r30, r0
    254e:	47 9f       	mul	r20, r23
    2550:	f0 0d       	add	r31, r0
    2552:	56 9f       	mul	r21, r22
    2554:	f0 0d       	add	r31, r0
    2556:	11 24       	eor	r1, r1
    2558:	ea 0f       	add	r30, r26
    255a:	fb 1f       	adc	r31, r27
    255c:	85 81       	ldd	r24, Z+5	; 0x05
    255e:	81 fd       	sbrc	r24, 1
    2560:	ef cf       	rjmp	.-34     	; 0x2540 <menu_next_entry+0x1a>
    2562:	11 96       	adiw	r26, 0x01	; 1
    2564:	2c 93       	st	X, r18
    2566:	11 97       	sbiw	r26, 0x01	; 1
    2568:	3a 81       	ldd	r19, Y+2	; 0x02
    256a:	8c 91       	ld	r24, X
    256c:	90 e0       	ldi	r25, 0x00	; 0
    256e:	83 0f       	add	r24, r19
    2570:	91 1d       	adc	r25, r1
    2572:	48 17       	cp	r20, r24
    2574:	59 07       	cpc	r21, r25
    2576:	1c f0       	brlt	.+6      	; 0x257e <menu_next_entry+0x58>
    2578:	23 1b       	sub	r18, r19
    257a:	2f 5f       	subi	r18, 0xFF	; 255
    257c:	2c 93       	st	X, r18
    257e:	ce 01       	movw	r24, r28
    2580:	0e 94 ae 11 	call	0x235c	; 0x235c <menu_display>
    2584:	df 91       	pop	r29
    2586:	cf 91       	pop	r28
    2588:	08 95       	ret

0000258a <menu_select>:
    258a:	0f 93       	push	r16
    258c:	1f 93       	push	r17
    258e:	cf 93       	push	r28
    2590:	df 93       	push	r29
    2592:	8c 01       	movw	r16, r24
    2594:	ec 01       	movw	r28, r24
    2596:	ac 81       	ldd	r26, Y+4	; 0x04
    2598:	bd 81       	ldd	r27, Y+5	; 0x05
    259a:	11 96       	adiw	r26, 0x01	; 1
    259c:	8c 91       	ld	r24, X
    259e:	11 97       	sbiw	r26, 0x01	; 1
    25a0:	48 2f       	mov	r20, r24
    25a2:	50 e0       	ldi	r21, 0x00	; 0
    25a4:	85 e1       	ldi	r24, 0x15	; 21
    25a6:	90 e0       	ldi	r25, 0x00	; 0
    25a8:	48 9f       	mul	r20, r24
    25aa:	f0 01       	movw	r30, r0
    25ac:	49 9f       	mul	r20, r25
    25ae:	f0 0d       	add	r31, r0
    25b0:	58 9f       	mul	r21, r24
    25b2:	f0 0d       	add	r31, r0
    25b4:	11 24       	eor	r1, r1
    25b6:	ea 0f       	add	r30, r26
    25b8:	fb 1f       	adc	r31, r27
    25ba:	85 81       	ldd	r24, Z+5	; 0x05
    25bc:	83 ff       	sbrs	r24, 3
    25be:	06 c0       	rjmp	.+12     	; 0x25cc <menu_select+0x42>
    25c0:	11 96       	adiw	r26, 0x01	; 1
    25c2:	1c 92       	st	X, r1
    25c4:	11 97       	sbiw	r26, 0x01	; 1
    25c6:	ec 81       	ldd	r30, Y+4	; 0x04
    25c8:	fd 81       	ldd	r31, Y+5	; 0x05
    25ca:	10 82       	st	Z, r1
    25cc:	85 e1       	ldi	r24, 0x15	; 21
    25ce:	90 e0       	ldi	r25, 0x00	; 0
    25d0:	48 9f       	mul	r20, r24
    25d2:	90 01       	movw	r18, r0
    25d4:	49 9f       	mul	r20, r25
    25d6:	30 0d       	add	r19, r0
    25d8:	58 9f       	mul	r21, r24
    25da:	30 0d       	add	r19, r0
    25dc:	11 24       	eor	r1, r1
    25de:	ed 01       	movw	r28, r26
    25e0:	c2 0f       	add	r28, r18
    25e2:	d3 1f       	adc	r29, r19
    25e4:	8d 81       	ldd	r24, Y+5	; 0x05
    25e6:	80 ff       	sbrs	r24, 0
    25e8:	06 c0       	rjmp	.+12     	; 0x25f6 <menu_select+0x6c>
    25ea:	68 8d       	ldd	r22, Y+24	; 0x18
    25ec:	79 8d       	ldd	r23, Y+25	; 0x19
    25ee:	c8 01       	movw	r24, r16
    25f0:	0e 94 4c 12 	call	0x2498	; 0x2498 <menu_enter>
    25f4:	10 c0       	rjmp	.+32     	; 0x2616 <menu_select+0x8c>
    25f6:	82 ff       	sbrs	r24, 2
    25f8:	04 c0       	rjmp	.+8      	; 0x2602 <menu_select+0x78>
    25fa:	c8 01       	movw	r24, r16
    25fc:	0e 94 5a 12 	call	0x24b4	; 0x24b4 <menu_exit>
    2600:	0d c0       	rjmp	.+26     	; 0x261c <menu_select+0x92>
    2602:	c9 01       	movw	r24, r18
    2604:	08 96       	adiw	r24, 0x08	; 8
    2606:	a8 0f       	add	r26, r24
    2608:	b9 1f       	adc	r27, r25
    260a:	ee 81       	ldd	r30, Y+6	; 0x06
    260c:	ff 81       	ldd	r31, Y+7	; 0x07
    260e:	88 8d       	ldd	r24, Y+24	; 0x18
    2610:	99 8d       	ldd	r25, Y+25	; 0x19
    2612:	bd 01       	movw	r22, r26
    2614:	09 95       	icall
    2616:	c8 01       	movw	r24, r16
    2618:	0e 94 ae 11 	call	0x235c	; 0x235c <menu_display>
    261c:	df 91       	pop	r29
    261e:	cf 91       	pop	r28
    2620:	1f 91       	pop	r17
    2622:	0f 91       	pop	r16
    2624:	08 95       	ret

00002626 <__eerd_block>:
    2626:	a0 e0       	ldi	r26, 0x00	; 0
    2628:	b0 e0       	ldi	r27, 0x00	; 0
    262a:	e9 e1       	ldi	r30, 0x19	; 25
    262c:	f3 e1       	ldi	r31, 0x13	; 19
    262e:	0c 94 b9 16 	jmp	0x2d72	; 0x2d72 <__prologue_saves__+0x14>
    2632:	7c 01       	movw	r14, r24
    2634:	eb 01       	movw	r28, r22
    2636:	8a 01       	movw	r16, r20
    2638:	69 01       	movw	r12, r18
    263a:	09 c0       	rjmp	.+18     	; 0x264e <__eerd_block+0x28>
    263c:	ce 01       	movw	r24, r28
    263e:	21 96       	adiw	r28, 0x01	; 1
    2640:	f6 01       	movw	r30, r12
    2642:	09 95       	icall
    2644:	f7 01       	movw	r30, r14
    2646:	81 93       	st	Z+, r24
    2648:	7f 01       	movw	r14, r30
    264a:	01 50       	subi	r16, 0x01	; 1
    264c:	10 40       	sbci	r17, 0x00	; 0
    264e:	01 15       	cp	r16, r1
    2650:	11 05       	cpc	r17, r1
    2652:	a1 f7       	brne	.-24     	; 0x263c <__eerd_block+0x16>
    2654:	cd b7       	in	r28, 0x3d	; 61
    2656:	de b7       	in	r29, 0x3e	; 62
    2658:	e8 e0       	ldi	r30, 0x08	; 8
    265a:	0c 94 d5 16 	jmp	0x2daa	; 0x2daa <__epilogue_restores__+0x14>

0000265e <__eerd_dword>:
    265e:	bf 92       	push	r11
    2660:	cf 92       	push	r12
    2662:	df 92       	push	r13
    2664:	ef 92       	push	r14
    2666:	ff 92       	push	r15
    2668:	0f 93       	push	r16
    266a:	1f 93       	push	r17
    266c:	7b 01       	movw	r14, r22
    266e:	8c 01       	movw	r16, r24
    2670:	fb 01       	movw	r30, r22
    2672:	09 95       	icall
    2674:	b8 2e       	mov	r11, r24
    2676:	c8 01       	movw	r24, r16
    2678:	01 96       	adiw	r24, 0x01	; 1
    267a:	f7 01       	movw	r30, r14
    267c:	09 95       	icall
    267e:	c8 2e       	mov	r12, r24
    2680:	c8 01       	movw	r24, r16
    2682:	02 96       	adiw	r24, 0x02	; 2
    2684:	f7 01       	movw	r30, r14
    2686:	09 95       	icall
    2688:	d8 2e       	mov	r13, r24
    268a:	c8 01       	movw	r24, r16
    268c:	03 96       	adiw	r24, 0x03	; 3
    268e:	f7 01       	movw	r30, r14
    2690:	09 95       	icall
    2692:	98 2f       	mov	r25, r24
    2694:	6b 2d       	mov	r22, r11
    2696:	7c 2d       	mov	r23, r12
    2698:	8d 2d       	mov	r24, r13
    269a:	1f 91       	pop	r17
    269c:	0f 91       	pop	r16
    269e:	ff 90       	pop	r15
    26a0:	ef 90       	pop	r14
    26a2:	df 90       	pop	r13
    26a4:	cf 90       	pop	r12
    26a6:	bf 90       	pop	r11
    26a8:	08 95       	ret

000026aa <__eerd_word>:
    26aa:	df 92       	push	r13
    26ac:	ef 92       	push	r14
    26ae:	ff 92       	push	r15
    26b0:	0f 93       	push	r16
    26b2:	1f 93       	push	r17
    26b4:	7b 01       	movw	r14, r22
    26b6:	8c 01       	movw	r16, r24
    26b8:	fb 01       	movw	r30, r22
    26ba:	09 95       	icall
    26bc:	d8 2e       	mov	r13, r24
    26be:	c8 01       	movw	r24, r16
    26c0:	01 96       	adiw	r24, 0x01	; 1
    26c2:	f7 01       	movw	r30, r14
    26c4:	09 95       	icall
    26c6:	98 2f       	mov	r25, r24
    26c8:	8d 2d       	mov	r24, r13
    26ca:	1f 91       	pop	r17
    26cc:	0f 91       	pop	r16
    26ce:	ff 90       	pop	r15
    26d0:	ef 90       	pop	r14
    26d2:	df 90       	pop	r13
    26d4:	08 95       	ret

000026d6 <__eewr_block>:
    26d6:	a0 e0       	ldi	r26, 0x00	; 0
    26d8:	b0 e0       	ldi	r27, 0x00	; 0
    26da:	e1 e7       	ldi	r30, 0x71	; 113
    26dc:	f3 e1       	ldi	r31, 0x13	; 19
    26de:	0c 94 b9 16 	jmp	0x2d72	; 0x2d72 <__prologue_saves__+0x14>
    26e2:	ec 01       	movw	r28, r24
    26e4:	7b 01       	movw	r14, r22
    26e6:	8a 01       	movw	r16, r20
    26e8:	69 01       	movw	r12, r18
    26ea:	09 c0       	rjmp	.+18     	; 0x26fe <__eewr_block+0x28>
    26ec:	ce 01       	movw	r24, r28
    26ee:	21 96       	adiw	r28, 0x01	; 1
    26f0:	f7 01       	movw	r30, r14
    26f2:	61 91       	ld	r22, Z+
    26f4:	7f 01       	movw	r14, r30
    26f6:	f6 01       	movw	r30, r12
    26f8:	09 95       	icall
    26fa:	01 50       	subi	r16, 0x01	; 1
    26fc:	10 40       	sbci	r17, 0x00	; 0
    26fe:	01 15       	cp	r16, r1
    2700:	11 05       	cpc	r17, r1
    2702:	a1 f7       	brne	.-24     	; 0x26ec <__eewr_block+0x16>
    2704:	cd b7       	in	r28, 0x3d	; 61
    2706:	de b7       	in	r29, 0x3e	; 62
    2708:	e8 e0       	ldi	r30, 0x08	; 8
    270a:	0c 94 d5 16 	jmp	0x2daa	; 0x2daa <__epilogue_restores__+0x14>

0000270e <__eewr_word>:
    270e:	df 92       	push	r13
    2710:	ef 92       	push	r14
    2712:	ff 92       	push	r15
    2714:	0f 93       	push	r16
    2716:	1f 93       	push	r17
    2718:	d7 2e       	mov	r13, r23
    271a:	7a 01       	movw	r14, r20
    271c:	8c 01       	movw	r16, r24
    271e:	fa 01       	movw	r30, r20
    2720:	09 95       	icall
    2722:	c8 01       	movw	r24, r16
    2724:	01 96       	adiw	r24, 0x01	; 1
    2726:	6d 2d       	mov	r22, r13
    2728:	f7 01       	movw	r30, r14
    272a:	09 95       	icall
    272c:	1f 91       	pop	r17
    272e:	0f 91       	pop	r16
    2730:	ff 90       	pop	r15
    2732:	ef 90       	pop	r14
    2734:	df 90       	pop	r13
    2736:	08 95       	ret

00002738 <fputc>:
    2738:	0f 93       	push	r16
    273a:	1f 93       	push	r17
    273c:	cf 93       	push	r28
    273e:	df 93       	push	r29
    2740:	8c 01       	movw	r16, r24
    2742:	eb 01       	movw	r28, r22
    2744:	8b 81       	ldd	r24, Y+3	; 0x03
    2746:	81 ff       	sbrs	r24, 1
    2748:	1b c0       	rjmp	.+54     	; 0x2780 <fputc+0x48>
    274a:	82 ff       	sbrs	r24, 2
    274c:	0d c0       	rjmp	.+26     	; 0x2768 <fputc+0x30>
    274e:	2e 81       	ldd	r18, Y+6	; 0x06
    2750:	3f 81       	ldd	r19, Y+7	; 0x07
    2752:	8c 81       	ldd	r24, Y+4	; 0x04
    2754:	9d 81       	ldd	r25, Y+5	; 0x05
    2756:	28 17       	cp	r18, r24
    2758:	39 07       	cpc	r19, r25
    275a:	64 f4       	brge	.+24     	; 0x2774 <fputc+0x3c>
    275c:	e8 81       	ld	r30, Y
    275e:	f9 81       	ldd	r31, Y+1	; 0x01
    2760:	01 93       	st	Z+, r16
    2762:	f9 83       	std	Y+1, r31	; 0x01
    2764:	e8 83       	st	Y, r30
    2766:	06 c0       	rjmp	.+12     	; 0x2774 <fputc+0x3c>
    2768:	e8 85       	ldd	r30, Y+8	; 0x08
    276a:	f9 85       	ldd	r31, Y+9	; 0x09
    276c:	80 2f       	mov	r24, r16
    276e:	09 95       	icall
    2770:	89 2b       	or	r24, r25
    2772:	31 f4       	brne	.+12     	; 0x2780 <fputc+0x48>
    2774:	8e 81       	ldd	r24, Y+6	; 0x06
    2776:	9f 81       	ldd	r25, Y+7	; 0x07
    2778:	01 96       	adiw	r24, 0x01	; 1
    277a:	9f 83       	std	Y+7, r25	; 0x07
    277c:	8e 83       	std	Y+6, r24	; 0x06
    277e:	02 c0       	rjmp	.+4      	; 0x2784 <fputc+0x4c>
    2780:	0f ef       	ldi	r16, 0xFF	; 255
    2782:	1f ef       	ldi	r17, 0xFF	; 255
    2784:	c8 01       	movw	r24, r16
    2786:	df 91       	pop	r29
    2788:	cf 91       	pop	r28
    278a:	1f 91       	pop	r17
    278c:	0f 91       	pop	r16
    278e:	08 95       	ret

00002790 <printf_P>:
    2790:	a0 e0       	ldi	r26, 0x00	; 0
    2792:	b0 e0       	ldi	r27, 0x00	; 0
    2794:	ee ec       	ldi	r30, 0xCE	; 206
    2796:	f3 e1       	ldi	r31, 0x13	; 19
    2798:	0c 94 bf 16 	jmp	0x2d7e	; 0x2d7e <__prologue_saves__+0x20>
    279c:	fe 01       	movw	r30, r28
    279e:	35 96       	adiw	r30, 0x05	; 5
    27a0:	61 91       	ld	r22, Z+
    27a2:	71 91       	ld	r23, Z+
    27a4:	a0 91 0c 03 	lds	r26, 0x030C
    27a8:	b0 91 0d 03 	lds	r27, 0x030D
    27ac:	13 96       	adiw	r26, 0x03	; 3
    27ae:	8c 91       	ld	r24, X
    27b0:	13 97       	sbiw	r26, 0x03	; 3
    27b2:	88 60       	ori	r24, 0x08	; 8
    27b4:	13 96       	adiw	r26, 0x03	; 3
    27b6:	8c 93       	st	X, r24
    27b8:	80 91 0c 03 	lds	r24, 0x030C
    27bc:	90 91 0d 03 	lds	r25, 0x030D
    27c0:	af 01       	movw	r20, r30
    27c2:	0e 94 ee 13 	call	0x27dc	; 0x27dc <vfprintf>
    27c6:	e0 91 0c 03 	lds	r30, 0x030C
    27ca:	f0 91 0d 03 	lds	r31, 0x030D
    27ce:	23 81       	ldd	r18, Z+3	; 0x03
    27d0:	27 7f       	andi	r18, 0xF7	; 247
    27d2:	23 83       	std	Z+3, r18	; 0x03
    27d4:	20 96       	adiw	r28, 0x00	; 0
    27d6:	e2 e0       	ldi	r30, 0x02	; 2
    27d8:	0c 94 db 16 	jmp	0x2db6	; 0x2db6 <__epilogue_restores__+0x20>

000027dc <vfprintf>:
    27dc:	ab e0       	ldi	r26, 0x0B	; 11
    27de:	b0 e0       	ldi	r27, 0x00	; 0
    27e0:	e4 ef       	ldi	r30, 0xF4	; 244
    27e2:	f3 e1       	ldi	r31, 0x13	; 19
    27e4:	0c 94 af 16 	jmp	0x2d5e	; 0x2d5e <__prologue_saves__>
    27e8:	3c 01       	movw	r6, r24
    27ea:	2b 01       	movw	r4, r22
    27ec:	5a 01       	movw	r10, r20
    27ee:	fc 01       	movw	r30, r24
    27f0:	17 82       	std	Z+7, r1	; 0x07
    27f2:	16 82       	std	Z+6, r1	; 0x06
    27f4:	83 81       	ldd	r24, Z+3	; 0x03
    27f6:	81 fd       	sbrc	r24, 1
    27f8:	03 c0       	rjmp	.+6      	; 0x2800 <vfprintf+0x24>
    27fa:	6f ef       	ldi	r22, 0xFF	; 255
    27fc:	7f ef       	ldi	r23, 0xFF	; 255
    27fe:	c6 c1       	rjmp	.+908    	; 0x2b8c <vfprintf+0x3b0>
    2800:	9a e0       	ldi	r25, 0x0A	; 10
    2802:	89 2e       	mov	r8, r25
    2804:	1e 01       	movw	r2, r28
    2806:	08 94       	sec
    2808:	21 1c       	adc	r2, r1
    280a:	31 1c       	adc	r3, r1
    280c:	f3 01       	movw	r30, r6
    280e:	23 81       	ldd	r18, Z+3	; 0x03
    2810:	f2 01       	movw	r30, r4
    2812:	23 fd       	sbrc	r18, 3
    2814:	85 91       	lpm	r24, Z+
    2816:	23 ff       	sbrs	r18, 3
    2818:	81 91       	ld	r24, Z+
    281a:	2f 01       	movw	r4, r30
    281c:	88 23       	and	r24, r24
    281e:	09 f4       	brne	.+2      	; 0x2822 <vfprintf+0x46>
    2820:	b2 c1       	rjmp	.+868    	; 0x2b86 <vfprintf+0x3aa>
    2822:	85 32       	cpi	r24, 0x25	; 37
    2824:	39 f4       	brne	.+14     	; 0x2834 <vfprintf+0x58>
    2826:	23 fd       	sbrc	r18, 3
    2828:	85 91       	lpm	r24, Z+
    282a:	23 ff       	sbrs	r18, 3
    282c:	81 91       	ld	r24, Z+
    282e:	2f 01       	movw	r4, r30
    2830:	85 32       	cpi	r24, 0x25	; 37
    2832:	29 f4       	brne	.+10     	; 0x283e <vfprintf+0x62>
    2834:	90 e0       	ldi	r25, 0x00	; 0
    2836:	b3 01       	movw	r22, r6
    2838:	0e 94 9c 13 	call	0x2738	; 0x2738 <fputc>
    283c:	e7 cf       	rjmp	.-50     	; 0x280c <vfprintf+0x30>
    283e:	98 2f       	mov	r25, r24
    2840:	ff 24       	eor	r15, r15
    2842:	ee 24       	eor	r14, r14
    2844:	99 24       	eor	r9, r9
    2846:	ff e1       	ldi	r31, 0x1F	; 31
    2848:	ff 15       	cp	r31, r15
    284a:	d0 f0       	brcs	.+52     	; 0x2880 <vfprintf+0xa4>
    284c:	9b 32       	cpi	r25, 0x2B	; 43
    284e:	69 f0       	breq	.+26     	; 0x286a <vfprintf+0x8e>
    2850:	9c 32       	cpi	r25, 0x2C	; 44
    2852:	28 f4       	brcc	.+10     	; 0x285e <vfprintf+0x82>
    2854:	90 32       	cpi	r25, 0x20	; 32
    2856:	59 f0       	breq	.+22     	; 0x286e <vfprintf+0x92>
    2858:	93 32       	cpi	r25, 0x23	; 35
    285a:	91 f4       	brne	.+36     	; 0x2880 <vfprintf+0xa4>
    285c:	0e c0       	rjmp	.+28     	; 0x287a <vfprintf+0x9e>
    285e:	9d 32       	cpi	r25, 0x2D	; 45
    2860:	49 f0       	breq	.+18     	; 0x2874 <vfprintf+0x98>
    2862:	90 33       	cpi	r25, 0x30	; 48
    2864:	69 f4       	brne	.+26     	; 0x2880 <vfprintf+0xa4>
    2866:	41 e0       	ldi	r20, 0x01	; 1
    2868:	24 c0       	rjmp	.+72     	; 0x28b2 <vfprintf+0xd6>
    286a:	52 e0       	ldi	r21, 0x02	; 2
    286c:	f5 2a       	or	r15, r21
    286e:	84 e0       	ldi	r24, 0x04	; 4
    2870:	f8 2a       	or	r15, r24
    2872:	28 c0       	rjmp	.+80     	; 0x28c4 <vfprintf+0xe8>
    2874:	98 e0       	ldi	r25, 0x08	; 8
    2876:	f9 2a       	or	r15, r25
    2878:	25 c0       	rjmp	.+74     	; 0x28c4 <vfprintf+0xe8>
    287a:	e0 e1       	ldi	r30, 0x10	; 16
    287c:	fe 2a       	or	r15, r30
    287e:	22 c0       	rjmp	.+68     	; 0x28c4 <vfprintf+0xe8>
    2880:	f7 fc       	sbrc	r15, 7
    2882:	29 c0       	rjmp	.+82     	; 0x28d6 <vfprintf+0xfa>
    2884:	89 2f       	mov	r24, r25
    2886:	80 53       	subi	r24, 0x30	; 48
    2888:	8a 30       	cpi	r24, 0x0A	; 10
    288a:	70 f4       	brcc	.+28     	; 0x28a8 <vfprintf+0xcc>
    288c:	f6 fe       	sbrs	r15, 6
    288e:	05 c0       	rjmp	.+10     	; 0x289a <vfprintf+0xbe>
    2890:	98 9c       	mul	r9, r8
    2892:	90 2c       	mov	r9, r0
    2894:	11 24       	eor	r1, r1
    2896:	98 0e       	add	r9, r24
    2898:	15 c0       	rjmp	.+42     	; 0x28c4 <vfprintf+0xe8>
    289a:	e8 9c       	mul	r14, r8
    289c:	e0 2c       	mov	r14, r0
    289e:	11 24       	eor	r1, r1
    28a0:	e8 0e       	add	r14, r24
    28a2:	f0 e2       	ldi	r31, 0x20	; 32
    28a4:	ff 2a       	or	r15, r31
    28a6:	0e c0       	rjmp	.+28     	; 0x28c4 <vfprintf+0xe8>
    28a8:	9e 32       	cpi	r25, 0x2E	; 46
    28aa:	29 f4       	brne	.+10     	; 0x28b6 <vfprintf+0xda>
    28ac:	f6 fc       	sbrc	r15, 6
    28ae:	6b c1       	rjmp	.+726    	; 0x2b86 <vfprintf+0x3aa>
    28b0:	40 e4       	ldi	r20, 0x40	; 64
    28b2:	f4 2a       	or	r15, r20
    28b4:	07 c0       	rjmp	.+14     	; 0x28c4 <vfprintf+0xe8>
    28b6:	9c 36       	cpi	r25, 0x6C	; 108
    28b8:	19 f4       	brne	.+6      	; 0x28c0 <vfprintf+0xe4>
    28ba:	50 e8       	ldi	r21, 0x80	; 128
    28bc:	f5 2a       	or	r15, r21
    28be:	02 c0       	rjmp	.+4      	; 0x28c4 <vfprintf+0xe8>
    28c0:	98 36       	cpi	r25, 0x68	; 104
    28c2:	49 f4       	brne	.+18     	; 0x28d6 <vfprintf+0xfa>
    28c4:	f2 01       	movw	r30, r4
    28c6:	23 fd       	sbrc	r18, 3
    28c8:	95 91       	lpm	r25, Z+
    28ca:	23 ff       	sbrs	r18, 3
    28cc:	91 91       	ld	r25, Z+
    28ce:	2f 01       	movw	r4, r30
    28d0:	99 23       	and	r25, r25
    28d2:	09 f0       	breq	.+2      	; 0x28d6 <vfprintf+0xfa>
    28d4:	b8 cf       	rjmp	.-144    	; 0x2846 <vfprintf+0x6a>
    28d6:	89 2f       	mov	r24, r25
    28d8:	85 54       	subi	r24, 0x45	; 69
    28da:	83 30       	cpi	r24, 0x03	; 3
    28dc:	18 f0       	brcs	.+6      	; 0x28e4 <vfprintf+0x108>
    28de:	80 52       	subi	r24, 0x20	; 32
    28e0:	83 30       	cpi	r24, 0x03	; 3
    28e2:	38 f4       	brcc	.+14     	; 0x28f2 <vfprintf+0x116>
    28e4:	44 e0       	ldi	r20, 0x04	; 4
    28e6:	50 e0       	ldi	r21, 0x00	; 0
    28e8:	a4 0e       	add	r10, r20
    28ea:	b5 1e       	adc	r11, r21
    28ec:	5f e3       	ldi	r21, 0x3F	; 63
    28ee:	59 83       	std	Y+1, r21	; 0x01
    28f0:	0f c0       	rjmp	.+30     	; 0x2910 <vfprintf+0x134>
    28f2:	93 36       	cpi	r25, 0x63	; 99
    28f4:	31 f0       	breq	.+12     	; 0x2902 <vfprintf+0x126>
    28f6:	93 37       	cpi	r25, 0x73	; 115
    28f8:	79 f0       	breq	.+30     	; 0x2918 <vfprintf+0x13c>
    28fa:	93 35       	cpi	r25, 0x53	; 83
    28fc:	09 f0       	breq	.+2      	; 0x2900 <vfprintf+0x124>
    28fe:	56 c0       	rjmp	.+172    	; 0x29ac <vfprintf+0x1d0>
    2900:	20 c0       	rjmp	.+64     	; 0x2942 <vfprintf+0x166>
    2902:	f5 01       	movw	r30, r10
    2904:	80 81       	ld	r24, Z
    2906:	89 83       	std	Y+1, r24	; 0x01
    2908:	42 e0       	ldi	r20, 0x02	; 2
    290a:	50 e0       	ldi	r21, 0x00	; 0
    290c:	a4 0e       	add	r10, r20
    290e:	b5 1e       	adc	r11, r21
    2910:	61 01       	movw	r12, r2
    2912:	01 e0       	ldi	r16, 0x01	; 1
    2914:	10 e0       	ldi	r17, 0x00	; 0
    2916:	12 c0       	rjmp	.+36     	; 0x293c <vfprintf+0x160>
    2918:	f5 01       	movw	r30, r10
    291a:	c0 80       	ld	r12, Z
    291c:	d1 80       	ldd	r13, Z+1	; 0x01
    291e:	f6 fc       	sbrc	r15, 6
    2920:	03 c0       	rjmp	.+6      	; 0x2928 <vfprintf+0x14c>
    2922:	6f ef       	ldi	r22, 0xFF	; 255
    2924:	7f ef       	ldi	r23, 0xFF	; 255
    2926:	02 c0       	rjmp	.+4      	; 0x292c <vfprintf+0x150>
    2928:	69 2d       	mov	r22, r9
    292a:	70 e0       	ldi	r23, 0x00	; 0
    292c:	42 e0       	ldi	r20, 0x02	; 2
    292e:	50 e0       	ldi	r21, 0x00	; 0
    2930:	a4 0e       	add	r10, r20
    2932:	b5 1e       	adc	r11, r21
    2934:	c6 01       	movw	r24, r12
    2936:	0e 94 d6 15 	call	0x2bac	; 0x2bac <strnlen>
    293a:	8c 01       	movw	r16, r24
    293c:	5f e7       	ldi	r21, 0x7F	; 127
    293e:	f5 22       	and	r15, r21
    2940:	14 c0       	rjmp	.+40     	; 0x296a <vfprintf+0x18e>
    2942:	f5 01       	movw	r30, r10
    2944:	c0 80       	ld	r12, Z
    2946:	d1 80       	ldd	r13, Z+1	; 0x01
    2948:	f6 fc       	sbrc	r15, 6
    294a:	03 c0       	rjmp	.+6      	; 0x2952 <vfprintf+0x176>
    294c:	6f ef       	ldi	r22, 0xFF	; 255
    294e:	7f ef       	ldi	r23, 0xFF	; 255
    2950:	02 c0       	rjmp	.+4      	; 0x2956 <vfprintf+0x17a>
    2952:	69 2d       	mov	r22, r9
    2954:	70 e0       	ldi	r23, 0x00	; 0
    2956:	42 e0       	ldi	r20, 0x02	; 2
    2958:	50 e0       	ldi	r21, 0x00	; 0
    295a:	a4 0e       	add	r10, r20
    295c:	b5 1e       	adc	r11, r21
    295e:	c6 01       	movw	r24, r12
    2960:	0e 94 cb 15 	call	0x2b96	; 0x2b96 <strnlen_P>
    2964:	8c 01       	movw	r16, r24
    2966:	50 e8       	ldi	r21, 0x80	; 128
    2968:	f5 2a       	or	r15, r21
    296a:	f3 fe       	sbrs	r15, 3
    296c:	07 c0       	rjmp	.+14     	; 0x297c <vfprintf+0x1a0>
    296e:	1a c0       	rjmp	.+52     	; 0x29a4 <vfprintf+0x1c8>
    2970:	80 e2       	ldi	r24, 0x20	; 32
    2972:	90 e0       	ldi	r25, 0x00	; 0
    2974:	b3 01       	movw	r22, r6
    2976:	0e 94 9c 13 	call	0x2738	; 0x2738 <fputc>
    297a:	ea 94       	dec	r14
    297c:	8e 2d       	mov	r24, r14
    297e:	90 e0       	ldi	r25, 0x00	; 0
    2980:	08 17       	cp	r16, r24
    2982:	19 07       	cpc	r17, r25
    2984:	a8 f3       	brcs	.-22     	; 0x2970 <vfprintf+0x194>
    2986:	0e c0       	rjmp	.+28     	; 0x29a4 <vfprintf+0x1c8>
    2988:	f6 01       	movw	r30, r12
    298a:	f7 fc       	sbrc	r15, 7
    298c:	85 91       	lpm	r24, Z+
    298e:	f7 fe       	sbrs	r15, 7
    2990:	81 91       	ld	r24, Z+
    2992:	6f 01       	movw	r12, r30
    2994:	90 e0       	ldi	r25, 0x00	; 0
    2996:	b3 01       	movw	r22, r6
    2998:	0e 94 9c 13 	call	0x2738	; 0x2738 <fputc>
    299c:	e1 10       	cpse	r14, r1
    299e:	ea 94       	dec	r14
    29a0:	01 50       	subi	r16, 0x01	; 1
    29a2:	10 40       	sbci	r17, 0x00	; 0
    29a4:	01 15       	cp	r16, r1
    29a6:	11 05       	cpc	r17, r1
    29a8:	79 f7       	brne	.-34     	; 0x2988 <vfprintf+0x1ac>
    29aa:	ea c0       	rjmp	.+468    	; 0x2b80 <vfprintf+0x3a4>
    29ac:	94 36       	cpi	r25, 0x64	; 100
    29ae:	11 f0       	breq	.+4      	; 0x29b4 <vfprintf+0x1d8>
    29b0:	99 36       	cpi	r25, 0x69	; 105
    29b2:	69 f5       	brne	.+90     	; 0x2a0e <vfprintf+0x232>
    29b4:	f7 fe       	sbrs	r15, 7
    29b6:	08 c0       	rjmp	.+16     	; 0x29c8 <vfprintf+0x1ec>
    29b8:	f5 01       	movw	r30, r10
    29ba:	20 81       	ld	r18, Z
    29bc:	31 81       	ldd	r19, Z+1	; 0x01
    29be:	42 81       	ldd	r20, Z+2	; 0x02
    29c0:	53 81       	ldd	r21, Z+3	; 0x03
    29c2:	84 e0       	ldi	r24, 0x04	; 4
    29c4:	90 e0       	ldi	r25, 0x00	; 0
    29c6:	0a c0       	rjmp	.+20     	; 0x29dc <vfprintf+0x200>
    29c8:	f5 01       	movw	r30, r10
    29ca:	80 81       	ld	r24, Z
    29cc:	91 81       	ldd	r25, Z+1	; 0x01
    29ce:	9c 01       	movw	r18, r24
    29d0:	44 27       	eor	r20, r20
    29d2:	37 fd       	sbrc	r19, 7
    29d4:	40 95       	com	r20
    29d6:	54 2f       	mov	r21, r20
    29d8:	82 e0       	ldi	r24, 0x02	; 2
    29da:	90 e0       	ldi	r25, 0x00	; 0
    29dc:	a8 0e       	add	r10, r24
    29de:	b9 1e       	adc	r11, r25
    29e0:	9f e6       	ldi	r25, 0x6F	; 111
    29e2:	f9 22       	and	r15, r25
    29e4:	57 ff       	sbrs	r21, 7
    29e6:	09 c0       	rjmp	.+18     	; 0x29fa <vfprintf+0x21e>
    29e8:	50 95       	com	r21
    29ea:	40 95       	com	r20
    29ec:	30 95       	com	r19
    29ee:	21 95       	neg	r18
    29f0:	3f 4f       	sbci	r19, 0xFF	; 255
    29f2:	4f 4f       	sbci	r20, 0xFF	; 255
    29f4:	5f 4f       	sbci	r21, 0xFF	; 255
    29f6:	e0 e8       	ldi	r30, 0x80	; 128
    29f8:	fe 2a       	or	r15, r30
    29fa:	ca 01       	movw	r24, r20
    29fc:	b9 01       	movw	r22, r18
    29fe:	a1 01       	movw	r20, r2
    2a00:	2a e0       	ldi	r18, 0x0A	; 10
    2a02:	30 e0       	ldi	r19, 0x00	; 0
    2a04:	0e 94 e1 15 	call	0x2bc2	; 0x2bc2 <__ultoa_invert>
    2a08:	d8 2e       	mov	r13, r24
    2a0a:	d2 18       	sub	r13, r2
    2a0c:	40 c0       	rjmp	.+128    	; 0x2a8e <vfprintf+0x2b2>
    2a0e:	95 37       	cpi	r25, 0x75	; 117
    2a10:	29 f4       	brne	.+10     	; 0x2a1c <vfprintf+0x240>
    2a12:	1f 2d       	mov	r17, r15
    2a14:	1f 7e       	andi	r17, 0xEF	; 239
    2a16:	2a e0       	ldi	r18, 0x0A	; 10
    2a18:	30 e0       	ldi	r19, 0x00	; 0
    2a1a:	1d c0       	rjmp	.+58     	; 0x2a56 <vfprintf+0x27a>
    2a1c:	1f 2d       	mov	r17, r15
    2a1e:	19 7f       	andi	r17, 0xF9	; 249
    2a20:	9f 36       	cpi	r25, 0x6F	; 111
    2a22:	61 f0       	breq	.+24     	; 0x2a3c <vfprintf+0x260>
    2a24:	90 37       	cpi	r25, 0x70	; 112
    2a26:	20 f4       	brcc	.+8      	; 0x2a30 <vfprintf+0x254>
    2a28:	98 35       	cpi	r25, 0x58	; 88
    2a2a:	09 f0       	breq	.+2      	; 0x2a2e <vfprintf+0x252>
    2a2c:	ac c0       	rjmp	.+344    	; 0x2b86 <vfprintf+0x3aa>
    2a2e:	0f c0       	rjmp	.+30     	; 0x2a4e <vfprintf+0x272>
    2a30:	90 37       	cpi	r25, 0x70	; 112
    2a32:	39 f0       	breq	.+14     	; 0x2a42 <vfprintf+0x266>
    2a34:	98 37       	cpi	r25, 0x78	; 120
    2a36:	09 f0       	breq	.+2      	; 0x2a3a <vfprintf+0x25e>
    2a38:	a6 c0       	rjmp	.+332    	; 0x2b86 <vfprintf+0x3aa>
    2a3a:	04 c0       	rjmp	.+8      	; 0x2a44 <vfprintf+0x268>
    2a3c:	28 e0       	ldi	r18, 0x08	; 8
    2a3e:	30 e0       	ldi	r19, 0x00	; 0
    2a40:	0a c0       	rjmp	.+20     	; 0x2a56 <vfprintf+0x27a>
    2a42:	10 61       	ori	r17, 0x10	; 16
    2a44:	14 fd       	sbrc	r17, 4
    2a46:	14 60       	ori	r17, 0x04	; 4
    2a48:	20 e1       	ldi	r18, 0x10	; 16
    2a4a:	30 e0       	ldi	r19, 0x00	; 0
    2a4c:	04 c0       	rjmp	.+8      	; 0x2a56 <vfprintf+0x27a>
    2a4e:	14 fd       	sbrc	r17, 4
    2a50:	16 60       	ori	r17, 0x06	; 6
    2a52:	20 e1       	ldi	r18, 0x10	; 16
    2a54:	32 e0       	ldi	r19, 0x02	; 2
    2a56:	17 ff       	sbrs	r17, 7
    2a58:	08 c0       	rjmp	.+16     	; 0x2a6a <vfprintf+0x28e>
    2a5a:	f5 01       	movw	r30, r10
    2a5c:	60 81       	ld	r22, Z
    2a5e:	71 81       	ldd	r23, Z+1	; 0x01
    2a60:	82 81       	ldd	r24, Z+2	; 0x02
    2a62:	93 81       	ldd	r25, Z+3	; 0x03
    2a64:	44 e0       	ldi	r20, 0x04	; 4
    2a66:	50 e0       	ldi	r21, 0x00	; 0
    2a68:	08 c0       	rjmp	.+16     	; 0x2a7a <vfprintf+0x29e>
    2a6a:	f5 01       	movw	r30, r10
    2a6c:	80 81       	ld	r24, Z
    2a6e:	91 81       	ldd	r25, Z+1	; 0x01
    2a70:	bc 01       	movw	r22, r24
    2a72:	80 e0       	ldi	r24, 0x00	; 0
    2a74:	90 e0       	ldi	r25, 0x00	; 0
    2a76:	42 e0       	ldi	r20, 0x02	; 2
    2a78:	50 e0       	ldi	r21, 0x00	; 0
    2a7a:	a4 0e       	add	r10, r20
    2a7c:	b5 1e       	adc	r11, r21
    2a7e:	a1 01       	movw	r20, r2
    2a80:	0e 94 e1 15 	call	0x2bc2	; 0x2bc2 <__ultoa_invert>
    2a84:	d8 2e       	mov	r13, r24
    2a86:	d2 18       	sub	r13, r2
    2a88:	8f e7       	ldi	r24, 0x7F	; 127
    2a8a:	f8 2e       	mov	r15, r24
    2a8c:	f1 22       	and	r15, r17
    2a8e:	f6 fe       	sbrs	r15, 6
    2a90:	0b c0       	rjmp	.+22     	; 0x2aa8 <vfprintf+0x2cc>
    2a92:	5e ef       	ldi	r21, 0xFE	; 254
    2a94:	f5 22       	and	r15, r21
    2a96:	d9 14       	cp	r13, r9
    2a98:	38 f4       	brcc	.+14     	; 0x2aa8 <vfprintf+0x2cc>
    2a9a:	f4 fe       	sbrs	r15, 4
    2a9c:	07 c0       	rjmp	.+14     	; 0x2aac <vfprintf+0x2d0>
    2a9e:	f2 fc       	sbrc	r15, 2
    2aa0:	05 c0       	rjmp	.+10     	; 0x2aac <vfprintf+0x2d0>
    2aa2:	8f ee       	ldi	r24, 0xEF	; 239
    2aa4:	f8 22       	and	r15, r24
    2aa6:	02 c0       	rjmp	.+4      	; 0x2aac <vfprintf+0x2d0>
    2aa8:	1d 2d       	mov	r17, r13
    2aaa:	01 c0       	rjmp	.+2      	; 0x2aae <vfprintf+0x2d2>
    2aac:	19 2d       	mov	r17, r9
    2aae:	f4 fe       	sbrs	r15, 4
    2ab0:	0d c0       	rjmp	.+26     	; 0x2acc <vfprintf+0x2f0>
    2ab2:	fe 01       	movw	r30, r28
    2ab4:	ed 0d       	add	r30, r13
    2ab6:	f1 1d       	adc	r31, r1
    2ab8:	80 81       	ld	r24, Z
    2aba:	80 33       	cpi	r24, 0x30	; 48
    2abc:	19 f4       	brne	.+6      	; 0x2ac4 <vfprintf+0x2e8>
    2abe:	99 ee       	ldi	r25, 0xE9	; 233
    2ac0:	f9 22       	and	r15, r25
    2ac2:	08 c0       	rjmp	.+16     	; 0x2ad4 <vfprintf+0x2f8>
    2ac4:	1f 5f       	subi	r17, 0xFF	; 255
    2ac6:	f2 fe       	sbrs	r15, 2
    2ac8:	05 c0       	rjmp	.+10     	; 0x2ad4 <vfprintf+0x2f8>
    2aca:	03 c0       	rjmp	.+6      	; 0x2ad2 <vfprintf+0x2f6>
    2acc:	8f 2d       	mov	r24, r15
    2ace:	86 78       	andi	r24, 0x86	; 134
    2ad0:	09 f0       	breq	.+2      	; 0x2ad4 <vfprintf+0x2f8>
    2ad2:	1f 5f       	subi	r17, 0xFF	; 255
    2ad4:	0f 2d       	mov	r16, r15
    2ad6:	f3 fc       	sbrc	r15, 3
    2ad8:	14 c0       	rjmp	.+40     	; 0x2b02 <vfprintf+0x326>
    2ada:	f0 fe       	sbrs	r15, 0
    2adc:	0f c0       	rjmp	.+30     	; 0x2afc <vfprintf+0x320>
    2ade:	1e 15       	cp	r17, r14
    2ae0:	10 f0       	brcs	.+4      	; 0x2ae6 <vfprintf+0x30a>
    2ae2:	9d 2c       	mov	r9, r13
    2ae4:	0b c0       	rjmp	.+22     	; 0x2afc <vfprintf+0x320>
    2ae6:	9d 2c       	mov	r9, r13
    2ae8:	9e 0c       	add	r9, r14
    2aea:	91 1a       	sub	r9, r17
    2aec:	1e 2d       	mov	r17, r14
    2aee:	06 c0       	rjmp	.+12     	; 0x2afc <vfprintf+0x320>
    2af0:	80 e2       	ldi	r24, 0x20	; 32
    2af2:	90 e0       	ldi	r25, 0x00	; 0
    2af4:	b3 01       	movw	r22, r6
    2af6:	0e 94 9c 13 	call	0x2738	; 0x2738 <fputc>
    2afa:	1f 5f       	subi	r17, 0xFF	; 255
    2afc:	1e 15       	cp	r17, r14
    2afe:	c0 f3       	brcs	.-16     	; 0x2af0 <vfprintf+0x314>
    2b00:	04 c0       	rjmp	.+8      	; 0x2b0a <vfprintf+0x32e>
    2b02:	1e 15       	cp	r17, r14
    2b04:	10 f4       	brcc	.+4      	; 0x2b0a <vfprintf+0x32e>
    2b06:	e1 1a       	sub	r14, r17
    2b08:	01 c0       	rjmp	.+2      	; 0x2b0c <vfprintf+0x330>
    2b0a:	ee 24       	eor	r14, r14
    2b0c:	04 ff       	sbrs	r16, 4
    2b0e:	0f c0       	rjmp	.+30     	; 0x2b2e <vfprintf+0x352>
    2b10:	80 e3       	ldi	r24, 0x30	; 48
    2b12:	90 e0       	ldi	r25, 0x00	; 0
    2b14:	b3 01       	movw	r22, r6
    2b16:	0e 94 9c 13 	call	0x2738	; 0x2738 <fputc>
    2b1a:	02 ff       	sbrs	r16, 2
    2b1c:	1d c0       	rjmp	.+58     	; 0x2b58 <vfprintf+0x37c>
    2b1e:	01 fd       	sbrc	r16, 1
    2b20:	03 c0       	rjmp	.+6      	; 0x2b28 <vfprintf+0x34c>
    2b22:	88 e7       	ldi	r24, 0x78	; 120
    2b24:	90 e0       	ldi	r25, 0x00	; 0
    2b26:	0e c0       	rjmp	.+28     	; 0x2b44 <vfprintf+0x368>
    2b28:	88 e5       	ldi	r24, 0x58	; 88
    2b2a:	90 e0       	ldi	r25, 0x00	; 0
    2b2c:	0b c0       	rjmp	.+22     	; 0x2b44 <vfprintf+0x368>
    2b2e:	80 2f       	mov	r24, r16
    2b30:	86 78       	andi	r24, 0x86	; 134
    2b32:	91 f0       	breq	.+36     	; 0x2b58 <vfprintf+0x37c>
    2b34:	01 ff       	sbrs	r16, 1
    2b36:	02 c0       	rjmp	.+4      	; 0x2b3c <vfprintf+0x360>
    2b38:	8b e2       	ldi	r24, 0x2B	; 43
    2b3a:	01 c0       	rjmp	.+2      	; 0x2b3e <vfprintf+0x362>
    2b3c:	80 e2       	ldi	r24, 0x20	; 32
    2b3e:	f7 fc       	sbrc	r15, 7
    2b40:	8d e2       	ldi	r24, 0x2D	; 45
    2b42:	90 e0       	ldi	r25, 0x00	; 0
    2b44:	b3 01       	movw	r22, r6
    2b46:	0e 94 9c 13 	call	0x2738	; 0x2738 <fputc>
    2b4a:	06 c0       	rjmp	.+12     	; 0x2b58 <vfprintf+0x37c>
    2b4c:	80 e3       	ldi	r24, 0x30	; 48
    2b4e:	90 e0       	ldi	r25, 0x00	; 0
    2b50:	b3 01       	movw	r22, r6
    2b52:	0e 94 9c 13 	call	0x2738	; 0x2738 <fputc>
    2b56:	9a 94       	dec	r9
    2b58:	d9 14       	cp	r13, r9
    2b5a:	c0 f3       	brcs	.-16     	; 0x2b4c <vfprintf+0x370>
    2b5c:	da 94       	dec	r13
    2b5e:	f1 01       	movw	r30, r2
    2b60:	ed 0d       	add	r30, r13
    2b62:	f1 1d       	adc	r31, r1
    2b64:	80 81       	ld	r24, Z
    2b66:	90 e0       	ldi	r25, 0x00	; 0
    2b68:	b3 01       	movw	r22, r6
    2b6a:	0e 94 9c 13 	call	0x2738	; 0x2738 <fputc>
    2b6e:	dd 20       	and	r13, r13
    2b70:	a9 f7       	brne	.-22     	; 0x2b5c <vfprintf+0x380>
    2b72:	06 c0       	rjmp	.+12     	; 0x2b80 <vfprintf+0x3a4>
    2b74:	80 e2       	ldi	r24, 0x20	; 32
    2b76:	90 e0       	ldi	r25, 0x00	; 0
    2b78:	b3 01       	movw	r22, r6
    2b7a:	0e 94 9c 13 	call	0x2738	; 0x2738 <fputc>
    2b7e:	ea 94       	dec	r14
    2b80:	ee 20       	and	r14, r14
    2b82:	c1 f7       	brne	.-16     	; 0x2b74 <vfprintf+0x398>
    2b84:	43 ce       	rjmp	.-890    	; 0x280c <vfprintf+0x30>
    2b86:	f3 01       	movw	r30, r6
    2b88:	66 81       	ldd	r22, Z+6	; 0x06
    2b8a:	77 81       	ldd	r23, Z+7	; 0x07
    2b8c:	cb 01       	movw	r24, r22
    2b8e:	2b 96       	adiw	r28, 0x0b	; 11
    2b90:	e2 e1       	ldi	r30, 0x12	; 18
    2b92:	0c 94 cb 16 	jmp	0x2d96	; 0x2d96 <__epilogue_restores__>

00002b96 <strnlen_P>:
    2b96:	fc 01       	movw	r30, r24
    2b98:	05 90       	lpm	r0, Z+
    2b9a:	61 50       	subi	r22, 0x01	; 1
    2b9c:	70 40       	sbci	r23, 0x00	; 0
    2b9e:	01 10       	cpse	r0, r1
    2ba0:	d8 f7       	brcc	.-10     	; 0x2b98 <strnlen_P+0x2>
    2ba2:	80 95       	com	r24
    2ba4:	90 95       	com	r25
    2ba6:	8e 0f       	add	r24, r30
    2ba8:	9f 1f       	adc	r25, r31
    2baa:	08 95       	ret

00002bac <strnlen>:
    2bac:	fc 01       	movw	r30, r24
    2bae:	61 50       	subi	r22, 0x01	; 1
    2bb0:	70 40       	sbci	r23, 0x00	; 0
    2bb2:	01 90       	ld	r0, Z+
    2bb4:	01 10       	cpse	r0, r1
    2bb6:	d8 f7       	brcc	.-10     	; 0x2bae <strnlen+0x2>
    2bb8:	80 95       	com	r24
    2bba:	90 95       	com	r25
    2bbc:	8e 0f       	add	r24, r30
    2bbe:	9f 1f       	adc	r25, r31
    2bc0:	08 95       	ret

00002bc2 <__ultoa_invert>:
    2bc2:	fa 01       	movw	r30, r20
    2bc4:	aa 27       	eor	r26, r26
    2bc6:	28 30       	cpi	r18, 0x08	; 8
    2bc8:	51 f1       	breq	.+84     	; 0x2c1e <__ultoa_invert+0x5c>
    2bca:	20 31       	cpi	r18, 0x10	; 16
    2bcc:	81 f1       	breq	.+96     	; 0x2c2e <__ultoa_invert+0x6c>
    2bce:	e8 94       	clt
    2bd0:	6f 93       	push	r22
    2bd2:	6e 7f       	andi	r22, 0xFE	; 254
    2bd4:	6e 5f       	subi	r22, 0xFE	; 254
    2bd6:	7f 4f       	sbci	r23, 0xFF	; 255
    2bd8:	8f 4f       	sbci	r24, 0xFF	; 255
    2bda:	9f 4f       	sbci	r25, 0xFF	; 255
    2bdc:	af 4f       	sbci	r26, 0xFF	; 255
    2bde:	b1 e0       	ldi	r27, 0x01	; 1
    2be0:	3e d0       	rcall	.+124    	; 0x2c5e <__ultoa_invert+0x9c>
    2be2:	b4 e0       	ldi	r27, 0x04	; 4
    2be4:	3c d0       	rcall	.+120    	; 0x2c5e <__ultoa_invert+0x9c>
    2be6:	67 0f       	add	r22, r23
    2be8:	78 1f       	adc	r23, r24
    2bea:	89 1f       	adc	r24, r25
    2bec:	9a 1f       	adc	r25, r26
    2bee:	a1 1d       	adc	r26, r1
    2bf0:	68 0f       	add	r22, r24
    2bf2:	79 1f       	adc	r23, r25
    2bf4:	8a 1f       	adc	r24, r26
    2bf6:	91 1d       	adc	r25, r1
    2bf8:	a1 1d       	adc	r26, r1
    2bfa:	6a 0f       	add	r22, r26
    2bfc:	71 1d       	adc	r23, r1
    2bfe:	81 1d       	adc	r24, r1
    2c00:	91 1d       	adc	r25, r1
    2c02:	a1 1d       	adc	r26, r1
    2c04:	20 d0       	rcall	.+64     	; 0x2c46 <__ultoa_invert+0x84>
    2c06:	09 f4       	brne	.+2      	; 0x2c0a <__ultoa_invert+0x48>
    2c08:	68 94       	set
    2c0a:	3f 91       	pop	r19
    2c0c:	2a e0       	ldi	r18, 0x0A	; 10
    2c0e:	26 9f       	mul	r18, r22
    2c10:	11 24       	eor	r1, r1
    2c12:	30 19       	sub	r19, r0
    2c14:	30 5d       	subi	r19, 0xD0	; 208
    2c16:	31 93       	st	Z+, r19
    2c18:	de f6       	brtc	.-74     	; 0x2bd0 <__ultoa_invert+0xe>
    2c1a:	cf 01       	movw	r24, r30
    2c1c:	08 95       	ret
    2c1e:	46 2f       	mov	r20, r22
    2c20:	47 70       	andi	r20, 0x07	; 7
    2c22:	40 5d       	subi	r20, 0xD0	; 208
    2c24:	41 93       	st	Z+, r20
    2c26:	b3 e0       	ldi	r27, 0x03	; 3
    2c28:	0f d0       	rcall	.+30     	; 0x2c48 <__ultoa_invert+0x86>
    2c2a:	c9 f7       	brne	.-14     	; 0x2c1e <__ultoa_invert+0x5c>
    2c2c:	f6 cf       	rjmp	.-20     	; 0x2c1a <__ultoa_invert+0x58>
    2c2e:	46 2f       	mov	r20, r22
    2c30:	4f 70       	andi	r20, 0x0F	; 15
    2c32:	40 5d       	subi	r20, 0xD0	; 208
    2c34:	4a 33       	cpi	r20, 0x3A	; 58
    2c36:	18 f0       	brcs	.+6      	; 0x2c3e <__ultoa_invert+0x7c>
    2c38:	49 5d       	subi	r20, 0xD9	; 217
    2c3a:	31 fd       	sbrc	r19, 1
    2c3c:	40 52       	subi	r20, 0x20	; 32
    2c3e:	41 93       	st	Z+, r20
    2c40:	02 d0       	rcall	.+4      	; 0x2c46 <__ultoa_invert+0x84>
    2c42:	a9 f7       	brne	.-22     	; 0x2c2e <__ultoa_invert+0x6c>
    2c44:	ea cf       	rjmp	.-44     	; 0x2c1a <__ultoa_invert+0x58>
    2c46:	b4 e0       	ldi	r27, 0x04	; 4
    2c48:	a6 95       	lsr	r26
    2c4a:	97 95       	ror	r25
    2c4c:	87 95       	ror	r24
    2c4e:	77 95       	ror	r23
    2c50:	67 95       	ror	r22
    2c52:	ba 95       	dec	r27
    2c54:	c9 f7       	brne	.-14     	; 0x2c48 <__ultoa_invert+0x86>
    2c56:	00 97       	sbiw	r24, 0x00	; 0
    2c58:	61 05       	cpc	r22, r1
    2c5a:	71 05       	cpc	r23, r1
    2c5c:	08 95       	ret
    2c5e:	9b 01       	movw	r18, r22
    2c60:	ac 01       	movw	r20, r24
    2c62:	0a 2e       	mov	r0, r26
    2c64:	06 94       	lsr	r0
    2c66:	57 95       	ror	r21
    2c68:	47 95       	ror	r20
    2c6a:	37 95       	ror	r19
    2c6c:	27 95       	ror	r18
    2c6e:	ba 95       	dec	r27
    2c70:	c9 f7       	brne	.-14     	; 0x2c64 <__ultoa_invert+0xa2>
    2c72:	62 0f       	add	r22, r18
    2c74:	73 1f       	adc	r23, r19
    2c76:	84 1f       	adc	r24, r20
    2c78:	95 1f       	adc	r25, r21
    2c7a:	a0 1d       	adc	r26, r0
    2c7c:	08 95       	ret

00002c7e <__mulsi3>:
    2c7e:	62 9f       	mul	r22, r18
    2c80:	d0 01       	movw	r26, r0
    2c82:	73 9f       	mul	r23, r19
    2c84:	f0 01       	movw	r30, r0
    2c86:	82 9f       	mul	r24, r18
    2c88:	e0 0d       	add	r30, r0
    2c8a:	f1 1d       	adc	r31, r1
    2c8c:	64 9f       	mul	r22, r20
    2c8e:	e0 0d       	add	r30, r0
    2c90:	f1 1d       	adc	r31, r1
    2c92:	92 9f       	mul	r25, r18
    2c94:	f0 0d       	add	r31, r0
    2c96:	83 9f       	mul	r24, r19
    2c98:	f0 0d       	add	r31, r0
    2c9a:	74 9f       	mul	r23, r20
    2c9c:	f0 0d       	add	r31, r0
    2c9e:	65 9f       	mul	r22, r21
    2ca0:	f0 0d       	add	r31, r0
    2ca2:	99 27       	eor	r25, r25
    2ca4:	72 9f       	mul	r23, r18
    2ca6:	b0 0d       	add	r27, r0
    2ca8:	e1 1d       	adc	r30, r1
    2caa:	f9 1f       	adc	r31, r25
    2cac:	63 9f       	mul	r22, r19
    2cae:	b0 0d       	add	r27, r0
    2cb0:	e1 1d       	adc	r30, r1
    2cb2:	f9 1f       	adc	r31, r25
    2cb4:	bd 01       	movw	r22, r26
    2cb6:	cf 01       	movw	r24, r30
    2cb8:	11 24       	eor	r1, r1
    2cba:	08 95       	ret

00002cbc <__udivmodhi4>:
    2cbc:	aa 1b       	sub	r26, r26
    2cbe:	bb 1b       	sub	r27, r27
    2cc0:	51 e1       	ldi	r21, 0x11	; 17
    2cc2:	07 c0       	rjmp	.+14     	; 0x2cd2 <__udivmodhi4_ep>

00002cc4 <__udivmodhi4_loop>:
    2cc4:	aa 1f       	adc	r26, r26
    2cc6:	bb 1f       	adc	r27, r27
    2cc8:	a6 17       	cp	r26, r22
    2cca:	b7 07       	cpc	r27, r23
    2ccc:	10 f0       	brcs	.+4      	; 0x2cd2 <__udivmodhi4_ep>
    2cce:	a6 1b       	sub	r26, r22
    2cd0:	b7 0b       	sbc	r27, r23

00002cd2 <__udivmodhi4_ep>:
    2cd2:	88 1f       	adc	r24, r24
    2cd4:	99 1f       	adc	r25, r25
    2cd6:	5a 95       	dec	r21
    2cd8:	a9 f7       	brne	.-22     	; 0x2cc4 <__udivmodhi4_loop>
    2cda:	80 95       	com	r24
    2cdc:	90 95       	com	r25
    2cde:	bc 01       	movw	r22, r24
    2ce0:	cd 01       	movw	r24, r26
    2ce2:	08 95       	ret

00002ce4 <__udivmodsi4>:
    2ce4:	a1 e2       	ldi	r26, 0x21	; 33
    2ce6:	1a 2e       	mov	r1, r26
    2ce8:	aa 1b       	sub	r26, r26
    2cea:	bb 1b       	sub	r27, r27
    2cec:	fd 01       	movw	r30, r26
    2cee:	0d c0       	rjmp	.+26     	; 0x2d0a <__udivmodsi4_ep>

00002cf0 <__udivmodsi4_loop>:
    2cf0:	aa 1f       	adc	r26, r26
    2cf2:	bb 1f       	adc	r27, r27
    2cf4:	ee 1f       	adc	r30, r30
    2cf6:	ff 1f       	adc	r31, r31
    2cf8:	a2 17       	cp	r26, r18
    2cfa:	b3 07       	cpc	r27, r19
    2cfc:	e4 07       	cpc	r30, r20
    2cfe:	f5 07       	cpc	r31, r21
    2d00:	20 f0       	brcs	.+8      	; 0x2d0a <__udivmodsi4_ep>
    2d02:	a2 1b       	sub	r26, r18
    2d04:	b3 0b       	sbc	r27, r19
    2d06:	e4 0b       	sbc	r30, r20
    2d08:	f5 0b       	sbc	r31, r21

00002d0a <__udivmodsi4_ep>:
    2d0a:	66 1f       	adc	r22, r22
    2d0c:	77 1f       	adc	r23, r23
    2d0e:	88 1f       	adc	r24, r24
    2d10:	99 1f       	adc	r25, r25
    2d12:	1a 94       	dec	r1
    2d14:	69 f7       	brne	.-38     	; 0x2cf0 <__udivmodsi4_loop>
    2d16:	60 95       	com	r22
    2d18:	70 95       	com	r23
    2d1a:	80 95       	com	r24
    2d1c:	90 95       	com	r25
    2d1e:	9b 01       	movw	r18, r22
    2d20:	ac 01       	movw	r20, r24
    2d22:	bd 01       	movw	r22, r26
    2d24:	cf 01       	movw	r24, r30
    2d26:	08 95       	ret

00002d28 <__divmodsi4>:
    2d28:	97 fb       	bst	r25, 7
    2d2a:	09 2e       	mov	r0, r25
    2d2c:	05 26       	eor	r0, r21
    2d2e:	0e d0       	rcall	.+28     	; 0x2d4c <__divmodsi4_neg1>
    2d30:	57 fd       	sbrc	r21, 7
    2d32:	04 d0       	rcall	.+8      	; 0x2d3c <__divmodsi4_neg2>
    2d34:	d7 df       	rcall	.-82     	; 0x2ce4 <__udivmodsi4>
    2d36:	0a d0       	rcall	.+20     	; 0x2d4c <__divmodsi4_neg1>
    2d38:	00 1c       	adc	r0, r0
    2d3a:	38 f4       	brcc	.+14     	; 0x2d4a <__divmodsi4_exit>

00002d3c <__divmodsi4_neg2>:
    2d3c:	50 95       	com	r21
    2d3e:	40 95       	com	r20
    2d40:	30 95       	com	r19
    2d42:	21 95       	neg	r18
    2d44:	3f 4f       	sbci	r19, 0xFF	; 255
    2d46:	4f 4f       	sbci	r20, 0xFF	; 255
    2d48:	5f 4f       	sbci	r21, 0xFF	; 255

00002d4a <__divmodsi4_exit>:
    2d4a:	08 95       	ret

00002d4c <__divmodsi4_neg1>:
    2d4c:	f6 f7       	brtc	.-4      	; 0x2d4a <__divmodsi4_exit>
    2d4e:	90 95       	com	r25
    2d50:	80 95       	com	r24
    2d52:	70 95       	com	r23
    2d54:	61 95       	neg	r22
    2d56:	7f 4f       	sbci	r23, 0xFF	; 255
    2d58:	8f 4f       	sbci	r24, 0xFF	; 255
    2d5a:	9f 4f       	sbci	r25, 0xFF	; 255
    2d5c:	08 95       	ret

00002d5e <__prologue_saves__>:
    2d5e:	2f 92       	push	r2
    2d60:	3f 92       	push	r3
    2d62:	4f 92       	push	r4
    2d64:	5f 92       	push	r5
    2d66:	6f 92       	push	r6
    2d68:	7f 92       	push	r7
    2d6a:	8f 92       	push	r8
    2d6c:	9f 92       	push	r9
    2d6e:	af 92       	push	r10
    2d70:	bf 92       	push	r11
    2d72:	cf 92       	push	r12
    2d74:	df 92       	push	r13
    2d76:	ef 92       	push	r14
    2d78:	ff 92       	push	r15
    2d7a:	0f 93       	push	r16
    2d7c:	1f 93       	push	r17
    2d7e:	cf 93       	push	r28
    2d80:	df 93       	push	r29
    2d82:	cd b7       	in	r28, 0x3d	; 61
    2d84:	de b7       	in	r29, 0x3e	; 62
    2d86:	ca 1b       	sub	r28, r26
    2d88:	db 0b       	sbc	r29, r27
    2d8a:	0f b6       	in	r0, 0x3f	; 63
    2d8c:	f8 94       	cli
    2d8e:	de bf       	out	0x3e, r29	; 62
    2d90:	0f be       	out	0x3f, r0	; 63
    2d92:	cd bf       	out	0x3d, r28	; 61
    2d94:	09 94       	ijmp

00002d96 <__epilogue_restores__>:
    2d96:	2a 88       	ldd	r2, Y+18	; 0x12
    2d98:	39 88       	ldd	r3, Y+17	; 0x11
    2d9a:	48 88       	ldd	r4, Y+16	; 0x10
    2d9c:	5f 84       	ldd	r5, Y+15	; 0x0f
    2d9e:	6e 84       	ldd	r6, Y+14	; 0x0e
    2da0:	7d 84       	ldd	r7, Y+13	; 0x0d
    2da2:	8c 84       	ldd	r8, Y+12	; 0x0c
    2da4:	9b 84       	ldd	r9, Y+11	; 0x0b
    2da6:	aa 84       	ldd	r10, Y+10	; 0x0a
    2da8:	b9 84       	ldd	r11, Y+9	; 0x09
    2daa:	c8 84       	ldd	r12, Y+8	; 0x08
    2dac:	df 80       	ldd	r13, Y+7	; 0x07
    2dae:	ee 80       	ldd	r14, Y+6	; 0x06
    2db0:	fd 80       	ldd	r15, Y+5	; 0x05
    2db2:	0c 81       	ldd	r16, Y+4	; 0x04
    2db4:	1b 81       	ldd	r17, Y+3	; 0x03
    2db6:	aa 81       	ldd	r26, Y+2	; 0x02
    2db8:	b9 81       	ldd	r27, Y+1	; 0x01
    2dba:	ce 0f       	add	r28, r30
    2dbc:	d1 1d       	adc	r29, r1
    2dbe:	0f b6       	in	r0, 0x3f	; 63
    2dc0:	f8 94       	cli
    2dc2:	de bf       	out	0x3e, r29	; 62
    2dc4:	0f be       	out	0x3f, r0	; 63
    2dc6:	cd bf       	out	0x3d, r28	; 61
    2dc8:	ed 01       	movw	r28, r26
    2dca:	08 95       	ret

00002dcc <_exit>:
    2dcc:	f8 94       	cli

00002dce <__stop_program>:
    2dce:	ff cf       	rjmp	.-2      	; 0x2dce <__stop_program>
