Archive member included because of file (symbol)

/usr/lib/gcc/avr/4.3.3/avr5/libgcc.a(_mulsi3.o)
                              ./pt.o (__mulsi3)
/usr/lib/gcc/avr/4.3.3/avr5/libgcc.a(_udivmodhi4.o)
                              ./hw.o (__udivmodhi4)
/usr/lib/gcc/avr/4.3.3/avr5/libgcc.a(_udivmodsi4.o)
                              ./rtc.o (__udivmodsi4)
/usr/lib/gcc/avr/4.3.3/avr5/libgcc.a(_divmodsi4.o)
                              ./dlg.o (__divmodsi4)
/usr/lib/gcc/avr/4.3.3/avr5/libgcc.a(_exit.o)
                              /usr/lib/gcc/avr/4.3.3/../../../avr/lib/avr5/crtm168.o (exit)
/usr/lib/gcc/avr/4.3.3/avr5/libgcc.a(_copy_data.o)
                              ./dlg.o (__do_copy_data)
/usr/lib/gcc/avr/4.3.3/avr5/libgcc.a(_clear_bss.o)
                              ./dlg.o (__do_clear_bss)
/usr/lib/gcc/avr/4.3.3/../../../avr/lib/avr5/libc.a(eerd_block.o)
                              ./pt.o (__eerd_block)
/usr/lib/gcc/avr/4.3.3/../../../avr/lib/avr5/libc.a(eerd_dword.o)
                              ./main.o (__eerd_dword)
/usr/lib/gcc/avr/4.3.3/../../../avr/lib/avr5/libc.a(eerd_word.o)
                              ./hw.o (__eerd_word)
/usr/lib/gcc/avr/4.3.3/../../../avr/lib/avr5/libc.a(eewr_block.o)
                              ./pt.o (__eewr_block)
/usr/lib/gcc/avr/4.3.3/../../../avr/lib/avr5/libc.a(eewr_word.o)
                              ./pt.o (__eewr_word)
/usr/lib/gcc/avr/4.3.3/../../../avr/lib/avr5/libc.a(fputc.o)
                              ./dlg.o (fputc)
/usr/lib/gcc/avr/4.3.3/../../../avr/lib/avr5/libc.a(iob.o)
                              ./dlg.o (__iob)
/usr/lib/gcc/avr/4.3.3/../../../avr/lib/avr5/libc.a(printf_p.o)
                              ./dlg.o (printf_P)
/usr/lib/gcc/avr/4.3.3/../../../avr/lib/avr5/libc.a(vfprintf_std.o)
                              /usr/lib/gcc/avr/4.3.3/../../../avr/lib/avr5/libc.a(printf_p.o) (vfprintf)
/usr/lib/gcc/avr/4.3.3/../../../avr/lib/avr5/libc.a(strnlen_P.o)
                              /usr/lib/gcc/avr/4.3.3/../../../avr/lib/avr5/libc.a(vfprintf_std.o) (strnlen_P)
/usr/lib/gcc/avr/4.3.3/../../../avr/lib/avr5/libc.a(strnlen.o)
                              /usr/lib/gcc/avr/4.3.3/../../../avr/lib/avr5/libc.a(vfprintf_std.o) (strnlen)
/usr/lib/gcc/avr/4.3.3/../../../avr/lib/avr5/libc.a(ultoa_invert.o)
                              /usr/lib/gcc/avr/4.3.3/../../../avr/lib/avr5/libc.a(vfprintf_std.o) (__ultoa_invert)
/usr/lib/gcc/avr/4.3.3/avr5/libgcc.a(_prologue.o)
                              /usr/lib/gcc/avr/4.3.3/../../../avr/lib/avr5/libc.a(eerd_block.o) (__prologue_saves__)
/usr/lib/gcc/avr/4.3.3/avr5/libgcc.a(_epilogue.o)
                              /usr/lib/gcc/avr/4.3.3/../../../avr/lib/avr5/libc.a(eerd_block.o) (__epilogue_restores__)

Allocating common symbols
Common symbol       size              file

__iob               0x6               /usr/lib/gcc/avr/4.3.3/../../../avr/lib/avr5/libc.a(iob.o)

Memory Configuration

Name             Origin             Length             Attributes
text             0x0000000000000000 0x0000000000020000 xr
data             0x0000000000800060 0x000000000000ffa0 rw !x
eeprom           0x0000000000810000 0x0000000000010000 rw !x
fuse             0x0000000000820000 0x0000000000000400 rw !x
lock             0x0000000000830000 0x0000000000000400 rw !x
signature        0x0000000000840000 0x0000000000000400 rw !x
*default*        0x0000000000000000 0xffffffffffffffff

Linker script and memory map

Address of section .data set to 0x800100
LOAD /usr/lib/gcc/avr/4.3.3/../../../avr/lib/avr5/crtm168.o
LOAD ./dlg.o
LOAD ./eeprom.o
LOAD ./enc.o
LOAD ./hd44780.o
LOAD ./hw.o
LOAD ./lcd.o
LOAD ./main.o
LOAD ./pt.o
LOAD ./rtc.o
LOAD ./tinymenu.o
LOAD /usr/lib/gcc/avr/4.3.3/avr5/libgcc.a
LOAD /usr/lib/gcc/avr/4.3.3/../../../avr/lib/avr5/libc.a
LOAD /usr/lib/gcc/avr/4.3.3/avr5/libgcc.a

.hash
 *(.hash)

.dynsym
 *(.dynsym)

.dynstr
 *(.dynstr)

.gnu.version
 *(.gnu.version)

.gnu.version_d
 *(.gnu.version_d)

.gnu.version_r
 *(.gnu.version_r)

.rel.init
 *(.rel.init)

.rela.init
 *(.rela.init)

.rel.text
 *(.rel.text)
 *(.rel.text.*)
 *(.rel.gnu.linkonce.t*)

.rela.text
 *(.rela.text)
 *(.rela.text.*)
 *(.rela.gnu.linkonce.t*)

.rel.fini
 *(.rel.fini)

.rela.fini
 *(.rela.fini)

.rel.rodata
 *(.rel.rodata)
 *(.rel.rodata.*)
 *(.rel.gnu.linkonce.r*)

.rela.rodata
 *(.rela.rodata)
 *(.rela.rodata.*)
 *(.rela.gnu.linkonce.r*)

.rel.data
 *(.rel.data)
 *(.rel.data.*)
 *(.rel.gnu.linkonce.d*)

.rela.data
 *(.rela.data)
 *(.rela.data.*)
 *(.rela.gnu.linkonce.d*)

.rel.ctors
 *(.rel.ctors)

.rela.ctors
 *(.rela.ctors)

.rel.dtors
 *(.rel.dtors)

.rela.dtors
 *(.rela.dtors)

.rel.got
 *(.rel.got)

.rela.got
 *(.rela.got)

.rel.bss
 *(.rel.bss)

.rela.bss
 *(.rela.bss)

.rel.plt
 *(.rel.plt)

.rela.plt
 *(.rela.plt)

.text           0x0000000000000000     0x2dd0
 *(.vectors)
 .vectors       0x0000000000000000       0x68 /usr/lib/gcc/avr/4.3.3/../../../avr/lib/avr5/crtm168.o
                0x0000000000000000                __vectors
                0x0000000000000000                __vector_default
 *(.vectors)
 *(.progmem.gcc*)
 *(.progmem*)
 .progmem.data  0x0000000000000068       0xc6 ./dlg.o
 .progmem.data  0x000000000000012e       0x19 ./hw.o
 .progmem.data  0x0000000000000147       0x40 ./lcd.o
 .progmem.data  0x0000000000000187       0x2e ./main.o
 .progmem.data  0x00000000000001b5      0x154 ./pt.o
                0x000000000000030a                . = ALIGN (0x2)
 *fill*         0x0000000000000309        0x1 00
                0x000000000000030a                __trampolines_start = .
 *(.trampolines)
 .trampolines   0x000000000000030a        0x0 linker stubs
 *(.trampolines*)
                0x000000000000030a                __trampolines_end = .
 *(.jumptables)
 *(.jumptables*)
 *(.lowtext)
 *(.lowtext*)
                0x000000000000030a                __ctors_start = .
 *(.ctors)
                0x000000000000030a                __ctors_end = .
                0x000000000000030a                __dtors_start = .
 *(.dtors)
                0x000000000000030a                __dtors_end = .
 SORT(*)(.ctors)
 SORT(*)(.dtors)
 *(.init0)
 .init0         0x000000000000030a        0x0 /usr/lib/gcc/avr/4.3.3/../../../avr/lib/avr5/crtm168.o
                0x000000000000030a                __init
 *(.init0)
 *(.init1)
 *(.init1)
 *(.init2)
 .init2         0x000000000000030a        0xc /usr/lib/gcc/avr/4.3.3/../../../avr/lib/avr5/crtm168.o
 *(.init2)
 *(.init3)
 *(.init3)
 *(.init4)
 .init4         0x0000000000000316       0x16 /usr/lib/gcc/avr/4.3.3/avr5/libgcc.a(_copy_data.o)
                0x0000000000000316                __do_copy_data
 .init4         0x000000000000032c       0x10 /usr/lib/gcc/avr/4.3.3/avr5/libgcc.a(_clear_bss.o)
                0x000000000000032c                __do_clear_bss
 *(.init4)
 *(.init5)
 *(.init5)
 *(.init6)
 *(.init6)
 *(.init7)
 *(.init7)
 *(.init8)
 *(.init8)
 *(.init9)
 .init9         0x000000000000033c        0x8 /usr/lib/gcc/avr/4.3.3/../../../avr/lib/avr5/crtm168.o
 *(.init9)
 *(.text)
 .text          0x0000000000000344        0x4 /usr/lib/gcc/avr/4.3.3/../../../avr/lib/avr5/crtm168.o
                0x0000000000000344                __vector_22
                0x0000000000000344                __vector_1
                0x0000000000000344                __vector_24
                0x0000000000000344                __vector_12
                0x0000000000000344                __bad_interrupt
                0x0000000000000344                __vector_6
                0x0000000000000344                __vector_3
                0x0000000000000344                __vector_23
                0x0000000000000344                __vector_25
                0x0000000000000344                __vector_11
                0x0000000000000344                __vector_17
                0x0000000000000344                __vector_19
                0x0000000000000344                __vector_7
                0x0000000000000344                __vector_5
                0x0000000000000344                __vector_4
                0x0000000000000344                __vector_2
                0x0000000000000344                __vector_21
                0x0000000000000344                __vector_15
                0x0000000000000344                __vector_8
                0x0000000000000344                __vector_14
                0x0000000000000344                __vector_10
                0x0000000000000344                __vector_18
                0x0000000000000344                __vector_20
 .text          0x0000000000000348      0x93a ./dlg.o
                0x00000000000005aa                dlgInfo_P
                0x0000000000000932                dlgYesNo
                0x0000000000000348                dlgIncVar
                0x0000000000000448                dlgPrintBulb
                0x00000000000004b2                dlgPrintTimeLeft
                0x00000000000003c2                dlgPrintCountAndTime
                0x00000000000009a2                dlgSetTime
                0x00000000000005e4                dlgPrintSel
                0x0000000000000668                dlgSetVar
 .text          0x0000000000000c82        0x0 ./eeprom.o
 .text          0x0000000000000c82      0x14c ./enc.o
                0x0000000000000cda                encClrKeyBuf
                0x0000000000000c82                encGetKey
                0x0000000000000cf0                __vector_16
 .text          0x0000000000000dce      0x110 ./hd44780.o
                0x0000000000000e5c                hd44780_wait_ready
                0x0000000000000e68                hd44780_init
                0x0000000000000dce                hd44780_outbyte
                0x0000000000000e0a                hd44780_inbyte
 .text          0x0000000000000ede      0x3cc ./hw.o
                0x0000000000000f52                hwSetupT2
                0x000000000000103c                hwLCDOff
                0x0000000000000f7e                hwSetupPwr
                0x0000000000000f20                hwSetupT0
                0x0000000000001048                hwEncOn
                0x0000000000001060                hwEncOff
                0x0000000000001080                hwGetADC
                0x0000000000000f98                hwSetupAll
                0x0000000000000f0e                hwSetupADC
                0x0000000000001190                hwEnterPwrSave
                0x00000000000010ec                hwMulCoeff
                0x000000000000107a                hwIsPwrOn
                0x00000000000010a8                hwGetBattVol
                0x0000000000000eee                hwSetupPorts
                0x0000000000000f32                hwSetupT1
 .text          0x00000000000012aa      0x268 ./lcd.o
                0x000000000000132c                lcd_setxy
                0x0000000000001352                lcd_clr
                0x00000000000012dc                lcd_setfont
                0x000000000000141e                __vector_13
                0x00000000000012aa                lcd_setbacklight
                0x00000000000013ac                lcd_init
                0x0000000000001360                lcd_putchar
 .text          0x0000000000001512       0xa8 ./main.o
                0x0000000000001576                checkMagic
                0x0000000000001594                main
                0x0000000000001522                setNewTime
 .text          0x00000000000015ba      0xa0a ./pt.o
                0x0000000000001a10                handleAbout
                0x00000000000017f4                startPT
                0x0000000000001bb6                doBulb
                0x00000000000019d0                handleSetTime
                0x000000000000183e                handleClock
                0x0000000000001c46                handleBulb
                0x0000000000001d40                handleTL
                0x00000000000019ae                glueSetBL
                0x00000000000016d0                handleShutRelTime
                0x0000000000001a88                waitForStart
                0x00000000000015e4                glueSetContr
                0x00000000000018ec                handleLCDBacklight
                0x000000000000174a                handleBattVoltage
                0x0000000000001600                handleLCDContr
                0x0000000000001b14                waitForNextPhoto
                0x0000000000001fbe                handlePowerOff
 .text          0x0000000000001fc4      0x398 ./rtc.o
                0x0000000000001fc4                rtcGetSysTime
                0x00000000000021c4                rtcUpdInactTimer
                0x00000000000020d6                rtcGetStatTimer
                0x000000000000205c                rtcInt2Tm
                0x000000000000213c                rtcWaitMs
                0x0000000000002136                rtcGetPwrOnFlag
                0x0000000000002108                rtcSetStatTimer
                0x00000000000021e4                __vector_9
                0x0000000000001ff8                rtcTm2Int
                0x000000000000212c                rtcSyncToSec
                0x0000000000002150                rtcDec1sFromTm
                0x0000000000001fdc                rtcSetSysTime
 .text          0x000000000000235c      0x2ca ./tinymenu.o
                0x00000000000024b4                menu_exit
                0x00000000000024d6                menu_prev_entry
                0x000000000000258a                menu_select
                0x000000000000235c                menu_display
                0x0000000000002498                menu_enter
                0x0000000000002526                menu_next_entry
 .text          0x0000000000002626        0x0 /usr/lib/gcc/avr/4.3.3/avr5/libgcc.a(_mulsi3.o)
 .text          0x0000000000002626        0x0 /usr/lib/gcc/avr/4.3.3/avr5/libgcc.a(_udivmodhi4.o)
 .text          0x0000000000002626        0x0 /usr/lib/gcc/avr/4.3.3/avr5/libgcc.a(_udivmodsi4.o)
 .text          0x0000000000002626        0x0 /usr/lib/gcc/avr/4.3.3/avr5/libgcc.a(_divmodsi4.o)
 .text          0x0000000000002626        0x0 /usr/lib/gcc/avr/4.3.3/avr5/libgcc.a(_exit.o)
 .text          0x0000000000002626        0x0 /usr/lib/gcc/avr/4.3.3/avr5/libgcc.a(_copy_data.o)
 .text          0x0000000000002626        0x0 /usr/lib/gcc/avr/4.3.3/avr5/libgcc.a(_clear_bss.o)
 .text          0x0000000000002626       0x38 /usr/lib/gcc/avr/4.3.3/../../../avr/lib/avr5/libc.a(eerd_block.o)
                0x0000000000002626                __eerd_block
 .text          0x000000000000265e       0x4c /usr/lib/gcc/avr/4.3.3/../../../avr/lib/avr5/libc.a(eerd_dword.o)
                0x000000000000265e                __eerd_dword
 .text          0x00000000000026aa       0x2c /usr/lib/gcc/avr/4.3.3/../../../avr/lib/avr5/libc.a(eerd_word.o)
                0x00000000000026aa                __eerd_word
 .text          0x00000000000026d6       0x38 /usr/lib/gcc/avr/4.3.3/../../../avr/lib/avr5/libc.a(eewr_block.o)
                0x00000000000026d6                __eewr_block
 .text          0x000000000000270e       0x2a /usr/lib/gcc/avr/4.3.3/../../../avr/lib/avr5/libc.a(eewr_word.o)
                0x000000000000270e                __eewr_word
 .text          0x0000000000002738       0x58 /usr/lib/gcc/avr/4.3.3/../../../avr/lib/avr5/libc.a(fputc.o)
                0x0000000000002738                fputc
 .text          0x0000000000002790        0x0 /usr/lib/gcc/avr/4.3.3/../../../avr/lib/avr5/libc.a(iob.o)
 .text          0x0000000000002790       0x4c /usr/lib/gcc/avr/4.3.3/../../../avr/lib/avr5/libc.a(printf_p.o)
                0x0000000000002790                printf_P
 .text          0x00000000000027dc      0x3ba /usr/lib/gcc/avr/4.3.3/../../../avr/lib/avr5/libc.a(vfprintf_std.o)
                0x00000000000027dc                vfprintf
 .text          0x0000000000002b96       0x16 /usr/lib/gcc/avr/4.3.3/../../../avr/lib/avr5/libc.a(strnlen_P.o)
                0x0000000000002b96                strnlen_P
 .text          0x0000000000002bac       0x16 /usr/lib/gcc/avr/4.3.3/../../../avr/lib/avr5/libc.a(strnlen.o)
                0x0000000000002bac                strnlen
 .text          0x0000000000002bc2       0xbc /usr/lib/gcc/avr/4.3.3/../../../avr/lib/avr5/libc.a(ultoa_invert.o)
                0x0000000000002bc2                __ultoa_invert
 .text          0x0000000000002c7e        0x0 /usr/lib/gcc/avr/4.3.3/avr5/libgcc.a(_prologue.o)
 .text          0x0000000000002c7e        0x0 /usr/lib/gcc/avr/4.3.3/avr5/libgcc.a(_epilogue.o)
                0x0000000000002c7e                . = ALIGN (0x2)
 *(.text.*)
 .text.libgcc   0x0000000000002c7e       0x3e /usr/lib/gcc/avr/4.3.3/avr5/libgcc.a(_mulsi3.o)
                0x0000000000002c7e                __mulsi3
 .text.libgcc   0x0000000000002cbc       0x28 /usr/lib/gcc/avr/4.3.3/avr5/libgcc.a(_udivmodhi4.o)
                0x0000000000002cbc                __udivmodhi4
 .text.libgcc   0x0000000000002ce4       0x44 /usr/lib/gcc/avr/4.3.3/avr5/libgcc.a(_udivmodsi4.o)
                0x0000000000002ce4                __udivmodsi4
 .text.libgcc   0x0000000000002d28       0x36 /usr/lib/gcc/avr/4.3.3/avr5/libgcc.a(_divmodsi4.o)
                0x0000000000002d28                __divmodsi4
 .text.libgcc   0x0000000000002d5e        0x0 /usr/lib/gcc/avr/4.3.3/avr5/libgcc.a(_exit.o)
 .text.libgcc   0x0000000000002d5e        0x0 /usr/lib/gcc/avr/4.3.3/avr5/libgcc.a(_copy_data.o)
 .text.libgcc   0x0000000000002d5e        0x0 /usr/lib/gcc/avr/4.3.3/avr5/libgcc.a(_clear_bss.o)
 .text.libgcc   0x0000000000002d5e       0x38 /usr/lib/gcc/avr/4.3.3/avr5/libgcc.a(_prologue.o)
                0x0000000000002d5e                __prologue_saves__
 .text.libgcc   0x0000000000002d96       0x36 /usr/lib/gcc/avr/4.3.3/avr5/libgcc.a(_epilogue.o)
                0x0000000000002d96                __epilogue_restores__
                0x0000000000002dcc                . = ALIGN (0x2)
 *(.fini9)
 .fini9         0x0000000000002dcc        0x0 /usr/lib/gcc/avr/4.3.3/avr5/libgcc.a(_exit.o)
                0x0000000000002dcc                exit
                0x0000000000002dcc                _exit
 *(.fini9)
 *(.fini8)
 *(.fini8)
 *(.fini7)
 *(.fini7)
 *(.fini6)
 *(.fini6)
 *(.fini5)
 *(.fini5)
 *(.fini4)
 *(.fini4)
 *(.fini3)
 *(.fini3)
 *(.fini2)
 *(.fini2)
 *(.fini1)
 *(.fini1)
 *(.fini0)
 .fini0         0x0000000000002dcc        0x4 /usr/lib/gcc/avr/4.3.3/avr5/libgcc.a(_exit.o)
 *(.fini0)
                0x0000000000002dd0                _etext = .

.data           0x0000000000800100      0x1f4 load address 0x0000000000002dd0
                0x0000000000800100                PROVIDE (__data_start, .)
 *(.data)
 .data          0x0000000000800100        0x0 /usr/lib/gcc/avr/4.3.3/../../../avr/lib/avr5/crtm168.o
 .data          0x0000000000800100       0x39 ./dlg.o
 .data          0x0000000000800139        0x0 ./eeprom.o
 .data          0x0000000000800139        0x0 ./enc.o
 .data          0x0000000000800139        0x0 ./hd44780.o
 .data          0x0000000000800139        0x0 ./hw.o
 .data          0x0000000000800139        0xe ./lcd.o
                0x0000000000800139                lcd_str
 .data          0x0000000000800147        0x3 ./main.o
 .data          0x000000000080014a      0x1a5 ./pt.o
                0x000000000080015b                TL_menu
                0x00000000008002e9                menu_context
                0x0000000000800290                main_menu
                0x00000000008001e3                settings_menu
                0x000000000080019f                bulb_menu
 .data          0x00000000008002ef        0x5 ./rtc.o
 .data          0x00000000008002f4        0x0 ./tinymenu.o
 .data          0x00000000008002f4        0x0 /usr/lib/gcc/avr/4.3.3/avr5/libgcc.a(_mulsi3.o)
 .data          0x00000000008002f4        0x0 /usr/lib/gcc/avr/4.3.3/avr5/libgcc.a(_udivmodhi4.o)
 .data          0x00000000008002f4        0x0 /usr/lib/gcc/avr/4.3.3/avr5/libgcc.a(_udivmodsi4.o)
 .data          0x00000000008002f4        0x0 /usr/lib/gcc/avr/4.3.3/avr5/libgcc.a(_divmodsi4.o)
 .data          0x00000000008002f4        0x0 /usr/lib/gcc/avr/4.3.3/avr5/libgcc.a(_exit.o)
 .data          0x00000000008002f4        0x0 /usr/lib/gcc/avr/4.3.3/avr5/libgcc.a(_copy_data.o)
 .data          0x00000000008002f4        0x0 /usr/lib/gcc/avr/4.3.3/avr5/libgcc.a(_clear_bss.o)
 .data          0x00000000008002f4        0x0 /usr/lib/gcc/avr/4.3.3/../../../avr/lib/avr5/libc.a(eerd_block.o)
 .data          0x00000000008002f4        0x0 /usr/lib/gcc/avr/4.3.3/../../../avr/lib/avr5/libc.a(eerd_dword.o)
 .data          0x00000000008002f4        0x0 /usr/lib/gcc/avr/4.3.3/../../../avr/lib/avr5/libc.a(eerd_word.o)
 .data          0x00000000008002f4        0x0 /usr/lib/gcc/avr/4.3.3/../../../avr/lib/avr5/libc.a(eewr_block.o)
 .data          0x00000000008002f4        0x0 /usr/lib/gcc/avr/4.3.3/../../../avr/lib/avr5/libc.a(eewr_word.o)
 .data          0x00000000008002f4        0x0 /usr/lib/gcc/avr/4.3.3/../../../avr/lib/avr5/libc.a(fputc.o)
 .data          0x00000000008002f4        0x0 /usr/lib/gcc/avr/4.3.3/../../../avr/lib/avr5/libc.a(iob.o)
 .data          0x00000000008002f4        0x0 /usr/lib/gcc/avr/4.3.3/../../../avr/lib/avr5/libc.a(printf_p.o)
 .data          0x00000000008002f4        0x0 /usr/lib/gcc/avr/4.3.3/../../../avr/lib/avr5/libc.a(vfprintf_std.o)
 .data          0x00000000008002f4        0x0 /usr/lib/gcc/avr/4.3.3/../../../avr/lib/avr5/libc.a(strnlen_P.o)
 .data          0x00000000008002f4        0x0 /usr/lib/gcc/avr/4.3.3/../../../avr/lib/avr5/libc.a(strnlen.o)
 .data          0x00000000008002f4        0x0 /usr/lib/gcc/avr/4.3.3/../../../avr/lib/avr5/libc.a(ultoa_invert.o)
 .data          0x00000000008002f4        0x0 /usr/lib/gcc/avr/4.3.3/avr5/libgcc.a(_prologue.o)
 .data          0x00000000008002f4        0x0 /usr/lib/gcc/avr/4.3.3/avr5/libgcc.a(_epilogue.o)
 *(.data*)
 *(.rodata)
 *(.rodata*)
 *(.gnu.linkonce.d*)
                0x00000000008002f4                . = ALIGN (0x2)
                0x00000000008002f4                _edata = .
                0x00000000008002f4                PROVIDE (__data_end, .)

.bss            0x00000000008002f4       0x1c load address 0x0000000000002fc4
                0x00000000008002f4                PROVIDE (__bss_start, .)
 *(.bss)
 .bss           0x00000000008002f4        0x0 /usr/lib/gcc/avr/4.3.3/../../../avr/lib/avr5/crtm168.o
 .bss           0x00000000008002f4        0x0 ./dlg.o
 .bss           0x00000000008002f4        0x0 ./eeprom.o
 .bss           0x00000000008002f4        0x5 ./enc.o
 .bss           0x00000000008002f9        0x0 ./hd44780.o
 .bss           0x00000000008002f9        0x1 ./hw.o
 .bss           0x00000000008002fa        0x4 ./lcd.o
 .bss           0x00000000008002fe        0x0 ./main.o
 .bss           0x00000000008002fe        0x0 ./pt.o
 .bss           0x00000000008002fe        0xc ./rtc.o
 .bss           0x000000000080030a        0x0 ./tinymenu.o
 .bss           0x000000000080030a        0x0 /usr/lib/gcc/avr/4.3.3/avr5/libgcc.a(_mulsi3.o)
 .bss           0x000000000080030a        0x0 /usr/lib/gcc/avr/4.3.3/avr5/libgcc.a(_udivmodhi4.o)
 .bss           0x000000000080030a        0x0 /usr/lib/gcc/avr/4.3.3/avr5/libgcc.a(_udivmodsi4.o)
 .bss           0x000000000080030a        0x0 /usr/lib/gcc/avr/4.3.3/avr5/libgcc.a(_divmodsi4.o)
 .bss           0x000000000080030a        0x0 /usr/lib/gcc/avr/4.3.3/avr5/libgcc.a(_exit.o)
 .bss           0x000000000080030a        0x0 /usr/lib/gcc/avr/4.3.3/avr5/libgcc.a(_copy_data.o)
 .bss           0x000000000080030a        0x0 /usr/lib/gcc/avr/4.3.3/avr5/libgcc.a(_clear_bss.o)
 .bss           0x000000000080030a        0x0 /usr/lib/gcc/avr/4.3.3/../../../avr/lib/avr5/libc.a(eerd_block.o)
 .bss           0x000000000080030a        0x0 /usr/lib/gcc/avr/4.3.3/../../../avr/lib/avr5/libc.a(eerd_dword.o)
 .bss           0x000000000080030a        0x0 /usr/lib/gcc/avr/4.3.3/../../../avr/lib/avr5/libc.a(eerd_word.o)
 .bss           0x000000000080030a        0x0 /usr/lib/gcc/avr/4.3.3/../../../avr/lib/avr5/libc.a(eewr_block.o)
 .bss           0x000000000080030a        0x0 /usr/lib/gcc/avr/4.3.3/../../../avr/lib/avr5/libc.a(eewr_word.o)
 .bss           0x000000000080030a        0x0 /usr/lib/gcc/avr/4.3.3/../../../avr/lib/avr5/libc.a(fputc.o)
 .bss           0x000000000080030a        0x0 /usr/lib/gcc/avr/4.3.3/../../../avr/lib/avr5/libc.a(iob.o)
 .bss           0x000000000080030a        0x0 /usr/lib/gcc/avr/4.3.3/../../../avr/lib/avr5/libc.a(printf_p.o)
 .bss           0x000000000080030a        0x0 /usr/lib/gcc/avr/4.3.3/../../../avr/lib/avr5/libc.a(vfprintf_std.o)
 .bss           0x000000000080030a        0x0 /usr/lib/gcc/avr/4.3.3/../../../avr/lib/avr5/libc.a(strnlen_P.o)
 .bss           0x000000000080030a        0x0 /usr/lib/gcc/avr/4.3.3/../../../avr/lib/avr5/libc.a(strnlen.o)
 .bss           0x000000000080030a        0x0 /usr/lib/gcc/avr/4.3.3/../../../avr/lib/avr5/libc.a(ultoa_invert.o)
 .bss           0x000000000080030a        0x0 /usr/lib/gcc/avr/4.3.3/avr5/libgcc.a(_prologue.o)
 .bss           0x000000000080030a        0x0 /usr/lib/gcc/avr/4.3.3/avr5/libgcc.a(_epilogue.o)
 *(.bss*)
 *(COMMON)
 COMMON         0x000000000080030a        0x6 /usr/lib/gcc/avr/4.3.3/../../../avr/lib/avr5/libc.a(iob.o)
                0x000000000080030a                __iob
                0x0000000000800310                PROVIDE (__bss_end, .)
                0x0000000000002dd0                __data_load_start = LOADADDR (.data)
                0x0000000000002fc4                __data_load_end = (__data_load_start + SIZEOF (.data))

.noinit         0x0000000000800310        0x0
                0x0000000000800310                PROVIDE (__noinit_start, .)
 *(.noinit*)
                0x0000000000800310                PROVIDE (__noinit_end, .)
                0x0000000000800310                _end = .
                0x0000000000800310                PROVIDE (__heap_start, .)

.eeprom         0x0000000000810000       0x16
 *(.eeprom*)
 .eeprom        0x0000000000810000       0x16 ./eeprom.o
                0x0000000000810013                eebbulb
                0x0000000000810007                eetltotal
                0x0000000000810005                eebacklight
                0x000000000081000d                eetlbulb
                0x000000000081000b                eetlshutreltime
                0x0000000000810010                eetlperiod
                0x0000000000810000                eemagic
                0x0000000000810004                eecontr
                0x0000000000810016                __eeprom_end = .

.fuse
 *(.fuse)
 *(.lfuse)
 *(.hfuse)
 *(.efuse)

.lock
 *(.lock*)

.signature
 *(.signature*)

.stab           0x0000000000000000     0x2520
 *(.stab)
 .stab          0x0000000000000000      0x6b4 /usr/lib/gcc/avr/4.3.3/../../../avr/lib/avr5/crtm168.o
 .stab          0x00000000000006b4      0x39c /usr/lib/gcc/avr/4.3.3/../../../avr/lib/avr5/libc.a(eerd_block.o)
                                        0x3a8 (size before relaxing)
 .stab          0x0000000000000a50      0x1b0 /usr/lib/gcc/avr/4.3.3/../../../avr/lib/avr5/libc.a(eerd_dword.o)
                                        0x390 (size before relaxing)
 .stab          0x0000000000000c00      0x198 /usr/lib/gcc/avr/4.3.3/../../../avr/lib/avr5/libc.a(eerd_word.o)
                                        0x378 (size before relaxing)
 .stab          0x0000000000000d98      0x1c8 /usr/lib/gcc/avr/4.3.3/../../../avr/lib/avr5/libc.a(eewr_block.o)
                                        0x3a8 (size before relaxing)
 .stab          0x0000000000000f60      0x198 /usr/lib/gcc/avr/4.3.3/../../../avr/lib/avr5/libc.a(eewr_word.o)
                                        0x378 (size before relaxing)
 .stab          0x00000000000010f8      0x228 /usr/lib/gcc/avr/4.3.3/../../../avr/lib/avr5/libc.a(fputc.o)
                                        0x3b4 (size before relaxing)
 .stab          0x0000000000001320      0x12c /usr/lib/gcc/avr/4.3.3/../../../avr/lib/avr5/libc.a(iob.o)
                                        0x30c (size before relaxing)
 .stab          0x000000000000144c      0x1a4 /usr/lib/gcc/avr/4.3.3/../../../avr/lib/avr5/libc.a(printf_p.o)
                                        0x384 (size before relaxing)
 .stab          0x00000000000015f0      0x978 /usr/lib/gcc/avr/4.3.3/../../../avr/lib/avr5/libc.a(vfprintf_std.o)
                                        0xb58 (size before relaxing)
 .stab          0x0000000000001f68       0x9c /usr/lib/gcc/avr/4.3.3/../../../avr/lib/avr5/libc.a(strnlen_P.o)
                                         0xa8 (size before relaxing)
 .stab          0x0000000000002004       0x9c /usr/lib/gcc/avr/4.3.3/../../../avr/lib/avr5/libc.a(strnlen.o)
                                         0xa8 (size before relaxing)
 .stab          0x00000000000020a0      0x480 /usr/lib/gcc/avr/4.3.3/../../../avr/lib/avr5/libc.a(ultoa_invert.o)
                                        0x48c (size before relaxing)

.stabstr        0x0000000000000000      0xf37
 *(.stabstr)
 .stabstr       0x0000000000000000      0xf37 /usr/lib/gcc/avr/4.3.3/../../../avr/lib/avr5/crtm168.o

.stab.excl
 *(.stab.excl)

.stab.exclstr
 *(.stab.exclstr)

.stab.index
 *(.stab.index)

.stab.indexstr
 *(.stab.indexstr)

.comment
 *(.comment)

.debug
 *(.debug)

.line
 *(.line)

.debug_srcinfo
 *(.debug_srcinfo)

.debug_sfnames
 *(.debug_sfnames)

.debug_aranges
 *(.debug_aranges)

.debug_pubnames
 *(.debug_pubnames)

.debug_info
 *(.debug_info)
 *(.gnu.linkonce.wi.*)

.debug_abbrev
 *(.debug_abbrev)

.debug_line
 *(.debug_line)

.debug_frame
 *(.debug_frame)

.debug_str
 *(.debug_str)

.debug_loc
 *(.debug_loc)

.debug_macinfo
 *(.debug_macinfo)
OUTPUT(phototrigger.elf elf32-avr)
LOAD linker stubs
