
ER_Controller.elf:     file format elf32-avr

Sections:
Idx Name          Size      VMA       LMA       File off  Algn
  0 .data         00000002  00800100  00000a72  00000b06  2**0
                  CONTENTS, ALLOC, LOAD, DATA
  1 .text         00000a72  00000000  00000000  00000094  2**1
                  CONTENTS, ALLOC, LOAD, READONLY, CODE
  2 .bss          00000015  00800102  00800102  00000b08  2**0
                  ALLOC
  3 .stab         000016d4  00000000  00000000  00000b08  2**2
                  CONTENTS, READONLY, DEBUGGING
  4 .stabstr      000004c0  00000000  00000000  000021dc  2**0
                  CONTENTS, READONLY, DEBUGGING
  5 .debug_aranges 00000060  00000000  00000000  000026a0  2**3
                  CONTENTS, READONLY, DEBUGGING
  6 .debug_info   0000029a  00000000  00000000  00002700  2**0
                  CONTENTS, READONLY, DEBUGGING
  7 .debug_abbrev 0000003c  00000000  00000000  0000299a  2**0
                  CONTENTS, READONLY, DEBUGGING
  8 .debug_line   000001a7  00000000  00000000  000029d6  2**0
                  CONTENTS, READONLY, DEBUGGING

Disassembly of section .text:

00000000 <__vectors>:
   0:	1b c0       	rjmp	.+54     	; 0x38 <__ctors_end>
   2:	35 c0       	rjmp	.+106    	; 0x6e <__bad_interrupt>
   4:	34 c0       	rjmp	.+104    	; 0x6e <__bad_interrupt>
   6:	33 c0       	rjmp	.+102    	; 0x6e <__bad_interrupt>
   8:	32 c0       	rjmp	.+100    	; 0x6e <__bad_interrupt>
   a:	4b c2       	rjmp	.+1174   	; 0x4a2 <__vector_5>
   c:	30 c0       	rjmp	.+96     	; 0x6e <__bad_interrupt>
   e:	2f c0       	rjmp	.+94     	; 0x6e <__bad_interrupt>
  10:	2e c0       	rjmp	.+92     	; 0x6e <__bad_interrupt>
  12:	2d c0       	rjmp	.+90     	; 0x6e <__bad_interrupt>
  14:	2c c0       	rjmp	.+88     	; 0x6e <__bad_interrupt>
  16:	2b c0       	rjmp	.+86     	; 0x6e <__bad_interrupt>
  18:	2a c0       	rjmp	.+84     	; 0x6e <__bad_interrupt>
  1a:	29 c0       	rjmp	.+82     	; 0x6e <__bad_interrupt>
  1c:	6a c0       	rjmp	.+212    	; 0xf2 <__vector_14>
  1e:	27 c0       	rjmp	.+78     	; 0x6e <__bad_interrupt>
  20:	26 c0       	rjmp	.+76     	; 0x6e <__bad_interrupt>
  22:	25 c0       	rjmp	.+74     	; 0x6e <__bad_interrupt>
  24:	24 c0       	rjmp	.+72     	; 0x6e <__bad_interrupt>
  26:	23 c0       	rjmp	.+70     	; 0x6e <__bad_interrupt>

00000028 <timing_values_PGM>:
  28:	01 02 05 0a 0f 14 19 1e 23 28 2d 32 37 3c 5a 78     ........#(-27<Zx

00000038 <__ctors_end>:
  38:	11 24       	eor	r1, r1
  3a:	1f be       	out	0x3f, r1	; 63
  3c:	cf ef       	ldi	r28, 0xFF	; 255
  3e:	d2 e0       	ldi	r29, 0x02	; 2
  40:	de bf       	out	0x3e, r29	; 62
  42:	cd bf       	out	0x3d, r28	; 61

00000044 <__do_copy_data>:
  44:	11 e0       	ldi	r17, 0x01	; 1
  46:	a0 e0       	ldi	r26, 0x00	; 0
  48:	b1 e0       	ldi	r27, 0x01	; 1
  4a:	e2 e7       	ldi	r30, 0x72	; 114
  4c:	fa e0       	ldi	r31, 0x0A	; 10
  4e:	02 c0       	rjmp	.+4      	; 0x54 <__do_copy_data+0x10>
  50:	05 90       	lpm	r0, Z+
  52:	0d 92       	st	X+, r0
  54:	a2 30       	cpi	r26, 0x02	; 2
  56:	b1 07       	cpc	r27, r17
  58:	d9 f7       	brne	.-10     	; 0x50 <__do_copy_data+0xc>

0000005a <__do_clear_bss>:
  5a:	11 e0       	ldi	r17, 0x01	; 1
  5c:	a2 e0       	ldi	r26, 0x02	; 2
  5e:	b1 e0       	ldi	r27, 0x01	; 1
  60:	01 c0       	rjmp	.+2      	; 0x64 <.do_clear_bss_start>

00000062 <.do_clear_bss_loop>:
  62:	1d 92       	st	X+, r1

00000064 <.do_clear_bss_start>:
  64:	a7 31       	cpi	r26, 0x17	; 23
  66:	b1 07       	cpc	r27, r17
  68:	e1 f7       	brne	.-8      	; 0x62 <.do_clear_bss_loop>
  6a:	2a d3       	rcall	.+1620   	; 0x6c0 <main>
  6c:	00 c5       	rjmp	.+2560   	; 0xa6e <_exit>

0000006e <__bad_interrupt>:
  6e:	c8 cf       	rjmp	.-112    	; 0x0 <__vectors>

00000070 <getInputs>:
  70:	89 b1       	in	r24, 0x09	; 9
  72:	83 7b       	andi	r24, 0xB3	; 179
  74:	80 93 07 01 	sts	0x0107, r24
  78:	80 91 07 01 	lds	r24, 0x0107
  7c:	80 ff       	sbrs	r24, 0
  7e:	04 c0       	rjmp	.+8      	; 0x88 <getInputs+0x18>
  80:	81 e0       	ldi	r24, 0x01	; 1
  82:	80 93 13 01 	sts	0x0113, r24
  86:	02 c0       	rjmp	.+4      	; 0x8c <getInputs+0x1c>
  88:	10 92 13 01 	sts	0x0113, r1
  8c:	80 91 07 01 	lds	r24, 0x0107
  90:	81 ff       	sbrs	r24, 1
  92:	03 c0       	rjmp	.+6      	; 0x9a <getInputs+0x2a>
  94:	10 92 16 01 	sts	0x0116, r1
  98:	03 c0       	rjmp	.+6      	; 0xa0 <getInputs+0x30>
  9a:	81 e0       	ldi	r24, 0x01	; 1
  9c:	80 93 16 01 	sts	0x0116, r24
  a0:	80 91 07 01 	lds	r24, 0x0107
  a4:	84 ff       	sbrs	r24, 4
  a6:	04 c0       	rjmp	.+8      	; 0xb0 <getInputs+0x40>
  a8:	81 e0       	ldi	r24, 0x01	; 1
  aa:	80 93 15 01 	sts	0x0115, r24
  ae:	02 c0       	rjmp	.+4      	; 0xb4 <getInputs+0x44>
  b0:	10 92 15 01 	sts	0x0115, r1
  b4:	80 91 07 01 	lds	r24, 0x0107
  b8:	85 ff       	sbrs	r24, 5
  ba:	04 c0       	rjmp	.+8      	; 0xc4 <getInputs+0x54>
  bc:	81 e0       	ldi	r24, 0x01	; 1
  be:	80 93 14 01 	sts	0x0114, r24
  c2:	02 c0       	rjmp	.+4      	; 0xc8 <getInputs+0x58>
  c4:	10 92 14 01 	sts	0x0114, r1
  c8:	80 91 07 01 	lds	r24, 0x0107
  cc:	85 ff       	sbrs	r24, 5
  ce:	04 c0       	rjmp	.+8      	; 0xd8 <getInputs+0x68>
  d0:	81 e0       	ldi	r24, 0x01	; 1
  d2:	80 93 14 01 	sts	0x0114, r24
  d6:	02 c0       	rjmp	.+4      	; 0xdc <getInputs+0x6c>
  d8:	10 92 14 01 	sts	0x0114, r1
  dc:	80 91 07 01 	lds	r24, 0x0107
  e0:	87 ff       	sbrs	r24, 7
  e2:	03 c0       	rjmp	.+6      	; 0xea <getInputs+0x7a>
  e4:	10 92 12 01 	sts	0x0112, r1
  e8:	08 95       	ret
  ea:	81 e0       	ldi	r24, 0x01	; 1
  ec:	80 93 12 01 	sts	0x0112, r24
  f0:	08 95       	ret

000000f2 <__vector_14>:
  f2:	1f 92       	push	r1
  f4:	0f 92       	push	r0
  f6:	0f b6       	in	r0, 0x3f	; 63
  f8:	0f 92       	push	r0
  fa:	11 24       	eor	r1, r1
  fc:	2f 93       	push	r18
  fe:	3f 93       	push	r19
 100:	4f 93       	push	r20
 102:	5f 93       	push	r21
 104:	6f 93       	push	r22
 106:	7f 93       	push	r23
 108:	8f 93       	push	r24
 10a:	9f 93       	push	r25
 10c:	af 93       	push	r26
 10e:	bf 93       	push	r27
 110:	ef 93       	push	r30
 112:	ff 93       	push	r31
 114:	40 91 0c 01 	lds	r20, 0x010C
 118:	50 91 0d 01 	lds	r21, 0x010D
 11c:	60 91 0e 01 	lds	r22, 0x010E
 120:	70 91 0f 01 	lds	r23, 0x010F
 124:	80 91 08 01 	lds	r24, 0x0108
 128:	90 91 09 01 	lds	r25, 0x0109
 12c:	a0 91 0a 01 	lds	r26, 0x010A
 130:	b0 91 0b 01 	lds	r27, 0x010B
 134:	f0 91 10 01 	lds	r31, 0x0110
 138:	e0 91 11 01 	lds	r30, 0x0111
 13c:	3f 2f       	mov	r19, r31
 13e:	30 5d       	subi	r19, 0xD0	; 208
 140:	2e 2f       	mov	r18, r30
 142:	20 5d       	subi	r18, 0xD0	; 208
 144:	3d 37       	cpi	r19, 0x7D	; 125
 146:	28 f4       	brcc	.+10     	; 0x152 <__vector_14+0x60>
 148:	40 5f       	subi	r20, 0xF0	; 240
 14a:	5f 4f       	sbci	r21, 0xFF	; 255
 14c:	6f 4f       	sbci	r22, 0xFF	; 255
 14e:	7f 4f       	sbci	r23, 0xFF	; 255
 150:	06 c0       	rjmp	.+12     	; 0x15e <__vector_14+0x6c>
 152:	3f 2f       	mov	r19, r31
 154:	3d 54       	subi	r19, 0x4D	; 77
 156:	4f 5e       	subi	r20, 0xEF	; 239
 158:	5f 4f       	sbci	r21, 0xFF	; 255
 15a:	6f 4f       	sbci	r22, 0xFF	; 255
 15c:	7f 4f       	sbci	r23, 0xFF	; 255
 15e:	2d 37       	cpi	r18, 0x7D	; 125
 160:	20 f4       	brcc	.+8      	; 0x16a <__vector_14+0x78>
 162:	40 96       	adiw	r24, 0x10	; 16
 164:	a1 1d       	adc	r26, r1
 166:	b1 1d       	adc	r27, r1
 168:	05 c0       	rjmp	.+10     	; 0x174 <__vector_14+0x82>
 16a:	2e 2f       	mov	r18, r30
 16c:	2d 54       	subi	r18, 0x4D	; 77
 16e:	41 96       	adiw	r24, 0x11	; 17
 170:	a1 1d       	adc	r26, r1
 172:	b1 1d       	adc	r27, r1
 174:	30 93 10 01 	sts	0x0110, r19
 178:	20 93 11 01 	sts	0x0111, r18
 17c:	40 93 0c 01 	sts	0x010C, r20
 180:	50 93 0d 01 	sts	0x010D, r21
 184:	60 93 0e 01 	sts	0x010E, r22
 188:	70 93 0f 01 	sts	0x010F, r23
 18c:	80 93 08 01 	sts	0x0108, r24
 190:	90 93 09 01 	sts	0x0109, r25
 194:	a0 93 0a 01 	sts	0x010A, r26
 198:	b0 93 0b 01 	sts	0x010B, r27
 19c:	ff 91       	pop	r31
 19e:	ef 91       	pop	r30
 1a0:	bf 91       	pop	r27
 1a2:	af 91       	pop	r26
 1a4:	9f 91       	pop	r25
 1a6:	8f 91       	pop	r24
 1a8:	7f 91       	pop	r23
 1aa:	6f 91       	pop	r22
 1ac:	5f 91       	pop	r21
 1ae:	4f 91       	pop	r20
 1b0:	3f 91       	pop	r19
 1b2:	2f 91       	pop	r18
 1b4:	0f 90       	pop	r0
 1b6:	0f be       	out	0x3f, r0	; 63
 1b8:	0f 90       	pop	r0
 1ba:	1f 90       	pop	r1
 1bc:	18 95       	reti

000001be <door1_timer>:
 1be:	0f 93       	push	r16
 1c0:	1f 93       	push	r17
 1c2:	88 23       	and	r24, r24
 1c4:	89 f0       	breq	.+34     	; 0x1e8 <door1_timer+0x2a>
 1c6:	8f b7       	in	r24, 0x3f	; 63
 1c8:	f8 94       	cli
 1ca:	10 92 0c 01 	sts	0x010C, r1
 1ce:	10 92 0d 01 	sts	0x010D, r1
 1d2:	10 92 0e 01 	sts	0x010E, r1
 1d6:	10 92 0f 01 	sts	0x010F, r1
 1da:	10 92 10 01 	sts	0x0110, r1
 1de:	8f bf       	out	0x3f, r24	; 63
 1e0:	00 e0       	ldi	r16, 0x00	; 0
 1e2:	10 e0       	ldi	r17, 0x00	; 0
 1e4:	98 01       	movw	r18, r16
 1e6:	0b c0       	rjmp	.+22     	; 0x1fe <door1_timer+0x40>
 1e8:	8f b7       	in	r24, 0x3f	; 63
 1ea:	f8 94       	cli
 1ec:	00 91 0c 01 	lds	r16, 0x010C
 1f0:	10 91 0d 01 	lds	r17, 0x010D
 1f4:	20 91 0e 01 	lds	r18, 0x010E
 1f8:	30 91 0f 01 	lds	r19, 0x010F
 1fc:	8f bf       	out	0x3f, r24	; 63
 1fe:	b8 01       	movw	r22, r16
 200:	c9 01       	movw	r24, r18
 202:	1f 91       	pop	r17
 204:	0f 91       	pop	r16
 206:	08 95       	ret

00000208 <door2_timer>:
 208:	0f 93       	push	r16
 20a:	1f 93       	push	r17
 20c:	88 23       	and	r24, r24
 20e:	89 f0       	breq	.+34     	; 0x232 <door2_timer+0x2a>
 210:	8f b7       	in	r24, 0x3f	; 63
 212:	f8 94       	cli
 214:	10 92 08 01 	sts	0x0108, r1
 218:	10 92 09 01 	sts	0x0109, r1
 21c:	10 92 0a 01 	sts	0x010A, r1
 220:	10 92 0b 01 	sts	0x010B, r1
 224:	10 92 11 01 	sts	0x0111, r1
 228:	8f bf       	out	0x3f, r24	; 63
 22a:	00 e0       	ldi	r16, 0x00	; 0
 22c:	10 e0       	ldi	r17, 0x00	; 0
 22e:	98 01       	movw	r18, r16
 230:	0b c0       	rjmp	.+22     	; 0x248 <door2_timer+0x40>
 232:	8f b7       	in	r24, 0x3f	; 63
 234:	f8 94       	cli
 236:	00 91 08 01 	lds	r16, 0x0108
 23a:	10 91 09 01 	lds	r17, 0x0109
 23e:	20 91 0a 01 	lds	r18, 0x010A
 242:	30 91 0b 01 	lds	r19, 0x010B
 246:	8f bf       	out	0x3f, r24	; 63
 248:	b8 01       	movw	r22, r16
 24a:	c9 01       	movw	r24, r18
 24c:	1f 91       	pop	r17
 24e:	0f 91       	pop	r16
 250:	08 95       	ret

00000252 <doorPinWrite>:
 252:	88 23       	and	r24, r24
 254:	69 f4       	brne	.+26     	; 0x270 <doorPinWrite+0x1e>
 256:	80 91 15 01 	lds	r24, 0x0115
 25a:	61 30       	cpi	r22, 0x01	; 1
 25c:	19 f4       	brne	.+6      	; 0x264 <doorPinWrite+0x12>
 25e:	80 ff       	sbrs	r24, 0
 260:	05 c0       	rjmp	.+10     	; 0x26c <doorPinWrite+0x1a>
 262:	02 c0       	rjmp	.+4      	; 0x268 <doorPinWrite+0x16>
 264:	80 fd       	sbrc	r24, 0
 266:	02 c0       	rjmp	.+4      	; 0x26c <doorPinWrite+0x1a>
 268:	28 9a       	sbi	0x05, 0	; 5
 26a:	08 95       	ret
 26c:	28 98       	cbi	0x05, 0	; 5
 26e:	08 95       	ret
 270:	80 91 14 01 	lds	r24, 0x0114
 274:	61 30       	cpi	r22, 0x01	; 1
 276:	19 f4       	brne	.+6      	; 0x27e <doorPinWrite+0x2c>
 278:	80 ff       	sbrs	r24, 0
 27a:	05 c0       	rjmp	.+10     	; 0x286 <doorPinWrite+0x34>
 27c:	02 c0       	rjmp	.+4      	; 0x282 <doorPinWrite+0x30>
 27e:	80 fd       	sbrc	r24, 0
 280:	02 c0       	rjmp	.+4      	; 0x286 <doorPinWrite+0x34>
 282:	29 9a       	sbi	0x05, 1	; 5
 284:	08 95       	ret
 286:	29 98       	cbi	0x05, 1	; 5
 288:	08 95       	ret

0000028a <button_is_pressed>:
 28a:	cf 93       	push	r28
 28c:	df 93       	push	r29
 28e:	0f 92       	push	r0
 290:	cd b7       	in	r28, 0x3d	; 61
 292:	de b7       	in	r29, 0x3e	; 62
 294:	89 83       	std	Y+1, r24	; 0x01
 296:	89 81       	ldd	r24, Y+1	; 0x01
 298:	90 e0       	ldi	r25, 0x00	; 0
 29a:	06 2e       	mov	r0, r22
 29c:	02 c0       	rjmp	.+4      	; 0x2a2 <button_is_pressed+0x18>
 29e:	95 95       	asr	r25
 2a0:	87 95       	ror	r24
 2a2:	0a 94       	dec	r0
 2a4:	e2 f7       	brpl	.-8      	; 0x29e <button_is_pressed+0x14>
 2a6:	80 fd       	sbrc	r24, 0
 2a8:	0f c0       	rjmp	.+30     	; 0x2c8 <button_is_pressed+0x3e>
 2aa:	85 e0       	ldi	r24, 0x05	; 5
 2ac:	99 ef       	ldi	r25, 0xF9	; 249
 2ae:	01 97       	sbiw	r24, 0x01	; 1
 2b0:	f1 f7       	brne	.-4      	; 0x2ae <button_is_pressed+0x24>
 2b2:	00 c0       	rjmp	.+0      	; 0x2b4 <button_is_pressed+0x2a>
 2b4:	00 00       	nop
 2b6:	29 81       	ldd	r18, Y+1	; 0x01
 2b8:	30 e0       	ldi	r19, 0x00	; 0
 2ba:	02 c0       	rjmp	.+4      	; 0x2c0 <button_is_pressed+0x36>
 2bc:	35 95       	asr	r19
 2be:	27 95       	ror	r18
 2c0:	6a 95       	dec	r22
 2c2:	e2 f7       	brpl	.-8      	; 0x2bc <button_is_pressed+0x32>
 2c4:	81 e0       	ldi	r24, 0x01	; 1
 2c6:	20 fd       	sbrc	r18, 0
 2c8:	80 e0       	ldi	r24, 0x00	; 0
 2ca:	0f 90       	pop	r0
 2cc:	df 91       	pop	r29
 2ce:	cf 91       	pop	r28
 2d0:	08 95       	ret

000002d2 <getHoldTime>:
 2d2:	82 30       	cpi	r24, 0x02	; 2
 2d4:	38 f4       	brcc	.+14     	; 0x2e4 <getHoldTime+0x12>
 2d6:	40 9a       	sbi	0x08, 0	; 8
 2d8:	40 9b       	sbis	0x08, 0	; 8
 2da:	fe cf       	rjmp	.-4      	; 0x2d8 <getHoldTime+0x6>
 2dc:	41 98       	cbi	0x08, 1	; 8
 2de:	41 99       	sbic	0x08, 1	; 8
 2e0:	fe cf       	rjmp	.-4      	; 0x2de <getHoldTime+0xc>
 2e2:	06 c0       	rjmp	.+12     	; 0x2f0 <getHoldTime+0x1e>
 2e4:	41 9a       	sbi	0x08, 1	; 8
 2e6:	41 9b       	sbis	0x08, 1	; 8
 2e8:	fe cf       	rjmp	.-4      	; 0x2e6 <getHoldTime+0x14>
 2ea:	40 98       	cbi	0x08, 0	; 8
 2ec:	40 99       	sbic	0x08, 0	; 8
 2ee:	fe cf       	rjmp	.-4      	; 0x2ec <getHoldTime+0x1a>
 2f0:	e6 b1       	in	r30, 0x06	; 6
 2f2:	f0 e0       	ldi	r31, 0x00	; 0
 2f4:	ec 73       	andi	r30, 0x3C	; 60
 2f6:	f0 70       	andi	r31, 0x00	; 0
 2f8:	f6 95       	lsr	r31
 2fa:	e7 95       	ror	r30
 2fc:	f6 95       	lsr	r31
 2fe:	e7 95       	ror	r30
 300:	e8 5d       	subi	r30, 0xD8	; 216
 302:	ff 4f       	sbci	r31, 0xFF	; 255
 304:	64 91       	lpm	r22, Z
 306:	70 e0       	ldi	r23, 0x00	; 0
 308:	80 e0       	ldi	r24, 0x00	; 0
 30a:	90 e0       	ldi	r25, 0x00	; 0
 30c:	b9 d2       	rcall	.+1394   	; 0x880 <__floatsisf>
 30e:	20 e0       	ldi	r18, 0x00	; 0
 310:	30 e0       	ldi	r19, 0x00	; 0
 312:	4a e7       	ldi	r20, 0x7A	; 122
 314:	54 e4       	ldi	r21, 0x44	; 68
 316:	18 d3       	rcall	.+1584   	; 0x948 <__mulsf3>
 318:	85 d2       	rcall	.+1290   	; 0x824 <__fixunssfsi>
 31a:	08 95       	ret

0000031c <dependentRetract>:
 31c:	cf 92       	push	r12
 31e:	df 92       	push	r13
 320:	ef 92       	push	r14
 322:	ff 92       	push	r15
 324:	cf 93       	push	r28
 326:	c0 91 16 01 	lds	r28, 0x0116
 32a:	c1 30       	cpi	r28, 0x01	; 1
 32c:	d1 f5       	brne	.+116    	; 0x3a2 <dependentRetract+0x86>
 32e:	80 91 05 01 	lds	r24, 0x0105
 332:	81 30       	cpi	r24, 0x01	; 1
 334:	69 f4       	brne	.+26     	; 0x350 <dependentRetract+0x34>
 336:	80 e0       	ldi	r24, 0x00	; 0
 338:	60 e0       	ldi	r22, 0x00	; 0
 33a:	8b df       	rcall	.-234    	; 0x252 <doorPinWrite>
 33c:	81 e0       	ldi	r24, 0x01	; 1
 33e:	60 e0       	ldi	r22, 0x00	; 0
 340:	88 df       	rcall	.-240    	; 0x252 <doorPinWrite>
 342:	2a 98       	cbi	0x05, 2	; 5
 344:	2b 98       	cbi	0x05, 3	; 5
 346:	10 92 05 01 	sts	0x0105, r1
 34a:	10 92 04 01 	sts	0x0104, r1
 34e:	6e c0       	rjmp	.+220    	; 0x42c <dependentRetract+0x110>
 350:	cf b6       	in	r12, 0x3f	; 63
 352:	f8 94       	cli
 354:	80 e0       	ldi	r24, 0x00	; 0
 356:	61 e0       	ldi	r22, 0x01	; 1
 358:	7c df       	rcall	.-264    	; 0x252 <doorPinWrite>
 35a:	c0 93 05 01 	sts	0x0105, r28
 35e:	8f e9       	ldi	r24, 0x9F	; 159
 360:	96 e8       	ldi	r25, 0x86	; 134
 362:	a1 e0       	ldi	r26, 0x01	; 1
 364:	81 50       	subi	r24, 0x01	; 1
 366:	90 40       	sbci	r25, 0x00	; 0
 368:	a0 40       	sbci	r26, 0x00	; 0
 36a:	e1 f7       	brne	.-8      	; 0x364 <dependentRetract+0x48>
 36c:	00 c0       	rjmp	.+0      	; 0x36e <dependentRetract+0x52>
 36e:	00 00       	nop
 370:	a8 95       	wdr
 372:	81 e0       	ldi	r24, 0x01	; 1
 374:	61 e0       	ldi	r22, 0x01	; 1
 376:	6d df       	rcall	.-294    	; 0x252 <doorPinWrite>
 378:	c0 93 04 01 	sts	0x0104, r28
 37c:	8f eb       	ldi	r24, 0xBF	; 191
 37e:	94 ed       	ldi	r25, 0xD4	; 212
 380:	a1 e0       	ldi	r26, 0x01	; 1
 382:	81 50       	subi	r24, 0x01	; 1
 384:	90 40       	sbci	r25, 0x00	; 0
 386:	a0 40       	sbci	r26, 0x00	; 0
 388:	e1 f7       	brne	.-8      	; 0x382 <dependentRetract+0x66>
 38a:	00 c0       	rjmp	.+0      	; 0x38c <dependentRetract+0x70>
 38c:	00 00       	nop
 38e:	2a 9a       	sbi	0x05, 2	; 5
 390:	2b 9a       	sbi	0x05, 3	; 5
 392:	cf be       	out	0x3f, r12	; 63
 394:	01 c0       	rjmp	.+2      	; 0x398 <dependentRetract+0x7c>
 396:	a8 95       	wdr
 398:	4a 9b       	sbis	0x09, 2	; 9
 39a:	fd cf       	rjmp	.-6      	; 0x396 <dependentRetract+0x7a>
 39c:	4b 9b       	sbis	0x09, 3	; 9
 39e:	fb cf       	rjmp	.-10     	; 0x396 <dependentRetract+0x7a>
 3a0:	45 c0       	rjmp	.+138    	; 0x42c <dependentRetract+0x110>
 3a2:	cf b7       	in	r28, 0x3f	; 63
 3a4:	f8 94       	cli
 3a6:	81 e0       	ldi	r24, 0x01	; 1
 3a8:	80 93 06 01 	sts	0x0106, r24
 3ac:	80 e0       	ldi	r24, 0x00	; 0
 3ae:	61 e0       	ldi	r22, 0x01	; 1
 3b0:	50 df       	rcall	.-352    	; 0x252 <doorPinWrite>
 3b2:	8f e9       	ldi	r24, 0x9F	; 159
 3b4:	96 e8       	ldi	r25, 0x86	; 134
 3b6:	a1 e0       	ldi	r26, 0x01	; 1
 3b8:	81 50       	subi	r24, 0x01	; 1
 3ba:	90 40       	sbci	r25, 0x00	; 0
 3bc:	a0 40       	sbci	r26, 0x00	; 0
 3be:	e1 f7       	brne	.-8      	; 0x3b8 <dependentRetract+0x9c>
 3c0:	00 c0       	rjmp	.+0      	; 0x3c2 <dependentRetract+0xa6>
 3c2:	00 00       	nop
 3c4:	81 e0       	ldi	r24, 0x01	; 1
 3c6:	61 e0       	ldi	r22, 0x01	; 1
 3c8:	44 df       	rcall	.-376    	; 0x252 <doorPinWrite>
 3ca:	8f eb       	ldi	r24, 0xBF	; 191
 3cc:	94 ed       	ldi	r25, 0xD4	; 212
 3ce:	a1 e0       	ldi	r26, 0x01	; 1
 3d0:	81 50       	subi	r24, 0x01	; 1
 3d2:	90 40       	sbci	r25, 0x00	; 0
 3d4:	a0 40       	sbci	r26, 0x00	; 0
 3d6:	e1 f7       	brne	.-8      	; 0x3d0 <dependentRetract+0xb4>
 3d8:	00 c0       	rjmp	.+0      	; 0x3da <dependentRetract+0xbe>
 3da:	00 00       	nop
 3dc:	2a 9a       	sbi	0x05, 2	; 5
 3de:	2b 9a       	sbi	0x05, 3	; 5
 3e0:	cf bf       	out	0x3f, r28	; 63
 3e2:	81 e0       	ldi	r24, 0x01	; 1
 3e4:	ec de       	rcall	.-552    	; 0x1be <door1_timer>
 3e6:	0b c0       	rjmp	.+22     	; 0x3fe <dependentRetract+0xe2>
 3e8:	a8 95       	wdr
 3ea:	4a 9b       	sbis	0x09, 2	; 9
 3ec:	02 c0       	rjmp	.+4      	; 0x3f2 <dependentRetract+0xd6>
 3ee:	4b 99       	sbic	0x09, 3	; 9
 3f0:	02 c0       	rjmp	.+4      	; 0x3f6 <dependentRetract+0xda>
 3f2:	81 e0       	ldi	r24, 0x01	; 1
 3f4:	e4 de       	rcall	.-568    	; 0x1be <door1_timer>
 3f6:	80 91 13 01 	lds	r24, 0x0113
 3fa:	88 23       	and	r24, r24
 3fc:	69 f0       	breq	.+26     	; 0x418 <dependentRetract+0xfc>
 3fe:	80 e0       	ldi	r24, 0x00	; 0
 400:	de de       	rcall	.-580    	; 0x1be <door1_timer>
 402:	6b 01       	movw	r12, r22
 404:	7c 01       	movw	r14, r24
 406:	81 e0       	ldi	r24, 0x01	; 1
 408:	64 df       	rcall	.-312    	; 0x2d2 <getHoldTime>
 40a:	dc 01       	movw	r26, r24
 40c:	cb 01       	movw	r24, r22
 40e:	8c 15       	cp	r24, r12
 410:	9d 05       	cpc	r25, r13
 412:	ae 05       	cpc	r26, r14
 414:	bf 05       	cpc	r27, r15
 416:	40 f7       	brcc	.-48     	; 0x3e8 <dependentRetract+0xcc>
 418:	80 e0       	ldi	r24, 0x00	; 0
 41a:	60 e0       	ldi	r22, 0x00	; 0
 41c:	1a df       	rcall	.-460    	; 0x252 <doorPinWrite>
 41e:	81 e0       	ldi	r24, 0x01	; 1
 420:	60 e0       	ldi	r22, 0x00	; 0
 422:	17 df       	rcall	.-466    	; 0x252 <doorPinWrite>
 424:	2a 98       	cbi	0x05, 2	; 5
 426:	2b 98       	cbi	0x05, 3	; 5
 428:	10 92 06 01 	sts	0x0106, r1
 42c:	cf 91       	pop	r28
 42e:	ff 90       	pop	r15
 430:	ef 90       	pop	r14
 432:	df 90       	pop	r13
 434:	cf 90       	pop	r12
 436:	08 95       	ret

00000438 <activateDoor1>:
 438:	cf 93       	push	r28
 43a:	88 23       	and	r24, r24
 43c:	21 f4       	brne	.+8      	; 0x446 <activateDoor1+0xe>
 43e:	60 e0       	ldi	r22, 0x00	; 0
 440:	08 df       	rcall	.-496    	; 0x252 <doorPinWrite>
 442:	2a 98       	cbi	0x05, 2	; 5
 444:	10 c0       	rjmp	.+32     	; 0x466 <activateDoor1+0x2e>
 446:	cf b7       	in	r28, 0x3f	; 63
 448:	f8 94       	cli
 44a:	80 e0       	ldi	r24, 0x00	; 0
 44c:	61 e0       	ldi	r22, 0x01	; 1
 44e:	01 df       	rcall	.-510    	; 0x252 <doorPinWrite>
 450:	8f eb       	ldi	r24, 0xBF	; 191
 452:	94 ed       	ldi	r25, 0xD4	; 212
 454:	a1 e0       	ldi	r26, 0x01	; 1
 456:	81 50       	subi	r24, 0x01	; 1
 458:	90 40       	sbci	r25, 0x00	; 0
 45a:	a0 40       	sbci	r26, 0x00	; 0
 45c:	e1 f7       	brne	.-8      	; 0x456 <activateDoor1+0x1e>
 45e:	00 c0       	rjmp	.+0      	; 0x460 <activateDoor1+0x28>
 460:	00 00       	nop
 462:	2a 9a       	sbi	0x05, 2	; 5
 464:	cf bf       	out	0x3f, r28	; 63
 466:	a8 95       	wdr
 468:	cf 91       	pop	r28
 46a:	08 95       	ret

0000046c <activateDoor2>:
 46c:	cf 93       	push	r28
 46e:	88 23       	and	r24, r24
 470:	29 f4       	brne	.+10     	; 0x47c <activateDoor2+0x10>
 472:	81 e0       	ldi	r24, 0x01	; 1
 474:	60 e0       	ldi	r22, 0x00	; 0
 476:	ed de       	rcall	.-550    	; 0x252 <doorPinWrite>
 478:	2b 98       	cbi	0x05, 3	; 5
 47a:	10 c0       	rjmp	.+32     	; 0x49c <activateDoor2+0x30>
 47c:	cf b7       	in	r28, 0x3f	; 63
 47e:	f8 94       	cli
 480:	81 e0       	ldi	r24, 0x01	; 1
 482:	61 e0       	ldi	r22, 0x01	; 1
 484:	e6 de       	rcall	.-564    	; 0x252 <doorPinWrite>
 486:	8f eb       	ldi	r24, 0xBF	; 191
 488:	94 ed       	ldi	r25, 0xD4	; 212
 48a:	a1 e0       	ldi	r26, 0x01	; 1
 48c:	81 50       	subi	r24, 0x01	; 1
 48e:	90 40       	sbci	r25, 0x00	; 0
 490:	a0 40       	sbci	r26, 0x00	; 0
 492:	e1 f7       	brne	.-8      	; 0x48c <activateDoor2+0x20>
 494:	00 c0       	rjmp	.+0      	; 0x496 <activateDoor2+0x2a>
 496:	00 00       	nop
 498:	2b 9a       	sbi	0x05, 3	; 5
 49a:	cf bf       	out	0x3f, r28	; 63
 49c:	a8 95       	wdr
 49e:	cf 91       	pop	r28
 4a0:	08 95       	ret

000004a2 <__vector_5>:
 4a2:	1f 92       	push	r1
 4a4:	0f 92       	push	r0
 4a6:	0f b6       	in	r0, 0x3f	; 63
 4a8:	0f 92       	push	r0
 4aa:	11 24       	eor	r1, r1
 4ac:	2f 93       	push	r18
 4ae:	3f 93       	push	r19
 4b0:	4f 93       	push	r20
 4b2:	5f 93       	push	r21
 4b4:	6f 93       	push	r22
 4b6:	7f 93       	push	r23
 4b8:	8f 93       	push	r24
 4ba:	9f 93       	push	r25
 4bc:	af 93       	push	r26
 4be:	bf 93       	push	r27
 4c0:	ef 93       	push	r30
 4c2:	ff 93       	push	r31
 4c4:	cf 93       	push	r28
 4c6:	df 93       	push	r29
 4c8:	0f 92       	push	r0
 4ca:	cd b7       	in	r28, 0x3d	; 61
 4cc:	de b7       	in	r29, 0x3e	; 62
 4ce:	99 b1       	in	r25, 0x09	; 9
 4d0:	80 91 07 01 	lds	r24, 0x0107
 4d4:	89 27       	eor	r24, r25
 4d6:	89 83       	std	Y+1, r24	; 0x01
 4d8:	89 81       	ldd	r24, Y+1	; 0x01
 4da:	80 ff       	sbrs	r24, 0
 4dc:	2b c0       	rjmp	.+86     	; 0x534 <__vector_5+0x92>
 4de:	48 9b       	sbis	0x09, 0	; 9
 4e0:	04 c0       	rjmp	.+8      	; 0x4ea <__vector_5+0x48>
 4e2:	81 e0       	ldi	r24, 0x01	; 1
 4e4:	80 93 13 01 	sts	0x0113, r24
 4e8:	02 c0       	rjmp	.+4      	; 0x4ee <__vector_5+0x4c>
 4ea:	10 92 13 01 	sts	0x0113, r1
 4ee:	80 91 13 01 	lds	r24, 0x0113
 4f2:	88 23       	and	r24, r24
 4f4:	21 f0       	breq	.+8      	; 0x4fe <__vector_5+0x5c>
 4f6:	80 91 07 01 	lds	r24, 0x0107
 4fa:	81 60       	ori	r24, 0x01	; 1
 4fc:	03 c0       	rjmp	.+6      	; 0x504 <__vector_5+0x62>
 4fe:	80 91 07 01 	lds	r24, 0x0107
 502:	8e 7f       	andi	r24, 0xFE	; 254
 504:	80 93 07 01 	sts	0x0107, r24
 508:	80 e0       	ldi	r24, 0x00	; 0
 50a:	60 e0       	ldi	r22, 0x00	; 0
 50c:	a2 de       	rcall	.-700    	; 0x252 <doorPinWrite>
 50e:	81 e0       	ldi	r24, 0x01	; 1
 510:	60 e0       	ldi	r22, 0x00	; 0
 512:	9f de       	rcall	.-706    	; 0x252 <doorPinWrite>
 514:	2a 98       	cbi	0x05, 2	; 5
 516:	2b 98       	cbi	0x05, 3	; 5
 518:	10 92 04 01 	sts	0x0104, r1
 51c:	10 92 05 01 	sts	0x0105, r1
 520:	10 92 03 01 	sts	0x0103, r1
 524:	10 92 02 01 	sts	0x0102, r1
 528:	10 92 06 01 	sts	0x0106, r1
 52c:	80 e0       	ldi	r24, 0x00	; 0
 52e:	47 de       	rcall	.-882    	; 0x1be <door1_timer>
 530:	80 e0       	ldi	r24, 0x00	; 0
 532:	6a de       	rcall	.-812    	; 0x208 <door2_timer>
 534:	89 81       	ldd	r24, Y+1	; 0x01
 536:	84 ff       	sbrs	r24, 4
 538:	22 c0       	rjmp	.+68     	; 0x57e <__vector_5+0xdc>
 53a:	4c 9b       	sbis	0x09, 4	; 9
 53c:	07 c0       	rjmp	.+14     	; 0x54c <__vector_5+0xaa>
 53e:	81 e0       	ldi	r24, 0x01	; 1
 540:	80 93 15 01 	sts	0x0115, r24
 544:	80 91 07 01 	lds	r24, 0x0107
 548:	80 61       	ori	r24, 0x10	; 16
 54a:	05 c0       	rjmp	.+10     	; 0x556 <__vector_5+0xb4>
 54c:	10 92 15 01 	sts	0x0115, r1
 550:	80 91 07 01 	lds	r24, 0x0107
 554:	8f 7e       	andi	r24, 0xEF	; 239
 556:	80 93 07 01 	sts	0x0107, r24
 55a:	80 91 03 01 	lds	r24, 0x0103
 55e:	88 23       	and	r24, r24
 560:	41 f4       	brne	.+16     	; 0x572 <__vector_5+0xd0>
 562:	80 91 05 01 	lds	r24, 0x0105
 566:	88 23       	and	r24, r24
 568:	21 f4       	brne	.+8      	; 0x572 <__vector_5+0xd0>
 56a:	80 91 06 01 	lds	r24, 0x0106
 56e:	88 23       	and	r24, r24
 570:	19 f0       	breq	.+6      	; 0x578 <__vector_5+0xd6>
 572:	80 e0       	ldi	r24, 0x00	; 0
 574:	61 e0       	ldi	r22, 0x01	; 1
 576:	02 c0       	rjmp	.+4      	; 0x57c <__vector_5+0xda>
 578:	80 e0       	ldi	r24, 0x00	; 0
 57a:	60 e0       	ldi	r22, 0x00	; 0
 57c:	6a de       	rcall	.-812    	; 0x252 <doorPinWrite>
 57e:	89 81       	ldd	r24, Y+1	; 0x01
 580:	85 ff       	sbrs	r24, 5
 582:	22 c0       	rjmp	.+68     	; 0x5c8 <__vector_5+0x126>
 584:	4d 9b       	sbis	0x09, 5	; 9
 586:	07 c0       	rjmp	.+14     	; 0x596 <__vector_5+0xf4>
 588:	81 e0       	ldi	r24, 0x01	; 1
 58a:	80 93 14 01 	sts	0x0114, r24
 58e:	80 91 07 01 	lds	r24, 0x0107
 592:	80 62       	ori	r24, 0x20	; 32
 594:	05 c0       	rjmp	.+10     	; 0x5a0 <__vector_5+0xfe>
 596:	10 92 14 01 	sts	0x0114, r1
 59a:	80 91 07 01 	lds	r24, 0x0107
 59e:	8f 7d       	andi	r24, 0xDF	; 223
 5a0:	80 93 07 01 	sts	0x0107, r24
 5a4:	80 91 02 01 	lds	r24, 0x0102
 5a8:	88 23       	and	r24, r24
 5aa:	41 f4       	brne	.+16     	; 0x5bc <__vector_5+0x11a>
 5ac:	80 91 04 01 	lds	r24, 0x0104
 5b0:	88 23       	and	r24, r24
 5b2:	21 f4       	brne	.+8      	; 0x5bc <__vector_5+0x11a>
 5b4:	80 91 06 01 	lds	r24, 0x0106
 5b8:	88 23       	and	r24, r24
 5ba:	19 f0       	breq	.+6      	; 0x5c2 <__vector_5+0x120>
 5bc:	81 e0       	ldi	r24, 0x01	; 1
 5be:	61 e0       	ldi	r22, 0x01	; 1
 5c0:	02 c0       	rjmp	.+4      	; 0x5c6 <__vector_5+0x124>
 5c2:	81 e0       	ldi	r24, 0x01	; 1
 5c4:	60 e0       	ldi	r22, 0x00	; 0
 5c6:	45 de       	rcall	.-886    	; 0x252 <doorPinWrite>
 5c8:	89 81       	ldd	r24, Y+1	; 0x01
 5ca:	81 ff       	sbrs	r24, 1
 5cc:	33 c0       	rjmp	.+102    	; 0x634 <__vector_5+0x192>
 5ce:	49 9b       	sbis	0x09, 1	; 9
 5d0:	06 c0       	rjmp	.+12     	; 0x5de <__vector_5+0x13c>
 5d2:	10 92 16 01 	sts	0x0116, r1
 5d6:	80 91 07 01 	lds	r24, 0x0107
 5da:	82 60       	ori	r24, 0x02	; 2
 5dc:	06 c0       	rjmp	.+12     	; 0x5ea <__vector_5+0x148>
 5de:	81 e0       	ldi	r24, 0x01	; 1
 5e0:	80 93 16 01 	sts	0x0116, r24
 5e4:	80 91 07 01 	lds	r24, 0x0107
 5e8:	8d 7f       	andi	r24, 0xFD	; 253
 5ea:	80 93 07 01 	sts	0x0107, r24
 5ee:	80 91 05 01 	lds	r24, 0x0105
 5f2:	88 23       	and	r24, r24
 5f4:	91 f0       	breq	.+36     	; 0x61a <__vector_5+0x178>
 5f6:	80 91 16 01 	lds	r24, 0x0116
 5fa:	88 23       	and	r24, r24
 5fc:	71 f4       	brne	.+28     	; 0x61a <__vector_5+0x178>
 5fe:	60 e0       	ldi	r22, 0x00	; 0
 600:	28 de       	rcall	.-944    	; 0x252 <doorPinWrite>
 602:	2a 98       	cbi	0x05, 2	; 5
 604:	10 92 05 01 	sts	0x0105, r1
 608:	80 91 13 01 	lds	r24, 0x0113
 60c:	81 30       	cpi	r24, 0x01	; 1
 60e:	29 f4       	brne	.+10     	; 0x61a <__vector_5+0x178>
 610:	60 e0       	ldi	r22, 0x00	; 0
 612:	1f de       	rcall	.-962    	; 0x252 <doorPinWrite>
 614:	2b 98       	cbi	0x05, 3	; 5
 616:	10 92 04 01 	sts	0x0104, r1
 61a:	80 91 16 01 	lds	r24, 0x0116
 61e:	80 fd       	sbrc	r24, 0
 620:	04 c0       	rjmp	.+8      	; 0x62a <__vector_5+0x188>
 622:	80 91 07 01 	lds	r24, 0x0107
 626:	82 60       	ori	r24, 0x02	; 2
 628:	03 c0       	rjmp	.+6      	; 0x630 <__vector_5+0x18e>
 62a:	80 91 07 01 	lds	r24, 0x0107
 62e:	8d 7f       	andi	r24, 0xFD	; 253
 630:	80 93 07 01 	sts	0x0107, r24
 634:	89 81       	ldd	r24, Y+1	; 0x01
 636:	87 ff       	sbrs	r24, 7
 638:	2f c0       	rjmp	.+94     	; 0x698 <__vector_5+0x1f6>
 63a:	4f 9b       	sbis	0x09, 7	; 9
 63c:	06 c0       	rjmp	.+12     	; 0x64a <__vector_5+0x1a8>
 63e:	10 92 12 01 	sts	0x0112, r1
 642:	80 91 07 01 	lds	r24, 0x0107
 646:	80 68       	ori	r24, 0x80	; 128
 648:	06 c0       	rjmp	.+12     	; 0x656 <__vector_5+0x1b4>
 64a:	81 e0       	ldi	r24, 0x01	; 1
 64c:	80 93 12 01 	sts	0x0112, r24
 650:	80 91 07 01 	lds	r24, 0x0107
 654:	8f 77       	andi	r24, 0x7F	; 127
 656:	80 93 07 01 	sts	0x0107, r24
 65a:	80 91 04 01 	lds	r24, 0x0104
 65e:	88 23       	and	r24, r24
 660:	71 f0       	breq	.+28     	; 0x67e <__vector_5+0x1dc>
 662:	80 91 12 01 	lds	r24, 0x0112
 666:	88 23       	and	r24, r24
 668:	51 f4       	brne	.+20     	; 0x67e <__vector_5+0x1dc>
 66a:	80 91 13 01 	lds	r24, 0x0113
 66e:	88 23       	and	r24, r24
 670:	31 f4       	brne	.+12     	; 0x67e <__vector_5+0x1dc>
 672:	81 e0       	ldi	r24, 0x01	; 1
 674:	60 e0       	ldi	r22, 0x00	; 0
 676:	ed dd       	rcall	.-1062   	; 0x252 <doorPinWrite>
 678:	2b 98       	cbi	0x05, 3	; 5
 67a:	10 92 04 01 	sts	0x0104, r1
 67e:	80 91 12 01 	lds	r24, 0x0112
 682:	80 fd       	sbrc	r24, 0
 684:	04 c0       	rjmp	.+8      	; 0x68e <__vector_5+0x1ec>
 686:	80 91 07 01 	lds	r24, 0x0107
 68a:	80 68       	ori	r24, 0x80	; 128
 68c:	03 c0       	rjmp	.+6      	; 0x694 <__vector_5+0x1f2>
 68e:	80 91 07 01 	lds	r24, 0x0107
 692:	8f 77       	andi	r24, 0x7F	; 127
 694:	80 93 07 01 	sts	0x0107, r24
 698:	0f 90       	pop	r0
 69a:	df 91       	pop	r29
 69c:	cf 91       	pop	r28
 69e:	ff 91       	pop	r31
 6a0:	ef 91       	pop	r30
 6a2:	bf 91       	pop	r27
 6a4:	af 91       	pop	r26
 6a6:	9f 91       	pop	r25
 6a8:	8f 91       	pop	r24
 6aa:	7f 91       	pop	r23
 6ac:	6f 91       	pop	r22
 6ae:	5f 91       	pop	r21
 6b0:	4f 91       	pop	r20
 6b2:	3f 91       	pop	r19
 6b4:	2f 91       	pop	r18
 6b6:	0f 90       	pop	r0
 6b8:	0f be       	out	0x3f, r0	; 63
 6ba:	0f 90       	pop	r0
 6bc:	1f 90       	pop	r1
 6be:	18 95       	reti

000006c0 <main>:
 6c0:	a8 95       	wdr
 6c2:	88 e1       	ldi	r24, 0x18	; 24
 6c4:	80 93 60 00 	sts	0x0060, r24
 6c8:	87 e0       	ldi	r24, 0x07	; 7
 6ca:	80 93 60 00 	sts	0x0060, r24
 6ce:	80 91 60 00 	lds	r24, 0x0060
 6d2:	80 64       	ori	r24, 0x40	; 64
 6d4:	80 93 60 00 	sts	0x0060, r24
 6d8:	85 b5       	in	r24, 0x25	; 37
 6da:	82 60       	ori	r24, 0x02	; 2
 6dc:	85 bd       	out	0x25, r24	; 37
 6de:	85 b5       	in	r24, 0x25	; 37
 6e0:	81 60       	ori	r24, 0x01	; 1
 6e2:	85 bd       	out	0x25, r24	; 37
 6e4:	80 91 6e 00 	lds	r24, 0x006E
 6e8:	81 60       	ori	r24, 0x01	; 1
 6ea:	80 93 6e 00 	sts	0x006E, r24
 6ee:	8f ef       	ldi	r24, 0xFF	; 255
 6f0:	89 b9       	out	0x09, r24	; 9
 6f2:	1a b8       	out	0x0a, r1	; 10
 6f4:	84 b9       	out	0x04, r24	; 4
 6f6:	83 e0       	ldi	r24, 0x03	; 3
 6f8:	87 b9       	out	0x07, r24	; 7
 6fa:	80 91 68 00 	lds	r24, 0x0068
 6fe:	84 60       	ori	r24, 0x04	; 4
 700:	80 93 68 00 	sts	0x0068, r24
 704:	83 ef       	ldi	r24, 0xF3	; 243
 706:	80 93 6d 00 	sts	0x006D, r24
 70a:	78 94       	sei
 70c:	b1 dc       	rcall	.-1694   	; 0x70 <getInputs>
 70e:	c1 e0       	ldi	r28, 0x01	; 1
 710:	89 b1       	in	r24, 0x09	; 9
 712:	62 e0       	ldi	r22, 0x02	; 2
 714:	ba dd       	rcall	.-1164   	; 0x28a <button_is_pressed>
 716:	88 23       	and	r24, r24
 718:	f1 f0       	breq	.+60     	; 0x756 <main+0x96>
 71a:	80 91 03 01 	lds	r24, 0x0103
 71e:	88 23       	and	r24, r24
 720:	d1 f4       	brne	.+52     	; 0x756 <main+0x96>
 722:	80 91 13 01 	lds	r24, 0x0113
 726:	81 30       	cpi	r24, 0x01	; 1
 728:	11 f4       	brne	.+4      	; 0x72e <main+0x6e>
 72a:	f8 dd       	rcall	.-1040   	; 0x31c <dependentRetract>
 72c:	14 c0       	rjmp	.+40     	; 0x756 <main+0x96>
 72e:	80 91 16 01 	lds	r24, 0x0116
 732:	81 30       	cpi	r24, 0x01	; 1
 734:	51 f4       	brne	.+20     	; 0x74a <main+0x8a>
 736:	90 91 05 01 	lds	r25, 0x0105
 73a:	91 11       	cpse	r25, r1
 73c:	80 e0       	ldi	r24, 0x00	; 0
 73e:	80 93 05 01 	sts	0x0105, r24
 742:	80 91 05 01 	lds	r24, 0x0105
 746:	78 de       	rcall	.-784    	; 0x438 <activateDoor1>
 748:	06 c0       	rjmp	.+12     	; 0x756 <main+0x96>
 74a:	c0 93 03 01 	sts	0x0103, r28
 74e:	81 e0       	ldi	r24, 0x01	; 1
 750:	73 de       	rcall	.-794    	; 0x438 <activateDoor1>
 752:	81 e0       	ldi	r24, 0x01	; 1
 754:	34 dd       	rcall	.-1432   	; 0x1be <door1_timer>
 756:	89 b1       	in	r24, 0x09	; 9
 758:	63 e0       	ldi	r22, 0x03	; 3
 75a:	97 dd       	rcall	.-1234   	; 0x28a <button_is_pressed>
 75c:	88 23       	and	r24, r24
 75e:	f1 f0       	breq	.+60     	; 0x79c <main+0xdc>
 760:	80 91 02 01 	lds	r24, 0x0102
 764:	88 23       	and	r24, r24
 766:	d1 f4       	brne	.+52     	; 0x79c <main+0xdc>
 768:	80 91 13 01 	lds	r24, 0x0113
 76c:	81 30       	cpi	r24, 0x01	; 1
 76e:	11 f4       	brne	.+4      	; 0x774 <main+0xb4>
 770:	d5 dd       	rcall	.-1110   	; 0x31c <dependentRetract>
 772:	14 c0       	rjmp	.+40     	; 0x79c <main+0xdc>
 774:	80 91 12 01 	lds	r24, 0x0112
 778:	81 30       	cpi	r24, 0x01	; 1
 77a:	51 f4       	brne	.+20     	; 0x790 <main+0xd0>
 77c:	90 91 04 01 	lds	r25, 0x0104
 780:	91 11       	cpse	r25, r1
 782:	80 e0       	ldi	r24, 0x00	; 0
 784:	80 93 04 01 	sts	0x0104, r24
 788:	80 91 04 01 	lds	r24, 0x0104
 78c:	6f de       	rcall	.-802    	; 0x46c <activateDoor2>
 78e:	06 c0       	rjmp	.+12     	; 0x79c <main+0xdc>
 790:	c0 93 02 01 	sts	0x0102, r28
 794:	81 e0       	ldi	r24, 0x01	; 1
 796:	6a de       	rcall	.-812    	; 0x46c <activateDoor2>
 798:	81 e0       	ldi	r24, 0x01	; 1
 79a:	36 dd       	rcall	.-1428   	; 0x208 <door2_timer>
 79c:	90 91 07 01 	lds	r25, 0x0107
 7a0:	89 b1       	in	r24, 0x09	; 9
 7a2:	83 7b       	andi	r24, 0xB3	; 179
 7a4:	98 13       	cpse	r25, r24
 7a6:	64 dc       	rcall	.-1848   	; 0x70 <getInputs>
 7a8:	80 91 03 01 	lds	r24, 0x0103
 7ac:	88 23       	and	r24, r24
 7ae:	21 f4       	brne	.+8      	; 0x7b8 <main+0xf8>
 7b0:	80 91 02 01 	lds	r24, 0x0102
 7b4:	88 23       	and	r24, r24
 7b6:	a1 f1       	breq	.+104    	; 0x820 <main+0x160>
 7b8:	80 91 03 01 	lds	r24, 0x0103
 7bc:	88 23       	and	r24, r24
 7be:	b1 f0       	breq	.+44     	; 0x7ec <main+0x12c>
 7c0:	80 e0       	ldi	r24, 0x00	; 0
 7c2:	fd dc       	rcall	.-1542   	; 0x1be <door1_timer>
 7c4:	6b 01       	movw	r12, r22
 7c6:	7c 01       	movw	r14, r24
 7c8:	81 e0       	ldi	r24, 0x01	; 1
 7ca:	83 dd       	rcall	.-1274   	; 0x2d2 <getHoldTime>
 7cc:	dc 01       	movw	r26, r24
 7ce:	cb 01       	movw	r24, r22
 7d0:	c8 16       	cp	r12, r24
 7d2:	d9 06       	cpc	r13, r25
 7d4:	ea 06       	cpc	r14, r26
 7d6:	fb 06       	cpc	r15, r27
 7d8:	48 f0       	brcs	.+18     	; 0x7ec <main+0x12c>
 7da:	4a 99       	sbic	0x09, 2	; 9
 7dc:	03 c0       	rjmp	.+6      	; 0x7e4 <main+0x124>
 7de:	81 e0       	ldi	r24, 0x01	; 1
 7e0:	ee dc       	rcall	.-1572   	; 0x1be <door1_timer>
 7e2:	04 c0       	rjmp	.+8      	; 0x7ec <main+0x12c>
 7e4:	80 e0       	ldi	r24, 0x00	; 0
 7e6:	28 de       	rcall	.-944    	; 0x438 <activateDoor1>
 7e8:	10 92 03 01 	sts	0x0103, r1
 7ec:	80 91 02 01 	lds	r24, 0x0102
 7f0:	88 23       	and	r24, r24
 7f2:	b1 f0       	breq	.+44     	; 0x820 <main+0x160>
 7f4:	80 e0       	ldi	r24, 0x00	; 0
 7f6:	08 dd       	rcall	.-1520   	; 0x208 <door2_timer>
 7f8:	6b 01       	movw	r12, r22
 7fa:	7c 01       	movw	r14, r24
 7fc:	82 e0       	ldi	r24, 0x02	; 2
 7fe:	69 dd       	rcall	.-1326   	; 0x2d2 <getHoldTime>
 800:	dc 01       	movw	r26, r24
 802:	cb 01       	movw	r24, r22
 804:	c8 16       	cp	r12, r24
 806:	d9 06       	cpc	r13, r25
 808:	ea 06       	cpc	r14, r26
 80a:	fb 06       	cpc	r15, r27
 80c:	48 f0       	brcs	.+18     	; 0x820 <main+0x160>
 80e:	4b 99       	sbic	0x09, 3	; 9
 810:	03 c0       	rjmp	.+6      	; 0x818 <main+0x158>
 812:	81 e0       	ldi	r24, 0x01	; 1
 814:	f9 dc       	rcall	.-1550   	; 0x208 <door2_timer>
 816:	04 c0       	rjmp	.+8      	; 0x820 <main+0x160>
 818:	80 e0       	ldi	r24, 0x00	; 0
 81a:	28 de       	rcall	.-944    	; 0x46c <activateDoor2>
 81c:	10 92 02 01 	sts	0x0102, r1
 820:	a8 95       	wdr
 822:	76 cf       	rjmp	.-276    	; 0x710 <main+0x50>

00000824 <__fixunssfsi>:
 824:	70 d0       	rcall	.+224    	; 0x906 <__fp_splitA>
 826:	88 f0       	brcs	.+34     	; 0x84a <__fixunssfsi+0x26>
 828:	9f 57       	subi	r25, 0x7F	; 127
 82a:	90 f0       	brcs	.+36     	; 0x850 <__fixunssfsi+0x2c>
 82c:	b9 2f       	mov	r27, r25
 82e:	99 27       	eor	r25, r25
 830:	b7 51       	subi	r27, 0x17	; 23
 832:	a0 f0       	brcs	.+40     	; 0x85c <__fixunssfsi+0x38>
 834:	d1 f0       	breq	.+52     	; 0x86a <__fixunssfsi+0x46>
 836:	66 0f       	add	r22, r22
 838:	77 1f       	adc	r23, r23
 83a:	88 1f       	adc	r24, r24
 83c:	99 1f       	adc	r25, r25
 83e:	1a f0       	brmi	.+6      	; 0x846 <__fixunssfsi+0x22>
 840:	ba 95       	dec	r27
 842:	c9 f7       	brne	.-14     	; 0x836 <__fixunssfsi+0x12>
 844:	12 c0       	rjmp	.+36     	; 0x86a <__fixunssfsi+0x46>
 846:	b1 30       	cpi	r27, 0x01	; 1
 848:	81 f0       	breq	.+32     	; 0x86a <__fixunssfsi+0x46>
 84a:	77 d0       	rcall	.+238    	; 0x93a <__fp_zero>
 84c:	b1 e0       	ldi	r27, 0x01	; 1
 84e:	08 95       	ret
 850:	74 c0       	rjmp	.+232    	; 0x93a <__fp_zero>
 852:	67 2f       	mov	r22, r23
 854:	78 2f       	mov	r23, r24
 856:	88 27       	eor	r24, r24
 858:	b8 5f       	subi	r27, 0xF8	; 248
 85a:	39 f0       	breq	.+14     	; 0x86a <__fixunssfsi+0x46>
 85c:	b9 3f       	cpi	r27, 0xF9	; 249
 85e:	cc f3       	brlt	.-14     	; 0x852 <__fixunssfsi+0x2e>
 860:	86 95       	lsr	r24
 862:	77 95       	ror	r23
 864:	67 95       	ror	r22
 866:	b3 95       	inc	r27
 868:	d9 f7       	brne	.-10     	; 0x860 <__fixunssfsi+0x3c>
 86a:	3e f4       	brtc	.+14     	; 0x87a <__fixunssfsi+0x56>
 86c:	90 95       	com	r25
 86e:	80 95       	com	r24
 870:	70 95       	com	r23
 872:	61 95       	neg	r22
 874:	7f 4f       	sbci	r23, 0xFF	; 255
 876:	8f 4f       	sbci	r24, 0xFF	; 255
 878:	9f 4f       	sbci	r25, 0xFF	; 255
 87a:	08 95       	ret

0000087c <__floatunsisf>:
 87c:	e8 94       	clt
 87e:	09 c0       	rjmp	.+18     	; 0x892 <__floatsisf+0x12>

00000880 <__floatsisf>:
 880:	97 fb       	bst	r25, 7
 882:	3e f4       	brtc	.+14     	; 0x892 <__floatsisf+0x12>
 884:	90 95       	com	r25
 886:	80 95       	com	r24
 888:	70 95       	com	r23
 88a:	61 95       	neg	r22
 88c:	7f 4f       	sbci	r23, 0xFF	; 255
 88e:	8f 4f       	sbci	r24, 0xFF	; 255
 890:	9f 4f       	sbci	r25, 0xFF	; 255
 892:	99 23       	and	r25, r25
 894:	a9 f0       	breq	.+42     	; 0x8c0 <__floatsisf+0x40>
 896:	f9 2f       	mov	r31, r25
 898:	96 e9       	ldi	r25, 0x96	; 150
 89a:	bb 27       	eor	r27, r27
 89c:	93 95       	inc	r25
 89e:	f6 95       	lsr	r31
 8a0:	87 95       	ror	r24
 8a2:	77 95       	ror	r23
 8a4:	67 95       	ror	r22
 8a6:	b7 95       	ror	r27
 8a8:	f1 11       	cpse	r31, r1
 8aa:	f8 cf       	rjmp	.-16     	; 0x89c <__floatsisf+0x1c>
 8ac:	fa f4       	brpl	.+62     	; 0x8ec <__floatsisf+0x6c>
 8ae:	bb 0f       	add	r27, r27
 8b0:	11 f4       	brne	.+4      	; 0x8b6 <__floatsisf+0x36>
 8b2:	60 ff       	sbrs	r22, 0
 8b4:	1b c0       	rjmp	.+54     	; 0x8ec <__floatsisf+0x6c>
 8b6:	6f 5f       	subi	r22, 0xFF	; 255
 8b8:	7f 4f       	sbci	r23, 0xFF	; 255
 8ba:	8f 4f       	sbci	r24, 0xFF	; 255
 8bc:	9f 4f       	sbci	r25, 0xFF	; 255
 8be:	16 c0       	rjmp	.+44     	; 0x8ec <__floatsisf+0x6c>
 8c0:	88 23       	and	r24, r24
 8c2:	11 f0       	breq	.+4      	; 0x8c8 <__floatsisf+0x48>
 8c4:	96 e9       	ldi	r25, 0x96	; 150
 8c6:	11 c0       	rjmp	.+34     	; 0x8ea <__floatsisf+0x6a>
 8c8:	77 23       	and	r23, r23
 8ca:	21 f0       	breq	.+8      	; 0x8d4 <__floatsisf+0x54>
 8cc:	9e e8       	ldi	r25, 0x8E	; 142
 8ce:	87 2f       	mov	r24, r23
 8d0:	76 2f       	mov	r23, r22
 8d2:	05 c0       	rjmp	.+10     	; 0x8de <__floatsisf+0x5e>
 8d4:	66 23       	and	r22, r22
 8d6:	71 f0       	breq	.+28     	; 0x8f4 <__floatsisf+0x74>
 8d8:	96 e8       	ldi	r25, 0x86	; 134
 8da:	86 2f       	mov	r24, r22
 8dc:	70 e0       	ldi	r23, 0x00	; 0
 8de:	60 e0       	ldi	r22, 0x00	; 0
 8e0:	2a f0       	brmi	.+10     	; 0x8ec <__floatsisf+0x6c>
 8e2:	9a 95       	dec	r25
 8e4:	66 0f       	add	r22, r22
 8e6:	77 1f       	adc	r23, r23
 8e8:	88 1f       	adc	r24, r24
 8ea:	da f7       	brpl	.-10     	; 0x8e2 <__floatsisf+0x62>
 8ec:	88 0f       	add	r24, r24
 8ee:	96 95       	lsr	r25
 8f0:	87 95       	ror	r24
 8f2:	97 f9       	bld	r25, 7
 8f4:	08 95       	ret

000008f6 <__fp_split3>:
 8f6:	57 fd       	sbrc	r21, 7
 8f8:	90 58       	subi	r25, 0x80	; 128
 8fa:	44 0f       	add	r20, r20
 8fc:	55 1f       	adc	r21, r21
 8fe:	59 f0       	breq	.+22     	; 0x916 <__fp_splitA+0x10>
 900:	5f 3f       	cpi	r21, 0xFF	; 255
 902:	71 f0       	breq	.+28     	; 0x920 <__fp_splitA+0x1a>
 904:	47 95       	ror	r20

00000906 <__fp_splitA>:
 906:	88 0f       	add	r24, r24
 908:	97 fb       	bst	r25, 7
 90a:	99 1f       	adc	r25, r25
 90c:	61 f0       	breq	.+24     	; 0x926 <__fp_splitA+0x20>
 90e:	9f 3f       	cpi	r25, 0xFF	; 255
 910:	79 f0       	breq	.+30     	; 0x930 <__fp_splitA+0x2a>
 912:	87 95       	ror	r24
 914:	08 95       	ret
 916:	12 16       	cp	r1, r18
 918:	13 06       	cpc	r1, r19
 91a:	14 06       	cpc	r1, r20
 91c:	55 1f       	adc	r21, r21
 91e:	f2 cf       	rjmp	.-28     	; 0x904 <__fp_split3+0xe>
 920:	46 95       	lsr	r20
 922:	f1 df       	rcall	.-30     	; 0x906 <__fp_splitA>
 924:	08 c0       	rjmp	.+16     	; 0x936 <__fp_splitA+0x30>
 926:	16 16       	cp	r1, r22
 928:	17 06       	cpc	r1, r23
 92a:	18 06       	cpc	r1, r24
 92c:	99 1f       	adc	r25, r25
 92e:	f1 cf       	rjmp	.-30     	; 0x912 <__fp_splitA+0xc>
 930:	86 95       	lsr	r24
 932:	71 05       	cpc	r23, r1
 934:	61 05       	cpc	r22, r1
 936:	08 94       	sec
 938:	08 95       	ret

0000093a <__fp_zero>:
 93a:	e8 94       	clt

0000093c <__fp_szero>:
 93c:	bb 27       	eor	r27, r27
 93e:	66 27       	eor	r22, r22
 940:	77 27       	eor	r23, r23
 942:	cb 01       	movw	r24, r22
 944:	97 f9       	bld	r25, 7
 946:	08 95       	ret

00000948 <__mulsf3>:
 948:	0a d0       	rcall	.+20     	; 0x95e <__mulsf3x>
 94a:	80 c0       	rjmp	.+256    	; 0xa4c <__fp_round>
 94c:	71 d0       	rcall	.+226    	; 0xa30 <__fp_pscA>
 94e:	28 f0       	brcs	.+10     	; 0x95a <__mulsf3+0x12>
 950:	76 d0       	rcall	.+236    	; 0xa3e <__fp_pscB>
 952:	18 f0       	brcs	.+6      	; 0x95a <__mulsf3+0x12>
 954:	95 23       	and	r25, r21
 956:	09 f0       	breq	.+2      	; 0x95a <__mulsf3+0x12>
 958:	62 c0       	rjmp	.+196    	; 0xa1e <__fp_inf>
 95a:	67 c0       	rjmp	.+206    	; 0xa2a <__fp_nan>
 95c:	ef cf       	rjmp	.-34     	; 0x93c <__fp_szero>

0000095e <__mulsf3x>:
 95e:	cb df       	rcall	.-106    	; 0x8f6 <__fp_split3>
 960:	a8 f3       	brcs	.-22     	; 0x94c <__mulsf3+0x4>

00000962 <__mulsf3_pse>:
 962:	99 23       	and	r25, r25
 964:	d9 f3       	breq	.-10     	; 0x95c <__mulsf3+0x14>
 966:	55 23       	and	r21, r21
 968:	c9 f3       	breq	.-14     	; 0x95c <__mulsf3+0x14>
 96a:	95 0f       	add	r25, r21
 96c:	50 e0       	ldi	r21, 0x00	; 0
 96e:	55 1f       	adc	r21, r21
 970:	aa 27       	eor	r26, r26
 972:	ee 27       	eor	r30, r30
 974:	ff 27       	eor	r31, r31
 976:	bb 27       	eor	r27, r27
 978:	00 24       	eor	r0, r0
 97a:	08 94       	sec
 97c:	67 95       	ror	r22
 97e:	20 f4       	brcc	.+8      	; 0x988 <__mulsf3_pse+0x26>
 980:	e2 0f       	add	r30, r18
 982:	f3 1f       	adc	r31, r19
 984:	b4 1f       	adc	r27, r20
 986:	0a 1e       	adc	r0, r26
 988:	22 0f       	add	r18, r18
 98a:	33 1f       	adc	r19, r19
 98c:	44 1f       	adc	r20, r20
 98e:	aa 1f       	adc	r26, r26
 990:	66 95       	lsr	r22
 992:	a9 f7       	brne	.-22     	; 0x97e <__mulsf3_pse+0x1c>
 994:	77 95       	ror	r23
 996:	30 f4       	brcc	.+12     	; 0x9a4 <__mulsf3_pse+0x42>
 998:	f3 0f       	add	r31, r19
 99a:	b4 1f       	adc	r27, r20
 99c:	0a 1e       	adc	r0, r26
 99e:	12 1e       	adc	r1, r18
 9a0:	08 f4       	brcc	.+2      	; 0x9a4 <__mulsf3_pse+0x42>
 9a2:	63 95       	inc	r22
 9a4:	33 0f       	add	r19, r19
 9a6:	44 1f       	adc	r20, r20
 9a8:	aa 1f       	adc	r26, r26
 9aa:	22 1f       	adc	r18, r18
 9ac:	76 95       	lsr	r23
 9ae:	99 f7       	brne	.-26     	; 0x996 <__mulsf3_pse+0x34>
 9b0:	87 95       	ror	r24
 9b2:	20 f4       	brcc	.+8      	; 0x9bc <__mulsf3_pse+0x5a>
 9b4:	b4 0f       	add	r27, r20
 9b6:	0a 1e       	adc	r0, r26
 9b8:	12 1e       	adc	r1, r18
 9ba:	63 1f       	adc	r22, r19
 9bc:	44 0f       	add	r20, r20
 9be:	aa 1f       	adc	r26, r26
 9c0:	22 1f       	adc	r18, r18
 9c2:	33 1f       	adc	r19, r19
 9c4:	86 95       	lsr	r24
 9c6:	a9 f7       	brne	.-22     	; 0x9b2 <__mulsf3_pse+0x50>
 9c8:	86 2f       	mov	r24, r22
 9ca:	71 2d       	mov	r23, r1
 9cc:	60 2d       	mov	r22, r0
 9ce:	11 24       	eor	r1, r1
 9d0:	9f 57       	subi	r25, 0x7F	; 127
 9d2:	50 40       	sbci	r21, 0x00	; 0
 9d4:	8a f0       	brmi	.+34     	; 0x9f8 <__mulsf3_pse+0x96>
 9d6:	e1 f0       	breq	.+56     	; 0xa10 <__mulsf3_pse+0xae>
 9d8:	88 23       	and	r24, r24
 9da:	4a f0       	brmi	.+18     	; 0x9ee <__mulsf3_pse+0x8c>
 9dc:	ee 0f       	add	r30, r30
 9de:	ff 1f       	adc	r31, r31
 9e0:	bb 1f       	adc	r27, r27
 9e2:	66 1f       	adc	r22, r22
 9e4:	77 1f       	adc	r23, r23
 9e6:	88 1f       	adc	r24, r24
 9e8:	91 50       	subi	r25, 0x01	; 1
 9ea:	50 40       	sbci	r21, 0x00	; 0
 9ec:	a9 f7       	brne	.-22     	; 0x9d8 <__mulsf3_pse+0x76>
 9ee:	9e 3f       	cpi	r25, 0xFE	; 254
 9f0:	51 05       	cpc	r21, r1
 9f2:	70 f0       	brcs	.+28     	; 0xa10 <__mulsf3_pse+0xae>
 9f4:	14 c0       	rjmp	.+40     	; 0xa1e <__fp_inf>
 9f6:	a2 cf       	rjmp	.-188    	; 0x93c <__fp_szero>
 9f8:	5f 3f       	cpi	r21, 0xFF	; 255
 9fa:	ec f3       	brlt	.-6      	; 0x9f6 <__mulsf3_pse+0x94>
 9fc:	98 3e       	cpi	r25, 0xE8	; 232
 9fe:	dc f3       	brlt	.-10     	; 0x9f6 <__mulsf3_pse+0x94>
 a00:	86 95       	lsr	r24
 a02:	77 95       	ror	r23
 a04:	67 95       	ror	r22
 a06:	b7 95       	ror	r27
 a08:	f7 95       	ror	r31
 a0a:	e7 95       	ror	r30
 a0c:	9f 5f       	subi	r25, 0xFF	; 255
 a0e:	c1 f7       	brne	.-16     	; 0xa00 <__mulsf3_pse+0x9e>
 a10:	fe 2b       	or	r31, r30
 a12:	88 0f       	add	r24, r24
 a14:	91 1d       	adc	r25, r1
 a16:	96 95       	lsr	r25
 a18:	87 95       	ror	r24
 a1a:	97 f9       	bld	r25, 7
 a1c:	08 95       	ret

00000a1e <__fp_inf>:
 a1e:	97 f9       	bld	r25, 7
 a20:	9f 67       	ori	r25, 0x7F	; 127
 a22:	80 e8       	ldi	r24, 0x80	; 128
 a24:	70 e0       	ldi	r23, 0x00	; 0
 a26:	60 e0       	ldi	r22, 0x00	; 0
 a28:	08 95       	ret

00000a2a <__fp_nan>:
 a2a:	9f ef       	ldi	r25, 0xFF	; 255
 a2c:	80 ec       	ldi	r24, 0xC0	; 192
 a2e:	08 95       	ret

00000a30 <__fp_pscA>:
 a30:	00 24       	eor	r0, r0
 a32:	0a 94       	dec	r0
 a34:	16 16       	cp	r1, r22
 a36:	17 06       	cpc	r1, r23
 a38:	18 06       	cpc	r1, r24
 a3a:	09 06       	cpc	r0, r25
 a3c:	08 95       	ret

00000a3e <__fp_pscB>:
 a3e:	00 24       	eor	r0, r0
 a40:	0a 94       	dec	r0
 a42:	12 16       	cp	r1, r18
 a44:	13 06       	cpc	r1, r19
 a46:	14 06       	cpc	r1, r20
 a48:	05 06       	cpc	r0, r21
 a4a:	08 95       	ret

00000a4c <__fp_round>:
 a4c:	09 2e       	mov	r0, r25
 a4e:	03 94       	inc	r0
 a50:	00 0c       	add	r0, r0
 a52:	11 f4       	brne	.+4      	; 0xa58 <__fp_round+0xc>
 a54:	88 23       	and	r24, r24
 a56:	52 f0       	brmi	.+20     	; 0xa6c <__fp_round+0x20>
 a58:	bb 0f       	add	r27, r27
 a5a:	40 f4       	brcc	.+16     	; 0xa6c <__fp_round+0x20>
 a5c:	bf 2b       	or	r27, r31
 a5e:	11 f4       	brne	.+4      	; 0xa64 <__fp_round+0x18>
 a60:	60 ff       	sbrs	r22, 0
 a62:	04 c0       	rjmp	.+8      	; 0xa6c <__fp_round+0x20>
 a64:	6f 5f       	subi	r22, 0xFF	; 255
 a66:	7f 4f       	sbci	r23, 0xFF	; 255
 a68:	8f 4f       	sbci	r24, 0xFF	; 255
 a6a:	9f 4f       	sbci	r25, 0xFF	; 255
 a6c:	08 95       	ret

00000a6e <_exit>:
 a6e:	f8 94       	cli

00000a70 <__stop_program>:
 a70:	ff cf       	rjmp	.-2      	; 0xa70 <__stop_program>
