Archive member included because of file (symbol)

C:/WinAVR/bin/../lib/gcc/avr/3.4.1/avr5\libgcc.a(_udivmodhi4.o)
                              main.o (__udivmodhi4)
C:/WinAVR/bin/../lib/gcc/avr/3.4.1/avr5\libgcc.a(_copy_data.o)
                              main.o (__do_copy_data)
C:/WinAVR/bin/../lib/gcc/avr/3.4.1/avr5\libgcc.a(_clear_bss.o)
                              main.o (__do_clear_bss)
C:/WinAVR/bin/../lib/gcc/avr/3.4.1/../../../../avr/lib/avr5\libc.a(ee_rb.o)
                              main.o (eeprom_read_byte)
C:/WinAVR/bin/../lib/gcc/avr/3.4.1/../../../../avr/lib/avr5\libc.a(ee_rw.o)
                              main.o (eeprom_read_word)
C:/WinAVR/bin/../lib/gcc/avr/3.4.1/../../../../avr/lib/avr5\libc.a(ee_wb.o)
                              main.o (eeprom_write_byte)
C:/WinAVR/bin/../lib/gcc/avr/3.4.1/../../../../avr/lib/avr5\libc.a(ee_ww.o)
                              main.o (eeprom_write_word)
C:/WinAVR/bin/../lib/gcc/avr/3.4.1/../../../../avr/lib/avr5\libc.a(strcpy.o)
                              main.o (strcpy)

Allocating common symbols
Common symbol       size              file

intPhotocellValue   0x2               main.o
t                   0xc               main.o
uBacklightOffHour   0x1               main.o
intAlarmMin         0x2               main.o
uBacklightOnHour    0x1               main.o
uTimeSetState       0x1               main.o
intAlarmHour        0x2               main.o
intUserPhotoTriggerValue
                    0x2               main.o
pts                 0x2               main.o
str                 0x5               main.o
uSelectedLine       0x1               main.o

Memory Configuration

Name             Origin             Length             Attributes
text             0x00000000         0x00020000         xr
data             0x00800060         0x0000ffa0         rw !x
eeprom           0x00810000         0x00010000         rw !x
*default*        0x00000000         0xffffffff

Linker script and memory map

LOAD C:/WinAVR/bin/../lib/gcc/avr/3.4.1/../../../../avr/lib/avr5/crtm32.o
LOAD main.o
LOAD C:/WinAVR/bin/../lib/gcc/avr/3.4.1/../../../../avr/lib/avr5\libm.a
LOAD C:/WinAVR/bin/../lib/gcc/avr/3.4.1/avr5\libgcc.a
LOAD C:/WinAVR/bin/../lib/gcc/avr/3.4.1/../../../../avr/lib/avr5\libc.a
LOAD C:/WinAVR/bin/../lib/gcc/avr/3.4.1/avr5\libgcc.a

.hash
 *(.hash)

.dynsym
 *(.dynsym)

.dynstr
 *(.dynstr)

.gnu.version
 *(.gnu.version)

.gnu.version_d
 *(.gnu.version_d)

.gnu.version_r
 *(.gnu.version_r)

.rel.init
 *(.rel.init)

.rela.init
 *(.rela.init)

.rel.text
 *(.rel.text)
 *(.rel.text.*)
 *(.rel.gnu.linkonce.t*)

.rela.text
 *(.rela.text)
 *(.rela.text.*)
 *(.rela.gnu.linkonce.t*)

.rel.fini
 *(.rel.fini)

.rela.fini
 *(.rela.fini)

.rel.rodata
 *(.rel.rodata)
 *(.rel.rodata.*)
 *(.rel.gnu.linkonce.r*)

.rela.rodata
 *(.rela.rodata)
 *(.rela.rodata.*)
 *(.rela.gnu.linkonce.r*)

.rel.data
 *(.rel.data)
 *(.rel.data.*)
 *(.rel.gnu.linkonce.d*)

.rela.data
 *(.rela.data)
 *(.rela.data.*)
 *(.rela.gnu.linkonce.d*)

.rel.ctors
 *(.rel.ctors)

.rela.ctors
 *(.rela.ctors)

.rel.dtors
 *(.rel.dtors)

.rela.dtors
 *(.rela.dtors)

.rel.got
 *(.rel.got)

.rela.got
 *(.rela.got)

.rel.bss
 *(.rel.bss)

.rela.bss
 *(.rela.bss)

.rel.plt
 *(.rel.plt)

.rela.plt
 *(.rela.plt)

.text           0x00000000     0x3c70
 *(.vectors)
 .vectors       0x00000000       0x54 C:/WinAVR/bin/../lib/gcc/avr/3.4.1/../../../../avr/lib/avr5/crtm32.o
                0x00000000                __vectors
                0x00000000                __vector_default
                0x00000054                __ctors_start = .
 *(.ctors)
                0x00000054                __ctors_end = .
                0x00000054                __dtors_start = .
 *(.dtors)
                0x00000054                __dtors_end = .
 *(.progmem.gcc*)
 *(.progmem*)
 .progmem.data  0x00000054     0x1160 main.o
                0x000004af                strDec
                0x0000050e                strBacklightOffTime
                0x000004aa                strNov
                0x00000442                strHow
                0x000004ec                strPhotocellReading
                0x0000044f                strAudio
                0x000004b7                strPM
                0x000004ce                strDarkRoom
                0x00000556                strColonZero
                0x00000478                strJan
                0x0000073a                strBigFontPeriod
                0x0000055a                strBigFont0
                0x00000458                strRange
                0x0000049b                strAug
                0x00000054                font5x7
                0x00000465                strAlarmOff
                0x00000496                strJuly
                0x00000482                strMarch
                0x00000461                strRequals
                0x00000414                strSetTheTime
                0x000004fb                strSetTriggerValue
                0x00000521                strBacklightOnTime
                0x00000854                str51
                0x00000533                strUsuallyTen
                0x000004ba                strPhotoTriggerValue
                0x000004a5                strOct
                0x000004b4                strAM
                0x000009b4                strKustom
                0x000004dc                strBrightRoom
                0x00000545                strUsuallySix
                0x0000043b                strPatrol
                0x0000042f                strTarget
                0x000004a0                strSept
                0x000007a4                str50
                0x0000079a                strSegTbl
                0x0000048c                strMay
                0x00000491                strJune
                0x0000076a                strBigFontColon
                0x00000db4                strStop
                0x00000487                strApril
                0x00000436                strLock
                0x00000421                strSetTheAlarm
                0x00000904                str64
                0x0000046f                strAlarmOn
                0x0000047d                strFeb
                0x000011b4                . = ALIGN (0x2)
 *(.init0)
 *(.init1)
 *(.init2)
 .init2         0x000011b4        0xc C:/WinAVR/bin/../lib/gcc/avr/3.4.1/../../../../avr/lib/avr5/crtm32.o
 *(.init3)
 *(.init4)
 .init4         0x000011c0       0x16 C:/WinAVR/bin/../lib/gcc/avr/3.4.1/avr5\libgcc.a(_copy_data.o)
                0x000011c0                __do_copy_data
 .init4         0x000011d6       0x10 C:/WinAVR/bin/../lib/gcc/avr/3.4.1/avr5\libgcc.a(_clear_bss.o)
                0x000011d6                __do_clear_bss
 *(.init5)
 *(.init6)
 *(.init7)
 *(.init8)
 *(.init9)
 .init9         0x000011e6        0x4 C:/WinAVR/bin/../lib/gcc/avr/3.4.1/../../../../avr/lib/avr5/crtm32.o
 *(.text)
 .text          0x000011ea        0x4 C:/WinAVR/bin/../lib/gcc/avr/3.4.1/../../../../avr/lib/avr5/crtm32.o
                0x000011ea                __vector_12
                0x000011ea                __bad_interrupt
                0x000011ea                __vector_6
                0x000011ea                __vector_3
                0x000011ea                __vector_17
                0x000011ea                __vector_19
                0x000011ea                __vector_7
                0x000011ea                __vector_4
                0x000011ea                __vector_9
                0x000011ea                __vector_2
                0x000011ea                __vector_15
                0x000011ea                __vector_8
                0x000011ea                __vector_14
                0x000011ea                __vector_10
                0x000011ea                __vector_16
                0x000011ea                __vector_18
                0x000011ea                __vector_20
 .text          0x000011ee     0x29e8 main.o
                0x00002106                __vector_1
                0x00001a24                write_eagle_display
                0x00001c34                paintMenu
                0x0000357e                write_command
                0x000016a0                stop_image
                0x00001456                get_status
                0x0000391a                ShowLargeTime
                0x00001e96                __vector_11
                0x0000156c                alphabet
                0x000020e6                __vector_13
                0x00001a60                drawText
                0x00003b4a                setBacklightOnTime
                0x00001230                write_data
                0x000021da                integerToArray
                0x00001edc                __vector_5
                0x00003abe                setBacklightOffTime
                0x00001400                clear_display
                0x000012a4                send_serial_data
                0x00003506                InitLCD
                0x00001724                BigDigits
                0x000039ec                ShowLargeAlarmTime
                0x00002126                main
                0x00001af8                subLargeCOlon
                0x0000161c                kustom_image
                0x000014cc                moveCursorToColumn
                0x00002298                SrvTock
                0x0000152c                write_pixel_spaces
                0x00003874                write_small_numbers
                0x00001cfe                uCinit
                0x000035f2                write_date
                0x0000136a                write_char
                0x000011ee                set_line
                0x0000216e                not_leap
 .text          0x00003bd6       0x10 C:/WinAVR/bin/../lib/gcc/avr/3.4.1/../../../../avr/lib/avr5\libc.a(ee_rb.o)
                0x00003bd6                eeprom_read_byte
 .text          0x00003be6       0x1a C:/WinAVR/bin/../lib/gcc/avr/3.4.1/../../../../avr/lib/avr5\libc.a(ee_rw.o)
                0x00003be6                eeprom_read_word
 .text          0x00003c00       0x16 C:/WinAVR/bin/../lib/gcc/avr/3.4.1/../../../../avr/lib/avr5\libc.a(ee_wb.o)
                0x00003c00                eeprom_write_byte
 .text          0x00003c16       0x24 C:/WinAVR/bin/../lib/gcc/avr/3.4.1/../../../../avr/lib/avr5\libc.a(ee_ww.o)
                0x00003c16                eeprom_write_word
 .text          0x00003c3a        0xe C:/WinAVR/bin/../lib/gcc/avr/3.4.1/../../../../avr/lib/avr5\libc.a(strcpy.o)
                0x00003c3a                strcpy
                0x00003c48                . = ALIGN (0x2)
 *(.text.*)
 .text.libgcc   0x00003c48       0x28 C:/WinAVR/bin/../lib/gcc/avr/3.4.1/avr5\libgcc.a(_udivmodhi4.o)
                0x00003c48                __udivmodhi4
                0x00003c70                . = ALIGN (0x2)
 *(.fini9)
 *(.fini8)
 *(.fini7)
 *(.fini6)
 *(.fini5)
 *(.fini4)
 *(.fini3)
 *(.fini2)
 *(.fini1)
 *(.fini0)
                0x00003c70                _etext = .

.data           0x00800060        0xc load address 0x00003c70
                0x00800060                PROVIDE (__data_start, .)
 *(.data)
 .data          0x00800060        0xc main.o
                0x00800065                uContrast
                0x00800064                uTmrGeneral
                0x00800063                uBob
                0x00800060                uTock
                0x00800062                uTmrState
                0x00800066                boolPowerupBlink
 *(.gnu.linkonce.d*)
                0x0080006c                . = ALIGN (0x2)
                0x0080006c                _edata = .
                0x0080006c                PROVIDE (__data_end, .)

.bss            0x0080006c       0x26
                0x0080006c                PROVIDE (__bss_start, .)
 *(.bss)
 .bss           0x0080006c        0x7 main.o
                0x0080006d                uBtnUpTmr
                0x0080006e                uBtnDwnTmr
                0x00800070                boolSoundAlarm
                0x00800072                uRefreshDisplay
                0x00800071                boolAlarmOn
                0x0080006c                uState
                0x0080006f                uBtnEnterTmr
 *(COMMON)
 COMMON         0x00800073       0x1f main.o
                                  0x0 (size before relaxing)
                0x00800073                intPhotocellValue
                0x00800075                t
                0x00800081                uBacklightOffHour
                0x00800082                intAlarmMin
                0x00800084                uBacklightOnHour
                0x00800085                uTimeSetState
                0x00800086                intAlarmHour
                0x00800088                intUserPhotoTriggerValue
                0x0080008a                pts
                0x0080008c                str
                0x00800091                uSelectedLine
                0x00800092                PROVIDE (__bss_end, .)
                0x00003c70                __data_load_start = LOADADDR (.data)
                0x00003c7c                __data_load_end = (__data_load_start + SIZEOF (.data))

.noinit         0x00800092        0x0
                0x00800092                PROVIDE (__noinit_start, .)
 *(.noinit*)
                0x00800092                PROVIDE (__noinit_end, .)
                0x00800092                _end = .
                0x00800092                PROVIDE (__heap_start, .)

.eeprom         0x00810000        0xa load address 0x00003c7c
 *(.eeprom*)
 .eeprom        0x00810000        0xa main.o
                0x00810000                EEKey
                0x00810008                EEBacklightOnHour
                0x00810006                EEPhotoTriggerValue
                0x00810009                EEBacklightOffHour
                0x00810002                EEMinute
                0x00810004                EEHour
                0x0081000a                __eeprom_end = .

.stab           0x00000000     0x3834
 *(.stab)
 .stab          0x00000000     0x3834 main.o

.stabstr        0x00000000     0x17f8
 *(.stabstr)
 .stabstr       0x00000000     0x17f8 main.o
                                  0x0 (size before relaxing)

.stab.excl
 *(.stab.excl)

.stab.exclstr
 *(.stab.exclstr)

.stab.index
 *(.stab.index)

.stab.indexstr
 *(.stab.indexstr)

.comment
 *(.comment)

.debug
 *(.debug)

.line
 *(.line)

.debug_srcinfo
 *(.debug_srcinfo)

.debug_sfnames
 *(.debug_sfnames)

.debug_aranges
 *(.debug_aranges)

.debug_pubnames
 *(.debug_pubnames)

.debug_info
 *(.debug_info)
 *(.gnu.linkonce.wi.*)

.debug_abbrev
 *(.debug_abbrev)

.debug_line
 *(.debug_line)

.debug_frame
 *(.debug_frame)

.debug_str
 *(.debug_str)

.debug_loc
 *(.debug_loc)

.debug_macinfo
 *(.debug_macinfo)
OUTPUT(main.elf elf32-avr)

Cross Reference Table

Symbol                                            File
BigDigits                                         main.o
EEBacklightOffHour                                main.o
EEBacklightOnHour                                 main.o
EEHour                                            main.o
EEKey                                             main.o
EEMinute                                          main.o
EEPhotoTriggerValue                               main.o
InitLCD                                           main.o
ShowLargeAlarmTime                                main.o
ShowLargeTime                                     main.o
SrvTock                                           main.o
__bad_interrupt                                   C:/WinAVR/bin/../lib/gcc/avr/3.4.1/../../../../avr/lib/avr5/crtm32.o
__bss_end                                         C:/WinAVR/bin/../lib/gcc/avr/3.4.1/avr5\libgcc.a(_clear_bss.o)
__bss_start                                       C:/WinAVR/bin/../lib/gcc/avr/3.4.1/avr5\libgcc.a(_clear_bss.o)
__data_end                                        C:/WinAVR/bin/../lib/gcc/avr/3.4.1/avr5\libgcc.a(_copy_data.o)
__data_load_start                                 C:/WinAVR/bin/../lib/gcc/avr/3.4.1/avr5\libgcc.a(_copy_data.o)
__data_start                                      C:/WinAVR/bin/../lib/gcc/avr/3.4.1/avr5\libgcc.a(_copy_data.o)
__do_clear_bss                                    C:/WinAVR/bin/../lib/gcc/avr/3.4.1/avr5\libgcc.a(_clear_bss.o)
                                                  main.o
__do_copy_data                                    C:/WinAVR/bin/../lib/gcc/avr/3.4.1/avr5\libgcc.a(_copy_data.o)
                                                  main.o
__heap_end                                        C:/WinAVR/bin/../lib/gcc/avr/3.4.1/../../../../avr/lib/avr5/crtm32.o
__init                                            C:/WinAVR/bin/../lib/gcc/avr/3.4.1/../../../../avr/lib/avr5/crtm32.o
__stack                                           C:/WinAVR/bin/../lib/gcc/avr/3.4.1/../../../../avr/lib/avr5/crtm32.o
                                                  main.o
__udivmodhi4                                      C:/WinAVR/bin/../lib/gcc/avr/3.4.1/avr5\libgcc.a(_udivmodhi4.o)
                                                  main.o
__vector_1                                        main.o
                                                  C:/WinAVR/bin/../lib/gcc/avr/3.4.1/../../../../avr/lib/avr5/crtm32.o
__vector_10                                       C:/WinAVR/bin/../lib/gcc/avr/3.4.1/../../../../avr/lib/avr5/crtm32.o
__vector_11                                       main.o
                                                  C:/WinAVR/bin/../lib/gcc/avr/3.4.1/../../../../avr/lib/avr5/crtm32.o
__vector_12                                       C:/WinAVR/bin/../lib/gcc/avr/3.4.1/../../../../avr/lib/avr5/crtm32.o
__vector_13                                       main.o
                                                  C:/WinAVR/bin/../lib/gcc/avr/3.4.1/../../../../avr/lib/avr5/crtm32.o
__vector_14                                       C:/WinAVR/bin/../lib/gcc/avr/3.4.1/../../../../avr/lib/avr5/crtm32.o
__vector_15                                       C:/WinAVR/bin/../lib/gcc/avr/3.4.1/../../../../avr/lib/avr5/crtm32.o
__vector_16                                       C:/WinAVR/bin/../lib/gcc/avr/3.4.1/../../../../avr/lib/avr5/crtm32.o
__vector_17                                       C:/WinAVR/bin/../lib/gcc/avr/3.4.1/../../../../avr/lib/avr5/crtm32.o
__vector_18                                       C:/WinAVR/bin/../lib/gcc/avr/3.4.1/../../../../avr/lib/avr5/crtm32.o
__vector_19                                       C:/WinAVR/bin/../lib/gcc/avr/3.4.1/../../../../avr/lib/avr5/crtm32.o
__vector_2                                        C:/WinAVR/bin/../lib/gcc/avr/3.4.1/../../../../avr/lib/avr5/crtm32.o
__vector_20                                       C:/WinAVR/bin/../lib/gcc/avr/3.4.1/../../../../avr/lib/avr5/crtm32.o
__vector_3                                        C:/WinAVR/bin/../lib/gcc/avr/3.4.1/../../../../avr/lib/avr5/crtm32.o
__vector_4                                        C:/WinAVR/bin/../lib/gcc/avr/3.4.1/../../../../avr/lib/avr5/crtm32.o
__vector_5                                        main.o
                                                  C:/WinAVR/bin/../lib/gcc/avr/3.4.1/../../../../avr/lib/avr5/crtm32.o
__vector_6                                        C:/WinAVR/bin/../lib/gcc/avr/3.4.1/../../../../avr/lib/avr5/crtm32.o
__vector_7                                        C:/WinAVR/bin/../lib/gcc/avr/3.4.1/../../../../avr/lib/avr5/crtm32.o
__vector_8                                        C:/WinAVR/bin/../lib/gcc/avr/3.4.1/../../../../avr/lib/avr5/crtm32.o
__vector_9                                        C:/WinAVR/bin/../lib/gcc/avr/3.4.1/../../../../avr/lib/avr5/crtm32.o
__vector_default                                  C:/WinAVR/bin/../lib/gcc/avr/3.4.1/../../../../avr/lib/avr5/crtm32.o
__vectors                                         C:/WinAVR/bin/../lib/gcc/avr/3.4.1/../../../../avr/lib/avr5/crtm32.o
alphabet                                          main.o
boolAlarmOn                                       main.o
boolPowerupBlink                                  main.o
boolSoundAlarm                                    main.o
clear_display                                     main.o
drawText                                          main.o
eeprom_read_byte                                  C:/WinAVR/bin/../lib/gcc/avr/3.4.1/../../../../avr/lib/avr5\libc.a(ee_rb.o)
                                                  main.o
eeprom_read_word                                  C:/WinAVR/bin/../lib/gcc/avr/3.4.1/../../../../avr/lib/avr5\libc.a(ee_rw.o)
                                                  main.o
eeprom_write_byte                                 C:/WinAVR/bin/../lib/gcc/avr/3.4.1/../../../../avr/lib/avr5\libc.a(ee_wb.o)
                                                  main.o
eeprom_write_word                                 C:/WinAVR/bin/../lib/gcc/avr/3.4.1/../../../../avr/lib/avr5\libc.a(ee_ww.o)
                                                  main.o
font5x7                                           main.o
get_status                                        main.o
intAlarmHour                                      main.o
intAlarmMin                                       main.o
intPhotocellValue                                 main.o
intUserPhotoTriggerValue                          main.o
integerToArray                                    main.o
kustom_image                                      main.o
main                                              main.o
                                                  C:/WinAVR/bin/../lib/gcc/avr/3.4.1/../../../../avr/lib/avr5/crtm32.o
moveCursorToColumn                                main.o
not_leap                                          main.o
paintMenu                                         main.o
pts                                               main.o
send_serial_data                                  main.o
setBacklightOffTime                               main.o
setBacklightOnTime                                main.o
set_line                                          main.o
stop_image                                        main.o
str                                               main.o
str50                                             main.o
str51                                             main.o
str64                                             main.o
strAM                                             main.o
strAlarmOff                                       main.o
strAlarmOn                                        main.o
strApril                                          main.o
strAudio                                          main.o
strAug                                            main.o
strBacklightOffTime                               main.o
strBacklightOnTime                                main.o
strBigFont0                                       main.o
strBigFontColon                                   main.o
strBigFontPeriod                                  main.o
strBrightRoom                                     main.o
strColonZero                                      main.o
strDarkRoom                                       main.o
strDec                                            main.o
strFeb                                            main.o
strHow                                            main.o
strJan                                            main.o
strJuly                                           main.o
strJune                                           main.o
strKustom                                         main.o
strLock                                           main.o
strMarch                                          main.o
strMay                                            main.o
strNov                                            main.o
strOct                                            main.o
strPM                                             main.o
strPatrol                                         main.o
strPhotoTriggerValue                              main.o
strPhotocellReading                               main.o
strRange                                          main.o
strRequals                                        main.o
strSegTbl                                         main.o
strSept                                           main.o
strSetTheAlarm                                    main.o
strSetTheTime                                     main.o
strSetTriggerValue                                main.o
strStop                                           main.o
strTarget                                         main.o
strUsuallySix                                     main.o
strUsuallyTen                                     main.o
strcpy                                            C:/WinAVR/bin/../lib/gcc/avr/3.4.1/../../../../avr/lib/avr5\libc.a(strcpy.o)
                                                  main.o
subLargeCOlon                                     main.o
t                                                 main.o
uBacklightOffHour                                 main.o
uBacklightOnHour                                  main.o
uBob                                              main.o
uBtnDwnTmr                                        main.o
uBtnEnterTmr                                      main.o
uBtnUpTmr                                         main.o
uCinit                                            main.o
uContrast                                         main.o
uRefreshDisplay                                   main.o
uSelectedLine                                     main.o
uState                                            main.o
uTimeSetState                                     main.o
uTmrGeneral                                       main.o
uTmrState                                         main.o
uTock                                             main.o
write_char                                        main.o
write_command                                     main.o
write_data                                        main.o
write_date                                        main.o
write_eagle_display                               main.o
write_pixel_spaces                                main.o
write_small_numbers                               main.o
