   1               		.file	"SD.c"
   2               	__SREG__ = 0x3f
   3               	__SP_H__ = 0x3e
   4               	__SP_L__ = 0x3d
   5               	__CCP__  = 0x34
   6               	__tmp_reg__ = 0
   7               	__zero_reg__ = 1
  15               	.Ltext0:
  16               	.global	sd_init
  18               	sd_init:
  19               	.LFB14:
  20               	.LM1:
  21               	/* prologue: function */
  22               	/* frame size = 0 */
  23               	.LM2:
  24 0000 2998      		cbi 37-32,1
  25               	.LM3:
  26 0002 5F9A      		sbi 43-32,7
  27               	.LM4:
  28 0004 2A9A      		sbi 37-32,2
  29               	.LM5:
  30 0006 2B9A      		sbi 37-32,3
  31               	.LM6:
  32 0008 219A      		sbi 36-32,1
  33               	.LM7:
  34 000a 2398      		cbi 36-32,3
  35               	.LM8:
  36 000c 229A      		sbi 36-32,2
  37               	.LM9:
  38 000e 579A      		sbi 42-32,7
  39               	.LM10:
  40 0010 E4E6      		ldi r30,lo8(100)
  41 0012 F0E0      		ldi r31,hi8(100)
  42 0014 8081      		ld r24,Z
  43 0016 8B7F      		andi r24,lo8(-5)
  44 0018 8083      		st Z,r24
  45               	.LM11:
  46 001a 209A      		sbi 36-32,0
  47               	.LM12:
  48 001c 289A      		sbi 37-32,0
  49               	.LM13:
  50 001e 8CB5      		in r24,76-32
  51 0020 8860      		ori r24,lo8(8)
  52 0022 8CBD      		out 76-32,r24
  53               	.LM14:
  54 0024 8CB5      		in r24,76-32
  55 0026 8460      		ori r24,lo8(4)
  56 0028 8CBD      		out 76-32,r24
  57               	.LM15:
  58 002a 8CB5      		in r24,76-32
  59 002c 8061      		ori r24,lo8(16)
  60 002e 8CBD      		out 76-32,r24
  61               	.LM16:
  62 0030 8CB5      		in r24,76-32
  63 0032 8360      		ori r24,lo8(3)
  64 0034 8CBD      		out 76-32,r24
  65               	.LM17:
  66 0036 8CB5      		in r24,76-32
  67 0038 8064      		ori r24,lo8(64)
  68 003a 8CBD      		out 76-32,r24
  69               	.LM18:
  70 003c 8DB5      		in r24,77-32
  71 003e 8160      		ori r24,lo8(1)
  72 0040 8DBD      		out 77-32,r24
  73               	/* epilogue start */
  74               	.LM19:
  75 0042 0895      		ret
  76               	.LFE14:
  79               	response_r1:
  80               	.LFB24:
  81               	.LM20:
  82               	/* prologue: function */
  83               	/* frame size = 0 */
  84               	.LM21:
  85 0044 28E8      		ldi r18,lo8(5000)
  86 0046 33E1      		ldi r19,hi8(5000)
  87               	.LVL0:
  88               	.LBB214:
  89               	.LBB215:
  90               	.LM22:
  91 0048 9FEF      		ldi r25,lo8(-1)
  92               	.LVL1:
  93               	.L7:
  94 004a 9EBD      		out 78-32,r25
  95               	.L4:
  96               	.LM23:
  97 004c 0DB4      		in __tmp_reg__,77-32
  98 004e 07FE      		sbrs __tmp_reg__,7
  99 0050 00C0      		rjmp .L4
 100               	.LM24:
 101 0052 8EB5      		in r24,78-32
 102               	.LBE215:
 103               	.LBE214:
 104               	.LM25:
 105 0054 8823      		tst r24
 106 0056 04F4      		brge .L11
 107               	.LM26:
 108 0058 2250      		subi r18,lo8(-(-2))
 109 005a 3040      		sbci r19,hi8(-(-2))
 110               	.LM27:
 111 005c 01F4      		brne .L7
 112               	.L11:
 113               	.LVL2:
 114               	.LM28:
 115 005e 0895      		ret
 116               	.LFE24:
 119               	transfer_long:
 120               	.LFB25:
 121               	.LM29:
 122               	.LVL3:
 123               	/* prologue: function */
 124               	/* frame size = 0 */
 125 0060 9B01      		movw r18,r22
 126 0062 AC01      		movw r20,r24
 127               	.LM30:
 128 0064 892F      		mov r24,r25
 129 0066 9927      		clr r25
 130 0068 AA27      		clr r26
 131 006a BB27      		clr r27
 132               	.LBB216:
 133               	.LBB217:
 134               	.LM31:
 135 006c 8EBD      		out 78-32,r24
 136               	.L13:
 137               	.LM32:
 138 006e 0DB4      		in __tmp_reg__,77-32
 139 0070 07FE      		sbrs __tmp_reg__,7
 140 0072 00C0      		rjmp .L13
 141               	.LM33:
 142 0074 7EB5      		in r23,78-32
 143               	.LVL4:
 144               	.LBE217:
 145               	.LBE216:
 146               	.LM34:
 147 0076 CA01      		movw r24,r20
 148 0078 AA27      		clr r26
 149 007a BB27      		clr r27
 150               	.LBB218:
 151               	.LBB219:
 152               	.LM35:
 153 007c 8EBD      		out 78-32,r24
 154               	.LVL5:
 155               	.L14:
 156               	.LM36:
 157 007e 0DB4      		in __tmp_reg__,77-32
 158 0080 07FE      		sbrs __tmp_reg__,7
 159 0082 00C0      		rjmp .L14
 160               	.LM37:
 161 0084 6EB5      		in r22,78-32
 162               	.LVL6:
 163               	.LBE219:
 164               	.LBE218:
 165               	.LM38:
 166 0086 BB27      		clr r27
 167 0088 A52F      		mov r26,r21
 168 008a 942F      		mov r25,r20
 169 008c 832F      		mov r24,r19
 170               	.LBB220:
 171               	.LBB221:
 172               	.LM39:
 173 008e 8EBD      		out 78-32,r24
 174               	.L15:
 175               	.LM40:
 176 0090 0DB4      		in __tmp_reg__,77-32
 177 0092 07FE      		sbrs __tmp_reg__,7
 178 0094 00C0      		rjmp .L15
 179               	.LM41:
 180 0096 9EB5      		in r25,78-32
 181               	.LVL7:
 182               	.LBE221:
 183               	.LBE220:
 184               	.LBB222:
 185               	.LBB223:
 186               	.LM42:
 187 0098 2EBD      		out 78-32,r18
 188               	.L16:
 189               	.LM43:
 190 009a 0DB4      		in __tmp_reg__,77-32
 191 009c 07FE      		sbrs __tmp_reg__,7
 192 009e 00C0      		rjmp .L16
 193               	.LM44:
 194 00a0 8EB5      		in r24,78-32
 195               	.LVL8:
 196               	.LBE223:
 197               	.LBE222:
 198               	.LM45:
 199 00a2 272F      		mov r18,r23
 200               	.LVL9:
 201 00a4 30E0      		ldi r19,lo8(0)
 202               	.LVL10:
 203 00a6 40E0      		ldi r20,lo8(0)
 204 00a8 50E0      		ldi r21,hi8(0)
 205               	.LVL11:
 206               	.LM46:
 207 00aa 542F      		mov r21,r20
 208 00ac 432F      		mov r20,r19
 209 00ae 322F      		mov r19,r18
 210 00b0 2227      		clr r18
 211               	.LVL12:
 212               	.LM47:
 213 00b2 260F      		add r18,r22
 214 00b4 311D      		adc r19,__zero_reg__
 215 00b6 411D      		adc r20,__zero_reg__
 216 00b8 511D      		adc r21,__zero_reg__
 217               	.LM48:
 218 00ba 542F      		mov r21,r20
 219 00bc 432F      		mov r20,r19
 220 00be 322F      		mov r19,r18
 221 00c0 2227      		clr r18
 222               	.LVL13:
 223               	.LM49:
 224 00c2 290F      		add r18,r25
 225 00c4 311D      		adc r19,__zero_reg__
 226 00c6 411D      		adc r20,__zero_reg__
 227 00c8 511D      		adc r21,__zero_reg__
 228               	.LM50:
 229 00ca 542F      		mov r21,r20
 230 00cc 432F      		mov r20,r19
 231 00ce 322F      		mov r19,r18
 232 00d0 2227      		clr r18
 233               	.LVL14:
 234 00d2 280F      		add r18,r24
 235 00d4 311D      		adc r19,__zero_reg__
 236 00d6 411D      		adc r20,__zero_reg__
 237 00d8 511D      		adc r21,__zero_reg__
 238               	.LM51:
 239 00da B901      		movw r22,r18
 240 00dc CA01      		movw r24,r20
 241               	.LVL15:
 242               	/* epilogue start */
 243 00de 0895      		ret
 244               	.LFE25:
 246               	.global	sd_initcard
 248               	sd_initcard:
 249               	.LFB15:
 250               	.LM52:
 251 00e0 8F92      		push r8
 252 00e2 9F92      		push r9
 253 00e4 AF92      		push r10
 254 00e6 BF92      		push r11
 255 00e8 CF92      		push r12
 256 00ea DF92      		push r13
 257 00ec EF92      		push r14
 258 00ee FF92      		push r15
 259 00f0 0F93      		push r16
 260 00f2 1F93      		push r17
 261 00f4 CF93      		push r28
 262 00f6 DF93      		push r29
 263               	/* prologue: function */
 264               	/* frame size = 0 */
 265               	.LM53:
 266 00f8 8CB5      		in r24,76-32
 267 00fa 8360      		ori r24,lo8(3)
 268 00fc 8CBD      		out 76-32,r24
 269               	.LM54:
 270 00fe 1092 0000 		sts sd_sdhc,__zero_reg__
 271               	.LBB298:
 272               	.LM55:
 273 0102 8091 0000 		lds r24,sd_debug_fifo_ptr
 274 0106 9091 0000 		lds r25,(sd_debug_fifo_ptr)+1
 275 010a 60E0      		ldi r22,lo8(__c.2308)
 276 010c 70E0      		ldi r23,hi8(__c.2308)
 277 010e 0E94 0000 		call fifo_write_string_P
 278 0112 8AE0      		ldi r24,lo8(10)
 279 0114 90E0      		ldi r25,hi8(10)
 280               	.LVL16:
 281               	.LBB299:
 282               	.LBB304:
 283               	.LBB305:
 284               	.LM56:
 285 0116 2FEF      		ldi r18,lo8(-1)
 286 0118 00C0      		rjmp .L23
 287               	.L25:
 288 011a 2EBD      		out 78-32,r18
 289               	.L24:
 290               	.LM57:
 291 011c 0DB4      		in __tmp_reg__,77-32
 292 011e 07FE      		sbrs __tmp_reg__,7
 293 0120 00C0      		rjmp .L24
 294               	.LM58:
 295 0122 3EB5      		in r19,78-32
 296               	.LVL17:
 297               	.L23:
 298               	.LBE305:
 299               	.LBE304:
 300               	.LM59:
 301 0124 0197      		sbiw r24,1
 302 0126 3FEF      		ldi r19,hi8(-1)
 303 0128 8F3F      		cpi r24,lo8(-1)
 304 012a 9307      		cpc r25,r19
 305               	.LVL18:
 306 012c 01F4      		brne .L25
 307               	.LM60:
 308 012e 5F98      		cbi 43-32,7
 309               	.LBB302:
 310               	.LBB303:
 311               	.LM61:
 312 0130 80E4      		ldi r24,lo8(64)
 313               	.LVL19:
 314 0132 8EBD      		out 78-32,r24
 315               	.L26:
 316               	.LM62:
 317 0134 0DB4      		in __tmp_reg__,77-32
 318 0136 07FE      		sbrs __tmp_reg__,7
 319 0138 00C0      		rjmp .L26
 320               	.LM63:
 321 013a 8EB5      		in r24,78-32
 322               	.LVL20:
 323               	.LBE303:
 324               	.LBE302:
 325               	.LM64:
 326 013c 60E0      		ldi r22,lo8(0)
 327 013e 70E0      		ldi r23,hi8(0)
 328 0140 80E0      		ldi r24,hlo8(0)
 329 0142 90E0      		ldi r25,hhi8(0)
 330 0144 0E94 0000 		call transfer_long
 331               	.LVL21:
 332               	.LBB300:
 333               	.LBB301:
 334               	.LM65:
 335 0148 85E9      		ldi r24,lo8(-107)
 336 014a 8EBD      		out 78-32,r24
 337               	.L27:
 338               	.LM66:
 339 014c 0DB4      		in __tmp_reg__,77-32
 340 014e 07FE      		sbrs __tmp_reg__,7
 341 0150 00C0      		rjmp .L27
 342               	.LM67:
 343 0152 8EB5      		in r24,78-32
 344               	.LVL22:
 345               	.LBE301:
 346               	.LBE300:
 347               	.LBE299:
 348               	.LM68:
 349 0154 0E94 0000 		call response_r1
 350               	.LVL23:
 351 0158 982F      		mov r25,r24
 352               	.LBB310:
 353               	.LBB306:
 354               	.LBB307:
 355               	.LM69:
 356 015a 8FEF      		ldi r24,lo8(-1)
 357 015c 8EBD      		out 78-32,r24
 358               	.L28:
 359               	.LM70:
 360 015e 0DB4      		in __tmp_reg__,77-32
 361 0160 07FE      		sbrs __tmp_reg__,7
 362 0162 00C0      		rjmp .L28
 363               	.LM71:
 364 0164 8EB5      		in r24,78-32
 365               	.LVL24:
 366               	.LBE307:
 367               	.LBE306:
 368               	.LBB308:
 369               	.LBB309:
 370               	.LM72:
 371 0166 8FEF      		ldi r24,lo8(-1)
 372               	.LVL25:
 373 0168 8EBD      		out 78-32,r24
 374               	.L29:
 375               	.LM73:
 376 016a 0DB4      		in __tmp_reg__,77-32
 377 016c 07FE      		sbrs __tmp_reg__,7
 378 016e 00C0      		rjmp .L29
 379               	.LM74:
 380 0170 8EB5      		in r24,78-32
 381               	.LVL26:
 382               	.LBE309:
 383               	.LBE308:
 384               	.LM75:
 385 0172 5F9A      		sbi 43-32,7
 386 0174 2091 0000 		lds r18,sd_debug_fifo_ptr
 387 0178 3091 0000 		lds r19,(sd_debug_fifo_ptr)+1
 388               	.LM76:
 389 017c 9130      		cpi r25,lo8(1)
 390 017e 01F0      		breq .L30
 391               	.LBE310:
 392               	.LM77:
 393 0180 C901      		movw r24,r18
 394               	.LVL27:
 395 0182 60E0      		ldi r22,lo8(__c.2313)
 396 0184 70E0      		ldi r23,hi8(__c.2313)
 397 0186 0E94 0000 		call fifo_write_string_P
 398 018a 00C0      		rjmp .L31
 399               	.LVL28:
 400               	.L30:
 401               	.LBE298:
 402               	.LM78:
 403 018c 82E0      		ldi r24,lo8(2)
 404               	.LVL29:
 405 018e 8093 0000 		sts sd_version,r24
 406               	.LBB311:
 407               	.LM79:
 408 0192 C901      		movw r24,r18
 409 0194 60E0      		ldi r22,lo8(__c.2328)
 410 0196 70E0      		ldi r23,hi8(__c.2328)
 411 0198 0E94 0000 		call fifo_write_string_P
 412               	.LBB312:
 413               	.LM80:
 414 019c 5F98      		cbi 43-32,7
 415               	.LBB323:
 416               	.LBB324:
 417               	.LM81:
 418 019e 88E4      		ldi r24,lo8(72)
 419 01a0 8EBD      		out 78-32,r24
 420               	.L32:
 421               	.LM82:
 422 01a2 0DB4      		in __tmp_reg__,77-32
 423 01a4 07FE      		sbrs __tmp_reg__,7
 424 01a6 00C0      		rjmp .L32
 425               	.LM83:
 426 01a8 8EB5      		in r24,78-32
 427               	.LVL30:
 428               	.LBE324:
 429               	.LBE323:
 430               	.LBB321:
 431               	.LBB322:
 432               	.LM84:
 433 01aa 1EBC      		out 78-32,__zero_reg__
 434               	.L33:
 435               	.LM85:
 436 01ac 0DB4      		in __tmp_reg__,77-32
 437 01ae 07FE      		sbrs __tmp_reg__,7
 438 01b0 00C0      		rjmp .L33
 439               	.LM86:
 440 01b2 8EB5      		in r24,78-32
 441               	.LVL31:
 442               	.LBE322:
 443               	.LBE321:
 444               	.LBB319:
 445               	.LBB320:
 446               	.LM87:
 447 01b4 1EBC      		out 78-32,__zero_reg__
 448               	.L34:
 449               	.LM88:
 450 01b6 0DB4      		in __tmp_reg__,77-32
 451 01b8 07FE      		sbrs __tmp_reg__,7
 452 01ba 00C0      		rjmp .L34
 453               	.LM89:
 454 01bc 8EB5      		in r24,78-32
 455               	.LVL32:
 456               	.LBE320:
 457               	.LBE319:
 458               	.LBB317:
 459               	.LBB318:
 460               	.LM90:
 461 01be 81E0      		ldi r24,lo8(1)
 462               	.LVL33:
 463 01c0 8EBD      		out 78-32,r24
 464               	.L35:
 465               	.LM91:
 466 01c2 0DB4      		in __tmp_reg__,77-32
 467 01c4 07FE      		sbrs __tmp_reg__,7
 468 01c6 00C0      		rjmp .L35
 469               	.LM92:
 470 01c8 8EB5      		in r24,78-32
 471               	.LVL34:
 472               	.LBE318:
 473               	.LBE317:
 474               	.LBB315:
 475               	.LBB316:
 476               	.LM93:
 477 01ca 8AEA      		ldi r24,lo8(-86)
 478               	.LVL35:
 479 01cc 8EBD      		out 78-32,r24
 480               	.L36:
 481               	.LM94:
 482 01ce 0DB4      		in __tmp_reg__,77-32
 483 01d0 07FE      		sbrs __tmp_reg__,7
 484 01d2 00C0      		rjmp .L36
 485               	.LM95:
 486 01d4 8EB5      		in r24,78-32
 487               	.LVL36:
 488               	.LBE316:
 489               	.LBE315:
 490               	.LBB313:
 491               	.LBB314:
 492               	.LM96:
 493 01d6 87E8      		ldi r24,lo8(-121)
 494               	.LVL37:
 495 01d8 8EBD      		out 78-32,r24
 496               	.L37:
 497               	.LM97:
 498 01da 0DB4      		in __tmp_reg__,77-32
 499 01dc 07FE      		sbrs __tmp_reg__,7
 500 01de 00C0      		rjmp .L37
 501               	.LM98:
 502 01e0 8EB5      		in r24,78-32
 503               	.LVL38:
 504               	.LBE314:
 505               	.LBE313:
 506               	.LBE312:
 507               	.LM99:
 508 01e2 0E94 0000 		call response_r1
 509               	.LVL39:
 510               	.LBB337:
 511 01e6 8E7F      		andi r24,lo8(-2)
 512 01e8 01F4      		brne .L38
 513               	.LBB325:
 514               	.LBB326:
 515               	.LM100:
 516 01ea 8FEF      		ldi r24,lo8(-1)
 517 01ec 8EBD      		out 78-32,r24
 518               	.L39:
 519               	.LM101:
 520 01ee 0DB4      		in __tmp_reg__,77-32
 521 01f0 07FE      		sbrs __tmp_reg__,7
 522 01f2 00C0      		rjmp .L39
 523               	.LM102:
 524 01f4 8EB5      		in r24,78-32
 525               	.LVL40:
 526               	.LBE326:
 527               	.LBE325:
 528               	.LBB327:
 529               	.LBB328:
 530               	.LM103:
 531 01f6 8FEF      		ldi r24,lo8(-1)
 532               	.LVL41:
 533 01f8 8EBD      		out 78-32,r24
 534               	.L40:
 535               	.LM104:
 536 01fa 0DB4      		in __tmp_reg__,77-32
 537 01fc 07FE      		sbrs __tmp_reg__,7
 538 01fe 00C0      		rjmp .L40
 539               	.LM105:
 540 0200 8EB5      		in r24,78-32
 541               	.LVL42:
 542               	.LBE328:
 543               	.LBE327:
 544               	.LBB329:
 545               	.LBB330:
 546               	.LM106:
 547 0202 8FEF      		ldi r24,lo8(-1)
 548               	.LVL43:
 549 0204 8EBD      		out 78-32,r24
 550               	.L41:
 551               	.LM107:
 552 0206 0DB4      		in __tmp_reg__,77-32
 553 0208 07FE      		sbrs __tmp_reg__,7
 554 020a 00C0      		rjmp .L41
 555               	.LM108:
 556 020c 8EB5      		in r24,78-32
 557               	.LVL44:
 558               	.LBE330:
 559               	.LBE329:
 560               	.LM109:
 561 020e 8F70      		andi r24,lo8(15)
 562 0210 8130      		cpi r24,lo8(1)
 563 0212 01F4      		brne .L38
 564               	.LBB331:
 565               	.LBB332:
 566               	.LM110:
 567 0214 8FEF      		ldi r24,lo8(-1)
 568               	.LVL45:
 569 0216 8EBD      		out 78-32,r24
 570               	.L42:
 571               	.LM111:
 572 0218 0DB4      		in __tmp_reg__,77-32
 573 021a 07FE      		sbrs __tmp_reg__,7
 574 021c 00C0      		rjmp .L42
 575               	.LM112:
 576 021e 8EB5      		in r24,78-32
 577               	.LVL46:
 578 0220 90E0      		ldi r25,lo8(0)
 579               	.LVL47:
 580 0222 8A3A      		cpi r24,lo8(-86)
 581 0224 01F4      		brne .L44
 582 0226 91E0      		ldi r25,lo8(1)
 583 0228 00C0      		rjmp .L44
 584               	.LVL48:
 585               	.L38:
 586 022a 90E0      		ldi r25,lo8(0)
 587               	.LVL49:
 588               	.L44:
 589               	.LBE332:
 590               	.LBE331:
 591               	.LBB333:
 592               	.LBB334:
 593               	.LM113:
 594 022c 8FEF      		ldi r24,lo8(-1)
 595               	.LVL50:
 596 022e 8EBD      		out 78-32,r24
 597               	.L45:
 598               	.LM114:
 599 0230 0DB4      		in __tmp_reg__,77-32
 600 0232 07FE      		sbrs __tmp_reg__,7
 601 0234 00C0      		rjmp .L45
 602               	.LM115:
 603 0236 8EB5      		in r24,78-32
 604               	.LVL51:
 605               	.LBE334:
 606               	.LBE333:
 607               	.LBB335:
 608               	.LBB336:
 609               	.LM116:
 610 0238 8FEF      		ldi r24,lo8(-1)
 611               	.LVL52:
 612 023a 8EBD      		out 78-32,r24
 613               	.L46:
 614               	.LM117:
 615 023c 0DB4      		in __tmp_reg__,77-32
 616 023e 07FE      		sbrs __tmp_reg__,7
 617 0240 00C0      		rjmp .L46
 618               	.LM118:
 619 0242 8EB5      		in r24,78-32
 620               	.LVL53:
 621               	.LBE336:
 622               	.LBE335:
 623               	.LM119:
 624 0244 5F9A      		sbi 43-32,7
 625               	.LM120:
 626 0246 9923      		tst r25
 627 0248 01F4      		brne .L31
 628               	.LBE337:
 629               	.LM121:
 630 024a 8091 0000 		lds r24,sd_debug_fifo_ptr
 631 024e 9091 0000 		lds r25,(sd_debug_fifo_ptr)+1
 632               	.LVL54:
 633 0252 60E0      		ldi r22,lo8(__c.2330)
 634 0254 70E0      		ldi r23,hi8(__c.2330)
 635 0256 0E94 0000 		call fifo_write_string_P
 636               	.LVL55:
 637               	.LBE311:
 638               	.LM122:
 639 025a 81E0      		ldi r24,lo8(1)
 640 025c 8093 0000 		sts sd_version,r24
 641               	.LVL56:
 642               	.L31:
 643               	.LBB338:
 644               	.LM123:
 645 0260 8091 0000 		lds r24,sd_debug_fifo_ptr
 646 0264 9091 0000 		lds r25,(sd_debug_fifo_ptr)+1
 647               	.LVL57:
 648 0268 60E0      		ldi r22,lo8(__c.2396)
 649 026a 70E0      		ldi r23,hi8(__c.2396)
 650 026c 0E94 0000 		call fifo_write_string_P
 651               	.LVL58:
 652 0270 C8EE      		ldi r28,lo8(1000)
 653 0272 D3E0      		ldi r29,hi8(1000)
 654               	.LVL59:
 655               	.LBB339:
 656               	.LBB346:
 657               	.LBB347:
 658               	.LM124:
 659 0274 87E7      		ldi r24,lo8(119)
 660 0276 F82E      		mov r15,r24
 661               	.LBE347:
 662               	.LBE346:
 663               	.LBB349:
 664               	.LBB350:
 665 0278 0FEF      		ldi r16,lo8(-1)
 666               	.LBE350:
 667               	.LBE349:
 668               	.LBB352:
 669               	.LBB353:
 670 027a 19E6      		ldi r17,lo8(105)
 671               	.LVL60:
 672               	.L60:
 673               	.LBE353:
 674               	.LBE352:
 675               	.LM125:
 676 027c 5F98      		cbi 43-32,7
 677               	.LBB355:
 678               	.LBB348:
 679               	.LM126:
 680 027e FEBC      		out 78-32,r15
 681               	.L47:
 682               	.LM127:
 683 0280 0DB4      		in __tmp_reg__,77-32
 684 0282 07FE      		sbrs __tmp_reg__,7
 685 0284 00C0      		rjmp .L47
 686               	.LM128:
 687 0286 8EB5      		in r24,78-32
 688               	.LVL61:
 689               	.LBE348:
 690               	.LBE355:
 691               	.LM129:
 692 0288 60E0      		ldi r22,lo8(0)
 693 028a 70E0      		ldi r23,hi8(0)
 694 028c 80E0      		ldi r24,hlo8(0)
 695 028e 90E0      		ldi r25,hhi8(0)
 696 0290 0E94 0000 		call transfer_long
 697               	.LVL62:
 698               	.LBB356:
 699               	.LBB357:
 700               	.LM130:
 701 0294 1EBC      		out 78-32,__zero_reg__
 702               	.L48:
 703               	.LM131:
 704 0296 0DB4      		in __tmp_reg__,77-32
 705 0298 07FE      		sbrs __tmp_reg__,7
 706 029a 00C0      		rjmp .L48
 707               	.LM132:
 708 029c 8EB5      		in r24,78-32
 709               	.LVL63:
 710               	.LBE357:
 711               	.LBE356:
 712               	.LBE339:
 713               	.LM133:
 714 029e 0E94 0000 		call response_r1
 715               	.LVL64:
 716 02a2 90E0      		ldi r25,lo8(0)
 717               	.LVL65:
 718 02a4 8E7F      		andi r24,lo8(-2)
 719 02a6 01F0      		breq .L49
 720 02a8 91E0      		ldi r25,lo8(1)
 721               	.L49:
 722               	.LBB362:
 723               	.LBB345:
 724               	.LBB351:
 725               	.LM134:
 726 02aa 0EBD      		out 78-32,r16
 727               	.L50:
 728               	.LM135:
 729 02ac 0DB4      		in __tmp_reg__,77-32
 730 02ae 07FE      		sbrs __tmp_reg__,7
 731 02b0 00C0      		rjmp .L50
 732               	.LM136:
 733 02b2 8EB5      		in r24,78-32
 734               	.LVL66:
 735               	.LBE351:
 736               	.LBE345:
 737               	.LBB343:
 738               	.LBB344:
 739               	.LM137:
 740 02b4 0EBD      		out 78-32,r16
 741               	.L51:
 742               	.LM138:
 743 02b6 0DB4      		in __tmp_reg__,77-32
 744 02b8 07FE      		sbrs __tmp_reg__,7
 745 02ba 00C0      		rjmp .L51
 746               	.LM139:
 747 02bc 8EB5      		in r24,78-32
 748               	.LVL67:
 749               	.LBE344:
 750               	.LBE343:
 751               	.LM140:
 752 02be 5F9A      		sbi 43-32,7
 753               	.LM141:
 754 02c0 9923      		tst r25
 755 02c2 01F4      		brne .L52
 756               	.LM142:
 757 02c4 5F98      		cbi 43-32,7
 758               	.LBB342:
 759               	.LBB354:
 760               	.LM143:
 761 02c6 1EBD      		out 78-32,r17
 762               	.L53:
 763               	.LM144:
 764 02c8 0DB4      		in __tmp_reg__,77-32
 765 02ca 07FE      		sbrs __tmp_reg__,7
 766 02cc 00C0      		rjmp .L53
 767               	.LM145:
 768 02ce 8EB5      		in r24,78-32
 769               	.LVL68:
 770               	.LBE354:
 771               	.LBE342:
 772               	.LM146:
 773 02d0 60E0      		ldi r22,lo8(1073741824)
 774 02d2 70E0      		ldi r23,hi8(1073741824)
 775 02d4 80E0      		ldi r24,hlo8(1073741824)
 776 02d6 90E4      		ldi r25,hhi8(1073741824)
 777 02d8 0E94 0000 		call transfer_long
 778               	.LVL69:
 779               	.LBB340:
 780               	.LBB341:
 781               	.LM147:
 782 02dc 1EBC      		out 78-32,__zero_reg__
 783               	.L54:
 784               	.LM148:
 785 02de 0DB4      		in __tmp_reg__,77-32
 786 02e0 07FE      		sbrs __tmp_reg__,7
 787 02e2 00C0      		rjmp .L54
 788               	.LM149:
 789 02e4 8EB5      		in r24,78-32
 790               	.LVL70:
 791               	.LBE341:
 792               	.LBE340:
 793               	.LBE362:
 794               	.LM150:
 795 02e6 0E94 0000 		call response_r1
 796               	.LVL71:
 797 02ea 982F      		mov r25,r24
 798               	.LVL72:
 799               	.LBB363:
 800               	.LBB358:
 801               	.LBB359:
 802               	.LM151:
 803 02ec 0EBD      		out 78-32,r16
 804               	.L55:
 805               	.LM152:
 806 02ee 0DB4      		in __tmp_reg__,77-32
 807 02f0 07FE      		sbrs __tmp_reg__,7
 808 02f2 00C0      		rjmp .L55
 809               	.LM153:
 810 02f4 8EB5      		in r24,78-32
 811               	.LVL73:
 812               	.LBE359:
 813               	.LBE358:
 814               	.LBB360:
 815               	.LBB361:
 816               	.LM154:
 817 02f6 0EBD      		out 78-32,r16
 818               	.L56:
 819               	.LM155:
 820 02f8 0DB4      		in __tmp_reg__,77-32
 821 02fa 07FE      		sbrs __tmp_reg__,7
 822 02fc 00C0      		rjmp .L56
 823               	.LM156:
 824 02fe 8EB5      		in r24,78-32
 825               	.LVL74:
 826               	.LBE361:
 827               	.LBE360:
 828               	.LM157:
 829 0300 5F9A      		sbi 43-32,7
 830               	.LM158:
 831 0302 892F      		mov r24,r25
 832               	.LVL75:
 833 0304 8E7F      		andi r24,lo8(-2)
 834 0306 01F4      		brne .L52
 835               	.LM159:
 836 0308 9923      		tst r25
 837 030a 01F4      		brne .+2
 838 030c 00C0      		rjmp .L59
 839               	.LM160:
 840 030e 2197      		sbiw r28,1
 841               	.LM161:
 842 0310 01F0      		breq .+2
 843 0312 00C0      		rjmp .L60
 844               	.LVL76:
 845               	.L52:
 846               	.LBE363:
 847               	.LM162:
 848 0314 8091 0000 		lds r24,sd_debug_fifo_ptr
 849 0318 9091 0000 		lds r25,(sd_debug_fifo_ptr)+1
 850               	.LVL77:
 851 031c 60E0      		ldi r22,lo8(__c.2400)
 852 031e 70E0      		ldi r23,hi8(__c.2400)
 853 0320 0E94 0000 		call fifo_write_string_P
 854               	.LVL78:
 855 0324 00E0      		ldi r16,lo8(0)
 856               	.LVL79:
 857 0326 00C0      		rjmp .L61
 858               	.LVL80:
 859               	.L117:
 860               	.LBE338:
 861               	.LBB364:
 862               	.LM163:
 863 0328 8091 0000 		lds r24,sd_debug_fifo_ptr
 864 032c 9091 0000 		lds r25,(sd_debug_fifo_ptr)+1
 865 0330 60E0      		ldi r22,lo8(__c.2352)
 866 0332 70E0      		ldi r23,hi8(__c.2352)
 867 0334 0E94 0000 		call fifo_write_string_P
 868               	.LVL81:
 869               	.LBB365:
 870               	.LM164:
 871 0338 5F98      		cbi 43-32,7
 872               	.LBB366:
 873               	.LBB367:
 874               	.LM165:
 875 033a 8AE7      		ldi r24,lo8(122)
 876 033c 8EBD      		out 78-32,r24
 877               	.L62:
 878               	.LM166:
 879 033e 0DB4      		in __tmp_reg__,77-32
 880 0340 07FE      		sbrs __tmp_reg__,7
 881 0342 00C0      		rjmp .L62
 882               	.LM167:
 883 0344 8EB5      		in r24,78-32
 884               	.LVL82:
 885               	.LBE367:
 886               	.LBE366:
 887               	.LM168:
 888 0346 60E0      		ldi r22,lo8(0)
 889 0348 70E0      		ldi r23,hi8(0)
 890 034a 80E0      		ldi r24,hlo8(0)
 891 034c 90E0      		ldi r25,hhi8(0)
 892 034e 0E94 0000 		call transfer_long
 893               	.LVL83:
 894               	.LBB368:
 895               	.LBB369:
 896               	.LM169:
 897 0352 1EBC      		out 78-32,__zero_reg__
 898               	.L63:
 899               	.LM170:
 900 0354 0DB4      		in __tmp_reg__,77-32
 901 0356 07FE      		sbrs __tmp_reg__,7
 902 0358 00C0      		rjmp .L63
 903               	.LM171:
 904 035a 8EB5      		in r24,78-32
 905               	.LVL84:
 906               	.LBE369:
 907               	.LBE368:
 908               	.LBE365:
 909               	.LM172:
 910 035c 0E94 0000 		call response_r1
 911               	.LVL85:
 912               	.LBB374:
 913 0360 8E7F      		andi r24,lo8(-2)
 914 0362 01F4      		brne .L64
 915               	.LBE374:
 916               	.LM173:
 917 0364 6FEF      		ldi r22,lo8(-1)
 918 0366 7FEF      		ldi r23,hi8(-1)
 919 0368 8FEF      		ldi r24,hlo8(-1)
 920 036a 9FEF      		ldi r25,hhi8(-1)
 921 036c 0E94 0000 		call transfer_long
 922 0370 6B01      		movw r12,r22
 923 0372 7C01      		movw r14,r24
 924               	.LVL86:
 925 0374 01E0      		ldi r16,lo8(1)
 926 0376 00C0      		rjmp .L65
 927               	.LVL87:
 928               	.L64:
 929               	.LBB375:
 930               	.LM174:
 931 0378 6FEF      		ldi r22,lo8(-1)
 932 037a 7FEF      		ldi r23,hi8(-1)
 933 037c 8FEF      		ldi r24,hlo8(-1)
 934 037e 9FEF      		ldi r25,hhi8(-1)
 935 0380 0E94 0000 		call transfer_long
 936 0384 00E0      		ldi r16,lo8(0)
 937 0386 CC24      		clr r12
 938 0388 DD24      		clr r13
 939 038a 7601      		movw r14,r12
 940               	.LVL88:
 941               	.L65:
 942               	.LBB370:
 943               	.LBB371:
 944               	.LM175:
 945 038c 8FEF      		ldi r24,lo8(-1)
 946 038e 8EBD      		out 78-32,r24
 947               	.L66:
 948               	.LM176:
 949 0390 0DB4      		in __tmp_reg__,77-32
 950 0392 07FE      		sbrs __tmp_reg__,7
 951 0394 00C0      		rjmp .L66
 952               	.LM177:
 953 0396 8EB5      		in r24,78-32
 954               	.LVL89:
 955               	.LBE371:
 956               	.LBE370:
 957               	.LBB372:
 958               	.LBB373:
 959               	.LM178:
 960 0398 8FEF      		ldi r24,lo8(-1)
 961               	.LVL90:
 962 039a 8EBD      		out 78-32,r24
 963               	.L67:
 964               	.LM179:
 965 039c 0DB4      		in __tmp_reg__,77-32
 966 039e 07FE      		sbrs __tmp_reg__,7
 967 03a0 00C0      		rjmp .L67
 968               	.LM180:
 969 03a2 8EB5      		in r24,78-32
 970               	.LVL91:
 971               	.LBE373:
 972               	.LBE372:
 973               	.LM181:
 974 03a4 5F9A      		sbi 43-32,7
 975 03a6 2091 0000 		lds r18,sd_debug_fifo_ptr
 976 03aa 3091 0000 		lds r19,(sd_debug_fifo_ptr)+1
 977               	.LM182:
 978 03ae 0023      		tst r16
 979 03b0 01F4      		brne .L68
 980               	.LBE375:
 981               	.LM183:
 982 03b2 C901      		movw r24,r18
 983               	.LVL92:
 984 03b4 60E0      		ldi r22,lo8(__c.2354)
 985 03b6 70E0      		ldi r23,hi8(__c.2354)
 986 03b8 0E94 0000 		call fifo_write_string_P
 987 03bc 00C0      		rjmp .L61
 988               	.LVL93:
 989               	.L68:
 990               	.LM184:
 991 03be C901      		movw r24,r18
 992               	.LVL94:
 993 03c0 60E0      		ldi r22,lo8(__c.2356)
 994 03c2 70E0      		ldi r23,hi8(__c.2356)
 995 03c4 0E94 0000 		call fifo_write_string_P
 996 03c8 2091 0000 		lds r18,sd_debug_fifo_ptr
 997 03cc 3091 0000 		lds r19,(sd_debug_fifo_ptr)+1
 998               	.LBB376:
 999               	.LM185:
 1000 03d0 812C      		mov r8,__zero_reg__
 1001 03d2 912C      		mov r9,__zero_reg__
 1002 03d4 A12C      		mov r10,__zero_reg__
 1003 03d6 00E4      		ldi r16,hhi8(1073741824)
 1004 03d8 B02E      		mov r11,r16
 1005               	.LVL95:
 1006 03da 8C20      		and r8,r12
 1007 03dc 9D20      		and r9,r13
 1008 03de AE20      		and r10,r14
 1009 03e0 BF20      		and r11,r15
 1010 03e2 F6FE      		sbrs r15,6
 1011 03e4 00C0      		rjmp .L69
 1012               	.LBE376:
 1013               	.LM186:
 1014 03e6 C901      		movw r24,r18
 1015 03e8 60E0      		ldi r22,lo8(__c.2358)
 1016 03ea 70E0      		ldi r23,hi8(__c.2358)
 1017 03ec 00C0      		rjmp .L114
 1018               	.L69:
 1019               	.LM187:
 1020 03ee C901      		movw r24,r18
 1021 03f0 60E0      		ldi r22,lo8(__c.2360)
 1022 03f2 70E0      		ldi r23,hi8(__c.2360)
 1023               	.L114:
 1024 03f4 0E94 0000 		call fifo_write_string_P
 1025               	.LBB377:
 1026               	.LM188:
 1027 03f8 1FE0      		ldi r17,15
 1028 03fa F694      	1:	lsr r15
 1029 03fc E794      		ror r14
 1030 03fe D794      		ror r13
 1031 0400 C794      		ror r12
 1032 0402 1A95      		dec r17
 1033 0404 01F4      		brne 1b
 1034               	.LVL96:
 1035               	.LM189:
 1036 0406 C114      		cp r12,__zero_reg__
 1037 0408 D104      		cpc r13,__zero_reg__
 1038 040a E104      		cpc r14,__zero_reg__
 1039 040c F104      		cpc r15,__zero_reg__
 1040 040e 01F4      		brne .L71
 1041               	.L112:
 1042 0410 00C0      		rjmp .L112
 1043               	.L71:
 1044               	.LM190:
 1045 0412 0091 0000 		lds r16,sd_debug_fifo_ptr
 1046 0416 1091 0000 		lds r17,(sd_debug_fifo_ptr)+1
 1047               	.LBE377:
 1048 041a 8BE1      		ldi r24,lo8(27)
 1049 041c 90E0      		ldi r25,hi8(27)
 1050 041e 60E0      		ldi r22,lo8(text)
 1051 0420 70E0      		ldi r23,hi8(text)
 1052 0422 4AE0      		ldi r20,lo8(10)
 1053 0424 50E0      		ldi r21,hi8(10)
 1054 0426 0E94 0000 		call itoa
 1055 042a BC01      		movw r22,r24
 1056               	.LBB378:
 1057 042c C801      		movw r24,r16
 1058 042e 0E94 0000 		call fifo_write_string
 1059               	.LM191:
 1060 0432 8091 0000 		lds r24,sd_debug_fifo_ptr
 1061 0436 9091 0000 		lds r25,(sd_debug_fifo_ptr)+1
 1062 043a 6DE2      		ldi r22,lo8(45)
 1063 043c 0E94 0000 		call fifo_write_char
 1064 0440 2BE1      		ldi r18,lo8(27)
 1065 0442 30E0      		ldi r19,hi8(27)
 1066               	.LVL97:
 1067 0444 00C0      		rjmp .L73
 1068               	.LVL98:
 1069               	.L75:
 1070               	.LM192:
 1071 0446 F694      		lsr r15
 1072 0448 E794      		ror r14
 1073 044a D794      		ror r13
 1074 044c C794      		ror r12
 1075               	.LVL99:
 1076               	.LM193:
 1077 044e 2F5F      		subi r18,lo8(-(1))
 1078 0450 3F4F      		sbci r19,hi8(-(1))
 1079               	.L73:
 1080               	.LM194:
 1081 0452 C601      		movw r24,r12
 1082               	.LVL100:
 1083 0454 8170      		andi r24,lo8(1)
 1084 0456 9070      		andi r25,hi8(1)
 1085 0458 8823      		tst r24
 1086 045a 01F0      		breq .L74
 1087 045c 2432      		cpi r18,36
 1088 045e 3105      		cpc r19,__zero_reg__
 1089 0460 01F4      		brne .L75
 1090               	.L74:
 1091               	.LM195:
 1092 0462 0091 0000 		lds r16,sd_debug_fifo_ptr
 1093 0466 1091 0000 		lds r17,(sd_debug_fifo_ptr)+1
 1094               	.LBE378:
 1095 046a C901      		movw r24,r18
 1096 046c 60E0      		ldi r22,lo8(text)
 1097 046e 70E0      		ldi r23,hi8(text)
 1098 0470 4AE0      		ldi r20,lo8(10)
 1099 0472 50E0      		ldi r21,hi8(10)
 1100 0474 0E94 0000 		call itoa
 1101               	.LVL101:
 1102 0478 BC01      		movw r22,r24
 1103               	.LBB379:
 1104 047a C801      		movw r24,r16
 1105 047c 0E94 0000 		call fifo_write_string
 1106               	.LBE379:
 1107               	.LM196:
 1108 0480 8091 0000 		lds r24,sd_debug_fifo_ptr
 1109 0484 9091 0000 		lds r25,(sd_debug_fifo_ptr)+1
 1110 0488 60E0      		ldi r22,lo8(__c.2368)
 1111 048a 70E0      		ldi r23,hi8(__c.2368)
 1112 048c 0E94 0000 		call fifo_write_string_P
 1113               	.LBE364:
 1114               	.LM197:
 1115 0490 8114      		cp r8,__zero_reg__
 1116 0492 9104      		cpc r9,__zero_reg__
 1117 0494 A104      		cpc r10,__zero_reg__
 1118 0496 B104      		cpc r11,__zero_reg__
 1119 0498 01F0      		breq .L115
 1120               	.L76:
 1121               	.LM198:
 1122 049a 81E0      		ldi r24,lo8(1)
 1123 049c 8093 0000 		sts sd_sdhc,r24
 1124               	.L115:
 1125 04a0 01E0      		ldi r16,lo8(1)
 1126               	.LVL102:
 1127               	.L61:
 1128               	.LM199:
 1129 04a2 8091 0000 		lds r24,sd_version
 1130 04a6 2091 0000 		lds r18,sd_debug_fifo_ptr
 1131 04aa 3091 0000 		lds r19,(sd_debug_fifo_ptr)+1
 1132 04ae 8130      		cpi r24,lo8(1)
 1133 04b0 01F4      		brne .L77
 1134               	.LM200:
 1135 04b2 C901      		movw r24,r18
 1136 04b4 60E0      		ldi r22,lo8(__c.2222)
 1137 04b6 70E0      		ldi r23,hi8(__c.2222)
 1138 04b8 00C0      		rjmp .L116
 1139               	.L77:
 1140               	.LM201:
 1141 04ba C901      		movw r24,r18
 1142 04bc 60E0      		ldi r22,lo8(__c.2224)
 1143 04be 70E0      		ldi r23,hi8(__c.2224)
 1144               	.L116:
 1145 04c0 0E94 0000 		call fifo_write_string_P
 1146               	.LVL103:
 1147               	.LM202:
 1148 04c4 0023      		tst r16
 1149 04c6 01F0      		breq .L79
 1150               	.LM203:
 1151 04c8 8CB5      		in r24,76-32
 1152 04ca 8C7F      		andi r24,lo8(-4)
 1153 04cc 8CBD      		out 76-32,r24
 1154               	.L79:
 1155               	.LM204:
 1156 04ce 802F      		mov r24,r16
 1157               	/* epilogue start */
 1158 04d0 DF91      		pop r29
 1159 04d2 CF91      		pop r28
 1160               	.LVL104:
 1161 04d4 1F91      		pop r17
 1162 04d6 0F91      		pop r16
 1163               	.LVL105:
 1164 04d8 FF90      		pop r15
 1165 04da EF90      		pop r14
 1166 04dc DF90      		pop r13
 1167 04de CF90      		pop r12
 1168               	.LVL106:
 1169 04e0 BF90      		pop r11
 1170 04e2 AF90      		pop r10
 1171 04e4 9F90      		pop r9
 1172 04e6 8F90      		pop r8
 1173 04e8 0895      		ret
 1174               	.LVL107:
 1175               	.L59:
 1176               	.LM205:
 1177 04ea 01E0      		ldi r16,lo8(1)
 1178               	.LVL108:
 1179               	.LM206:
 1180 04ec 8091 0000 		lds r24,sd_version
 1181 04f0 8230      		cpi r24,lo8(2)
 1182 04f2 01F4      		brne .L61
 1183 04f4 00C0      		rjmp .L117
 1184               	.LFE15:
 1186               	.global	sd_block_write
 1188               	sd_block_write:
 1189               	.LFB17:
 1190               	.LM207:
 1191               	.LVL109:
 1192 04f6 2F92      		push r2
 1193 04f8 3F92      		push r3
 1194 04fa 4F92      		push r4
 1195 04fc 5F92      		push r5
 1196 04fe 6F92      		push r6
 1197 0500 7F92      		push r7
 1198 0502 8F92      		push r8
 1199 0504 9F92      		push r9
 1200 0506 AF92      		push r10
 1201 0508 BF92      		push r11
 1202 050a CF92      		push r12
 1203 050c DF92      		push r13
 1204 050e EF92      		push r14
 1205 0510 FF92      		push r15
 1206 0512 0F93      		push r16
 1207 0514 1F93      		push r17
 1208 0516 DF93      		push r29
 1209 0518 CF93      		push r28
 1210 051a 00D0      		rcall .
 1211 051c 00D0      		rcall .
 1212 051e CDB7      		in r28,__SP_L__
 1213 0520 DEB7      		in r29,__SP_H__
 1214               	/* prologue: function */
 1215               	/* frame size = 4 */
 1216 0522 8983      		std Y+1,r24
 1217 0524 9A83      		std Y+2,r25
 1218               	.LVL110:
 1219               	.LBB435:
 1220               	.LBB436:
 1221               	.LM208:
 1222 0526 DB01      		movw r26,r22
 1223 0528 CA01      		movw r24,r20
 1224               	.LVL111:
 1225 052a 39E0      		ldi r19,9
 1226 052c 880F      	1:	lsl r24
 1227 052e 991F      		rol r25
 1228 0530 AA1F      		rol r26
 1229 0532 BB1F      		rol r27
 1230 0534 3A95      		dec r19
 1231 0536 01F4      		brne 1b
 1232               	.LVL112:
 1233 0538 23E0      		ldi r18,lo8(3)
 1234 053a 30E0      		ldi r19,hi8(3)
 1235 053c 3C83      		std Y+4,r19
 1236 053e 2B83      		std Y+3,r18
 1237               	.LVL113:
 1238               	.LM209:
 1239 0540 282E      		mov r2,r24
 1240 0542 492E      		mov r4,r25
 1241               	.LVL114:
 1242 0544 3A2E      		mov r3,r26
 1243               	.LVL115:
 1244 0546 6B2E      		mov r6,r27
 1245               	.LVL116:
 1246 0548 542E      		mov r5,r20
 1247 054a 952E      		mov r9,r21
 1248 054c 862E      		mov r8,r22
 1249 054e 772E      		mov r7,r23
 1250               	.LBB441:
 1251               	.LBB442:
 1252               	.LM210:
 1253 0550 FF24      		clr r15
 1254 0552 FA94      		dec r15
 1255               	.LVL117:
 1256               	.L168:
 1257               	.LBE442:
 1258               	.LBE441:
 1259               	.LM211:
 1260 0554 8091 0000 		lds r24,sd_sdhc
 1261 0558 8823      		tst r24
 1262 055a 01F0      		breq .L119
 1263 055c A52C      		mov r10,r5
 1264 055e B92C      		mov r11,r9
 1265 0560 C82C      		mov r12,r8
 1266 0562 D72C      		mov r13,r7
 1267 0564 00C0      		rjmp .L120
 1268               	.LVL118:
 1269               	.L119:
 1270 0566 A22C      		mov r10,r2
 1271 0568 B42C      		mov r11,r4
 1272 056a C32C      		mov r12,r3
 1273 056c D62C      		mov r13,r6
 1274               	.LVL119:
 1275               	.L120:
 1276               	.LM212:
 1277 056e 5F98      		cbi 43-32,7
 1278               	.LBB439:
 1279               	.LBB440:
 1280               	.LM213:
 1281 0570 38E5      		ldi r19,lo8(88)
 1282 0572 3EBD      		out 78-32,r19
 1283               	.L121:
 1284               	.LM214:
 1285 0574 0DB4      		in __tmp_reg__,77-32
 1286 0576 07FE      		sbrs __tmp_reg__,7
 1287 0578 00C0      		rjmp .L121
 1288               	.LM215:
 1289 057a 8EB5      		in r24,78-32
 1290               	.LVL120:
 1291               	.LBE440:
 1292               	.LBE439:
 1293               	.LM216:
 1294 057c B501      		movw r22,r10
 1295               	.LVL121:
 1296 057e C601      		movw r24,r12
 1297               	.LVL122:
 1298 0580 0E94 0000 		call transfer_long
 1299               	.LVL123:
 1300               	.LBB437:
 1301               	.LBB438:
 1302               	.LM217:
 1303 0584 1EBC      		out 78-32,__zero_reg__
 1304               	.L122:
 1305               	.LM218:
 1306 0586 0DB4      		in __tmp_reg__,77-32
 1307 0588 07FE      		sbrs __tmp_reg__,7
 1308 058a 00C0      		rjmp .L122
 1309               	.LM219:
 1310 058c 8EB5      		in r24,78-32
 1311               	.LVL124:
 1312               	.LBE438:
 1313               	.LBE437:
 1314               	.LBE436:
 1315               	.LM220:
 1316 058e 0E94 0000 		call response_r1
 1317               	.LVL125:
 1318               	.LBB463:
 1319 0592 8E7F      		andi r24,lo8(-2)
 1320 0594 01F0      		breq .L123
 1321 0596 EE24      		clr r14
 1322 0598 E394      		inc r14
 1323 059a 80E0      		ldi r24,lo8(0)
 1324               	.LVL126:
 1325 059c 00C0      		rjmp .L124
 1326               	.LVL127:
 1327               	.L123:
 1328 059e EE24      		clr r14
 1329 05a0 81E0      		ldi r24,lo8(1)
 1330               	.LVL128:
 1331               	.L124:
 1332               	.LBB444:
 1333               	.LBB443:
 1334               	.LM221:
 1335 05a2 FEBC      		out 78-32,r15
 1336               	.L125:
 1337               	.LM222:
 1338 05a4 0DB4      		in __tmp_reg__,77-32
 1339 05a6 07FE      		sbrs __tmp_reg__,7
 1340 05a8 00C0      		rjmp .L125
 1341               	.LM223:
 1342 05aa 9EB5      		in r25,78-32
 1343               	.LVL129:
 1344               	.LBE443:
 1345               	.LBE444:
 1346               	.LBB445:
 1347               	.LBB446:
 1348               	.LM224:
 1349 05ac FEBC      		out 78-32,r15
 1350               	.L126:
 1351               	.LM225:
 1352 05ae 0DB4      		in __tmp_reg__,77-32
 1353 05b0 07FE      		sbrs __tmp_reg__,7
 1354 05b2 00C0      		rjmp .L126
 1355               	.LM226:
 1356 05b4 9EB5      		in r25,78-32
 1357               	.LVL130:
 1358               	.LBE446:
 1359               	.LBE445:
 1360               	.LM227:
 1361 05b6 5F9A      		sbi 43-32,7
 1362               	.LM228:
 1363 05b8 8823      		tst r24
 1364 05ba 01F4      		brne .+2
 1365 05bc 00C0      		rjmp .L127
 1366               	.LM229:
 1367 05be 5F98      		cbi 43-32,7
 1368               	.LBB447:
 1369               	.LBB448:
 1370               	.LM230:
 1371 05c0 8EEF      		ldi r24,lo8(-2)
 1372               	.LVL131:
 1373 05c2 8EBD      		out 78-32,r24
 1374               	.L128:
 1375               	.LM231:
 1376 05c4 0DB4      		in __tmp_reg__,77-32
 1377 05c6 07FE      		sbrs __tmp_reg__,7
 1378 05c8 00C0      		rjmp .L128
 1379               	.LM232:
 1380 05ca 8EB5      		in r24,78-32
 1381               	.LVL132:
 1382 05cc 8981      		ldd r24,Y+1
 1383               	.LVL133:
 1384 05ce 9A81      		ldd r25,Y+2
 1385               	.LVL134:
 1386 05d0 9C01      		movw r18,r24
 1387               	.LVL135:
 1388 05d2 F901      		movw r30,r18
 1389               	.LVL136:
 1390 05d4 20E0      		ldi r18,lo8(512)
 1391 05d6 32E0      		ldi r19,hi8(512)
 1392               	.LVL137:
 1393 05d8 00C0      		rjmp .L129
 1394               	.LVL138:
 1395               	.L131:
 1396               	.LBE448:
 1397               	.LBE447:
 1398               	.LM233:
 1399 05da 8081      		ld r24,Z
 1400               	.LVL139:
 1401               	.LBB449:
 1402               	.LBB450:
 1403               	.LM234:
 1404 05dc 8EBD      		out 78-32,r24
 1405               	.L130:
 1406               	.LM235:
 1407 05de 0DB4      		in __tmp_reg__,77-32
 1408 05e0 07FE      		sbrs __tmp_reg__,7
 1409 05e2 00C0      		rjmp .L130
 1410               	.LM236:
 1411 05e4 8EB5      		in r24,78-32
 1412               	.LVL140:
 1413               	.LBE450:
 1414               	.LBE449:
 1415               	.LM237:
 1416 05e6 3196      		adiw r30,1
 1417               	.LVL141:
 1418               	.L129:
 1419               	.LM238:
 1420 05e8 2150      		subi r18,lo8(-(-1))
 1421 05ea 3040      		sbci r19,hi8(-(-1))
 1422 05ec 9FEF      		ldi r25,hi8(-1)
 1423 05ee 2F3F      		cpi r18,lo8(-1)
 1424 05f0 3907      		cpc r19,r25
 1425               	.LVL142:
 1426 05f2 01F4      		brne .L131
 1427               	.LBB451:
 1428               	.LBB452:
 1429               	.LM239:
 1430 05f4 FEBC      		out 78-32,r15
 1431               	.L132:
 1432               	.LM240:
 1433 05f6 0DB4      		in __tmp_reg__,77-32
 1434 05f8 07FE      		sbrs __tmp_reg__,7
 1435 05fa 00C0      		rjmp .L132
 1436               	.LM241:
 1437 05fc 8EB5      		in r24,78-32
 1438               	.LVL143:
 1439               	.LBE452:
 1440               	.LBE451:
 1441               	.LBB453:
 1442               	.LBB454:
 1443               	.LM242:
 1444 05fe FEBC      		out 78-32,r15
 1445               	.L133:
 1446               	.LM243:
 1447 0600 0DB4      		in __tmp_reg__,77-32
 1448 0602 07FE      		sbrs __tmp_reg__,7
 1449 0604 00C0      		rjmp .L133
 1450               	.LM244:
 1451 0606 8EB5      		in r24,78-32
 1452               	.LVL144:
 1453               	.LBE454:
 1454               	.LBE453:
 1455               	.LBB455:
 1456               	.LBB456:
 1457               	.LM245:
 1458 0608 FEBC      		out 78-32,r15
 1459               	.L134:
 1460               	.LM246:
 1461 060a 0DB4      		in __tmp_reg__,77-32
 1462 060c 07FE      		sbrs __tmp_reg__,7
 1463 060e 00C0      		rjmp .L134
 1464               	.LM247:
 1465 0610 8EB5      		in r24,78-32
 1466               	.LVL145:
 1467               	.LBE456:
 1468               	.LBE455:
 1469               	.LM248:
 1470 0612 8F71      		andi r24,lo8(31)
 1471 0614 8530      		cpi r24,lo8(5)
 1472 0616 01F0      		breq .L135
 1473 0618 22E0      		ldi r18,lo8(2)
 1474 061a E22E      		mov r14,r18
 1475               	.LVL146:
 1476 061c 00C0      		rjmp .L195
 1477               	.LVL147:
 1478               	.L135:
 1479 061e 20E4      		ldi r18,lo8(1000000)
 1480 0620 32E4      		ldi r19,hi8(1000000)
 1481 0622 4FE0      		ldi r20,hlo8(1000000)
 1482 0624 50E0      		ldi r21,hhi8(1000000)
 1483               	.LVL148:
 1484               	.L139:
 1485               	.LBB457:
 1486               	.LBB458:
 1487               	.LM249:
 1488 0626 FEBC      		out 78-32,r15
 1489               	.L137:
 1490               	.LM250:
 1491 0628 0DB4      		in __tmp_reg__,77-32
 1492 062a 07FE      		sbrs __tmp_reg__,7
 1493 062c 00C0      		rjmp .L137
 1494               	.LM251:
 1495 062e 8EB5      		in r24,78-32
 1496               	.LVL149:
 1497               	.LBE458:
 1498               	.LBE457:
 1499               	.LM252:
 1500 0630 8823      		tst r24
 1501 0632 01F4      		brne .L138
 1502 0634 2150      		subi r18,lo8(-(-1))
 1503 0636 3040      		sbci r19,hi8(-(-1))
 1504 0638 4040      		sbci r20,hlo8(-(-1))
 1505 063a 5040      		sbci r21,hhi8(-(-1))
 1506 063c 01F4      		brne .L139
 1507 063e 00C0      		rjmp .L140
 1508               	.L138:
 1509               	.LM253:
 1510 0640 2115      		cp r18,__zero_reg__
 1511 0642 3105      		cpc r19,__zero_reg__
 1512 0644 4105      		cpc r20,__zero_reg__
 1513 0646 5105      		cpc r21,__zero_reg__
 1514 0648 01F0      		breq .L140
 1515 064a 81E0      		ldi r24,lo8(1)
 1516               	.LVL150:
 1517 064c 00C0      		rjmp .L136
 1518               	.LVL151:
 1519               	.L140:
 1520 064e 93E0      		ldi r25,lo8(3)
 1521 0650 E92E      		mov r14,r25
 1522               	.LVL152:
 1523               	.L195:
 1524 0652 80E0      		ldi r24,lo8(0)
 1525               	.LVL153:
 1526               	.L136:
 1527               	.LBB459:
 1528               	.LBB460:
 1529               	.LM254:
 1530 0654 FEBC      		out 78-32,r15
 1531               	.L141:
 1532               	.LM255:
 1533 0656 0DB4      		in __tmp_reg__,77-32
 1534 0658 07FE      		sbrs __tmp_reg__,7
 1535 065a 00C0      		rjmp .L141
 1536               	.LM256:
 1537 065c 9EB5      		in r25,78-32
 1538               	.LVL154:
 1539               	.LBE460:
 1540               	.LBE459:
 1541               	.LBB461:
 1542               	.LBB462:
 1543               	.LM257:
 1544 065e FEBC      		out 78-32,r15
 1545               	.L142:
 1546               	.LM258:
 1547 0660 0DB4      		in __tmp_reg__,77-32
 1548 0662 07FE      		sbrs __tmp_reg__,7
 1549 0664 00C0      		rjmp .L142
 1550               	.LM259:
 1551 0666 9EB5      		in r25,78-32
 1552               	.LVL155:
 1553               	.LBE462:
 1554               	.LBE461:
 1555               	.LM260:
 1556 0668 5F9A      		sbi 43-32,7
 1557               	.LM261:
 1558 066a 8823      		tst r24
 1559 066c 01F0      		breq .+2
 1560 066e 00C0      		rjmp .L143
 1561               	.LVL156:
 1562               	.L127:
 1563               	.LBE463:
 1564               	.LM262:
 1565 0670 8091 0000 		lds r24,sd_debug_fifo_ptr
 1566 0674 9091 0000 		lds r25,(sd_debug_fifo_ptr)+1
 1567               	.LVL157:
 1568 0678 60E0      		ldi r22,lo8(__c.2471)
 1569 067a 70E0      		ldi r23,hi8(__c.2471)
 1570 067c 0E94 0000 		call fifo_write_string_P
 1571               	.LVL158:
 1572               	.LM263:
 1573 0680 8091 0000 		lds r24,sd_debug_fifo_ptr
 1574 0684 9091 0000 		lds r25,(sd_debug_fifo_ptr)+1
 1575 0688 60E0      		ldi r22,lo8(__c.2473)
 1576 068a 70E0      		ldi r23,hi8(__c.2473)
 1577 068c 0E94 0000 		call fifo_write_string_P
 1578               	.LBB464:
 1579               	.LM264:
 1580 0690 0091 0000 		lds r16,sd_debug_fifo_ptr
 1581 0694 1091 0000 		lds r17,(sd_debug_fifo_ptr)+1
 1582               	.LBE464:
 1583 0698 B501      		movw r22,r10
 1584 069a C601      		movw r24,r12
 1585 069c 40E0      		ldi r20,lo8(text)
 1586 069e 50E0      		ldi r21,hi8(text)
 1587 06a0 2AE0      		ldi r18,lo8(10)
 1588 06a2 30E0      		ldi r19,hi8(10)
 1589 06a4 0E94 0000 		call ltoa
 1590 06a8 BC01      		movw r22,r24
 1591               	.LBB465:
 1592 06aa C801      		movw r24,r16
 1593 06ac 0E94 0000 		call fifo_write_string
 1594               	.LBE465:
 1595               	.LM265:
 1596 06b0 8091 0000 		lds r24,sd_debug_fifo_ptr
 1597 06b4 9091 0000 		lds r25,(sd_debug_fifo_ptr)+1
 1598 06b8 60E0      		ldi r22,lo8(__c.2475)
 1599 06ba 70E0      		ldi r23,hi8(__c.2475)
 1600 06bc 0E94 0000 		call fifo_write_string_P
 1601               	.LBB466:
 1602               	.LM266:
 1603 06c0 0091 0000 		lds r16,sd_debug_fifo_ptr
 1604 06c4 1091 0000 		lds r17,(sd_debug_fifo_ptr)+1
 1605               	.LBE466:
 1606 06c8 8E2D      		mov r24,r14
 1607 06ca 90E0      		ldi r25,lo8(0)
 1608 06cc 60E0      		ldi r22,lo8(text)
 1609 06ce 70E0      		ldi r23,hi8(text)
 1610 06d0 4AE0      		ldi r20,lo8(10)
 1611 06d2 50E0      		ldi r21,hi8(10)
 1612 06d4 0E94 0000 		call itoa
 1613 06d8 BC01      		movw r22,r24
 1614               	.LBB467:
 1615 06da C801      		movw r24,r16
 1616 06dc 0E94 0000 		call fifo_write_string
 1617               	.LBE467:
 1618               	.LM267:
 1619 06e0 8091 0000 		lds r24,sd_debug_fifo_ptr
 1620 06e4 9091 0000 		lds r25,(sd_debug_fifo_ptr)+1
 1621 06e8 60E0      		ldi r22,lo8(__c.2477)
 1622 06ea 70E0      		ldi r23,hi8(__c.2477)
 1623 06ec 00C0      		rjmp .L196
 1624               	.LVL159:
 1625               	.L143:
 1626               	.LBE435:
 1627               	.LBB468:
 1628               	.LBB469:
 1629               	.LM268:
 1630 06ee 8091 0000 		lds r24,sd_sdhc
 1631               	.LVL160:
 1632 06f2 8823      		tst r24
 1633 06f4 01F0      		breq .L145
 1634 06f6 B52C      		mov r11,r5
 1635               	.LVL161:
 1636 06f8 C92C      		mov r12,r9
 1637 06fa D82C      		mov r13,r8
 1638               	.LVL162:
 1639 06fc E72C      		mov r14,r7
 1640               	.LVL163:
 1641 06fe 00C0      		rjmp .L146
 1642               	.LVL164:
 1643               	.L145:
 1644 0700 B22C      		mov r11,r2
 1645               	.LVL165:
 1646 0702 C42C      		mov r12,r4
 1647 0704 D32C      		mov r13,r3
 1648               	.LVL166:
 1649 0706 E62C      		mov r14,r6
 1650               	.LVL167:
 1651               	.L146:
 1652               	.LM269:
 1653 0708 5F98      		cbi 43-32,7
 1654               	.LBB472:
 1655               	.LBB473:
 1656               	.LM270:
 1657 070a 81E5      		ldi r24,lo8(81)
 1658 070c 8EBD      		out 78-32,r24
 1659               	.L147:
 1660               	.LM271:
 1661 070e 0DB4      		in __tmp_reg__,77-32
 1662 0710 07FE      		sbrs __tmp_reg__,7
 1663 0712 00C0      		rjmp .L147
 1664               	.LM272:
 1665 0714 8EB5      		in r24,78-32
 1666               	.LVL168:
 1667               	.LBE473:
 1668               	.LBE472:
 1669               	.LM273:
 1670 0716 6B2D      		mov r22,r11
 1671 0718 7C2D      		mov r23,r12
 1672 071a 8D2D      		mov r24,r13
 1673               	.LVL169:
 1674 071c 9E2D      		mov r25,r14
 1675               	.LVL170:
 1676 071e 0E94 0000 		call transfer_long
 1677               	.LVL171:
 1678               	.LBB470:
 1679               	.LBB471:
 1680               	.LM274:
 1681 0722 1EBC      		out 78-32,__zero_reg__
 1682               	.L148:
 1683               	.LM275:
 1684 0724 0DB4      		in __tmp_reg__,77-32
 1685 0726 07FE      		sbrs __tmp_reg__,7
 1686 0728 00C0      		rjmp .L148
 1687               	.LM276:
 1688 072a 8EB5      		in r24,78-32
 1689               	.LVL172:
 1690               	.LBE471:
 1691               	.LBE470:
 1692               	.LBE469:
 1693               	.LM277:
 1694 072c 0E94 0000 		call response_r1
 1695               	.LVL173:
 1696               	.LBB490:
 1697               	.LBB474:
 1698               	.LBB475:
 1699               	.LM278:
 1700 0730 FEBC      		out 78-32,r15
 1701               	.L149:
 1702               	.LM279:
 1703 0732 0DB4      		in __tmp_reg__,77-32
 1704 0734 07FE      		sbrs __tmp_reg__,7
 1705 0736 00C0      		rjmp .L149
 1706               	.LM280:
 1707 0738 9EB5      		in r25,78-32
 1708               	.LVL174:
 1709               	.LBE475:
 1710               	.LBE474:
 1711               	.LBB476:
 1712               	.LBB477:
 1713               	.LM281:
 1714 073a FEBC      		out 78-32,r15
 1715               	.L150:
 1716               	.LM282:
 1717 073c 0DB4      		in __tmp_reg__,77-32
 1718 073e 07FE      		sbrs __tmp_reg__,7
 1719 0740 00C0      		rjmp .L150
 1720               	.LM283:
 1721 0742 9EB5      		in r25,78-32
 1722               	.LVL175:
 1723               	.LBE477:
 1724               	.LBE476:
 1725               	.LM284:
 1726 0744 5F9A      		sbi 43-32,7
 1727               	.LM285:
 1728 0746 8E7F      		andi r24,lo8(-2)
 1729 0748 01F0      		breq .+2
 1730 074a 00C0      		rjmp .L151
 1731               	.LM286:
 1732 074c 5F98      		cbi 43-32,7
 1733 074e 20E1      		ldi r18,lo8(10000)
 1734 0750 37E2      		ldi r19,hi8(10000)
 1735               	.LVL176:
 1736               	.L156:
 1737               	.LBB478:
 1738               	.LBB479:
 1739               	.LM287:
 1740 0752 FEBC      		out 78-32,r15
 1741               	.L152:
 1742               	.LM288:
 1743 0754 0DB4      		in __tmp_reg__,77-32
 1744 0756 07FE      		sbrs __tmp_reg__,7
 1745 0758 00C0      		rjmp .L152
 1746               	.LM289:
 1747 075a 8EB5      		in r24,78-32
 1748               	.LBE479:
 1749               	.LBE478:
 1750               	.LM290:
 1751 075c 8E3F      		cpi r24,lo8(-2)
 1752 075e 01F4      		brne .L153
 1753 0760 91E0      		ldi r25,lo8(1)
 1754               	.LVL177:
 1755 0762 00C0      		rjmp .L154
 1756               	.LVL178:
 1757               	.L153:
 1758               	.LM291:
 1759 0764 2150      		subi r18,lo8(-(-1))
 1760 0766 3040      		sbci r19,hi8(-(-1))
 1761 0768 90E0      		ldi r25,lo8(0)
 1762               	.LVL179:
 1763               	.L154:
 1764               	.LM292:
 1765 076a 2115      		cp r18,__zero_reg__
 1766 076c 3105      		cpc r19,__zero_reg__
 1767 076e 01F0      		breq .L155
 1768 0770 9923      		tst r25
 1769 0772 01F0      		breq .L156
 1770 0774 00C0      		rjmp .L157
 1771               	.L155:
 1772               	.LM293:
 1773 0776 9923      		tst r25
 1774 0778 01F0      		breq .L158
 1775 077a 00C0      		rjmp .L157
 1776               	.LVL180:
 1777               	.L162:
 1778               	.LM294:
 1779 077c 4081      		ld r20,Z
 1780               	.LBB480:
 1781               	.LBB481:
 1782               	.LM295:
 1783 077e FEBC      		out 78-32,r15
 1784               	.L159:
 1785               	.LM296:
 1786 0780 0DB4      		in __tmp_reg__,77-32
 1787 0782 07FE      		sbrs __tmp_reg__,7
 1788 0784 00C0      		rjmp .L159
 1789               	.LM297:
 1790 0786 8EB5      		in r24,78-32
 1791               	.LVL181:
 1792               	.LBE481:
 1793               	.LBE480:
 1794               	.LM298:
 1795 0788 4813      		cpse r20,r24
 1796 078a 90E0      		ldi r25,lo8(0)
 1797               	.L160:
 1798               	.LM299:
 1799 078c 3196      		adiw r30,1
 1800 078e 00C0      		rjmp .L161
 1801               	.LVL182:
 1802               	.L157:
 1803 0790 8981      		ldd r24,Y+1
 1804               	.LVL183:
 1805 0792 9A81      		ldd r25,Y+2
 1806               	.LVL184:
 1807 0794 9C01      		movw r18,r24
 1808               	.LVL185:
 1809 0796 F901      		movw r30,r18
 1810               	.LVL186:
 1811 0798 20E0      		ldi r18,lo8(512)
 1812 079a 32E0      		ldi r19,hi8(512)
 1813               	.LVL187:
 1814 079c 91E0      		ldi r25,lo8(1)
 1815               	.LVL188:
 1816               	.L161:
 1817               	.LM300:
 1818 079e 2150      		subi r18,lo8(-(-1))
 1819 07a0 3040      		sbci r19,hi8(-(-1))
 1820 07a2 8FEF      		ldi r24,hi8(-1)
 1821 07a4 2F3F      		cpi r18,lo8(-1)
 1822 07a6 3807      		cpc r19,r24
 1823               	.LVL189:
 1824 07a8 01F4      		brne .L162
 1825               	.LVL190:
 1826               	.L158:
 1827               	.LBB482:
 1828               	.LBB483:
 1829               	.LM301:
 1830 07aa FEBC      		out 78-32,r15
 1831               	.L163:
 1832               	.LM302:
 1833 07ac 0DB4      		in __tmp_reg__,77-32
 1834 07ae 07FE      		sbrs __tmp_reg__,7
 1835 07b0 00C0      		rjmp .L163
 1836               	.LM303:
 1837 07b2 8EB5      		in r24,78-32
 1838               	.LVL191:
 1839               	.LBE483:
 1840               	.LBE482:
 1841               	.LBB484:
 1842               	.LBB485:
 1843               	.LM304:
 1844 07b4 FEBC      		out 78-32,r15
 1845               	.L164:
 1846               	.LM305:
 1847 07b6 0DB4      		in __tmp_reg__,77-32
 1848 07b8 07FE      		sbrs __tmp_reg__,7
 1849 07ba 00C0      		rjmp .L164
 1850               	.LM306:
 1851 07bc 8EB5      		in r24,78-32
 1852               	.LVL192:
 1853               	.LBE485:
 1854               	.LBE484:
 1855               	.LBB486:
 1856               	.LBB487:
 1857               	.LM307:
 1858 07be FEBC      		out 78-32,r15
 1859               	.L165:
 1860               	.LM308:
 1861 07c0 0DB4      		in __tmp_reg__,77-32
 1862 07c2 07FE      		sbrs __tmp_reg__,7
 1863 07c4 00C0      		rjmp .L165
 1864               	.LM309:
 1865 07c6 8EB5      		in r24,78-32
 1866               	.LVL193:
 1867               	.LBE487:
 1868               	.LBE486:
 1869               	.LBB488:
 1870               	.LBB489:
 1871               	.LM310:
 1872 07c8 FEBC      		out 78-32,r15
 1873               	.L166:
 1874               	.LM311:
 1875 07ca 0DB4      		in __tmp_reg__,77-32
 1876 07cc 07FE      		sbrs __tmp_reg__,7
 1877 07ce 00C0      		rjmp .L166
 1878               	.LM312:
 1879 07d0 8EB5      		in r24,78-32
 1880               	.LVL194:
 1881               	.LBE489:
 1882               	.LBE488:
 1883               	.LM313:
 1884 07d2 5F9A      		sbi 43-32,7
 1885               	.LM314:
 1886 07d4 9923      		tst r25
 1887 07d6 01F0      		breq .L151
 1888 07d8 81E0      		ldi r24,lo8(1)
 1889               	.LVL195:
 1890 07da 00C0      		rjmp .L167
 1891               	.LVL196:
 1892               	.L151:
 1893               	.LBE490:
 1894               	.LM315:
 1895 07dc 8091 0000 		lds r24,sd_debug_fifo_ptr
 1896 07e0 9091 0000 		lds r25,(sd_debug_fifo_ptr)+1
 1897               	.LVL197:
 1898 07e4 60E0      		ldi r22,lo8(__c.2430)
 1899 07e6 70E0      		ldi r23,hi8(__c.2430)
 1900 07e8 0E94 0000 		call fifo_write_string_P
 1901               	.LVL198:
 1902               	.LM316:
 1903 07ec 8091 0000 		lds r24,sd_debug_fifo_ptr
 1904 07f0 9091 0000 		lds r25,(sd_debug_fifo_ptr)+1
 1905 07f4 60E0      		ldi r22,lo8(__c.2432)
 1906 07f6 70E0      		ldi r23,hi8(__c.2432)
 1907 07f8 0E94 0000 		call fifo_write_string_P
 1908               	.LBB491:
 1909               	.LM317:
 1910 07fc 0091 0000 		lds r16,sd_debug_fifo_ptr
 1911 0800 1091 0000 		lds r17,(sd_debug_fifo_ptr)+1
 1912               	.LBE491:
 1913 0804 6B2D      		mov r22,r11
 1914 0806 7C2D      		mov r23,r12
 1915 0808 8D2D      		mov r24,r13
 1916 080a 9E2D      		mov r25,r14
 1917 080c 40E0      		ldi r20,lo8(text)
 1918 080e 50E0      		ldi r21,hi8(text)
 1919 0810 2AE0      		ldi r18,lo8(10)
 1920 0812 30E0      		ldi r19,hi8(10)
 1921 0814 0E94 0000 		call ltoa
 1922 0818 BC01      		movw r22,r24
 1923               	.LBB492:
 1924 081a C801      		movw r24,r16
 1925 081c 0E94 0000 		call fifo_write_string
 1926               	.LBE492:
 1927               	.LM318:
 1928 0820 8091 0000 		lds r24,sd_debug_fifo_ptr
 1929 0824 9091 0000 		lds r25,(sd_debug_fifo_ptr)+1
 1930 0828 60E0      		ldi r22,lo8(__c.2434)
 1931 082a 70E0      		ldi r23,hi8(__c.2434)
 1932               	.LVL199:
 1933               	.L196:
 1934 082c 0E94 0000 		call fifo_write_string_P
 1935               	.LBE468:
 1936               	.LM319:
 1937 0830 0E94 0000 		call sd_initcard
 1938               	.LM320:
 1939 0834 EB81      		ldd r30,Y+3
 1940 0836 FC81      		ldd r31,Y+4
 1941 0838 3197      		sbiw r30,1
 1942 083a FC83      		std Y+4,r31
 1943 083c EB83      		std Y+3,r30
 1944               	.LVL200:
 1945               	.LM321:
 1946 083e EF2B      		or r30,r31
 1947 0840 01F0      		breq .+2
 1948 0842 00C0      		rjmp .L168
 1949 0844 80E0      		ldi r24,lo8(0)
 1950               	.LVL201:
 1951               	.L167:
 1952               	.LVL202:
 1953               	/* epilogue start */
 1954               	.LM322:
 1955 0846 0F90      		pop __tmp_reg__
 1956 0848 0F90      		pop __tmp_reg__
 1957 084a 0F90      		pop __tmp_reg__
 1958 084c 0F90      		pop __tmp_reg__
 1959 084e CF91      		pop r28
 1960 0850 DF91      		pop r29
 1961 0852 1F91      		pop r17
 1962 0854 0F91      		pop r16
 1963 0856 FF90      		pop r15
 1964 0858 EF90      		pop r14
 1965               	.LVL203:
 1966 085a DF90      		pop r13
 1967 085c CF90      		pop r12
 1968 085e BF90      		pop r11
 1969 0860 AF90      		pop r10
 1970 0862 9F90      		pop r9
 1971 0864 8F90      		pop r8
 1972 0866 7F90      		pop r7
 1973 0868 6F90      		pop r6
 1974               	.LVL204:
 1975 086a 5F90      		pop r5
 1976 086c 4F90      		pop r4
 1977               	.LVL205:
 1978 086e 3F90      		pop r3
 1979               	.LVL206:
 1980 0870 2F90      		pop r2
 1981               	.LVL207:
 1982 0872 0895      		ret
 1983               	.LFE17:
 1985               	.global	sd_block_read
 1987               	sd_block_read:
 1988               	.LFB16:
 1989               	.LM323:
 1990               	.LVL208:
 1991 0874 9F92      		push r9
 1992 0876 AF92      		push r10
 1993 0878 BF92      		push r11
 1994 087a CF92      		push r12
 1995 087c DF92      		push r13
 1996 087e EF92      		push r14
 1997 0880 FF92      		push r15
 1998 0882 0F93      		push r16
 1999 0884 1F93      		push r17
 2000 0886 CF93      		push r28
 2001 0888 DF93      		push r29
 2002               	/* prologue: function */
 2003               	/* frame size = 0 */
 2004 088a EC01      		movw r28,r24
 2005 088c 6A01      		movw r12,r20
 2006 088e 7B01      		movw r14,r22
 2007               	.LM324:
 2008 0890 63E0      		ldi r22,lo8(3)
 2009 0892 A62E      		mov r10,r22
 2010               	.LVL209:
 2011               	.LBB493:
 2012               	.LBB494:
 2013               	.LM325:
 2014 0894 51E5      		ldi r21,lo8(81)
 2015 0896 952E      		mov r9,r21
 2016               	.LBE494:
 2017               	.LBE493:
 2018               	.LBB496:
 2019               	.LBB497:
 2020 0898 BB24      		clr r11
 2021 089a BA94      		dec r11
 2022               	.LVL210:
 2023               	.L217:
 2024               	.LBE497:
 2025               	.LBE496:
 2026               	.LM326:
 2027 089c 8091 0000 		lds r24,sd_sdhc
 2028 08a0 8823      		tst r24
 2029 08a2 01F4      		brne .L198
 2030               	.LM327:
 2031 08a4 49E0      		ldi r20,9
 2032 08a6 CC0C      	1:	lsl r12
 2033 08a8 DD1C      		rol r13
 2034 08aa EE1C      		rol r14
 2035 08ac FF1C      		rol r15
 2036 08ae 4A95      		dec r20
 2037 08b0 01F4      		brne 1b
 2038               	.LVL211:
 2039               	.L198:
 2040               	.LM328:
 2041 08b2 5F98      		cbi 43-32,7
 2042               	.LBB499:
 2043               	.LBB495:
 2044               	.LM329:
 2045 08b4 9EBC      		out 78-32,r9
 2046               	.L199:
 2047               	.LM330:
 2048 08b6 0DB4      		in __tmp_reg__,77-32
 2049 08b8 07FE      		sbrs __tmp_reg__,7
 2050 08ba 00C0      		rjmp .L199
 2051               	.LM331:
 2052 08bc 8EB5      		in r24,78-32
 2053               	.LVL212:
 2054               	.LBE495:
 2055               	.LBE499:
 2056               	.LM332:
 2057 08be C701      		movw r24,r14
 2058 08c0 B601      		movw r22,r12
 2059 08c2 0E94 0000 		call transfer_long
 2060               	.LVL213:
 2061               	.LBB500:
 2062               	.LBB501:
 2063               	.LM333:
 2064 08c6 1EBC      		out 78-32,__zero_reg__
 2065               	.L200:
 2066               	.LM334:
 2067 08c8 0DB4      		in __tmp_reg__,77-32
 2068 08ca 07FE      		sbrs __tmp_reg__,7
 2069 08cc 00C0      		rjmp .L200
 2070               	.LM335:
 2071 08ce 8EB5      		in r24,78-32
 2072               	.LVL214:
 2073               	.LBE501:
 2074               	.LBE500:
 2075               	.LM336:
 2076 08d0 0E94 0000 		call response_r1
 2077               	.LVL215:
 2078               	.LBB502:
 2079               	.LBB498:
 2080               	.LM337:
 2081 08d4 BEBC      		out 78-32,r11
 2082               	.L201:
 2083               	.LM338:
 2084 08d6 0DB4      		in __tmp_reg__,77-32
 2085 08d8 07FE      		sbrs __tmp_reg__,7
 2086 08da 00C0      		rjmp .L201
 2087               	.LM339:
 2088 08dc 9EB5      		in r25,78-32
 2089               	.LVL216:
 2090               	.LBE498:
 2091               	.LBE502:
 2092               	.LM340:
 2093 08de 5F9A      		sbi 43-32,7
 2094               	.LM341:
 2095 08e0 8E7F      		andi r24,lo8(-2)
 2096 08e2 01F0      		breq .+2
 2097 08e4 00C0      		rjmp .L202
 2098               	.LM342:
 2099 08e6 5F98      		cbi 43-32,7
 2100 08e8 20E1      		ldi r18,lo8(10000)
 2101 08ea 37E2      		ldi r19,hi8(10000)
 2102               	.LVL217:
 2103               	.L207:
 2104               	.LBB503:
 2105               	.LBB504:
 2106               	.LM343:
 2107 08ec BEBC      		out 78-32,r11
 2108               	.L203:
 2109               	.LM344:
 2110 08ee 0DB4      		in __tmp_reg__,77-32
 2111 08f0 07FE      		sbrs __tmp_reg__,7
 2112 08f2 00C0      		rjmp .L203
 2113               	.LM345:
 2114 08f4 8EB5      		in r24,78-32
 2115               	.LVL218:
 2116               	.LBE504:
 2117               	.LBE503:
 2118               	.LM346:
 2119 08f6 8E3F      		cpi r24,lo8(-2)
 2120 08f8 01F4      		brne .L204
 2121 08fa 81E0      		ldi r24,lo8(1)
 2122               	.LVL219:
 2123 08fc 00C0      		rjmp .L205
 2124               	.LVL220:
 2125               	.L204:
 2126               	.LM347:
 2127 08fe 2150      		subi r18,lo8(-(-1))
 2128 0900 3040      		sbci r19,hi8(-(-1))
 2129 0902 80E0      		ldi r24,lo8(0)
 2130               	.LVL221:
 2131               	.L205:
 2132               	.LM348:
 2133 0904 2115      		cp r18,__zero_reg__
 2134 0906 3105      		cpc r19,__zero_reg__
 2135 0908 01F0      		breq .L206
 2136 090a 8823      		tst r24
 2137 090c 01F0      		breq .L207
 2138 090e 00C0      		rjmp .L208
 2139               	.L206:
 2140               	.LM349:
 2141 0910 8823      		tst r24
 2142 0912 01F0      		breq .L209
 2143               	.L208:
 2144               	.LM350:
 2145 0914 BEBC      		out 78-32,r11
 2146 0916 FE01      		movw r30,r28
 2147 0918 20E0      		ldi r18,lo8(512)
 2148 091a 32E0      		ldi r19,hi8(512)
 2149               	.LVL222:
 2150               	.L230:
 2151               	.LM351:
 2152 091c 0DB4      		in __tmp_reg__,77-32
 2153 091e 07FE      		sbrs __tmp_reg__,7
 2154 0920 00C0      		rjmp .L230
 2155               	.LM352:
 2156 0922 8EB5      		in r24,78-32
 2157               	.LVL223:
 2158 0924 8193      		st Z+,r24
 2159               	.LM353:
 2160 0926 BEBC      		out 78-32,r11
 2161               	.LM354:
 2162 0928 2150      		subi r18,lo8(-(-1))
 2163 092a 3040      		sbci r19,hi8(-(-1))
 2164               	.LM355:
 2165 092c 01F4      		brne .L230
 2166 092e C050      		subi r28,lo8(-(512))
 2167 0930 DE4F      		sbci r29,hi8(-(512))
 2168               	.LVL224:
 2169               	.L211:
 2170               	.LM356:
 2171 0932 0DB4      		in __tmp_reg__,77-32
 2172 0934 07FE      		sbrs __tmp_reg__,7
 2173 0936 00C0      		rjmp .L211
 2174               	.LM357:
 2175 0938 8EB5      		in r24,78-32
 2176               	.LVL225:
 2177 093a 81E0      		ldi r24,lo8(1)
 2178               	.LVL226:
 2179               	.L209:
 2180               	.LBB505:
 2181               	.LBB506:
 2182               	.LM358:
 2183 093c BEBC      		out 78-32,r11
 2184               	.L212:
 2185               	.LM359:
 2186 093e 0DB4      		in __tmp_reg__,77-32
 2187 0940 07FE      		sbrs __tmp_reg__,7
 2188 0942 00C0      		rjmp .L212
 2189               	.LM360:
 2190 0944 9EB5      		in r25,78-32
 2191               	.LVL227:
 2192               	.LBE506:
 2193               	.LBE505:
 2194               	.LBB507:
 2195               	.LBB508:
 2196               	.LM361:
 2197 0946 BEBC      		out 78-32,r11
 2198               	.L213:
 2199               	.LM362:
 2200 0948 0DB4      		in __tmp_reg__,77-32
 2201 094a 07FE      		sbrs __tmp_reg__,7
 2202 094c 00C0      		rjmp .L213
 2203               	.LM363:
 2204 094e 9EB5      		in r25,78-32
 2205               	.LVL228:
 2206               	.LBE508:
 2207               	.LBE507:
 2208               	.LBB509:
 2209               	.LBB510:
 2210               	.LM364:
 2211 0950 BEBC      		out 78-32,r11
 2212               	.L214:
 2213               	.LM365:
 2214 0952 0DB4      		in __tmp_reg__,77-32
 2215 0954 07FE      		sbrs __tmp_reg__,7
 2216 0956 00C0      		rjmp .L214
 2217               	.LM366:
 2218 0958 9EB5      		in r25,78-32
 2219               	.LVL229:
 2220               	.LBE510:
 2221               	.LBE509:
 2222               	.LM367:
 2223 095a 5F9A      		sbi 43-32,7
 2224               	.LM368:
 2225 095c 8823      		tst r24
 2226 095e 01F4      		brne .L215
 2227               	.LVL230:
 2228               	.L202:
 2229               	.LM369:
 2230 0960 8091 0000 		lds r24,sd_debug_fifo_ptr
 2231 0964 9091 0000 		lds r25,(sd_debug_fifo_ptr)+1
 2232               	.LVL231:
 2233 0968 60E0      		ldi r22,lo8(__c.2258)
 2234 096a 70E0      		ldi r23,hi8(__c.2258)
 2235 096c 0E94 0000 		call fifo_write_string_P
 2236               	.LVL232:
 2237               	.LM370:
 2238 0970 8091 0000 		lds r24,sd_debug_fifo_ptr
 2239 0974 9091 0000 		lds r25,(sd_debug_fifo_ptr)+1
 2240 0978 60E0      		ldi r22,lo8(__c.2260)
 2241 097a 70E0      		ldi r23,hi8(__c.2260)
 2242 097c 0E94 0000 		call fifo_write_string_P
 2243               	.LM371:
 2244 0980 0091 0000 		lds r16,sd_debug_fifo_ptr
 2245 0984 1091 0000 		lds r17,(sd_debug_fifo_ptr)+1
 2246 0988 C701      		movw r24,r14
 2247 098a B601      		movw r22,r12
 2248 098c 40E0      		ldi r20,lo8(text)
 2249 098e 50E0      		ldi r21,hi8(text)
 2250 0990 2AE0      		ldi r18,lo8(10)
 2251 0992 30E0      		ldi r19,hi8(10)
 2252 0994 0E94 0000 		call ltoa
 2253 0998 BC01      		movw r22,r24
 2254 099a C801      		movw r24,r16
 2255 099c 0E94 0000 		call fifo_write_string
 2256               	.LM372:
 2257 09a0 8091 0000 		lds r24,sd_debug_fifo_ptr
 2258 09a4 9091 0000 		lds r25,(sd_debug_fifo_ptr)+1
 2259 09a8 60E0      		ldi r22,lo8(__c.2262)
 2260 09aa 70E0      		ldi r23,hi8(__c.2262)
 2261 09ac 0E94 0000 		call fifo_write_string_P
 2262               	.LM373:
 2263 09b0 0E94 0000 		call sd_initcard
 2264               	.LM374:
 2265 09b4 AA20      		tst r10
 2266 09b6 01F0      		breq .L216
 2267 09b8 AA94      		dec r10
 2268 09ba 00C0      		rjmp .L217
 2269               	.L216:
 2270 09bc 80E0      		ldi r24,lo8(0)
 2271               	.LVL233:
 2272               	.L215:
 2273               	.LVL234:
 2274               	/* epilogue start */
 2275               	.LM375:
 2276 09be DF91      		pop r29
 2277 09c0 CF91      		pop r28
 2278               	.LVL235:
 2279 09c2 1F91      		pop r17
 2280 09c4 0F91      		pop r16
 2281 09c6 FF90      		pop r15
 2282 09c8 EF90      		pop r14
 2283 09ca DF90      		pop r13
 2284 09cc CF90      		pop r12
 2285               	.LVL236:
 2286 09ce BF90      		pop r11
 2287 09d0 AF90      		pop r10
 2288               	.LVL237:
 2289 09d2 9F90      		pop r9
 2290 09d4 0895      		ret
 2291               	.LFE16:
 2293               	.global	sd_version
 2294               	.global	sd_version
 2295               		.section .bss
 2298               	sd_version:
 2299 0000 00        		.skip 1,0
 2300               	.global	sd_sdhc
 2301               	.global	sd_sdhc
 2304               	sd_sdhc:
 2305 0001 00        		.skip 1,0
 2306               	.global	sd_debug_fifo_ptr
 2307               	.global	sd_debug_fifo_ptr
 2310               	sd_debug_fifo_ptr:
 2311 0002 0000      		.skip 2,0
 2312               		.section	.progmem.data,"a",@progbits
 2315               	__c.2477:
 2316 0000 0D0A 00   		.string	"\r\n"
 2319               	__c.2475:
 2320 0003 2065 7272 		.string	" err "
 2320      2000 
 2323               	__c.2473:
 2324 0009 4053 4543 		.string	"@SECTOR "
 2324      544F 5220 
 2324      00
 2327               	__c.2471:
 2328 0012 5344 2043 		.string	"SD COMMAND WRITE BLOCK FAILED "
 2328      4F4D 4D41 
 2328      4E44 2057 
 2328      5249 5445 
 2328      2042 4C4F 
 2331               	__c.2434:
 2332 0031 0D0A 00   		.string	"\r\n"
 2335               	__c.2432:
 2336 0034 4053 4543 		.string	"@SECTOR "
 2336      544F 5220 
 2336      00
 2339               	__c.2430:
 2340 003d 5344 2043 		.string	"SD COMMAND VERIFY BLOCK FAILED "
 2340      4F4D 4D41 
 2340      4E44 2056 
 2340      4552 4946 
 2340      5920 424C 
 2343               	__c.2262:
 2344 005d 0D0A 00   		.string	"\r\n"
 2347               	__c.2260:
 2348 0060 4053 4543 		.string	"@SECTOR "
 2348      544F 5220 
 2348      00
 2351               	__c.2258:
 2352 0069 5344 2043 		.string	"SD COMMAND READ BLOCK FAILED "
 2352      4F4D 4D41 
 2352      4E44 2052 
 2352      4541 4420 
 2352      424C 4F43 
 2355               	__c.2224:
 2356 0087 5344 2056 		.string	"SD Version 2.00 or later\r\n"
 2356      6572 7369 
 2356      6F6E 2032 
 2356      2E30 3020 
 2356      6F72 206C 
 2359               	__c.2222:
 2360 00a2 5344 2056 		.string	"SD Version 1.xx\r\n"
 2360      6572 7369 
 2360      6F6E 2031 
 2360      2E78 780D 
 2360      0A00 
 2363               	__c.2313:
 2364 00b4 5344 2043 		.string	"SD COMMAND RESET/IDLE FAILED.\r\n"
 2364      4F4D 4D41 
 2364      4E44 2052 
 2364      4553 4554 
 2364      2F49 444C 
 2367               	__c.2308:
 2368 00d4 5344 2043 		.string	"SD COMMAND RESET/IDLE\r\n"
 2368      4F4D 4D41 
 2368      4E44 2052 
 2368      4553 4554 
 2368      2F49 444C 
 2371               	__c.2330:
 2372 00ec 5344 2043 		.string	"SD COMMAND SEND IFC FAILED.\r\n"
 2372      4F4D 4D41 
 2372      4E44 2053 
 2372      454E 4420 
 2372      4946 4320 
 2375               	__c.2328:
 2376 010a 5344 2043 		.string	"SD COMMAND SEND IFC\r\n"
 2376      4F4D 4D41 
 2376      4E44 2053 
 2376      454E 4420 
 2376      4946 430D 
 2379               	__c.2400:
 2380 0120 5344 2043 		.string	"SD COMMAND INITIALIZE FAILED.\r\n"
 2380      4F4D 4D41 
 2380      4E44 2049 
 2380      4E49 5449 
 2380      414C 495A 
 2383               	__c.2396:
 2384 0140 5344 2043 		.string	"SD COMMAND INITIALIZE\r\n"
 2384      4F4D 4D41 
 2384      4E44 2049 
 2384      4E49 5449 
 2384      414C 495A 
 2387               	__c.2368:
 2388 0158 0D0A 00   		.string	"\r\n"
 2391               	__c.2360:
 2392 015b 4E4F 2020 		.string	"NO  "
 2392      00
 2395               	__c.2358:
 2396 0160 5945 5320 		.string	"YES  "
 2396      2000 
 2399               	__c.2356:
 2400 0166 5344 2043 		.string	"SD COMMAND OCR: SDHC="
 2400      4F4D 4D41 
 2400      4E44 204F 
 2400      4352 3A20 
 2400      5344 4843 
 2403               	__c.2354:
 2404 017c 5344 2043 		.string	"SD COMMAND READ OCR FAILED.\r\n"
 2404      4F4D 4D41 
 2404      4E44 2052 
 2404      4541 4420 
 2404      4F43 5220 
 2407               	__c.2352:
 2408 019a 5344 2043 		.string	"SD COMMAND READ OCR\r\n"
 2408      4F4D 4D41 
 2408      4E44 2052 
 2408      4541 4420 
 2408      4F43 520D 
 2409               		.lcomm text,20
 2410               		.comm uart_isr_nest,1,1
 2475               	.Letext0:
DEFINED SYMBOLS
                            *ABS*:00000000 SD.c
C:\DOCUME~1\Mick\LOCALS~1\Temp/ccnho2CJ.s:2      *ABS*:0000003f __SREG__
C:\DOCUME~1\Mick\LOCALS~1\Temp/ccnho2CJ.s:3      *ABS*:0000003e __SP_H__
C:\DOCUME~1\Mick\LOCALS~1\Temp/ccnho2CJ.s:4      *ABS*:0000003d __SP_L__
C:\DOCUME~1\Mick\LOCALS~1\Temp/ccnho2CJ.s:5      *ABS*:00000034 __CCP__
C:\DOCUME~1\Mick\LOCALS~1\Temp/ccnho2CJ.s:6      *ABS*:00000000 __tmp_reg__
C:\DOCUME~1\Mick\LOCALS~1\Temp/ccnho2CJ.s:7      *ABS*:00000001 __zero_reg__
C:\DOCUME~1\Mick\LOCALS~1\Temp/ccnho2CJ.s:18     .text:00000000 sd_init
C:\DOCUME~1\Mick\LOCALS~1\Temp/ccnho2CJ.s:79     .text:00000044 response_r1
C:\DOCUME~1\Mick\LOCALS~1\Temp/ccnho2CJ.s:119    .text:00000060 transfer_long
C:\DOCUME~1\Mick\LOCALS~1\Temp/ccnho2CJ.s:248    .text:000000e0 sd_initcard
C:\DOCUME~1\Mick\LOCALS~1\Temp/ccnho2CJ.s:2304   .bss:00000001 sd_sdhc
C:\DOCUME~1\Mick\LOCALS~1\Temp/ccnho2CJ.s:2310   .bss:00000002 sd_debug_fifo_ptr
C:\DOCUME~1\Mick\LOCALS~1\Temp/ccnho2CJ.s:2367   .progmem.data:000000d4 __c.2308
C:\DOCUME~1\Mick\LOCALS~1\Temp/ccnho2CJ.s:2363   .progmem.data:000000b4 __c.2313
C:\DOCUME~1\Mick\LOCALS~1\Temp/ccnho2CJ.s:2298   .bss:00000000 sd_version
C:\DOCUME~1\Mick\LOCALS~1\Temp/ccnho2CJ.s:2375   .progmem.data:0000010a __c.2328
C:\DOCUME~1\Mick\LOCALS~1\Temp/ccnho2CJ.s:2371   .progmem.data:000000ec __c.2330
C:\DOCUME~1\Mick\LOCALS~1\Temp/ccnho2CJ.s:2383   .progmem.data:00000140 __c.2396
C:\DOCUME~1\Mick\LOCALS~1\Temp/ccnho2CJ.s:2379   .progmem.data:00000120 __c.2400
C:\DOCUME~1\Mick\LOCALS~1\Temp/ccnho2CJ.s:2407   .progmem.data:0000019a __c.2352
C:\DOCUME~1\Mick\LOCALS~1\Temp/ccnho2CJ.s:2403   .progmem.data:0000017c __c.2354
C:\DOCUME~1\Mick\LOCALS~1\Temp/ccnho2CJ.s:2399   .progmem.data:00000166 __c.2356
C:\DOCUME~1\Mick\LOCALS~1\Temp/ccnho2CJ.s:2395   .progmem.data:00000160 __c.2358
C:\DOCUME~1\Mick\LOCALS~1\Temp/ccnho2CJ.s:2391   .progmem.data:0000015b __c.2360
                             .bss:00000004 text
C:\DOCUME~1\Mick\LOCALS~1\Temp/ccnho2CJ.s:2387   .progmem.data:00000158 __c.2368
C:\DOCUME~1\Mick\LOCALS~1\Temp/ccnho2CJ.s:2359   .progmem.data:000000a2 __c.2222
C:\DOCUME~1\Mick\LOCALS~1\Temp/ccnho2CJ.s:2355   .progmem.data:00000087 __c.2224
C:\DOCUME~1\Mick\LOCALS~1\Temp/ccnho2CJ.s:1188   .text:000004f6 sd_block_write
C:\DOCUME~1\Mick\LOCALS~1\Temp/ccnho2CJ.s:2327   .progmem.data:00000012 __c.2471
C:\DOCUME~1\Mick\LOCALS~1\Temp/ccnho2CJ.s:2323   .progmem.data:00000009 __c.2473
C:\DOCUME~1\Mick\LOCALS~1\Temp/ccnho2CJ.s:2319   .progmem.data:00000003 __c.2475
C:\DOCUME~1\Mick\LOCALS~1\Temp/ccnho2CJ.s:2315   .progmem.data:00000000 __c.2477
C:\DOCUME~1\Mick\LOCALS~1\Temp/ccnho2CJ.s:2339   .progmem.data:0000003d __c.2430
C:\DOCUME~1\Mick\LOCALS~1\Temp/ccnho2CJ.s:2335   .progmem.data:00000034 __c.2432
C:\DOCUME~1\Mick\LOCALS~1\Temp/ccnho2CJ.s:2331   .progmem.data:00000031 __c.2434
C:\DOCUME~1\Mick\LOCALS~1\Temp/ccnho2CJ.s:1987   .text:00000874 sd_block_read
C:\DOCUME~1\Mick\LOCALS~1\Temp/ccnho2CJ.s:2351   .progmem.data:00000069 __c.2258
C:\DOCUME~1\Mick\LOCALS~1\Temp/ccnho2CJ.s:2347   .progmem.data:00000060 __c.2260
C:\DOCUME~1\Mick\LOCALS~1\Temp/ccnho2CJ.s:2343   .progmem.data:0000005d __c.2262
                            *COM*:00000001 uart_isr_nest

UNDEFINED SYMBOLS
fifo_write_string_P
itoa
fifo_write_string
fifo_write_char
ltoa
__do_clear_bss
