   1               		.file	"fifo.c"
   2               	__SREG__ = 0x3f
   3               	__SP_H__ = 0x3e
   4               	__SP_L__ = 0x3d
   5               	__CCP__  = 0x34
   6               	__tmp_reg__ = 0
   7               	__zero_reg__ = 1
  15               	.Ltext0:
  16               	.global	fifo_read_char
  18               	fifo_read_char:
  19               	.LFB15:
  20               	.LM1:
  21               	.LVL0:
  22 0000 CF93      		push r28
  23 0002 DF93      		push r29
  24               	/* prologue: function */
  25               	/* frame size = 0 */
  26 0004 EC01      		movw r28,r24
  27 0006 00C0      		rjmp .L10
  28               	.LVL1:
  29               	.L3:
  30               	.LM2:
  31 0008 E889      		ldd r30,Y+16
  32 000a F989      		ldd r31,Y+17
  33 000c 3097      		sbiw r30,0
  34 000e 01F0      		breq .L10
  35               	.LM3:
  36 0010 0995      		icall
  37               	.LVL2:
  38               	.L10:
  39               	.LM4:
  40 0012 8C81      		ldd r24,Y+4
  41 0014 8823      		tst r24
  42 0016 01F4      		brne .L3
  43               	.LM5:
  44 0018 E885      		ldd r30,Y+8
  45 001a F985      		ldd r31,Y+9
  46 001c E081      		ld r30,Z
  47               	.LVL3:
  48               	.LM6:
  49 001e 8885      		ldd r24,Y+8
  50 0020 9985      		ldd r25,Y+9
  51 0022 0196      		adiw r24,1
  52 0024 9987      		std Y+9,r25
  53 0026 8887      		std Y+8,r24
  54               	.LM7:
  55 0028 2885      		ldd r18,Y+8
  56 002a 3985      		ldd r19,Y+9
  57 002c 8C85      		ldd r24,Y+12
  58 002e 9D85      		ldd r25,Y+13
  59 0030 2817      		cp r18,r24
  60 0032 3907      		cpc r19,r25
  61 0034 01F4      		brne .L4
  62               	.LM8:
  63 0036 8A85      		ldd r24,Y+10
  64 0038 9B85      		ldd r25,Y+11
  65 003a 9987      		std Y+9,r25
  66 003c 8887      		std Y+8,r24
  67               	.L4:
  68               	.LBB77:
  69               	.LM9:
  70 003e 2FB7      		in r18,__SREG__
  71               	.LVL4:
  72               	.LBB78:
  73               	.LBB79:
  74               	.LM10:
  75               	/* #APP */
  76               	 ;  50 "c:/winavr-20100110/lib/gcc/../../avr/include/util/atomic.h" 1
  77 0040 F894      		cli
  78               	 ;  0 "" 2
  79               	/* #NOAPP */
  80               	.LBE79:
  81               	.LBE78:
  82               	.LM11:
  83 0042 8881      		ld r24,Y
  84 0044 9981      		ldd r25,Y+1
  85 0046 0196      		adiw r24,1
  86 0048 9983      		std Y+1,r25
  87 004a 8883      		st Y,r24
  88               	.LM12:
  89 004c 8A81      		ldd r24,Y+2
  90 004e 9B81      		ldd r25,Y+3
  91 0050 0197      		sbiw r24,1
  92 0052 9B83      		std Y+3,r25
  93 0054 8A83      		std Y+2,r24
  94               	.LM13:
  95 0056 8A81      		ldd r24,Y+2
  96 0058 9B81      		ldd r25,Y+3
  97 005a 892B      		or r24,r25
  98 005c 01F4      		brne .L5
  99               	.LM14:
 100 005e 81E0      		ldi r24,lo8(1)
 101 0060 8C83      		std Y+4,r24
 102               	.L5:
 103               	.LM15:
 104 0062 8881      		ld r24,Y
 105 0064 9981      		ldd r25,Y+1
 106 0066 892B      		or r24,r25
 107 0068 01F0      		breq .L6
 108               	.LM16:
 109 006a 1D82      		std Y+5,__zero_reg__
 110               	.L6:
 111               	.LBB80:
 112               	.LBB81:
 113               	.LM17:
 114 006c 2FBF      		out __SREG__,r18
 115               	.LM18:
 116               	.LBE81:
 117               	.LBE80:
 118               	.LBE77:
 119               	.LM19:
 120 006e 8E2F      		mov r24,r30
 121               	/* epilogue start */
 122 0070 DF91      		pop r29
 123 0072 CF91      		pop r28
 124               	.LVL5:
 125 0074 0895      		ret
 126               	.LFE15:
 128               	.global	fifo_read_string
 130               	fifo_read_string:
 131               	.LFB18:
 132               	.LM20:
 133               	.LVL6:
 134 0076 CF92      		push r12
 135 0078 DF92      		push r13
 136 007a EF92      		push r14
 137 007c FF92      		push r15
 138 007e 0F93      		push r16
 139 0080 1F93      		push r17
 140 0082 CF93      		push r28
 141 0084 DF93      		push r29
 142               	/* prologue: function */
 143               	/* frame size = 0 */
 144 0086 7C01      		movw r14,r24
 145 0088 D62E      		mov r13,r22
 146 008a C72E      		mov r12,r23
 147               	.LVL7:
 148 008c 8A01      		movw r16,r20
 149               	.LM21:
 150 008e 4115      		cp r20,__zero_reg__
 151 0090 5105      		cpc r21,__zero_reg__
 152 0092 01F0      		breq .L12
 153               	.LVL8:
 154 0094 862F      		mov r24,r22
 155 0096 972F      		mov r25,r23
 156 0098 9C01      		movw r18,r24
 157 009a E901      		movw r28,r18
 158 009c 00C0      		rjmp .L18
 159               	.LVL9:
 160               	.L14:
 161               	.LM22:
 162 009e D701      		movw r26,r14
 163 00a0 5096      		adiw r26,16
 164 00a2 ED91      		ld r30,X+
 165 00a4 FC91      		ld r31,X
 166 00a6 5197      		sbiw r26,16+1
 167 00a8 3097      		sbiw r30,0
 168 00aa 01F0      		breq .L18
 169               	.LM23:
 170 00ac 0995      		icall
 171               	.LVL10:
 172               	.L18:
 173               	.LM24:
 174 00ae F701      		movw r30,r14
 175 00b0 8481      		ldd r24,Z+4
 176 00b2 8823      		tst r24
 177 00b4 01F4      		brne .L14
 178               	.LVL11:
 179               	.LM25:
 180 00b6 C701      		movw r24,r14
 181 00b8 0E94 0000 		call fifo_read_char
 182               	.LVL12:
 183 00bc 8883      		st Y,r24
 184               	.LM26:
 185 00be 8823      		tst r24
 186 00c0 01F0      		breq .L12
 187 00c2 0150      		subi r16,lo8(-(-1))
 188 00c4 1040      		sbci r17,hi8(-(-1))
 189 00c6 01F0      		breq .L12
 190 00c8 2196      		adiw r28,1
 191 00ca 00C0      		rjmp .L18
 192               	.LVL13:
 193               	.L12:
 194               	.LM27:
 195 00cc 8D2D      		mov r24,r13
 196 00ce 9C2D      		mov r25,r12
 197               	/* epilogue start */
 198 00d0 DF91      		pop r29
 199 00d2 CF91      		pop r28
 200 00d4 1F91      		pop r17
 201 00d6 0F91      		pop r16
 202               	.LVL14:
 203 00d8 FF90      		pop r15
 204 00da EF90      		pop r14
 205               	.LVL15:
 206 00dc DF90      		pop r13
 207               	.LVL16:
 208 00de CF90      		pop r12
 209               	.LVL17:
 210 00e0 0895      		ret
 211               	.LFE18:
 213               	.global	fifo_write_char
 215               	fifo_write_char:
 216               	.LFB19:
 217               	.LM28:
 218               	.LVL18:
 219 00e2 1F93      		push r17
 220 00e4 CF93      		push r28
 221 00e6 DF93      		push r29
 222               	/* prologue: function */
 223               	/* frame size = 0 */
 224 00e8 EC01      		movw r28,r24
 225 00ea 162F      		mov r17,r22
 226               	.LM29:
 227 00ec 0097      		sbiw r24,0
 228 00ee 01F4      		brne .L30
 229               	.LVL19:
 230 00f0 00C0      		rjmp .L26
 231               	.LVL20:
 232               	.L22:
 233               	.LM30:
 234 00f2 E889      		ldd r30,Y+16
 235 00f4 F989      		ldd r31,Y+17
 236 00f6 3097      		sbiw r30,0
 237 00f8 01F0      		breq .L30
 238               	.LM31:
 239 00fa 0995      		icall
 240               	.LVL21:
 241               	.L30:
 242               	.LM32:
 243 00fc 8D81      		ldd r24,Y+5
 244 00fe 8823      		tst r24
 245 0100 01F4      		brne .L22
 246               	.LM33:
 247 0102 EE81      		ldd r30,Y+6
 248 0104 FF81      		ldd r31,Y+7
 249 0106 1083      		st Z,r17
 250               	.LM34:
 251 0108 8E81      		ldd r24,Y+6
 252 010a 9F81      		ldd r25,Y+7
 253 010c 0196      		adiw r24,1
 254 010e 9F83      		std Y+7,r25
 255 0110 8E83      		std Y+6,r24
 256               	.LM35:
 257 0112 2E81      		ldd r18,Y+6
 258 0114 3F81      		ldd r19,Y+7
 259 0116 8C85      		ldd r24,Y+12
 260 0118 9D85      		ldd r25,Y+13
 261 011a 2817      		cp r18,r24
 262 011c 3907      		cpc r19,r25
 263 011e 01F4      		brne .L23
 264               	.LM36:
 265 0120 8A85      		ldd r24,Y+10
 266 0122 9B85      		ldd r25,Y+11
 267 0124 9F83      		std Y+7,r25
 268 0126 8E83      		std Y+6,r24
 269               	.L23:
 270               	.LBB82:
 271               	.LM37:
 272 0128 2FB7      		in r18,__SREG__
 273               	.LVL22:
 274               	.LBB83:
 275               	.LBB84:
 276               	.LM38:
 277               	/* #APP */
 278               	 ;  50 "c:/winavr-20100110/lib/gcc/../../avr/include/util/atomic.h" 1
 279 012a F894      		cli
 280               	 ;  0 "" 2
 281               	/* #NOAPP */
 282               	.LBE84:
 283               	.LBE83:
 284               	.LM39:
 285 012c 8881      		ld r24,Y
 286 012e 9981      		ldd r25,Y+1
 287 0130 0197      		sbiw r24,1
 288 0132 9983      		std Y+1,r25
 289 0134 8883      		st Y,r24
 290               	.LM40:
 291 0136 8A81      		ldd r24,Y+2
 292 0138 9B81      		ldd r25,Y+3
 293 013a 0196      		adiw r24,1
 294 013c 9B83      		std Y+3,r25
 295 013e 8A83      		std Y+2,r24
 296               	.LM41:
 297 0140 8881      		ld r24,Y
 298 0142 9981      		ldd r25,Y+1
 299 0144 892B      		or r24,r25
 300 0146 01F4      		brne .L24
 301               	.LM42:
 302 0148 81E0      		ldi r24,lo8(1)
 303 014a 8D83      		std Y+5,r24
 304               	.L24:
 305               	.LM43:
 306 014c 8A81      		ldd r24,Y+2
 307 014e 9B81      		ldd r25,Y+3
 308 0150 892B      		or r24,r25
 309 0152 01F0      		breq .L25
 310               	.LM44:
 311 0154 1C82      		std Y+4,__zero_reg__
 312               	.L25:
 313               	.LBB85:
 314               	.LBB86:
 315               	.LM45:
 316 0156 2FBF      		out __SREG__,r18
 317               	.LM46:
 318               	.LBE86:
 319               	.LBE85:
 320               	.LBE82:
 321               	.LM47:
 322 0158 EE85      		ldd r30,Y+14
 323 015a FF85      		ldd r31,Y+15
 324 015c 3097      		sbiw r30,0
 325 015e 01F0      		breq .L26
 326               	.LM48:
 327 0160 0995      		icall
 328               	.LVL23:
 329               	.L26:
 330               	/* epilogue start */
 331               	.LM49:
 332 0162 DF91      		pop r29
 333 0164 CF91      		pop r28
 334               	.LVL24:
 335 0166 1F91      		pop r17
 336               	.LVL25:
 337 0168 0895      		ret
 338               	.LFE19:
 340               	.global	fifo_flush
 342               	fifo_flush:
 343               	.LFB29:
 344               	.LM50:
 345               	.LVL26:
 346               	/* prologue: function */
 347               	/* frame size = 0 */
 348 016a FC01      		movw r30,r24
 349               	.LBB87:
 350               	.LM51:
 351 016c 4FB7      		in r20,__SREG__
 352               	.LVL27:
 353               	.LBB88:
 354               	.LBB89:
 355               	.LM52:
 356               	/* #APP */
 357               	 ;  50 "c:/winavr-20100110/lib/gcc/../../avr/include/util/atomic.h" 1
 358 016e F894      		cli
 359               	 ;  0 "" 2
 360               	/* #NOAPP */
 361               	.LBE89:
 362               	.LBE88:
 363               	.LM53:
 364 0170 8285      		ldd r24,Z+10
 365 0172 9385      		ldd r25,Z+11
 366               	.LVL28:
 367 0174 9187      		std Z+9,r25
 368 0176 8087      		std Z+8,r24
 369               	.LM54:
 370 0178 8285      		ldd r24,Z+10
 371 017a 9385      		ldd r25,Z+11
 372 017c 9783      		std Z+7,r25
 373 017e 8683      		std Z+6,r24
 374               	.LM55:
 375 0180 8485      		ldd r24,Z+12
 376 0182 9585      		ldd r25,Z+13
 377 0184 2285      		ldd r18,Z+10
 378 0186 3385      		ldd r19,Z+11
 379 0188 821B      		sub r24,r18
 380 018a 930B      		sbc r25,r19
 381 018c 9183      		std Z+1,r25
 382 018e 8083      		st Z,r24
 383               	.LM56:
 384 0190 1382      		std Z+3,__zero_reg__
 385 0192 1282      		std Z+2,__zero_reg__
 386               	.LM57:
 387 0194 81E0      		ldi r24,lo8(1)
 388 0196 8483      		std Z+4,r24
 389               	.LM58:
 390 0198 1582      		std Z+5,__zero_reg__
 391               	.LBB90:
 392               	.LBB91:
 393               	.LM59:
 394 019a 4FBF      		out __SREG__,r20
 395               	.LM60:
 396               	/* epilogue start */
 397               	.LBE91:
 398               	.LBE90:
 399               	.LBE87:
 400               	.LM61:
 401 019c 0895      		ret
 402               	.LFE29:
 404               	.global	fifo_write_P
 406               	fifo_write_P:
 407               	.LFB28:
 408               	.LM62:
 409               	.LVL29:
 410 019e 3F92      		push r3
 411 01a0 4F92      		push r4
 412 01a2 5F92      		push r5
 413 01a4 6F92      		push r6
 414 01a6 7F92      		push r7
 415 01a8 8F92      		push r8
 416 01aa 9F92      		push r9
 417 01ac AF92      		push r10
 418 01ae BF92      		push r11
 419 01b0 CF92      		push r12
 420 01b2 DF92      		push r13
 421 01b4 EF92      		push r14
 422 01b6 FF92      		push r15
 423 01b8 0F93      		push r16
 424 01ba 1F93      		push r17
 425 01bc CF93      		push r28
 426 01be DF93      		push r29
 427               	/* prologue: function */
 428               	/* frame size = 0 */
 429 01c0 EC01      		movw r28,r24
 430 01c2 4B01      		movw r8,r22
 431 01c4 2A01      		movw r4,r20
 432               	.LM63:
 433 01c6 0097      		sbiw r24,0
 434 01c8 01F4      		brne .+2
 435 01ca 00C0      		rjmp .L49
 436               	.LVL30:
 437               	.LM64:
 438 01cc 6C84      		ldd r6,Y+12
 439 01ce 7D84      		ldd r7,Y+13
 440 01d0 8A85      		ldd r24,Y+10
 441 01d2 9B85      		ldd r25,Y+11
 442               	.LVL31:
 443 01d4 681A      		sub r6,r24
 444 01d6 790A      		sbc r7,r25
 445 01d8 5A01      		movw r10,r20
 446               	.LBB92:
 447               	.LM65:
 448 01da 3324      		clr r3
 449 01dc 3394      		inc r3
 450 01de 00C0      		rjmp .L35
 451               	.LVL32:
 452               	.L48:
 453               	.LBE92:
 454               	.LM66:
 455 01e0 6414      		cp r6,r4
 456 01e2 7504      		cpc r7,r5
 457 01e4 00F0      		brlo .L55
 458               	.LVL33:
 459 01e6 00C0      		rjmp .L56
 460               	.L38:
 461               	.LM67:
 462 01e8 E889      		ldd r30,Y+16
 463 01ea F989      		ldd r31,Y+17
 464 01ec 3097      		sbiw r30,0
 465 01ee 01F0      		breq .L55
 466               	.LM68:
 467 01f0 0995      		icall
 468               	.LVL34:
 469               	.L55:
 470               	.LM69:
 471 01f2 8D81      		ldd r24,Y+5
 472 01f4 8823      		tst r24
 473 01f6 01F4      		brne .L38
 474               	.LBB97:
 475               	.LM70:
 476 01f8 8FB7      		in r24,__SREG__
 477               	.LVL35:
 478               	.LBB98:
 479               	.LBB99:
 480               	.LM71:
 481               	/* #APP */
 482               	 ;  50 "c:/winavr-20100110/lib/gcc/../../avr/include/util/atomic.h" 1
 483 01fa F894      		cli
 484               	 ;  0 "" 2
 485               	/* #NOAPP */
 486               	.LBE99:
 487               	.LBE98:
 488               	.LM72:
 489 01fc C880      		ld r12,Y
 490 01fe D980      		ldd r13,Y+1
 491               	.LVL36:
 492               	.LBB100:
 493               	.LBB101:
 494               	.LM73:
 495 0200 8FBF      		out __SREG__,r24
 496               	.LM74:
 497               	.LBE101:
 498               	.LBE100:
 499               	.LBE97:
 500               	.LM75:
 501 0202 AC14      		cp r10,r12
 502 0204 BD04      		cpc r11,r13
 503 0206 00F0      		brlo .L39
 504               	.LVL37:
 505 0208 00C0      		rjmp .L40
 506               	.LVL38:
 507               	.L56:
 508               	.LBB102:
 509               	.LM76:
 510 020a 2FB7      		in r18,__SREG__
 511               	.LBB103:
 512               	.LBB104:
 513               	.LM77:
 514               	/* #APP */
 515               	 ;  50 "c:/winavr-20100110/lib/gcc/../../avr/include/util/atomic.h" 1
 516 020c F894      		cli
 517               	 ;  0 "" 2
 518               	/* #NOAPP */
 519               	.LBE104:
 520               	.LBE103:
 521               	.LM78:
 522 020e 8881      		ld r24,Y
 523 0210 9981      		ldd r25,Y+1
 524               	.LVL39:
 525               	.LBB105:
 526               	.LBB106:
 527               	.LM79:
 528 0212 2FBF      		out __SREG__,r18
 529               	.LM80:
 530               	.LBE106:
 531               	.LBE105:
 532               	.LBE102:
 533               	.LM81:
 534 0214 8A15      		cp r24,r10
 535 0216 9B05      		cpc r25,r11
 536 0218 00F4      		brsh .L39
 537               	.LVL40:
 538 021a E889      		ldd r30,Y+16
 539 021c F989      		ldd r31,Y+17
 540 021e 3097      		sbiw r30,0
 541 0220 01F0      		breq .L56
 542               	.LM82:
 543 0222 0995      		icall
 544               	.LVL41:
 545 0224 00C0      		rjmp .L56
 546               	.LVL42:
 547               	.L39:
 548 0226 6501      		movw r12,r10
 549               	.L40:
 550               	.LM83:
 551 0228 0C85      		ldd r16,Y+12
 552 022a 1D85      		ldd r17,Y+13
 553 022c 8E81      		ldd r24,Y+6
 554 022e 9F81      		ldd r25,Y+7
 555               	.LVL43:
 556 0230 081B      		sub r16,r24
 557 0232 190B      		sbc r17,r25
 558               	.LM84:
 559 0234 0C15      		cp r16,r12
 560 0236 1D05      		cpc r17,r13
 561 0238 00F0      		brlo .L41
 562 023a 7601      		movw r14,r12
 563 023c 00E0      		ldi r16,lo8(0)
 564 023e 10E0      		ldi r17,hi8(0)
 565 0240 00C0      		rjmp .L42
 566               	.LVL44:
 567               	.L41:
 568               	.LM85:
 569 0242 8E81      		ldd r24,Y+6
 570 0244 9F81      		ldd r25,Y+7
 571 0246 B401      		movw r22,r8
 572 0248 A801      		movw r20,r16
 573               	.LVL45:
 574 024a 0E94 0000 		call memcpy_P
 575               	.LVL46:
 576               	.LM86:
 577 024e 7601      		movw r14,r12
 578 0250 E01A      		sub r14,r16
 579 0252 F10A      		sbc r15,r17
 580               	.LVL47:
 581               	.LM87:
 582 0254 8A85      		ldd r24,Y+10
 583 0256 9B85      		ldd r25,Y+11
 584 0258 9F83      		std Y+7,r25
 585 025a 8E83      		std Y+6,r24
 586               	.LM88:
 587 025c 800E      		add r8,r16
 588 025e 911E      		adc r9,r17
 589               	.LVL48:
 590               	.L42:
 591               	.LM89:
 592 0260 E114      		cp r14,__zero_reg__
 593 0262 F104      		cpc r15,__zero_reg__
 594 0264 01F0      		breq .L43
 595               	.LM90:
 596 0266 8E81      		ldd r24,Y+6
 597 0268 9F81      		ldd r25,Y+7
 598 026a B401      		movw r22,r8
 599 026c A701      		movw r20,r14
 600               	.LVL49:
 601 026e 0E94 0000 		call memcpy_P
 602               	.LVL50:
 603               	.L43:
 604               	.LM91:
 605 0272 8E81      		ldd r24,Y+6
 606 0274 9F81      		ldd r25,Y+7
 607 0276 8E0D      		add r24,r14
 608 0278 9F1D      		adc r25,r15
 609 027a 9F83      		std Y+7,r25
 610 027c 8E83      		std Y+6,r24
 611               	.LM92:
 612 027e 2E81      		ldd r18,Y+6
 613 0280 3F81      		ldd r19,Y+7
 614               	.LVL51:
 615 0282 8C85      		ldd r24,Y+12
 616 0284 9D85      		ldd r25,Y+13
 617 0286 2817      		cp r18,r24
 618 0288 3907      		cpc r19,r25
 619 028a 01F4      		brne .L44
 620               	.LM93:
 621 028c 8A85      		ldd r24,Y+10
 622 028e 9B85      		ldd r25,Y+11
 623 0290 9F83      		std Y+7,r25
 624 0292 8E83      		std Y+6,r24
 625               	.L44:
 626               	.LM94:
 627 0294 9701      		movw r18,r14
 628 0296 200F      		add r18,r16
 629 0298 311F      		adc r19,r17
 630               	.LVL52:
 631               	.LBB107:
 632               	.LM95:
 633 029a 4FB7      		in r20,__SREG__
 634               	.LBB93:
 635               	.LBB94:
 636               	.LM96:
 637               	/* #APP */
 638               	 ;  50 "c:/winavr-20100110/lib/gcc/../../avr/include/util/atomic.h" 1
 639 029c F894      		cli
 640               	 ;  0 "" 2
 641               	/* #NOAPP */
 642               	.LBE94:
 643               	.LBE93:
 644               	.LM97:
 645 029e 8881      		ld r24,Y
 646 02a0 9981      		ldd r25,Y+1
 647 02a2 821B      		sub r24,r18
 648 02a4 930B      		sbc r25,r19
 649 02a6 9983      		std Y+1,r25
 650 02a8 8883      		st Y,r24
 651               	.LM98:
 652 02aa 8A81      		ldd r24,Y+2
 653 02ac 9B81      		ldd r25,Y+3
 654 02ae 280F      		add r18,r24
 655 02b0 391F      		adc r19,r25
 656 02b2 3B83      		std Y+3,r19
 657 02b4 2A83      		std Y+2,r18
 658               	.LM99:
 659 02b6 8881      		ld r24,Y
 660 02b8 9981      		ldd r25,Y+1
 661 02ba 892B      		or r24,r25
 662 02bc 01F4      		brne .L45
 663               	.LM100:
 664 02be 3D82      		std Y+5,r3
 665               	.L45:
 666               	.LM101:
 667 02c0 8A81      		ldd r24,Y+2
 668 02c2 9B81      		ldd r25,Y+3
 669 02c4 892B      		or r24,r25
 670 02c6 01F0      		breq .L46
 671               	.LM102:
 672 02c8 1C82      		std Y+4,__zero_reg__
 673               	.L46:
 674               	.LBB95:
 675               	.LBB96:
 676               	.LM103:
 677 02ca 4FBF      		out __SREG__,r20
 678               	.LM104:
 679               	.LBE96:
 680               	.LBE95:
 681               	.LBE107:
 682               	.LM105:
 683 02cc EE85      		ldd r30,Y+14
 684 02ce FF85      		ldd r31,Y+15
 685 02d0 3097      		sbiw r30,0
 686 02d2 01F0      		breq .L47
 687               	.LM106:
 688 02d4 0995      		icall
 689               	.LVL53:
 690               	.L47:
 691               	.LM107:
 692 02d6 AC18      		sub r10,r12
 693 02d8 BD08      		sbc r11,r13
 694               	.LM108:
 695 02da 8E0C      		add r8,r14
 696 02dc 9F1C      		adc r9,r15
 697               	.LVL54:
 698               	.L35:
 699               	.LM109:
 700 02de A114      		cp r10,__zero_reg__
 701 02e0 B104      		cpc r11,__zero_reg__
 702 02e2 01F0      		breq .+2
 703 02e4 00C0      		rjmp .L48
 704               	.LVL55:
 705               	.L49:
 706               	/* epilogue start */
 707               	.LM110:
 708 02e6 DF91      		pop r29
 709 02e8 CF91      		pop r28
 710               	.LVL56:
 711 02ea 1F91      		pop r17
 712 02ec 0F91      		pop r16
 713               	.LVL57:
 714 02ee FF90      		pop r15
 715 02f0 EF90      		pop r14
 716               	.LVL58:
 717 02f2 DF90      		pop r13
 718 02f4 CF90      		pop r12
 719               	.LVL59:
 720 02f6 BF90      		pop r11
 721 02f8 AF90      		pop r10
 722 02fa 9F90      		pop r9
 723 02fc 8F90      		pop r8
 724               	.LVL60:
 725 02fe 7F90      		pop r7
 726 0300 6F90      		pop r6
 727 0302 5F90      		pop r5
 728 0304 4F90      		pop r4
 729 0306 3F90      		pop r3
 730 0308 0895      		ret
 731               	.LFE28:
 733               	.global	fifo_write
 735               	fifo_write:
 736               	.LFB27:
 737               	.LM111:
 738               	.LVL61:
 739 030a 3F92      		push r3
 740 030c 4F92      		push r4
 741 030e 5F92      		push r5
 742 0310 6F92      		push r6
 743 0312 7F92      		push r7
 744 0314 8F92      		push r8
 745 0316 9F92      		push r9
 746 0318 AF92      		push r10
 747 031a BF92      		push r11
 748 031c CF92      		push r12
 749 031e DF92      		push r13
 750 0320 EF92      		push r14
 751 0322 FF92      		push r15
 752 0324 0F93      		push r16
 753 0326 1F93      		push r17
 754 0328 CF93      		push r28
 755 032a DF93      		push r29
 756               	/* prologue: function */
 757               	/* frame size = 0 */
 758 032c EC01      		movw r28,r24
 759 032e 6B01      		movw r12,r22
 760 0330 2A01      		movw r4,r20
 761               	.LM112:
 762 0332 0097      		sbiw r24,0
 763 0334 01F4      		brne .+2
 764 0336 00C0      		rjmp .L75
 765               	.LVL62:
 766               	.LM113:
 767 0338 6C84      		ldd r6,Y+12
 768 033a 7D84      		ldd r7,Y+13
 769 033c 8A85      		ldd r24,Y+10
 770 033e 9B85      		ldd r25,Y+11
 771               	.LVL63:
 772 0340 681A      		sub r6,r24
 773 0342 790A      		sbc r7,r25
 774 0344 4A01      		movw r8,r20
 775               	.LBB108:
 776               	.LM114:
 777 0346 3324      		clr r3
 778 0348 3394      		inc r3
 779 034a 00C0      		rjmp .L59
 780               	.LVL64:
 781               	.L74:
 782               	.LBE108:
 783               	.LM115:
 784 034c 6414      		cp r6,r4
 785 034e 7504      		cpc r7,r5
 786 0350 00F0      		brlo .L81
 787               	.LVL65:
 788 0352 00C0      		rjmp .L82
 789               	.L62:
 790               	.LM116:
 791 0354 E889      		ldd r30,Y+16
 792 0356 F989      		ldd r31,Y+17
 793 0358 3097      		sbiw r30,0
 794 035a 01F0      		breq .L81
 795               	.LM117:
 796 035c 0995      		icall
 797               	.LVL66:
 798               	.L81:
 799               	.LM118:
 800 035e 8D81      		ldd r24,Y+5
 801 0360 8823      		tst r24
 802 0362 01F4      		brne .L62
 803               	.LBB113:
 804               	.LM119:
 805 0364 8FB7      		in r24,__SREG__
 806               	.LVL67:
 807               	.LBB114:
 808               	.LBB115:
 809               	.LM120:
 810               	/* #APP */
 811               	 ;  50 "c:/winavr-20100110/lib/gcc/../../avr/include/util/atomic.h" 1
 812 0366 F894      		cli
 813               	 ;  0 "" 2
 814               	/* #NOAPP */
 815               	.LBE115:
 816               	.LBE114:
 817               	.LM121:
 818 0368 A880      		ld r10,Y
 819 036a B980      		ldd r11,Y+1
 820               	.LVL68:
 821               	.LBB116:
 822               	.LBB117:
 823               	.LM122:
 824 036c 8FBF      		out __SREG__,r24
 825               	.LM123:
 826               	.LBE117:
 827               	.LBE116:
 828               	.LBE113:
 829               	.LM124:
 830 036e 8A14      		cp r8,r10
 831 0370 9B04      		cpc r9,r11
 832 0372 00F0      		brlo .L63
 833               	.LVL69:
 834 0374 00C0      		rjmp .L64
 835               	.LVL70:
 836               	.L82:
 837               	.LBB118:
 838               	.LM125:
 839 0376 2FB7      		in r18,__SREG__
 840               	.LBB119:
 841               	.LBB120:
 842               	.LM126:
 843               	/* #APP */
 844               	 ;  50 "c:/winavr-20100110/lib/gcc/../../avr/include/util/atomic.h" 1
 845 0378 F894      		cli
 846               	 ;  0 "" 2
 847               	/* #NOAPP */
 848               	.LBE120:
 849               	.LBE119:
 850               	.LM127:
 851 037a 8881      		ld r24,Y
 852 037c 9981      		ldd r25,Y+1
 853               	.LVL71:
 854               	.LBB121:
 855               	.LBB122:
 856               	.LM128:
 857 037e 2FBF      		out __SREG__,r18
 858               	.LM129:
 859               	.LBE122:
 860               	.LBE121:
 861               	.LBE118:
 862               	.LM130:
 863 0380 8815      		cp r24,r8
 864 0382 9905      		cpc r25,r9
 865 0384 00F4      		brsh .L63
 866               	.LVL72:
 867 0386 E889      		ldd r30,Y+16
 868 0388 F989      		ldd r31,Y+17
 869 038a 3097      		sbiw r30,0
 870 038c 01F0      		breq .L82
 871               	.LM131:
 872 038e 0995      		icall
 873               	.LVL73:
 874 0390 00C0      		rjmp .L82
 875               	.LVL74:
 876               	.L63:
 877 0392 5401      		movw r10,r8
 878               	.L64:
 879               	.LM132:
 880 0394 0C85      		ldd r16,Y+12
 881 0396 1D85      		ldd r17,Y+13
 882 0398 8E81      		ldd r24,Y+6
 883 039a 9F81      		ldd r25,Y+7
 884               	.LVL75:
 885 039c 081B      		sub r16,r24
 886 039e 190B      		sbc r17,r25
 887               	.LM133:
 888 03a0 0A15      		cp r16,r10
 889 03a2 1B05      		cpc r17,r11
 890 03a4 00F0      		brlo .L65
 891 03a6 7501      		movw r14,r10
 892 03a8 00E0      		ldi r16,lo8(0)
 893 03aa 10E0      		ldi r17,hi8(0)
 894 03ac 00C0      		rjmp .L66
 895               	.LVL76:
 896               	.L65:
 897               	.LM134:
 898 03ae 2E81      		ldd r18,Y+6
 899 03b0 3F81      		ldd r19,Y+7
 900               	.LVL77:
 901 03b2 C901      		movw r24,r18
 902 03b4 B601      		movw r22,r12
 903               	.LVL78:
 904 03b6 A801      		movw r20,r16
 905               	.LVL79:
 906 03b8 0E94 0000 		call memcpy
 907               	.LM135:
 908 03bc 7501      		movw r14,r10
 909 03be E01A      		sub r14,r16
 910 03c0 F10A      		sbc r15,r17
 911               	.LVL80:
 912               	.LM136:
 913 03c2 8A85      		ldd r24,Y+10
 914 03c4 9B85      		ldd r25,Y+11
 915 03c6 9F83      		std Y+7,r25
 916 03c8 8E83      		std Y+6,r24
 917               	.LM137:
 918 03ca C00E      		add r12,r16
 919 03cc D11E      		adc r13,r17
 920               	.LVL81:
 921               	.L66:
 922               	.LM138:
 923 03ce E114      		cp r14,__zero_reg__
 924 03d0 F104      		cpc r15,__zero_reg__
 925 03d2 01F0      		breq .L68
 926               	.LM139:
 927 03d4 2E81      		ldd r18,Y+6
 928 03d6 3F81      		ldd r19,Y+7
 929               	.LVL82:
 930 03d8 C901      		movw r24,r18
 931 03da B601      		movw r22,r12
 932               	.LVL83:
 933 03dc A701      		movw r20,r14
 934               	.LVL84:
 935 03de 0E94 0000 		call memcpy
 936               	.LVL85:
 937               	.L68:
 938               	.LM140:
 939 03e2 8E81      		ldd r24,Y+6
 940 03e4 9F81      		ldd r25,Y+7
 941 03e6 8E0D      		add r24,r14
 942 03e8 9F1D      		adc r25,r15
 943 03ea 9F83      		std Y+7,r25
 944 03ec 8E83      		std Y+6,r24
 945               	.LM141:
 946 03ee 2E81      		ldd r18,Y+6
 947 03f0 3F81      		ldd r19,Y+7
 948               	.LVL86:
 949 03f2 8C85      		ldd r24,Y+12
 950 03f4 9D85      		ldd r25,Y+13
 951 03f6 2817      		cp r18,r24
 952 03f8 3907      		cpc r19,r25
 953 03fa 01F4      		brne .L70
 954               	.LVL87:
 955               	.LM142:
 956 03fc 8A85      		ldd r24,Y+10
 957 03fe 9B85      		ldd r25,Y+11
 958 0400 9F83      		std Y+7,r25
 959 0402 8E83      		std Y+6,r24
 960               	.L70:
 961               	.LM143:
 962 0404 9701      		movw r18,r14
 963 0406 200F      		add r18,r16
 964 0408 311F      		adc r19,r17
 965               	.LVL88:
 966               	.LBB123:
 967               	.LM144:
 968 040a 4FB7      		in r20,__SREG__
 969               	.LBB109:
 970               	.LBB110:
 971               	.LM145:
 972               	/* #APP */
 973               	 ;  50 "c:/winavr-20100110/lib/gcc/../../avr/include/util/atomic.h" 1
 974 040c F894      		cli
 975               	 ;  0 "" 2
 976               	/* #NOAPP */
 977               	.LBE110:
 978               	.LBE109:
 979               	.LM146:
 980 040e 8881      		ld r24,Y
 981 0410 9981      		ldd r25,Y+1
 982 0412 821B      		sub r24,r18
 983 0414 930B      		sbc r25,r19
 984 0416 9983      		std Y+1,r25
 985 0418 8883      		st Y,r24
 986               	.LM147:
 987 041a 8A81      		ldd r24,Y+2
 988 041c 9B81      		ldd r25,Y+3
 989 041e 280F      		add r18,r24
 990 0420 391F      		adc r19,r25
 991 0422 3B83      		std Y+3,r19
 992 0424 2A83      		std Y+2,r18
 993               	.LM148:
 994 0426 8881      		ld r24,Y
 995 0428 9981      		ldd r25,Y+1
 996 042a 892B      		or r24,r25
 997 042c 01F4      		brne .L71
 998               	.LM149:
 999 042e 3D82      		std Y+5,r3
 1000               	.L71:
 1001               	.LM150:
 1002 0430 8A81      		ldd r24,Y+2
 1003 0432 9B81      		ldd r25,Y+3
 1004 0434 892B      		or r24,r25
 1005 0436 01F0      		breq .L72
 1006               	.LM151:
 1007 0438 1C82      		std Y+4,__zero_reg__
 1008               	.L72:
 1009               	.LBB111:
 1010               	.LBB112:
 1011               	.LM152:
 1012 043a 4FBF      		out __SREG__,r20
 1013               	.LM153:
 1014               	.LBE112:
 1015               	.LBE111:
 1016               	.LBE123:
 1017               	.LM154:
 1018 043c EE85      		ldd r30,Y+14
 1019 043e FF85      		ldd r31,Y+15
 1020 0440 3097      		sbiw r30,0
 1021 0442 01F0      		breq .L73
 1022               	.LM155:
 1023 0444 0995      		icall
 1024               	.LVL89:
 1025               	.L73:
 1026               	.LM156:
 1027 0446 8A18      		sub r8,r10
 1028 0448 9B08      		sbc r9,r11
 1029               	.LM157:
 1030 044a CE0C      		add r12,r14
 1031 044c DF1C      		adc r13,r15
 1032               	.LVL90:
 1033               	.L59:
 1034               	.LM158:
 1035 044e 8114      		cp r8,__zero_reg__
 1036 0450 9104      		cpc r9,__zero_reg__
 1037 0452 01F0      		breq .+2
 1038 0454 00C0      		rjmp .L74
 1039               	.LVL91:
 1040               	.L75:
 1041               	/* epilogue start */
 1042               	.LM159:
 1043 0456 DF91      		pop r29
 1044 0458 CF91      		pop r28
 1045               	.LVL92:
 1046 045a 1F91      		pop r17
 1047 045c 0F91      		pop r16
 1048               	.LVL93:
 1049 045e FF90      		pop r15
 1050 0460 EF90      		pop r14
 1051               	.LVL94:
 1052 0462 DF90      		pop r13
 1053 0464 CF90      		pop r12
 1054               	.LVL95:
 1055 0466 BF90      		pop r11
 1056 0468 AF90      		pop r10
 1057               	.LVL96:
 1058 046a 9F90      		pop r9
 1059 046c 8F90      		pop r8
 1060 046e 7F90      		pop r7
 1061 0470 6F90      		pop r6
 1062 0472 5F90      		pop r5
 1063 0474 4F90      		pop r4
 1064 0476 3F90      		pop r3
 1065 0478 0895      		ret
 1066               	.LFE27:
 1068               	.global	fifo_write_long
 1070               	fifo_write_long:
 1071               	.LFB21:
 1072               	.LM160:
 1073               	.LVL97:
 1074 047a DF93      		push r29
 1075 047c CF93      		push r28
 1076 047e 00D0      		rcall .
 1077 0480 00D0      		rcall .
 1078 0482 CDB7      		in r28,__SP_L__
 1079 0484 DEB7      		in r29,__SP_H__
 1080               	/* prologue: function */
 1081               	/* frame size = 4 */
 1082 0486 4983      		std Y+1,r20
 1083 0488 5A83      		std Y+2,r21
 1084 048a 6B83      		std Y+3,r22
 1085 048c 7C83      		std Y+4,r23
 1086               	.LM161:
 1087 048e BE01      		movw r22,r28
 1088 0490 6F5F      		subi r22,lo8(-(1))
 1089 0492 7F4F      		sbci r23,hi8(-(1))
 1090 0494 44E0      		ldi r20,lo8(4)
 1091 0496 50E0      		ldi r21,hi8(4)
 1092               	.LVL98:
 1093 0498 0E94 0000 		call fifo_write
 1094               	.LVL99:
 1095               	/* epilogue start */
 1096               	.LM162:
 1097 049c 0F90      		pop __tmp_reg__
 1098 049e 0F90      		pop __tmp_reg__
 1099 04a0 0F90      		pop __tmp_reg__
 1100 04a2 0F90      		pop __tmp_reg__
 1101 04a4 CF91      		pop r28
 1102 04a6 DF91      		pop r29
 1103 04a8 0895      		ret
 1104               	.LFE21:
 1106               	.global	fifo_write_int
 1108               	fifo_write_int:
 1109               	.LFB20:
 1110               	.LM163:
 1111               	.LVL100:
 1112 04aa DF93      		push r29
 1113 04ac CF93      		push r28
 1114 04ae 00D0      		rcall .
 1115 04b0 CDB7      		in r28,__SP_L__
 1116 04b2 DEB7      		in r29,__SP_H__
 1117               	/* prologue: function */
 1118               	/* frame size = 2 */
 1119 04b4 7A83      		std Y+2,r23
 1120 04b6 6983      		std Y+1,r22
 1121               	.LM164:
 1122 04b8 BE01      		movw r22,r28
 1123               	.LVL101:
 1124 04ba 6F5F      		subi r22,lo8(-(1))
 1125 04bc 7F4F      		sbci r23,hi8(-(1))
 1126 04be 42E0      		ldi r20,lo8(2)
 1127 04c0 50E0      		ldi r21,hi8(2)
 1128 04c2 0E94 0000 		call fifo_write
 1129               	.LVL102:
 1130               	/* epilogue start */
 1131               	.LM165:
 1132 04c6 0F90      		pop __tmp_reg__
 1133 04c8 0F90      		pop __tmp_reg__
 1134 04ca CF91      		pop r28
 1135 04cc DF91      		pop r29
 1136 04ce 0895      		ret
 1137               	.LFE20:
 1139               	.global	fifo_copy
 1141               	fifo_copy:
 1142               	.LFB14:
 1143               	.LM166:
 1144               	.LVL103:
 1145 04d0 CF92      		push r12
 1146 04d2 DF92      		push r13
 1147 04d4 EF92      		push r14
 1148 04d6 FF92      		push r15
 1149 04d8 0F93      		push r16
 1150 04da 1F93      		push r17
 1151 04dc CF93      		push r28
 1152 04de DF93      		push r29
 1153               	/* prologue: function */
 1154               	/* frame size = 0 */
 1155 04e0 6C01      		movw r12,r24
 1156 04e2 EB01      		movw r28,r22
 1157               	.LM167:
 1158 04e4 0097      		sbiw r24,0
 1159 04e6 01F4      		brne .L88
 1160               	.LVL104:
 1161 04e8 6115      		cp r22,__zero_reg__
 1162 04ea 7105      		cpc r23,__zero_reg__
 1163 04ec 01F4      		brne .+2
 1164 04ee 00C0      		rjmp .L97
 1165               	.LVL105:
 1166               	.LM168:
 1167 04f0 CB01      		movw r24,r22
 1168               	.LVL106:
 1169 04f2 0E94 0000 		call fifo_flush
 1170               	.LVL107:
 1171 04f6 00C0      		rjmp .L97
 1172               	.LVL108:
 1173               	.L88:
 1174               	.LM169:
 1175 04f8 6115      		cp r22,__zero_reg__
 1176 04fa 7105      		cpc r23,__zero_reg__
 1177 04fc 01F4      		brne .+2
 1178 04fe 00C0      		rjmp .L97
 1179               	.LVL109:
 1180               	.LBB124:
 1181               	.LM170:
 1182 0500 2FB7      		in r18,__SREG__
 1183               	.LVL110:
 1184               	.LBB125:
 1185               	.LBB126:
 1186               	.LM171:
 1187               	/* #APP */
 1188               	 ;  50 "c:/winavr-20100110/lib/gcc/../../avr/include/util/atomic.h" 1
 1189 0502 F894      		cli
 1190               	 ;  0 "" 2
 1191               	/* #NOAPP */
 1192               	.LBE126:
 1193               	.LBE125:
 1194               	.LM172:
 1195 0504 4A81      		ldd r20,Y+2
 1196 0506 5B81      		ldd r21,Y+3
 1197               	.LVL111:
 1198               	.LM173:
 1199 0508 FC01      		movw r30,r24
 1200 050a 8081      		ld r24,Z
 1201 050c 9181      		ldd r25,Z+1
 1202               	.LVL112:
 1203               	.LBB127:
 1204               	.LBB128:
 1205               	.LM174:
 1206 050e 2FBF      		out __SREG__,r18
 1207               	.LM175:
 1208 0510 8C01      		movw r16,r24
 1209               	.LVL113:
 1210 0512 4817      		cp r20,r24
 1211 0514 5907      		cpc r21,r25
 1212 0516 00F4      		brsh .L90
 1213               	.LVL114:
 1214 0518 8A01      		movw r16,r20
 1215               	.LVL115:
 1216               	.L90:
 1217               	.LBE128:
 1218               	.LBE127:
 1219               	.LBE124:
 1220               	.LM176:
 1221 051a EC84      		ldd r14,Y+12
 1222 051c FD84      		ldd r15,Y+13
 1223               	.LVL116:
 1224 051e 8885      		ldd r24,Y+8
 1225 0520 9985      		ldd r25,Y+9
 1226               	.LVL117:
 1227 0522 E81A      		sub r14,r24
 1228 0524 F90A      		sbc r15,r25
 1229               	.LM177:
 1230 0526 E016      		cp r14,r16
 1231 0528 F106      		cpc r15,r17
 1232 052a 00F0      		brlo .L91
 1233 052c EE24      		clr r14
 1234 052e FF24      		clr r15
 1235 0530 00C0      		rjmp .L92
 1236               	.L91:
 1237               	.LM178:
 1238 0532 6885      		ldd r22,Y+8
 1239 0534 7985      		ldd r23,Y+9
 1240 0536 C601      		movw r24,r12
 1241 0538 A701      		movw r20,r14
 1242 053a 0E94 0000 		call fifo_write
 1243               	.LVL118:
 1244               	.LM179:
 1245 053e 0E19      		sub r16,r14
 1246 0540 1F09      		sbc r17,r15
 1247               	.LM180:
 1248 0542 8A85      		ldd r24,Y+10
 1249 0544 9B85      		ldd r25,Y+11
 1250 0546 9987      		std Y+9,r25
 1251 0548 8887      		std Y+8,r24
 1252               	.LVL119:
 1253               	.L92:
 1254               	.LM181:
 1255 054a 0115      		cp r16,__zero_reg__
 1256 054c 1105      		cpc r17,__zero_reg__
 1257 054e 01F0      		breq .L93
 1258               	.LM182:
 1259 0550 6885      		ldd r22,Y+8
 1260 0552 7985      		ldd r23,Y+9
 1261 0554 C601      		movw r24,r12
 1262 0556 A801      		movw r20,r16
 1263 0558 0E94 0000 		call fifo_write
 1264               	.LVL120:
 1265               	.L93:
 1266               	.LM183:
 1267 055c 8885      		ldd r24,Y+8
 1268 055e 9985      		ldd r25,Y+9
 1269 0560 800F      		add r24,r16
 1270 0562 911F      		adc r25,r17
 1271 0564 9987      		std Y+9,r25
 1272 0566 8887      		std Y+8,r24
 1273               	.LM184:
 1274 0568 2885      		ldd r18,Y+8
 1275 056a 3985      		ldd r19,Y+9
 1276               	.LVL121:
 1277 056c 8C85      		ldd r24,Y+12
 1278 056e 9D85      		ldd r25,Y+13
 1279 0570 2817      		cp r18,r24
 1280 0572 3907      		cpc r19,r25
 1281 0574 01F4      		brne .L94
 1282               	.LM185:
 1283 0576 8A85      		ldd r24,Y+10
 1284 0578 9B85      		ldd r25,Y+11
 1285 057a 9987      		std Y+9,r25
 1286 057c 8887      		std Y+8,r24
 1287               	.L94:
 1288               	.LM186:
 1289 057e 9701      		movw r18,r14
 1290               	.LVL122:
 1291 0580 200F      		add r18,r16
 1292 0582 311F      		adc r19,r17
 1293               	.LBB129:
 1294               	.LM187:
 1295 0584 4FB7      		in r20,__SREG__
 1296               	.LVL123:
 1297               	.LBB130:
 1298               	.LBB131:
 1299               	.LM188:
 1300               	/* #APP */
 1301               	 ;  50 "c:/winavr-20100110/lib/gcc/../../avr/include/util/atomic.h" 1
 1302 0586 F894      		cli
 1303               	 ;  0 "" 2
 1304               	/* #NOAPP */
 1305               	.LBE131:
 1306               	.LBE130:
 1307               	.LM189:
 1308 0588 8881      		ld r24,Y
 1309 058a 9981      		ldd r25,Y+1
 1310 058c 820F      		add r24,r18
 1311 058e 931F      		adc r25,r19
 1312 0590 9983      		std Y+1,r25
 1313 0592 8883      		st Y,r24
 1314               	.LM190:
 1315 0594 8A81      		ldd r24,Y+2
 1316 0596 9B81      		ldd r25,Y+3
 1317 0598 821B      		sub r24,r18
 1318 059a 930B      		sbc r25,r19
 1319 059c 9B83      		std Y+3,r25
 1320 059e 8A83      		std Y+2,r24
 1321               	.LM191:
 1322 05a0 8A81      		ldd r24,Y+2
 1323 05a2 9B81      		ldd r25,Y+3
 1324 05a4 892B      		or r24,r25
 1325 05a6 01F4      		brne .L95
 1326               	.LM192:
 1327 05a8 81E0      		ldi r24,lo8(1)
 1328 05aa 8C83      		std Y+4,r24
 1329               	.L95:
 1330               	.LM193:
 1331 05ac 8881      		ld r24,Y
 1332 05ae 9981      		ldd r25,Y+1
 1333 05b0 892B      		or r24,r25
 1334 05b2 01F0      		breq .L96
 1335               	.LM194:
 1336 05b4 1D82      		std Y+5,__zero_reg__
 1337               	.L96:
 1338               	.LBB132:
 1339               	.LBB133:
 1340               	.LM195:
 1341 05b6 4FBF      		out __SREG__,r20
 1342               	.LM196:
 1343               	.LVL124:
 1344               	.L97:
 1345               	/* epilogue start */
 1346               	.LBE133:
 1347               	.LBE132:
 1348               	.LBE129:
 1349               	.LM197:
 1350 05b8 DF91      		pop r29
 1351 05ba CF91      		pop r28
 1352               	.LVL125:
 1353 05bc 1F91      		pop r17
 1354 05be 0F91      		pop r16
 1355 05c0 FF90      		pop r15
 1356 05c2 EF90      		pop r14
 1357               	.LVL126:
 1358 05c4 DF90      		pop r13
 1359 05c6 CF90      		pop r12
 1360               	.LVL127:
 1361 05c8 0895      		ret
 1362               	.LFE14:
 1364               	.global	fifo_preview
 1366               	fifo_preview:
 1367               	.LFB26:
 1368               	.LM198:
 1369               	.LVL128:
 1370 05ca AF92      		push r10
 1371 05cc BF92      		push r11
 1372 05ce CF92      		push r12
 1373 05d0 DF92      		push r13
 1374 05d2 EF92      		push r14
 1375 05d4 FF92      		push r15
 1376 05d6 0F93      		push r16
 1377 05d8 1F93      		push r17
 1378 05da CF93      		push r28
 1379 05dc DF93      		push r29
 1380               	/* prologue: function */
 1381               	/* frame size = 0 */
 1382 05de 5C01      		movw r10,r24
 1383 05e0 8B01      		movw r16,r22
 1384 05e2 7A01      		movw r14,r20
 1385               	.LM199:
 1386 05e4 DC01      		movw r26,r24
 1387 05e6 1896      		adiw r26,8
 1388 05e8 CD90      		ld r12,X+
 1389 05ea DC90      		ld r13,X
 1390 05ec 1997      		sbiw r26,8+1
 1391               	.LVL129:
 1392               	.L109:
 1393               	.LBB134:
 1394               	.LM200:
 1395 05ee 2FB7      		in r18,__SREG__
 1396               	.LBB135:
 1397               	.LBB136:
 1398               	.LM201:
 1399               	/* #APP */
 1400               	 ;  50 "c:/winavr-20100110/lib/gcc/../../avr/include/util/atomic.h" 1
 1401 05f0 F894      		cli
 1402               	 ;  0 "" 2
 1403               	/* #NOAPP */
 1404               	.LBE136:
 1405               	.LBE135:
 1406               	.LM202:
 1407 05f2 F501      		movw r30,r10
 1408 05f4 8281      		ldd r24,Z+2
 1409 05f6 9381      		ldd r25,Z+3
 1410               	.LBB137:
 1411               	.LBB138:
 1412               	.LM203:
 1413 05f8 2FBF      		out __SREG__,r18
 1414               	.LM204:
 1415               	.LBE138:
 1416               	.LBE137:
 1417               	.LBE134:
 1418               	.LM205:
 1419 05fa 8E15      		cp r24,r14
 1420 05fc 9F05      		cpc r25,r15
 1421 05fe 00F4      		brsh .L99
 1422 0600 D501      		movw r26,r10
 1423 0602 5096      		adiw r26,16
 1424 0604 ED91      		ld r30,X+
 1425 0606 FC91      		ld r31,X
 1426 0608 5197      		sbiw r26,16+1
 1427 060a 3097      		sbiw r30,0
 1428 060c 01F0      		breq .L109
 1429               	.LM206:
 1430 060e 0995      		icall
 1431               	.LVL130:
 1432 0610 00C0      		rjmp .L109
 1433               	.LVL131:
 1434               	.L99:
 1435               	.LM207:
 1436 0612 F501      		movw r30,r10
 1437 0614 C485      		ldd r28,Z+12
 1438 0616 D585      		ldd r29,Z+13
 1439               	.LVL132:
 1440 0618 CC19      		sub r28,r12
 1441 061a DD09      		sbc r29,r13
 1442               	.LM208:
 1443 061c CE15      		cp r28,r14
 1444 061e DF05      		cpc r29,r15
 1445 0620 00F4      		brsh .L101
 1446               	.LM209:
 1447 0622 0115      		cp r16,__zero_reg__
 1448 0624 1105      		cpc r17,__zero_reg__
 1449 0626 01F0      		breq .L102
 1450               	.LM210:
 1451 0628 C801      		movw r24,r16
 1452               	.LVL133:
 1453 062a B601      		movw r22,r12
 1454               	.LVL134:
 1455 062c AE01      		movw r20,r28
 1456               	.LVL135:
 1457 062e 0E94 0000 		call memcpy
 1458               	.LVL136:
 1459               	.L102:
 1460               	.LM211:
 1461 0632 EC1A      		sub r14,r28
 1462 0634 FD0A      		sbc r15,r29
 1463               	.LM212:
 1464 0636 D501      		movw r26,r10
 1465 0638 1A96      		adiw r26,10
 1466 063a CD90      		ld r12,X+
 1467 063c DC90      		ld r13,X
 1468 063e 1B97      		sbiw r26,10+1
 1469               	.LM213:
 1470 0640 0C0F      		add r16,r28
 1471 0642 1D1F      		adc r17,r29
 1472               	.LVL137:
 1473               	.L101:
 1474               	.LM214:
 1475 0644 E114      		cp r14,__zero_reg__
 1476 0646 F104      		cpc r15,__zero_reg__
 1477 0648 01F0      		breq .L104
 1478 064a 0115      		cp r16,__zero_reg__
 1479 064c 1105      		cpc r17,__zero_reg__
 1480 064e 01F0      		breq .L104
 1481               	.LM215:
 1482 0650 C801      		movw r24,r16
 1483               	.LVL138:
 1484 0652 B601      		movw r22,r12
 1485               	.LVL139:
 1486 0654 A701      		movw r20,r14
 1487               	.LVL140:
 1488 0656 0E94 0000 		call memcpy
 1489               	.LVL141:
 1490               	.L104:
 1491               	.LM216:
 1492 065a C801      		movw r24,r16
 1493               	.LVL142:
 1494               	/* epilogue start */
 1495 065c DF91      		pop r29
 1496 065e CF91      		pop r28
 1497               	.LVL143:
 1498 0660 1F91      		pop r17
 1499 0662 0F91      		pop r16
 1500 0664 FF90      		pop r15
 1501 0666 EF90      		pop r14
 1502               	.LVL144:
 1503 0668 DF90      		pop r13
 1504 066a CF90      		pop r12
 1505               	.LVL145:
 1506 066c BF90      		pop r11
 1507 066e AF90      		pop r10
 1508               	.LVL146:
 1509 0670 0895      		ret
 1510               	.LFE26:
 1512               	.global	fifo_read
 1514               	fifo_read:
 1515               	.LFB25:
 1516               	.LM217:
 1517               	.LVL147:
 1518 0672 3F92      		push r3
 1519 0674 4F92      		push r4
 1520 0676 5F92      		push r5
 1521 0678 6F92      		push r6
 1522 067a 7F92      		push r7
 1523 067c 8F92      		push r8
 1524 067e 9F92      		push r9
 1525 0680 AF92      		push r10
 1526 0682 BF92      		push r11
 1527 0684 CF92      		push r12
 1528 0686 DF92      		push r13
 1529 0688 EF92      		push r14
 1530 068a FF92      		push r15
 1531 068c 0F93      		push r16
 1532 068e 1F93      		push r17
 1533 0690 CF93      		push r28
 1534 0692 DF93      		push r29
 1535               	/* prologue: function */
 1536               	/* frame size = 0 */
 1537 0694 EC01      		movw r28,r24
 1538 0696 6B01      		movw r12,r22
 1539 0698 2A01      		movw r4,r20
 1540               	.LM218:
 1541 069a 6C84      		ldd r6,Y+12
 1542 069c 7D84      		ldd r7,Y+13
 1543 069e 8A85      		ldd r24,Y+10
 1544 06a0 9B85      		ldd r25,Y+11
 1545               	.LVL148:
 1546 06a2 681A      		sub r6,r24
 1547 06a4 790A      		sbc r7,r25
 1548 06a6 4A01      		movw r8,r20
 1549               	.LBB139:
 1550               	.LM219:
 1551 06a8 3324      		clr r3
 1552 06aa 3394      		inc r3
 1553 06ac 00C0      		rjmp .L111
 1554               	.LVL149:
 1555               	.L127:
 1556               	.LBE139:
 1557               	.LM220:
 1558 06ae 6414      		cp r6,r4
 1559 06b0 7504      		cpc r7,r5
 1560 06b2 00F0      		brlo .L134
 1561               	.LVL150:
 1562 06b4 00C0      		rjmp .L135
 1563               	.L114:
 1564               	.LM221:
 1565 06b6 E889      		ldd r30,Y+16
 1566 06b8 F989      		ldd r31,Y+17
 1567 06ba 3097      		sbiw r30,0
 1568 06bc 01F0      		breq .L134
 1569               	.LM222:
 1570 06be 0995      		icall
 1571               	.LVL151:
 1572               	.L134:
 1573               	.LM223:
 1574 06c0 8C81      		ldd r24,Y+4
 1575 06c2 8823      		tst r24
 1576 06c4 01F4      		brne .L114
 1577               	.LBB144:
 1578               	.LM224:
 1579 06c6 8FB7      		in r24,__SREG__
 1580               	.LVL152:
 1581               	.LBB145:
 1582               	.LBB146:
 1583               	.LM225:
 1584               	/* #APP */
 1585               	 ;  50 "c:/winavr-20100110/lib/gcc/../../avr/include/util/atomic.h" 1
 1586 06c8 F894      		cli
 1587               	 ;  0 "" 2
 1588               	/* #NOAPP */
 1589               	.LBE146:
 1590               	.LBE145:
 1591               	.LM226:
 1592 06ca AA80      		ldd r10,Y+2
 1593 06cc BB80      		ldd r11,Y+3
 1594               	.LBB147:
 1595               	.LBB148:
 1596               	.LM227:
 1597 06ce 8FBF      		out __SREG__,r24
 1598               	.LM228:
 1599               	.LBE148:
 1600               	.LBE147:
 1601               	.LBE144:
 1602               	.LM229:
 1603 06d0 8A14      		cp r8,r10
 1604 06d2 9B04      		cpc r9,r11
 1605 06d4 00F0      		brlo .L115
 1606               	.LVL153:
 1607 06d6 00C0      		rjmp .L116
 1608               	.LVL154:
 1609               	.L135:
 1610               	.LBB149:
 1611               	.LM230:
 1612 06d8 2FB7      		in r18,__SREG__
 1613               	.LBB150:
 1614               	.LBB151:
 1615               	.LM231:
 1616               	/* #APP */
 1617               	 ;  50 "c:/winavr-20100110/lib/gcc/../../avr/include/util/atomic.h" 1
 1618 06da F894      		cli
 1619               	 ;  0 "" 2
 1620               	/* #NOAPP */
 1621               	.LBE151:
 1622               	.LBE150:
 1623               	.LM232:
 1624 06dc 8A81      		ldd r24,Y+2
 1625 06de 9B81      		ldd r25,Y+3
 1626               	.LVL155:
 1627               	.LBB152:
 1628               	.LBB153:
 1629               	.LM233:
 1630 06e0 2FBF      		out __SREG__,r18
 1631               	.LM234:
 1632               	.LBE153:
 1633               	.LBE152:
 1634               	.LBE149:
 1635               	.LM235:
 1636 06e2 8815      		cp r24,r8
 1637 06e4 9905      		cpc r25,r9
 1638 06e6 00F4      		brsh .L115
 1639               	.LVL156:
 1640 06e8 E889      		ldd r30,Y+16
 1641 06ea F989      		ldd r31,Y+17
 1642 06ec 3097      		sbiw r30,0
 1643 06ee 01F0      		breq .L135
 1644               	.LM236:
 1645 06f0 0995      		icall
 1646               	.LVL157:
 1647 06f2 00C0      		rjmp .L135
 1648               	.LVL158:
 1649               	.L115:
 1650 06f4 5401      		movw r10,r8
 1651               	.L116:
 1652               	.LM237:
 1653 06f6 EC84      		ldd r14,Y+12
 1654 06f8 FD84      		ldd r15,Y+13
 1655 06fa 8885      		ldd r24,Y+8
 1656 06fc 9985      		ldd r25,Y+9
 1657               	.LVL159:
 1658 06fe E81A      		sub r14,r24
 1659 0700 F90A      		sbc r15,r25
 1660               	.LM238:
 1661 0702 EA14      		cp r14,r10
 1662 0704 FB04      		cpc r15,r11
 1663 0706 00F0      		brlo .L117
 1664 0708 8501      		movw r16,r10
 1665 070a EE24      		clr r14
 1666 070c FF24      		clr r15
 1667 070e 00C0      		rjmp .L118
 1668               	.LVL160:
 1669               	.L117:
 1670               	.LM239:
 1671 0710 C114      		cp r12,__zero_reg__
 1672 0712 D104      		cpc r13,__zero_reg__
 1673 0714 01F0      		breq .L119
 1674               	.LM240:
 1675 0716 2885      		ldd r18,Y+8
 1676 0718 3985      		ldd r19,Y+9
 1677               	.LVL161:
 1678 071a C601      		movw r24,r12
 1679               	.LVL162:
 1680 071c B901      		movw r22,r18
 1681               	.LVL163:
 1682 071e A701      		movw r20,r14
 1683               	.LVL164:
 1684 0720 0E94 0000 		call memcpy
 1685               	.LVL165:
 1686               	.L119:
 1687               	.LM241:
 1688 0724 8501      		movw r16,r10
 1689 0726 0E19      		sub r16,r14
 1690 0728 1F09      		sbc r17,r15
 1691               	.LVL166:
 1692               	.LM242:
 1693 072a 8A85      		ldd r24,Y+10
 1694 072c 9B85      		ldd r25,Y+11
 1695 072e 9987      		std Y+9,r25
 1696 0730 8887      		std Y+8,r24
 1697               	.LM243:
 1698 0732 C114      		cp r12,__zero_reg__
 1699 0734 D104      		cpc r13,__zero_reg__
 1700 0736 01F0      		breq .L118
 1701               	.LM244:
 1702 0738 CE0C      		add r12,r14
 1703 073a DF1C      		adc r13,r15
 1704               	.LVL167:
 1705               	.L118:
 1706               	.LM245:
 1707 073c 0115      		cp r16,__zero_reg__
 1708 073e 1105      		cpc r17,__zero_reg__
 1709 0740 01F0      		breq .L121
 1710 0742 C114      		cp r12,__zero_reg__
 1711 0744 D104      		cpc r13,__zero_reg__
 1712 0746 01F0      		breq .L121
 1713               	.LM246:
 1714 0748 2885      		ldd r18,Y+8
 1715 074a 3985      		ldd r19,Y+9
 1716               	.LVL168:
 1717 074c C601      		movw r24,r12
 1718               	.LVL169:
 1719 074e B901      		movw r22,r18
 1720               	.LVL170:
 1721 0750 A801      		movw r20,r16
 1722               	.LVL171:
 1723 0752 0E94 0000 		call memcpy
 1724               	.LVL172:
 1725               	.L121:
 1726               	.LM247:
 1727 0756 8885      		ldd r24,Y+8
 1728 0758 9985      		ldd r25,Y+9
 1729 075a 800F      		add r24,r16
 1730 075c 911F      		adc r25,r17
 1731 075e 9987      		std Y+9,r25
 1732 0760 8887      		std Y+8,r24
 1733               	.LM248:
 1734 0762 C114      		cp r12,__zero_reg__
 1735 0764 D104      		cpc r13,__zero_reg__
 1736 0766 01F0      		breq .L123
 1737               	.LVL173:
 1738               	.LM249:
 1739 0768 C00E      		add r12,r16
 1740 076a D11E      		adc r13,r17
 1741               	.LVL174:
 1742               	.L123:
 1743               	.LM250:
 1744 076c 2885      		ldd r18,Y+8
 1745 076e 3985      		ldd r19,Y+9
 1746               	.LVL175:
 1747 0770 8C85      		ldd r24,Y+12
 1748 0772 9D85      		ldd r25,Y+13
 1749 0774 2817      		cp r18,r24
 1750 0776 3907      		cpc r19,r25
 1751 0778 01F4      		brne .L124
 1752               	.LM251:
 1753 077a 8A85      		ldd r24,Y+10
 1754 077c 9B85      		ldd r25,Y+11
 1755 077e 9987      		std Y+9,r25
 1756 0780 8887      		std Y+8,r24
 1757               	.L124:
 1758               	.LM252:
 1759 0782 9801      		movw r18,r16
 1760 0784 2E0D      		add r18,r14
 1761 0786 3F1D      		adc r19,r15
 1762               	.LVL176:
 1763               	.LBB154:
 1764               	.LM253:
 1765 0788 4FB7      		in r20,__SREG__
 1766               	.LBB140:
 1767               	.LBB141:
 1768               	.LM254:
 1769               	/* #APP */
 1770               	 ;  50 "c:/winavr-20100110/lib/gcc/../../avr/include/util/atomic.h" 1
 1771 078a F894      		cli
 1772               	 ;  0 "" 2
 1773               	/* #NOAPP */
 1774               	.LBE141:
 1775               	.LBE140:
 1776               	.LM255:
 1777 078c 8881      		ld r24,Y
 1778 078e 9981      		ldd r25,Y+1
 1779 0790 820F      		add r24,r18
 1780 0792 931F      		adc r25,r19
 1781 0794 9983      		std Y+1,r25
 1782 0796 8883      		st Y,r24
 1783               	.LM256:
 1784 0798 8A81      		ldd r24,Y+2
 1785 079a 9B81      		ldd r25,Y+3
 1786 079c 821B      		sub r24,r18
 1787 079e 930B      		sbc r25,r19
 1788 07a0 9B83      		std Y+3,r25
 1789 07a2 8A83      		std Y+2,r24
 1790               	.LM257:
 1791 07a4 8A81      		ldd r24,Y+2
 1792 07a6 9B81      		ldd r25,Y+3
 1793 07a8 892B      		or r24,r25
 1794 07aa 01F4      		brne .L125
 1795               	.LM258:
 1796 07ac 3C82      		std Y+4,r3
 1797               	.L125:
 1798               	.LM259:
 1799 07ae 8881      		ld r24,Y
 1800 07b0 9981      		ldd r25,Y+1
 1801 07b2 892B      		or r24,r25
 1802 07b4 01F0      		breq .L126
 1803               	.LM260:
 1804 07b6 1D82      		std Y+5,__zero_reg__
 1805               	.L126:
 1806               	.LBE154:
 1807               	.LM261:
 1808 07b8 8A18      		sub r8,r10
 1809 07ba 9B08      		sbc r9,r11
 1810               	.LBB155:
 1811               	.LBB142:
 1812               	.LBB143:
 1813               	.LM262:
 1814 07bc 4FBF      		out __SREG__,r20
 1815               	.LM263:
 1816               	.LVL177:
 1817               	.L111:
 1818               	.LBE143:
 1819               	.LBE142:
 1820               	.LBE155:
 1821               	.LM264:
 1822 07be 8114      		cp r8,__zero_reg__
 1823 07c0 9104      		cpc r9,__zero_reg__
 1824 07c2 01F0      		breq .+2
 1825 07c4 00C0      		rjmp .L127
 1826               	.LM265:
 1827 07c6 C601      		movw r24,r12
 1828               	.LVL178:
 1829               	/* epilogue start */
 1830 07c8 DF91      		pop r29
 1831 07ca CF91      		pop r28
 1832               	.LVL179:
 1833 07cc 1F91      		pop r17
 1834 07ce 0F91      		pop r16
 1835 07d0 FF90      		pop r15
 1836 07d2 EF90      		pop r14
 1837               	.LVL180:
 1838 07d4 DF90      		pop r13
 1839 07d6 CF90      		pop r12
 1840 07d8 BF90      		pop r11
 1841 07da AF90      		pop r10
 1842               	.LVL181:
 1843 07dc 9F90      		pop r9
 1844 07de 8F90      		pop r8
 1845               	.LVL182:
 1846 07e0 7F90      		pop r7
 1847 07e2 6F90      		pop r6
 1848 07e4 5F90      		pop r5
 1849 07e6 4F90      		pop r4
 1850 07e8 3F90      		pop r3
 1851 07ea 0895      		ret
 1852               	.LFE25:
 1854               	.global	fifo_read_long
 1856               	fifo_read_long:
 1857               	.LFB17:
 1858               	.LM266:
 1859               	.LVL183:
 1860 07ec DF93      		push r29
 1861 07ee CF93      		push r28
 1862 07f0 00D0      		rcall .
 1863 07f2 00D0      		rcall .
 1864 07f4 CDB7      		in r28,__SP_L__
 1865 07f6 DEB7      		in r29,__SP_H__
 1866               	/* prologue: function */
 1867               	/* frame size = 4 */
 1868               	.LM267:
 1869 07f8 BE01      		movw r22,r28
 1870 07fa 6F5F      		subi r22,lo8(-(1))
 1871 07fc 7F4F      		sbci r23,hi8(-(1))
 1872 07fe 44E0      		ldi r20,lo8(4)
 1873 0800 50E0      		ldi r21,hi8(4)
 1874 0802 0E94 0000 		call fifo_read
 1875               	.LVL184:
 1876 0806 6981      		ldd r22,Y+1
 1877               	.LVL185:
 1878 0808 7A81      		ldd r23,Y+2
 1879               	.LVL186:
 1880               	.LM268:
 1881 080a 8B81      		ldd r24,Y+3
 1882               	.LVL187:
 1883 080c 9C81      		ldd r25,Y+4
 1884               	.LVL188:
 1885               	/* epilogue start */
 1886 080e 0F90      		pop __tmp_reg__
 1887 0810 0F90      		pop __tmp_reg__
 1888 0812 0F90      		pop __tmp_reg__
 1889 0814 0F90      		pop __tmp_reg__
 1890 0816 CF91      		pop r28
 1891 0818 DF91      		pop r29
 1892 081a 0895      		ret
 1893               	.LFE17:
 1895               	.global	fifo_read_int
 1897               	fifo_read_int:
 1898               	.LFB16:
 1899               	.LM269:
 1900               	.LVL189:
 1901 081c DF93      		push r29
 1902 081e CF93      		push r28
 1903 0820 00D0      		rcall .
 1904 0822 CDB7      		in r28,__SP_L__
 1905 0824 DEB7      		in r29,__SP_H__
 1906               	/* prologue: function */
 1907               	/* frame size = 2 */
 1908               	.LM270:
 1909 0826 BE01      		movw r22,r28
 1910 0828 6F5F      		subi r22,lo8(-(1))
 1911 082a 7F4F      		sbci r23,hi8(-(1))
 1912 082c 42E0      		ldi r20,lo8(2)
 1913 082e 50E0      		ldi r21,hi8(2)
 1914 0830 0E94 0000 		call fifo_read
 1915               	.LVL190:
 1916               	.LM271:
 1917 0834 8981      		ldd r24,Y+1
 1918               	.LVL191:
 1919 0836 9A81      		ldd r25,Y+2
 1920               	.LVL192:
 1921               	/* epilogue start */
 1922 0838 0F90      		pop __tmp_reg__
 1923 083a 0F90      		pop __tmp_reg__
 1924 083c CF91      		pop r28
 1925 083e DF91      		pop r29
 1926 0840 0895      		ret
 1927               	.LFE16:
 1929               	.global	fifo_init
 1931               	fifo_init:
 1932               	.LFB24:
 1933               	.LM272:
 1934               	.LVL193:
 1935 0842 AF92      		push r10
 1936 0844 BF92      		push r11
 1937 0846 CF92      		push r12
 1938 0848 DF92      		push r13
 1939 084a EF92      		push r14
 1940 084c FF92      		push r15
 1941 084e 0F93      		push r16
 1942               	.LVL194:
 1943 0850 1F93      		push r17
 1944 0852 CF93      		push r28
 1945 0854 DF93      		push r29
 1946               	/* prologue: function */
 1947               	/* frame size = 0 */
 1948 0856 EC01      		movw r28,r24
 1949 0858 7B01      		movw r14,r22
 1950 085a 6A01      		movw r12,r20
 1951 085c 5901      		movw r10,r18
 1952               	.LM273:
 1953 085e 0115      		cp r16,__zero_reg__
 1954 0860 1105      		cpc r17,__zero_reg__
 1955               	.LVL195:
 1956 0862 01F4      		brne .L141
 1957               	.LVL196:
 1958               	.LM274:
 1959 0864 CB01      		movw r24,r22
 1960 0866 0E94 0000 		call malloc
 1961 086a 9B87      		std Y+11,r25
 1962 086c 8A87      		std Y+10,r24
 1963 086e 8A85      		ldd r24,Y+10
 1964 0870 9B85      		ldd r25,Y+11
 1965 0872 892B      		or r24,r25
 1966 0874 01F4      		brne .L142
 1967               	.L145:
 1968 0876 00C0      		rjmp .L145
 1969               	.LVL197:
 1970               	.L141:
 1971               	.LM275:
 1972 0878 1B87      		std Y+11,r17
 1973 087a 0A87      		std Y+10,r16
 1974               	.L142:
 1975               	.LM276:
 1976 087c 8A85      		ldd r24,Y+10
 1977 087e 9B85      		ldd r25,Y+11
 1978 0880 8E0D      		add r24,r14
 1979 0882 9F1D      		adc r25,r15
 1980 0884 9D87      		std Y+13,r25
 1981 0886 8C87      		std Y+12,r24
 1982               	.LM277:
 1983 0888 DF86      		std Y+15,r13
 1984 088a CE86      		std Y+14,r12
 1985               	.LM278:
 1986 088c B98A      		std Y+17,r11
 1987 088e A88A      		std Y+16,r10
 1988               	.LM279:
 1989 0890 CE01      		movw r24,r28
 1990 0892 0E94 0000 		call fifo_flush
 1991               	/* epilogue start */
 1992               	.LM280:
 1993 0896 DF91      		pop r29
 1994 0898 CF91      		pop r28
 1995               	.LVL198:
 1996 089a 1F91      		pop r17
 1997 089c 0F91      		pop r16
 1998               	.LVL199:
 1999 089e FF90      		pop r15
 2000 08a0 EF90      		pop r14
 2001               	.LVL200:
 2002 08a2 DF90      		pop r13
 2003 08a4 CF90      		pop r12
 2004               	.LVL201:
 2005 08a6 BF90      		pop r11
 2006 08a8 AF90      		pop r10
 2007               	.LVL202:
 2008 08aa 0895      		ret
 2009               	.LFE24:
 2011               	.global	fifo_write_string_P
 2013               	fifo_write_string_P:
 2014               	.LFB23:
 2015               	.LM281:
 2016               	.LVL203:
 2017 08ac EF92      		push r14
 2018 08ae FF92      		push r15
 2019 08b0 0F93      		push r16
 2020 08b2 1F93      		push r17
 2021               	/* prologue: function */
 2022               	/* frame size = 0 */
 2023 08b4 7C01      		movw r14,r24
 2024 08b6 8B01      		movw r16,r22
 2025               	.LM282:
 2026 08b8 CB01      		movw r24,r22
 2027               	.LVL204:
 2028 08ba 0E94 0000 		call strlen_P
 2029               	.LVL205:
 2030 08be AC01      		movw r20,r24
 2031 08c0 C701      		movw r24,r14
 2032 08c2 B801      		movw r22,r16
 2033 08c4 0E94 0000 		call fifo_write_P
 2034               	/* epilogue start */
 2035               	.LM283:
 2036 08c8 1F91      		pop r17
 2037 08ca 0F91      		pop r16
 2038               	.LVL206:
 2039 08cc FF90      		pop r15
 2040 08ce EF90      		pop r14
 2041               	.LVL207:
 2042 08d0 0895      		ret
 2043               	.LFE23:
 2045               	.global	fifo_write_string
 2047               	fifo_write_string:
 2048               	.LFB22:
 2049               	.LM284:
 2050               	.LVL208:
 2051               	/* prologue: function */
 2052               	/* frame size = 0 */
 2053               	.LM285:
 2054 08d2 DB01      		movw r26,r22
 2055 08d4 0D90      		ld __tmp_reg__,X+
 2056 08d6 0020      		tst __tmp_reg__
 2057 08d8 01F4      		brne .-6
 2058 08da 1197      		sbiw r26,1
 2059 08dc A61B      		sub r26,r22
 2060 08de B70B      		sbc r27,r23
 2061 08e0 AD01      		movw r20,r26
 2062 08e2 0E94 0000 		call fifo_write
 2063               	.LVL209:
 2064               	/* epilogue start */
 2065               	.LM286:
 2066 08e6 0895      		ret
 2067               	.LFE22:
 2069               		.comm uart_isr_nest,1,1
 2214               	.Letext0:
DEFINED SYMBOLS
                            *ABS*:00000000 fifo.c
C:\DOCUME~1\Mick\LOCALS~1\Temp/cc3U4qx9.s:2      *ABS*:0000003f __SREG__
C:\DOCUME~1\Mick\LOCALS~1\Temp/cc3U4qx9.s:3      *ABS*:0000003e __SP_H__
C:\DOCUME~1\Mick\LOCALS~1\Temp/cc3U4qx9.s:4      *ABS*:0000003d __SP_L__
C:\DOCUME~1\Mick\LOCALS~1\Temp/cc3U4qx9.s:5      *ABS*:00000034 __CCP__
C:\DOCUME~1\Mick\LOCALS~1\Temp/cc3U4qx9.s:6      *ABS*:00000000 __tmp_reg__
C:\DOCUME~1\Mick\LOCALS~1\Temp/cc3U4qx9.s:7      *ABS*:00000001 __zero_reg__
C:\DOCUME~1\Mick\LOCALS~1\Temp/cc3U4qx9.s:18     .text:00000000 fifo_read_char
C:\DOCUME~1\Mick\LOCALS~1\Temp/cc3U4qx9.s:130    .text:00000076 fifo_read_string
C:\DOCUME~1\Mick\LOCALS~1\Temp/cc3U4qx9.s:215    .text:000000e2 fifo_write_char
C:\DOCUME~1\Mick\LOCALS~1\Temp/cc3U4qx9.s:342    .text:0000016a fifo_flush
C:\DOCUME~1\Mick\LOCALS~1\Temp/cc3U4qx9.s:406    .text:0000019e fifo_write_P
C:\DOCUME~1\Mick\LOCALS~1\Temp/cc3U4qx9.s:735    .text:0000030a fifo_write
C:\DOCUME~1\Mick\LOCALS~1\Temp/cc3U4qx9.s:1070   .text:0000047a fifo_write_long
C:\DOCUME~1\Mick\LOCALS~1\Temp/cc3U4qx9.s:1108   .text:000004aa fifo_write_int
C:\DOCUME~1\Mick\LOCALS~1\Temp/cc3U4qx9.s:1141   .text:000004d0 fifo_copy
C:\DOCUME~1\Mick\LOCALS~1\Temp/cc3U4qx9.s:1366   .text:000005ca fifo_preview
C:\DOCUME~1\Mick\LOCALS~1\Temp/cc3U4qx9.s:1514   .text:00000672 fifo_read
C:\DOCUME~1\Mick\LOCALS~1\Temp/cc3U4qx9.s:1856   .text:000007ec fifo_read_long
C:\DOCUME~1\Mick\LOCALS~1\Temp/cc3U4qx9.s:1897   .text:0000081c fifo_read_int
C:\DOCUME~1\Mick\LOCALS~1\Temp/cc3U4qx9.s:1931   .text:00000842 fifo_init
C:\DOCUME~1\Mick\LOCALS~1\Temp/cc3U4qx9.s:2013   .text:000008ac fifo_write_string_P
C:\DOCUME~1\Mick\LOCALS~1\Temp/cc3U4qx9.s:2047   .text:000008d2 fifo_write_string
                            *COM*:00000001 uart_isr_nest

UNDEFINED SYMBOLS
memcpy_P
memcpy
malloc
strlen_P
__do_clear_bss
