Archive member included because of file (symbol)

c:/winavr-20100110/bin/../lib/gcc/avr/4.3.3/avr51\libgcc.a(_mulsi3.o)
                              misc.o (__mulsi3)
c:/winavr-20100110/bin/../lib/gcc/avr/4.3.3/avr51\libgcc.a(_udivmodhi4.o)
                              FAT32.o (__udivmodhi4)
c:/winavr-20100110/bin/../lib/gcc/avr/4.3.3/avr51\libgcc.a(_udivmodsi4.o)
                              misc.o (__udivmodsi4)
c:/winavr-20100110/bin/../lib/gcc/avr/4.3.3/avr51\libgcc.a(_exit.o)
                              c:/winavr-20100110/bin/../lib/gcc/avr/4.3.3/../../../../avr/lib/avr51/crtm1281.o (exit)
c:/winavr-20100110/bin/../lib/gcc/avr/4.3.3/avr51\libgcc.a(_clear_bss.o)
                              main.o (__do_clear_bss)
c:/winavr-20100110/bin/../lib/gcc/avr/4.3.3/../../../../avr/lib/avr51\libc.a(malloc.o)
                              fifo.o (malloc)
c:/winavr-20100110/bin/../lib/gcc/avr/4.3.3/../../../../avr/lib/avr51\libc.a(atoi.o)
                              console.o (atoi)
c:/winavr-20100110/bin/../lib/gcc/avr/4.3.3/../../../../avr/lib/avr51\libc.a(atol.o)
                              console.o (atol)
c:/winavr-20100110/bin/../lib/gcc/avr/4.3.3/../../../../avr/lib/avr51\libc.a(memcmp_P.o)
                              FAT32.o (memcmp_P)
c:/winavr-20100110/bin/../lib/gcc/avr/4.3.3/../../../../avr/lib/avr51\libc.a(memcpy_P.o)
                              fifo.o (memcpy_P)
c:/winavr-20100110/bin/../lib/gcc/avr/4.3.3/../../../../avr/lib/avr51\libc.a(strcmp_P.o)
                              FAT32.o (strcmp_P)
c:/winavr-20100110/bin/../lib/gcc/avr/4.3.3/../../../../avr/lib/avr51\libc.a(strcpy_P.o)
                              main.o (strcpy_P)
c:/winavr-20100110/bin/../lib/gcc/avr/4.3.3/../../../../avr/lib/avr51\libc.a(strlen_P.o)
                              fifo.o (strlen_P)
c:/winavr-20100110/bin/../lib/gcc/avr/4.3.3/../../../../avr/lib/avr51\libc.a(memcmp.o)
                              FAT32.o (memcmp)
c:/winavr-20100110/bin/../lib/gcc/avr/4.3.3/../../../../avr/lib/avr51\libc.a(memcpy.o)
                              FAT32.o (memcpy)
c:/winavr-20100110/bin/../lib/gcc/avr/4.3.3/../../../../avr/lib/avr51\libc.a(memset.o)
                              console.o (memset)
c:/winavr-20100110/bin/../lib/gcc/avr/4.3.3/../../../../avr/lib/avr51\libc.a(itoa.o)
                              console.o (itoa)
c:/winavr-20100110/bin/../lib/gcc/avr/4.3.3/../../../../avr/lib/avr51\libc.a(ltoa.o)
                              console.o (ltoa)
c:/winavr-20100110/bin/../lib/gcc/avr/4.3.3/../../../../avr/lib/avr51\libc.a(mulsi10.o)
                              c:/winavr-20100110/bin/../lib/gcc/avr/4.3.3/../../../../avr/lib/avr51\libc.a(atol.o) (__mulsi_const_10)
c:/winavr-20100110/bin/../lib/gcc/avr/4.3.3/../../../../avr/lib/avr51\libc.a(mul10.o)
                              c:/winavr-20100110/bin/../lib/gcc/avr/4.3.3/../../../../avr/lib/avr51\libc.a(atoi.o) (__mulhi_const_10)
c:/winavr-20100110/bin/../lib/gcc/avr/4.3.3/../../../../avr/lib/avr51\libc.a(strrev.o)
                              c:/winavr-20100110/bin/../lib/gcc/avr/4.3.3/../../../../avr/lib/avr51\libc.a(itoa.o) (strrev)

Allocating common symbols
Common symbol       size              file

fat_date_time       0x6               FAT32.o
audio_swapflag      0x1               audio.o
__brkval            0x2               c:/winavr-20100110/bin/../lib/gcc/avr/4.3.3/../../../../avr/lib/avr51\libc.a(malloc.o)
copy_buffer         0x200             console.o
uart1_fifo_rx_ptr   0x2               uart128.o
audio_buffer        0x2               audio.o
uart0_fifo_tx       0x12              uart128.o
__flp               0x2               c:/winavr-20100110/bin/../lib/gcc/avr/4.3.3/../../../../avr/lib/avr51\libc.a(malloc.o)
uart0_fifo_rx_ptr   0x2               uart128.o
console_vars        0x17              console.o
debug_text          0x1e              main.o
uart1_fifo_tx       0x12              uart128.o

Memory Configuration

Name             Origin             Length             Attributes
text             0x00000000         0x00020000         xr
data             0x00800060         0x0000ffa0         rw !x
eeprom           0x00810000         0x00010000         rw !x
fuse             0x00820000         0x00000400         rw !x
lock             0x00830000         0x00000400         rw !x
signature        0x00840000         0x00000400         rw !x
*default*        0x00000000         0xffffffff

Linker script and memory map

Address of section .data set to 0x800200
LOAD c:/winavr-20100110/bin/../lib/gcc/avr/4.3.3/../../../../avr/lib/avr51/crtm1281.o
LOAD main.o
LOAD console.o
LOAD SD.o
LOAD misc.o
LOAD FAT32.o
LOAD audio.o
LOAD uart128.o
LOAD fifo.o
                0x0080ffff                __heap_end = 0x80ffff
LOAD c:/winavr-20100110/bin/../lib/gcc/avr/4.3.3/../../../../avr/lib/avr51\libm.a
LOAD c:/winavr-20100110/bin/../lib/gcc/avr/4.3.3/avr51\libgcc.a
LOAD c:/winavr-20100110/bin/../lib/gcc/avr/4.3.3/../../../../avr/lib/avr51\libc.a
LOAD c:/winavr-20100110/bin/../lib/gcc/avr/4.3.3/avr51\libgcc.a

.hash
 *(.hash)

.dynsym
 *(.dynsym)

.dynstr
 *(.dynstr)

.gnu.version
 *(.gnu.version)

.gnu.version_d
 *(.gnu.version_d)

.gnu.version_r
 *(.gnu.version_r)

.rel.init
 *(.rel.init)

.rela.init
 *(.rela.init)

.rel.text
 *(.rel.text)
 *(.rel.text.*)
 *(.rel.gnu.linkonce.t*)

.rela.text
 *(.rela.text)
 *(.rela.text.*)
 *(.rela.gnu.linkonce.t*)

.rel.fini
 *(.rel.fini)

.rela.fini
 *(.rela.fini)

.rel.rodata
 *(.rel.rodata)
 *(.rel.rodata.*)
 *(.rel.gnu.linkonce.r*)

.rela.rodata
 *(.rela.rodata)
 *(.rela.rodata.*)
 *(.rela.gnu.linkonce.r*)

.rel.data
 *(.rel.data)
 *(.rel.data.*)
 *(.rel.gnu.linkonce.d*)

.rela.data
 *(.rela.data)
 *(.rela.data.*)
 *(.rela.gnu.linkonce.d*)

.rel.ctors
 *(.rel.ctors)

.rela.ctors
 *(.rela.ctors)

.rel.dtors
 *(.rel.dtors)

.rela.dtors
 *(.rela.dtors)

.rel.got
 *(.rel.got)

.rela.got
 *(.rela.got)

.rel.bss
 *(.rel.bss)

.rela.bss
 *(.rela.bss)

.rel.plt
 *(.rel.plt)

.rela.plt
 *(.rela.plt)

.text           0x00000000     0x831c
 *(.vectors)
 .vectors       0x00000000       0xcc c:/winavr-20100110/bin/../lib/gcc/avr/4.3.3/../../../../avr/lib/avr51/crtm1281.o
                0x00000000                __vectors
                0x00000000                __vector_default
 *(.vectors)
 *(.progmem.gcc*)
 *(.progmem*)
 .progmem.data  0x000000cc       0x4d main.o
 .progmem.data  0x00000119      0x3c4 console.o
 .progmem.data  0x000004dd      0x1b0 SD.o
 .progmem.data  0x0000068d      0xef1 FAT32.o
                0x0000157e                . = ALIGN (0x2)
                0x0000157e                __trampolines_start = .
 *(.trampolines)
 .trampolines   0x0000157e        0x0 linker stubs
 *(.trampolines*)
                0x0000157e                __trampolines_end = .
 *(.jumptables)
 *(.jumptables*)
 *(.lowtext)
 *(.lowtext*)
                0x0000157e                __ctors_start = .
 *(.ctors)
                0x0000157e                __ctors_end = .
                0x0000157e                __dtors_start = .
 *(.dtors)
                0x0000157e                __dtors_end = .
 SORT(*)(.ctors)
 SORT(*)(.dtors)
 *(.init0)
 .init0         0x0000157e        0x0 c:/winavr-20100110/bin/../lib/gcc/avr/4.3.3/../../../../avr/lib/avr51/crtm1281.o
                0x0000157e                __init
 *(.init0)
 *(.init1)
 *(.init1)
 *(.init2)
 .init2         0x0000157e        0xc c:/winavr-20100110/bin/../lib/gcc/avr/4.3.3/../../../../avr/lib/avr51/crtm1281.o
 *(.init2)
 *(.init3)
 .init3         0x0000158a       0x12 main.o
                0x0000158a                get_mcusr
 *(.init3)
 *(.init4)
 .init4         0x0000159c       0x1a c:/winavr-20100110/bin/../lib/gcc/avr/4.3.3/../../../../avr/lib/avr51/crtm1281.o
                0x0000159c                __do_copy_data
 .init4         0x000015b6       0x10 c:/winavr-20100110/bin/../lib/gcc/avr/4.3.3/avr51\libgcc.a(_clear_bss.o)
                0x000015b6                __do_clear_bss
 *(.init4)
 *(.init5)
 *(.init5)
 *(.init6)
 *(.init6)
 *(.init7)
 *(.init7)
 *(.init8)
 *(.init8)
 *(.init9)
 .init9         0x000015c6        0x8 c:/winavr-20100110/bin/../lib/gcc/avr/4.3.3/../../../../avr/lib/avr51/crtm1281.o
 *(.init9)
 *(.text)
 .text          0x000015ce        0x4 c:/winavr-20100110/bin/../lib/gcc/avr/4.3.3/../../../../avr/lib/avr51/crtm1281.o
                0x000015ce                __vector_38
                0x000015ce                __vector_22
                0x000015ce                __vector_28
                0x000015ce                __vector_1
                0x000015ce                __vector_32
                0x000015ce                __vector_34
                0x000015ce                __vector_24
                0x000015ce                __vector_12
                0x000015ce                __vector_46
                0x000015ce                __bad_interrupt
                0x000015ce                __vector_6
                0x000015ce                __vector_31
                0x000015ce                __vector_35
                0x000015ce                __vector_39
                0x000015ce                __vector_3
                0x000015ce                __vector_30
                0x000015ce                __vector_45
                0x000015ce                __vector_11
                0x000015ce                __vector_13
                0x000015ce                __vector_17
                0x000015ce                __vector_19
                0x000015ce                __vector_7
                0x000015ce                __vector_49
                0x000015ce                __vector_41
                0x000015ce                __vector_43
                0x000015ce                __vector_27
                0x000015ce                __vector_5
                0x000015ce                __vector_33
                0x000015ce                __vector_47
                0x000015ce                __vector_4
                0x000015ce                __vector_44
                0x000015ce                __vector_9
                0x000015ce                __vector_2
                0x000015ce                __vector_21
                0x000015ce                __vector_15
                0x000015ce                __vector_29
                0x000015ce                __vector_40
                0x000015ce                __vector_8
                0x000015ce                __vector_48
                0x000015ce                __vector_14
                0x000015ce                __vector_10
                0x000015ce                __vector_50
                0x000015ce                __vector_16
                0x000015ce                __vector_18
                0x000015ce                __vector_20
                0x000015ce                __vector_42
 .text          0x000015d2      0x10e main.o
                0x000015d2                main_fly
                0x000015da                hardware_name
                0x000015d4                hardware_id
                0x000015f4                main
 .text          0x000016e0      0xc08 console.o
                0x0000190e                console_main
                0x000022c6                console_init
                0x000016e0                console_timer
 .text          0x000022e8      0x9d6 SD.o
                0x00002b5c                sd_block_read
                0x000027de                sd_block_write
                0x000022e8                sd_init
                0x000023c8                sd_initcard
 .text          0x00002cbe      0x282 misc.o
                0x00002cbe                hex2ascii
                0x00002ed0                ascii_long
                0x00002d2c                ascii_ulong
 .text          0x00002f40     0x3e42 FAT32.o
                0x00005362                fat_file_append
                0x00004868                fat_file_delete
                0x0000571e                fat_file_read
                0x00003ca4                fat_debug_fat
                0x00006cac                fat_directory_change
                0x000049c8                fat_directory_list
                0x0000334a                fat_init
                0x00006a34                fat_directory_delete
                0x000066a8                fat_file_create
                0x000063f0                fat_directory_create
                0x000056fa                fat_file_write
                0x00006838                fat_file_locate
                0x00004c9c                fat_debug_dir
 .text          0x00006d82       0xec audio.o
                0x00006e00                audio_init
                0x00006d82                __vector_23
 .text          0x00006e6e      0x6e8 uart128.o
                0x00006e7a                uart1_isrtx_enable
                0x000073e8                uart0_tx_stream
                0x00007456                uart1_init
                0x00006e86                __vector_25
                0x000074d6                uart0_init
                0x00006e6e                uart0_isrtx_enable
                0x000071a4                __vector_37
                0x0000730c                uart0_rx_stream
                0x00006f98                __vector_36
                0x000070aa                __vector_26
                0x0000729e                uart1_rx_stream
                0x0000737a                uart1_tx_stream
 .text          0x00007556      0x8e8 fifo.o
                0x00007e28                fifo_write_string
                0x00007556                fifo_read_char
                0x00007e02                fifo_write_string_P
                0x00007638                fifo_write_char
                0x00007bc8                fifo_read
                0x00007d98                fifo_init
                0x00007d72                fifo_read_int
                0x000075cc                fifo_read_string
                0x00007a26                fifo_copy
                0x000079d0                fifo_write_long
                0x00007a00                fifo_write_int
                0x000076f4                fifo_write_P
                0x00007860                fifo_write
                0x00007d42                fifo_read_long
                0x00007b20                fifo_preview
                0x000076c0                fifo_flush
 .text          0x00007e3e        0x0 c:/winavr-20100110/bin/../lib/gcc/avr/4.3.3/avr51\libgcc.a(_mulsi3.o)
 .text          0x00007e3e        0x0 c:/winavr-20100110/bin/../lib/gcc/avr/4.3.3/avr51\libgcc.a(_udivmodhi4.o)
 .text          0x00007e3e        0x0 c:/winavr-20100110/bin/../lib/gcc/avr/4.3.3/avr51\libgcc.a(_udivmodsi4.o)
 .text          0x00007e3e        0x0 c:/winavr-20100110/bin/../lib/gcc/avr/4.3.3/avr51\libgcc.a(_exit.o)
 .text          0x00007e3e        0x0 c:/winavr-20100110/bin/../lib/gcc/avr/4.3.3/avr51\libgcc.a(_clear_bss.o)
 .text          0x00007e3e        0x0 c:/winavr-20100110/bin/../lib/gcc/avr/4.3.3/../../../../avr/lib/avr51\libc.a(malloc.o)
 .text          0x00007e3e        0x0 c:/winavr-20100110/bin/../lib/gcc/avr/4.3.3/../../../../avr/lib/avr51\libc.a(atoi.o)
 .text          0x00007e3e        0x0 c:/winavr-20100110/bin/../lib/gcc/avr/4.3.3/../../../../avr/lib/avr51\libc.a(atol.o)
 .text          0x00007e3e        0x0 c:/winavr-20100110/bin/../lib/gcc/avr/4.3.3/../../../../avr/lib/avr51\libc.a(memcmp_P.o)
 .text          0x00007e3e        0x0 c:/winavr-20100110/bin/../lib/gcc/avr/4.3.3/../../../../avr/lib/avr51\libc.a(memcpy_P.o)
 .text          0x00007e3e        0x0 c:/winavr-20100110/bin/../lib/gcc/avr/4.3.3/../../../../avr/lib/avr51\libc.a(strcmp_P.o)
 .text          0x00007e3e        0x0 c:/winavr-20100110/bin/../lib/gcc/avr/4.3.3/../../../../avr/lib/avr51\libc.a(strcpy_P.o)
 .text          0x00007e3e        0x0 c:/winavr-20100110/bin/../lib/gcc/avr/4.3.3/../../../../avr/lib/avr51\libc.a(strlen_P.o)
 .text          0x00007e3e        0x0 c:/winavr-20100110/bin/../lib/gcc/avr/4.3.3/../../../../avr/lib/avr51\libc.a(memcmp.o)
 .text          0x00007e3e        0x0 c:/winavr-20100110/bin/../lib/gcc/avr/4.3.3/../../../../avr/lib/avr51\libc.a(memcpy.o)
 .text          0x00007e3e        0x0 c:/winavr-20100110/bin/../lib/gcc/avr/4.3.3/../../../../avr/lib/avr51\libc.a(memset.o)
 .text          0x00007e3e        0x0 c:/winavr-20100110/bin/../lib/gcc/avr/4.3.3/../../../../avr/lib/avr51\libc.a(itoa.o)
 .text          0x00007e3e        0x0 c:/winavr-20100110/bin/../lib/gcc/avr/4.3.3/../../../../avr/lib/avr51\libc.a(ltoa.o)
 .text          0x00007e3e        0x0 c:/winavr-20100110/bin/../lib/gcc/avr/4.3.3/../../../../avr/lib/avr51\libc.a(mulsi10.o)
 .text          0x00007e3e        0x0 c:/winavr-20100110/bin/../lib/gcc/avr/4.3.3/../../../../avr/lib/avr51\libc.a(mul10.o)
 .text          0x00007e3e        0x0 c:/winavr-20100110/bin/../lib/gcc/avr/4.3.3/../../../../avr/lib/avr51\libc.a(strrev.o)
                0x00007e3e                . = ALIGN (0x2)
 *(.text.*)
 .text.libgcc   0x00007e3e       0x3e c:/winavr-20100110/bin/../lib/gcc/avr/4.3.3/avr51\libgcc.a(_mulsi3.o)
                0x00007e3e                __mulsi3
 .text.libgcc   0x00007e7c       0x28 c:/winavr-20100110/bin/../lib/gcc/avr/4.3.3/avr51\libgcc.a(_udivmodhi4.o)
                0x00007e7c                __udivmodhi4
 .text.libgcc   0x00007ea4       0x44 c:/winavr-20100110/bin/../lib/gcc/avr/4.3.3/avr51\libgcc.a(_udivmodsi4.o)
                0x00007ea4                __udivmodsi4
 .text.libgcc   0x00007ee8        0x0 c:/winavr-20100110/bin/../lib/gcc/avr/4.3.3/avr51\libgcc.a(_exit.o)
 .text.libgcc   0x00007ee8        0x0 c:/winavr-20100110/bin/../lib/gcc/avr/4.3.3/avr51\libgcc.a(_clear_bss.o)
 .text.avr-libc
                0x00007ee8      0x20a c:/winavr-20100110/bin/../lib/gcc/avr/4.3.3/../../../../avr/lib/avr51\libc.a(malloc.o)
                0x00007ee8                malloc
                0x00008042                free
 .text.avr-libc
                0x000080f2       0x3c c:/winavr-20100110/bin/../lib/gcc/avr/4.3.3/../../../../avr/lib/avr51\libc.a(atoi.o)
                0x000080f2                atoi
 .text.avr-libc
                0x0000812e       0x4e c:/winavr-20100110/bin/../lib/gcc/avr/4.3.3/../../../../avr/lib/avr51\libc.a(atol.o)
                0x0000812e                atol
 .text.avr-libc
                0x0000817c       0x1a c:/winavr-20100110/bin/../lib/gcc/avr/4.3.3/../../../../avr/lib/avr51\libc.a(memcmp_P.o)
                0x0000817c                memcmp_P
 .text.avr-libc
                0x00008196       0x12 c:/winavr-20100110/bin/../lib/gcc/avr/4.3.3/../../../../avr/lib/avr51\libc.a(memcpy_P.o)
                0x00008196                memcpy_P
 .text.avr-libc
                0x000081a8       0x12 c:/winavr-20100110/bin/../lib/gcc/avr/4.3.3/../../../../avr/lib/avr51\libc.a(strcmp_P.o)
                0x000081a8                strcmp_P
 .text.avr-libc
                0x000081ba        0xe c:/winavr-20100110/bin/../lib/gcc/avr/4.3.3/../../../../avr/lib/avr51\libc.a(strcpy_P.o)
                0x000081ba                strcpy_P
 .text.avr-libc
                0x000081c8       0x12 c:/winavr-20100110/bin/../lib/gcc/avr/4.3.3/../../../../avr/lib/avr51\libc.a(strlen_P.o)
                0x000081c8                strlen_P
 .text.avr-libc
                0x000081da       0x1a c:/winavr-20100110/bin/../lib/gcc/avr/4.3.3/../../../../avr/lib/avr51\libc.a(memcmp.o)
                0x000081da                memcmp
 .text.avr-libc
                0x000081f4       0x12 c:/winavr-20100110/bin/../lib/gcc/avr/4.3.3/../../../../avr/lib/avr51\libc.a(memcpy.o)
                0x000081f4                memcpy
 .text.avr-libc
                0x00008206        0xe c:/winavr-20100110/bin/../lib/gcc/avr/4.3.3/../../../../avr/lib/avr51\libc.a(memset.o)
                0x00008206                memset
 .text.avr-libc
                0x00008214       0x42 c:/winavr-20100110/bin/../lib/gcc/avr/4.3.3/../../../../avr/lib/avr51\libc.a(itoa.o)
                0x00008214                itoa
 .text.avr-libc
                0x00008256       0x68 c:/winavr-20100110/bin/../lib/gcc/avr/4.3.3/../../../../avr/lib/avr51\libc.a(ltoa.o)
                0x00008256                ltoa
 .text.avr-libc
                0x000082be       0x2a c:/winavr-20100110/bin/../lib/gcc/avr/4.3.3/../../../../avr/lib/avr51\libc.a(mulsi10.o)
                0x000082be                __mulsi_const_10
 .text.avr-libc
                0x000082e8       0x10 c:/winavr-20100110/bin/../lib/gcc/avr/4.3.3/../../../../avr/lib/avr51\libc.a(mul10.o)
                0x000082e8                __mulhi_const_10
 .text.avr-libc
                0x000082f8       0x20 c:/winavr-20100110/bin/../lib/gcc/avr/4.3.3/../../../../avr/lib/avr51\libc.a(strrev.o)
                0x000082f8                strrev
                0x00008318                . = ALIGN (0x2)
 *(.fini9)
 .fini9         0x00008318        0x0 c:/winavr-20100110/bin/../lib/gcc/avr/4.3.3/avr51\libgcc.a(_exit.o)
                0x00008318                exit
                0x00008318                _exit
 *(.fini9)
 *(.fini8)
 *(.fini8)
 *(.fini7)
 *(.fini7)
 *(.fini6)
 *(.fini6)
 *(.fini5)
 *(.fini5)
 *(.fini4)
 *(.fini4)
 *(.fini3)
 *(.fini3)
 *(.fini2)
 *(.fini2)
 *(.fini1)
 *(.fini1)
 *(.fini0)
 .fini0         0x00008318        0x4 c:/winavr-20100110/bin/../lib/gcc/avr/4.3.3/avr51\libgcc.a(_exit.o)
 *(.fini0)
                0x0000831c                _etext = .

.data           0x00800200       0x10 load address 0x0000831c
                0x00800200                PROVIDE (__data_start, .)
 *(.data)
 .data          0x00800200        0x0 c:/winavr-20100110/bin/../lib/gcc/avr/4.3.3/../../../../avr/lib/avr51/crtm1281.o
 .data          0x00800200        0x0 main.o
 .data          0x00800200        0x0 console.o
 .data          0x00800200        0x0 SD.o
 .data          0x00800200        0x0 misc.o
 .data          0x00800200        0x9 FAT32.o
 .data          0x00800209        0x0 audio.o
 .data          0x00800209        0x0 uart128.o
 .data          0x00800209        0x0 fifo.o
 .data          0x00800209        0x0 c:/winavr-20100110/bin/../lib/gcc/avr/4.3.3/avr51\libgcc.a(_mulsi3.o)
 .data          0x00800209        0x0 c:/winavr-20100110/bin/../lib/gcc/avr/4.3.3/avr51\libgcc.a(_udivmodhi4.o)
 .data          0x00800209        0x0 c:/winavr-20100110/bin/../lib/gcc/avr/4.3.3/avr51\libgcc.a(_udivmodsi4.o)
 .data          0x00800209        0x0 c:/winavr-20100110/bin/../lib/gcc/avr/4.3.3/avr51\libgcc.a(_exit.o)
 .data          0x00800209        0x0 c:/winavr-20100110/bin/../lib/gcc/avr/4.3.3/avr51\libgcc.a(_clear_bss.o)
 .data          0x00800209        0x6 c:/winavr-20100110/bin/../lib/gcc/avr/4.3.3/../../../../avr/lib/avr51\libc.a(malloc.o)
                0x0080020b                __malloc_heap_start
                0x0080020d                __malloc_heap_end
                0x00800209                __malloc_margin
 .data          0x0080020f        0x0 c:/winavr-20100110/bin/../lib/gcc/avr/4.3.3/../../../../avr/lib/avr51\libc.a(atoi.o)
 .data          0x0080020f        0x0 c:/winavr-20100110/bin/../lib/gcc/avr/4.3.3/../../../../avr/lib/avr51\libc.a(atol.o)
 .data          0x0080020f        0x0 c:/winavr-20100110/bin/../lib/gcc/avr/4.3.3/../../../../avr/lib/avr51\libc.a(memcmp_P.o)
 .data          0x0080020f        0x0 c:/winavr-20100110/bin/../lib/gcc/avr/4.3.3/../../../../avr/lib/avr51\libc.a(memcpy_P.o)
 .data          0x0080020f        0x0 c:/winavr-20100110/bin/../lib/gcc/avr/4.3.3/../../../../avr/lib/avr51\libc.a(strcmp_P.o)
 .data          0x0080020f        0x0 c:/winavr-20100110/bin/../lib/gcc/avr/4.3.3/../../../../avr/lib/avr51\libc.a(strcpy_P.o)
 .data          0x0080020f        0x0 c:/winavr-20100110/bin/../lib/gcc/avr/4.3.3/../../../../avr/lib/avr51\libc.a(strlen_P.o)
 .data          0x0080020f        0x0 c:/winavr-20100110/bin/../lib/gcc/avr/4.3.3/../../../../avr/lib/avr51\libc.a(memcmp.o)
 .data          0x0080020f        0x0 c:/winavr-20100110/bin/../lib/gcc/avr/4.3.3/../../../../avr/lib/avr51\libc.a(memcpy.o)
 .data          0x0080020f        0x0 c:/winavr-20100110/bin/../lib/gcc/avr/4.3.3/../../../../avr/lib/avr51\libc.a(memset.o)
 .data          0x0080020f        0x0 c:/winavr-20100110/bin/../lib/gcc/avr/4.3.3/../../../../avr/lib/avr51\libc.a(itoa.o)
 .data          0x0080020f        0x0 c:/winavr-20100110/bin/../lib/gcc/avr/4.3.3/../../../../avr/lib/avr51\libc.a(ltoa.o)
 .data          0x0080020f        0x0 c:/winavr-20100110/bin/../lib/gcc/avr/4.3.3/../../../../avr/lib/avr51\libc.a(mulsi10.o)
 .data          0x0080020f        0x0 c:/winavr-20100110/bin/../lib/gcc/avr/4.3.3/../../../../avr/lib/avr51\libc.a(mul10.o)
 .data          0x0080020f        0x0 c:/winavr-20100110/bin/../lib/gcc/avr/4.3.3/../../../../avr/lib/avr51\libc.a(strrev.o)
 *(.data*)
 *(.rodata)
 *(.rodata*)
 *(.gnu.linkonce.d*)
                0x00800210                . = ALIGN (0x2)
 *fill*         0x0080020f        0x1 00
                0x00800210                _edata = .
                0x00800210                PROVIDE (__data_end, .)

.bss            0x00800210      0xa42
                0x00800210                PROVIDE (__bss_start, .)
 *(.bss)
 .bss           0x00800210        0x0 c:/winavr-20100110/bin/../lib/gcc/avr/4.3.3/../../../../avr/lib/avr51/crtm1281.o
 .bss           0x00800210        0x2 main.o
                0x00800210                debug_fifo_ptr
 .bss           0x00800212       0x66 console.o
 .bss           0x00800278       0x18 SD.o
                0x0080027a                sd_debug_fifo_ptr
                0x00800278                sd_version
                0x00800279                sd_sdhc
 .bss           0x00800290        0x0 misc.o
 .bss           0x00800290      0x355 FAT32.o
                0x00800292                fat_dir_fifo_ptr
                0x00800290                fat_debug_fifo_ptr
 .bss           0x008005e5      0x402 audio.o
 .bss           0x008009e7        0x1 uart128.o
                0x008009e7                uart_isr_nest
 .bss           0x008009e8        0x0 fifo.o
 .bss           0x008009e8        0x0 c:/winavr-20100110/bin/../lib/gcc/avr/4.3.3/avr51\libgcc.a(_mulsi3.o)
 .bss           0x008009e8        0x0 c:/winavr-20100110/bin/../lib/gcc/avr/4.3.3/avr51\libgcc.a(_udivmodhi4.o)
 .bss           0x008009e8        0x0 c:/winavr-20100110/bin/../lib/gcc/avr/4.3.3/avr51\libgcc.a(_udivmodsi4.o)
 .bss           0x008009e8        0x0 c:/winavr-20100110/bin/../lib/gcc/avr/4.3.3/avr51\libgcc.a(_exit.o)
 .bss           0x008009e8        0x0 c:/winavr-20100110/bin/../lib/gcc/avr/4.3.3/avr51\libgcc.a(_clear_bss.o)
 .bss           0x008009e8        0x0 c:/winavr-20100110/bin/../lib/gcc/avr/4.3.3/../../../../avr/lib/avr51\libc.a(malloc.o)
 .bss           0x008009e8        0x0 c:/winavr-20100110/bin/../lib/gcc/avr/4.3.3/../../../../avr/lib/avr51\libc.a(atoi.o)
 .bss           0x008009e8        0x0 c:/winavr-20100110/bin/../lib/gcc/avr/4.3.3/../../../../avr/lib/avr51\libc.a(atol.o)
 .bss           0x008009e8        0x0 c:/winavr-20100110/bin/../lib/gcc/avr/4.3.3/../../../../avr/lib/avr51\libc.a(memcmp_P.o)
 .bss           0x008009e8        0x0 c:/winavr-20100110/bin/../lib/gcc/avr/4.3.3/../../../../avr/lib/avr51\libc.a(memcpy_P.o)
 .bss           0x008009e8        0x0 c:/winavr-20100110/bin/../lib/gcc/avr/4.3.3/../../../../avr/lib/avr51\libc.a(strcmp_P.o)
 .bss           0x008009e8        0x0 c:/winavr-20100110/bin/../lib/gcc/avr/4.3.3/../../../../avr/lib/avr51\libc.a(strcpy_P.o)
 .bss           0x008009e8        0x0 c:/winavr-20100110/bin/../lib/gcc/avr/4.3.3/../../../../avr/lib/avr51\libc.a(strlen_P.o)
 .bss           0x008009e8        0x0 c:/winavr-20100110/bin/../lib/gcc/avr/4.3.3/../../../../avr/lib/avr51\libc.a(memcmp.o)
 .bss           0x008009e8        0x0 c:/winavr-20100110/bin/../lib/gcc/avr/4.3.3/../../../../avr/lib/avr51\libc.a(memcpy.o)
 .bss           0x008009e8        0x0 c:/winavr-20100110/bin/../lib/gcc/avr/4.3.3/../../../../avr/lib/avr51\libc.a(memset.o)
 .bss           0x008009e8        0x0 c:/winavr-20100110/bin/../lib/gcc/avr/4.3.3/../../../../avr/lib/avr51\libc.a(itoa.o)
 .bss           0x008009e8        0x0 c:/winavr-20100110/bin/../lib/gcc/avr/4.3.3/../../../../avr/lib/avr51\libc.a(ltoa.o)
 .bss           0x008009e8        0x0 c:/winavr-20100110/bin/../lib/gcc/avr/4.3.3/../../../../avr/lib/avr51\libc.a(mulsi10.o)
 .bss           0x008009e8        0x0 c:/winavr-20100110/bin/../lib/gcc/avr/4.3.3/../../../../avr/lib/avr51\libc.a(mul10.o)
 .bss           0x008009e8        0x0 c:/winavr-20100110/bin/../lib/gcc/avr/4.3.3/../../../../avr/lib/avr51\libc.a(strrev.o)
 *(.bss*)
 *(COMMON)
 COMMON         0x008009e8       0x1e main.o
                0x008009e8                debug_text
 COMMON         0x00800a06      0x217 console.o
                0x00800a06                copy_buffer
                0x00800c06                console_vars
 COMMON         0x00800c1d        0x6 FAT32.o
                0x00800c1d                fat_date_time
 COMMON         0x00800c23        0x3 audio.o
                0x00800c23                audio_swapflag
                0x00800c24                audio_buffer
 COMMON         0x00800c26       0x28 uart128.o
                0x00800c26                uart1_fifo_rx_ptr
                0x00800c28                uart0_fifo_tx
                0x00800c3a                uart0_fifo_rx_ptr
                0x00800c3c                uart1_fifo_tx
 COMMON         0x00800c4e        0x4 c:/winavr-20100110/bin/../lib/gcc/avr/4.3.3/../../../../avr/lib/avr51\libc.a(malloc.o)
                0x00800c4e                __brkval
                0x00800c50                __flp
                0x00800c52                PROVIDE (__bss_end, .)
                0x0000831c                __data_load_start = LOADADDR (.data)
                0x0000832c                __data_load_end = (__data_load_start + SIZEOF (.data))

.noinit         0x00800c52        0x0
                0x00800c52                PROVIDE (__noinit_start, .)
 *(.noinit*)
                0x00800c52                PROVIDE (__noinit_end, .)
                0x00800c52                _end = .
                0x00800c52                PROVIDE (__heap_start, .)

.eeprom         0x00810000        0x0
 *(.eeprom*)
                0x00810000                __eeprom_end = .

.fuse
 *(.fuse)
 *(.lfuse)
 *(.hfuse)
 *(.efuse)

.lock
 *(.lock*)

.signature
 *(.signature*)

.stab
 *(.stab)

.stabstr
 *(.stabstr)

.stab.excl
 *(.stab.excl)

.stab.exclstr
 *(.stab.exclstr)

.stab.index
 *(.stab.index)

.stab.indexstr
 *(.stab.indexstr)

.comment
 *(.comment)

.debug
 *(.debug)

.line
 *(.line)

.debug_srcinfo
 *(.debug_srcinfo)

.debug_sfnames
 *(.debug_sfnames)

.debug_aranges  0x00000000      0x108
 *(.debug_aranges)
 .debug_aranges
                0x00000000       0x28 main.o
 .debug_aranges
                0x00000028       0x20 console.o
 .debug_aranges
                0x00000048       0x20 SD.o
 .debug_aranges
                0x00000068       0x20 misc.o
 .debug_aranges
                0x00000088       0x20 FAT32.o
 .debug_aranges
                0x000000a8       0x20 audio.o
 .debug_aranges
                0x000000c8       0x20 uart128.o
 .debug_aranges
                0x000000e8       0x20 fifo.o

.debug_pubnames
                0x00000000      0x651
 *(.debug_pubnames)
 .debug_pubnames
                0x00000000       0x8c main.o
 .debug_pubnames
                0x0000008c       0x79 console.o
 .debug_pubnames
                0x00000105       0x96 SD.o
 .debug_pubnames
                0x0000019b       0x51 misc.o
 .debug_pubnames
                0x000001ec      0x16a FAT32.o
 .debug_pubnames
                0x00000356       0x67 audio.o
 .debug_pubnames
                0x000003bd      0x150 uart128.o
 .debug_pubnames
                0x0000050d      0x144 fifo.o

.debug_info     0x00000000     0x72d3
 *(.debug_info)
 .debug_info    0x00000000      0x3f1 main.o
 .debug_info    0x000003f1      0x9e0 console.o
 .debug_info    0x00000dd1     0x1717 SD.o
 .debug_info    0x000024e8      0x238 misc.o
 .debug_info    0x00002720     0x39f7 FAT32.o
 .debug_info    0x00006117      0x118 audio.o
 .debug_info    0x0000622f      0x5c9 uart128.o
 .debug_info    0x000067f8      0xadb fifo.o
 *(.gnu.linkonce.wi.*)

.debug_abbrev   0x00000000      0xf0b
 *(.debug_abbrev)
 .debug_abbrev  0x00000000      0x212 main.o
 .debug_abbrev  0x00000212      0x224 console.o
 .debug_abbrev  0x00000436      0x250 SD.o
 .debug_abbrev  0x00000686       0xbd misc.o
 .debug_abbrev  0x00000743      0x360 FAT32.o
 .debug_abbrev  0x00000aa3       0x8a audio.o
 .debug_abbrev  0x00000b2d      0x1af uart128.o
 .debug_abbrev  0x00000cdc      0x22f fifo.o

.debug_line     0x00000000     0x49fa
 *(.debug_line)
 .debug_line    0x00000000      0x244 main.o
 .debug_line    0x00000244      0x709 console.o
 .debug_line    0x0000094d      0xcee SD.o
 .debug_line    0x0000163b      0x1c9 misc.o
 .debug_line    0x00001804     0x2141 FAT32.o
 .debug_line    0x00003945      0x111 audio.o
 .debug_line    0x00003a56      0x47a uart128.o
 .debug_line    0x00003ed0      0xb2a fifo.o

.debug_frame    0x00000000      0x590
 *(.debug_frame)
 .debug_frame   0x00000000       0x60 main.o
 .debug_frame   0x00000060       0x60 console.o
 .debug_frame   0x000000c0       0x70 SD.o
 .debug_frame   0x00000130       0x40 misc.o
 .debug_frame   0x00000170      0x210 FAT32.o
 .debug_frame   0x00000380       0x30 audio.o
 .debug_frame   0x000003b0       0xd0 uart128.o
 .debug_frame   0x00000480      0x110 fifo.o

.debug_str      0x00000000     0x1352
 *(.debug_str)
 .debug_str     0x00000000      0x21f main.o
                                0x272 (size before relaxing)
 .debug_str     0x0000021f      0x1db console.o
                                0x3db (size before relaxing)
 .debug_str     0x000003fa      0x108 SD.o
                                0x26b (size before relaxing)
 .debug_str     0x00000502       0x6b misc.o
                                0x176 (size before relaxing)
 .debug_str     0x0000056d      0xb3a FAT32.o
                                0xdea (size before relaxing)
 .debug_str     0x000010a7       0x31 audio.o
                                0x120 (size before relaxing)
 .debug_str     0x000010d8      0x11e uart128.o
                                0x2a5 (size before relaxing)
 .debug_str     0x000011f6      0x15c fifo.o
                                0x2da (size before relaxing)

.debug_loc      0x00000000     0x555c
 *(.debug_loc)
 .debug_loc     0x00000000       0x4b main.o
 .debug_loc     0x0000004b      0x66b console.o
 .debug_loc     0x000006b6      0xb91 SD.o
 .debug_loc     0x00001247      0x39c misc.o
 .debug_loc     0x000015e3     0x2eba FAT32.o
 .debug_loc     0x0000449d      0x224 uart128.o
 .debug_loc     0x000046c1      0xe9b fifo.o

.debug_macinfo
 *(.debug_macinfo)
OUTPUT(main.elf elf32-avr)
LOAD linker stubs

.debug_ranges   0x00000000      0x478
 .debug_ranges  0x00000000       0x38 main.o
 .debug_ranges  0x00000038       0x50 console.o
 .debug_ranges  0x00000088      0x210 SD.o
 .debug_ranges  0x00000298      0x190 FAT32.o
 .debug_ranges  0x00000428       0x50 fifo.o

Cross Reference Table

Symbol                                            File
__bad_interrupt                                   c:/winavr-20100110/bin/../lib/gcc/avr/4.3.3/../../../../avr/lib/avr51/crtm1281.o
__brkval                                          c:/winavr-20100110/bin/../lib/gcc/avr/4.3.3/../../../../avr/lib/avr51\libc.a(malloc.o)
__bss_end                                         c:/winavr-20100110/bin/../lib/gcc/avr/4.3.3/avr51\libgcc.a(_clear_bss.o)
__bss_start                                       c:/winavr-20100110/bin/../lib/gcc/avr/4.3.3/avr51\libgcc.a(_clear_bss.o)
__data_end                                        c:/winavr-20100110/bin/../lib/gcc/avr/4.3.3/../../../../avr/lib/avr51/crtm1281.o
__data_load_start                                 c:/winavr-20100110/bin/../lib/gcc/avr/4.3.3/../../../../avr/lib/avr51/crtm1281.o
__data_start                                      c:/winavr-20100110/bin/../lib/gcc/avr/4.3.3/../../../../avr/lib/avr51/crtm1281.o
__do_clear_bss                                    c:/winavr-20100110/bin/../lib/gcc/avr/4.3.3/avr51\libgcc.a(_clear_bss.o)
                                                  c:/winavr-20100110/bin/../lib/gcc/avr/4.3.3/../../../../avr/lib/avr51\libc.a(malloc.o)
                                                  fifo.o
                                                  uart128.o
                                                  audio.o
                                                  FAT32.o
                                                  misc.o
                                                  SD.o
                                                  console.o
                                                  main.o
__do_copy_data                                    c:/winavr-20100110/bin/../lib/gcc/avr/4.3.3/../../../../avr/lib/avr51/crtm1281.o
                                                  c:/winavr-20100110/bin/../lib/gcc/avr/4.3.3/../../../../avr/lib/avr51\libc.a(malloc.o)
                                                  FAT32.o
__flp                                             c:/winavr-20100110/bin/../lib/gcc/avr/4.3.3/../../../../avr/lib/avr51\libc.a(malloc.o)
__heap_end                                        c:/winavr-20100110/bin/../lib/gcc/avr/4.3.3/../../../../avr/lib/avr51/crtm1281.o
                                                  c:/winavr-20100110/bin/../lib/gcc/avr/4.3.3/../../../../avr/lib/avr51\libc.a(malloc.o)
__heap_start                                      c:/winavr-20100110/bin/../lib/gcc/avr/4.3.3/../../../../avr/lib/avr51\libc.a(malloc.o)
__init                                            c:/winavr-20100110/bin/../lib/gcc/avr/4.3.3/../../../../avr/lib/avr51/crtm1281.o
__malloc_heap_end                                 c:/winavr-20100110/bin/../lib/gcc/avr/4.3.3/../../../../avr/lib/avr51\libc.a(malloc.o)
__malloc_heap_start                               c:/winavr-20100110/bin/../lib/gcc/avr/4.3.3/../../../../avr/lib/avr51\libc.a(malloc.o)
__malloc_margin                                   c:/winavr-20100110/bin/../lib/gcc/avr/4.3.3/../../../../avr/lib/avr51\libc.a(malloc.o)
__mulhi_const_10                                  c:/winavr-20100110/bin/../lib/gcc/avr/4.3.3/../../../../avr/lib/avr51\libc.a(mul10.o)
                                                  c:/winavr-20100110/bin/../lib/gcc/avr/4.3.3/../../../../avr/lib/avr51\libc.a(atoi.o)
__mulsi3                                          c:/winavr-20100110/bin/../lib/gcc/avr/4.3.3/avr51\libgcc.a(_mulsi3.o)
                                                  FAT32.o
                                                  misc.o
__mulsi_const_10                                  c:/winavr-20100110/bin/../lib/gcc/avr/4.3.3/../../../../avr/lib/avr51\libc.a(mulsi10.o)
                                                  c:/winavr-20100110/bin/../lib/gcc/avr/4.3.3/../../../../avr/lib/avr51\libc.a(atol.o)
__stack                                           c:/winavr-20100110/bin/../lib/gcc/avr/4.3.3/../../../../avr/lib/avr51/crtm1281.o
__udivmodhi4                                      c:/winavr-20100110/bin/../lib/gcc/avr/4.3.3/avr51\libgcc.a(_udivmodhi4.o)
                                                  c:/winavr-20100110/bin/../lib/gcc/avr/4.3.3/../../../../avr/lib/avr51\libc.a(itoa.o)
                                                  FAT32.o
__udivmodsi4                                      c:/winavr-20100110/bin/../lib/gcc/avr/4.3.3/avr51\libgcc.a(_udivmodsi4.o)
                                                  c:/winavr-20100110/bin/../lib/gcc/avr/4.3.3/../../../../avr/lib/avr51\libc.a(ltoa.o)
                                                  FAT32.o
                                                  misc.o
__vector_1                                        c:/winavr-20100110/bin/../lib/gcc/avr/4.3.3/../../../../avr/lib/avr51/crtm1281.o
__vector_10                                       c:/winavr-20100110/bin/../lib/gcc/avr/4.3.3/../../../../avr/lib/avr51/crtm1281.o
__vector_11                                       c:/winavr-20100110/bin/../lib/gcc/avr/4.3.3/../../../../avr/lib/avr51/crtm1281.o
__vector_12                                       c:/winavr-20100110/bin/../lib/gcc/avr/4.3.3/../../../../avr/lib/avr51/crtm1281.o
__vector_13                                       c:/winavr-20100110/bin/../lib/gcc/avr/4.3.3/../../../../avr/lib/avr51/crtm1281.o
__vector_14                                       c:/winavr-20100110/bin/../lib/gcc/avr/4.3.3/../../../../avr/lib/avr51/crtm1281.o
__vector_15                                       c:/winavr-20100110/bin/../lib/gcc/avr/4.3.3/../../../../avr/lib/avr51/crtm1281.o
__vector_16                                       c:/winavr-20100110/bin/../lib/gcc/avr/4.3.3/../../../../avr/lib/avr51/crtm1281.o
__vector_17                                       c:/winavr-20100110/bin/../lib/gcc/avr/4.3.3/../../../../avr/lib/avr51/crtm1281.o
__vector_18                                       c:/winavr-20100110/bin/../lib/gcc/avr/4.3.3/../../../../avr/lib/avr51/crtm1281.o
__vector_19                                       c:/winavr-20100110/bin/../lib/gcc/avr/4.3.3/../../../../avr/lib/avr51/crtm1281.o
__vector_2                                        c:/winavr-20100110/bin/../lib/gcc/avr/4.3.3/../../../../avr/lib/avr51/crtm1281.o
__vector_20                                       c:/winavr-20100110/bin/../lib/gcc/avr/4.3.3/../../../../avr/lib/avr51/crtm1281.o
__vector_21                                       c:/winavr-20100110/bin/../lib/gcc/avr/4.3.3/../../../../avr/lib/avr51/crtm1281.o
__vector_22                                       c:/winavr-20100110/bin/../lib/gcc/avr/4.3.3/../../../../avr/lib/avr51/crtm1281.o
__vector_23                                       audio.o
                                                  c:/winavr-20100110/bin/../lib/gcc/avr/4.3.3/../../../../avr/lib/avr51/crtm1281.o
__vector_24                                       c:/winavr-20100110/bin/../lib/gcc/avr/4.3.3/../../../../avr/lib/avr51/crtm1281.o
__vector_25                                       uart128.o
                                                  c:/winavr-20100110/bin/../lib/gcc/avr/4.3.3/../../../../avr/lib/avr51/crtm1281.o
__vector_26                                       uart128.o
                                                  c:/winavr-20100110/bin/../lib/gcc/avr/4.3.3/../../../../avr/lib/avr51/crtm1281.o
__vector_27                                       c:/winavr-20100110/bin/../lib/gcc/avr/4.3.3/../../../../avr/lib/avr51/crtm1281.o
__vector_28                                       c:/winavr-20100110/bin/../lib/gcc/avr/4.3.3/../../../../avr/lib/avr51/crtm1281.o
__vector_29                                       c:/winavr-20100110/bin/../lib/gcc/avr/4.3.3/../../../../avr/lib/avr51/crtm1281.o
__vector_3                                        c:/winavr-20100110/bin/../lib/gcc/avr/4.3.3/../../../../avr/lib/avr51/crtm1281.o
__vector_30                                       c:/winavr-20100110/bin/../lib/gcc/avr/4.3.3/../../../../avr/lib/avr51/crtm1281.o
__vector_31                                       c:/winavr-20100110/bin/../lib/gcc/avr/4.3.3/../../../../avr/lib/avr51/crtm1281.o
__vector_32                                       c:/winavr-20100110/bin/../lib/gcc/avr/4.3.3/../../../../avr/lib/avr51/crtm1281.o
__vector_33                                       c:/winavr-20100110/bin/../lib/gcc/avr/4.3.3/../../../../avr/lib/avr51/crtm1281.o
__vector_34                                       c:/winavr-20100110/bin/../lib/gcc/avr/4.3.3/../../../../avr/lib/avr51/crtm1281.o
__vector_35                                       c:/winavr-20100110/bin/../lib/gcc/avr/4.3.3/../../../../avr/lib/avr51/crtm1281.o
__vector_36                                       uart128.o
                                                  c:/winavr-20100110/bin/../lib/gcc/avr/4.3.3/../../../../avr/lib/avr51/crtm1281.o
__vector_37                                       uart128.o
                                                  c:/winavr-20100110/bin/../lib/gcc/avr/4.3.3/../../../../avr/lib/avr51/crtm1281.o
__vector_38                                       c:/winavr-20100110/bin/../lib/gcc/avr/4.3.3/../../../../avr/lib/avr51/crtm1281.o
__vector_39                                       c:/winavr-20100110/bin/../lib/gcc/avr/4.3.3/../../../../avr/lib/avr51/crtm1281.o
__vector_4                                        c:/winavr-20100110/bin/../lib/gcc/avr/4.3.3/../../../../avr/lib/avr51/crtm1281.o
__vector_40                                       c:/winavr-20100110/bin/../lib/gcc/avr/4.3.3/../../../../avr/lib/avr51/crtm1281.o
__vector_41                                       c:/winavr-20100110/bin/../lib/gcc/avr/4.3.3/../../../../avr/lib/avr51/crtm1281.o
__vector_42                                       c:/winavr-20100110/bin/../lib/gcc/avr/4.3.3/../../../../avr/lib/avr51/crtm1281.o
__vector_43                                       c:/winavr-20100110/bin/../lib/gcc/avr/4.3.3/../../../../avr/lib/avr51/crtm1281.o
__vector_44                                       c:/winavr-20100110/bin/../lib/gcc/avr/4.3.3/../../../../avr/lib/avr51/crtm1281.o
__vector_45                                       c:/winavr-20100110/bin/../lib/gcc/avr/4.3.3/../../../../avr/lib/avr51/crtm1281.o
__vector_46                                       c:/winavr-20100110/bin/../lib/gcc/avr/4.3.3/../../../../avr/lib/avr51/crtm1281.o
__vector_47                                       c:/winavr-20100110/bin/../lib/gcc/avr/4.3.3/../../../../avr/lib/avr51/crtm1281.o
__vector_48                                       c:/winavr-20100110/bin/../lib/gcc/avr/4.3.3/../../../../avr/lib/avr51/crtm1281.o
__vector_49                                       c:/winavr-20100110/bin/../lib/gcc/avr/4.3.3/../../../../avr/lib/avr51/crtm1281.o
__vector_5                                        c:/winavr-20100110/bin/../lib/gcc/avr/4.3.3/../../../../avr/lib/avr51/crtm1281.o
__vector_50                                       c:/winavr-20100110/bin/../lib/gcc/avr/4.3.3/../../../../avr/lib/avr51/crtm1281.o
__vector_6                                        c:/winavr-20100110/bin/../lib/gcc/avr/4.3.3/../../../../avr/lib/avr51/crtm1281.o
__vector_7                                        c:/winavr-20100110/bin/../lib/gcc/avr/4.3.3/../../../../avr/lib/avr51/crtm1281.o
__vector_8                                        c:/winavr-20100110/bin/../lib/gcc/avr/4.3.3/../../../../avr/lib/avr51/crtm1281.o
__vector_9                                        c:/winavr-20100110/bin/../lib/gcc/avr/4.3.3/../../../../avr/lib/avr51/crtm1281.o
__vector_default                                  c:/winavr-20100110/bin/../lib/gcc/avr/4.3.3/../../../../avr/lib/avr51/crtm1281.o
__vectors                                         c:/winavr-20100110/bin/../lib/gcc/avr/4.3.3/../../../../avr/lib/avr51/crtm1281.o
_exit                                             c:/winavr-20100110/bin/../lib/gcc/avr/4.3.3/avr51\libgcc.a(_exit.o)
ascii_long                                        misc.o
ascii_ulong                                       misc.o
                                                  FAT32.o
atoi                                              c:/winavr-20100110/bin/../lib/gcc/avr/4.3.3/../../../../avr/lib/avr51\libc.a(atoi.o)
                                                  console.o
atol                                              c:/winavr-20100110/bin/../lib/gcc/avr/4.3.3/../../../../avr/lib/avr51\libc.a(atol.o)
                                                  console.o
audio_buffer                                      audio.o
                                                  console.o
audio_init                                        audio.o
                                                  main.o
audio_swapflag                                    audio.o
                                                  console.o
console_init                                      console.o
                                                  main.o
console_main                                      console.o
                                                  main.o
console_timer                                     console.o
console_vars                                      console.o
                                                  main.o
copy_buffer                                       console.o
debug_fifo_ptr                                    main.o
debug_text                                        main.o
exit                                              c:/winavr-20100110/bin/../lib/gcc/avr/4.3.3/avr51\libgcc.a(_exit.o)
                                                  c:/winavr-20100110/bin/../lib/gcc/avr/4.3.3/../../../../avr/lib/avr51/crtm1281.o
fat_date_time                                     FAT32.o
fat_debug_dir                                     FAT32.o
                                                  console.o
fat_debug_fat                                     FAT32.o
                                                  console.o
fat_debug_fifo_ptr                                FAT32.o
                                                  console.o
fat_dir_fifo_ptr                                  FAT32.o
                                                  console.o
fat_directory_change                              FAT32.o
                                                  console.o
fat_directory_create                              FAT32.o
                                                  console.o
fat_directory_delete                              FAT32.o
                                                  console.o
fat_directory_list                                FAT32.o
                                                  console.o
fat_file_append                                   FAT32.o
                                                  console.o
fat_file_create                                   FAT32.o
                                                  console.o
fat_file_delete                                   FAT32.o
                                                  console.o
fat_file_locate                                   FAT32.o
                                                  console.o
fat_file_read                                     FAT32.o
                                                  console.o
fat_file_write                                    FAT32.o
                                                  console.o
fat_init                                          FAT32.o
                                                  console.o
fifo_copy                                         fifo.o
fifo_flush                                        fifo.o
fifo_init                                         fifo.o
                                                  uart128.o
                                                  console.o
fifo_preview                                      fifo.o
fifo_read                                         fifo.o
fifo_read_char                                    fifo.o
                                                  uart128.o
                                                  console.o
                                                  main.o
fifo_read_int                                     fifo.o
fifo_read_long                                    fifo.o
fifo_read_string                                  fifo.o
fifo_write                                        fifo.o
fifo_write_P                                      fifo.o
fifo_write_char                                   fifo.o
                                                  uart128.o
                                                  SD.o
                                                  console.o
fifo_write_int                                    fifo.o
fifo_write_long                                   fifo.o
fifo_write_string                                 fifo.o
                                                  FAT32.o
                                                  SD.o
                                                  console.o
                                                  main.o
fifo_write_string_P                               fifo.o
                                                  FAT32.o
                                                  SD.o
                                                  console.o
                                                  main.o
free                                              c:/winavr-20100110/bin/../lib/gcc/avr/4.3.3/../../../../avr/lib/avr51\libc.a(malloc.o)
get_mcusr                                         main.o
hardware_id                                       main.o
hardware_name                                     main.o
hex2ascii                                         misc.o
itoa                                              c:/winavr-20100110/bin/../lib/gcc/avr/4.3.3/../../../../avr/lib/avr51\libc.a(itoa.o)
                                                  SD.o
                                                  console.o
ltoa                                              c:/winavr-20100110/bin/../lib/gcc/avr/4.3.3/../../../../avr/lib/avr51\libc.a(ltoa.o)
                                                  SD.o
                                                  console.o
main                                              main.o
                                                  c:/winavr-20100110/bin/../lib/gcc/avr/4.3.3/../../../../avr/lib/avr51/crtm1281.o
main_fly                                          main.o
                                                  console.o
malloc                                            c:/winavr-20100110/bin/../lib/gcc/avr/4.3.3/../../../../avr/lib/avr51\libc.a(malloc.o)
                                                  fifo.o
memcmp                                            c:/winavr-20100110/bin/../lib/gcc/avr/4.3.3/../../../../avr/lib/avr51\libc.a(memcmp.o)
                                                  FAT32.o
memcmp_P                                          c:/winavr-20100110/bin/../lib/gcc/avr/4.3.3/../../../../avr/lib/avr51\libc.a(memcmp_P.o)
                                                  FAT32.o
memcpy                                            c:/winavr-20100110/bin/../lib/gcc/avr/4.3.3/../../../../avr/lib/avr51\libc.a(memcpy.o)
                                                  fifo.o
                                                  FAT32.o
memcpy_P                                          c:/winavr-20100110/bin/../lib/gcc/avr/4.3.3/../../../../avr/lib/avr51\libc.a(memcpy_P.o)
                                                  fifo.o
memset                                            c:/winavr-20100110/bin/../lib/gcc/avr/4.3.3/../../../../avr/lib/avr51\libc.a(memset.o)
                                                  audio.o
                                                  FAT32.o
                                                  misc.o
                                                  console.o
sd_block_read                                     SD.o
                                                  FAT32.o
sd_block_write                                    SD.o
                                                  FAT32.o
sd_debug_fifo_ptr                                 SD.o
                                                  console.o
sd_init                                           SD.o
                                                  main.o
sd_initcard                                       SD.o
                                                  console.o
sd_sdhc                                           SD.o
sd_version                                        SD.o
strcmp_P                                          c:/winavr-20100110/bin/../lib/gcc/avr/4.3.3/../../../../avr/lib/avr51\libc.a(strcmp_P.o)
                                                  FAT32.o
strcpy_P                                          c:/winavr-20100110/bin/../lib/gcc/avr/4.3.3/../../../../avr/lib/avr51\libc.a(strcpy_P.o)
                                                  FAT32.o
                                                  main.o
strlen_P                                          c:/winavr-20100110/bin/../lib/gcc/avr/4.3.3/../../../../avr/lib/avr51\libc.a(strlen_P.o)
                                                  fifo.o
strrev                                            c:/winavr-20100110/bin/../lib/gcc/avr/4.3.3/../../../../avr/lib/avr51\libc.a(strrev.o)
                                                  c:/winavr-20100110/bin/../lib/gcc/avr/4.3.3/../../../../avr/lib/avr51\libc.a(ltoa.o)
                                                  c:/winavr-20100110/bin/../lib/gcc/avr/4.3.3/../../../../avr/lib/avr51\libc.a(itoa.o)
uart0_fifo_rx_ptr                                 uart128.o
uart0_fifo_tx                                     uart128.o
uart0_init                                        uart128.o
uart0_isrtx_enable                                uart128.o
uart0_rx_stream                                   uart128.o
uart0_tx_stream                                   uart128.o
uart1_fifo_rx_ptr                                 uart128.o
                                                  main.o
uart1_fifo_tx                                     uart128.o
                                                  main.o
uart1_init                                        uart128.o
                                                  main.o
uart1_isrtx_enable                                uart128.o
uart1_rx_stream                                   uart128.o
uart1_tx_stream                                   uart128.o
uart_isr_nest                                     uart128.o
                                                  fifo.o
                                                  audio.o
                                                  FAT32.o
                                                  misc.o
                                                  SD.o
                                                  console.o
                                                  main.o
