                        .module main.c
                        .area text(rom, con, rel)
 0000                   .dbfile C:\Users\jim.cordill\Documents\Code\PWMpot\main.c
                        .area text(rom, con, rel)
 0000                   .dbfile C:\Users\jim.cordill\Documents\Code\PWMpot\main.c
 0000                   .dbfunc e ADC_read _ADC_read#Ftv fs 29
                        .even
 0000           _ADC_read#Ftv::
 0000                   .dbblock 30
 0000                   .dbline 31
 0000 369A              sbi 0x6,6
 0002           L2:
 0002           L3:
 0002                   .dbline 32
 0002 3699              sbic 0x6,6
 0004 FECF              rjmp L2
 0006           X0:
 0006                   .dbline 33
 0006 04B1              in R16,0x4
 0008 15B1              in R17,0x5
 000A                   .dbblkend 34
 000A           L1:
 000A 0895              ret
 000C                   .dbfuncend
 000C                   .dbstacksize -2
 000C                   .dbfunc e ADC_ref _ADC_ref#Fvh fV 47
 000C           ;            ref -> R20
                        .even
 000C           _ADC_ref#Fvh::
 000C 4A93              st -y,R20
 000E 402F              mov R20,R16
 0010                   .dbblock 48
 0010                   .dbline 49
 0010 87B1              in R24,0x7
 0012 807C              andi R24,192
 0014 87B9              out 0x7,R24
 0016                   .dbline 50
 0016 4370              andi R20,3
 0018                   .dbline 51
 0018 242E              mov R2,R20
 001A 220C              lsl R2
 001C 220C              lsl R2
 001E 220C              lsl R2
 0020 220C              lsl R2
 0022 220C              lsl R2
 0024 220C              lsl R2
 0026 37B0              in R3,0x7
 0028 3228              or R3,R2
 002A 37B8              out 0x7,R3
 002C                   .dbline 52
 002C E9DF              rcall _ADC_read#Ftv
 002E                   .dbblkend 53
 002E           L5:
 002E 4991              ld R20,y+
 0030 0895              ret
 0032                   .dbfuncend
 0032                   .dbsym r ref 20 c
 0032                   .dbstacksize -3
 0032                   .dbfunc e ADC_read_ch _ADC_read_ch#Fth fs 66
 0032           ;        ADC_var -> R10,R11
 0032           ;              i -> R20
 0032           ;             ch -> R20
                        .even
 0032           _ADC_read_ch#Fth::
 0032 00D0              rcall push_xgset300C
 0034 402F              mov R20,R16
 0036                   .dbblock 67
 0036                   .dbline 70
 0036 AA24              clr R10
 0038 BB24              clr R11
 003A                   .dbline 73
 003A 87B1              in R24,0x7
 003C 807F              andi R24,240
 003E 87B9              out 0x7,R24
 0040                   .dbline 74
 0040 842F              mov R24,R20
 0042 8F70              andi R24,15
 0044 27B0              in R2,0x7
 0046 282A              or R2,R24
 0048 27B8              out 0x7,R2
 004A                   .dbline 76
 004A 4427              clr R20
 004C 04C0              rjmp L10
 004E           L7:
 004E                   .dbline 78
 004E D8DF              rcall _ADC_read#Ftv
 0050 A00E              add R10,R16
 0052 B11E              adc R11,R17
 0054           L8:
 0054                   .dbline 76
 0054 4395              inc R20
 0056           L10:
 0056                   .dbline 76
 0056 4830              cpi R20,8
 0058 D0F3              brlo L7
 005A           X1:
 005A                   .dbline 81
 005A 8501              movw R16,R10
 005C 1695              lsr R17
 005E 0795              ror R16
 0060 1695              lsr R17
 0062 0795              ror R16
 0064 1695              lsr R17
 0066 0795              ror R16
 0068                   .dbblkend 82
 0068           L6:
 0068 00C0              rjmp pop_xgset300C
 006A 0895              ret
 006C                   .dbfuncend
 006C                   .dbsym r ADC_var 10 s
 006C                   .dbsym r i 20 c
 006C                   .dbsym r ch 20 c
 006C                   .dbstacksize 0
 006C                   .dbfunc e putchar _putchar$device_specific$ fI 88
 006C           ;              c -> R20
                        .even
 006C           _putchar$device_specific$::
 006C 4A93              st -y,R20
 006E 402F              mov R20,R16
 0070                   .dbblock 89
 0070                   .dbline 91
 0070 4A30              cpi R20,10
 0072 11F4              brne L15
 0074           X2:
 0074                   .dbline 92
 0074 0DE0              ldi R16,13
 0076 FADF              rcall _putchar$device_specific$
 0078           L14:
 0078           L15:
 0078                   .dbline 94
 0078 5D9B              sbis 0xb,5
 007A FECF              rjmp L14
 007C           X3:
 007C                   .dbline 96
 007C 4CB9              out 0xc,R20
 007E                   .dbline 97
 007E 042F              mov R16,R20
 0080 1127              clr R17
 0082                   .dbblkend 98
 0082           L11:
 0082 4991              ld R20,y+
 0084 0895              ret
 0086                   .dbfuncend
 0086                   .dbsym r c 20 c
 0086                   .dbstacksize -3
 0086                   .dbfunc e main _main#Fiv fI 100
 0086           ;      pot_value -> R10,R11
                        .even
 0086           _main#Fiv::
 0086                   .dbblock 101
 0086                   .dbline 104
 0086 00D0              rcall _init_devices#Fvv
 0088                   .dbline 105
 0088 01E0              ldi R16,1
 008A C0DF              rcall _ADC_ref#Fvh
 008C           L18:
 008C                   .dbline 109
 008C 0027              clr R16
 008E D1DF              rcall _ADC_read_ch#Fth
 0090 5801              movw R10,R16
 0092                   .dbline 110
 0092 1BBD              out 0x2b,R17
 0094 0ABD              out 0x2a,R16
 0096                   .dbline 111
 0096 9501              movw R18,R10
 0098 00E0              ldi R16,<_21#A17_c
 009A 10E0              ldi R17,>_21#A17_c
 009C 00D0              rcall _printf#FiPKcz
 009E           L19:
 009E                   .dbline 114
 009E F6CF              rjmp L18
 00A0           X4:
 00A0                   .dbblkend 117
 00A0           L17:
 00A0 0895              ret
 00A2                   .dbfuncend
 00A2                   .dbsym r pot_value 10 s
 00A2                   .dbstacksize -2
                        .area data(ram, con, rel)
 0000                   .dbfile C:\Users\jim.cordill\Documents\Code\PWMpot\main.c
 0000           _21#A17_c:
 0000                   .blkb 17
                        .area idata(rom)
 0000 4144432076616C7565203D202575200A  .byte 'A,'D,'C,32,'v,'a,'l,'u,'e,32,61,32,37,'u,32,10
 0010 00                .byte 0
                        .area data(ram, con, rel)
 0011                   .dbfile C:\Users\jim.cordill\Documents\Code\PWMpot\main.c
