Archive member included because of file (symbol)

c:/winavr-20080610/bin/../lib/gcc/avr/4.3.0\libgcc.a(_exit.o)
                              c:/winavr-20080610/bin/../lib/gcc/avr/4.3.0/../../../../avr/lib/crts2313.o (exit)
c:/winavr-20080610/bin/../lib/gcc/avr/4.3.0\libgcc.a(_copy_data.o)
                              CwID.o (__do_copy_data)
c:/winavr-20080610/bin/../lib/gcc/avr/4.3.0\libgcc.a(_clear_bss.o)
                              CwID.o (__do_clear_bss)
c:/winavr-20080610/bin/../lib/gcc/avr/4.3.0/../../../../avr/lib\libc.a(toupper.o)
                              CwID.o (toupper)

Allocating common symbols
Common symbol       size              file

txt                 0x1               CwID.o
j                   0x2               CwID.o
ptr                 0x2               CwID.o
k                   0x2               CwID.o
i                   0x2               CwID.o
ledFlash            0x1               CwID.o
cwChr               0x1               CwID.o
chkBit              0x1               CwID.o

Memory Configuration

Name             Origin             Length             Attributes
text             0x00000000         0x00002000         xr
data             0x00800060         0x0000ffa0         rw !x
eeprom           0x00810000         0x00010000         rw !x
fuse             0x00820000         0x00000400         rw !x
lock             0x00830000         0x00000400         rw !x
signature        0x00840000         0x00000400         rw !x
*default*        0x00000000         0xffffffff

Linker script and memory map

LOAD c:/winavr-20080610/bin/../lib/gcc/avr/4.3.0/../../../../avr/lib/crts2313.o
LOAD CwID.o
LOAD c:/winavr-20080610/bin/../lib/gcc/avr/4.3.0\libgcc.a
LOAD c:/winavr-20080610/bin/../lib/gcc/avr/4.3.0/../../../../avr/lib\libc.a
LOAD c:/winavr-20080610/bin/../lib/gcc/avr/4.3.0\libgcc.a

.hash
 *(.hash)

.dynsym
 *(.dynsym)

.dynstr
 *(.dynstr)

.gnu.version
 *(.gnu.version)

.gnu.version_d
 *(.gnu.version_d)

.gnu.version_r
 *(.gnu.version_r)

.rel.init
 *(.rel.init)

.rela.init
 *(.rela.init)

.rel.text
 *(.rel.text)
 *(.rel.text.*)
 *(.rel.gnu.linkonce.t*)

.rela.text
 *(.rela.text)
 *(.rela.text.*)
 *(.rela.gnu.linkonce.t*)

.rel.fini
 *(.rel.fini)

.rela.fini
 *(.rela.fini)

.rel.rodata
 *(.rel.rodata)
 *(.rel.rodata.*)
 *(.rel.gnu.linkonce.r*)

.rela.rodata
 *(.rela.rodata)
 *(.rela.rodata.*)
 *(.rela.gnu.linkonce.r*)

.rel.data
 *(.rel.data)
 *(.rel.data.*)
 *(.rel.gnu.linkonce.d*)

.rela.data
 *(.rela.data)
 *(.rela.data.*)
 *(.rela.gnu.linkonce.d*)

.rel.ctors
 *(.rel.ctors)

.rela.ctors
 *(.rela.ctors)

.rel.dtors
 *(.rel.dtors)

.rela.dtors
 *(.rela.dtors)

.rel.got
 *(.rel.got)

.rela.got
 *(.rela.got)

.rel.bss
 *(.rel.bss)

.rela.bss
 *(.rela.bss)

.rel.plt
 *(.rel.plt)

.rela.plt
 *(.rela.plt)

.text           0x00000000      0x3a4
 *(.vectors)
 .vectors       0x00000000       0x16 c:/winavr-20080610/bin/../lib/gcc/avr/4.3.0/../../../../avr/lib/crts2313.o
                0x00000000                __vectors
                0x00000000                __vector_default
 *(.vectors)
 *(.progmem.gcc*)
 *(.progmem*)
                0x00000016                . = ALIGN (0x2)
                0x00000016                __trampolines_start = .
 *(.trampolines)
 .trampolines   0x00000016        0x0 linker stubs
 *(.trampolines*)
                0x00000016                __trampolines_end = .
 *(.jumptables)
 *(.jumptables*)
 *(.lowtext)
 *(.lowtext*)
                0x00000016                __ctors_start = .
 *(.ctors)
                0x00000016                __ctors_end = .
                0x00000016                __dtors_start = .
 *(.dtors)
                0x00000016                __dtors_end = .
 SORT(*)(.ctors)
 SORT(*)(.dtors)
 *(.init0)
 .init0         0x00000016        0x0 c:/winavr-20080610/bin/../lib/gcc/avr/4.3.0/../../../../avr/lib/crts2313.o
                0x00000016                __init
 *(.init0)
 *(.init1)
 *(.init1)
 *(.init2)
 .init2         0x00000016        0x8 c:/winavr-20080610/bin/../lib/gcc/avr/4.3.0/../../../../avr/lib/crts2313.o
 *(.init2)
 *(.init3)
 *(.init3)
 *(.init4)
 .init4         0x0000001e       0x18 c:/winavr-20080610/bin/../lib/gcc/avr/4.3.0\libgcc.a(_copy_data.o)
                0x0000001e                __do_copy_data
 .init4         0x00000036       0x10 c:/winavr-20080610/bin/../lib/gcc/avr/4.3.0\libgcc.a(_clear_bss.o)
                0x00000036                __do_clear_bss
 *(.init4)
 *(.init5)
 *(.init5)
 *(.init6)
 *(.init6)
 *(.init7)
 *(.init7)
 *(.init8)
 *(.init8)
 *(.init9)
 .init9         0x00000046        0x4 c:/winavr-20080610/bin/../lib/gcc/avr/4.3.0/../../../../avr/lib/crts2313.o
 *(.init9)
 *(.text)
 .text          0x0000004a        0x2 c:/winavr-20080610/bin/../lib/gcc/avr/4.3.0/../../../../avr/lib/crts2313.o
                0x0000004a                __bad_interrupt
                0x0000004a                __vector_6
                0x0000004a                __vector_3
                0x0000004a                __vector_7
                0x0000004a                __vector_5
                0x0000004a                __vector_4
                0x0000004a                __vector_9
                0x0000004a                __vector_2
                0x0000004a                __vector_8
                0x0000004a                __vector_10
 .text          0x0000004c      0x344 CwID.o
                0x000000c6                pause
                0x0000004c                __vector_1
                0x00000168                main
 .text          0x00000390        0x0 c:/winavr-20080610/bin/../lib/gcc/avr/4.3.0\libgcc.a(_exit.o)
 .text          0x00000390        0x0 c:/winavr-20080610/bin/../lib/gcc/avr/4.3.0\libgcc.a(_copy_data.o)
 .text          0x00000390        0x0 c:/winavr-20080610/bin/../lib/gcc/avr/4.3.0\libgcc.a(_clear_bss.o)
 .text          0x00000390        0x0 c:/winavr-20080610/bin/../lib/gcc/avr/4.3.0/../../../../avr/lib\libc.a(toupper.o)
                0x00000390                . = ALIGN (0x2)
 *(.text.*)
 .text.libgcc   0x00000390        0x0 c:/winavr-20080610/bin/../lib/gcc/avr/4.3.0\libgcc.a(_exit.o)
 .text.libgcc   0x00000390        0x0 c:/winavr-20080610/bin/../lib/gcc/avr/4.3.0\libgcc.a(_copy_data.o)
 .text.libgcc   0x00000390        0x0 c:/winavr-20080610/bin/../lib/gcc/avr/4.3.0\libgcc.a(_clear_bss.o)
 .text.ctype    0x00000390       0x10 c:/winavr-20080610/bin/../lib/gcc/avr/4.3.0/../../../../avr/lib\libc.a(toupper.o)
                0x00000390                toupper
                0x000003a0                . = ALIGN (0x2)
 *(.fini9)
 .fini9         0x000003a0        0x0 c:/winavr-20080610/bin/../lib/gcc/avr/4.3.0\libgcc.a(_exit.o)
                0x000003a0                exit
                0x000003a0                _exit
 *(.fini9)
 *(.fini8)
 *(.fini8)
 *(.fini7)
 *(.fini7)
 *(.fini6)
 *(.fini6)
 *(.fini5)
 *(.fini5)
 *(.fini4)
 *(.fini4)
 *(.fini3)
 *(.fini3)
 *(.fini2)
 *(.fini2)
 *(.fini1)
 *(.fini1)
 *(.fini0)
 .fini0         0x000003a0        0x4 c:/winavr-20080610/bin/../lib/gcc/avr/4.3.0\libgcc.a(_exit.o)
 *(.fini0)
                0x000003a4                _etext = .

.data           0x00800060       0x42 load address 0x000003a4
                0x00800060                PROVIDE (__data_start, .)
 *(.data)
 .data          0x00800060        0x0 c:/winavr-20080610/bin/../lib/gcc/avr/4.3.0/../../../../avr/lib/crts2313.o
 .data          0x00800060       0x42 CwID.o
                0x008000a1                cwSK
                0x008000a0                cwAS
                0x00800060                chr
 .data          0x008000a2        0x0 c:/winavr-20080610/bin/../lib/gcc/avr/4.3.0\libgcc.a(_exit.o)
 .data          0x008000a2        0x0 c:/winavr-20080610/bin/../lib/gcc/avr/4.3.0\libgcc.a(_copy_data.o)
 .data          0x008000a2        0x0 c:/winavr-20080610/bin/../lib/gcc/avr/4.3.0\libgcc.a(_clear_bss.o)
 .data          0x008000a2        0x0 c:/winavr-20080610/bin/../lib/gcc/avr/4.3.0/../../../../avr/lib\libc.a(toupper.o)
 *(.data*)
 *(.rodata)
 *(.rodata*)
 *(.gnu.linkonce.d*)
                0x008000a2                . = ALIGN (0x2)
                0x008000a2                _edata = .
                0x008000a2                PROVIDE (__data_end, .)

.bss            0x008000a2        0xc load address 0x000003e6
                0x008000a2                PROVIDE (__bss_start, .)
 *(.bss)
 .bss           0x008000a2        0x0 c:/winavr-20080610/bin/../lib/gcc/avr/4.3.0/../../../../avr/lib/crts2313.o
 .bss           0x008000a2        0x0 CwID.o
 .bss           0x008000a2        0x0 c:/winavr-20080610/bin/../lib/gcc/avr/4.3.0\libgcc.a(_exit.o)
 .bss           0x008000a2        0x0 c:/winavr-20080610/bin/../lib/gcc/avr/4.3.0\libgcc.a(_copy_data.o)
 .bss           0x008000a2        0x0 c:/winavr-20080610/bin/../lib/gcc/avr/4.3.0\libgcc.a(_clear_bss.o)
 .bss           0x008000a2        0x0 c:/winavr-20080610/bin/../lib/gcc/avr/4.3.0/../../../../avr/lib\libc.a(toupper.o)
 *(.bss*)
 *(COMMON)
 COMMON         0x008000a2        0xc CwID.o
                0x008000a2                txt
                0x008000a3                j
                0x008000a5                ptr
                0x008000a7                k
                0x008000a9                i
                0x008000ab                ledFlash
                0x008000ac                cwChr
                0x008000ad                chkBit
                0x008000ae                PROVIDE (__bss_end, .)
                0x000003a4                __data_load_start = LOADADDR (.data)
                0x000003e6                __data_load_end = (__data_load_start + SIZEOF (.data))

.noinit         0x008000ae        0x0
                0x008000ae                PROVIDE (__noinit_start, .)
 *(.noinit*)
                0x008000ae                PROVIDE (__noinit_end, .)
                0x008000ae                _end = .
                0x008000ae                PROVIDE (__heap_start, .)

.eeprom         0x00810000       0x80
 *(.eeprom*)
 .eeprom        0x00810000       0x80 CwID.o
                0x00810000                msg
                0x00810080                __eeprom_end = .

.fuse
 *(.fuse)
 *(.lfuse)
 *(.hfuse)
 *(.efuse)

.lock
 *(.lock*)

.signature
 *(.signature*)

.stab
 *(.stab)

.stabstr
 *(.stabstr)

.stab.excl
 *(.stab.excl)

.stab.exclstr
 *(.stab.exclstr)

.stab.index
 *(.stab.index)

.stab.indexstr
 *(.stab.indexstr)

.comment
 *(.comment)

.debug
 *(.debug)

.line
 *(.line)

.debug_srcinfo
 *(.debug_srcinfo)

.debug_sfnames
 *(.debug_sfnames)

.debug_aranges  0x00000000       0x20
 *(.debug_aranges)
 .debug_aranges
                0x00000000       0x20 CwID.o

.debug_pubnames
                0x00000000       0x9a
 *(.debug_pubnames)
 .debug_pubnames
                0x00000000       0x9a CwID.o

.debug_info     0x00000000      0x7c9
 *(.debug_info)
 .debug_info    0x00000000      0x7c9 CwID.o
 *(.gnu.linkonce.wi.*)

.debug_abbrev   0x00000000      0x1d1
 *(.debug_abbrev)
 .debug_abbrev  0x00000000      0x1d1 CwID.o

.debug_line     0x00000000      0x420
 *(.debug_line)
 .debug_line    0x00000000      0x420 CwID.o

.debug_frame    0x00000000       0x40
 *(.debug_frame)
 .debug_frame   0x00000000       0x40 CwID.o

.debug_str      0x00000000      0x1b5
 *(.debug_str)
 .debug_str     0x00000000      0x1b5 CwID.o
                                0x1ee (size before relaxing)

.debug_loc      0x00000000      0x1b0
 *(.debug_loc)
 .debug_loc     0x00000000      0x1b0 CwID.o

.debug_macinfo
 *(.debug_macinfo)
OUTPUT(CwID.elf elf32-avr)
LOAD linker stubs

.debug_ranges   0x00000000       0x90
 .debug_ranges  0x00000000       0x90 CwID.o
