   1               		.file	"led.c"
   2               	__SREG__ = 0x3f
   3               	__SP_H__ = 0x3e
   4               	__SP_L__ = 0x3d
   5               	__CCP__  = 0x34
   6               	__tmp_reg__ = 0
   7               	__zero_reg__ = 1
  15               	.Ltext0:
  16               	.global	led_flip
  18               	led_flip:
  19               	.LFB15:
  20               	.LM1:
  21               	.LVL0:
  22               	/* prologue: function */
  23               	/* frame size = 0 */
  24               	.LM2:
  25 0000 8093 0000 		sts flip,r24
  26               	/* epilogue start */
  27               	.LM3:
  28 0004 0895      		ret
  29               	.LFE15:
  31               	.global	led_shutdown
  33               	led_shutdown:
  34               	.LFB16:
  35               	.LM4:
  36               	/* prologue: function */
  37               	/* frame size = 0 */
  38               	.LM5:
  39 0006 87B7      		in r24,87-32
  40 0008 8B7E      		andi r24,lo8(-21)
  41 000a 87BF      		out 87-32,r24
  42               	.LM6:
  43 000c 8FEF      		ldi r24,lo8(-1)
  44 000e 85BB      		out 53-32,r24
  45               	.LM7:
  46 0010 84BB      		out 52-32,r24
  47               	/* epilogue start */
  48               	.LM8:
  49 0012 0895      		ret
  50               	.LFE16:
  52               	.global	led_framerate
  54               	led_framerate:
  55               	.LFB17:
  56               	.LM9:
  57               	.LVL1:
  58 0014 8F92      		push r8
  59 0016 9F92      		push r9
  60 0018 AF92      		push r10
  61 001a BF92      		push r11
  62 001c CF92      		push r12
  63 001e DF92      		push r13
  64 0020 EF92      		push r14
  65 0022 FF92      		push r15
  66 0024 1F93      		push r17
  67 0026 CF93      		push r28
  68 0028 DF93      		push r29
  69               	/* prologue: function */
  70               	/* frame size = 0 */
  71               	.LM10:
  72 002a 8031      		cpi r24,16
  73 002c 9105      		cpc r25,__zero_reg__
  74 002e 04F4      		brge .L6
  75 0030 80E1      		ldi r24,lo8(16)
  76 0032 90E0      		ldi r25,hi8(16)
  77               	.LVL2:
  78               	.L6:
  79               	.LM11:
  80 0034 9C01      		movw r18,r24
  81 0036 4427      		clr r20
  82 0038 37FD      		sbrc r19,7
  83 003a 4095      		com r20
  84 003c 542F      		mov r21,r20
  85               	.LVL3:
  86 003e 60E4      		ldi r22,lo8(1000000)
  87 0040 72E4      		ldi r23,hi8(1000000)
  88 0042 8FE0      		ldi r24,hlo8(1000000)
  89 0044 90E0      		ldi r25,hhi8(1000000)
  90 0046 0E94 0000 		call __udivmodsi4
  91               	.LVL4:
  92 004a 4901      		movw r8,r18
  93 004c 3093 0000 		sts (frame_time)+1,r19
  94 0050 2093 0000 		sts frame_time,r18
  95 0054 C0E0      		ldi r28,lo8(plane_intensity)
  96 0056 D0E0      		ldi r29,hi8(plane_intensity)
  97 0058 30E0      		ldi r19,lo8(plane_period)
  98 005a A32E      		mov r10,r19
  99 005c 30E0      		ldi r19,hi8(plane_period)
 100 005e B32E      		mov r11,r19
 101               	.LBB6:
 102               	.LBB7:
 103               	.LM12:
 104 0060 6401      		movw r12,r8
 105 0062 EE24      		clr r14
 106 0064 FF24      		clr r15
 107               	.L7:
 108               	.LBE7:
 109               	.LBE6:
 110               	.LM13:
 111 0066 1881      		ld r17,Y
 112               	.LBB9:
 113               	.LBB8:
 114               	.LM14:
 115 0068 812F      		mov r24,r17
 116 006a 90E0      		ldi r25,lo8(0)
 117               	.LM15:
 118 006c 889F      		mul r24,r24
 119 006e 9001      		movw r18,r0
 120 0070 899F      		mul r24,r25
 121 0072 300D      		add r19,r0
 122 0074 989F      		mul r25,r24
 123 0076 300D      		add r19,r0
 124 0078 1124      		clr r1
 125 007a 40E0      		ldi r20,lo8(0)
 126 007c 50E0      		ldi r21,hi8(0)
 127 007e C701      		movw r24,r14
 128 0080 B601      		movw r22,r12
 129 0082 0E94 0000 		call __mulsi3
 130               	.LM16:
 131 0086 BC01      		movw r22,r24
 132 0088 8827      		clr r24
 133 008a 9927      		clr r25
 134               	.LVL5:
 135 008c C401      		movw r24,r8
 136 008e 861B      		sub r24,r22
 137 0090 970B      		sbc r25,r23
 138 0092 F501      		movw r30,r10
 139 0094 8193      		st Z+,r24
 140 0096 9193      		st Z+,r25
 141 0098 5F01      		movw r10,r30
 142               	.LM17:
 143 009a 1993      		st Y+,r17
 144               	.LBE8:
 145               	.LBE9:
 146               	.LM18:
 147 009c F0E0      		ldi r31,hi8(plane_intensity+8)
 148 009e C030      		cpi r28,lo8(plane_intensity+8)
 149 00a0 DF07      		cpc r29,r31
 150 00a2 01F4      		brne .L7
 151               	/* epilogue start */
 152               	.LM19:
 153 00a4 DF91      		pop r29
 154 00a6 CF91      		pop r28
 155 00a8 1F91      		pop r17
 156 00aa FF90      		pop r15
 157 00ac EF90      		pop r14
 158 00ae DF90      		pop r13
 159 00b0 CF90      		pop r12
 160 00b2 BF90      		pop r11
 161 00b4 AF90      		pop r10
 162 00b6 9F90      		pop r9
 163 00b8 8F90      		pop r8
 164 00ba 0895      		ret
 165               	.LFE17:
 167               	.global	led_plane_intensity
 169               	led_plane_intensity:
 170               	.LFB18:
 171               	.LM20:
 172               	.LVL6:
 173 00bc EF92      		push r14
 174 00be FF92      		push r15
 175 00c0 0F93      		push r16
 176 00c2 1F93      		push r17
 177               	/* prologue: function */
 178               	/* frame size = 0 */
 179 00c4 E82E      		mov r14,r24
 180 00c6 F62E      		mov r15,r22
 181               	.LM21:
 182 00c8 862F      		mov r24,r22
 183               	.LVL7:
 184 00ca 90E0      		ldi r25,lo8(0)
 185               	.LM22:
 186 00cc 0091 0000 		lds r16,frame_time
 187 00d0 1091 0000 		lds r17,(frame_time)+1
 188 00d4 889F      		mul r24,r24
 189 00d6 B001      		movw r22,r0
 190 00d8 899F      		mul r24,r25
 191 00da 700D      		add r23,r0
 192 00dc 989F      		mul r25,r24
 193 00de 700D      		add r23,r0
 194 00e0 1124      		clr r1
 195               	.LVL8:
 196 00e2 80E0      		ldi r24,lo8(0)
 197 00e4 90E0      		ldi r25,hi8(0)
 198 00e6 9801      		movw r18,r16
 199 00e8 40E0      		ldi r20,lo8(0)
 200 00ea 50E0      		ldi r21,hi8(0)
 201 00ec 0E94 0000 		call __mulsi3
 202               	.LM23:
 203 00f0 AE2D      		mov r26,r14
 204 00f2 B0E0      		ldi r27,lo8(0)
 205 00f4 FD01      		movw r30,r26
 206 00f6 EE0F      		lsl r30
 207 00f8 FF1F      		rol r31
 208 00fa E050      		subi r30,lo8(-(plane_period))
 209 00fc F040      		sbci r31,hi8(-(plane_period))
 210 00fe BC01      		movw r22,r24
 211 0100 8827      		clr r24
 212 0102 9927      		clr r25
 213               	.LVL9:
 214 0104 061B      		sub r16,r22
 215 0106 170B      		sbc r17,r23
 216 0108 1183      		std Z+1,r17
 217 010a 0083      		st Z,r16
 218               	.LM24:
 219 010c A050      		subi r26,lo8(-(plane_intensity))
 220 010e B040      		sbci r27,hi8(-(plane_intensity))
 221 0110 FC92      		st X,r15
 222               	/* epilogue start */
 223               	.LM25:
 224 0112 1F91      		pop r17
 225 0114 0F91      		pop r16
 226 0116 FF90      		pop r15
 227               	.LVL10:
 228 0118 EF90      		pop r14
 229               	.LVL11:
 230 011a 0895      		ret
 231               	.LFE18:
 233               	.global	led_plane_intensity_all
 235               	led_plane_intensity_all:
 236               	.LFB19:
 237               	.LM26:
 238               	.LVL12:
 239 011c FF92      		push r15
 240 011e 0F93      		push r16
 241 0120 1F93      		push r17
 242               	/* prologue: function */
 243               	/* frame size = 0 */
 244 0122 F82E      		mov r15,r24
 245               	.LM27:
 246 0124 90E0      		ldi r25,lo8(0)
 247               	.LM28:
 248 0126 0091 0000 		lds r16,frame_time
 249 012a 1091 0000 		lds r17,(frame_time)+1
 250 012e 889F      		mul r24,r24
 251 0130 B001      		movw r22,r0
 252 0132 899F      		mul r24,r25
 253 0134 700D      		add r23,r0
 254 0136 989F      		mul r25,r24
 255 0138 700D      		add r23,r0
 256 013a 1124      		clr r1
 257               	.LVL13:
 258 013c 80E0      		ldi r24,lo8(0)
 259 013e 90E0      		ldi r25,hi8(0)
 260 0140 9801      		movw r18,r16
 261 0142 40E0      		ldi r20,lo8(0)
 262 0144 50E0      		ldi r21,hi8(0)
 263 0146 0E94 0000 		call __mulsi3
 264               	.LM29:
 265 014a BC01      		movw r22,r24
 266 014c 8827      		clr r24
 267 014e 9927      		clr r25
 268               	.LVL14:
 269 0150 061B      		sub r16,r22
 270 0152 170B      		sbc r17,r23
 271 0154 1093 0000 		sts (plane_period)+1,r17
 272 0158 0093 0000 		sts plane_period,r16
 273               	.LM30:
 274 015c F092 0000 		sts plane_intensity,r15
 275               	.LM31:
 276 0160 1093 0000 		sts (plane_period+2)+1,r17
 277 0164 0093 0000 		sts plane_period+2,r16
 278               	.LM32:
 279 0168 F092 0000 		sts plane_intensity+1,r15
 280               	.LM33:
 281 016c 1093 0000 		sts (plane_period+4)+1,r17
 282 0170 0093 0000 		sts plane_period+4,r16
 283               	.LM34:
 284 0174 F092 0000 		sts plane_intensity+2,r15
 285               	.LM35:
 286 0178 1093 0000 		sts (plane_period+6)+1,r17
 287 017c 0093 0000 		sts plane_period+6,r16
 288               	.LM36:
 289 0180 F092 0000 		sts plane_intensity+3,r15
 290               	.LM37:
 291 0184 1093 0000 		sts (plane_period+8)+1,r17
 292 0188 0093 0000 		sts plane_period+8,r16
 293               	.LM38:
 294 018c F092 0000 		sts plane_intensity+4,r15
 295               	.LM39:
 296 0190 1093 0000 		sts (plane_period+10)+1,r17
 297 0194 0093 0000 		sts plane_period+10,r16
 298               	.LM40:
 299 0198 F092 0000 		sts plane_intensity+5,r15
 300               	.LM41:
 301 019c 1093 0000 		sts (plane_period+12)+1,r17
 302 01a0 0093 0000 		sts plane_period+12,r16
 303               	.LM42:
 304 01a4 F092 0000 		sts plane_intensity+6,r15
 305               	.LM43:
 306 01a8 1093 0000 		sts (plane_period+14)+1,r17
 307 01ac 0093 0000 		sts plane_period+14,r16
 308               	.LM44:
 309 01b0 F092 0000 		sts plane_intensity+7,r15
 310               	/* epilogue start */
 311               	.LM45:
 312 01b4 1F91      		pop r17
 313 01b6 0F91      		pop r16
 314 01b8 FF90      		pop r15
 315               	.LVL15:
 316 01ba 0895      		ret
 317               	.LFE19:
 319               	.global	led_point
 321               	led_point:
 322               	.LFB20:
 323               	.LM46:
 324               	.LVL16:
 325               	/* prologue: function */
 326               	/* frame size = 0 */
 327 01bc 382F      		mov r19,r24
 328               	.LM47:
 329 01be 862F      		mov r24,r22
 330               	.LVL17:
 331 01c0 832B      		or r24,r19
 332 01c2 842B      		or r24,r20
 333 01c4 887F      		andi r24,lo8(-8)
 334 01c6 01F4      		brne .L17
 335 01c8 70E0      		ldi r23,lo8(0)
 336               	.LVL18:
 337 01ca 50E0      		ldi r21,lo8(0)
 338               	.LVL19:
 339               	.LM48:
 340 01cc 2223      		tst r18
 341 01ce 01F0      		breq .L16
 342               	.LM49:
 343 01d0 FB01      		movw r30,r22
 344 01d2 B3E0      		ldi r27,3
 345 01d4 EE0F      	1:	lsl r30
 346 01d6 FF1F      		rol r31
 347 01d8 BA95      		dec r27
 348 01da 01F4      		brne 1b
 349 01dc E40F      		add r30,r20
 350 01de F51F      		adc r31,r21
 351 01e0 E050      		subi r30,lo8(-(led_frame_bitmap))
 352 01e2 F040      		sbci r31,hi8(-(led_frame_bitmap))
 353 01e4 80E8      		ldi r24,lo8(128)
 354 01e6 90E0      		ldi r25,hi8(128)
 355 01e8 00C0      		rjmp 2f
 356 01ea 9595      	1:	asr r25
 357 01ec 8795      		ror r24
 358 01ee 3A95      	2:	dec r19
 359 01f0 02F4      		brpl 1b
 360 01f2 2081      		ld r18,Z
 361               	.LVL20:
 362 01f4 282B      		or r18,r24
 363 01f6 2083      		st Z,r18
 364 01f8 0895      		ret
 365               	.LVL21:
 366               	.L16:
 367               	.LM50:
 368 01fa FB01      		movw r30,r22
 369 01fc A3E0      		ldi r26,3
 370 01fe EE0F      	1:	lsl r30
 371 0200 FF1F      		rol r31
 372 0202 AA95      		dec r26
 373 0204 01F4      		brne 1b
 374 0206 E40F      		add r30,r20
 375 0208 F51F      		adc r31,r21
 376 020a E050      		subi r30,lo8(-(led_frame_bitmap))
 377 020c F040      		sbci r31,hi8(-(led_frame_bitmap))
 378 020e 80E8      		ldi r24,lo8(128)
 379 0210 90E0      		ldi r25,hi8(128)
 380 0212 00C0      		rjmp 2f
 381 0214 9595      	1:	asr r25
 382 0216 8795      		ror r24
 383 0218 3A95      	2:	dec r19
 384 021a 02F4      		brpl 1b
 385 021c 8095      		com r24
 386 021e 2081      		ld r18,Z
 387               	.LVL22:
 388 0220 2823      		and r18,r24
 389 0222 2083      		st Z,r18
 390               	.LVL23:
 391               	.L17:
 392 0224 0895      		ret
 393               	.LFE20:
 395               	.global	led_line
 397               	led_line:
 398               	.LFB22:
 399               	.LM51:
 400               	.LVL24:
 401 0226 2F92      		push r2
 402 0228 3F92      		push r3
 403 022a 4F92      		push r4
 404 022c 5F92      		push r5
 405 022e 6F92      		push r6
 406 0230 7F92      		push r7
 407 0232 8F92      		push r8
 408 0234 9F92      		push r9
 409 0236 AF92      		push r10
 410 0238 BF92      		push r11
 411 023a CF92      		push r12
 412               	.LVL25:
 413 023c DF92      		push r13
 414 023e EF92      		push r14
 415               	.LVL26:
 416 0240 FF92      		push r15
 417 0242 0F93      		push r16
 418               	.LVL27:
 419 0244 1F93      		push r17
 420 0246 DF93      		push r29
 421 0248 CF93      		push r28
 422 024a CDB7      		in r28,__SP_L__
 423 024c DEB7      		in r29,__SP_H__
 424 024e 2D97      		sbiw r28,13
 425 0250 0FB6      		in __tmp_reg__,__SREG__
 426 0252 F894      		cli
 427 0254 DEBF      		out __SP_H__,r29
 428 0256 0FBE      		out __SREG__,__tmp_reg__
 429 0258 CDBF      		out __SP_L__,r28
 430               	/* prologue: function */
 431               	/* frame size = 13 */
 432 025a 5C01      		movw r10,r24
 433 025c 3E83      		std Y+6,r19
 434 025e 2D83      		std Y+5,r18
 435 0260 1887      		std Y+8,r17
 436 0262 0F83      		std Y+7,r16
 437               	.LVL28:
 438 0264 FA86      		std Y+10,r15
 439 0266 E986      		std Y+9,r14
 440               	.LVL29:
 441 0268 CB86      		std Y+11,r12
 442               	.LVL30:
 443               	.LM52:
 444 026a 281B      		sub r18,r24
 445 026c 390B      		sbc r19,r25
 446               	.LVL31:
 447               	.LM53:
 448 026e 1801      		movw r2,r16
 449               	.LVL32:
 450 0270 261A      		sub r2,r22
 451 0272 370A      		sbc r3,r23
 452               	.LM54:
 453 0274 D701      		movw r26,r14
 454               	.LVL33:
 455 0276 A41B      		sub r26,r20
 456 0278 B50B      		sbc r27,r21
 457               	.LM55:
 458 027a C901      		movw r24,r18
 459               	.LVL34:
 460 027c 37FF      		sbrs r19,7
 461 027e 00C0      		rjmp .L19
 462               	.LVL35:
 463 0280 8827      		clr r24
 464 0282 9927      		clr r25
 465 0284 821B      		sub r24,r18
 466 0286 930B      		sbc r25,r19
 467               	.LVL36:
 468               	.L19:
 469 0288 2C01      		movw r4,r24
 470               	.LVL37:
 471 028a 440C      		lsl r4
 472 028c 551C      		rol r5
 473               	.LM56:
 474 028e C101      		movw r24,r2
 475               	.LVL38:
 476 0290 37FE      		sbrs r3,7
 477 0292 00C0      		rjmp .L20
 478 0294 8827      		clr r24
 479 0296 9927      		clr r25
 480 0298 8219      		sub r24,r2
 481 029a 9309      		sbc r25,r3
 482               	.LVL39:
 483               	.L20:
 484 029c 3C01      		movw r6,r24
 485               	.LVL40:
 486 029e 660C      		lsl r6
 487 02a0 771C      		rol r7
 488               	.LM57:
 489 02a2 CD01      		movw r24,r26
 490               	.LVL41:
 491 02a4 B7FF      		sbrs r27,7
 492 02a6 00C0      		rjmp .L21
 493 02a8 8827      		clr r24
 494 02aa 9927      		clr r25
 495 02ac 8A1B      		sub r24,r26
 496 02ae 9B0B      		sbc r25,r27
 497               	.LVL42:
 498               	.L21:
 499 02b0 4C01      		movw r8,r24
 500               	.LVL43:
 501 02b2 880C      		lsl r8
 502 02b4 991C      		rol r9
 503               	.LM58:
 504 02b6 37FF      		sbrs r19,7
 505 02b8 00C0      		rjmp .L22
 506 02ba 2FEF      		ldi r18,lo8(-1)
 507 02bc 3FEF      		ldi r19,hi8(-1)
 508               	.LVL44:
 509 02be 3C83      		std Y+4,r19
 510 02c0 2B83      		std Y+3,r18
 511               	.LVL45:
 512 02c2 00C0      		rjmp .L23
 513               	.LVL46:
 514               	.L22:
 515 02c4 1C82      		std Y+4,__zero_reg__
 516 02c6 1B82      		std Y+3,__zero_reg__
 517               	.LVL47:
 518 02c8 1216      		cp __zero_reg__,r18
 519 02ca 1306      		cpc __zero_reg__,r19
 520 02cc 04F4      		brge .L23
 521 02ce 81E0      		ldi r24,lo8(1)
 522 02d0 90E0      		ldi r25,hi8(1)
 523               	.LVL48:
 524 02d2 9C83      		std Y+4,r25
 525 02d4 8B83      		std Y+3,r24
 526               	.LVL49:
 527               	.L23:
 528               	.LM59:
 529 02d6 37FE      		sbrs r3,7
 530 02d8 00C0      		rjmp .L25
 531 02da EFEF      		ldi r30,lo8(-1)
 532 02dc FFEF      		ldi r31,hi8(-1)
 533 02de FA83      		std Y+2,r31
 534 02e0 E983      		std Y+1,r30
 535               	.LVL50:
 536 02e2 00C0      		rjmp .L26
 537               	.LVL51:
 538               	.L25:
 539 02e4 1A82      		std Y+2,__zero_reg__
 540 02e6 1982      		std Y+1,__zero_reg__
 541               	.LVL52:
 542 02e8 1214      		cp __zero_reg__,r2
 543 02ea 1304      		cpc __zero_reg__,r3
 544 02ec 04F4      		brge .L26
 545 02ee 21E0      		ldi r18,lo8(1)
 546 02f0 30E0      		ldi r19,hi8(1)
 547               	.LVL53:
 548 02f2 3A83      		std Y+2,r19
 549 02f4 2983      		std Y+1,r18
 550               	.LVL54:
 551               	.L26:
 552               	.LM60:
 553 02f6 B7FF      		sbrs r27,7
 554 02f8 00C0      		rjmp .L28
 555 02fa 2224      		clr r2
 556 02fc 2A94      		dec r2
 557 02fe 322C      		mov r3,r2
 558               	.LVL55:
 559 0300 00C0      		rjmp .L29
 560               	.LVL56:
 561               	.L28:
 562 0302 2224      		clr r2
 563 0304 3324      		clr r3
 564               	.LVL57:
 565 0306 1A16      		cp __zero_reg__,r26
 566 0308 1B06      		cpc __zero_reg__,r27
 567 030a 04F4      		brge .L29
 568 030c 31E0      		ldi r19,lo8(1)
 569 030e 232E      		mov r2,r19
 570 0310 312C      		mov r3,__zero_reg__
 571               	.L29:
 572               	.LM61:
 573 0312 C401      		movw r24,r8
 574 0314 8614      		cp r8,r6
 575 0316 9704      		cpc r9,r7
 576 0318 04F4      		brge .L32
 577 031a C301      		movw r24,r6
 578               	.LVL58:
 579               	.L32:
 580 031c 4816      		cp r4,r24
 581 031e 5906      		cpc r5,r25
 582 0320 04F0      		brlt .L31
 583               	.LM62:
 584 0322 C201      		movw r24,r4
 585               	.LVL59:
 586 0324 9595      		asr r25
 587 0326 8795      		ror r24
 588               	.LVL60:
 589 0328 D301      		movw r26,r6
 590               	.LVL61:
 591 032a A81B      		sub r26,r24
 592 032c B90B      		sbc r27,r25
 593 032e BD87      		std Y+13,r27
 594 0330 AC87      		std Y+12,r26
 595               	.LVL62:
 596               	.LM63:
 597 0332 8401      		movw r16,r8
 598               	.LVL63:
 599 0334 081B      		sub r16,r24
 600 0336 190B      		sbc r17,r25
 601 0338 7501      		movw r14,r10
 602               	.LVL64:
 603 033a 5B01      		movw r10,r22
 604               	.LVL65:
 605 033c 6A01      		movw r12,r20
 606               	.LVL66:
 607               	.L36:
 608               	.LM64:
 609 033e 8E2D      		mov r24,r14
 610 0340 6A2D      		mov r22,r10
 611               	.LVL67:
 612 0342 4C2D      		mov r20,r12
 613               	.LVL68:
 614 0344 2B85      		ldd r18,Y+11
 615 0346 0E94 0000 		call led_point
 616               	.LM65:
 617 034a ED81      		ldd r30,Y+5
 618 034c FE81      		ldd r31,Y+6
 619 034e EE16      		cp r14,r30
 620 0350 FF06      		cpc r15,r31
 621 0352 01F4      		brne .+2
 622 0354 00C0      		rjmp .L46
 623               	.LM66:
 624 0356 2C85      		ldd r18,Y+12
 625 0358 3D85      		ldd r19,Y+13
 626 035a 37FD      		sbrc r19,7
 627 035c 00C0      		rjmp .L34
 628               	.LM67:
 629 035e 8981      		ldd r24,Y+1
 630 0360 9A81      		ldd r25,Y+2
 631 0362 A80E      		add r10,r24
 632 0364 B91E      		adc r11,r25
 633               	.LM68:
 634 0366 2419      		sub r18,r4
 635 0368 3509      		sbc r19,r5
 636 036a 3D87      		std Y+13,r19
 637 036c 2C87      		std Y+12,r18
 638               	.LVL69:
 639               	.L34:
 640               	.LM69:
 641 036e 17FD      		sbrc r17,7
 642 0370 00C0      		rjmp .L35
 643               	.LM70:
 644 0372 C20C      		add r12,r2
 645 0374 D31C      		adc r13,r3
 646               	.LM71:
 647 0376 0419      		sub r16,r4
 648 0378 1509      		sbc r17,r5
 649               	.L35:
 650               	.LM72:
 651 037a AB81      		ldd r26,Y+3
 652 037c BC81      		ldd r27,Y+4
 653 037e EA0E      		add r14,r26
 654 0380 FB1E      		adc r15,r27
 655               	.LM73:
 656 0382 EC85      		ldd r30,Y+12
 657 0384 FD85      		ldd r31,Y+13
 658 0386 E60D      		add r30,r6
 659 0388 F71D      		adc r31,r7
 660 038a FD87      		std Y+13,r31
 661 038c EC87      		std Y+12,r30
 662               	.LVL70:
 663               	.LM74:
 664 038e 080D      		add r16,r8
 665 0390 191D      		adc r17,r9
 666 0392 00C0      		rjmp .L36
 667               	.LVL71:
 668               	.L31:
 669               	.LM75:
 670 0394 C401      		movw r24,r8
 671 0396 8414      		cp r8,r4
 672 0398 9504      		cpc r9,r5
 673 039a 04F4      		brge .L38
 674               	.LVL72:
 675 039c C201      		movw r24,r4
 676               	.LVL73:
 677               	.L38:
 678 039e 6816      		cp r6,r24
 679 03a0 7906      		cpc r7,r25
 680 03a2 04F0      		brlt .L37
 681               	.LM76:
 682 03a4 C301      		movw r24,r6
 683               	.LVL74:
 684 03a6 9595      		asr r25
 685 03a8 8795      		ror r24
 686               	.LVL75:
 687 03aa 9201      		movw r18,r4
 688               	.LVL76:
 689 03ac 281B      		sub r18,r24
 690 03ae 390B      		sbc r19,r25
 691 03b0 3D87      		std Y+13,r19
 692 03b2 2C87      		std Y+12,r18
 693               	.LVL77:
 694               	.LM77:
 695 03b4 7401      		movw r14,r8
 696               	.LVL78:
 697 03b6 E81A      		sub r14,r24
 698 03b8 F90A      		sbc r15,r25
 699 03ba 8B01      		movw r16,r22
 700               	.LVL79:
 701 03bc 6A01      		movw r12,r20
 702               	.LVL80:
 703               	.L41:
 704               	.LM78:
 705 03be 8A2D      		mov r24,r10
 706 03c0 602F      		mov r22,r16
 707               	.LVL81:
 708 03c2 4C2D      		mov r20,r12
 709               	.LVL82:
 710 03c4 2B85      		ldd r18,Y+11
 711 03c6 0E94 0000 		call led_point
 712               	.LVL83:
 713               	.LM79:
 714 03ca 8F81      		ldd r24,Y+7
 715 03cc 9885      		ldd r25,Y+8
 716 03ce 0817      		cp r16,r24
 717 03d0 1907      		cpc r17,r25
 718 03d2 01F4      		brne .+2
 719 03d4 00C0      		rjmp .L46
 720               	.LM80:
 721 03d6 AC85      		ldd r26,Y+12
 722 03d8 BD85      		ldd r27,Y+13
 723 03da B7FD      		sbrc r27,7
 724 03dc 00C0      		rjmp .L39
 725               	.LM81:
 726 03de EB81      		ldd r30,Y+3
 727 03e0 FC81      		ldd r31,Y+4
 728 03e2 AE0E      		add r10,r30
 729 03e4 BF1E      		adc r11,r31
 730               	.LVL84:
 731               	.LM82:
 732 03e6 A619      		sub r26,r6
 733 03e8 B709      		sbc r27,r7
 734 03ea BD87      		std Y+13,r27
 735 03ec AC87      		std Y+12,r26
 736               	.LVL85:
 737               	.L39:
 738               	.LM83:
 739 03ee F7FC      		sbrc r15,7
 740 03f0 00C0      		rjmp .L40
 741               	.LM84:
 742 03f2 C20C      		add r12,r2
 743 03f4 D31C      		adc r13,r3
 744               	.LM85:
 745 03f6 E618      		sub r14,r6
 746 03f8 F708      		sbc r15,r7
 747               	.L40:
 748               	.LM86:
 749 03fa 2981      		ldd r18,Y+1
 750 03fc 3A81      		ldd r19,Y+2
 751 03fe 020F      		add r16,r18
 752 0400 131F      		adc r17,r19
 753               	.LM87:
 754 0402 8C85      		ldd r24,Y+12
 755 0404 9D85      		ldd r25,Y+13
 756 0406 840D      		add r24,r4
 757 0408 951D      		adc r25,r5
 758 040a 9D87      		std Y+13,r25
 759 040c 8C87      		std Y+12,r24
 760               	.LVL86:
 761               	.LM88:
 762 040e E80C      		add r14,r8
 763 0410 F91C      		adc r15,r9
 764 0412 00C0      		rjmp .L41
 765               	.LVL87:
 766               	.L37:
 767               	.LM89:
 768 0414 C301      		movw r24,r6
 769               	.LVL88:
 770 0416 6414      		cp r6,r4
 771 0418 7504      		cpc r7,r5
 772 041a 04F4      		brge .L42
 773 041c C201      		movw r24,r4
 774               	.LVL89:
 775               	.L42:
 776 041e 8816      		cp r8,r24
 777 0420 9906      		cpc r9,r25
 778 0422 04F0      		brlt .L46
 779               	.LM90:
 780 0424 C401      		movw r24,r8
 781               	.LVL90:
 782 0426 9595      		asr r25
 783 0428 8795      		ror r24
 784 042a 7201      		movw r14,r4
 785               	.LVL91:
 786 042c E81A      		sub r14,r24
 787 042e F90A      		sbc r15,r25
 788               	.LM91:
 789 0430 8301      		movw r16,r6
 790               	.LVL92:
 791 0432 081B      		sub r16,r24
 792 0434 190B      		sbc r17,r25
 793 0436 6B01      		movw r12,r22
 794               	.LVL93:
 795 0438 5D87      		std Y+13,r21
 796 043a 4C87      		std Y+12,r20
 797               	.LVL94:
 798               	.L45:
 799               	.LM92:
 800 043c 8A2D      		mov r24,r10
 801 043e 6C2D      		mov r22,r12
 802               	.LVL95:
 803 0440 4C85      		ldd r20,Y+12
 804               	.LVL96:
 805 0442 2B85      		ldd r18,Y+11
 806               	.LVL97:
 807 0444 0E94 0000 		call led_point
 808               	.LVL98:
 809               	.LM93:
 810 0448 AC85      		ldd r26,Y+12
 811 044a BD85      		ldd r27,Y+13
 812 044c E985      		ldd r30,Y+9
 813 044e FA85      		ldd r31,Y+10
 814 0450 AE17      		cp r26,r30
 815 0452 BF07      		cpc r27,r31
 816 0454 01F0      		breq .L46
 817               	.LM94:
 818 0456 F7FC      		sbrc r15,7
 819 0458 00C0      		rjmp .L43
 820               	.LM95:
 821 045a 2B81      		ldd r18,Y+3
 822 045c 3C81      		ldd r19,Y+4
 823 045e A20E      		add r10,r18
 824 0460 B31E      		adc r11,r19
 825               	.LVL99:
 826               	.LM96:
 827 0462 E818      		sub r14,r8
 828 0464 F908      		sbc r15,r9
 829               	.LVL100:
 830               	.L43:
 831               	.LM97:
 832 0466 17FD      		sbrc r17,7
 833 0468 00C0      		rjmp .L44
 834               	.LM98:
 835 046a 8981      		ldd r24,Y+1
 836 046c 9A81      		ldd r25,Y+2
 837 046e C80E      		add r12,r24
 838 0470 D91E      		adc r13,r25
 839               	.LM99:
 840 0472 0819      		sub r16,r8
 841 0474 1909      		sbc r17,r9
 842               	.L44:
 843               	.LM100:
 844 0476 AC85      		ldd r26,Y+12
 845 0478 BD85      		ldd r27,Y+13
 846 047a A20D      		add r26,r2
 847 047c B31D      		adc r27,r3
 848 047e BD87      		std Y+13,r27
 849 0480 AC87      		std Y+12,r26
 850               	.LVL101:
 851               	.LM101:
 852 0482 E40C      		add r14,r4
 853 0484 F51C      		adc r15,r5
 854               	.LM102:
 855 0486 060D      		add r16,r6
 856 0488 171D      		adc r17,r7
 857 048a 00C0      		rjmp .L45
 858               	.LVL102:
 859               	.L46:
 860               	/* epilogue start */
 861               	.LM103:
 862 048c 2D96      		adiw r28,13
 863 048e 0FB6      		in __tmp_reg__,__SREG__
 864 0490 F894      		cli
 865 0492 DEBF      		out __SP_H__,r29
 866 0494 0FBE      		out __SREG__,__tmp_reg__
 867 0496 CDBF      		out __SP_L__,r28
 868 0498 CF91      		pop r28
 869 049a DF91      		pop r29
 870 049c 1F91      		pop r17
 871 049e 0F91      		pop r16
 872               	.LVL103:
 873 04a0 FF90      		pop r15
 874 04a2 EF90      		pop r14
 875               	.LVL104:
 876 04a4 DF90      		pop r13
 877 04a6 CF90      		pop r12
 878               	.LVL105:
 879 04a8 BF90      		pop r11
 880 04aa AF90      		pop r10
 881               	.LVL106:
 882 04ac 9F90      		pop r9
 883 04ae 8F90      		pop r8
 884               	.LVL107:
 885 04b0 7F90      		pop r7
 886 04b2 6F90      		pop r6
 887               	.LVL108:
 888 04b4 5F90      		pop r5
 889 04b6 4F90      		pop r4
 890               	.LVL109:
 891 04b8 3F90      		pop r3
 892 04ba 2F90      		pop r2
 893               	.LVL110:
 894 04bc 0895      		ret
 895               	.LFE22:
 897               	.global	led_plane_y_left
 899               	led_plane_y_left:
 900               	.LFB26:
 901               	.LM104:
 902               	.LVL111:
 903               	/* prologue: function */
 904               	/* frame size = 0 */
 905               	.LM105:
 906 04be 880F      		lsl r24
 907 04c0 880F      		lsl r24
 908 04c2 880F      		lsl r24
 909               	.LVL112:
 910               	.LM106:
 911 04c4 A0E0      		ldi r26,lo8(led_frame_bitmap)
 912 04c6 B0E0      		ldi r27,hi8(led_frame_bitmap)
 913 04c8 FD01      		movw r30,r26
 914 04ca E80F      		add r30,r24
 915 04cc F11D      		adc r31,__zero_reg__
 916 04ce 9081      		ld r25,Z
 917 04d0 990F      		lsl r25
 918 04d2 9083      		st Z,r25
 919 04d4 8F5F      		subi r24,lo8(-(1))
 920               	.LVL113:
 921               	.LM107:
 922 04d6 FD01      		movw r30,r26
 923 04d8 E80F      		add r30,r24
 924 04da F11D      		adc r31,__zero_reg__
 925 04dc 9081      		ld r25,Z
 926 04de 990F      		lsl r25
 927 04e0 9083      		st Z,r25
 928 04e2 8F5F      		subi r24,lo8(-(1))
 929               	.LVL114:
 930               	.LM108:
 931 04e4 FD01      		movw r30,r26
 932 04e6 E80F      		add r30,r24
 933 04e8 F11D      		adc r31,__zero_reg__
 934 04ea 9081      		ld r25,Z
 935 04ec 990F      		lsl r25
 936 04ee 9083      		st Z,r25
 937 04f0 8F5F      		subi r24,lo8(-(1))
 938               	.LVL115:
 939               	.LM109:
 940 04f2 FD01      		movw r30,r26
 941 04f4 E80F      		add r30,r24
 942 04f6 F11D      		adc r31,__zero_reg__
 943 04f8 9081      		ld r25,Z
 944 04fa 990F      		lsl r25
 945 04fc 9083      		st Z,r25
 946 04fe 8F5F      		subi r24,lo8(-(1))
 947               	.LVL116:
 948               	.LM110:
 949 0500 FD01      		movw r30,r26
 950 0502 E80F      		add r30,r24
 951 0504 F11D      		adc r31,__zero_reg__
 952 0506 9081      		ld r25,Z
 953 0508 990F      		lsl r25
 954 050a 9083      		st Z,r25
 955 050c 8F5F      		subi r24,lo8(-(1))
 956               	.LVL117:
 957               	.LM111:
 958 050e FD01      		movw r30,r26
 959 0510 E80F      		add r30,r24
 960 0512 F11D      		adc r31,__zero_reg__
 961 0514 9081      		ld r25,Z
 962 0516 990F      		lsl r25
 963 0518 9083      		st Z,r25
 964 051a 8F5F      		subi r24,lo8(-(1))
 965               	.LVL118:
 966               	.LM112:
 967 051c FD01      		movw r30,r26
 968 051e E80F      		add r30,r24
 969 0520 F11D      		adc r31,__zero_reg__
 970 0522 9081      		ld r25,Z
 971 0524 990F      		lsl r25
 972 0526 9083      		st Z,r25
 973               	.LM113:
 974 0528 8F5F      		subi r24,lo8(-(1))
 975 052a A80F      		add r26,r24
 976 052c B11D      		adc r27,__zero_reg__
 977 052e 8C91      		ld r24,X
 978               	.LVL119:
 979 0530 880F      		lsl r24
 980 0532 8C93      		st X,r24
 981               	/* epilogue start */
 982               	.LM114:
 983 0534 0895      		ret
 984               	.LFE26:
 986               	.global	led_plane_y_right
 988               	led_plane_y_right:
 989               	.LFB27:
 990               	.LM115:
 991               	.LVL120:
 992               	/* prologue: function */
 993               	/* frame size = 0 */
 994               	.LM116:
 995 0536 880F      		lsl r24
 996 0538 880F      		lsl r24
 997 053a 880F      		lsl r24
 998               	.LVL121:
 999               	.LM117:
 1000 053c A0E0      		ldi r26,lo8(led_frame_bitmap)
 1001 053e B0E0      		ldi r27,hi8(led_frame_bitmap)
 1002 0540 FD01      		movw r30,r26
 1003 0542 E80F      		add r30,r24
 1004 0544 F11D      		adc r31,__zero_reg__
 1005 0546 9081      		ld r25,Z
 1006 0548 9695      		lsr r25
 1007 054a 9083      		st Z,r25
 1008 054c 8F5F      		subi r24,lo8(-(1))
 1009               	.LVL122:
 1010               	.LM118:
 1011 054e FD01      		movw r30,r26
 1012 0550 E80F      		add r30,r24
 1013 0552 F11D      		adc r31,__zero_reg__
 1014 0554 9081      		ld r25,Z
 1015 0556 9695      		lsr r25
 1016 0558 9083      		st Z,r25
 1017 055a 8F5F      		subi r24,lo8(-(1))
 1018               	.LVL123:
 1019               	.LM119:
 1020 055c FD01      		movw r30,r26
 1021 055e E80F      		add r30,r24
 1022 0560 F11D      		adc r31,__zero_reg__
 1023 0562 9081      		ld r25,Z
 1024 0564 9695      		lsr r25
 1025 0566 9083      		st Z,r25
 1026 0568 8F5F      		subi r24,lo8(-(1))
 1027               	.LVL124:
 1028               	.LM120:
 1029 056a FD01      		movw r30,r26
 1030 056c E80F      		add r30,r24
 1031 056e F11D      		adc r31,__zero_reg__
 1032 0570 9081      		ld r25,Z
 1033 0572 9695      		lsr r25
 1034 0574 9083      		st Z,r25
 1035 0576 8F5F      		subi r24,lo8(-(1))
 1036               	.LVL125:
 1037               	.LM121:
 1038 0578 FD01      		movw r30,r26
 1039 057a E80F      		add r30,r24
 1040 057c F11D      		adc r31,__zero_reg__
 1041 057e 9081      		ld r25,Z
 1042 0580 9695      		lsr r25
 1043 0582 9083      		st Z,r25
 1044 0584 8F5F      		subi r24,lo8(-(1))
 1045               	.LVL126:
 1046               	.LM122:
 1047 0586 FD01      		movw r30,r26
 1048 0588 E80F      		add r30,r24
 1049 058a F11D      		adc r31,__zero_reg__
 1050 058c 9081      		ld r25,Z
 1051 058e 9695      		lsr r25
 1052 0590 9083      		st Z,r25
 1053 0592 8F5F      		subi r24,lo8(-(1))
 1054               	.LVL127:
 1055               	.LM123:
 1056 0594 FD01      		movw r30,r26
 1057 0596 E80F      		add r30,r24
 1058 0598 F11D      		adc r31,__zero_reg__
 1059 059a 9081      		ld r25,Z
 1060 059c 9695      		lsr r25
 1061 059e 9083      		st Z,r25
 1062               	.LM124:
 1063 05a0 8F5F      		subi r24,lo8(-(1))
 1064 05a2 A80F      		add r26,r24
 1065 05a4 B11D      		adc r27,__zero_reg__
 1066 05a6 8C91      		ld r24,X
 1067               	.LVL128:
 1068 05a8 8695      		lsr r24
 1069 05aa 8C93      		st X,r24
 1070               	/* epilogue start */
 1071               	.LM125:
 1072 05ac 0895      		ret
 1073               	.LFE27:
 1075               	.global	led_plane_z_down
 1077               	led_plane_z_down:
 1078               	.LFB28:
 1079               	.LM126:
 1080               	.LVL129:
 1081               	/* prologue: function */
 1082               	/* frame size = 0 */
 1083               	.LM127:
 1084 05ae E82F      		mov r30,r24
 1085 05b0 F0E0      		ldi r31,lo8(0)
 1086 05b2 F896      		adiw r30,56
 1087 05b4 80E0      		ldi r24,lo8(led_frame_bitmap)
 1088 05b6 90E0      		ldi r25,hi8(led_frame_bitmap)
 1089               	.LVL130:
 1090 05b8 DC01      		movw r26,r24
 1091               	.LVL131:
 1092 05ba AE0F      		add r26,r30
 1093 05bc BF1F      		adc r27,r31
 1094               	.LM128:
 1095 05be 3897      		sbiw r30,8
 1096               	.LVL132:
 1097 05c0 E80F      		add r30,r24
 1098 05c2 F91F      		adc r31,r25
 1099               	.LM129:
 1100 05c4 8081      		ld r24,Z
 1101 05c6 8C93      		st X,r24
 1102               	.LM130:
 1103 05c8 5097      		sbiw r26,16
 1104               	.LVL133:
 1105               	.LM131:
 1106 05ca 8C91      		ld r24,X
 1107 05cc 8083      		st Z,r24
 1108               	.LM132:
 1109 05ce 7097      		sbiw r30,16
 1110               	.LVL134:
 1111               	.LM133:
 1112 05d0 8081      		ld r24,Z
 1113 05d2 8C93      		st X,r24
 1114               	.LM134:
 1115 05d4 5097      		sbiw r26,16
 1116               	.LVL135:
 1117               	.LM135:
 1118 05d6 8C91      		ld r24,X
 1119 05d8 8083      		st Z,r24
 1120               	.LM136:
 1121 05da 7097      		sbiw r30,16
 1122               	.LVL136:
 1123               	.LM137:
 1124 05dc 8081      		ld r24,Z
 1125 05de 8C93      		st X,r24
 1126               	.LM138:
 1127 05e0 5097      		sbiw r26,16
 1128               	.LVL137:
 1129               	.LM139:
 1130 05e2 8C91      		ld r24,X
 1131 05e4 8083      		st Z,r24
 1132               	.LM140:
 1133 05e6 7097      		sbiw r30,16
 1134               	.LVL138:
 1135               	.LM141:
 1136 05e8 8081      		ld r24,Z
 1137 05ea 8C93      		st X,r24
 1138               	.LM142:
 1139 05ec 1082      		st Z,__zero_reg__
 1140               	/* epilogue start */
 1141               	.LM143:
 1142 05ee 0895      		ret
 1143               	.LFE28:
 1145               	.global	led_plane_z_up
 1147               	led_plane_z_up:
 1148               	.LFB29:
 1149               	.LM144:
 1150               	.LVL139:
 1151 05f0 CF93      		push r28
 1152 05f2 DF93      		push r29
 1153               	/* prologue: function */
 1154               	/* frame size = 0 */
 1155               	.LM145:
 1156 05f4 E82F      		mov r30,r24
 1157 05f6 F0E0      		ldi r31,lo8(0)
 1158 05f8 80E0      		ldi r24,lo8(led_frame_bitmap)
 1159 05fa 90E0      		ldi r25,hi8(led_frame_bitmap)
 1160               	.LVL140:
 1161 05fc DC01      		movw r26,r24
 1162               	.LVL141:
 1163 05fe AE0F      		add r26,r30
 1164 0600 BF1F      		adc r27,r31
 1165               	.LM146:
 1166 0602 3896      		adiw r30,8
 1167               	.LVL142:
 1168 0604 E80F      		add r30,r24
 1169 0606 F91F      		adc r31,r25
 1170               	.LM147:
 1171 0608 8081      		ld r24,Z
 1172 060a 8C93      		st X,r24
 1173               	.LM148:
 1174 060c AD01      		movw r20,r26
 1175 060e 405F      		subi r20,lo8(-(16))
 1176 0610 5F4F      		sbci r21,hi8(-(16))
 1177               	.LVL143:
 1178               	.LM149:
 1179 0612 5096      		adiw r26,16
 1180 0614 8C91      		ld r24,X
 1181 0616 5097      		sbiw r26,16
 1182 0618 8083      		st Z,r24
 1183               	.LM150:
 1184 061a 9F01      		movw r18,r30
 1185 061c 205F      		subi r18,lo8(-(16))
 1186 061e 3F4F      		sbci r19,hi8(-(16))
 1187               	.LVL144:
 1188               	.LM151:
 1189 0620 8089      		ldd r24,Z+16
 1190 0622 5096      		adiw r26,16
 1191 0624 8C93      		st X,r24
 1192               	.LM152:
 1193 0626 DA01      		movw r26,r20
 1194 0628 5096      		adiw r26,16
 1195               	.LVL145:
 1196               	.LM153:
 1197 062a EA01      		movw r28,r20
 1198 062c 8889      		ldd r24,Y+16
 1199 062e 808B      		std Z+16,r24
 1200               	.LM154:
 1201 0630 F901      		movw r30,r18
 1202 0632 7096      		adiw r30,16
 1203               	.LVL146:
 1204               	.LM155:
 1205 0634 E901      		movw r28,r18
 1206 0636 8889      		ldd r24,Y+16
 1207 0638 EA01      		movw r28,r20
 1208 063a 888B      		std Y+16,r24
 1209               	.LM156:
 1210 063c 5096      		adiw r26,16
 1211 063e 8C91      		ld r24,X
 1212 0640 5097      		sbiw r26,16
 1213 0642 E901      		movw r28,r18
 1214 0644 888B      		std Y+16,r24
 1215               	.LM157:
 1216 0646 8089      		ldd r24,Z+16
 1217 0648 5096      		adiw r26,16
 1218 064a 8C93      		st X,r24
 1219               	.LM158:
 1220 064c 108A      		std Z+16,__zero_reg__
 1221               	/* epilogue start */
 1222               	.LM159:
 1223 064e DF91      		pop r29
 1224 0650 CF91      		pop r28
 1225 0652 0895      		ret
 1226               	.LFE29:
 1228               	.global	led_plane_x_back
 1230               	led_plane_x_back:
 1231               	.LFB30:
 1232               	.LM160:
 1233               	.LVL147:
 1234               	/* prologue: function */
 1235               	/* frame size = 0 */
 1236               	.LM161:
 1237 0654 20E8      		ldi r18,lo8(128)
 1238 0656 30E0      		ldi r19,hi8(128)
 1239 0658 00C0      		rjmp 2f
 1240 065a 3595      	1:	asr r19
 1241 065c 2795      		ror r18
 1242 065e 8A95      	2:	dec r24
 1243 0660 02F4      		brpl 1b
 1244               	.LM162:
 1245 0662 922F      		mov r25,r18
 1246               	.LVL148:
 1247 0664 9095      		com r25
 1248               	.LM163:
 1249 0666 3091 0000 		lds r19,led_frame_bitmap+7
 1250 066a 3923      		and r19,r25
 1251 066c 3093 0000 		sts led_frame_bitmap+7,r19
 1252               	.LM164:
 1253 0670 8091 0000 		lds r24,led_frame_bitmap+15
 1254               	.LVL149:
 1255 0674 8923      		and r24,r25
 1256 0676 8093 0000 		sts led_frame_bitmap+15,r24
 1257               	.LM165:
 1258 067a 8091 0000 		lds r24,led_frame_bitmap+23
 1259 067e 8923      		and r24,r25
 1260 0680 8093 0000 		sts led_frame_bitmap+23,r24
 1261               	.LM166:
 1262 0684 8091 0000 		lds r24,led_frame_bitmap+31
 1263 0688 8923      		and r24,r25
 1264 068a 8093 0000 		sts led_frame_bitmap+31,r24
 1265               	.LM167:
 1266 068e 8091 0000 		lds r24,led_frame_bitmap+39
 1267 0692 8923      		and r24,r25
 1268 0694 8093 0000 		sts led_frame_bitmap+39,r24
 1269               	.LM168:
 1270 0698 8091 0000 		lds r24,led_frame_bitmap+47
 1271 069c 8923      		and r24,r25
 1272 069e 8093 0000 		sts led_frame_bitmap+47,r24
 1273               	.LM169:
 1274 06a2 8091 0000 		lds r24,led_frame_bitmap+55
 1275 06a6 8923      		and r24,r25
 1276 06a8 8093 0000 		sts led_frame_bitmap+55,r24
 1277               	.LM170:
 1278 06ac 8091 0000 		lds r24,led_frame_bitmap+63
 1279 06b0 8923      		and r24,r25
 1280 06b2 8093 0000 		sts led_frame_bitmap+63,r24
 1281               	.LM171:
 1282 06b6 8091 0000 		lds r24,led_frame_bitmap+6
 1283 06ba 8223      		and r24,r18
 1284 06bc 01F0      		breq .L56
 1285               	.LM172:
 1286 06be 322B      		or r19,r18
 1287 06c0 3093 0000 		sts led_frame_bitmap+7,r19
 1288               	.L56:
 1289               	.LM173:
 1290 06c4 8091 0000 		lds r24,led_frame_bitmap+14
 1291 06c8 8223      		and r24,r18
 1292 06ca 01F0      		breq .L57
 1293               	.LM174:
 1294 06cc 8091 0000 		lds r24,led_frame_bitmap+15
 1295 06d0 822B      		or r24,r18
 1296 06d2 8093 0000 		sts led_frame_bitmap+15,r24
 1297               	.L57:
 1298               	.LM175:
 1299 06d6 8091 0000 		lds r24,led_frame_bitmap+22
 1300 06da 8223      		and r24,r18
 1301 06dc 01F0      		breq .L58
 1302               	.LM176:
 1303 06de 8091 0000 		lds r24,led_frame_bitmap+23
 1304 06e2 822B      		or r24,r18
 1305 06e4 8093 0000 		sts led_frame_bitmap+23,r24
 1306               	.L58:
 1307               	.LM177:
 1308 06e8 8091 0000 		lds r24,led_frame_bitmap+30
 1309 06ec 8223      		and r24,r18
 1310 06ee 01F0      		breq .L59
 1311               	.LM178:
 1312 06f0 8091 0000 		lds r24,led_frame_bitmap+31
 1313 06f4 822B      		or r24,r18
 1314 06f6 8093 0000 		sts led_frame_bitmap+31,r24
 1315               	.L59:
 1316               	.LM179:
 1317 06fa 8091 0000 		lds r24,led_frame_bitmap+38
 1318 06fe 8223      		and r24,r18
 1319 0700 01F0      		breq .L60
 1320               	.LM180:
 1321 0702 8091 0000 		lds r24,led_frame_bitmap+39
 1322 0706 822B      		or r24,r18
 1323 0708 8093 0000 		sts led_frame_bitmap+39,r24
 1324               	.L60:
 1325               	.LM181:
 1326 070c 8091 0000 		lds r24,led_frame_bitmap+46
 1327 0710 8223      		and r24,r18
 1328 0712 01F0      		breq .L61
 1329               	.LM182:
 1330 0714 8091 0000 		lds r24,led_frame_bitmap+47
 1331 0718 822B      		or r24,r18
 1332 071a 8093 0000 		sts led_frame_bitmap+47,r24
 1333               	.L61:
 1334               	.LM183:
 1335 071e 8091 0000 		lds r24,led_frame_bitmap+54
 1336 0722 8223      		and r24,r18
 1337 0724 01F0      		breq .L62
 1338               	.LM184:
 1339 0726 8091 0000 		lds r24,led_frame_bitmap+55
 1340 072a 822B      		or r24,r18
 1341 072c 8093 0000 		sts led_frame_bitmap+55,r24
 1342               	.L62:
 1343               	.LM185:
 1344 0730 8091 0000 		lds r24,led_frame_bitmap+62
 1345 0734 8223      		and r24,r18
 1346 0736 01F0      		breq .L63
 1347               	.LM186:
 1348 0738 8091 0000 		lds r24,led_frame_bitmap+63
 1349 073c 822B      		or r24,r18
 1350 073e 8093 0000 		sts led_frame_bitmap+63,r24
 1351               	.L63:
 1352               	.LM187:
 1353 0742 3091 0000 		lds r19,led_frame_bitmap+6
 1354 0746 3923      		and r19,r25
 1355 0748 3093 0000 		sts led_frame_bitmap+6,r19
 1356               	.LM188:
 1357 074c 8091 0000 		lds r24,led_frame_bitmap+14
 1358 0750 8923      		and r24,r25
 1359 0752 8093 0000 		sts led_frame_bitmap+14,r24
 1360               	.LM189:
 1361 0756 8091 0000 		lds r24,led_frame_bitmap+22
 1362 075a 8923      		and r24,r25
 1363 075c 8093 0000 		sts led_frame_bitmap+22,r24
 1364               	.LM190:
 1365 0760 8091 0000 		lds r24,led_frame_bitmap+30
 1366 0764 8923      		and r24,r25
 1367 0766 8093 0000 		sts led_frame_bitmap+30,r24
 1368               	.LM191:
 1369 076a 8091 0000 		lds r24,led_frame_bitmap+38
 1370 076e 8923      		and r24,r25
 1371 0770 8093 0000 		sts led_frame_bitmap+38,r24
 1372               	.LM192:
 1373 0774 8091 0000 		lds r24,led_frame_bitmap+46
 1374 0778 8923      		and r24,r25
 1375 077a 8093 0000 		sts led_frame_bitmap+46,r24
 1376               	.LM193:
 1377 077e 8091 0000 		lds r24,led_frame_bitmap+54
 1378 0782 8923      		and r24,r25
 1379 0784 8093 0000 		sts led_frame_bitmap+54,r24
 1380               	.LM194:
 1381 0788 8091 0000 		lds r24,led_frame_bitmap+62
 1382 078c 8923      		and r24,r25
 1383 078e 8093 0000 		sts led_frame_bitmap+62,r24
 1384               	.LM195:
 1385 0792 8091 0000 		lds r24,led_frame_bitmap+5
 1386 0796 8223      		and r24,r18
 1387 0798 01F0      		breq .L64
 1388               	.LM196:
 1389 079a 322B      		or r19,r18
 1390 079c 3093 0000 		sts led_frame_bitmap+6,r19
 1391               	.L64:
 1392               	.LM197:
 1393 07a0 8091 0000 		lds r24,led_frame_bitmap+13
 1394 07a4 8223      		and r24,r18
 1395 07a6 01F0      		breq .L65
 1396               	.LM198:
 1397 07a8 8091 0000 		lds r24,led_frame_bitmap+14
 1398 07ac 822B      		or r24,r18
 1399 07ae 8093 0000 		sts led_frame_bitmap+14,r24
 1400               	.L65:
 1401               	.LM199:
 1402 07b2 8091 0000 		lds r24,led_frame_bitmap+21
 1403 07b6 8223      		and r24,r18
 1404 07b8 01F0      		breq .L66
 1405               	.LM200:
 1406 07ba 8091 0000 		lds r24,led_frame_bitmap+22
 1407 07be 822B      		or r24,r18
 1408 07c0 8093 0000 		sts led_frame_bitmap+22,r24
 1409               	.L66:
 1410               	.LM201:
 1411 07c4 8091 0000 		lds r24,led_frame_bitmap+29
 1412 07c8 8223      		and r24,r18
 1413 07ca 01F0      		breq .L67
 1414               	.LM202:
 1415 07cc 8091 0000 		lds r24,led_frame_bitmap+30
 1416 07d0 822B      		or r24,r18
 1417 07d2 8093 0000 		sts led_frame_bitmap+30,r24
 1418               	.L67:
 1419               	.LM203:
 1420 07d6 8091 0000 		lds r24,led_frame_bitmap+37
 1421 07da 8223      		and r24,r18
 1422 07dc 01F0      		breq .L68
 1423               	.LM204:
 1424 07de 8091 0000 		lds r24,led_frame_bitmap+38
 1425 07e2 822B      		or r24,r18
 1426 07e4 8093 0000 		sts led_frame_bitmap+38,r24
 1427               	.L68:
 1428               	.LM205:
 1429 07e8 8091 0000 		lds r24,led_frame_bitmap+45
 1430 07ec 8223      		and r24,r18
 1431 07ee 01F0      		breq .L69
 1432               	.LM206:
 1433 07f0 8091 0000 		lds r24,led_frame_bitmap+46
 1434 07f4 822B      		or r24,r18
 1435 07f6 8093 0000 		sts led_frame_bitmap+46,r24
 1436               	.L69:
 1437               	.LM207:
 1438 07fa 8091 0000 		lds r24,led_frame_bitmap+53
 1439 07fe 8223      		and r24,r18
 1440 0800 01F0      		breq .L70
 1441               	.LM208:
 1442 0802 8091 0000 		lds r24,led_frame_bitmap+54
 1443 0806 822B      		or r24,r18
 1444 0808 8093 0000 		sts led_frame_bitmap+54,r24
 1445               	.L70:
 1446               	.LM209:
 1447 080c 8091 0000 		lds r24,led_frame_bitmap+61
 1448 0810 8223      		and r24,r18
 1449 0812 01F0      		breq .L71
 1450               	.LM210:
 1451 0814 8091 0000 		lds r24,led_frame_bitmap+62
 1452 0818 822B      		or r24,r18
 1453 081a 8093 0000 		sts led_frame_bitmap+62,r24
 1454               	.L71:
 1455               	.LM211:
 1456 081e 3091 0000 		lds r19,led_frame_bitmap+5
 1457 0822 3923      		and r19,r25
 1458 0824 3093 0000 		sts led_frame_bitmap+5,r19
 1459               	.LM212:
 1460 0828 8091 0000 		lds r24,led_frame_bitmap+13
 1461 082c 8923      		and r24,r25
 1462 082e 8093 0000 		sts led_frame_bitmap+13,r24
 1463               	.LM213:
 1464 0832 8091 0000 		lds r24,led_frame_bitmap+21
 1465 0836 8923      		and r24,r25
 1466 0838 8093 0000 		sts led_frame_bitmap+21,r24
 1467               	.LM214:
 1468 083c 8091 0000 		lds r24,led_frame_bitmap+29
 1469 0840 8923      		and r24,r25
 1470 0842 8093 0000 		sts led_frame_bitmap+29,r24
 1471               	.LM215:
 1472 0846 8091 0000 		lds r24,led_frame_bitmap+37
 1473 084a 8923      		and r24,r25
 1474 084c 8093 0000 		sts led_frame_bitmap+37,r24
 1475               	.LM216:
 1476 0850 8091 0000 		lds r24,led_frame_bitmap+45
 1477 0854 8923      		and r24,r25
 1478 0856 8093 0000 		sts led_frame_bitmap+45,r24
 1479               	.LM217:
 1480 085a 8091 0000 		lds r24,led_frame_bitmap+53
 1481 085e 8923      		and r24,r25
 1482 0860 8093 0000 		sts led_frame_bitmap+53,r24
 1483               	.LM218:
 1484 0864 8091 0000 		lds r24,led_frame_bitmap+61
 1485 0868 8923      		and r24,r25
 1486 086a 8093 0000 		sts led_frame_bitmap+61,r24
 1487               	.LM219:
 1488 086e 8091 0000 		lds r24,led_frame_bitmap+4
 1489 0872 8223      		and r24,r18
 1490 0874 01F0      		breq .L72
 1491               	.LM220:
 1492 0876 322B      		or r19,r18
 1493 0878 3093 0000 		sts led_frame_bitmap+5,r19
 1494               	.L72:
 1495               	.LM221:
 1496 087c 8091 0000 		lds r24,led_frame_bitmap+12
 1497 0880 8223      		and r24,r18
 1498 0882 01F0      		breq .L73
 1499               	.LM222:
 1500 0884 8091 0000 		lds r24,led_frame_bitmap+13
 1501 0888 822B      		or r24,r18
 1502 088a 8093 0000 		sts led_frame_bitmap+13,r24
 1503               	.L73:
 1504               	.LM223:
 1505 088e 8091 0000 		lds r24,led_frame_bitmap+20
 1506 0892 8223      		and r24,r18
 1507 0894 01F0      		breq .L74
 1508               	.LM224:
 1509 0896 8091 0000 		lds r24,led_frame_bitmap+21
 1510 089a 822B      		or r24,r18
 1511 089c 8093 0000 		sts led_frame_bitmap+21,r24
 1512               	.L74:
 1513               	.LM225:
 1514 08a0 8091 0000 		lds r24,led_frame_bitmap+28
 1515 08a4 8223      		and r24,r18
 1516 08a6 01F0      		breq .L75
 1517               	.LM226:
 1518 08a8 8091 0000 		lds r24,led_frame_bitmap+29
 1519 08ac 822B      		or r24,r18
 1520 08ae 8093 0000 		sts led_frame_bitmap+29,r24
 1521               	.L75:
 1522               	.LM227:
 1523 08b2 8091 0000 		lds r24,led_frame_bitmap+36
 1524 08b6 8223      		and r24,r18
 1525 08b8 01F0      		breq .L76
 1526               	.LM228:
 1527 08ba 8091 0000 		lds r24,led_frame_bitmap+37
 1528 08be 822B      		or r24,r18
 1529 08c0 8093 0000 		sts led_frame_bitmap+37,r24
 1530               	.L76:
 1531               	.LM229:
 1532 08c4 8091 0000 		lds r24,led_frame_bitmap+44
 1533 08c8 8223      		and r24,r18
 1534 08ca 01F0      		breq .L77
 1535               	.LM230:
 1536 08cc 8091 0000 		lds r24,led_frame_bitmap+45
 1537 08d0 822B      		or r24,r18
 1538 08d2 8093 0000 		sts led_frame_bitmap+45,r24
 1539               	.L77:
 1540               	.LM231:
 1541 08d6 8091 0000 		lds r24,led_frame_bitmap+52
 1542 08da 8223      		and r24,r18
 1543 08dc 01F0      		breq .L78
 1544               	.LM232:
 1545 08de 8091 0000 		lds r24,led_frame_bitmap+53
 1546 08e2 822B      		or r24,r18
 1547 08e4 8093 0000 		sts led_frame_bitmap+53,r24
 1548               	.L78:
 1549               	.LM233:
 1550 08e8 8091 0000 		lds r24,led_frame_bitmap+60
 1551 08ec 8223      		and r24,r18
 1552 08ee 01F0      		breq .L79
 1553               	.LM234:
 1554 08f0 8091 0000 		lds r24,led_frame_bitmap+61
 1555 08f4 822B      		or r24,r18
 1556 08f6 8093 0000 		sts led_frame_bitmap+61,r24
 1557               	.L79:
 1558               	.LM235:
 1559 08fa 3091 0000 		lds r19,led_frame_bitmap+4
 1560 08fe 3923      		and r19,r25
 1561 0900 3093 0000 		sts led_frame_bitmap+4,r19
 1562               	.LM236:
 1563 0904 8091 0000 		lds r24,led_frame_bitmap+12
 1564 0908 8923      		and r24,r25
 1565 090a 8093 0000 		sts led_frame_bitmap+12,r24
 1566               	.LM237:
 1567 090e 8091 0000 		lds r24,led_frame_bitmap+20
 1568 0912 8923      		and r24,r25
 1569 0914 8093 0000 		sts led_frame_bitmap+20,r24
 1570               	.LM238:
 1571 0918 8091 0000 		lds r24,led_frame_bitmap+28
 1572 091c 8923      		and r24,r25
 1573 091e 8093 0000 		sts led_frame_bitmap+28,r24
 1574               	.LM239:
 1575 0922 8091 0000 		lds r24,led_frame_bitmap+36
 1576 0926 8923      		and r24,r25
 1577 0928 8093 0000 		sts led_frame_bitmap+36,r24
 1578               	.LM240:
 1579 092c 8091 0000 		lds r24,led_frame_bitmap+44
 1580 0930 8923      		and r24,r25
 1581 0932 8093 0000 		sts led_frame_bitmap+44,r24
 1582               	.LM241:
 1583 0936 8091 0000 		lds r24,led_frame_bitmap+52
 1584 093a 8923      		and r24,r25
 1585 093c 8093 0000 		sts led_frame_bitmap+52,r24
 1586               	.LM242:
 1587 0940 8091 0000 		lds r24,led_frame_bitmap+60
 1588 0944 8923      		and r24,r25
 1589 0946 8093 0000 		sts led_frame_bitmap+60,r24
 1590               	.LM243:
 1591 094a 8091 0000 		lds r24,led_frame_bitmap+3
 1592 094e 8223      		and r24,r18
 1593 0950 01F0      		breq .L80
 1594               	.LM244:
 1595 0952 322B      		or r19,r18
 1596 0954 3093 0000 		sts led_frame_bitmap+4,r19
 1597               	.L80:
 1598               	.LM245:
 1599 0958 8091 0000 		lds r24,led_frame_bitmap+11
 1600 095c 8223      		and r24,r18
 1601 095e 01F0      		breq .L81
 1602               	.LM246:
 1603 0960 8091 0000 		lds r24,led_frame_bitmap+12
 1604 0964 822B      		or r24,r18
 1605 0966 8093 0000 		sts led_frame_bitmap+12,r24
 1606               	.L81:
 1607               	.LM247:
 1608 096a 8091 0000 		lds r24,led_frame_bitmap+19
 1609 096e 8223      		and r24,r18
 1610 0970 01F0      		breq .L82
 1611               	.LM248:
 1612 0972 8091 0000 		lds r24,led_frame_bitmap+20
 1613 0976 822B      		or r24,r18
 1614 0978 8093 0000 		sts led_frame_bitmap+20,r24
 1615               	.L82:
 1616               	.LM249:
 1617 097c 8091 0000 		lds r24,led_frame_bitmap+27
 1618 0980 8223      		and r24,r18
 1619 0982 01F0      		breq .L83
 1620               	.LM250:
 1621 0984 8091 0000 		lds r24,led_frame_bitmap+28
 1622 0988 822B      		or r24,r18
 1623 098a 8093 0000 		sts led_frame_bitmap+28,r24
 1624               	.L83:
 1625               	.LM251:
 1626 098e 8091 0000 		lds r24,led_frame_bitmap+35
 1627 0992 8223      		and r24,r18
 1628 0994 01F0      		breq .L84
 1629               	.LM252:
 1630 0996 8091 0000 		lds r24,led_frame_bitmap+36
 1631 099a 822B      		or r24,r18
 1632 099c 8093 0000 		sts led_frame_bitmap+36,r24
 1633               	.L84:
 1634               	.LM253:
 1635 09a0 8091 0000 		lds r24,led_frame_bitmap+43
 1636 09a4 8223      		and r24,r18
 1637 09a6 01F0      		breq .L85
 1638               	.LM254:
 1639 09a8 8091 0000 		lds r24,led_frame_bitmap+44
 1640 09ac 822B      		or r24,r18
 1641 09ae 8093 0000 		sts led_frame_bitmap+44,r24
 1642               	.L85:
 1643               	.LM255:
 1644 09b2 8091 0000 		lds r24,led_frame_bitmap+51
 1645 09b6 8223      		and r24,r18
 1646 09b8 01F0      		breq .L86
 1647               	.LM256:
 1648 09ba 8091 0000 		lds r24,led_frame_bitmap+52
 1649 09be 822B      		or r24,r18
 1650 09c0 8093 0000 		sts led_frame_bitmap+52,r24
 1651               	.L86:
 1652               	.LM257:
 1653 09c4 8091 0000 		lds r24,led_frame_bitmap+59
 1654 09c8 8223      		and r24,r18
 1655 09ca 01F0      		breq .L87
 1656               	.LM258:
 1657 09cc 8091 0000 		lds r24,led_frame_bitmap+60
 1658 09d0 822B      		or r24,r18
 1659 09d2 8093 0000 		sts led_frame_bitmap+60,r24
 1660               	.L87:
 1661               	.LM259:
 1662 09d6 3091 0000 		lds r19,led_frame_bitmap+3
 1663 09da 3923      		and r19,r25
 1664 09dc 3093 0000 		sts led_frame_bitmap+3,r19
 1665               	.LM260:
 1666 09e0 8091 0000 		lds r24,led_frame_bitmap+11
 1667 09e4 8923      		and r24,r25
 1668 09e6 8093 0000 		sts led_frame_bitmap+11,r24
 1669               	.LM261:
 1670 09ea 8091 0000 		lds r24,led_frame_bitmap+19
 1671 09ee 8923      		and r24,r25
 1672 09f0 8093 0000 		sts led_frame_bitmap+19,r24
 1673               	.LM262:
 1674 09f4 8091 0000 		lds r24,led_frame_bitmap+27
 1675 09f8 8923      		and r24,r25
 1676 09fa 8093 0000 		sts led_frame_bitmap+27,r24
 1677               	.LM263:
 1678 09fe 8091 0000 		lds r24,led_frame_bitmap+35
 1679 0a02 8923      		and r24,r25
 1680 0a04 8093 0000 		sts led_frame_bitmap+35,r24
 1681               	.LM264:
 1682 0a08 8091 0000 		lds r24,led_frame_bitmap+43
 1683 0a0c 8923      		and r24,r25
 1684 0a0e 8093 0000 		sts led_frame_bitmap+43,r24
 1685               	.LM265:
 1686 0a12 8091 0000 		lds r24,led_frame_bitmap+51
 1687 0a16 8923      		and r24,r25
 1688 0a18 8093 0000 		sts led_frame_bitmap+51,r24
 1689               	.LM266:
 1690 0a1c 8091 0000 		lds r24,led_frame_bitmap+59
 1691 0a20 8923      		and r24,r25
 1692 0a22 8093 0000 		sts led_frame_bitmap+59,r24
 1693               	.LM267:
 1694 0a26 8091 0000 		lds r24,led_frame_bitmap+2
 1695 0a2a 8223      		and r24,r18
 1696 0a2c 01F0      		breq .L88
 1697               	.LM268:
 1698 0a2e 322B      		or r19,r18
 1699 0a30 3093 0000 		sts led_frame_bitmap+3,r19
 1700               	.L88:
 1701               	.LM269:
 1702 0a34 8091 0000 		lds r24,led_frame_bitmap+10
 1703 0a38 8223      		and r24,r18
 1704 0a3a 01F0      		breq .L89
 1705               	.LM270:
 1706 0a3c 8091 0000 		lds r24,led_frame_bitmap+11
 1707 0a40 822B      		or r24,r18
 1708 0a42 8093 0000 		sts led_frame_bitmap+11,r24
 1709               	.L89:
 1710               	.LM271:
 1711 0a46 8091 0000 		lds r24,led_frame_bitmap+18
 1712 0a4a 8223      		and r24,r18
 1713 0a4c 01F0      		breq .L90
 1714               	.LM272:
 1715 0a4e 8091 0000 		lds r24,led_frame_bitmap+19
 1716 0a52 822B      		or r24,r18
 1717 0a54 8093 0000 		sts led_frame_bitmap+19,r24
 1718               	.L90:
 1719               	.LM273:
 1720 0a58 8091 0000 		lds r24,led_frame_bitmap+26
 1721 0a5c 8223      		and r24,r18
 1722 0a5e 01F0      		breq .L91
 1723               	.LM274:
 1724 0a60 8091 0000 		lds r24,led_frame_bitmap+27
 1725 0a64 822B      		or r24,r18
 1726 0a66 8093 0000 		sts led_frame_bitmap+27,r24
 1727               	.L91:
 1728               	.LM275:
 1729 0a6a 8091 0000 		lds r24,led_frame_bitmap+34
 1730 0a6e 8223      		and r24,r18
 1731 0a70 01F0      		breq .L92
 1732               	.LM276:
 1733 0a72 8091 0000 		lds r24,led_frame_bitmap+35
 1734 0a76 822B      		or r24,r18
 1735 0a78 8093 0000 		sts led_frame_bitmap+35,r24
 1736               	.L92:
 1737               	.LM277:
 1738 0a7c 8091 0000 		lds r24,led_frame_bitmap+42
 1739 0a80 8223      		and r24,r18
 1740 0a82 01F0      		breq .L93
 1741               	.LM278:
 1742 0a84 8091 0000 		lds r24,led_frame_bitmap+43
 1743 0a88 822B      		or r24,r18
 1744 0a8a 8093 0000 		sts led_frame_bitmap+43,r24
 1745               	.L93:
 1746               	.LM279:
 1747 0a8e 8091 0000 		lds r24,led_frame_bitmap+50
 1748 0a92 8223      		and r24,r18
 1749 0a94 01F0      		breq .L94
 1750               	.LM280:
 1751 0a96 8091 0000 		lds r24,led_frame_bitmap+51
 1752 0a9a 822B      		or r24,r18
 1753 0a9c 8093 0000 		sts led_frame_bitmap+51,r24
 1754               	.L94:
 1755               	.LM281:
 1756 0aa0 8091 0000 		lds r24,led_frame_bitmap+58
 1757 0aa4 8223      		and r24,r18
 1758 0aa6 01F0      		breq .L95
 1759               	.LM282:
 1760 0aa8 8091 0000 		lds r24,led_frame_bitmap+59
 1761 0aac 822B      		or r24,r18
 1762 0aae 8093 0000 		sts led_frame_bitmap+59,r24
 1763               	.L95:
 1764               	.LM283:
 1765 0ab2 3091 0000 		lds r19,led_frame_bitmap+2
 1766 0ab6 3923      		and r19,r25
 1767 0ab8 3093 0000 		sts led_frame_bitmap+2,r19
 1768               	.LM284:
 1769 0abc 8091 0000 		lds r24,led_frame_bitmap+10
 1770 0ac0 8923      		and r24,r25
 1771 0ac2 8093 0000 		sts led_frame_bitmap+10,r24
 1772               	.LM285:
 1773 0ac6 8091 0000 		lds r24,led_frame_bitmap+18
 1774 0aca 8923      		and r24,r25
 1775 0acc 8093 0000 		sts led_frame_bitmap+18,r24
 1776               	.LM286:
 1777 0ad0 8091 0000 		lds r24,led_frame_bitmap+26
 1778 0ad4 8923      		and r24,r25
 1779 0ad6 8093 0000 		sts led_frame_bitmap+26,r24
 1780               	.LM287:
 1781 0ada 8091 0000 		lds r24,led_frame_bitmap+34
 1782 0ade 8923      		and r24,r25
 1783 0ae0 8093 0000 		sts led_frame_bitmap+34,r24
 1784               	.LM288:
 1785 0ae4 8091 0000 		lds r24,led_frame_bitmap+42
 1786 0ae8 8923      		and r24,r25
 1787 0aea 8093 0000 		sts led_frame_bitmap+42,r24
 1788               	.LM289:
 1789 0aee 8091 0000 		lds r24,led_frame_bitmap+50
 1790 0af2 8923      		and r24,r25
 1791 0af4 8093 0000 		sts led_frame_bitmap+50,r24
 1792               	.LM290:
 1793 0af8 8091 0000 		lds r24,led_frame_bitmap+58
 1794 0afc 8923      		and r24,r25
 1795 0afe 8093 0000 		sts led_frame_bitmap+58,r24
 1796               	.LM291:
 1797 0b02 8091 0000 		lds r24,led_frame_bitmap+1
 1798 0b06 8223      		and r24,r18
 1799 0b08 01F0      		breq .L96
 1800               	.LM292:
 1801 0b0a 322B      		or r19,r18
 1802 0b0c 3093 0000 		sts led_frame_bitmap+2,r19
 1803               	.L96:
 1804               	.LM293:
 1805 0b10 8091 0000 		lds r24,led_frame_bitmap+9
 1806 0b14 8223      		and r24,r18
 1807 0b16 01F0      		breq .L97
 1808               	.LM294:
 1809 0b18 8091 0000 		lds r24,led_frame_bitmap+10
 1810 0b1c 822B      		or r24,r18
 1811 0b1e 8093 0000 		sts led_frame_bitmap+10,r24
 1812               	.L97:
 1813               	.LM295:
 1814 0b22 8091 0000 		lds r24,led_frame_bitmap+17
 1815 0b26 8223      		and r24,r18
 1816 0b28 01F0      		breq .L98
 1817               	.LM296:
 1818 0b2a 8091 0000 		lds r24,led_frame_bitmap+18
 1819 0b2e 822B      		or r24,r18
 1820 0b30 8093 0000 		sts led_frame_bitmap+18,r24
 1821               	.L98:
 1822               	.LM297:
 1823 0b34 8091 0000 		lds r24,led_frame_bitmap+25
 1824 0b38 8223      		and r24,r18
 1825 0b3a 01F0      		breq .L99
 1826               	.LM298:
 1827 0b3c 8091 0000 		lds r24,led_frame_bitmap+26
 1828 0b40 822B      		or r24,r18
 1829 0b42 8093 0000 		sts led_frame_bitmap+26,r24
 1830               	.L99:
 1831               	.LM299:
 1832 0b46 8091 0000 		lds r24,led_frame_bitmap+33
 1833 0b4a 8223      		and r24,r18
 1834 0b4c 01F0      		breq .L100
 1835               	.LM300:
 1836 0b4e 8091 0000 		lds r24,led_frame_bitmap+34
 1837 0b52 822B      		or r24,r18
 1838 0b54 8093 0000 		sts led_frame_bitmap+34,r24
 1839               	.L100:
 1840               	.LM301:
 1841 0b58 8091 0000 		lds r24,led_frame_bitmap+41
 1842 0b5c 8223      		and r24,r18
 1843 0b5e 01F0      		breq .L101
 1844               	.LM302:
 1845 0b60 8091 0000 		lds r24,led_frame_bitmap+42
 1846 0b64 822B      		or r24,r18
 1847 0b66 8093 0000 		sts led_frame_bitmap+42,r24
 1848               	.L101:
 1849               	.LM303:
 1850 0b6a 8091 0000 		lds r24,led_frame_bitmap+49
 1851 0b6e 8223      		and r24,r18
 1852 0b70 01F0      		breq .L102
 1853               	.LM304:
 1854 0b72 8091 0000 		lds r24,led_frame_bitmap+50
 1855 0b76 822B      		or r24,r18
 1856 0b78 8093 0000 		sts led_frame_bitmap+50,r24
 1857               	.L102:
 1858               	.LM305:
 1859 0b7c 8091 0000 		lds r24,led_frame_bitmap+57
 1860 0b80 8223      		and r24,r18
 1861 0b82 01F0      		breq .L103
 1862               	.LM306:
 1863 0b84 8091 0000 		lds r24,led_frame_bitmap+58
 1864 0b88 822B      		or r24,r18
 1865 0b8a 8093 0000 		sts led_frame_bitmap+58,r24
 1866               	.L103:
 1867               	.LM307:
 1868 0b8e 3091 0000 		lds r19,led_frame_bitmap+1
 1869 0b92 3923      		and r19,r25
 1870 0b94 3093 0000 		sts led_frame_bitmap+1,r19
 1871               	.LM308:
 1872 0b98 8091 0000 		lds r24,led_frame_bitmap+9
 1873 0b9c 8923      		and r24,r25
 1874 0b9e 8093 0000 		sts led_frame_bitmap+9,r24
 1875               	.LM309:
 1876 0ba2 8091 0000 		lds r24,led_frame_bitmap+17
 1877 0ba6 8923      		and r24,r25
 1878 0ba8 8093 0000 		sts led_frame_bitmap+17,r24
 1879               	.LM310:
 1880 0bac 8091 0000 		lds r24,led_frame_bitmap+25
 1881 0bb0 8923      		and r24,r25
 1882 0bb2 8093 0000 		sts led_frame_bitmap+25,r24
 1883               	.LM311:
 1884 0bb6 8091 0000 		lds r24,led_frame_bitmap+33
 1885 0bba 8923      		and r24,r25
 1886 0bbc 8093 0000 		sts led_frame_bitmap+33,r24
 1887               	.LM312:
 1888 0bc0 8091 0000 		lds r24,led_frame_bitmap+41
 1889 0bc4 8923      		and r24,r25
 1890 0bc6 8093 0000 		sts led_frame_bitmap+41,r24
 1891               	.LM313:
 1892 0bca 8091 0000 		lds r24,led_frame_bitmap+49
 1893 0bce 8923      		and r24,r25
 1894 0bd0 8093 0000 		sts led_frame_bitmap+49,r24
 1895               	.LM314:
 1896 0bd4 8091 0000 		lds r24,led_frame_bitmap+57
 1897 0bd8 8923      		and r24,r25
 1898 0bda 8093 0000 		sts led_frame_bitmap+57,r24
 1899               	.LM315:
 1900 0bde 8091 0000 		lds r24,led_frame_bitmap
 1901 0be2 8223      		and r24,r18
 1902 0be4 01F0      		breq .L104
 1903               	.LM316:
 1904 0be6 322B      		or r19,r18
 1905 0be8 3093 0000 		sts led_frame_bitmap+1,r19
 1906               	.L104:
 1907               	.LM317:
 1908 0bec 8091 0000 		lds r24,led_frame_bitmap+8
 1909 0bf0 8223      		and r24,r18
 1910 0bf2 01F0      		breq .L105
 1911               	.LM318:
 1912 0bf4 8091 0000 		lds r24,led_frame_bitmap+9
 1913 0bf8 822B      		or r24,r18
 1914 0bfa 8093 0000 		sts led_frame_bitmap+9,r24
 1915               	.L105:
 1916               	.LM319:
 1917 0bfe 8091 0000 		lds r24,led_frame_bitmap+16
 1918 0c02 8223      		and r24,r18
 1919 0c04 01F0      		breq .L106
 1920               	.LM320:
 1921 0c06 8091 0000 		lds r24,led_frame_bitmap+17
 1922 0c0a 822B      		or r24,r18
 1923 0c0c 8093 0000 		sts led_frame_bitmap+17,r24
 1924               	.L106:
 1925               	.LM321:
 1926 0c10 8091 0000 		lds r24,led_frame_bitmap+24
 1927 0c14 8223      		and r24,r18
 1928 0c16 01F0      		breq .L107
 1929               	.LM322:
 1930 0c18 8091 0000 		lds r24,led_frame_bitmap+25
 1931 0c1c 822B      		or r24,r18
 1932 0c1e 8093 0000 		sts led_frame_bitmap+25,r24
 1933               	.L107:
 1934               	.LM323:
 1935 0c22 8091 0000 		lds r24,led_frame_bitmap+32
 1936 0c26 8223      		and r24,r18
 1937 0c28 01F0      		breq .L108
 1938               	.LM324:
 1939 0c2a 8091 0000 		lds r24,led_frame_bitmap+33
 1940 0c2e 822B      		or r24,r18
 1941 0c30 8093 0000 		sts led_frame_bitmap+33,r24
 1942               	.L108:
 1943               	.LM325:
 1944 0c34 8091 0000 		lds r24,led_frame_bitmap+40
 1945 0c38 8223      		and r24,r18
 1946 0c3a 01F0      		breq .L109
 1947               	.LM326:
 1948 0c3c 8091 0000 		lds r24,led_frame_bitmap+41
 1949 0c40 822B      		or r24,r18
 1950 0c42 8093 0000 		sts led_frame_bitmap+41,r24
 1951               	.L109:
 1952               	.LM327:
 1953 0c46 8091 0000 		lds r24,led_frame_bitmap+48
 1954 0c4a 8223      		and r24,r18
 1955 0c4c 01F0      		breq .L110
 1956               	.LM328:
 1957 0c4e 8091 0000 		lds r24,led_frame_bitmap+49
 1958 0c52 822B      		or r24,r18
 1959 0c54 8093 0000 		sts led_frame_bitmap+49,r24
 1960               	.L110:
 1961               	.LM329:
 1962 0c58 8091 0000 		lds r24,led_frame_bitmap+56
 1963 0c5c 8223      		and r24,r18
 1964 0c5e 01F0      		breq .L111
 1965               	.LM330:
 1966 0c60 8091 0000 		lds r24,led_frame_bitmap+57
 1967 0c64 282B      		or r18,r24
 1968 0c66 2093 0000 		sts led_frame_bitmap+57,r18
 1969               	.L111:
 1970               	.LM331:
 1971 0c6a 8091 0000 		lds r24,led_frame_bitmap
 1972 0c6e 8923      		and r24,r25
 1973 0c70 8093 0000 		sts led_frame_bitmap,r24
 1974               	.LM332:
 1975 0c74 8091 0000 		lds r24,led_frame_bitmap+8
 1976 0c78 8923      		and r24,r25
 1977 0c7a 8093 0000 		sts led_frame_bitmap+8,r24
 1978               	.LM333:
 1979 0c7e 8091 0000 		lds r24,led_frame_bitmap+16
 1980 0c82 8923      		and r24,r25
 1981 0c84 8093 0000 		sts led_frame_bitmap+16,r24
 1982               	.LM334:
 1983 0c88 8091 0000 		lds r24,led_frame_bitmap+24
 1984 0c8c 8923      		and r24,r25
 1985 0c8e 8093 0000 		sts led_frame_bitmap+24,r24
 1986               	.LM335:
 1987 0c92 8091 0000 		lds r24,led_frame_bitmap+32
 1988 0c96 8923      		and r24,r25
 1989 0c98 8093 0000 		sts led_frame_bitmap+32,r24
 1990               	.LM336:
 1991 0c9c 8091 0000 		lds r24,led_frame_bitmap+40
 1992 0ca0 8923      		and r24,r25
 1993 0ca2 8093 0000 		sts led_frame_bitmap+40,r24
 1994               	.LM337:
 1995 0ca6 8091 0000 		lds r24,led_frame_bitmap+48
 1996 0caa 8923      		and r24,r25
 1997 0cac 8093 0000 		sts led_frame_bitmap+48,r24
 1998               	.LM338:
 1999 0cb0 8091 0000 		lds r24,led_frame_bitmap+56
 2000 0cb4 9823      		and r25,r24
 2001 0cb6 9093 0000 		sts led_frame_bitmap+56,r25
 2002               	/* epilogue start */
 2003               	.LM339:
 2004 0cba 0895      		ret
 2005               	.LFE30:
 2007               	.global	led_plane_x_forward
 2009               	led_plane_x_forward:
 2010               	.LFB31:
 2011               	.LM340:
 2012               	.LVL150:
 2013               	/* prologue: function */
 2014               	/* frame size = 0 */
 2015               	.LM341:
 2016 0cbc 20E8      		ldi r18,lo8(128)
 2017 0cbe 30E0      		ldi r19,hi8(128)
 2018 0cc0 00C0      		rjmp 2f
 2019 0cc2 3595      	1:	asr r19
 2020 0cc4 2795      		ror r18
 2021 0cc6 8A95      	2:	dec r24
 2022 0cc8 02F4      		brpl 1b
 2023               	.LM342:
 2024 0cca 922F      		mov r25,r18
 2025               	.LVL151:
 2026 0ccc 9095      		com r25
 2027               	.LM343:
 2028 0cce 3091 0000 		lds r19,led_frame_bitmap
 2029 0cd2 3923      		and r19,r25
 2030 0cd4 3093 0000 		sts led_frame_bitmap,r19
 2031               	.LM344:
 2032 0cd8 8091 0000 		lds r24,led_frame_bitmap+8
 2033               	.LVL152:
 2034 0cdc 8923      		and r24,r25
 2035 0cde 8093 0000 		sts led_frame_bitmap+8,r24
 2036               	.LM345:
 2037 0ce2 8091 0000 		lds r24,led_frame_bitmap+16
 2038 0ce6 8923      		and r24,r25
 2039 0ce8 8093 0000 		sts led_frame_bitmap+16,r24
 2040               	.LM346:
 2041 0cec 8091 0000 		lds r24,led_frame_bitmap+24
 2042 0cf0 8923      		and r24,r25
 2043 0cf2 8093 0000 		sts led_frame_bitmap+24,r24
 2044               	.LM347:
 2045 0cf6 8091 0000 		lds r24,led_frame_bitmap+32
 2046 0cfa 8923      		and r24,r25
 2047 0cfc 8093 0000 		sts led_frame_bitmap+32,r24
 2048               	.LM348:
 2049 0d00 8091 0000 		lds r24,led_frame_bitmap+40
 2050 0d04 8923      		and r24,r25
 2051 0d06 8093 0000 		sts led_frame_bitmap+40,r24
 2052               	.LM349:
 2053 0d0a 8091 0000 		lds r24,led_frame_bitmap+48
 2054 0d0e 8923      		and r24,r25
 2055 0d10 8093 0000 		sts led_frame_bitmap+48,r24
 2056               	.LM350:
 2057 0d14 8091 0000 		lds r24,led_frame_bitmap+56
 2058 0d18 8923      		and r24,r25
 2059 0d1a 8093 0000 		sts led_frame_bitmap+56,r24
 2060               	.LM351:
 2061 0d1e 8091 0000 		lds r24,led_frame_bitmap+1
 2062 0d22 8223      		and r24,r18
 2063 0d24 01F0      		breq .L114
 2064               	.LM352:
 2065 0d26 322B      		or r19,r18
 2066 0d28 3093 0000 		sts led_frame_bitmap,r19
 2067               	.L114:
 2068               	.LM353:
 2069 0d2c 8091 0000 		lds r24,led_frame_bitmap+9
 2070 0d30 8223      		and r24,r18
 2071 0d32 01F0      		breq .L115
 2072               	.LM354:
 2073 0d34 8091 0000 		lds r24,led_frame_bitmap+8
 2074 0d38 822B      		or r24,r18
 2075 0d3a 8093 0000 		sts led_frame_bitmap+8,r24
 2076               	.L115:
 2077               	.LM355:
 2078 0d3e 8091 0000 		lds r24,led_frame_bitmap+17
 2079 0d42 8223      		and r24,r18
 2080 0d44 01F0      		breq .L116
 2081               	.LM356:
 2082 0d46 8091 0000 		lds r24,led_frame_bitmap+16
 2083 0d4a 822B      		or r24,r18
 2084 0d4c 8093 0000 		sts led_frame_bitmap+16,r24
 2085               	.L116:
 2086               	.LM357:
 2087 0d50 8091 0000 		lds r24,led_frame_bitmap+25
 2088 0d54 8223      		and r24,r18
 2089 0d56 01F0      		breq .L117
 2090               	.LM358:
 2091 0d58 8091 0000 		lds r24,led_frame_bitmap+24
 2092 0d5c 822B      		or r24,r18
 2093 0d5e 8093 0000 		sts led_frame_bitmap+24,r24
 2094               	.L117:
 2095               	.LM359:
 2096 0d62 8091 0000 		lds r24,led_frame_bitmap+33
 2097 0d66 8223      		and r24,r18
 2098 0d68 01F0      		breq .L118
 2099               	.LM360:
 2100 0d6a 8091 0000 		lds r24,led_frame_bitmap+32
 2101 0d6e 822B      		or r24,r18
 2102 0d70 8093 0000 		sts led_frame_bitmap+32,r24
 2103               	.L118:
 2104               	.LM361:
 2105 0d74 8091 0000 		lds r24,led_frame_bitmap+41
 2106 0d78 8223      		and r24,r18
 2107 0d7a 01F0      		breq .L119
 2108               	.LM362:
 2109 0d7c 8091 0000 		lds r24,led_frame_bitmap+40
 2110 0d80 822B      		or r24,r18
 2111 0d82 8093 0000 		sts led_frame_bitmap+40,r24
 2112               	.L119:
 2113               	.LM363:
 2114 0d86 8091 0000 		lds r24,led_frame_bitmap+49
 2115 0d8a 8223      		and r24,r18
 2116 0d8c 01F0      		breq .L120
 2117               	.LM364:
 2118 0d8e 8091 0000 		lds r24,led_frame_bitmap+48
 2119 0d92 822B      		or r24,r18
 2120 0d94 8093 0000 		sts led_frame_bitmap+48,r24
 2121               	.L120:
 2122               	.LM365:
 2123 0d98 8091 0000 		lds r24,led_frame_bitmap+57
 2124 0d9c 8223      		and r24,r18
 2125 0d9e 01F0      		breq .L121
 2126               	.LM366:
 2127 0da0 8091 0000 		lds r24,led_frame_bitmap+56
 2128 0da4 822B      		or r24,r18
 2129 0da6 8093 0000 		sts led_frame_bitmap+56,r24
 2130               	.L121:
 2131               	.LM367:
 2132 0daa 3091 0000 		lds r19,led_frame_bitmap+1
 2133 0dae 3923      		and r19,r25
 2134 0db0 3093 0000 		sts led_frame_bitmap+1,r19
 2135               	.LM368:
 2136 0db4 8091 0000 		lds r24,led_frame_bitmap+9
 2137 0db8 8923      		and r24,r25
 2138 0dba 8093 0000 		sts led_frame_bitmap+9,r24
 2139               	.LM369:
 2140 0dbe 8091 0000 		lds r24,led_frame_bitmap+17
 2141 0dc2 8923      		and r24,r25
 2142 0dc4 8093 0000 		sts led_frame_bitmap+17,r24
 2143               	.LM370:
 2144 0dc8 8091 0000 		lds r24,led_frame_bitmap+25
 2145 0dcc 8923      		and r24,r25
 2146 0dce 8093 0000 		sts led_frame_bitmap+25,r24
 2147               	.LM371:
 2148 0dd2 8091 0000 		lds r24,led_frame_bitmap+33
 2149 0dd6 8923      		and r24,r25
 2150 0dd8 8093 0000 		sts led_frame_bitmap+33,r24
 2151               	.LM372:
 2152 0ddc 8091 0000 		lds r24,led_frame_bitmap+41
 2153 0de0 8923      		and r24,r25
 2154 0de2 8093 0000 		sts led_frame_bitmap+41,r24
 2155               	.LM373:
 2156 0de6 8091 0000 		lds r24,led_frame_bitmap+49
 2157 0dea 8923      		and r24,r25
 2158 0dec 8093 0000 		sts led_frame_bitmap+49,r24
 2159               	.LM374:
 2160 0df0 8091 0000 		lds r24,led_frame_bitmap+57
 2161 0df4 8923      		and r24,r25
 2162 0df6 8093 0000 		sts led_frame_bitmap+57,r24
 2163               	.LM375:
 2164 0dfa 8091 0000 		lds r24,led_frame_bitmap+2
 2165 0dfe 8223      		and r24,r18
 2166 0e00 01F0      		breq .L122
 2167               	.LM376:
 2168 0e02 322B      		or r19,r18
 2169 0e04 3093 0000 		sts led_frame_bitmap+1,r19
 2170               	.L122:
 2171               	.LM377:
 2172 0e08 8091 0000 		lds r24,led_frame_bitmap+10
 2173 0e0c 8223      		and r24,r18
 2174 0e0e 01F0      		breq .L123
 2175               	.LM378:
 2176 0e10 8091 0000 		lds r24,led_frame_bitmap+9
 2177 0e14 822B      		or r24,r18
 2178 0e16 8093 0000 		sts led_frame_bitmap+9,r24
 2179               	.L123:
 2180               	.LM379:
 2181 0e1a 8091 0000 		lds r24,led_frame_bitmap+18
 2182 0e1e 8223      		and r24,r18
 2183 0e20 01F0      		breq .L124
 2184               	.LM380:
 2185 0e22 8091 0000 		lds r24,led_frame_bitmap+17
 2186 0e26 822B      		or r24,r18
 2187 0e28 8093 0000 		sts led_frame_bitmap+17,r24
 2188               	.L124:
 2189               	.LM381:
 2190 0e2c 8091 0000 		lds r24,led_frame_bitmap+26
 2191 0e30 8223      		and r24,r18
 2192 0e32 01F0      		breq .L125
 2193               	.LM382:
 2194 0e34 8091 0000 		lds r24,led_frame_bitmap+25
 2195 0e38 822B      		or r24,r18
 2196 0e3a 8093 0000 		sts led_frame_bitmap+25,r24
 2197               	.L125:
 2198               	.LM383:
 2199 0e3e 8091 0000 		lds r24,led_frame_bitmap+34
 2200 0e42 8223      		and r24,r18
 2201 0e44 01F0      		breq .L126
 2202               	.LM384:
 2203 0e46 8091 0000 		lds r24,led_frame_bitmap+33
 2204 0e4a 822B      		or r24,r18
 2205 0e4c 8093 0000 		sts led_frame_bitmap+33,r24
 2206               	.L126:
 2207               	.LM385:
 2208 0e50 8091 0000 		lds r24,led_frame_bitmap+42
 2209 0e54 8223      		and r24,r18
 2210 0e56 01F0      		breq .L127
 2211               	.LM386:
 2212 0e58 8091 0000 		lds r24,led_frame_bitmap+41
 2213 0e5c 822B      		or r24,r18
 2214 0e5e 8093 0000 		sts led_frame_bitmap+41,r24
 2215               	.L127:
 2216               	.LM387:
 2217 0e62 8091 0000 		lds r24,led_frame_bitmap+50
 2218 0e66 8223      		and r24,r18
 2219 0e68 01F0      		breq .L128
 2220               	.LM388:
 2221 0e6a 8091 0000 		lds r24,led_frame_bitmap+49
 2222 0e6e 822B      		or r24,r18
 2223 0e70 8093 0000 		sts led_frame_bitmap+49,r24
 2224               	.L128:
 2225               	.LM389:
 2226 0e74 8091 0000 		lds r24,led_frame_bitmap+58
 2227 0e78 8223      		and r24,r18
 2228 0e7a 01F0      		breq .L129
 2229               	.LM390:
 2230 0e7c 8091 0000 		lds r24,led_frame_bitmap+57
 2231 0e80 822B      		or r24,r18
 2232 0e82 8093 0000 		sts led_frame_bitmap+57,r24
 2233               	.L129:
 2234               	.LM391:
 2235 0e86 3091 0000 		lds r19,led_frame_bitmap+2
 2236 0e8a 3923      		and r19,r25
 2237 0e8c 3093 0000 		sts led_frame_bitmap+2,r19
 2238               	.LM392:
 2239 0e90 8091 0000 		lds r24,led_frame_bitmap+10
 2240 0e94 8923      		and r24,r25
 2241 0e96 8093 0000 		sts led_frame_bitmap+10,r24
 2242               	.LM393:
 2243 0e9a 8091 0000 		lds r24,led_frame_bitmap+18
 2244 0e9e 8923      		and r24,r25
 2245 0ea0 8093 0000 		sts led_frame_bitmap+18,r24
 2246               	.LM394:
 2247 0ea4 8091 0000 		lds r24,led_frame_bitmap+26
 2248 0ea8 8923      		and r24,r25
 2249 0eaa 8093 0000 		sts led_frame_bitmap+26,r24
 2250               	.LM395:
 2251 0eae 8091 0000 		lds r24,led_frame_bitmap+34
 2252 0eb2 8923      		and r24,r25
 2253 0eb4 8093 0000 		sts led_frame_bitmap+34,r24
 2254               	.LM396:
 2255 0eb8 8091 0000 		lds r24,led_frame_bitmap+42
 2256 0ebc 8923      		and r24,r25
 2257 0ebe 8093 0000 		sts led_frame_bitmap+42,r24
 2258               	.LM397:
 2259 0ec2 8091 0000 		lds r24,led_frame_bitmap+50
 2260 0ec6 8923      		and r24,r25
 2261 0ec8 8093 0000 		sts led_frame_bitmap+50,r24
 2262               	.LM398:
 2263 0ecc 8091 0000 		lds r24,led_frame_bitmap+58
 2264 0ed0 8923      		and r24,r25
 2265 0ed2 8093 0000 		sts led_frame_bitmap+58,r24
 2266               	.LM399:
 2267 0ed6 8091 0000 		lds r24,led_frame_bitmap+3
 2268 0eda 8223      		and r24,r18
 2269 0edc 01F0      		breq .L130
 2270               	.LM400:
 2271 0ede 322B      		or r19,r18
 2272 0ee0 3093 0000 		sts led_frame_bitmap+2,r19
 2273               	.L130:
 2274               	.LM401:
 2275 0ee4 8091 0000 		lds r24,led_frame_bitmap+11
 2276 0ee8 8223      		and r24,r18
 2277 0eea 01F0      		breq .L131
 2278               	.LM402:
 2279 0eec 8091 0000 		lds r24,led_frame_bitmap+10
 2280 0ef0 822B      		or r24,r18
 2281 0ef2 8093 0000 		sts led_frame_bitmap+10,r24
 2282               	.L131:
 2283               	.LM403:
 2284 0ef6 8091 0000 		lds r24,led_frame_bitmap+19
 2285 0efa 8223      		and r24,r18
 2286 0efc 01F0      		breq .L132
 2287               	.LM404:
 2288 0efe 8091 0000 		lds r24,led_frame_bitmap+18
 2289 0f02 822B      		or r24,r18
 2290 0f04 8093 0000 		sts led_frame_bitmap+18,r24
 2291               	.L132:
 2292               	.LM405:
 2293 0f08 8091 0000 		lds r24,led_frame_bitmap+27
 2294 0f0c 8223      		and r24,r18
 2295 0f0e 01F0      		breq .L133
 2296               	.LM406:
 2297 0f10 8091 0000 		lds r24,led_frame_bitmap+26
 2298 0f14 822B      		or r24,r18
 2299 0f16 8093 0000 		sts led_frame_bitmap+26,r24
 2300               	.L133:
 2301               	.LM407:
 2302 0f1a 8091 0000 		lds r24,led_frame_bitmap+35
 2303 0f1e 8223      		and r24,r18
 2304 0f20 01F0      		breq .L134
 2305               	.LM408:
 2306 0f22 8091 0000 		lds r24,led_frame_bitmap+34
 2307 0f26 822B      		or r24,r18
 2308 0f28 8093 0000 		sts led_frame_bitmap+34,r24
 2309               	.L134:
 2310               	.LM409:
 2311 0f2c 8091 0000 		lds r24,led_frame_bitmap+43
 2312 0f30 8223      		and r24,r18
 2313 0f32 01F0      		breq .L135
 2314               	.LM410:
 2315 0f34 8091 0000 		lds r24,led_frame_bitmap+42
 2316 0f38 822B      		or r24,r18
 2317 0f3a 8093 0000 		sts led_frame_bitmap+42,r24
 2318               	.L135:
 2319               	.LM411:
 2320 0f3e 8091 0000 		lds r24,led_frame_bitmap+51
 2321 0f42 8223      		and r24,r18
 2322 0f44 01F0      		breq .L136
 2323               	.LM412:
 2324 0f46 8091 0000 		lds r24,led_frame_bitmap+50
 2325 0f4a 822B      		or r24,r18
 2326 0f4c 8093 0000 		sts led_frame_bitmap+50,r24
 2327               	.L136:
 2328               	.LM413:
 2329 0f50 8091 0000 		lds r24,led_frame_bitmap+59
 2330 0f54 8223      		and r24,r18
 2331 0f56 01F0      		breq .L137
 2332               	.LM414:
 2333 0f58 8091 0000 		lds r24,led_frame_bitmap+58
 2334 0f5c 822B      		or r24,r18
 2335 0f5e 8093 0000 		sts led_frame_bitmap+58,r24
 2336               	.L137:
 2337               	.LM415:
 2338 0f62 3091 0000 		lds r19,led_frame_bitmap+3
 2339 0f66 3923      		and r19,r25
 2340 0f68 3093 0000 		sts led_frame_bitmap+3,r19
 2341               	.LM416:
 2342 0f6c 8091 0000 		lds r24,led_frame_bitmap+11
 2343 0f70 8923      		and r24,r25
 2344 0f72 8093 0000 		sts led_frame_bitmap+11,r24
 2345               	.LM417:
 2346 0f76 8091 0000 		lds r24,led_frame_bitmap+19
 2347 0f7a 8923      		and r24,r25
 2348 0f7c 8093 0000 		sts led_frame_bitmap+19,r24
 2349               	.LM418:
 2350 0f80 8091 0000 		lds r24,led_frame_bitmap+27
 2351 0f84 8923      		and r24,r25
 2352 0f86 8093 0000 		sts led_frame_bitmap+27,r24
 2353               	.LM419:
 2354 0f8a 8091 0000 		lds r24,led_frame_bitmap+35
 2355 0f8e 8923      		and r24,r25
 2356 0f90 8093 0000 		sts led_frame_bitmap+35,r24
 2357               	.LM420:
 2358 0f94 8091 0000 		lds r24,led_frame_bitmap+43
 2359 0f98 8923      		and r24,r25
 2360 0f9a 8093 0000 		sts led_frame_bitmap+43,r24
 2361               	.LM421:
 2362 0f9e 8091 0000 		lds r24,led_frame_bitmap+51
 2363 0fa2 8923      		and r24,r25
 2364 0fa4 8093 0000 		sts led_frame_bitmap+51,r24
 2365               	.LM422:
 2366 0fa8 8091 0000 		lds r24,led_frame_bitmap+59
 2367 0fac 8923      		and r24,r25
 2368 0fae 8093 0000 		sts led_frame_bitmap+59,r24
 2369               	.LM423:
 2370 0fb2 8091 0000 		lds r24,led_frame_bitmap+4
 2371 0fb6 8223      		and r24,r18
 2372 0fb8 01F0      		breq .L138
 2373               	.LM424:
 2374 0fba 322B      		or r19,r18
 2375 0fbc 3093 0000 		sts led_frame_bitmap+3,r19
 2376               	.L138:
 2377               	.LM425:
 2378 0fc0 8091 0000 		lds r24,led_frame_bitmap+12
 2379 0fc4 8223      		and r24,r18
 2380 0fc6 01F0      		breq .L139
 2381               	.LM426:
 2382 0fc8 8091 0000 		lds r24,led_frame_bitmap+11
 2383 0fcc 822B      		or r24,r18
 2384 0fce 8093 0000 		sts led_frame_bitmap+11,r24
 2385               	.L139:
 2386               	.LM427:
 2387 0fd2 8091 0000 		lds r24,led_frame_bitmap+20
 2388 0fd6 8223      		and r24,r18
 2389 0fd8 01F0      		breq .L140
 2390               	.LM428:
 2391 0fda 8091 0000 		lds r24,led_frame_bitmap+19
 2392 0fde 822B      		or r24,r18
 2393 0fe0 8093 0000 		sts led_frame_bitmap+19,r24
 2394               	.L140:
 2395               	.LM429:
 2396 0fe4 8091 0000 		lds r24,led_frame_bitmap+28
 2397 0fe8 8223      		and r24,r18
 2398 0fea 01F0      		breq .L141
 2399               	.LM430:
 2400 0fec 8091 0000 		lds r24,led_frame_bitmap+27
 2401 0ff0 822B      		or r24,r18
 2402 0ff2 8093 0000 		sts led_frame_bitmap+27,r24
 2403               	.L141:
 2404               	.LM431:
 2405 0ff6 8091 0000 		lds r24,led_frame_bitmap+36
 2406 0ffa 8223      		and r24,r18
 2407 0ffc 01F0      		breq .L142
 2408               	.LM432:
 2409 0ffe 8091 0000 		lds r24,led_frame_bitmap+35
 2410 1002 822B      		or r24,r18
 2411 1004 8093 0000 		sts led_frame_bitmap+35,r24
 2412               	.L142:
 2413               	.LM433:
 2414 1008 8091 0000 		lds r24,led_frame_bitmap+44
 2415 100c 8223      		and r24,r18
 2416 100e 01F0      		breq .L143
 2417               	.LM434:
 2418 1010 8091 0000 		lds r24,led_frame_bitmap+43
 2419 1014 822B      		or r24,r18
 2420 1016 8093 0000 		sts led_frame_bitmap+43,r24
 2421               	.L143:
 2422               	.LM435:
 2423 101a 8091 0000 		lds r24,led_frame_bitmap+52
 2424 101e 8223      		and r24,r18
 2425 1020 01F0      		breq .L144
 2426               	.LM436:
 2427 1022 8091 0000 		lds r24,led_frame_bitmap+51
 2428 1026 822B      		or r24,r18
 2429 1028 8093 0000 		sts led_frame_bitmap+51,r24
 2430               	.L144:
 2431               	.LM437:
 2432 102c 8091 0000 		lds r24,led_frame_bitmap+60
 2433 1030 8223      		and r24,r18
 2434 1032 01F0      		breq .L145
 2435               	.LM438:
 2436 1034 8091 0000 		lds r24,led_frame_bitmap+59
 2437 1038 822B      		or r24,r18
 2438 103a 8093 0000 		sts led_frame_bitmap+59,r24
 2439               	.L145:
 2440               	.LM439:
 2441 103e 3091 0000 		lds r19,led_frame_bitmap+4
 2442 1042 3923      		and r19,r25
 2443 1044 3093 0000 		sts led_frame_bitmap+4,r19
 2444               	.LM440:
 2445 1048 8091 0000 		lds r24,led_frame_bitmap+12
 2446 104c 8923      		and r24,r25
 2447 104e 8093 0000 		sts led_frame_bitmap+12,r24
 2448               	.LM441:
 2449 1052 8091 0000 		lds r24,led_frame_bitmap+20
 2450 1056 8923      		and r24,r25
 2451 1058 8093 0000 		sts led_frame_bitmap+20,r24
 2452               	.LM442:
 2453 105c 8091 0000 		lds r24,led_frame_bitmap+28
 2454 1060 8923      		and r24,r25
 2455 1062 8093 0000 		sts led_frame_bitmap+28,r24
 2456               	.LM443:
 2457 1066 8091 0000 		lds r24,led_frame_bitmap+36
 2458 106a 8923      		and r24,r25
 2459 106c 8093 0000 		sts led_frame_bitmap+36,r24
 2460               	.LM444:
 2461 1070 8091 0000 		lds r24,led_frame_bitmap+44
 2462 1074 8923      		and r24,r25
 2463 1076 8093 0000 		sts led_frame_bitmap+44,r24
 2464               	.LM445:
 2465 107a 8091 0000 		lds r24,led_frame_bitmap+52
 2466 107e 8923      		and r24,r25
 2467 1080 8093 0000 		sts led_frame_bitmap+52,r24
 2468               	.LM446:
 2469 1084 8091 0000 		lds r24,led_frame_bitmap+60
 2470 1088 8923      		and r24,r25
 2471 108a 8093 0000 		sts led_frame_bitmap+60,r24
 2472               	.LM447:
 2473 108e 8091 0000 		lds r24,led_frame_bitmap+5
 2474 1092 8223      		and r24,r18
 2475 1094 01F0      		breq .L146
 2476               	.LM448:
 2477 1096 322B      		or r19,r18
 2478 1098 3093 0000 		sts led_frame_bitmap+4,r19
 2479               	.L146:
 2480               	.LM449:
 2481 109c 8091 0000 		lds r24,led_frame_bitmap+13
 2482 10a0 8223      		and r24,r18
 2483 10a2 01F0      		breq .L147
 2484               	.LM450:
 2485 10a4 8091 0000 		lds r24,led_frame_bitmap+12
 2486 10a8 822B      		or r24,r18
 2487 10aa 8093 0000 		sts led_frame_bitmap+12,r24
 2488               	.L147:
 2489               	.LM451:
 2490 10ae 8091 0000 		lds r24,led_frame_bitmap+21
 2491 10b2 8223      		and r24,r18
 2492 10b4 01F0      		breq .L148
 2493               	.LM452:
 2494 10b6 8091 0000 		lds r24,led_frame_bitmap+20
 2495 10ba 822B      		or r24,r18
 2496 10bc 8093 0000 		sts led_frame_bitmap+20,r24
 2497               	.L148:
 2498               	.LM453:
 2499 10c0 8091 0000 		lds r24,led_frame_bitmap+29
 2500 10c4 8223      		and r24,r18
 2501 10c6 01F0      		breq .L149
 2502               	.LM454:
 2503 10c8 8091 0000 		lds r24,led_frame_bitmap+28
 2504 10cc 822B      		or r24,r18
 2505 10ce 8093 0000 		sts led_frame_bitmap+28,r24
 2506               	.L149:
 2507               	.LM455:
 2508 10d2 8091 0000 		lds r24,led_frame_bitmap+37
 2509 10d6 8223      		and r24,r18
 2510 10d8 01F0      		breq .L150
 2511               	.LM456:
 2512 10da 8091 0000 		lds r24,led_frame_bitmap+36
 2513 10de 822B      		or r24,r18
 2514 10e0 8093 0000 		sts led_frame_bitmap+36,r24
 2515               	.L150:
 2516               	.LM457:
 2517 10e4 8091 0000 		lds r24,led_frame_bitmap+45
 2518 10e8 8223      		and r24,r18
 2519 10ea 01F0      		breq .L151
 2520               	.LM458:
 2521 10ec 8091 0000 		lds r24,led_frame_bitmap+44
 2522 10f0 822B      		or r24,r18
 2523 10f2 8093 0000 		sts led_frame_bitmap+44,r24
 2524               	.L151:
 2525               	.LM459:
 2526 10f6 8091 0000 		lds r24,led_frame_bitmap+53
 2527 10fa 8223      		and r24,r18
 2528 10fc 01F0      		breq .L152
 2529               	.LM460:
 2530 10fe 8091 0000 		lds r24,led_frame_bitmap+52
 2531 1102 822B      		or r24,r18
 2532 1104 8093 0000 		sts led_frame_bitmap+52,r24
 2533               	.L152:
 2534               	.LM461:
 2535 1108 8091 0000 		lds r24,led_frame_bitmap+61
 2536 110c 8223      		and r24,r18
 2537 110e 01F0      		breq .L153
 2538               	.LM462:
 2539 1110 8091 0000 		lds r24,led_frame_bitmap+60
 2540 1114 822B      		or r24,r18
 2541 1116 8093 0000 		sts led_frame_bitmap+60,r24
 2542               	.L153:
 2543               	.LM463:
 2544 111a 3091 0000 		lds r19,led_frame_bitmap+5
 2545 111e 3923      		and r19,r25
 2546 1120 3093 0000 		sts led_frame_bitmap+5,r19
 2547               	.LM464:
 2548 1124 8091 0000 		lds r24,led_frame_bitmap+13
 2549 1128 8923      		and r24,r25
 2550 112a 8093 0000 		sts led_frame_bitmap+13,r24
 2551               	.LM465:
 2552 112e 8091 0000 		lds r24,led_frame_bitmap+21
 2553 1132 8923      		and r24,r25
 2554 1134 8093 0000 		sts led_frame_bitmap+21,r24
 2555               	.LM466:
 2556 1138 8091 0000 		lds r24,led_frame_bitmap+29
 2557 113c 8923      		and r24,r25
 2558 113e 8093 0000 		sts led_frame_bitmap+29,r24
 2559               	.LM467:
 2560 1142 8091 0000 		lds r24,led_frame_bitmap+37
 2561 1146 8923      		and r24,r25
 2562 1148 8093 0000 		sts led_frame_bitmap+37,r24
 2563               	.LM468:
 2564 114c 8091 0000 		lds r24,led_frame_bitmap+45
 2565 1150 8923      		and r24,r25
 2566 1152 8093 0000 		sts led_frame_bitmap+45,r24
 2567               	.LM469:
 2568 1156 8091 0000 		lds r24,led_frame_bitmap+53
 2569 115a 8923      		and r24,r25
 2570 115c 8093 0000 		sts led_frame_bitmap+53,r24
 2571               	.LM470:
 2572 1160 8091 0000 		lds r24,led_frame_bitmap+61
 2573 1164 8923      		and r24,r25
 2574 1166 8093 0000 		sts led_frame_bitmap+61,r24
 2575               	.LM471:
 2576 116a 8091 0000 		lds r24,led_frame_bitmap+6
 2577 116e 8223      		and r24,r18
 2578 1170 01F0      		breq .L154
 2579               	.LM472:
 2580 1172 322B      		or r19,r18
 2581 1174 3093 0000 		sts led_frame_bitmap+5,r19
 2582               	.L154:
 2583               	.LM473:
 2584 1178 8091 0000 		lds r24,led_frame_bitmap+14
 2585 117c 8223      		and r24,r18
 2586 117e 01F0      		breq .L155
 2587               	.LM474:
 2588 1180 8091 0000 		lds r24,led_frame_bitmap+13
 2589 1184 822B      		or r24,r18
 2590 1186 8093 0000 		sts led_frame_bitmap+13,r24
 2591               	.L155:
 2592               	.LM475:
 2593 118a 8091 0000 		lds r24,led_frame_bitmap+22
 2594 118e 8223      		and r24,r18
 2595 1190 01F0      		breq .L156
 2596               	.LM476:
 2597 1192 8091 0000 		lds r24,led_frame_bitmap+21
 2598 1196 822B      		or r24,r18
 2599 1198 8093 0000 		sts led_frame_bitmap+21,r24
 2600               	.L156:
 2601               	.LM477:
 2602 119c 8091 0000 		lds r24,led_frame_bitmap+30
 2603 11a0 8223      		and r24,r18
 2604 11a2 01F0      		breq .L157
 2605               	.LM478:
 2606 11a4 8091 0000 		lds r24,led_frame_bitmap+29
 2607 11a8 822B      		or r24,r18
 2608 11aa 8093 0000 		sts led_frame_bitmap+29,r24
 2609               	.L157:
 2610               	.LM479:
 2611 11ae 8091 0000 		lds r24,led_frame_bitmap+38
 2612 11b2 8223      		and r24,r18
 2613 11b4 01F0      		breq .L158
 2614               	.LM480:
 2615 11b6 8091 0000 		lds r24,led_frame_bitmap+37
 2616 11ba 822B      		or r24,r18
 2617 11bc 8093 0000 		sts led_frame_bitmap+37,r24
 2618               	.L158:
 2619               	.LM481:
 2620 11c0 8091 0000 		lds r24,led_frame_bitmap+46
 2621 11c4 8223      		and r24,r18
 2622 11c6 01F0      		breq .L159
 2623               	.LM482:
 2624 11c8 8091 0000 		lds r24,led_frame_bitmap+45
 2625 11cc 822B      		or r24,r18
 2626 11ce 8093 0000 		sts led_frame_bitmap+45,r24
 2627               	.L159:
 2628               	.LM483:
 2629 11d2 8091 0000 		lds r24,led_frame_bitmap+54
 2630 11d6 8223      		and r24,r18
 2631 11d8 01F0      		breq .L160
 2632               	.LM484:
 2633 11da 8091 0000 		lds r24,led_frame_bitmap+53
 2634 11de 822B      		or r24,r18
 2635 11e0 8093 0000 		sts led_frame_bitmap+53,r24
 2636               	.L160:
 2637               	.LM485:
 2638 11e4 8091 0000 		lds r24,led_frame_bitmap+62
 2639 11e8 8223      		and r24,r18
 2640 11ea 01F0      		breq .L161
 2641               	.LM486:
 2642 11ec 8091 0000 		lds r24,led_frame_bitmap+61
 2643 11f0 822B      		or r24,r18
 2644 11f2 8093 0000 		sts led_frame_bitmap+61,r24
 2645               	.L161:
 2646               	.LM487:
 2647 11f6 3091 0000 		lds r19,led_frame_bitmap+6
 2648 11fa 3923      		and r19,r25
 2649 11fc 3093 0000 		sts led_frame_bitmap+6,r19
 2650               	.LM488:
 2651 1200 8091 0000 		lds r24,led_frame_bitmap+14
 2652 1204 8923      		and r24,r25
 2653 1206 8093 0000 		sts led_frame_bitmap+14,r24
 2654               	.LM489:
 2655 120a 8091 0000 		lds r24,led_frame_bitmap+22
 2656 120e 8923      		and r24,r25
 2657 1210 8093 0000 		sts led_frame_bitmap+22,r24
 2658               	.LM490:
 2659 1214 8091 0000 		lds r24,led_frame_bitmap+30
 2660 1218 8923      		and r24,r25
 2661 121a 8093 0000 		sts led_frame_bitmap+30,r24
 2662               	.LM491:
 2663 121e 8091 0000 		lds r24,led_frame_bitmap+38
 2664 1222 8923      		and r24,r25
 2665 1224 8093 0000 		sts led_frame_bitmap+38,r24
 2666               	.LM492:
 2667 1228 8091 0000 		lds r24,led_frame_bitmap+46
 2668 122c 8923      		and r24,r25
 2669 122e 8093 0000 		sts led_frame_bitmap+46,r24
 2670               	.LM493:
 2671 1232 8091 0000 		lds r24,led_frame_bitmap+54
 2672 1236 8923      		and r24,r25
 2673 1238 8093 0000 		sts led_frame_bitmap+54,r24
 2674               	.LM494:
 2675 123c 8091 0000 		lds r24,led_frame_bitmap+62
 2676 1240 8923      		and r24,r25
 2677 1242 8093 0000 		sts led_frame_bitmap+62,r24
 2678               	.LM495:
 2679 1246 8091 0000 		lds r24,led_frame_bitmap+7
 2680 124a 8223      		and r24,r18
 2681 124c 01F0      		breq .L162
 2682               	.LM496:
 2683 124e 322B      		or r19,r18
 2684 1250 3093 0000 		sts led_frame_bitmap+6,r19
 2685               	.L162:
 2686               	.LM497:
 2687 1254 8091 0000 		lds r24,led_frame_bitmap+15
 2688 1258 8223      		and r24,r18
 2689 125a 01F0      		breq .L163
 2690               	.LM498:
 2691 125c 8091 0000 		lds r24,led_frame_bitmap+14
 2692 1260 822B      		or r24,r18
 2693 1262 8093 0000 		sts led_frame_bitmap+14,r24
 2694               	.L163:
 2695               	.LM499:
 2696 1266 8091 0000 		lds r24,led_frame_bitmap+23
 2697 126a 8223      		and r24,r18
 2698 126c 01F0      		breq .L164
 2699               	.LM500:
 2700 126e 8091 0000 		lds r24,led_frame_bitmap+22
 2701 1272 822B      		or r24,r18
 2702 1274 8093 0000 		sts led_frame_bitmap+22,r24
 2703               	.L164:
 2704               	.LM501:
 2705 1278 8091 0000 		lds r24,led_frame_bitmap+31
 2706 127c 8223      		and r24,r18
 2707 127e 01F0      		breq .L165
 2708               	.LM502:
 2709 1280 8091 0000 		lds r24,led_frame_bitmap+30
 2710 1284 822B      		or r24,r18
 2711 1286 8093 0000 		sts led_frame_bitmap+30,r24
 2712               	.L165:
 2713               	.LM503:
 2714 128a 8091 0000 		lds r24,led_frame_bitmap+39
 2715 128e 8223      		and r24,r18
 2716 1290 01F0      		breq .L166
 2717               	.LM504:
 2718 1292 8091 0000 		lds r24,led_frame_bitmap+38
 2719 1296 822B      		or r24,r18
 2720 1298 8093 0000 		sts led_frame_bitmap+38,r24
 2721               	.L166:
 2722               	.LM505:
 2723 129c 8091 0000 		lds r24,led_frame_bitmap+47
 2724 12a0 8223      		and r24,r18
 2725 12a2 01F0      		breq .L167
 2726               	.LM506:
 2727 12a4 8091 0000 		lds r24,led_frame_bitmap+46
 2728 12a8 822B      		or r24,r18
 2729 12aa 8093 0000 		sts led_frame_bitmap+46,r24
 2730               	.L167:
 2731               	.LM507:
 2732 12ae 8091 0000 		lds r24,led_frame_bitmap+55
 2733 12b2 8223      		and r24,r18
 2734 12b4 01F0      		breq .L168
 2735               	.LM508:
 2736 12b6 8091 0000 		lds r24,led_frame_bitmap+54
 2737 12ba 822B      		or r24,r18
 2738 12bc 8093 0000 		sts led_frame_bitmap+54,r24
 2739               	.L168:
 2740               	.LM509:
 2741 12c0 8091 0000 		lds r24,led_frame_bitmap+63
 2742 12c4 8223      		and r24,r18
 2743 12c6 01F0      		breq .L169
 2744               	.LM510:
 2745 12c8 8091 0000 		lds r24,led_frame_bitmap+62
 2746 12cc 282B      		or r18,r24
 2747 12ce 2093 0000 		sts led_frame_bitmap+62,r18
 2748               	.L169:
 2749               	.LM511:
 2750 12d2 8091 0000 		lds r24,led_frame_bitmap+7
 2751 12d6 8923      		and r24,r25
 2752 12d8 8093 0000 		sts led_frame_bitmap+7,r24
 2753               	.LM512:
 2754 12dc 8091 0000 		lds r24,led_frame_bitmap+15
 2755 12e0 8923      		and r24,r25
 2756 12e2 8093 0000 		sts led_frame_bitmap+15,r24
 2757               	.LM513:
 2758 12e6 8091 0000 		lds r24,led_frame_bitmap+23
 2759 12ea 8923      		and r24,r25
 2760 12ec 8093 0000 		sts led_frame_bitmap+23,r24
 2761               	.LM514:
 2762 12f0 8091 0000 		lds r24,led_frame_bitmap+31
 2763 12f4 8923      		and r24,r25
 2764 12f6 8093 0000 		sts led_frame_bitmap+31,r24
 2765               	.LM515:
 2766 12fa 8091 0000 		lds r24,led_frame_bitmap+39
 2767 12fe 8923      		and r24,r25
 2768 1300 8093 0000 		sts led_frame_bitmap+39,r24
 2769               	.LM516:
 2770 1304 8091 0000 		lds r24,led_frame_bitmap+47
 2771 1308 8923      		and r24,r25
 2772 130a 8093 0000 		sts led_frame_bitmap+47,r24
 2773               	.LM517:
 2774 130e 8091 0000 		lds r24,led_frame_bitmap+55
 2775 1312 8923      		and r24,r25
 2776 1314 8093 0000 		sts led_frame_bitmap+55,r24
 2777               	.LM518:
 2778 1318 8091 0000 		lds r24,led_frame_bitmap+63
 2779 131c 9823      		and r25,r24
 2780 131e 9093 0000 		sts led_frame_bitmap+63,r25
 2781               	/* epilogue start */
 2782               	.LM519:
 2783 1322 0895      		ret
 2784               	.LFE31:
 2786               	.global	led_plane_x_up
 2788               	led_plane_x_up:
 2789               	.LFB32:
 2790               	.LM520:
 2791               	.LVL153:
 2792               	/* prologue: function */
 2793               	/* frame size = 0 */
 2794               	.LM521:
 2795 1324 20E8      		ldi r18,lo8(128)
 2796 1326 30E0      		ldi r19,hi8(128)
 2797 1328 00C0      		rjmp 2f
 2798 132a 3595      	1:	asr r19
 2799 132c 2795      		ror r18
 2800 132e 8A95      	2:	dec r24
 2801 1330 02F4      		brpl 1b
 2802               	.LM522:
 2803 1332 922F      		mov r25,r18
 2804               	.LVL154:
 2805 1334 9095      		com r25
 2806               	.LM523:
 2807 1336 3091 0000 		lds r19,led_frame_bitmap
 2808 133a 3923      		and r19,r25
 2809 133c 3093 0000 		sts led_frame_bitmap,r19
 2810               	.LM524:
 2811 1340 8091 0000 		lds r24,led_frame_bitmap+1
 2812               	.LVL155:
 2813 1344 8923      		and r24,r25
 2814 1346 8093 0000 		sts led_frame_bitmap+1,r24
 2815               	.LM525:
 2816 134a 8091 0000 		lds r24,led_frame_bitmap+2
 2817 134e 8923      		and r24,r25
 2818 1350 8093 0000 		sts led_frame_bitmap+2,r24
 2819               	.LM526:
 2820 1354 8091 0000 		lds r24,led_frame_bitmap+3
 2821 1358 8923      		and r24,r25
 2822 135a 8093 0000 		sts led_frame_bitmap+3,r24
 2823               	.LM527:
 2824 135e 8091 0000 		lds r24,led_frame_bitmap+4
 2825 1362 8923      		and r24,r25
 2826 1364 8093 0000 		sts led_frame_bitmap+4,r24
 2827               	.LM528:
 2828 1368 8091 0000 		lds r24,led_frame_bitmap+5
 2829 136c 8923      		and r24,r25
 2830 136e 8093 0000 		sts led_frame_bitmap+5,r24
 2831               	.LM529:
 2832 1372 8091 0000 		lds r24,led_frame_bitmap+6
 2833 1376 8923      		and r24,r25
 2834 1378 8093 0000 		sts led_frame_bitmap+6,r24
 2835               	.LM530:
 2836 137c 8091 0000 		lds r24,led_frame_bitmap+7
 2837 1380 8923      		and r24,r25
 2838 1382 8093 0000 		sts led_frame_bitmap+7,r24
 2839               	.LM531:
 2840 1386 8091 0000 		lds r24,led_frame_bitmap+8
 2841 138a 8223      		and r24,r18
 2842 138c 01F0      		breq .L172
 2843               	.LM532:
 2844 138e 322B      		or r19,r18
 2845 1390 3093 0000 		sts led_frame_bitmap,r19
 2846               	.L172:
 2847               	.LM533:
 2848 1394 8091 0000 		lds r24,led_frame_bitmap+9
 2849 1398 8223      		and r24,r18
 2850 139a 01F0      		breq .L173
 2851               	.LM534:
 2852 139c 8091 0000 		lds r24,led_frame_bitmap+1
 2853 13a0 822B      		or r24,r18
 2854 13a2 8093 0000 		sts led_frame_bitmap+1,r24
 2855               	.L173:
 2856               	.LM535:
 2857 13a6 8091 0000 		lds r24,led_frame_bitmap+10
 2858 13aa 8223      		and r24,r18
 2859 13ac 01F0      		breq .L174
 2860               	.LM536:
 2861 13ae 8091 0000 		lds r24,led_frame_bitmap+2
 2862 13b2 822B      		or r24,r18
 2863 13b4 8093 0000 		sts led_frame_bitmap+2,r24
 2864               	.L174:
 2865               	.LM537:
 2866 13b8 8091 0000 		lds r24,led_frame_bitmap+11
 2867 13bc 8223      		and r24,r18
 2868 13be 01F0      		breq .L175
 2869               	.LM538:
 2870 13c0 8091 0000 		lds r24,led_frame_bitmap+3
 2871 13c4 822B      		or r24,r18
 2872 13c6 8093 0000 		sts led_frame_bitmap+3,r24
 2873               	.L175:
 2874               	.LM539:
 2875 13ca 8091 0000 		lds r24,led_frame_bitmap+12
 2876 13ce 8223      		and r24,r18
 2877 13d0 01F0      		breq .L176
 2878               	.LM540:
 2879 13d2 8091 0000 		lds r24,led_frame_bitmap+4
 2880 13d6 822B      		or r24,r18
 2881 13d8 8093 0000 		sts led_frame_bitmap+4,r24
 2882               	.L176:
 2883               	.LM541:
 2884 13dc 8091 0000 		lds r24,led_frame_bitmap+13
 2885 13e0 8223      		and r24,r18
 2886 13e2 01F0      		breq .L177
 2887               	.LM542:
 2888 13e4 8091 0000 		lds r24,led_frame_bitmap+5
 2889 13e8 822B      		or r24,r18
 2890 13ea 8093 0000 		sts led_frame_bitmap+5,r24
 2891               	.L177:
 2892               	.LM543:
 2893 13ee 8091 0000 		lds r24,led_frame_bitmap+14
 2894 13f2 8223      		and r24,r18
 2895 13f4 01F0      		breq .L178
 2896               	.LM544:
 2897 13f6 8091 0000 		lds r24,led_frame_bitmap+6
 2898 13fa 822B      		or r24,r18
 2899 13fc 8093 0000 		sts led_frame_bitmap+6,r24
 2900               	.L178:
 2901               	.LM545:
 2902 1400 8091 0000 		lds r24,led_frame_bitmap+15
 2903 1404 8223      		and r24,r18
 2904 1406 01F0      		breq .L179
 2905               	.LM546:
 2906 1408 8091 0000 		lds r24,led_frame_bitmap+7
 2907 140c 822B      		or r24,r18
 2908 140e 8093 0000 		sts led_frame_bitmap+7,r24
 2909               	.L179:
 2910               	.LM547:
 2911 1412 3091 0000 		lds r19,led_frame_bitmap+8
 2912 1416 3923      		and r19,r25
 2913 1418 3093 0000 		sts led_frame_bitmap+8,r19
 2914               	.LM548:
 2915 141c 8091 0000 		lds r24,led_frame_bitmap+9
 2916 1420 8923      		and r24,r25
 2917 1422 8093 0000 		sts led_frame_bitmap+9,r24
 2918               	.LM549:
 2919 1426 8091 0000 		lds r24,led_frame_bitmap+10
 2920 142a 8923      		and r24,r25
 2921 142c 8093 0000 		sts led_frame_bitmap+10,r24
 2922               	.LM550:
 2923 1430 8091 0000 		lds r24,led_frame_bitmap+11
 2924 1434 8923      		and r24,r25
 2925 1436 8093 0000 		sts led_frame_bitmap+11,r24
 2926               	.LM551:
 2927 143a 8091 0000 		lds r24,led_frame_bitmap+12
 2928 143e 8923      		and r24,r25
 2929 1440 8093 0000 		sts led_frame_bitmap+12,r24
 2930               	.LM552:
 2931 1444 8091 0000 		lds r24,led_frame_bitmap+13
 2932 1448 8923      		and r24,r25
 2933 144a 8093 0000 		sts led_frame_bitmap+13,r24
 2934               	.LM553:
 2935 144e 8091 0000 		lds r24,led_frame_bitmap+14
 2936 1452 8923      		and r24,r25
 2937 1454 8093 0000 		sts led_frame_bitmap+14,r24
 2938               	.LM554:
 2939 1458 8091 0000 		lds r24,led_frame_bitmap+15
 2940 145c 8923      		and r24,r25
 2941 145e 8093 0000 		sts led_frame_bitmap+15,r24
 2942               	.LM555:
 2943 1462 8091 0000 		lds r24,led_frame_bitmap+16
 2944 1466 8223      		and r24,r18
 2945 1468 01F0      		breq .L180
 2946               	.LM556:
 2947 146a 322B      		or r19,r18
 2948 146c 3093 0000 		sts led_frame_bitmap+8,r19
 2949               	.L180:
 2950               	.LM557:
 2951 1470 8091 0000 		lds r24,led_frame_bitmap+17
 2952 1474 8223      		and r24,r18
 2953 1476 01F0      		breq .L181
 2954               	.LM558:
 2955 1478 8091 0000 		lds r24,led_frame_bitmap+9
 2956 147c 822B      		or r24,r18
 2957 147e 8093 0000 		sts led_frame_bitmap+9,r24
 2958               	.L181:
 2959               	.LM559:
 2960 1482 8091 0000 		lds r24,led_frame_bitmap+18
 2961 1486 8223      		and r24,r18
 2962 1488 01F0      		breq .L182
 2963               	.LM560:
 2964 148a 8091 0000 		lds r24,led_frame_bitmap+10
 2965 148e 822B      		or r24,r18
 2966 1490 8093 0000 		sts led_frame_bitmap+10,r24
 2967               	.L182:
 2968               	.LM561:
 2969 1494 8091 0000 		lds r24,led_frame_bitmap+19
 2970 1498 8223      		and r24,r18
 2971 149a 01F0      		breq .L183
 2972               	.LM562:
 2973 149c 8091 0000 		lds r24,led_frame_bitmap+11
 2974 14a0 822B      		or r24,r18
 2975 14a2 8093 0000 		sts led_frame_bitmap+11,r24
 2976               	.L183:
 2977               	.LM563:
 2978 14a6 8091 0000 		lds r24,led_frame_bitmap+20
 2979 14aa 8223      		and r24,r18
 2980 14ac 01F0      		breq .L184
 2981               	.LM564:
 2982 14ae 8091 0000 		lds r24,led_frame_bitmap+12
 2983 14b2 822B      		or r24,r18
 2984 14b4 8093 0000 		sts led_frame_bitmap+12,r24
 2985               	.L184:
 2986               	.LM565:
 2987 14b8 8091 0000 		lds r24,led_frame_bitmap+21
 2988 14bc 8223      		and r24,r18
 2989 14be 01F0      		breq .L185
 2990               	.LM566:
 2991 14c0 8091 0000 		lds r24,led_frame_bitmap+13
 2992 14c4 822B      		or r24,r18
 2993 14c6 8093 0000 		sts led_frame_bitmap+13,r24
 2994               	.L185:
 2995               	.LM567:
 2996 14ca 8091 0000 		lds r24,led_frame_bitmap+22
 2997 14ce 8223      		and r24,r18
 2998 14d0 01F0      		breq .L186
 2999               	.LM568:
 3000 14d2 8091 0000 		lds r24,led_frame_bitmap+14
 3001 14d6 822B      		or r24,r18
 3002 14d8 8093 0000 		sts led_frame_bitmap+14,r24
 3003               	.L186:
 3004               	.LM569:
 3005 14dc 8091 0000 		lds r24,led_frame_bitmap+23
 3006 14e0 8223      		and r24,r18
 3007 14e2 01F0      		breq .L187
 3008               	.LM570:
 3009 14e4 8091 0000 		lds r24,led_frame_bitmap+15
 3010 14e8 822B      		or r24,r18
 3011 14ea 8093 0000 		sts led_frame_bitmap+15,r24
 3012               	.L187:
 3013               	.LM571:
 3014 14ee 3091 0000 		lds r19,led_frame_bitmap+16
 3015 14f2 3923      		and r19,r25
 3016 14f4 3093 0000 		sts led_frame_bitmap+16,r19
 3017               	.LM572:
 3018 14f8 8091 0000 		lds r24,led_frame_bitmap+17
 3019 14fc 8923      		and r24,r25
 3020 14fe 8093 0000 		sts led_frame_bitmap+17,r24
 3021               	.LM573:
 3022 1502 8091 0000 		lds r24,led_frame_bitmap+18
 3023 1506 8923      		and r24,r25
 3024 1508 8093 0000 		sts led_frame_bitmap+18,r24
 3025               	.LM574:
 3026 150c 8091 0000 		lds r24,led_frame_bitmap+19
 3027 1510 8923      		and r24,r25
 3028 1512 8093 0000 		sts led_frame_bitmap+19,r24
 3029               	.LM575:
 3030 1516 8091 0000 		lds r24,led_frame_bitmap+20
 3031 151a 8923      		and r24,r25
 3032 151c 8093 0000 		sts led_frame_bitmap+20,r24
 3033               	.LM576:
 3034 1520 8091 0000 		lds r24,led_frame_bitmap+21
 3035 1524 8923      		and r24,r25
 3036 1526 8093 0000 		sts led_frame_bitmap+21,r24
 3037               	.LM577:
 3038 152a 8091 0000 		lds r24,led_frame_bitmap+22
 3039 152e 8923      		and r24,r25
 3040 1530 8093 0000 		sts led_frame_bitmap+22,r24
 3041               	.LM578:
 3042 1534 8091 0000 		lds r24,led_frame_bitmap+23
 3043 1538 8923      		and r24,r25
 3044 153a 8093 0000 		sts led_frame_bitmap+23,r24
 3045               	.LM579:
 3046 153e 8091 0000 		lds r24,led_frame_bitmap+24
 3047 1542 8223      		and r24,r18
 3048 1544 01F0      		breq .L188
 3049               	.LM580:
 3050 1546 322B      		or r19,r18
 3051 1548 3093 0000 		sts led_frame_bitmap+16,r19
 3052               	.L188:
 3053               	.LM581:
 3054 154c 8091 0000 		lds r24,led_frame_bitmap+25
 3055 1550 8223      		and r24,r18
 3056 1552 01F0      		breq .L189
 3057               	.LM582:
 3058 1554 8091 0000 		lds r24,led_frame_bitmap+17
 3059 1558 822B      		or r24,r18
 3060 155a 8093 0000 		sts led_frame_bitmap+17,r24
 3061               	.L189:
 3062               	.LM583:
 3063 155e 8091 0000 		lds r24,led_frame_bitmap+26
 3064 1562 8223      		and r24,r18
 3065 1564 01F0      		breq .L190
 3066               	.LM584:
 3067 1566 8091 0000 		lds r24,led_frame_bitmap+18
 3068 156a 822B      		or r24,r18
 3069 156c 8093 0000 		sts led_frame_bitmap+18,r24
 3070               	.L190:
 3071               	.LM585:
 3072 1570 8091 0000 		lds r24,led_frame_bitmap+27
 3073 1574 8223      		and r24,r18
 3074 1576 01F0      		breq .L191
 3075               	.LM586:
 3076 1578 8091 0000 		lds r24,led_frame_bitmap+19
 3077 157c 822B      		or r24,r18
 3078 157e 8093 0000 		sts led_frame_bitmap+19,r24
 3079               	.L191:
 3080               	.LM587:
 3081 1582 8091 0000 		lds r24,led_frame_bitmap+28
 3082 1586 8223      		and r24,r18
 3083 1588 01F0      		breq .L192
 3084               	.LM588:
 3085 158a 8091 0000 		lds r24,led_frame_bitmap+20
 3086 158e 822B      		or r24,r18
 3087 1590 8093 0000 		sts led_frame_bitmap+20,r24
 3088               	.L192:
 3089               	.LM589:
 3090 1594 8091 0000 		lds r24,led_frame_bitmap+29
 3091 1598 8223      		and r24,r18
 3092 159a 01F0      		breq .L193
 3093               	.LM590:
 3094 159c 8091 0000 		lds r24,led_frame_bitmap+21
 3095 15a0 822B      		or r24,r18
 3096 15a2 8093 0000 		sts led_frame_bitmap+21,r24
 3097               	.L193:
 3098               	.LM591:
 3099 15a6 8091 0000 		lds r24,led_frame_bitmap+30
 3100 15aa 8223      		and r24,r18
 3101 15ac 01F0      		breq .L194
 3102               	.LM592:
 3103 15ae 8091 0000 		lds r24,led_frame_bitmap+22
 3104 15b2 822B      		or r24,r18
 3105 15b4 8093 0000 		sts led_frame_bitmap+22,r24
 3106               	.L194:
 3107               	.LM593:
 3108 15b8 8091 0000 		lds r24,led_frame_bitmap+31
 3109 15bc 8223      		and r24,r18
 3110 15be 01F0      		breq .L195
 3111               	.LM594:
 3112 15c0 8091 0000 		lds r24,led_frame_bitmap+23
 3113 15c4 822B      		or r24,r18
 3114 15c6 8093 0000 		sts led_frame_bitmap+23,r24
 3115               	.L195:
 3116               	.LM595:
 3117 15ca 3091 0000 		lds r19,led_frame_bitmap+24
 3118 15ce 3923      		and r19,r25
 3119 15d0 3093 0000 		sts led_frame_bitmap+24,r19
 3120               	.LM596:
 3121 15d4 8091 0000 		lds r24,led_frame_bitmap+25
 3122 15d8 8923      		and r24,r25
 3123 15da 8093 0000 		sts led_frame_bitmap+25,r24
 3124               	.LM597:
 3125 15de 8091 0000 		lds r24,led_frame_bitmap+26
 3126 15e2 8923      		and r24,r25
 3127 15e4 8093 0000 		sts led_frame_bitmap+26,r24
 3128               	.LM598:
 3129 15e8 8091 0000 		lds r24,led_frame_bitmap+27
 3130 15ec 8923      		and r24,r25
 3131 15ee 8093 0000 		sts led_frame_bitmap+27,r24
 3132               	.LM599:
 3133 15f2 8091 0000 		lds r24,led_frame_bitmap+28
 3134 15f6 8923      		and r24,r25
 3135 15f8 8093 0000 		sts led_frame_bitmap+28,r24
 3136               	.LM600:
 3137 15fc 8091 0000 		lds r24,led_frame_bitmap+29
 3138 1600 8923      		and r24,r25
 3139 1602 8093 0000 		sts led_frame_bitmap+29,r24
 3140               	.LM601:
 3141 1606 8091 0000 		lds r24,led_frame_bitmap+30
 3142 160a 8923      		and r24,r25
 3143 160c 8093 0000 		sts led_frame_bitmap+30,r24
 3144               	.LM602:
 3145 1610 8091 0000 		lds r24,led_frame_bitmap+31
 3146 1614 8923      		and r24,r25
 3147 1616 8093 0000 		sts led_frame_bitmap+31,r24
 3148               	.LM603:
 3149 161a 8091 0000 		lds r24,led_frame_bitmap+32
 3150 161e 8223      		and r24,r18
 3151 1620 01F0      		breq .L196
 3152               	.LM604:
 3153 1622 322B      		or r19,r18
 3154 1624 3093 0000 		sts led_frame_bitmap+24,r19
 3155               	.L196:
 3156               	.LM605:
 3157 1628 8091 0000 		lds r24,led_frame_bitmap+33
 3158 162c 8223      		and r24,r18
 3159 162e 01F0      		breq .L197
 3160               	.LM606:
 3161 1630 8091 0000 		lds r24,led_frame_bitmap+25
 3162 1634 822B      		or r24,r18
 3163 1636 8093 0000 		sts led_frame_bitmap+25,r24
 3164               	.L197:
 3165               	.LM607:
 3166 163a 8091 0000 		lds r24,led_frame_bitmap+34
 3167 163e 8223      		and r24,r18
 3168 1640 01F0      		breq .L198
 3169               	.LM608:
 3170 1642 8091 0000 		lds r24,led_frame_bitmap+26
 3171 1646 822B      		or r24,r18
 3172 1648 8093 0000 		sts led_frame_bitmap+26,r24
 3173               	.L198:
 3174               	.LM609:
 3175 164c 8091 0000 		lds r24,led_frame_bitmap+35
 3176 1650 8223      		and r24,r18
 3177 1652 01F0      		breq .L199
 3178               	.LM610:
 3179 1654 8091 0000 		lds r24,led_frame_bitmap+27
 3180 1658 822B      		or r24,r18
 3181 165a 8093 0000 		sts led_frame_bitmap+27,r24
 3182               	.L199:
 3183               	.LM611:
 3184 165e 8091 0000 		lds r24,led_frame_bitmap+36
 3185 1662 8223      		and r24,r18
 3186 1664 01F0      		breq .L200
 3187               	.LM612:
 3188 1666 8091 0000 		lds r24,led_frame_bitmap+28
 3189 166a 822B      		or r24,r18
 3190 166c 8093 0000 		sts led_frame_bitmap+28,r24
 3191               	.L200:
 3192               	.LM613:
 3193 1670 8091 0000 		lds r24,led_frame_bitmap+37
 3194 1674 8223      		and r24,r18
 3195 1676 01F0      		breq .L201
 3196               	.LM614:
 3197 1678 8091 0000 		lds r24,led_frame_bitmap+29
 3198 167c 822B      		or r24,r18
 3199 167e 8093 0000 		sts led_frame_bitmap+29,r24
 3200               	.L201:
 3201               	.LM615:
 3202 1682 8091 0000 		lds r24,led_frame_bitmap+38
 3203 1686 8223      		and r24,r18
 3204 1688 01F0      		breq .L202
 3205               	.LM616:
 3206 168a 8091 0000 		lds r24,led_frame_bitmap+30
 3207 168e 822B      		or r24,r18
 3208 1690 8093 0000 		sts led_frame_bitmap+30,r24
 3209               	.L202:
 3210               	.LM617:
 3211 1694 8091 0000 		lds r24,led_frame_bitmap+39
 3212 1698 8223      		and r24,r18
 3213 169a 01F0      		breq .L203
 3214               	.LM618:
 3215 169c 8091 0000 		lds r24,led_frame_bitmap+31
 3216 16a0 822B      		or r24,r18
 3217 16a2 8093 0000 		sts led_frame_bitmap+31,r24
 3218               	.L203:
 3219               	.LM619:
 3220 16a6 3091 0000 		lds r19,led_frame_bitmap+32
 3221 16aa 3923      		and r19,r25
 3222 16ac 3093 0000 		sts led_frame_bitmap+32,r19
 3223               	.LM620:
 3224 16b0 8091 0000 		lds r24,led_frame_bitmap+33
 3225 16b4 8923      		and r24,r25
 3226 16b6 8093 0000 		sts led_frame_bitmap+33,r24
 3227               	.LM621:
 3228 16ba 8091 0000 		lds r24,led_frame_bitmap+34
 3229 16be 8923      		and r24,r25
 3230 16c0 8093 0000 		sts led_frame_bitmap+34,r24
 3231               	.LM622:
 3232 16c4 8091 0000 		lds r24,led_frame_bitmap+35
 3233 16c8 8923      		and r24,r25
 3234 16ca 8093 0000 		sts led_frame_bitmap+35,r24
 3235               	.LM623:
 3236 16ce 8091 0000 		lds r24,led_frame_bitmap+36
 3237 16d2 8923      		and r24,r25
 3238 16d4 8093 0000 		sts led_frame_bitmap+36,r24
 3239               	.LM624:
 3240 16d8 8091 0000 		lds r24,led_frame_bitmap+37
 3241 16dc 8923      		and r24,r25
 3242 16de 8093 0000 		sts led_frame_bitmap+37,r24
 3243               	.LM625:
 3244 16e2 8091 0000 		lds r24,led_frame_bitmap+38
 3245 16e6 8923      		and r24,r25
 3246 16e8 8093 0000 		sts led_frame_bitmap+38,r24
 3247               	.LM626:
 3248 16ec 8091 0000 		lds r24,led_frame_bitmap+39
 3249 16f0 8923      		and r24,r25
 3250 16f2 8093 0000 		sts led_frame_bitmap+39,r24
 3251               	.LM627:
 3252 16f6 8091 0000 		lds r24,led_frame_bitmap+40
 3253 16fa 8223      		and r24,r18
 3254 16fc 01F0      		breq .L204
 3255               	.LM628:
 3256 16fe 322B      		or r19,r18
 3257 1700 3093 0000 		sts led_frame_bitmap+32,r19
 3258               	.L204:
 3259               	.LM629:
 3260 1704 8091 0000 		lds r24,led_frame_bitmap+41
 3261 1708 8223      		and r24,r18
 3262 170a 01F0      		breq .L205
 3263               	.LM630:
 3264 170c 8091 0000 		lds r24,led_frame_bitmap+33
 3265 1710 822B      		or r24,r18
 3266 1712 8093 0000 		sts led_frame_bitmap+33,r24
 3267               	.L205:
 3268               	.LM631:
 3269 1716 8091 0000 		lds r24,led_frame_bitmap+42
 3270 171a 8223      		and r24,r18
 3271 171c 01F0      		breq .L206
 3272               	.LM632:
 3273 171e 8091 0000 		lds r24,led_frame_bitmap+34
 3274 1722 822B      		or r24,r18
 3275 1724 8093 0000 		sts led_frame_bitmap+34,r24
 3276               	.L206:
 3277               	.LM633:
 3278 1728 8091 0000 		lds r24,led_frame_bitmap+43
 3279 172c 8223      		and r24,r18
 3280 172e 01F0      		breq .L207
 3281               	.LM634:
 3282 1730 8091 0000 		lds r24,led_frame_bitmap+35
 3283 1734 822B      		or r24,r18
 3284 1736 8093 0000 		sts led_frame_bitmap+35,r24
 3285               	.L207:
 3286               	.LM635:
 3287 173a 8091 0000 		lds r24,led_frame_bitmap+44
 3288 173e 8223      		and r24,r18
 3289 1740 01F0      		breq .L208
 3290               	.LM636:
 3291 1742 8091 0000 		lds r24,led_frame_bitmap+36
 3292 1746 822B      		or r24,r18
 3293 1748 8093 0000 		sts led_frame_bitmap+36,r24
 3294               	.L208:
 3295               	.LM637:
 3296 174c 8091 0000 		lds r24,led_frame_bitmap+45
 3297 1750 8223      		and r24,r18
 3298 1752 01F0      		breq .L209
 3299               	.LM638:
 3300 1754 8091 0000 		lds r24,led_frame_bitmap+37
 3301 1758 822B      		or r24,r18
 3302 175a 8093 0000 		sts led_frame_bitmap+37,r24
 3303               	.L209:
 3304               	.LM639:
 3305 175e 8091 0000 		lds r24,led_frame_bitmap+46
 3306 1762 8223      		and r24,r18
 3307 1764 01F0      		breq .L210
 3308               	.LM640:
 3309 1766 8091 0000 		lds r24,led_frame_bitmap+38
 3310 176a 822B      		or r24,r18
 3311 176c 8093 0000 		sts led_frame_bitmap+38,r24
 3312               	.L210:
 3313               	.LM641:
 3314 1770 8091 0000 		lds r24,led_frame_bitmap+47
 3315 1774 8223      		and r24,r18
 3316 1776 01F0      		breq .L211
 3317               	.LM642:
 3318 1778 8091 0000 		lds r24,led_frame_bitmap+39
 3319 177c 822B      		or r24,r18
 3320 177e 8093 0000 		sts led_frame_bitmap+39,r24
 3321               	.L211:
 3322               	.LM643:
 3323 1782 3091 0000 		lds r19,led_frame_bitmap+40
 3324 1786 3923      		and r19,r25
 3325 1788 3093 0000 		sts led_frame_bitmap+40,r19
 3326               	.LM644:
 3327 178c 8091 0000 		lds r24,led_frame_bitmap+41
 3328 1790 8923      		and r24,r25
 3329 1792 8093 0000 		sts led_frame_bitmap+41,r24
 3330               	.LM645:
 3331 1796 8091 0000 		lds r24,led_frame_bitmap+42
 3332 179a 8923      		and r24,r25
 3333 179c 8093 0000 		sts led_frame_bitmap+42,r24
 3334               	.LM646:
 3335 17a0 8091 0000 		lds r24,led_frame_bitmap+43
 3336 17a4 8923      		and r24,r25
 3337 17a6 8093 0000 		sts led_frame_bitmap+43,r24
 3338               	.LM647:
 3339 17aa 8091 0000 		lds r24,led_frame_bitmap+44
 3340 17ae 8923      		and r24,r25
 3341 17b0 8093 0000 		sts led_frame_bitmap+44,r24
 3342               	.LM648:
 3343 17b4 8091 0000 		lds r24,led_frame_bitmap+45
 3344 17b8 8923      		and r24,r25
 3345 17ba 8093 0000 		sts led_frame_bitmap+45,r24
 3346               	.LM649:
 3347 17be 8091 0000 		lds r24,led_frame_bitmap+46
 3348 17c2 8923      		and r24,r25
 3349 17c4 8093 0000 		sts led_frame_bitmap+46,r24
 3350               	.LM650:
 3351 17c8 8091 0000 		lds r24,led_frame_bitmap+47
 3352 17cc 8923      		and r24,r25
 3353 17ce 8093 0000 		sts led_frame_bitmap+47,r24
 3354               	.LM651:
 3355 17d2 8091 0000 		lds r24,led_frame_bitmap+48
 3356 17d6 8223      		and r24,r18
 3357 17d8 01F0      		breq .L212
 3358               	.LM652:
 3359 17da 322B      		or r19,r18
 3360 17dc 3093 0000 		sts led_frame_bitmap+40,r19
 3361               	.L212:
 3362               	.LM653:
 3363 17e0 8091 0000 		lds r24,led_frame_bitmap+49
 3364 17e4 8223      		and r24,r18
 3365 17e6 01F0      		breq .L213
 3366               	.LM654:
 3367 17e8 8091 0000 		lds r24,led_frame_bitmap+41
 3368 17ec 822B      		or r24,r18
 3369 17ee 8093 0000 		sts led_frame_bitmap+41,r24
 3370               	.L213:
 3371               	.LM655:
 3372 17f2 8091 0000 		lds r24,led_frame_bitmap+50
 3373 17f6 8223      		and r24,r18
 3374 17f8 01F0      		breq .L214
 3375               	.LM656:
 3376 17fa 8091 0000 		lds r24,led_frame_bitmap+42
 3377 17fe 822B      		or r24,r18
 3378 1800 8093 0000 		sts led_frame_bitmap+42,r24
 3379               	.L214:
 3380               	.LM657:
 3381 1804 8091 0000 		lds r24,led_frame_bitmap+51
 3382 1808 8223      		and r24,r18
 3383 180a 01F0      		breq .L215
 3384               	.LM658:
 3385 180c 8091 0000 		lds r24,led_frame_bitmap+43
 3386 1810 822B      		or r24,r18
 3387 1812 8093 0000 		sts led_frame_bitmap+43,r24
 3388               	.L215:
 3389               	.LM659:
 3390 1816 8091 0000 		lds r24,led_frame_bitmap+52
 3391 181a 8223      		and r24,r18
 3392 181c 01F0      		breq .L216
 3393               	.LM660:
 3394 181e 8091 0000 		lds r24,led_frame_bitmap+44
 3395 1822 822B      		or r24,r18
 3396 1824 8093 0000 		sts led_frame_bitmap+44,r24
 3397               	.L216:
 3398               	.LM661:
 3399 1828 8091 0000 		lds r24,led_frame_bitmap+53
 3400 182c 8223      		and r24,r18
 3401 182e 01F0      		breq .L217
 3402               	.LM662:
 3403 1830 8091 0000 		lds r24,led_frame_bitmap+45
 3404 1834 822B      		or r24,r18
 3405 1836 8093 0000 		sts led_frame_bitmap+45,r24
 3406               	.L217:
 3407               	.LM663:
 3408 183a 8091 0000 		lds r24,led_frame_bitmap+54
 3409 183e 8223      		and r24,r18
 3410 1840 01F0      		breq .L218
 3411               	.LM664:
 3412 1842 8091 0000 		lds r24,led_frame_bitmap+46
 3413 1846 822B      		or r24,r18
 3414 1848 8093 0000 		sts led_frame_bitmap+46,r24
 3415               	.L218:
 3416               	.LM665:
 3417 184c 8091 0000 		lds r24,led_frame_bitmap+55
 3418 1850 8223      		and r24,r18
 3419 1852 01F0      		breq .L219
 3420               	.LM666:
 3421 1854 8091 0000 		lds r24,led_frame_bitmap+47
 3422 1858 822B      		or r24,r18
 3423 185a 8093 0000 		sts led_frame_bitmap+47,r24
 3424               	.L219:
 3425               	.LM667:
 3426 185e 3091 0000 		lds r19,led_frame_bitmap+48
 3427 1862 3923      		and r19,r25
 3428 1864 3093 0000 		sts led_frame_bitmap+48,r19
 3429               	.LM668:
 3430 1868 8091 0000 		lds r24,led_frame_bitmap+49
 3431 186c 8923      		and r24,r25
 3432 186e 8093 0000 		sts led_frame_bitmap+49,r24
 3433               	.LM669:
 3434 1872 8091 0000 		lds r24,led_frame_bitmap+50
 3435 1876 8923      		and r24,r25
 3436 1878 8093 0000 		sts led_frame_bitmap+50,r24
 3437               	.LM670:
 3438 187c 8091 0000 		lds r24,led_frame_bitmap+51
 3439 1880 8923      		and r24,r25
 3440 1882 8093 0000 		sts led_frame_bitmap+51,r24
 3441               	.LM671:
 3442 1886 8091 0000 		lds r24,led_frame_bitmap+52
 3443 188a 8923      		and r24,r25
 3444 188c 8093 0000 		sts led_frame_bitmap+52,r24
 3445               	.LM672:
 3446 1890 8091 0000 		lds r24,led_frame_bitmap+53
 3447 1894 8923      		and r24,r25
 3448 1896 8093 0000 		sts led_frame_bitmap+53,r24
 3449               	.LM673:
 3450 189a 8091 0000 		lds r24,led_frame_bitmap+54
 3451 189e 8923      		and r24,r25
 3452 18a0 8093 0000 		sts led_frame_bitmap+54,r24
 3453               	.LM674:
 3454 18a4 8091 0000 		lds r24,led_frame_bitmap+55
 3455 18a8 8923      		and r24,r25
 3456 18aa 8093 0000 		sts led_frame_bitmap+55,r24
 3457               	.LM675:
 3458 18ae 8091 0000 		lds r24,led_frame_bitmap+56
 3459 18b2 8223      		and r24,r18
 3460 18b4 01F0      		breq .L220
 3461               	.LM676:
 3462 18b6 322B      		or r19,r18
 3463 18b8 3093 0000 		sts led_frame_bitmap+48,r19
 3464               	.L220:
 3465               	.LM677:
 3466 18bc 8091 0000 		lds r24,led_frame_bitmap+57
 3467 18c0 8223      		and r24,r18
 3468 18c2 01F0      		breq .L221
 3469               	.LM678:
 3470 18c4 8091 0000 		lds r24,led_frame_bitmap+49
 3471 18c8 822B      		or r24,r18
 3472 18ca 8093 0000 		sts led_frame_bitmap+49,r24
 3473               	.L221:
 3474               	.LM679:
 3475 18ce 8091 0000 		lds r24,led_frame_bitmap+58
 3476 18d2 8223      		and r24,r18
 3477 18d4 01F0      		breq .L222
 3478               	.LM680:
 3479 18d6 8091 0000 		lds r24,led_frame_bitmap+50
 3480 18da 822B      		or r24,r18
 3481 18dc 8093 0000 		sts led_frame_bitmap+50,r24
 3482               	.L222:
 3483               	.LM681:
 3484 18e0 8091 0000 		lds r24,led_frame_bitmap+59
 3485 18e4 8223      		and r24,r18
 3486 18e6 01F0      		breq .L223
 3487               	.LM682:
 3488 18e8 8091 0000 		lds r24,led_frame_bitmap+51
 3489 18ec 822B      		or r24,r18
 3490 18ee 8093 0000 		sts led_frame_bitmap+51,r24
 3491               	.L223:
 3492               	.LM683:
 3493 18f2 8091 0000 		lds r24,led_frame_bitmap+60
 3494 18f6 8223      		and r24,r18
 3495 18f8 01F0      		breq .L224
 3496               	.LM684:
 3497 18fa 8091 0000 		lds r24,led_frame_bitmap+52
 3498 18fe 822B      		or r24,r18
 3499 1900 8093 0000 		sts led_frame_bitmap+52,r24
 3500               	.L224:
 3501               	.LM685:
 3502 1904 8091 0000 		lds r24,led_frame_bitmap+61
 3503 1908 8223      		and r24,r18
 3504 190a 01F0      		breq .L225
 3505               	.LM686:
 3506 190c 8091 0000 		lds r24,led_frame_bitmap+53
 3507 1910 822B      		or r24,r18
 3508 1912 8093 0000 		sts led_frame_bitmap+53,r24
 3509               	.L225:
 3510               	.LM687:
 3511 1916 8091 0000 		lds r24,led_frame_bitmap+62
 3512 191a 8223      		and r24,r18
 3513 191c 01F0      		breq .L226
 3514               	.LM688:
 3515 191e 8091 0000 		lds r24,led_frame_bitmap+54
 3516 1922 822B      		or r24,r18
 3517 1924 8093 0000 		sts led_frame_bitmap+54,r24
 3518               	.L226:
 3519               	.LM689:
 3520 1928 8091 0000 		lds r24,led_frame_bitmap+63
 3521 192c 8223      		and r24,r18
 3522 192e 01F0      		breq .L227
 3523               	.LM690:
 3524 1930 8091 0000 		lds r24,led_frame_bitmap+55
 3525 1934 282B      		or r18,r24
 3526 1936 2093 0000 		sts led_frame_bitmap+55,r18
 3527               	.L227:
 3528               	.LM691:
 3529 193a 8091 0000 		lds r24,led_frame_bitmap+56
 3530 193e 8923      		and r24,r25
 3531 1940 8093 0000 		sts led_frame_bitmap+56,r24
 3532               	.LM692:
 3533 1944 8091 0000 		lds r24,led_frame_bitmap+57
 3534 1948 8923      		and r24,r25
 3535 194a 8093 0000 		sts led_frame_bitmap+57,r24
 3536               	.LM693:
 3537 194e 8091 0000 		lds r24,led_frame_bitmap+58
 3538 1952 8923      		and r24,r25
 3539 1954 8093 0000 		sts led_frame_bitmap+58,r24
 3540               	.LM694:
 3541 1958 8091 0000 		lds r24,led_frame_bitmap+59
 3542 195c 8923      		and r24,r25
 3543 195e 8093 0000 		sts led_frame_bitmap+59,r24
 3544               	.LM695:
 3545 1962 8091 0000 		lds r24,led_frame_bitmap+60
 3546 1966 8923      		and r24,r25
 3547 1968 8093 0000 		sts led_frame_bitmap+60,r24
 3548               	.LM696:
 3549 196c 8091 0000 		lds r24,led_frame_bitmap+61
 3550 1970 8923      		and r24,r25
 3551 1972 8093 0000 		sts led_frame_bitmap+61,r24
 3552               	.LM697:
 3553 1976 8091 0000 		lds r24,led_frame_bitmap+62
 3554 197a 8923      		and r24,r25
 3555 197c 8093 0000 		sts led_frame_bitmap+62,r24
 3556               	.LM698:
 3557 1980 8091 0000 		lds r24,led_frame_bitmap+63
 3558 1984 9823      		and r25,r24
 3559 1986 9093 0000 		sts led_frame_bitmap+63,r25
 3560               	/* epilogue start */
 3561               	.LM699:
 3562 198a 0895      		ret
 3563               	.LFE32:
 3565               	.global	led_plane_x_down
 3567               	led_plane_x_down:
 3568               	.LFB33:
 3569               	.LM700:
 3570               	.LVL156:
 3571               	/* prologue: function */
 3572               	/* frame size = 0 */
 3573               	.LM701:
 3574 198c 20E8      		ldi r18,lo8(128)
 3575 198e 30E0      		ldi r19,hi8(128)
 3576 1990 00C0      		rjmp 2f
 3577 1992 3595      	1:	asr r19
 3578 1994 2795      		ror r18
 3579 1996 8A95      	2:	dec r24
 3580 1998 02F4      		brpl 1b
 3581               	.LM702:
 3582 199a 922F      		mov r25,r18
 3583               	.LVL157:
 3584 199c 9095      		com r25
 3585               	.LM703:
 3586 199e 3091 0000 		lds r19,led_frame_bitmap+56
 3587 19a2 3923      		and r19,r25
 3588 19a4 3093 0000 		sts led_frame_bitmap+56,r19
 3589               	.LM704:
 3590 19a8 8091 0000 		lds r24,led_frame_bitmap+57
 3591               	.LVL158:
 3592 19ac 8923      		and r24,r25
 3593 19ae 8093 0000 		sts led_frame_bitmap+57,r24
 3594               	.LM705:
 3595 19b2 8091 0000 		lds r24,led_frame_bitmap+58
 3596 19b6 8923      		and r24,r25
 3597 19b8 8093 0000 		sts led_frame_bitmap+58,r24
 3598               	.LM706:
 3599 19bc 8091 0000 		lds r24,led_frame_bitmap+59
 3600 19c0 8923      		and r24,r25
 3601 19c2 8093 0000 		sts led_frame_bitmap+59,r24
 3602               	.LM707:
 3603 19c6 8091 0000 		lds r24,led_frame_bitmap+60
 3604 19ca 8923      		and r24,r25
 3605 19cc 8093 0000 		sts led_frame_bitmap+60,r24
 3606               	.LM708:
 3607 19d0 8091 0000 		lds r24,led_frame_bitmap+61
 3608 19d4 8923      		and r24,r25
 3609 19d6 8093 0000 		sts led_frame_bitmap+61,r24
 3610               	.LM709:
 3611 19da 8091 0000 		lds r24,led_frame_bitmap+62
 3612 19de 8923      		and r24,r25
 3613 19e0 8093 0000 		sts led_frame_bitmap+62,r24
 3614               	.LM710:
 3615 19e4 8091 0000 		lds r24,led_frame_bitmap+63
 3616 19e8 8923      		and r24,r25
 3617 19ea 8093 0000 		sts led_frame_bitmap+63,r24
 3618               	.LM711:
 3619 19ee 8091 0000 		lds r24,led_frame_bitmap+48
 3620 19f2 8223      		and r24,r18
 3621 19f4 01F0      		breq .L230
 3622               	.LM712:
 3623 19f6 322B      		or r19,r18
 3624 19f8 3093 0000 		sts led_frame_bitmap+56,r19
 3625               	.L230:
 3626               	.LM713:
 3627 19fc 8091 0000 		lds r24,led_frame_bitmap+49
 3628 1a00 8223      		and r24,r18
 3629 1a02 01F0      		breq .L231
 3630               	.LM714:
 3631 1a04 8091 0000 		lds r24,led_frame_bitmap+57
 3632 1a08 822B      		or r24,r18
 3633 1a0a 8093 0000 		sts led_frame_bitmap+57,r24
 3634               	.L231:
 3635               	.LM715:
 3636 1a0e 8091 0000 		lds r24,led_frame_bitmap+50
 3637 1a12 8223      		and r24,r18
 3638 1a14 01F0      		breq .L232
 3639               	.LM716:
 3640 1a16 8091 0000 		lds r24,led_frame_bitmap+58
 3641 1a1a 822B      		or r24,r18
 3642 1a1c 8093 0000 		sts led_frame_bitmap+58,r24
 3643               	.L232:
 3644               	.LM717:
 3645 1a20 8091 0000 		lds r24,led_frame_bitmap+51
 3646 1a24 8223      		and r24,r18
 3647 1a26 01F0      		breq .L233
 3648               	.LM718:
 3649 1a28 8091 0000 		lds r24,led_frame_bitmap+59
 3650 1a2c 822B      		or r24,r18
 3651 1a2e 8093 0000 		sts led_frame_bitmap+59,r24
 3652               	.L233:
 3653               	.LM719:
 3654 1a32 8091 0000 		lds r24,led_frame_bitmap+52
 3655 1a36 8223      		and r24,r18
 3656 1a38 01F0      		breq .L234
 3657               	.LM720:
 3658 1a3a 8091 0000 		lds r24,led_frame_bitmap+60
 3659 1a3e 822B      		or r24,r18
 3660 1a40 8093 0000 		sts led_frame_bitmap+60,r24
 3661               	.L234:
 3662               	.LM721:
 3663 1a44 8091 0000 		lds r24,led_frame_bitmap+53
 3664 1a48 8223      		and r24,r18
 3665 1a4a 01F0      		breq .L235
 3666               	.LM722:
 3667 1a4c 8091 0000 		lds r24,led_frame_bitmap+61
 3668 1a50 822B      		or r24,r18
 3669 1a52 8093 0000 		sts led_frame_bitmap+61,r24
 3670               	.L235:
 3671               	.LM723:
 3672 1a56 8091 0000 		lds r24,led_frame_bitmap+54
 3673 1a5a 8223      		and r24,r18
 3674 1a5c 01F0      		breq .L236
 3675               	.LM724:
 3676 1a5e 8091 0000 		lds r24,led_frame_bitmap+62
 3677 1a62 822B      		or r24,r18
 3678 1a64 8093 0000 		sts led_frame_bitmap+62,r24
 3679               	.L236:
 3680               	.LM725:
 3681 1a68 8091 0000 		lds r24,led_frame_bitmap+55
 3682 1a6c 8223      		and r24,r18
 3683 1a6e 01F0      		breq .L237
 3684               	.LM726:
 3685 1a70 8091 0000 		lds r24,led_frame_bitmap+63
 3686 1a74 822B      		or r24,r18
 3687 1a76 8093 0000 		sts led_frame_bitmap+63,r24
 3688               	.L237:
 3689               	.LM727:
 3690 1a7a 3091 0000 		lds r19,led_frame_bitmap+48
 3691 1a7e 3923      		and r19,r25
 3692 1a80 3093 0000 		sts led_frame_bitmap+48,r19
 3693               	.LM728:
 3694 1a84 8091 0000 		lds r24,led_frame_bitmap+49
 3695 1a88 8923      		and r24,r25
 3696 1a8a 8093 0000 		sts led_frame_bitmap+49,r24
 3697               	.LM729:
 3698 1a8e 8091 0000 		lds r24,led_frame_bitmap+50
 3699 1a92 8923      		and r24,r25
 3700 1a94 8093 0000 		sts led_frame_bitmap+50,r24
 3701               	.LM730:
 3702 1a98 8091 0000 		lds r24,led_frame_bitmap+51
 3703 1a9c 8923      		and r24,r25
 3704 1a9e 8093 0000 		sts led_frame_bitmap+51,r24
 3705               	.LM731:
 3706 1aa2 8091 0000 		lds r24,led_frame_bitmap+52
 3707 1aa6 8923      		and r24,r25
 3708 1aa8 8093 0000 		sts led_frame_bitmap+52,r24
 3709               	.LM732:
 3710 1aac 8091 0000 		lds r24,led_frame_bitmap+53
 3711 1ab0 8923      		and r24,r25
 3712 1ab2 8093 0000 		sts led_frame_bitmap+53,r24
 3713               	.LM733:
 3714 1ab6 8091 0000 		lds r24,led_frame_bitmap+54
 3715 1aba 8923      		and r24,r25
 3716 1abc 8093 0000 		sts led_frame_bitmap+54,r24
 3717               	.LM734:
 3718 1ac0 8091 0000 		lds r24,led_frame_bitmap+55
 3719 1ac4 8923      		and r24,r25
 3720 1ac6 8093 0000 		sts led_frame_bitmap+55,r24
 3721               	.LM735:
 3722 1aca 8091 0000 		lds r24,led_frame_bitmap+40
 3723 1ace 8223      		and r24,r18
 3724 1ad0 01F0      		breq .L238
 3725               	.LM736:
 3726 1ad2 322B      		or r19,r18
 3727 1ad4 3093 0000 		sts led_frame_bitmap+48,r19
 3728               	.L238:
 3729               	.LM737:
 3730 1ad8 8091 0000 		lds r24,led_frame_bitmap+41
 3731 1adc 8223      		and r24,r18
 3732 1ade 01F0      		breq .L239
 3733               	.LM738:
 3734 1ae0 8091 0000 		lds r24,led_frame_bitmap+49
 3735 1ae4 822B      		or r24,r18
 3736 1ae6 8093 0000 		sts led_frame_bitmap+49,r24
 3737               	.L239:
 3738               	.LM739:
 3739 1aea 8091 0000 		lds r24,led_frame_bitmap+42
 3740 1aee 8223      		and r24,r18
 3741 1af0 01F0      		breq .L240
 3742               	.LM740:
 3743 1af2 8091 0000 		lds r24,led_frame_bitmap+50
 3744 1af6 822B      		or r24,r18
 3745 1af8 8093 0000 		sts led_frame_bitmap+50,r24
 3746               	.L240:
 3747               	.LM741:
 3748 1afc 8091 0000 		lds r24,led_frame_bitmap+43
 3749 1b00 8223      		and r24,r18
 3750 1b02 01F0      		breq .L241
 3751               	.LM742:
 3752 1b04 8091 0000 		lds r24,led_frame_bitmap+51
 3753 1b08 822B      		or r24,r18
 3754 1b0a 8093 0000 		sts led_frame_bitmap+51,r24
 3755               	.L241:
 3756               	.LM743:
 3757 1b0e 8091 0000 		lds r24,led_frame_bitmap+44
 3758 1b12 8223      		and r24,r18
 3759 1b14 01F0      		breq .L242
 3760               	.LM744:
 3761 1b16 8091 0000 		lds r24,led_frame_bitmap+52
 3762 1b1a 822B      		or r24,r18
 3763 1b1c 8093 0000 		sts led_frame_bitmap+52,r24
 3764               	.L242:
 3765               	.LM745:
 3766 1b20 8091 0000 		lds r24,led_frame_bitmap+45
 3767 1b24 8223      		and r24,r18
 3768 1b26 01F0      		breq .L243
 3769               	.LM746:
 3770 1b28 8091 0000 		lds r24,led_frame_bitmap+53
 3771 1b2c 822B      		or r24,r18
 3772 1b2e 8093 0000 		sts led_frame_bitmap+53,r24
 3773               	.L243:
 3774               	.LM747:
 3775 1b32 8091 0000 		lds r24,led_frame_bitmap+46
 3776 1b36 8223      		and r24,r18
 3777 1b38 01F0      		breq .L244
 3778               	.LM748:
 3779 1b3a 8091 0000 		lds r24,led_frame_bitmap+54
 3780 1b3e 822B      		or r24,r18
 3781 1b40 8093 0000 		sts led_frame_bitmap+54,r24
 3782               	.L244:
 3783               	.LM749:
 3784 1b44 8091 0000 		lds r24,led_frame_bitmap+47
 3785 1b48 8223      		and r24,r18
 3786 1b4a 01F0      		breq .L245
 3787               	.LM750:
 3788 1b4c 8091 0000 		lds r24,led_frame_bitmap+55
 3789 1b50 822B      		or r24,r18
 3790 1b52 8093 0000 		sts led_frame_bitmap+55,r24
 3791               	.L245:
 3792               	.LM751:
 3793 1b56 3091 0000 		lds r19,led_frame_bitmap+40
 3794 1b5a 3923      		and r19,r25
 3795 1b5c 3093 0000 		sts led_frame_bitmap+40,r19
 3796               	.LM752:
 3797 1b60 8091 0000 		lds r24,led_frame_bitmap+41
 3798 1b64 8923      		and r24,r25
 3799 1b66 8093 0000 		sts led_frame_bitmap+41,r24
 3800               	.LM753:
 3801 1b6a 8091 0000 		lds r24,led_frame_bitmap+42
 3802 1b6e 8923      		and r24,r25
 3803 1b70 8093 0000 		sts led_frame_bitmap+42,r24
 3804               	.LM754:
 3805 1b74 8091 0000 		lds r24,led_frame_bitmap+43
 3806 1b78 8923      		and r24,r25
 3807 1b7a 8093 0000 		sts led_frame_bitmap+43,r24
 3808               	.LM755:
 3809 1b7e 8091 0000 		lds r24,led_frame_bitmap+44
 3810 1b82 8923      		and r24,r25
 3811 1b84 8093 0000 		sts led_frame_bitmap+44,r24
 3812               	.LM756:
 3813 1b88 8091 0000 		lds r24,led_frame_bitmap+45
 3814 1b8c 8923      		and r24,r25
 3815 1b8e 8093 0000 		sts led_frame_bitmap+45,r24
 3816               	.LM757:
 3817 1b92 8091 0000 		lds r24,led_frame_bitmap+46
 3818 1b96 8923      		and r24,r25
 3819 1b98 8093 0000 		sts led_frame_bitmap+46,r24
 3820               	.LM758:
 3821 1b9c 8091 0000 		lds r24,led_frame_bitmap+47
 3822 1ba0 8923      		and r24,r25
 3823 1ba2 8093 0000 		sts led_frame_bitmap+47,r24
 3824               	.LM759:
 3825 1ba6 8091 0000 		lds r24,led_frame_bitmap+32
 3826 1baa 8223      		and r24,r18
 3827 1bac 01F0      		breq .L246
 3828               	.LM760:
 3829 1bae 322B      		or r19,r18
 3830 1bb0 3093 0000 		sts led_frame_bitmap+40,r19
 3831               	.L246:
 3832               	.LM761:
 3833 1bb4 8091 0000 		lds r24,led_frame_bitmap+33
 3834 1bb8 8223      		and r24,r18
 3835 1bba 01F0      		breq .L247
 3836               	.LM762:
 3837 1bbc 8091 0000 		lds r24,led_frame_bitmap+41
 3838 1bc0 822B      		or r24,r18
 3839 1bc2 8093 0000 		sts led_frame_bitmap+41,r24
 3840               	.L247:
 3841               	.LM763:
 3842 1bc6 8091 0000 		lds r24,led_frame_bitmap+34
 3843 1bca 8223      		and r24,r18
 3844 1bcc 01F0      		breq .L248
 3845               	.LM764:
 3846 1bce 8091 0000 		lds r24,led_frame_bitmap+42
 3847 1bd2 822B      		or r24,r18
 3848 1bd4 8093 0000 		sts led_frame_bitmap+42,r24
 3849               	.L248:
 3850               	.LM765:
 3851 1bd8 8091 0000 		lds r24,led_frame_bitmap+35
 3852 1bdc 8223      		and r24,r18
 3853 1bde 01F0      		breq .L249
 3854               	.LM766:
 3855 1be0 8091 0000 		lds r24,led_frame_bitmap+43
 3856 1be4 822B      		or r24,r18
 3857 1be6 8093 0000 		sts led_frame_bitmap+43,r24
 3858               	.L249:
 3859               	.LM767:
 3860 1bea 8091 0000 		lds r24,led_frame_bitmap+36
 3861 1bee 8223      		and r24,r18
 3862 1bf0 01F0      		breq .L250
 3863               	.LM768:
 3864 1bf2 8091 0000 		lds r24,led_frame_bitmap+44
 3865 1bf6 822B      		or r24,r18
 3866 1bf8 8093 0000 		sts led_frame_bitmap+44,r24
 3867               	.L250:
 3868               	.LM769:
 3869 1bfc 8091 0000 		lds r24,led_frame_bitmap+37
 3870 1c00 8223      		and r24,r18
 3871 1c02 01F0      		breq .L251
 3872               	.LM770:
 3873 1c04 8091 0000 		lds r24,led_frame_bitmap+45
 3874 1c08 822B      		or r24,r18
 3875 1c0a 8093 0000 		sts led_frame_bitmap+45,r24
 3876               	.L251:
 3877               	.LM771:
 3878 1c0e 8091 0000 		lds r24,led_frame_bitmap+38
 3879 1c12 8223      		and r24,r18
 3880 1c14 01F0      		breq .L252
 3881               	.LM772:
 3882 1c16 8091 0000 		lds r24,led_frame_bitmap+46
 3883 1c1a 822B      		or r24,r18
 3884 1c1c 8093 0000 		sts led_frame_bitmap+46,r24
 3885               	.L252:
 3886               	.LM773:
 3887 1c20 8091 0000 		lds r24,led_frame_bitmap+39
 3888 1c24 8223      		and r24,r18
 3889 1c26 01F0      		breq .L253
 3890               	.LM774:
 3891 1c28 8091 0000 		lds r24,led_frame_bitmap+47
 3892 1c2c 822B      		or r24,r18
 3893 1c2e 8093 0000 		sts led_frame_bitmap+47,r24
 3894               	.L253:
 3895               	.LM775:
 3896 1c32 3091 0000 		lds r19,led_frame_bitmap+32
 3897 1c36 3923      		and r19,r25
 3898 1c38 3093 0000 		sts led_frame_bitmap+32,r19
 3899               	.LM776:
 3900 1c3c 8091 0000 		lds r24,led_frame_bitmap+33
 3901 1c40 8923      		and r24,r25
 3902 1c42 8093 0000 		sts led_frame_bitmap+33,r24
 3903               	.LM777:
 3904 1c46 8091 0000 		lds r24,led_frame_bitmap+34
 3905 1c4a 8923      		and r24,r25
 3906 1c4c 8093 0000 		sts led_frame_bitmap+34,r24
 3907               	.LM778:
 3908 1c50 8091 0000 		lds r24,led_frame_bitmap+35
 3909 1c54 8923      		and r24,r25
 3910 1c56 8093 0000 		sts led_frame_bitmap+35,r24
 3911               	.LM779:
 3912 1c5a 8091 0000 		lds r24,led_frame_bitmap+36
 3913 1c5e 8923      		and r24,r25
 3914 1c60 8093 0000 		sts led_frame_bitmap+36,r24
 3915               	.LM780:
 3916 1c64 8091 0000 		lds r24,led_frame_bitmap+37
 3917 1c68 8923      		and r24,r25
 3918 1c6a 8093 0000 		sts led_frame_bitmap+37,r24
 3919               	.LM781:
 3920 1c6e 8091 0000 		lds r24,led_frame_bitmap+38
 3921 1c72 8923      		and r24,r25
 3922 1c74 8093 0000 		sts led_frame_bitmap+38,r24
 3923               	.LM782:
 3924 1c78 8091 0000 		lds r24,led_frame_bitmap+39
 3925 1c7c 8923      		and r24,r25
 3926 1c7e 8093 0000 		sts led_frame_bitmap+39,r24
 3927               	.LM783:
 3928 1c82 8091 0000 		lds r24,led_frame_bitmap+24
 3929 1c86 8223      		and r24,r18
 3930 1c88 01F0      		breq .L254
 3931               	.LM784:
 3932 1c8a 322B      		or r19,r18
 3933 1c8c 3093 0000 		sts led_frame_bitmap+32,r19
 3934               	.L254:
 3935               	.LM785:
 3936 1c90 8091 0000 		lds r24,led_frame_bitmap+25
 3937 1c94 8223      		and r24,r18
 3938 1c96 01F0      		breq .L255
 3939               	.LM786:
 3940 1c98 8091 0000 		lds r24,led_frame_bitmap+33
 3941 1c9c 822B      		or r24,r18
 3942 1c9e 8093 0000 		sts led_frame_bitmap+33,r24
 3943               	.L255:
 3944               	.LM787:
 3945 1ca2 8091 0000 		lds r24,led_frame_bitmap+26
 3946 1ca6 8223      		and r24,r18
 3947 1ca8 01F0      		breq .L256
 3948               	.LM788:
 3949 1caa 8091 0000 		lds r24,led_frame_bitmap+34
 3950 1cae 822B      		or r24,r18
 3951 1cb0 8093 0000 		sts led_frame_bitmap+34,r24
 3952               	.L256:
 3953               	.LM789:
 3954 1cb4 8091 0000 		lds r24,led_frame_bitmap+27
 3955 1cb8 8223      		and r24,r18
 3956 1cba 01F0      		breq .L257
 3957               	.LM790:
 3958 1cbc 8091 0000 		lds r24,led_frame_bitmap+35
 3959 1cc0 822B      		or r24,r18
 3960 1cc2 8093 0000 		sts led_frame_bitmap+35,r24
 3961               	.L257:
 3962               	.LM791:
 3963 1cc6 8091 0000 		lds r24,led_frame_bitmap+28
 3964 1cca 8223      		and r24,r18
 3965 1ccc 01F0      		breq .L258
 3966               	.LM792:
 3967 1cce 8091 0000 		lds r24,led_frame_bitmap+36
 3968 1cd2 822B      		or r24,r18
 3969 1cd4 8093 0000 		sts led_frame_bitmap+36,r24
 3970               	.L258:
 3971               	.LM793:
 3972 1cd8 8091 0000 		lds r24,led_frame_bitmap+29
 3973 1cdc 8223      		and r24,r18
 3974 1cde 01F0      		breq .L259
 3975               	.LM794:
 3976 1ce0 8091 0000 		lds r24,led_frame_bitmap+37
 3977 1ce4 822B      		or r24,r18
 3978 1ce6 8093 0000 		sts led_frame_bitmap+37,r24
 3979               	.L259:
 3980               	.LM795:
 3981 1cea 8091 0000 		lds r24,led_frame_bitmap+30
 3982 1cee 8223      		and r24,r18
 3983 1cf0 01F0      		breq .L260
 3984               	.LM796:
 3985 1cf2 8091 0000 		lds r24,led_frame_bitmap+38
 3986 1cf6 822B      		or r24,r18
 3987 1cf8 8093 0000 		sts led_frame_bitmap+38,r24
 3988               	.L260:
 3989               	.LM797:
 3990 1cfc 8091 0000 		lds r24,led_frame_bitmap+31
 3991 1d00 8223      		and r24,r18
 3992 1d02 01F0      		breq .L261
 3993               	.LM798:
 3994 1d04 8091 0000 		lds r24,led_frame_bitmap+39
 3995 1d08 822B      		or r24,r18
 3996 1d0a 8093 0000 		sts led_frame_bitmap+39,r24
 3997               	.L261:
 3998               	.LM799:
 3999 1d0e 3091 0000 		lds r19,led_frame_bitmap+24
 4000 1d12 3923      		and r19,r25
 4001 1d14 3093 0000 		sts led_frame_bitmap+24,r19
 4002               	.LM800:
 4003 1d18 8091 0000 		lds r24,led_frame_bitmap+25
 4004 1d1c 8923      		and r24,r25
 4005 1d1e 8093 0000 		sts led_frame_bitmap+25,r24
 4006               	.LM801:
 4007 1d22 8091 0000 		lds r24,led_frame_bitmap+26
 4008 1d26 8923      		and r24,r25
 4009 1d28 8093 0000 		sts led_frame_bitmap+26,r24
 4010               	.LM802:
 4011 1d2c 8091 0000 		lds r24,led_frame_bitmap+27
 4012 1d30 8923      		and r24,r25
 4013 1d32 8093 0000 		sts led_frame_bitmap+27,r24
 4014               	.LM803:
 4015 1d36 8091 0000 		lds r24,led_frame_bitmap+28
 4016 1d3a 8923      		and r24,r25
 4017 1d3c 8093 0000 		sts led_frame_bitmap+28,r24
 4018               	.LM804:
 4019 1d40 8091 0000 		lds r24,led_frame_bitmap+29
 4020 1d44 8923      		and r24,r25
 4021 1d46 8093 0000 		sts led_frame_bitmap+29,r24
 4022               	.LM805:
 4023 1d4a 8091 0000 		lds r24,led_frame_bitmap+30
 4024 1d4e 8923      		and r24,r25
 4025 1d50 8093 0000 		sts led_frame_bitmap+30,r24
 4026               	.LM806:
 4027 1d54 8091 0000 		lds r24,led_frame_bitmap+31
 4028 1d58 8923      		and r24,r25
 4029 1d5a 8093 0000 		sts led_frame_bitmap+31,r24
 4030               	.LM807:
 4031 1d5e 8091 0000 		lds r24,led_frame_bitmap+16
 4032 1d62 8223      		and r24,r18
 4033 1d64 01F0      		breq .L262
 4034               	.LM808:
 4035 1d66 322B      		or r19,r18
 4036 1d68 3093 0000 		sts led_frame_bitmap+24,r19
 4037               	.L262:
 4038               	.LM809:
 4039 1d6c 8091 0000 		lds r24,led_frame_bitmap+17
 4040 1d70 8223      		and r24,r18
 4041 1d72 01F0      		breq .L263
 4042               	.LM810:
 4043 1d74 8091 0000 		lds r24,led_frame_bitmap+25
 4044 1d78 822B      		or r24,r18
 4045 1d7a 8093 0000 		sts led_frame_bitmap+25,r24
 4046               	.L263:
 4047               	.LM811:
 4048 1d7e 8091 0000 		lds r24,led_frame_bitmap+18
 4049 1d82 8223      		and r24,r18
 4050 1d84 01F0      		breq .L264
 4051               	.LM812:
 4052 1d86 8091 0000 		lds r24,led_frame_bitmap+26
 4053 1d8a 822B      		or r24,r18
 4054 1d8c 8093 0000 		sts led_frame_bitmap+26,r24
 4055               	.L264:
 4056               	.LM813:
 4057 1d90 8091 0000 		lds r24,led_frame_bitmap+19
 4058 1d94 8223      		and r24,r18
 4059 1d96 01F0      		breq .L265
 4060               	.LM814:
 4061 1d98 8091 0000 		lds r24,led_frame_bitmap+27
 4062 1d9c 822B      		or r24,r18
 4063 1d9e 8093 0000 		sts led_frame_bitmap+27,r24
 4064               	.L265:
 4065               	.LM815:
 4066 1da2 8091 0000 		lds r24,led_frame_bitmap+20
 4067 1da6 8223      		and r24,r18
 4068 1da8 01F0      		breq .L266
 4069               	.LM816:
 4070 1daa 8091 0000 		lds r24,led_frame_bitmap+28
 4071 1dae 822B      		or r24,r18
 4072 1db0 8093 0000 		sts led_frame_bitmap+28,r24
 4073               	.L266:
 4074               	.LM817:
 4075 1db4 8091 0000 		lds r24,led_frame_bitmap+21
 4076 1db8 8223      		and r24,r18
 4077 1dba 01F0      		breq .L267
 4078               	.LM818:
 4079 1dbc 8091 0000 		lds r24,led_frame_bitmap+29
 4080 1dc0 822B      		or r24,r18
 4081 1dc2 8093 0000 		sts led_frame_bitmap+29,r24
 4082               	.L267:
 4083               	.LM819:
 4084 1dc6 8091 0000 		lds r24,led_frame_bitmap+22
 4085 1dca 8223      		and r24,r18
 4086 1dcc 01F0      		breq .L268
 4087               	.LM820:
 4088 1dce 8091 0000 		lds r24,led_frame_bitmap+30
 4089 1dd2 822B      		or r24,r18
 4090 1dd4 8093 0000 		sts led_frame_bitmap+30,r24
 4091               	.L268:
 4092               	.LM821:
 4093 1dd8 8091 0000 		lds r24,led_frame_bitmap+23
 4094 1ddc 8223      		and r24,r18
 4095 1dde 01F0      		breq .L269
 4096               	.LM822:
 4097 1de0 8091 0000 		lds r24,led_frame_bitmap+31
 4098 1de4 822B      		or r24,r18
 4099 1de6 8093 0000 		sts led_frame_bitmap+31,r24
 4100               	.L269:
 4101               	.LM823:
 4102 1dea 3091 0000 		lds r19,led_frame_bitmap+16
 4103 1dee 3923      		and r19,r25
 4104 1df0 3093 0000 		sts led_frame_bitmap+16,r19
 4105               	.LM824:
 4106 1df4 8091 0000 		lds r24,led_frame_bitmap+17
 4107 1df8 8923      		and r24,r25
 4108 1dfa 8093 0000 		sts led_frame_bitmap+17,r24
 4109               	.LM825:
 4110 1dfe 8091 0000 		lds r24,led_frame_bitmap+18
 4111 1e02 8923      		and r24,r25
 4112 1e04 8093 0000 		sts led_frame_bitmap+18,r24
 4113               	.LM826:
 4114 1e08 8091 0000 		lds r24,led_frame_bitmap+19
 4115 1e0c 8923      		and r24,r25
 4116 1e0e 8093 0000 		sts led_frame_bitmap+19,r24
 4117               	.LM827:
 4118 1e12 8091 0000 		lds r24,led_frame_bitmap+20
 4119 1e16 8923      		and r24,r25
 4120 1e18 8093 0000 		sts led_frame_bitmap+20,r24
 4121               	.LM828:
 4122 1e1c 8091 0000 		lds r24,led_frame_bitmap+21
 4123 1e20 8923      		and r24,r25
 4124 1e22 8093 0000 		sts led_frame_bitmap+21,r24
 4125               	.LM829:
 4126 1e26 8091 0000 		lds r24,led_frame_bitmap+22
 4127 1e2a 8923      		and r24,r25
 4128 1e2c 8093 0000 		sts led_frame_bitmap+22,r24
 4129               	.LM830:
 4130 1e30 8091 0000 		lds r24,led_frame_bitmap+23
 4131 1e34 8923      		and r24,r25
 4132 1e36 8093 0000 		sts led_frame_bitmap+23,r24
 4133               	.LM831:
 4134 1e3a 8091 0000 		lds r24,led_frame_bitmap+8
 4135 1e3e 8223      		and r24,r18
 4136 1e40 01F0      		breq .L270
 4137               	.LM832:
 4138 1e42 322B      		or r19,r18
 4139 1e44 3093 0000 		sts led_frame_bitmap+16,r19
 4140               	.L270:
 4141               	.LM833:
 4142 1e48 8091 0000 		lds r24,led_frame_bitmap+9
 4143 1e4c 8223      		and r24,r18
 4144 1e4e 01F0      		breq .L271
 4145               	.LM834:
 4146 1e50 8091 0000 		lds r24,led_frame_bitmap+17
 4147 1e54 822B      		or r24,r18
 4148 1e56 8093 0000 		sts led_frame_bitmap+17,r24
 4149               	.L271:
 4150               	.LM835:
 4151 1e5a 8091 0000 		lds r24,led_frame_bitmap+10
 4152 1e5e 8223      		and r24,r18
 4153 1e60 01F0      		breq .L272
 4154               	.LM836:
 4155 1e62 8091 0000 		lds r24,led_frame_bitmap+18
 4156 1e66 822B      		or r24,r18
 4157 1e68 8093 0000 		sts led_frame_bitmap+18,r24
 4158               	.L272:
 4159               	.LM837:
 4160 1e6c 8091 0000 		lds r24,led_frame_bitmap+11
 4161 1e70 8223      		and r24,r18
 4162 1e72 01F0      		breq .L273
 4163               	.LM838:
 4164 1e74 8091 0000 		lds r24,led_frame_bitmap+19
 4165 1e78 822B      		or r24,r18
 4166 1e7a 8093 0000 		sts led_frame_bitmap+19,r24
 4167               	.L273:
 4168               	.LM839:
 4169 1e7e 8091 0000 		lds r24,led_frame_bitmap+12
 4170 1e82 8223      		and r24,r18
 4171 1e84 01F0      		breq .L274
 4172               	.LM840:
 4173 1e86 8091 0000 		lds r24,led_frame_bitmap+20
 4174 1e8a 822B      		or r24,r18
 4175 1e8c 8093 0000 		sts led_frame_bitmap+20,r24
 4176               	.L274:
 4177               	.LM841:
 4178 1e90 8091 0000 		lds r24,led_frame_bitmap+13
 4179 1e94 8223      		and r24,r18
 4180 1e96 01F0      		breq .L275
 4181               	.LM842:
 4182 1e98 8091 0000 		lds r24,led_frame_bitmap+21
 4183 1e9c 822B      		or r24,r18
 4184 1e9e 8093 0000 		sts led_frame_bitmap+21,r24
 4185               	.L275:
 4186               	.LM843:
 4187 1ea2 8091 0000 		lds r24,led_frame_bitmap+14
 4188 1ea6 8223      		and r24,r18
 4189 1ea8 01F0      		breq .L276
 4190               	.LM844:
 4191 1eaa 8091 0000 		lds r24,led_frame_bitmap+22
 4192 1eae 822B      		or r24,r18
 4193 1eb0 8093 0000 		sts led_frame_bitmap+22,r24
 4194               	.L276:
 4195               	.LM845:
 4196 1eb4 8091 0000 		lds r24,led_frame_bitmap+15
 4197 1eb8 8223      		and r24,r18
 4198 1eba 01F0      		breq .L277
 4199               	.LM846:
 4200 1ebc 8091 0000 		lds r24,led_frame_bitmap+23
 4201 1ec0 822B      		or r24,r18
 4202 1ec2 8093 0000 		sts led_frame_bitmap+23,r24
 4203               	.L277:
 4204               	.LM847:
 4205 1ec6 3091 0000 		lds r19,led_frame_bitmap+8
 4206 1eca 3923      		and r19,r25
 4207 1ecc 3093 0000 		sts led_frame_bitmap+8,r19
 4208               	.LM848:
 4209 1ed0 8091 0000 		lds r24,led_frame_bitmap+9
 4210 1ed4 8923      		and r24,r25
 4211 1ed6 8093 0000 		sts led_frame_bitmap+9,r24
 4212               	.LM849:
 4213 1eda 8091 0000 		lds r24,led_frame_bitmap+10
 4214 1ede 8923      		and r24,r25
 4215 1ee0 8093 0000 		sts led_frame_bitmap+10,r24
 4216               	.LM850:
 4217 1ee4 8091 0000 		lds r24,led_frame_bitmap+11
 4218 1ee8 8923      		and r24,r25
 4219 1eea 8093 0000 		sts led_frame_bitmap+11,r24
 4220               	.LM851:
 4221 1eee 8091 0000 		lds r24,led_frame_bitmap+12
 4222 1ef2 8923      		and r24,r25
 4223 1ef4 8093 0000 		sts led_frame_bitmap+12,r24
 4224               	.LM852:
 4225 1ef8 8091 0000 		lds r24,led_frame_bitmap+13
 4226 1efc 8923      		and r24,r25
 4227 1efe 8093 0000 		sts led_frame_bitmap+13,r24
 4228               	.LM853:
 4229 1f02 8091 0000 		lds r24,led_frame_bitmap+14
 4230 1f06 8923      		and r24,r25
 4231 1f08 8093 0000 		sts led_frame_bitmap+14,r24
 4232               	.LM854:
 4233 1f0c 8091 0000 		lds r24,led_frame_bitmap+15
 4234 1f10 8923      		and r24,r25
 4235 1f12 8093 0000 		sts led_frame_bitmap+15,r24
 4236               	.LM855:
 4237 1f16 8091 0000 		lds r24,led_frame_bitmap
 4238 1f1a 8223      		and r24,r18
 4239 1f1c 01F0      		breq .L278
 4240               	.LM856:
 4241 1f1e 322B      		or r19,r18
 4242 1f20 3093 0000 		sts led_frame_bitmap+8,r19
 4243               	.L278:
 4244               	.LM857:
 4245 1f24 8091 0000 		lds r24,led_frame_bitmap+1
 4246 1f28 8223      		and r24,r18
 4247 1f2a 01F0      		breq .L279
 4248               	.LM858:
 4249 1f2c 8091 0000 		lds r24,led_frame_bitmap+9
 4250 1f30 822B      		or r24,r18
 4251 1f32 8093 0000 		sts led_frame_bitmap+9,r24
 4252               	.L279:
 4253               	.LM859:
 4254 1f36 8091 0000 		lds r24,led_frame_bitmap+2
 4255 1f3a 8223      		and r24,r18
 4256 1f3c 01F0      		breq .L280
 4257               	.LM860:
 4258 1f3e 8091 0000 		lds r24,led_frame_bitmap+10
 4259 1f42 822B      		or r24,r18
 4260 1f44 8093 0000 		sts led_frame_bitmap+10,r24
 4261               	.L280:
 4262               	.LM861:
 4263 1f48 8091 0000 		lds r24,led_frame_bitmap+3
 4264 1f4c 8223      		and r24,r18
 4265 1f4e 01F0      		breq .L281
 4266               	.LM862:
 4267 1f50 8091 0000 		lds r24,led_frame_bitmap+11
 4268 1f54 822B      		or r24,r18
 4269 1f56 8093 0000 		sts led_frame_bitmap+11,r24
 4270               	.L281:
 4271               	.LM863:
 4272 1f5a 8091 0000 		lds r24,led_frame_bitmap+4
 4273 1f5e 8223      		and r24,r18
 4274 1f60 01F0      		breq .L282
 4275               	.LM864:
 4276 1f62 8091 0000 		lds r24,led_frame_bitmap+12
 4277 1f66 822B      		or r24,r18
 4278 1f68 8093 0000 		sts led_frame_bitmap+12,r24
 4279               	.L282:
 4280               	.LM865:
 4281 1f6c 8091 0000 		lds r24,led_frame_bitmap+5
 4282 1f70 8223      		and r24,r18
 4283 1f72 01F0      		breq .L283
 4284               	.LM866:
 4285 1f74 8091 0000 		lds r24,led_frame_bitmap+13
 4286 1f78 822B      		or r24,r18
 4287 1f7a 8093 0000 		sts led_frame_bitmap+13,r24
 4288               	.L283:
 4289               	.LM867:
 4290 1f7e 8091 0000 		lds r24,led_frame_bitmap+6
 4291 1f82 8223      		and r24,r18
 4292 1f84 01F0      		breq .L284
 4293               	.LM868:
 4294 1f86 8091 0000 		lds r24,led_frame_bitmap+14
 4295 1f8a 822B      		or r24,r18
 4296 1f8c 8093 0000 		sts led_frame_bitmap+14,r24
 4297               	.L284:
 4298               	.LM869:
 4299 1f90 8091 0000 		lds r24,led_frame_bitmap+7
 4300 1f94 8223      		and r24,r18
 4301 1f96 01F0      		breq .L285
 4302               	.LM870:
 4303 1f98 8091 0000 		lds r24,led_frame_bitmap+15
 4304 1f9c 282B      		or r18,r24
 4305 1f9e 2093 0000 		sts led_frame_bitmap+15,r18
 4306               	.L285:
 4307               	.LM871:
 4308 1fa2 8091 0000 		lds r24,led_frame_bitmap
 4309 1fa6 8923      		and r24,r25
 4310 1fa8 8093 0000 		sts led_frame_bitmap,r24
 4311               	.LM872:
 4312 1fac 8091 0000 		lds r24,led_frame_bitmap+1
 4313 1fb0 8923      		and r24,r25
 4314 1fb2 8093 0000 		sts led_frame_bitmap+1,r24
 4315               	.LM873:
 4316 1fb6 8091 0000 		lds r24,led_frame_bitmap+2
 4317 1fba 8923      		and r24,r25
 4318 1fbc 8093 0000 		sts led_frame_bitmap+2,r24
 4319               	.LM874:
 4320 1fc0 8091 0000 		lds r24,led_frame_bitmap+3
 4321 1fc4 8923      		and r24,r25
 4322 1fc6 8093 0000 		sts led_frame_bitmap+3,r24
 4323               	.LM875:
 4324 1fca 8091 0000 		lds r24,led_frame_bitmap+4
 4325 1fce 8923      		and r24,r25
 4326 1fd0 8093 0000 		sts led_frame_bitmap+4,r24
 4327               	.LM876:
 4328 1fd4 8091 0000 		lds r24,led_frame_bitmap+5
 4329 1fd8 8923      		and r24,r25
 4330 1fda 8093 0000 		sts led_frame_bitmap+5,r24
 4331               	.LM877:
 4332 1fde 8091 0000 		lds r24,led_frame_bitmap+6
 4333 1fe2 8923      		and r24,r25
 4334 1fe4 8093 0000 		sts led_frame_bitmap+6,r24
 4335               	.LM878:
 4336 1fe8 8091 0000 		lds r24,led_frame_bitmap+7
 4337 1fec 9823      		and r25,r24
 4338 1fee 9093 0000 		sts led_frame_bitmap+7,r25
 4339               	/* epilogue start */
 4340               	.LM879:
 4341 1ff2 0895      		ret
 4342               	.LFE33:
 4344               	.global	led_plane_z_left
 4346               	led_plane_z_left:
 4347               	.LFB34:
 4348               	.LM880:
 4349               	.LVL159:
 4350               	/* prologue: function */
 4351               	/* frame size = 0 */
 4352               	.LM881:
 4353 1ff4 A0E0      		ldi r26,lo8(led_frame_bitmap)
 4354 1ff6 B0E0      		ldi r27,hi8(led_frame_bitmap)
 4355 1ff8 FD01      		movw r30,r26
 4356 1ffa E80F      		add r30,r24
 4357 1ffc F11D      		adc r31,__zero_reg__
 4358 1ffe 9081      		ld r25,Z
 4359 2000 990F      		lsl r25
 4360 2002 9083      		st Z,r25
 4361               	.LM882:
 4362 2004 885F      		subi r24,lo8(-(8))
 4363               	.LVL160:
 4364               	.LM883:
 4365 2006 FD01      		movw r30,r26
 4366 2008 E80F      		add r30,r24
 4367 200a F11D      		adc r31,__zero_reg__
 4368 200c 9081      		ld r25,Z
 4369 200e 990F      		lsl r25
 4370 2010 9083      		st Z,r25
 4371               	.LM884:
 4372 2012 885F      		subi r24,lo8(-(8))
 4373               	.LVL161:
 4374               	.LM885:
 4375 2014 FD01      		movw r30,r26
 4376 2016 E80F      		add r30,r24
 4377 2018 F11D      		adc r31,__zero_reg__
 4378 201a 9081      		ld r25,Z
 4379 201c 990F      		lsl r25
 4380 201e 9083      		st Z,r25
 4381               	.LM886:
 4382 2020 885F      		subi r24,lo8(-(8))
 4383               	.LVL162:
 4384               	.LM887:
 4385 2022 FD01      		movw r30,r26
 4386 2024 E80F      		add r30,r24
 4387 2026 F11D      		adc r31,__zero_reg__
 4388 2028 9081      		ld r25,Z
 4389 202a 990F      		lsl r25
 4390 202c 9083      		st Z,r25
 4391               	.LM888:
 4392 202e 885F      		subi r24,lo8(-(8))
 4393               	.LVL163:
 4394               	.LM889:
 4395 2030 FD01      		movw r30,r26
 4396 2032 E80F      		add r30,r24
 4397 2034 F11D      		adc r31,__zero_reg__
 4398 2036 9081      		ld r25,Z
 4399 2038 990F      		lsl r25
 4400 203a 9083      		st Z,r25
 4401               	.LM890:
 4402 203c 885F      		subi r24,lo8(-(8))
 4403               	.LVL164:
 4404               	.LM891:
 4405 203e FD01      		movw r30,r26
 4406 2040 E80F      		add r30,r24
 4407 2042 F11D      		adc r31,__zero_reg__
 4408 2044 9081      		ld r25,Z
 4409 2046 990F      		lsl r25
 4410 2048 9083      		st Z,r25
 4411               	.LM892:
 4412 204a 885F      		subi r24,lo8(-(8))
 4413               	.LVL165:
 4414               	.LM893:
 4415 204c FD01      		movw r30,r26
 4416 204e E80F      		add r30,r24
 4417 2050 F11D      		adc r31,__zero_reg__
 4418 2052 9081      		ld r25,Z
 4419 2054 990F      		lsl r25
 4420 2056 9083      		st Z,r25
 4421               	.LM894:
 4422 2058 885F      		subi r24,lo8(-(8))
 4423 205a A80F      		add r26,r24
 4424 205c B11D      		adc r27,__zero_reg__
 4425 205e 8C91      		ld r24,X
 4426               	.LVL166:
 4427 2060 880F      		lsl r24
 4428 2062 8C93      		st X,r24
 4429               	/* epilogue start */
 4430               	.LM895:
 4431 2064 0895      		ret
 4432               	.LFE34:
 4434               	.global	led_plane_z_right
 4436               	led_plane_z_right:
 4437               	.LFB35:
 4438               	.LM896:
 4439               	.LVL167:
 4440               	/* prologue: function */
 4441               	/* frame size = 0 */
 4442               	.LM897:
 4443 2066 A0E0      		ldi r26,lo8(led_frame_bitmap)
 4444 2068 B0E0      		ldi r27,hi8(led_frame_bitmap)
 4445 206a FD01      		movw r30,r26
 4446 206c E80F      		add r30,r24
 4447 206e F11D      		adc r31,__zero_reg__
 4448 2070 9081      		ld r25,Z
 4449 2072 9695      		lsr r25
 4450 2074 9083      		st Z,r25
 4451               	.LM898:
 4452 2076 885F      		subi r24,lo8(-(8))
 4453               	.LVL168:
 4454               	.LM899:
 4455 2078 FD01      		movw r30,r26
 4456 207a E80F      		add r30,r24
 4457 207c F11D      		adc r31,__zero_reg__
 4458 207e 9081      		ld r25,Z
 4459 2080 9695      		lsr r25
 4460 2082 9083      		st Z,r25
 4461               	.LM900:
 4462 2084 885F      		subi r24,lo8(-(8))
 4463               	.LVL169:
 4464               	.LM901:
 4465 2086 FD01      		movw r30,r26
 4466 2088 E80F      		add r30,r24
 4467 208a F11D      		adc r31,__zero_reg__
 4468 208c 9081      		ld r25,Z
 4469 208e 9695      		lsr r25
 4470 2090 9083      		st Z,r25
 4471               	.LM902:
 4472 2092 885F      		subi r24,lo8(-(8))
 4473               	.LVL170:
 4474               	.LM903:
 4475 2094 FD01      		movw r30,r26
 4476 2096 E80F      		add r30,r24
 4477 2098 F11D      		adc r31,__zero_reg__
 4478 209a 9081      		ld r25,Z
 4479 209c 9695      		lsr r25
 4480 209e 9083      		st Z,r25
 4481               	.LM904:
 4482 20a0 885F      		subi r24,lo8(-(8))
 4483               	.LVL171:
 4484               	.LM905:
 4485 20a2 FD01      		movw r30,r26
 4486 20a4 E80F      		add r30,r24
 4487 20a6 F11D      		adc r31,__zero_reg__
 4488 20a8 9081      		ld r25,Z
 4489 20aa 9695      		lsr r25
 4490 20ac 9083      		st Z,r25
 4491               	.LM906:
 4492 20ae 885F      		subi r24,lo8(-(8))
 4493               	.LVL172:
 4494               	.LM907:
 4495 20b0 FD01      		movw r30,r26
 4496 20b2 E80F      		add r30,r24
 4497 20b4 F11D      		adc r31,__zero_reg__
 4498 20b6 9081      		ld r25,Z
 4499 20b8 9695      		lsr r25
 4500 20ba 9083      		st Z,r25
 4501               	.LM908:
 4502 20bc 885F      		subi r24,lo8(-(8))
 4503               	.LVL173:
 4504               	.LM909:
 4505 20be FD01      		movw r30,r26
 4506 20c0 E80F      		add r30,r24
 4507 20c2 F11D      		adc r31,__zero_reg__
 4508 20c4 9081      		ld r25,Z
 4509 20c6 9695      		lsr r25
 4510 20c8 9083      		st Z,r25
 4511               	.LM910:
 4512 20ca 885F      		subi r24,lo8(-(8))
 4513 20cc A80F      		add r26,r24
 4514 20ce B11D      		adc r27,__zero_reg__
 4515 20d0 8C91      		ld r24,X
 4516               	.LVL174:
 4517 20d2 8695      		lsr r24
 4518 20d4 8C93      		st X,r24
 4519               	/* epilogue start */
 4520               	.LM911:
 4521 20d6 0895      		ret
 4522               	.LFE35:
 4524               	.global	led_frame_left
 4526               	led_frame_left:
 4527               	.LFB44:
 4528               	.LM912:
 4529               	/* prologue: function */
 4530               	/* frame size = 0 */
 4531               	.LM913:
 4532 20d8 A0E0      		ldi r26,lo8(led_frame_bitmap)
 4533 20da B0E0      		ldi r27,hi8(led_frame_bitmap)
 4534 20dc 8091 0000 		lds r24,led_frame_bitmap
 4535 20e0 880F      		lsl r24
 4536 20e2 8093 0000 		sts led_frame_bitmap,r24
 4537               	.LM914:
 4538 20e6 8091 0000 		lds r24,led_frame_bitmap+1
 4539 20ea 880F      		lsl r24
 4540 20ec 8093 0000 		sts led_frame_bitmap+1,r24
 4541               	.LM915:
 4542 20f0 8091 0000 		lds r24,led_frame_bitmap+2
 4543 20f4 880F      		lsl r24
 4544 20f6 8093 0000 		sts led_frame_bitmap+2,r24
 4545               	.LM916:
 4546 20fa 8091 0000 		lds r24,led_frame_bitmap+3
 4547 20fe 880F      		lsl r24
 4548 2100 8093 0000 		sts led_frame_bitmap+3,r24
 4549               	.LM917:
 4550 2104 8091 0000 		lds r24,led_frame_bitmap+4
 4551 2108 880F      		lsl r24
 4552 210a 8093 0000 		sts led_frame_bitmap+4,r24
 4553               	.LM918:
 4554 210e 8091 0000 		lds r24,led_frame_bitmap+5
 4555 2112 880F      		lsl r24
 4556 2114 8093 0000 		sts led_frame_bitmap+5,r24
 4557               	.LM919:
 4558 2118 8091 0000 		lds r24,led_frame_bitmap+6
 4559 211c 880F      		lsl r24
 4560 211e 8093 0000 		sts led_frame_bitmap+6,r24
 4561               	.LM920:
 4562 2122 8091 0000 		lds r24,led_frame_bitmap+7
 4563 2126 880F      		lsl r24
 4564 2128 8093 0000 		sts led_frame_bitmap+7,r24
 4565               	.LM921:
 4566 212c 8091 0000 		lds r24,led_frame_bitmap+8
 4567 2130 880F      		lsl r24
 4568 2132 8093 0000 		sts led_frame_bitmap+8,r24
 4569               	.LM922:
 4570 2136 8091 0000 		lds r24,led_frame_bitmap+9
 4571 213a 880F      		lsl r24
 4572 213c 8093 0000 		sts led_frame_bitmap+9,r24
 4573               	.LM923:
 4574 2140 8091 0000 		lds r24,led_frame_bitmap+10
 4575 2144 880F      		lsl r24
 4576 2146 8093 0000 		sts led_frame_bitmap+10,r24
 4577               	.LM924:
 4578 214a 8091 0000 		lds r24,led_frame_bitmap+11
 4579 214e 880F      		lsl r24
 4580 2150 8093 0000 		sts led_frame_bitmap+11,r24
 4581               	.LM925:
 4582 2154 8091 0000 		lds r24,led_frame_bitmap+12
 4583 2158 880F      		lsl r24
 4584 215a 8093 0000 		sts led_frame_bitmap+12,r24
 4585               	.LM926:
 4586 215e 8091 0000 		lds r24,led_frame_bitmap+13
 4587 2162 880F      		lsl r24
 4588 2164 8093 0000 		sts led_frame_bitmap+13,r24
 4589               	.LM927:
 4590 2168 8091 0000 		lds r24,led_frame_bitmap+14
 4591 216c 880F      		lsl r24
 4592 216e 8093 0000 		sts led_frame_bitmap+14,r24
 4593               	.LM928:
 4594 2172 8091 0000 		lds r24,led_frame_bitmap+15
 4595 2176 880F      		lsl r24
 4596 2178 8093 0000 		sts led_frame_bitmap+15,r24
 4597               	.LM929:
 4598 217c 8091 0000 		lds r24,led_frame_bitmap+16
 4599 2180 880F      		lsl r24
 4600 2182 8093 0000 		sts led_frame_bitmap+16,r24
 4601               	.LM930:
 4602 2186 8091 0000 		lds r24,led_frame_bitmap+17
 4603 218a 880F      		lsl r24
 4604 218c 8093 0000 		sts led_frame_bitmap+17,r24
 4605               	.LM931:
 4606 2190 8091 0000 		lds r24,led_frame_bitmap+18
 4607 2194 880F      		lsl r24
 4608 2196 8093 0000 		sts led_frame_bitmap+18,r24
 4609               	.LM932:
 4610 219a 8091 0000 		lds r24,led_frame_bitmap+19
 4611 219e 880F      		lsl r24
 4612 21a0 8093 0000 		sts led_frame_bitmap+19,r24
 4613               	.LM933:
 4614 21a4 8091 0000 		lds r24,led_frame_bitmap+20
 4615 21a8 880F      		lsl r24
 4616 21aa 8093 0000 		sts led_frame_bitmap+20,r24
 4617               	.LM934:
 4618 21ae 8091 0000 		lds r24,led_frame_bitmap+21
 4619 21b2 880F      		lsl r24
 4620 21b4 8093 0000 		sts led_frame_bitmap+21,r24
 4621               	.LM935:
 4622 21b8 8091 0000 		lds r24,led_frame_bitmap+22
 4623 21bc 880F      		lsl r24
 4624 21be 8093 0000 		sts led_frame_bitmap+22,r24
 4625               	.LM936:
 4626 21c2 8091 0000 		lds r24,led_frame_bitmap+23
 4627 21c6 880F      		lsl r24
 4628 21c8 8093 0000 		sts led_frame_bitmap+23,r24
 4629               	.LM937:
 4630 21cc 8091 0000 		lds r24,led_frame_bitmap+24
 4631 21d0 880F      		lsl r24
 4632 21d2 8093 0000 		sts led_frame_bitmap+24,r24
 4633               	.LM938:
 4634 21d6 8091 0000 		lds r24,led_frame_bitmap+25
 4635 21da 880F      		lsl r24
 4636 21dc 8093 0000 		sts led_frame_bitmap+25,r24
 4637               	.LM939:
 4638 21e0 8091 0000 		lds r24,led_frame_bitmap+26
 4639 21e4 880F      		lsl r24
 4640 21e6 8093 0000 		sts led_frame_bitmap+26,r24
 4641               	.LM940:
 4642 21ea 8091 0000 		lds r24,led_frame_bitmap+27
 4643 21ee 880F      		lsl r24
 4644 21f0 8093 0000 		sts led_frame_bitmap+27,r24
 4645               	.LM941:
 4646 21f4 8091 0000 		lds r24,led_frame_bitmap+28
 4647 21f8 880F      		lsl r24
 4648 21fa 8093 0000 		sts led_frame_bitmap+28,r24
 4649               	.LM942:
 4650 21fe 8091 0000 		lds r24,led_frame_bitmap+29
 4651 2202 880F      		lsl r24
 4652 2204 8093 0000 		sts led_frame_bitmap+29,r24
 4653               	.LM943:
 4654 2208 8091 0000 		lds r24,led_frame_bitmap+30
 4655 220c 880F      		lsl r24
 4656 220e 8093 0000 		sts led_frame_bitmap+30,r24
 4657               	.LM944:
 4658 2212 8091 0000 		lds r24,led_frame_bitmap+31
 4659 2216 880F      		lsl r24
 4660 2218 8093 0000 		sts led_frame_bitmap+31,r24
 4661               	.LM945:
 4662 221c 8091 0000 		lds r24,led_frame_bitmap+32
 4663 2220 880F      		lsl r24
 4664 2222 8093 0000 		sts led_frame_bitmap+32,r24
 4665               	.LM946:
 4666 2226 8091 0000 		lds r24,led_frame_bitmap+33
 4667 222a 880F      		lsl r24
 4668 222c 8093 0000 		sts led_frame_bitmap+33,r24
 4669               	.LM947:
 4670 2230 8091 0000 		lds r24,led_frame_bitmap+34
 4671 2234 880F      		lsl r24
 4672 2236 8093 0000 		sts led_frame_bitmap+34,r24
 4673               	.LM948:
 4674 223a 8091 0000 		lds r24,led_frame_bitmap+35
 4675 223e 880F      		lsl r24
 4676 2240 8093 0000 		sts led_frame_bitmap+35,r24
 4677               	.LM949:
 4678 2244 8091 0000 		lds r24,led_frame_bitmap+36
 4679 2248 880F      		lsl r24
 4680 224a 8093 0000 		sts led_frame_bitmap+36,r24
 4681               	.LM950:
 4682 224e 8091 0000 		lds r24,led_frame_bitmap+37
 4683 2252 880F      		lsl r24
 4684 2254 8093 0000 		sts led_frame_bitmap+37,r24
 4685               	.LM951:
 4686 2258 8091 0000 		lds r24,led_frame_bitmap+38
 4687 225c 880F      		lsl r24
 4688 225e 8093 0000 		sts led_frame_bitmap+38,r24
 4689               	.LM952:
 4690 2262 8091 0000 		lds r24,led_frame_bitmap+39
 4691 2266 880F      		lsl r24
 4692 2268 8093 0000 		sts led_frame_bitmap+39,r24
 4693               	.LM953:
 4694 226c 8091 0000 		lds r24,led_frame_bitmap+40
 4695 2270 880F      		lsl r24
 4696 2272 8093 0000 		sts led_frame_bitmap+40,r24
 4697               	.LM954:
 4698 2276 8091 0000 		lds r24,led_frame_bitmap+41
 4699 227a 880F      		lsl r24
 4700 227c 8093 0000 		sts led_frame_bitmap+41,r24
 4701               	.LM955:
 4702 2280 8091 0000 		lds r24,led_frame_bitmap+42
 4703 2284 880F      		lsl r24
 4704 2286 8093 0000 		sts led_frame_bitmap+42,r24
 4705               	.LM956:
 4706 228a 8091 0000 		lds r24,led_frame_bitmap+43
 4707 228e 880F      		lsl r24
 4708 2290 8093 0000 		sts led_frame_bitmap+43,r24
 4709               	.LM957:
 4710 2294 8091 0000 		lds r24,led_frame_bitmap+44
 4711 2298 880F      		lsl r24
 4712 229a 8093 0000 		sts led_frame_bitmap+44,r24
 4713               	.LM958:
 4714 229e 8091 0000 		lds r24,led_frame_bitmap+45
 4715 22a2 880F      		lsl r24
 4716 22a4 8093 0000 		sts led_frame_bitmap+45,r24
 4717               	.LM959:
 4718 22a8 8091 0000 		lds r24,led_frame_bitmap+46
 4719 22ac 880F      		lsl r24
 4720 22ae 8093 0000 		sts led_frame_bitmap+46,r24
 4721               	.LM960:
 4722 22b2 8091 0000 		lds r24,led_frame_bitmap+47
 4723 22b6 880F      		lsl r24
 4724 22b8 8093 0000 		sts led_frame_bitmap+47,r24
 4725               	.LM961:
 4726 22bc 8091 0000 		lds r24,led_frame_bitmap+48
 4727 22c0 880F      		lsl r24
 4728 22c2 8093 0000 		sts led_frame_bitmap+48,r24
 4729               	.LM962:
 4730 22c6 8091 0000 		lds r24,led_frame_bitmap+49
 4731 22ca 880F      		lsl r24
 4732 22cc 8093 0000 		sts led_frame_bitmap+49,r24
 4733               	.LM963:
 4734 22d0 8091 0000 		lds r24,led_frame_bitmap+50
 4735 22d4 880F      		lsl r24
 4736 22d6 8093 0000 		sts led_frame_bitmap+50,r24
 4737               	.LM964:
 4738 22da 8091 0000 		lds r24,led_frame_bitmap+51
 4739 22de 880F      		lsl r24
 4740 22e0 8093 0000 		sts led_frame_bitmap+51,r24
 4741               	.LM965:
 4742 22e4 8091 0000 		lds r24,led_frame_bitmap+52
 4743 22e8 880F      		lsl r24
 4744 22ea 8093 0000 		sts led_frame_bitmap+52,r24
 4745               	.LM966:
 4746 22ee 8091 0000 		lds r24,led_frame_bitmap+53
 4747 22f2 880F      		lsl r24
 4748 22f4 8093 0000 		sts led_frame_bitmap+53,r24
 4749               	.LM967:
 4750 22f8 8091 0000 		lds r24,led_frame_bitmap+54
 4751 22fc 880F      		lsl r24
 4752 22fe 8093 0000 		sts led_frame_bitmap+54,r24
 4753               	.LM968:
 4754 2302 8091 0000 		lds r24,led_frame_bitmap+55
 4755 2306 880F      		lsl r24
 4756 2308 8093 0000 		sts led_frame_bitmap+55,r24
 4757               	.LM969:
 4758 230c 8091 0000 		lds r24,led_frame_bitmap+56
 4759 2310 880F      		lsl r24
 4760 2312 8093 0000 		sts led_frame_bitmap+56,r24
 4761               	.LM970:
 4762 2316 8091 0000 		lds r24,led_frame_bitmap+57
 4763 231a 880F      		lsl r24
 4764 231c 8093 0000 		sts led_frame_bitmap+57,r24
 4765               	.LM971:
 4766 2320 8091 0000 		lds r24,led_frame_bitmap+58
 4767 2324 880F      		lsl r24
 4768 2326 8093 0000 		sts led_frame_bitmap+58,r24
 4769               	.LM972:
 4770 232a 8091 0000 		lds r24,led_frame_bitmap+59
 4771 232e 880F      		lsl r24
 4772 2330 8093 0000 		sts led_frame_bitmap+59,r24
 4773               	.LM973:
 4774 2334 8091 0000 		lds r24,led_frame_bitmap+60
 4775 2338 880F      		lsl r24
 4776 233a 8093 0000 		sts led_frame_bitmap+60,r24
 4777               	.LM974:
 4778 233e FD01      		movw r30,r26
 4779 2340 FD96      		adiw r30,61
 4780 2342 8081      		ld r24,Z
 4781 2344 880F      		lsl r24
 4782 2346 8083      		st Z,r24
 4783               	.LM975:
 4784 2348 FD01      		movw r30,r26
 4785 234a FE96      		adiw r30,62
 4786 234c 8081      		ld r24,Z
 4787 234e 880F      		lsl r24
 4788 2350 8083      		st Z,r24
 4789               	.LM976:
 4790 2352 DF96      		adiw r26,63
 4791 2354 8C91      		ld r24,X
 4792 2356 880F      		lsl r24
 4793 2358 8C93      		st X,r24
 4794               	/* epilogue start */
 4795               	.LM977:
 4796 235a 0895      		ret
 4797               	.LFE44:
 4799               	.global	led_frame_right
 4801               	led_frame_right:
 4802               	.LFB45:
 4803               	.LM978:
 4804               	/* prologue: function */
 4805               	/* frame size = 0 */
 4806               	.LM979:
 4807 235c A0E0      		ldi r26,lo8(led_frame_bitmap)
 4808 235e B0E0      		ldi r27,hi8(led_frame_bitmap)
 4809 2360 8091 0000 		lds r24,led_frame_bitmap
 4810 2364 8695      		lsr r24
 4811 2366 8093 0000 		sts led_frame_bitmap,r24
 4812               	.LM980:
 4813 236a 8091 0000 		lds r24,led_frame_bitmap+1
 4814 236e 8695      		lsr r24
 4815 2370 8093 0000 		sts led_frame_bitmap+1,r24
 4816               	.LM981:
 4817 2374 8091 0000 		lds r24,led_frame_bitmap+2
 4818 2378 8695      		lsr r24
 4819 237a 8093 0000 		sts led_frame_bitmap+2,r24
 4820               	.LM982:
 4821 237e 8091 0000 		lds r24,led_frame_bitmap+3
 4822 2382 8695      		lsr r24
 4823 2384 8093 0000 		sts led_frame_bitmap+3,r24
 4824               	.LM983:
 4825 2388 8091 0000 		lds r24,led_frame_bitmap+4
 4826 238c 8695      		lsr r24
 4827 238e 8093 0000 		sts led_frame_bitmap+4,r24
 4828               	.LM984:
 4829 2392 8091 0000 		lds r24,led_frame_bitmap+5
 4830 2396 8695      		lsr r24
 4831 2398 8093 0000 		sts led_frame_bitmap+5,r24
 4832               	.LM985:
 4833 239c 8091 0000 		lds r24,led_frame_bitmap+6
 4834 23a0 8695      		lsr r24
 4835 23a2 8093 0000 		sts led_frame_bitmap+6,r24
 4836               	.LM986:
 4837 23a6 8091 0000 		lds r24,led_frame_bitmap+7
 4838 23aa 8695      		lsr r24
 4839 23ac 8093 0000 		sts led_frame_bitmap+7,r24
 4840               	.LM987:
 4841 23b0 8091 0000 		lds r24,led_frame_bitmap+8
 4842 23b4 8695      		lsr r24
 4843 23b6 8093 0000 		sts led_frame_bitmap+8,r24
 4844               	.LM988:
 4845 23ba 8091 0000 		lds r24,led_frame_bitmap+9
 4846 23be 8695      		lsr r24
 4847 23c0 8093 0000 		sts led_frame_bitmap+9,r24
 4848               	.LM989:
 4849 23c4 8091 0000 		lds r24,led_frame_bitmap+10
 4850 23c8 8695      		lsr r24
 4851 23ca 8093 0000 		sts led_frame_bitmap+10,r24
 4852               	.LM990:
 4853 23ce 8091 0000 		lds r24,led_frame_bitmap+11
 4854 23d2 8695      		lsr r24
 4855 23d4 8093 0000 		sts led_frame_bitmap+11,r24
 4856               	.LM991:
 4857 23d8 8091 0000 		lds r24,led_frame_bitmap+12
 4858 23dc 8695      		lsr r24
 4859 23de 8093 0000 		sts led_frame_bitmap+12,r24
 4860               	.LM992:
 4861 23e2 8091 0000 		lds r24,led_frame_bitmap+13
 4862 23e6 8695      		lsr r24
 4863 23e8 8093 0000 		sts led_frame_bitmap+13,r24
 4864               	.LM993:
 4865 23ec 8091 0000 		lds r24,led_frame_bitmap+14
 4866 23f0 8695      		lsr r24
 4867 23f2 8093 0000 		sts led_frame_bitmap+14,r24
 4868               	.LM994:
 4869 23f6 8091 0000 		lds r24,led_frame_bitmap+15
 4870 23fa 8695      		lsr r24
 4871 23fc 8093 0000 		sts led_frame_bitmap+15,r24
 4872               	.LM995:
 4873 2400 8091 0000 		lds r24,led_frame_bitmap+16
 4874 2404 8695      		lsr r24
 4875 2406 8093 0000 		sts led_frame_bitmap+16,r24
 4876               	.LM996:
 4877 240a 8091 0000 		lds r24,led_frame_bitmap+17
 4878 240e 8695      		lsr r24
 4879 2410 8093 0000 		sts led_frame_bitmap+17,r24
 4880               	.LM997:
 4881 2414 8091 0000 		lds r24,led_frame_bitmap+18
 4882 2418 8695      		lsr r24
 4883 241a 8093 0000 		sts led_frame_bitmap+18,r24
 4884               	.LM998:
 4885 241e 8091 0000 		lds r24,led_frame_bitmap+19
 4886 2422 8695      		lsr r24
 4887 2424 8093 0000 		sts led_frame_bitmap+19,r24
 4888               	.LM999:
 4889 2428 8091 0000 		lds r24,led_frame_bitmap+20
 4890 242c 8695      		lsr r24
 4891 242e 8093 0000 		sts led_frame_bitmap+20,r24
 4892               	.LM1000:
 4893 2432 8091 0000 		lds r24,led_frame_bitmap+21
 4894 2436 8695      		lsr r24
 4895 2438 8093 0000 		sts led_frame_bitmap+21,r24
 4896               	.LM1001:
 4897 243c 8091 0000 		lds r24,led_frame_bitmap+22
 4898 2440 8695      		lsr r24
 4899 2442 8093 0000 		sts led_frame_bitmap+22,r24
 4900               	.LM1002:
 4901 2446 8091 0000 		lds r24,led_frame_bitmap+23
 4902 244a 8695      		lsr r24
 4903 244c 8093 0000 		sts led_frame_bitmap+23,r24
 4904               	.LM1003:
 4905 2450 8091 0000 		lds r24,led_frame_bitmap+24
 4906 2454 8695      		lsr r24
 4907 2456 8093 0000 		sts led_frame_bitmap+24,r24
 4908               	.LM1004:
 4909 245a 8091 0000 		lds r24,led_frame_bitmap+25
 4910 245e 8695      		lsr r24
 4911 2460 8093 0000 		sts led_frame_bitmap+25,r24
 4912               	.LM1005:
 4913 2464 8091 0000 		lds r24,led_frame_bitmap+26
 4914 2468 8695      		lsr r24
 4915 246a 8093 0000 		sts led_frame_bitmap+26,r24
 4916               	.LM1006:
 4917 246e 8091 0000 		lds r24,led_frame_bitmap+27
 4918 2472 8695      		lsr r24
 4919 2474 8093 0000 		sts led_frame_bitmap+27,r24
 4920               	.LM1007:
 4921 2478 8091 0000 		lds r24,led_frame_bitmap+28
 4922 247c 8695      		lsr r24
 4923 247e 8093 0000 		sts led_frame_bitmap+28,r24
 4924               	.LM1008:
 4925 2482 8091 0000 		lds r24,led_frame_bitmap+29
 4926 2486 8695      		lsr r24
 4927 2488 8093 0000 		sts led_frame_bitmap+29,r24
 4928               	.LM1009:
 4929 248c 8091 0000 		lds r24,led_frame_bitmap+30
 4930 2490 8695      		lsr r24
 4931 2492 8093 0000 		sts led_frame_bitmap+30,r24
 4932               	.LM1010:
 4933 2496 8091 0000 		lds r24,led_frame_bitmap+31
 4934 249a 8695      		lsr r24
 4935 249c 8093 0000 		sts led_frame_bitmap+31,r24
 4936               	.LM1011:
 4937 24a0 8091 0000 		lds r24,led_frame_bitmap+32
 4938 24a4 8695      		lsr r24
 4939 24a6 8093 0000 		sts led_frame_bitmap+32,r24
 4940               	.LM1012:
 4941 24aa 8091 0000 		lds r24,led_frame_bitmap+33
 4942 24ae 8695      		lsr r24
 4943 24b0 8093 0000 		sts led_frame_bitmap+33,r24
 4944               	.LM1013:
 4945 24b4 8091 0000 		lds r24,led_frame_bitmap+34
 4946 24b8 8695      		lsr r24
 4947 24ba 8093 0000 		sts led_frame_bitmap+34,r24
 4948               	.LM1014:
 4949 24be 8091 0000 		lds r24,led_frame_bitmap+35
 4950 24c2 8695      		lsr r24
 4951 24c4 8093 0000 		sts led_frame_bitmap+35,r24
 4952               	.LM1015:
 4953 24c8 8091 0000 		lds r24,led_frame_bitmap+36
 4954 24cc 8695      		lsr r24
 4955 24ce 8093 0000 		sts led_frame_bitmap+36,r24
 4956               	.LM1016:
 4957 24d2 8091 0000 		lds r24,led_frame_bitmap+37
 4958 24d6 8695      		lsr r24
 4959 24d8 8093 0000 		sts led_frame_bitmap+37,r24
 4960               	.LM1017:
 4961 24dc 8091 0000 		lds r24,led_frame_bitmap+38
 4962 24e0 8695      		lsr r24
 4963 24e2 8093 0000 		sts led_frame_bitmap+38,r24
 4964               	.LM1018:
 4965 24e6 8091 0000 		lds r24,led_frame_bitmap+39
 4966 24ea 8695      		lsr r24
 4967 24ec 8093 0000 		sts led_frame_bitmap+39,r24
 4968               	.LM1019:
 4969 24f0 8091 0000 		lds r24,led_frame_bitmap+40
 4970 24f4 8695      		lsr r24
 4971 24f6 8093 0000 		sts led_frame_bitmap+40,r24
 4972               	.LM1020:
 4973 24fa 8091 0000 		lds r24,led_frame_bitmap+41
 4974 24fe 8695      		lsr r24
 4975 2500 8093 0000 		sts led_frame_bitmap+41,r24
 4976               	.LM1021:
 4977 2504 8091 0000 		lds r24,led_frame_bitmap+42
 4978 2508 8695      		lsr r24
 4979 250a 8093 0000 		sts led_frame_bitmap+42,r24
 4980               	.LM1022:
 4981 250e 8091 0000 		lds r24,led_frame_bitmap+43
 4982 2512 8695      		lsr r24
 4983 2514 8093 0000 		sts led_frame_bitmap+43,r24
 4984               	.LM1023:
 4985 2518 8091 0000 		lds r24,led_frame_bitmap+44
 4986 251c 8695      		lsr r24
 4987 251e 8093 0000 		sts led_frame_bitmap+44,r24
 4988               	.LM1024:
 4989 2522 8091 0000 		lds r24,led_frame_bitmap+45
 4990 2526 8695      		lsr r24
 4991 2528 8093 0000 		sts led_frame_bitmap+45,r24
 4992               	.LM1025:
 4993 252c 8091 0000 		lds r24,led_frame_bitmap+46
 4994 2530 8695      		lsr r24
 4995 2532 8093 0000 		sts led_frame_bitmap+46,r24
 4996               	.LM1026:
 4997 2536 8091 0000 		lds r24,led_frame_bitmap+47
 4998 253a 8695      		lsr r24
 4999 253c 8093 0000 		sts led_frame_bitmap+47,r24
 5000               	.LM1027:
 5001 2540 8091 0000 		lds r24,led_frame_bitmap+48
 5002 2544 8695      		lsr r24
 5003 2546 8093 0000 		sts led_frame_bitmap+48,r24
 5004               	.LM1028:
 5005 254a 8091 0000 		lds r24,led_frame_bitmap+49
 5006 254e 8695      		lsr r24
 5007 2550 8093 0000 		sts led_frame_bitmap+49,r24
 5008               	.LM1029:
 5009 2554 8091 0000 		lds r24,led_frame_bitmap+50
 5010 2558 8695      		lsr r24
 5011 255a 8093 0000 		sts led_frame_bitmap+50,r24
 5012               	.LM1030:
 5013 255e 8091 0000 		lds r24,led_frame_bitmap+51
 5014 2562 8695      		lsr r24
 5015 2564 8093 0000 		sts led_frame_bitmap+51,r24
 5016               	.LM1031:
 5017 2568 8091 0000 		lds r24,led_frame_bitmap+52
 5018 256c 8695      		lsr r24
 5019 256e 8093 0000 		sts led_frame_bitmap+52,r24
 5020               	.LM1032:
 5021 2572 8091 0000 		lds r24,led_frame_bitmap+53
 5022 2576 8695      		lsr r24
 5023 2578 8093 0000 		sts led_frame_bitmap+53,r24
 5024               	.LM1033:
 5025 257c 8091 0000 		lds r24,led_frame_bitmap+54
 5026 2580 8695      		lsr r24
 5027 2582 8093 0000 		sts led_frame_bitmap+54,r24
 5028               	.LM1034:
 5029 2586 8091 0000 		lds r24,led_frame_bitmap+55
 5030 258a 8695      		lsr r24
 5031 258c 8093 0000 		sts led_frame_bitmap+55,r24
 5032               	.LM1035:
 5033 2590 8091 0000 		lds r24,led_frame_bitmap+56
 5034 2594 8695      		lsr r24
 5035 2596 8093 0000 		sts led_frame_bitmap+56,r24
 5036               	.LM1036:
 5037 259a 8091 0000 		lds r24,led_frame_bitmap+57
 5038 259e 8695      		lsr r24
 5039 25a0 8093 0000 		sts led_frame_bitmap+57,r24
 5040               	.LM1037:
 5041 25a4 8091 0000 		lds r24,led_frame_bitmap+58
 5042 25a8 8695      		lsr r24
 5043 25aa 8093 0000 		sts led_frame_bitmap+58,r24
 5044               	.LM1038:
 5045 25ae 8091 0000 		lds r24,led_frame_bitmap+59
 5046 25b2 8695      		lsr r24
 5047 25b4 8093 0000 		sts led_frame_bitmap+59,r24
 5048               	.LM1039:
 5049 25b8 8091 0000 		lds r24,led_frame_bitmap+60
 5050 25bc 8695      		lsr r24
 5051 25be 8093 0000 		sts led_frame_bitmap+60,r24
 5052               	.LM1040:
 5053 25c2 FD01      		movw r30,r26
 5054 25c4 FD96      		adiw r30,61
 5055 25c6 8081      		ld r24,Z
 5056 25c8 8695      		lsr r24
 5057 25ca 8083      		st Z,r24
 5058               	.LM1041:
 5059 25cc FD01      		movw r30,r26
 5060 25ce FE96      		adiw r30,62
 5061 25d0 8081      		ld r24,Z
 5062 25d2 8695      		lsr r24
 5063 25d4 8083      		st Z,r24
 5064               	.LM1042:
 5065 25d6 DF96      		adiw r26,63
 5066 25d8 8C91      		ld r24,X
 5067 25da 8695      		lsr r24
 5068 25dc 8C93      		st X,r24
 5069               	/* epilogue start */
 5070               	.LM1043:
 5071 25de 0895      		ret
 5072               	.LFE45:
 5074               	.global	__vector_14
 5076               	__vector_14:
 5077               	.LFB49:
 5078               	.LM1044:
 5079 25e0 1F92      		push __zero_reg__
 5080 25e2 0F92      		push r0
 5081 25e4 0FB6      		in r0,__SREG__
 5082 25e6 0F92      		push r0
 5083 25e8 1124      		clr __zero_reg__
 5084 25ea 2F93      		push r18
 5085 25ec 8F93      		push r24
 5086 25ee 9F93      		push r25
 5087               	/* prologue: Signal */
 5088               	/* frame size = 0 */
 5089               	.LM1045:
 5090 25f0 8091 6200 		lds r24,98
 5091 25f4 8068      		ori r24,lo8(-128)
 5092 25f6 8093 6200 		sts 98,r24
 5093               	.LM1046:
 5094 25fa 8091 0000 		lds r24,flip
 5095 25fe 2091 0000 		lds r18,plane_current
 5096 2602 8823      		tst r24
 5097 2604 01F0      		breq .L296
 5098               	.LM1047:
 5099 2606 80E8      		ldi r24,lo8(128)
 5100 2608 90E0      		ldi r25,hi8(128)
 5101 260a 00C0      		rjmp 2f
 5102 260c 9595      	1:	asr r25
 5103 260e 8795      		ror r24
 5104 2610 2A95      	2:	dec r18
 5105 2612 02F4      		brpl 1b
 5106 2614 00C0      		rjmp .L299
 5107               	.L296:
 5108               	.LM1048:
 5109 2616 81E0      		ldi r24,lo8(1)
 5110 2618 90E0      		ldi r25,hi8(1)
 5111 261a 00C0      		rjmp 2f
 5112 261c 880F      	1:	lsl r24
 5113 261e 991F      		rol r25
 5114 2620 2A95      	2:	dec r18
 5115 2622 02F4      		brpl 1b
 5116               	.L299:
 5117 2624 8095      		com r24
 5118 2626 85BB      		out 53-32,r24
 5119               	.LM1049:
 5120 2628 8091 6200 		lds r24,98
 5121 262c 8F77      		andi r24,lo8(127)
 5122 262e 8093 6200 		sts 98,r24
 5123               	/* epilogue start */
 5124               	.LM1050:
 5125 2632 9F91      		pop r25
 5126 2634 8F91      		pop r24
 5127 2636 2F91      		pop r18
 5128 2638 0F90      		pop r0
 5129 263a 0FBE      		out __SREG__,r0
 5130 263c 0F90      		pop r0
 5131 263e 1F90      		pop __zero_reg__
 5132 2640 1895      		reti
 5133               	.LFE49:
 5135               	.global	__vector_12
 5137               	__vector_12:
 5138               	.LFB48:
 5139               	.LM1051:
 5140 2642 1F92      		push __zero_reg__
 5141 2644 0F92      		push r0
 5142 2646 0FB6      		in r0,__SREG__
 5143 2648 0F92      		push r0
 5144 264a 1124      		clr __zero_reg__
 5145 264c 8F93      		push r24
 5146 264e 9F93      		push r25
 5147 2650 AF93      		push r26
 5148 2652 BF93      		push r27
 5149 2654 CF93      		push r28
 5150 2656 DF93      		push r29
 5151 2658 EF93      		push r30
 5152 265a FF93      		push r31
 5153               	/* prologue: Signal */
 5154               	/* frame size = 0 */
 5155               	.LM1052:
 5156 265c 8091 0000 		lds r24,plane_current
 5157 2660 8730      		cpi r24,lo8(7)
 5158 2662 01F4      		brne .L301
 5159               	.LM1053:
 5160 2664 A0E0      		ldi r26,lo8(output_bitmap)
 5161 2666 B0E0      		ldi r27,hi8(output_bitmap)
 5162 2668 E0E0      		ldi r30,lo8(led_frame_bitmap)
 5163 266a F0E0      		ldi r31,hi8(led_frame_bitmap)
 5164 266c 80E4      		ldi r24,lo8(64)
 5165               	.L302:
 5166 266e 0190      		ld r0,Z+
 5167 2670 0D92      		st X+,r0
 5168 2672 8150      		subi r24,lo8(-(-1))
 5169 2674 01F4      		brne .L302
 5170               	.LM1054:
 5171 2676 A0E0      		ldi r26,lo8(output_plane_period)
 5172 2678 B0E0      		ldi r27,hi8(output_plane_period)
 5173 267a E0E0      		ldi r30,lo8(plane_period)
 5174 267c F0E0      		ldi r31,hi8(plane_period)
 5175 267e 80E1      		ldi r24,lo8(16)
 5176               	.L303:
 5177 2680 0190      		ld r0,Z+
 5178 2682 0D92      		st X+,r0
 5179 2684 8150      		subi r24,lo8(-(-1))
 5180 2686 01F4      		brne .L303
 5181               	.LM1055:
 5182 2688 8091 0000 		lds r24,frame_time
 5183 268c 9091 0000 		lds r25,(frame_time)+1
 5184 2690 9BBD      		out (74)+1-32,r25
 5185 2692 8ABD      		out 74-32,r24
 5186               	.LM1056:
 5187 2694 1092 0000 		sts plane_current,__zero_reg__
 5188               	.LM1057:
 5189 2698 81E0      		ldi r24,lo8(1)
 5190 269a 8093 0000 		sts frame_sync,r24
 5191 269e 00C0      		rjmp .L304
 5192               	.L301:
 5193               	.LM1058:
 5194 26a0 8F5F      		subi r24,lo8(-(1))
 5195 26a2 8093 0000 		sts plane_current,r24
 5196               	.L304:
 5197               	.LM1059:
 5198 26a6 8091 0000 		lds r24,flip
 5199 26aa E091 0000 		lds r30,plane_current
 5200 26ae 8823      		tst r24
 5201 26b0 01F0      		breq .L305
 5202               	.LM1060:
 5203 26b2 F0E0      		ldi r31,lo8(0)
 5204               	.LVL175:
 5205 26b4 A3E0      		ldi r26,3
 5206 26b6 EE0F      	1:	lsl r30
 5207 26b8 FF1F      		rol r31
 5208 26ba AA95      		dec r26
 5209 26bc 01F4      		brne 1b
 5210               	.LVL176:
 5211 26be E050      		subi r30,lo8(-(output_bitmap+7))
 5212 26c0 F040      		sbci r31,hi8(-(output_bitmap+7))
 5213               	.LM1061:
 5214 26c2 8081      		ld r24,Z
 5215 26c4 8FB9      		out 47-32,r24
 5216 26c6 3197      		sbiw r30,1
 5217               	.LVL177:
 5218               	.L306:
 5219               	.LM1062:
 5220 26c8 779B      		sbis 46-32,7
 5221 26ca 00C0      		rjmp .L306
 5222               	.LM1063:
 5223 26cc 8081      		ld r24,Z
 5224 26ce 8FB9      		out 47-32,r24
 5225 26d0 3197      		sbiw r30,1
 5226               	.LVL178:
 5227               	.L307:
 5228               	.LM1064:
 5229 26d2 779B      		sbis 46-32,7
 5230 26d4 00C0      		rjmp .L307
 5231               	.LM1065:
 5232 26d6 8081      		ld r24,Z
 5233 26d8 8FB9      		out 47-32,r24
 5234 26da 3197      		sbiw r30,1
 5235               	.LVL179:
 5236               	.L308:
 5237               	.LM1066:
 5238 26dc 779B      		sbis 46-32,7
 5239 26de 00C0      		rjmp .L308
 5240               	.LM1067:
 5241 26e0 8081      		ld r24,Z
 5242 26e2 8FB9      		out 47-32,r24
 5243 26e4 3197      		sbiw r30,1
 5244               	.LVL180:
 5245               	.L309:
 5246               	.LM1068:
 5247 26e6 779B      		sbis 46-32,7
 5248 26e8 00C0      		rjmp .L309
 5249               	.LM1069:
 5250 26ea 8081      		ld r24,Z
 5251 26ec 8FB9      		out 47-32,r24
 5252 26ee 3197      		sbiw r30,1
 5253               	.LVL181:
 5254               	.L310:
 5255               	.LM1070:
 5256 26f0 779B      		sbis 46-32,7
 5257 26f2 00C0      		rjmp .L310
 5258               	.LM1071:
 5259 26f4 8081      		ld r24,Z
 5260 26f6 8FB9      		out 47-32,r24
 5261 26f8 3197      		sbiw r30,1
 5262               	.LVL182:
 5263               	.L311:
 5264               	.LM1072:
 5265 26fa 779B      		sbis 46-32,7
 5266 26fc 00C0      		rjmp .L311
 5267               	.LM1073:
 5268 26fe 8081      		ld r24,Z
 5269 2700 8FB9      		out 47-32,r24
 5270               	.L312:
 5271               	.LM1074:
 5272 2702 779B      		sbis 46-32,7
 5273 2704 00C0      		rjmp .L312
 5274               	.LM1075:
 5275 2706 3197      		sbiw r30,1
 5276 2708 8081      		ld r24,Z
 5277 270a 8FB9      		out 47-32,r24
 5278               	.L313:
 5279               	.LM1076:
 5280 270c 779B      		sbis 46-32,7
 5281 270e 00C0      		rjmp .L313
 5282 2710 00C0      		rjmp .L314
 5283               	.LVL183:
 5284               	.L305:
 5285               	.LM1077:
 5286 2712 F0E0      		ldi r31,lo8(0)
 5287               	.LVL184:
 5288 2714 93E0      		ldi r25,3
 5289 2716 EE0F      	1:	lsl r30
 5290 2718 FF1F      		rol r31
 5291 271a 9A95      		dec r25
 5292 271c 01F4      		brne 1b
 5293               	.LVL185:
 5294 271e E050      		subi r30,lo8(-(output_bitmap))
 5295 2720 F040      		sbci r31,hi8(-(output_bitmap))
 5296               	.LM1078:
 5297 2722 DF01      		movw r26,r30
 5298 2724 8D91      		ld r24,X+
 5299 2726 8FB9      		out 47-32,r24
 5300               	.LVL186:
 5301               	.L315:
 5302               	.LM1079:
 5303 2728 779B      		sbis 46-32,7
 5304 272a 00C0      		rjmp .L315
 5305               	.LM1080:
 5306 272c 8181      		ldd r24,Z+1
 5307 272e 8FB9      		out 47-32,r24
 5308 2730 ED01      		movw r28,r26
 5309 2732 2196      		adiw r28,1
 5310               	.LVL187:
 5311               	.L316:
 5312               	.LM1081:
 5313 2734 779B      		sbis 46-32,7
 5314 2736 00C0      		rjmp .L316
 5315               	.LM1082:
 5316 2738 1196      		adiw r26,1
 5317 273a 8C91      		ld r24,X
 5318 273c 8FB9      		out 47-32,r24
 5319 273e FE01      		movw r30,r28
 5320 2740 3196      		adiw r30,1
 5321               	.LVL188:
 5322               	.L317:
 5323               	.LM1083:
 5324 2742 779B      		sbis 46-32,7
 5325 2744 00C0      		rjmp .L317
 5326               	.LM1084:
 5327 2746 8981      		ldd r24,Y+1
 5328 2748 8FB9      		out 47-32,r24
 5329 274a DF01      		movw r26,r30
 5330 274c 1196      		adiw r26,1
 5331               	.LVL189:
 5332               	.L318:
 5333               	.LM1085:
 5334 274e 779B      		sbis 46-32,7
 5335 2750 00C0      		rjmp .L318
 5336               	.LM1086:
 5337 2752 8181      		ldd r24,Z+1
 5338 2754 8FB9      		out 47-32,r24
 5339 2756 FD01      		movw r30,r26
 5340 2758 3196      		adiw r30,1
 5341               	.LVL190:
 5342               	.L319:
 5343               	.LM1087:
 5344 275a 779B      		sbis 46-32,7
 5345 275c 00C0      		rjmp .L319
 5346               	.LM1088:
 5347 275e 1196      		adiw r26,1
 5348 2760 8C91      		ld r24,X
 5349 2762 8FB9      		out 47-32,r24
 5350 2764 DF01      		movw r26,r30
 5351 2766 1196      		adiw r26,1
 5352               	.LVL191:
 5353               	.L320:
 5354               	.LM1089:
 5355 2768 779B      		sbis 46-32,7
 5356 276a 00C0      		rjmp .L320
 5357               	.LM1090:
 5358 276c 8181      		ldd r24,Z+1
 5359 276e 8FB9      		out 47-32,r24
 5360               	.LVL192:
 5361               	.L321:
 5362               	.LM1091:
 5363 2770 779B      		sbis 46-32,7
 5364 2772 00C0      		rjmp .L321
 5365               	.LM1092:
 5366 2774 1196      		adiw r26,1
 5367 2776 8C91      		ld r24,X
 5368 2778 8FB9      		out 47-32,r24
 5369               	.LVL193:
 5370               	.L322:
 5371               	.LM1093:
 5372 277a 779B      		sbis 46-32,7
 5373 277c 00C0      		rjmp .L322
 5374               	.LVL194:
 5375               	.L314:
 5376               	.LM1094:
 5377 277e E091 0000 		lds r30,plane_current
 5378               	.LVL195:
 5379 2782 F0E0      		ldi r31,lo8(0)
 5380               	.LVL196:
 5381 2784 EE0F      		lsl r30
 5382 2786 FF1F      		rol r31
 5383 2788 E050      		subi r30,lo8(-(output_plane_period))
 5384 278a F040      		sbci r31,hi8(-(output_plane_period))
 5385 278c 8081      		ld r24,Z
 5386 278e 9181      		ldd r25,Z+1
 5387 2790 99BD      		out (72)+1-32,r25
 5388 2792 88BD      		out 72-32,r24
 5389               	/* epilogue start */
 5390               	.LM1095:
 5391 2794 FF91      		pop r31
 5392 2796 EF91      		pop r30
 5393 2798 DF91      		pop r29
 5394 279a CF91      		pop r28
 5395 279c BF91      		pop r27
 5396 279e AF91      		pop r26
 5397               	.LVL197:
 5398 27a0 9F91      		pop r25
 5399 27a2 8F91      		pop r24
 5400 27a4 0F90      		pop r0
 5401 27a6 0FBE      		out __SREG__,r0
 5402 27a8 0F90      		pop r0
 5403 27aa 1F90      		pop __zero_reg__
 5404 27ac 1895      		reti
 5405               	.LFE48:
 5407               	.global	led_frame_back
 5409               	led_frame_back:
 5410               	.LFB47:
 5411               	.LM1096:
 5412 27ae 0F93      		push r16
 5413 27b0 1F93      		push r17
 5414               	/* prologue: function */
 5415               	/* frame size = 0 */
 5416               	.LM1097:
 5417 27b2 80E0      		ldi r24,lo8(led_frame_bitmap+1)
 5418 27b4 90E0      		ldi r25,hi8(led_frame_bitmap+1)
 5419 27b6 8C01      		movw r16,r24
 5420 27b8 0150      		subi r16,lo8(-(-1))
 5421 27ba 1040      		sbci r17,hi8(-(-1))
 5422 27bc B801      		movw r22,r16
 5423 27be 4FE3      		ldi r20,lo8(63)
 5424 27c0 50E0      		ldi r21,hi8(63)
 5425 27c2 0E94 0000 		call memmove
 5426               	.LM1098:
 5427 27c6 F801      		movw r30,r16
 5428 27c8 1082      		st Z,__zero_reg__
 5429               	.LM1099:
 5430 27ca 1092 0000 		sts led_frame_bitmap+8,__zero_reg__
 5431               	.LM1100:
 5432 27ce 1092 0000 		sts led_frame_bitmap+16,__zero_reg__
 5433               	.LM1101:
 5434 27d2 1092 0000 		sts led_frame_bitmap+24,__zero_reg__
 5435               	.LM1102:
 5436 27d6 1092 0000 		sts led_frame_bitmap+32,__zero_reg__
 5437               	.LM1103:
 5438 27da 1092 0000 		sts led_frame_bitmap+40,__zero_reg__
 5439               	.LM1104:
 5440 27de 1092 0000 		sts led_frame_bitmap+48,__zero_reg__
 5441               	.LM1105:
 5442 27e2 1092 0000 		sts led_frame_bitmap+56,__zero_reg__
 5443               	/* epilogue start */
 5444               	.LM1106:
 5445 27e6 1F91      		pop r17
 5446 27e8 0F91      		pop r16
 5447 27ea 0895      		ret
 5448               	.LFE47:
 5450               	.global	led_frame_forward
 5452               	led_frame_forward:
 5453               	.LFB46:
 5454               	.LM1107:
 5455 27ec 0F93      		push r16
 5456 27ee 1F93      		push r17
 5457               	/* prologue: function */
 5458               	/* frame size = 0 */
 5459               	.LM1108:
 5460 27f0 00E0      		ldi r16,lo8(led_frame_bitmap)
 5461 27f2 10E0      		ldi r17,hi8(led_frame_bitmap)
 5462 27f4 B801      		movw r22,r16
 5463 27f6 6F5F      		subi r22,lo8(-(1))
 5464 27f8 7F4F      		sbci r23,hi8(-(1))
 5465 27fa C801      		movw r24,r16
 5466 27fc 4FE3      		ldi r20,lo8(63)
 5467 27fe 50E0      		ldi r21,hi8(63)
 5468 2800 0E94 0000 		call memmove
 5469               	.LM1109:
 5470 2804 1092 0000 		sts led_frame_bitmap+7,__zero_reg__
 5471               	.LM1110:
 5472 2808 1092 0000 		sts led_frame_bitmap+15,__zero_reg__
 5473               	.LM1111:
 5474 280c 1092 0000 		sts led_frame_bitmap+23,__zero_reg__
 5475               	.LM1112:
 5476 2810 1092 0000 		sts led_frame_bitmap+31,__zero_reg__
 5477               	.LM1113:
 5478 2814 1092 0000 		sts led_frame_bitmap+39,__zero_reg__
 5479               	.LM1114:
 5480 2818 1092 0000 		sts led_frame_bitmap+47,__zero_reg__
 5481               	.LM1115:
 5482 281c 1092 0000 		sts led_frame_bitmap+55,__zero_reg__
 5483               	.LM1116:
 5484 2820 F801      		movw r30,r16
 5485 2822 17AE      		std Z+63,__zero_reg__
 5486               	/* epilogue start */
 5487               	.LM1117:
 5488 2824 1F91      		pop r17
 5489 2826 0F91      		pop r16
 5490 2828 0895      		ret
 5491               	.LFE46:
 5493               	.global	led_plane_y_forward
 5495               	led_plane_y_forward:
 5496               	.LFB25:
 5497               	.LM1118:
 5498               	.LVL198:
 5499 282a 0F93      		push r16
 5500 282c 1F93      		push r17
 5501               	/* prologue: function */
 5502               	/* frame size = 0 */
 5503               	.LM1119:
 5504 282e 880F      		lsl r24
 5505 2830 880F      		lsl r24
 5506 2832 880F      		lsl r24
 5507               	.LVL199:
 5508               	.LM1120:
 5509 2834 90E0      		ldi r25,lo8(0)
 5510 2836 60E0      		ldi r22,lo8(led_frame_bitmap)
 5511 2838 70E0      		ldi r23,hi8(led_frame_bitmap)
 5512 283a 8B01      		movw r16,r22
 5513 283c 080F      		add r16,r24
 5514 283e 191F      		adc r17,r25
 5515               	.LVL200:
 5516 2840 0196      		adiw r24,1
 5517 2842 680F      		add r22,r24
 5518 2844 791F      		adc r23,r25
 5519 2846 C801      		movw r24,r16
 5520 2848 47E0      		ldi r20,lo8(7)
 5521 284a 50E0      		ldi r21,hi8(7)
 5522 284c 0E94 0000 		call memmove
 5523               	.LM1121:
 5524 2850 F801      		movw r30,r16
 5525 2852 1782      		std Z+7,__zero_reg__
 5526               	/* epilogue start */
 5527               	.LM1122:
 5528 2854 1F91      		pop r17
 5529 2856 0F91      		pop r16
 5530 2858 0895      		ret
 5531               	.LFE25:
 5533               	.global	led_plane_y_back
 5535               	led_plane_y_back:
 5536               	.LFB24:
 5537               	.LM1123:
 5538               	.LVL201:
 5539 285a 0F93      		push r16
 5540 285c 1F93      		push r17
 5541               	/* prologue: function */
 5542               	/* frame size = 0 */
 5543               	.LM1124:
 5544 285e 880F      		lsl r24
 5545 2860 880F      		lsl r24
 5546 2862 880F      		lsl r24
 5547               	.LVL202:
 5548               	.LM1125:
 5549 2864 90E0      		ldi r25,lo8(0)
 5550 2866 20E0      		ldi r18,lo8(led_frame_bitmap)
 5551 2868 30E0      		ldi r19,hi8(led_frame_bitmap)
 5552 286a 8901      		movw r16,r18
 5553 286c 080F      		add r16,r24
 5554 286e 191F      		adc r17,r25
 5555               	.LVL203:
 5556 2870 0196      		adiw r24,1
 5557 2872 820F      		add r24,r18
 5558 2874 931F      		adc r25,r19
 5559 2876 B801      		movw r22,r16
 5560 2878 47E0      		ldi r20,lo8(7)
 5561 287a 50E0      		ldi r21,hi8(7)
 5562 287c 0E94 0000 		call memmove
 5563               	.LM1126:
 5564 2880 F801      		movw r30,r16
 5565 2882 1082      		st Z,__zero_reg__
 5566               	/* epilogue start */
 5567               	.LM1127:
 5568 2884 1F91      		pop r17
 5569 2886 0F91      		pop r16
 5570 2888 0895      		ret
 5571               	.LFE24:
 5573               	.global	led_perimeter_down
 5575               	led_perimeter_down:
 5576               	.LFB39:
 5577               	.LM1128:
 5578 288a 0F93      		push r16
 5579 288c 1F93      		push r17
 5580               	/* prologue: function */
 5581               	/* frame size = 0 */
 5582               	.LM1129:
 5583 288e 0091 0000 		lds r16,led_frame_bitmap+63
 5584               	.LVL204:
 5585               	.LM1130:
 5586 2892 87E0      		ldi r24,lo8(7)
 5587 2894 0E94 0000 		call led_plane_y_back
 5588               	.LM1131:
 5589 2898 80E0      		ldi r24,lo8(0)
 5590 289a 0E94 0000 		call led_plane_z_down
 5591               	.LM1132:
 5592 289e 80E0      		ldi r24,lo8(0)
 5593 28a0 0E94 0000 		call led_plane_y_forward
 5594               	.LM1133:
 5595 28a4 1091 0000 		lds r17,led_frame_bitmap+63
 5596               	.LVL205:
 5597               	.LM1134:
 5598 28a8 87E0      		ldi r24,lo8(7)
 5599 28aa 0E94 0000 		call led_plane_z_up
 5600               	.LM1135:
 5601 28ae 1093 0000 		sts led_frame_bitmap+63,r17
 5602               	.LM1136:
 5603 28b2 0093 0000 		sts led_frame_bitmap+55,r16
 5604               	/* epilogue start */
 5605               	.LM1137:
 5606 28b6 1F91      		pop r17
 5607               	.LVL206:
 5608 28b8 0F91      		pop r16
 5609               	.LVL207:
 5610 28ba 0895      		ret
 5611               	.LFE39:
 5613               	.global	led_perimeter_up
 5615               	led_perimeter_up:
 5616               	.LFB38:
 5617               	.LM1138:
 5618 28bc 0F93      		push r16
 5619 28be 1F93      		push r17
 5620               	/* prologue: function */
 5621               	/* frame size = 0 */
 5622               	.LM1139:
 5623 28c0 0091 0000 		lds r16,led_frame_bitmap+7
 5624               	.LVL208:
 5625               	.LM1140:
 5626 28c4 80E0      		ldi r24,lo8(0)
 5627 28c6 0E94 0000 		call led_plane_y_back
 5628               	.LM1141:
 5629 28ca 80E0      		ldi r24,lo8(0)
 5630 28cc 0E94 0000 		call led_plane_z_up
 5631               	.LM1142:
 5632 28d0 87E0      		ldi r24,lo8(7)
 5633 28d2 0E94 0000 		call led_plane_y_forward
 5634               	.LM1143:
 5635 28d6 1091 0000 		lds r17,led_frame_bitmap+7
 5636               	.LVL209:
 5637               	.LM1144:
 5638 28da 87E0      		ldi r24,lo8(7)
 5639 28dc 0E94 0000 		call led_plane_z_down
 5640               	.LM1145:
 5641 28e0 1093 0000 		sts led_frame_bitmap+7,r17
 5642               	.LM1146:
 5643 28e4 0093 0000 		sts led_frame_bitmap+15,r16
 5644               	/* epilogue start */
 5645               	.LM1147:
 5646 28e8 1F91      		pop r17
 5647               	.LVL210:
 5648 28ea 0F91      		pop r16
 5649               	.LVL211:
 5650 28ec 0895      		ret
 5651               	.LFE38:
 5653               	.global	led_frame_up
 5655               	led_frame_up:
 5656               	.LFB43:
 5657               	.LM1148:
 5658 28ee 0F93      		push r16
 5659 28f0 1F93      		push r17
 5660               	/* prologue: function */
 5661               	/* frame size = 0 */
 5662               	.LM1149:
 5663 28f2 00E0      		ldi r16,lo8(led_frame_bitmap)
 5664 28f4 10E0      		ldi r17,hi8(led_frame_bitmap)
 5665 28f6 C801      		movw r24,r16
 5666 28f8 085F      		subi r16,lo8(-(8))
 5667 28fa 1F4F      		sbci r17,hi8(-(8))
 5668 28fc B801      		movw r22,r16
 5669 28fe 48E3      		ldi r20,lo8(56)
 5670 2900 50E0      		ldi r21,hi8(56)
 5671 2902 0E94 0000 		call memmove
 5672               	.LM1150:
 5673 2906 005D      		subi r16,lo8(-(48))
 5674 2908 1F4F      		sbci r17,hi8(-(48))
 5675 290a 88E0      		ldi r24,lo8(8)
 5676 290c F801      		movw r30,r16
 5677 290e 1192      		st Z+,__zero_reg__
 5678 2910 8A95      	        dec r24
 5679 2912 01F4      		brne .-6
 5680               	/* epilogue start */
 5681               	.LM1151:
 5682 2914 1F91      		pop r17
 5683 2916 0F91      		pop r16
 5684 2918 0895      		ret
 5685               	.LFE43:
 5687               	.global	led_frame_down
 5689               	led_frame_down:
 5690               	.LFB42:
 5691               	.LM1152:
 5692 291a 0F93      		push r16
 5693 291c 1F93      		push r17
 5694               	/* prologue: function */
 5695               	/* frame size = 0 */
 5696               	.LM1153:
 5697 291e 80E0      		ldi r24,lo8(led_frame_bitmap+8)
 5698 2920 90E0      		ldi r25,hi8(led_frame_bitmap+8)
 5699 2922 8C01      		movw r16,r24
 5700 2924 0850      		subi r16,lo8(-(-8))
 5701 2926 1040      		sbci r17,hi8(-(-8))
 5702 2928 B801      		movw r22,r16
 5703 292a 48E3      		ldi r20,lo8(56)
 5704 292c 50E0      		ldi r21,hi8(56)
 5705 292e 0E94 0000 		call memmove
 5706               	.LM1154:
 5707 2932 88E0      		ldi r24,lo8(8)
 5708 2934 F801      		movw r30,r16
 5709 2936 1192      		st Z+,__zero_reg__
 5710 2938 8A95      	        dec r24
 5711 293a 01F4      		brne .-6
 5712               	/* epilogue start */
 5713               	.LM1155:
 5714 293c 1F91      		pop r17
 5715 293e 0F91      		pop r16
 5716 2940 0895      		ret
 5717               	.LFE42:
 5719               	.global	led_perimeter_anticlockwise
 5721               	led_perimeter_anticlockwise:
 5722               	.LFB41:
 5723               	.LM1156:
 5724 2942 DF93      		push r29
 5725 2944 CF93      		push r28
 5726 2946 CDB7      		in r28,__SP_L__
 5727 2948 DEB7      		in r29,__SP_H__
 5728 294a 6097      		sbiw r28,16
 5729 294c 0FB6      		in __tmp_reg__,__SREG__
 5730 294e F894      		cli
 5731 2950 DEBF      		out __SP_H__,r29
 5732 2952 0FBE      		out __SREG__,__tmp_reg__
 5733 2954 CDBF      		out __SP_L__,r28
 5734               	/* prologue: function */
 5735               	/* frame size = 16 */
 5736               	.LM1157:
 5737 2956 88E0      		ldi r24,lo8(8)
 5738 2958 FE01      		movw r30,r28
 5739 295a 3196      		adiw r30,1
 5740 295c DF01      		movw r26,r30
 5741 295e 982F      		mov r25,r24
 5742 2960 1D92      		st X+,__zero_reg__
 5743 2962 9A95      	        dec r25
 5744 2964 01F4      		brne .-6
 5745               	.LM1158:
 5746 2966 FE01      		movw r30,r28
 5747 2968 3996      		adiw r30,9
 5748 296a DF01      		movw r26,r30
 5749 296c 1D92      		st X+,__zero_reg__
 5750 296e 8A95      	        dec r24
 5751 2970 01F4      		brne .-6
 5752               	.LM1159:
 5753 2972 8091 0000 		lds r24,led_frame_bitmap
 5754 2976 87FF      		sbrs r24,7
 5755 2978 00C0      		rjmp .L359
 5756               	.LM1160:
 5757 297a 81E0      		ldi r24,lo8(1)
 5758 297c 8983      		std Y+1,r24
 5759               	.L359:
 5760               	.LM1161:
 5761 297e 8091 0000 		lds r24,led_frame_bitmap+1
 5762 2982 87FF      		sbrs r24,7
 5763 2984 00C0      		rjmp .L360
 5764               	.LM1162:
 5765 2986 81E0      		ldi r24,lo8(1)
 5766 2988 8A83      		std Y+2,r24
 5767               	.L360:
 5768               	.LM1163:
 5769 298a 8091 0000 		lds r24,led_frame_bitmap+2
 5770 298e 87FF      		sbrs r24,7
 5771 2990 00C0      		rjmp .L361
 5772               	.LM1164:
 5773 2992 81E0      		ldi r24,lo8(1)
 5774 2994 8B83      		std Y+3,r24
 5775               	.L361:
 5776               	.LM1165:
 5777 2996 8091 0000 		lds r24,led_frame_bitmap+3
 5778 299a 87FF      		sbrs r24,7
 5779 299c 00C0      		rjmp .L362
 5780               	.LM1166:
 5781 299e 81E0      		ldi r24,lo8(1)
 5782 29a0 8C83      		std Y+4,r24
 5783               	.L362:
 5784               	.LM1167:
 5785 29a2 8091 0000 		lds r24,led_frame_bitmap+4
 5786 29a6 87FF      		sbrs r24,7
 5787 29a8 00C0      		rjmp .L363
 5788               	.LM1168:
 5789 29aa 81E0      		ldi r24,lo8(1)
 5790 29ac 8D83      		std Y+5,r24
 5791               	.L363:
 5792               	.LM1169:
 5793 29ae 8091 0000 		lds r24,led_frame_bitmap+5
 5794 29b2 87FF      		sbrs r24,7
 5795 29b4 00C0      		rjmp .L364
 5796               	.LM1170:
 5797 29b6 81E0      		ldi r24,lo8(1)
 5798 29b8 8E83      		std Y+6,r24
 5799               	.L364:
 5800               	.LM1171:
 5801 29ba 8091 0000 		lds r24,led_frame_bitmap+6
 5802 29be 87FF      		sbrs r24,7
 5803 29c0 00C0      		rjmp .L365
 5804               	.LM1172:
 5805 29c2 81E0      		ldi r24,lo8(1)
 5806 29c4 8F83      		std Y+7,r24
 5807               	.L365:
 5808               	.LM1173:
 5809 29c6 8091 0000 		lds r24,led_frame_bitmap+7
 5810 29ca 87FF      		sbrs r24,7
 5811 29cc 00C0      		rjmp .L366
 5812               	.LM1174:
 5813 29ce 81E0      		ldi r24,lo8(1)
 5814 29d0 8887      		std Y+8,r24
 5815               	.L366:
 5816               	.LM1175:
 5817 29d2 80E0      		ldi r24,lo8(0)
 5818 29d4 0E94 0000 		call led_plane_y_left
 5819               	.LM1176:
 5820 29d8 87E0      		ldi r24,lo8(7)
 5821 29da 0E94 0000 		call led_plane_x_up
 5822               	.LM1177:
 5823 29de 87E0      		ldi r24,lo8(7)
 5824 29e0 0E94 0000 		call led_plane_y_right
 5825               	.LM1178:
 5826 29e4 8091 0000 		lds r24,led_frame_bitmap
 5827 29e8 87FF      		sbrs r24,7
 5828 29ea 00C0      		rjmp .L367
 5829               	.LM1179:
 5830 29ec 81E0      		ldi r24,lo8(1)
 5831 29ee 8987      		std Y+9,r24
 5832               	.L367:
 5833               	.LM1180:
 5834 29f0 8091 0000 		lds r24,led_frame_bitmap+1
 5835 29f4 87FF      		sbrs r24,7
 5836 29f6 00C0      		rjmp .L368
 5837               	.LM1181:
 5838 29f8 81E0      		ldi r24,lo8(1)
 5839 29fa 8A87      		std Y+10,r24
 5840               	.L368:
 5841               	.LM1182:
 5842 29fc 8091 0000 		lds r24,led_frame_bitmap+2
 5843 2a00 87FF      		sbrs r24,7
 5844 2a02 00C0      		rjmp .L369
 5845               	.LM1183:
 5846 2a04 81E0      		ldi r24,lo8(1)
 5847 2a06 8B87      		std Y+11,r24
 5848               	.L369:
 5849               	.LM1184:
 5850 2a08 8091 0000 		lds r24,led_frame_bitmap+3
 5851 2a0c 87FF      		sbrs r24,7
 5852 2a0e 00C0      		rjmp .L370
 5853               	.LM1185:
 5854 2a10 81E0      		ldi r24,lo8(1)
 5855 2a12 8C87      		std Y+12,r24
 5856               	.L370:
 5857               	.LM1186:
 5858 2a14 8091 0000 		lds r24,led_frame_bitmap+4
 5859 2a18 87FF      		sbrs r24,7
 5860 2a1a 00C0      		rjmp .L371
 5861               	.LM1187:
 5862 2a1c 81E0      		ldi r24,lo8(1)
 5863 2a1e 8D87      		std Y+13,r24
 5864               	.L371:
 5865               	.LM1188:
 5866 2a20 8091 0000 		lds r24,led_frame_bitmap+5
 5867 2a24 87FF      		sbrs r24,7
 5868 2a26 00C0      		rjmp .L372
 5869               	.LM1189:
 5870 2a28 81E0      		ldi r24,lo8(1)
 5871 2a2a 8E87      		std Y+14,r24
 5872               	.L372:
 5873               	.LM1190:
 5874 2a2c 8091 0000 		lds r24,led_frame_bitmap+6
 5875 2a30 87FF      		sbrs r24,7
 5876 2a32 00C0      		rjmp .L373
 5877               	.LM1191:
 5878 2a34 81E0      		ldi r24,lo8(1)
 5879 2a36 8F87      		std Y+15,r24
 5880               	.L373:
 5881               	.LM1192:
 5882 2a38 8091 0000 		lds r24,led_frame_bitmap+7
 5883 2a3c 87FF      		sbrs r24,7
 5884 2a3e 00C0      		rjmp .L374
 5885               	.LM1193:
 5886 2a40 81E0      		ldi r24,lo8(1)
 5887 2a42 888B      		std Y+16,r24
 5888               	.L374:
 5889               	.LM1194:
 5890 2a44 80E0      		ldi r24,lo8(0)
 5891 2a46 0E94 0000 		call led_plane_x_down
 5892               	.LM1195:
 5893 2a4a 8985      		ldd r24,Y+9
 5894 2a4c 8823      		tst r24
 5895 2a4e 01F0      		breq .L375
 5896               	.LM1196:
 5897 2a50 8091 0000 		lds r24,led_frame_bitmap
 5898 2a54 8068      		ori r24,lo8(-128)
 5899 2a56 8093 0000 		sts led_frame_bitmap,r24
 5900               	.L375:
 5901               	.LM1197:
 5902 2a5a 8A85      		ldd r24,Y+10
 5903 2a5c 8823      		tst r24
 5904 2a5e 01F0      		breq .L376
 5905               	.LM1198:
 5906 2a60 8091 0000 		lds r24,led_frame_bitmap+1
 5907 2a64 8068      		ori r24,lo8(-128)
 5908 2a66 8093 0000 		sts led_frame_bitmap+1,r24
 5909               	.L376:
 5910               	.LM1199:
 5911 2a6a 8B85      		ldd r24,Y+11
 5912 2a6c 8823      		tst r24
 5913 2a6e 01F0      		breq .L377
 5914               	.LM1200:
 5915 2a70 8091 0000 		lds r24,led_frame_bitmap+2
 5916 2a74 8068      		ori r24,lo8(-128)
 5917 2a76 8093 0000 		sts led_frame_bitmap+2,r24
 5918               	.L377:
 5919               	.LM1201:
 5920 2a7a 8C85      		ldd r24,Y+12
 5921 2a7c 8823      		tst r24
 5922 2a7e 01F0      		breq .L378
 5923               	.LM1202:
 5924 2a80 8091 0000 		lds r24,led_frame_bitmap+3
 5925 2a84 8068      		ori r24,lo8(-128)
 5926 2a86 8093 0000 		sts led_frame_bitmap+3,r24
 5927               	.L378:
 5928               	.LM1203:
 5929 2a8a 8D85      		ldd r24,Y+13
 5930 2a8c 8823      		tst r24
 5931 2a8e 01F0      		breq .L379
 5932               	.LM1204:
 5933 2a90 8091 0000 		lds r24,led_frame_bitmap+4
 5934 2a94 8068      		ori r24,lo8(-128)
 5935 2a96 8093 0000 		sts led_frame_bitmap+4,r24
 5936               	.L379:
 5937               	.LM1205:
 5938 2a9a 8E85      		ldd r24,Y+14
 5939 2a9c 8823      		tst r24
 5940 2a9e 01F0      		breq .L380
 5941               	.LM1206:
 5942 2aa0 8091 0000 		lds r24,led_frame_bitmap+5
 5943 2aa4 8068      		ori r24,lo8(-128)
 5944 2aa6 8093 0000 		sts led_frame_bitmap+5,r24
 5945               	.L380:
 5946               	.LM1207:
 5947 2aaa 8F85      		ldd r24,Y+15
 5948 2aac 8823      		tst r24
 5949 2aae 01F0      		breq .L381
 5950               	.LM1208:
 5951 2ab0 8091 0000 		lds r24,led_frame_bitmap+6
 5952 2ab4 8068      		ori r24,lo8(-128)
 5953 2ab6 8093 0000 		sts led_frame_bitmap+6,r24
 5954               	.L381:
 5955               	.LM1209:
 5956 2aba 8889      		ldd r24,Y+16
 5957 2abc 8823      		tst r24
 5958 2abe 01F0      		breq .L382
 5959               	.LM1210:
 5960 2ac0 8091 0000 		lds r24,led_frame_bitmap+7
 5961 2ac4 8068      		ori r24,lo8(-128)
 5962 2ac6 8093 0000 		sts led_frame_bitmap+7,r24
 5963               	.L382:
 5964               	.LM1211:
 5965 2aca 9091 0000 		lds r25,led_frame_bitmap+8
 5966 2ace 9F77      		andi r25,lo8(127)
 5967 2ad0 9093 0000 		sts led_frame_bitmap+8,r25
 5968               	.LM1212:
 5969 2ad4 8091 0000 		lds r24,led_frame_bitmap+9
 5970 2ad8 8F77      		andi r24,lo8(127)
 5971 2ada 8093 0000 		sts led_frame_bitmap+9,r24
 5972               	.LM1213:
 5973 2ade 8091 0000 		lds r24,led_frame_bitmap+10
 5974 2ae2 8F77      		andi r24,lo8(127)
 5975 2ae4 8093 0000 		sts led_frame_bitmap+10,r24
 5976               	.LM1214:
 5977 2ae8 8091 0000 		lds r24,led_frame_bitmap+11
 5978 2aec 8F77      		andi r24,lo8(127)
 5979 2aee 8093 0000 		sts led_frame_bitmap+11,r24
 5980               	.LM1215:
 5981 2af2 8091 0000 		lds r24,led_frame_bitmap+12
 5982 2af6 8F77      		andi r24,lo8(127)
 5983 2af8 8093 0000 		sts led_frame_bitmap+12,r24
 5984               	.LM1216:
 5985 2afc 8091 0000 		lds r24,led_frame_bitmap+13
 5986 2b00 8F77      		andi r24,lo8(127)
 5987 2b02 8093 0000 		sts led_frame_bitmap+13,r24
 5988               	.LM1217:
 5989 2b06 8091 0000 		lds r24,led_frame_bitmap+14
 5990 2b0a 8F77      		andi r24,lo8(127)
 5991 2b0c 8093 0000 		sts led_frame_bitmap+14,r24
 5992               	.LM1218:
 5993 2b10 8091 0000 		lds r24,led_frame_bitmap+15
 5994 2b14 8F77      		andi r24,lo8(127)
 5995 2b16 8093 0000 		sts led_frame_bitmap+15,r24
 5996               	.LM1219:
 5997 2b1a 8981      		ldd r24,Y+1
 5998 2b1c 8823      		tst r24
 5999 2b1e 01F0      		breq .L383
 6000               	.LM1220:
 6001 2b20 9068      		ori r25,lo8(-128)
 6002 2b22 9093 0000 		sts led_frame_bitmap+8,r25
 6003               	.L383:
 6004               	.LM1221:
 6005 2b26 8A81      		ldd r24,Y+2
 6006 2b28 8823      		tst r24
 6007 2b2a 01F0      		breq .L384
 6008               	.LM1222:
 6009 2b2c 8091 0000 		lds r24,led_frame_bitmap+9
 6010 2b30 8068      		ori r24,lo8(-128)
 6011 2b32 8093 0000 		sts led_frame_bitmap+9,r24
 6012               	.L384:
 6013               	.LM1223:
 6014 2b36 8B81      		ldd r24,Y+3
 6015 2b38 8823      		tst r24
 6016 2b3a 01F0      		breq .L385
 6017               	.LM1224:
 6018 2b3c 8091 0000 		lds r24,led_frame_bitmap+10
 6019 2b40 8068      		ori r24,lo8(-128)
 6020 2b42 8093 0000 		sts led_frame_bitmap+10,r24
 6021               	.L385:
 6022               	.LM1225:
 6023 2b46 8C81      		ldd r24,Y+4
 6024 2b48 8823      		tst r24
 6025 2b4a 01F0      		breq .L386
 6026               	.LM1226:
 6027 2b4c 8091 0000 		lds r24,led_frame_bitmap+11
 6028 2b50 8068      		ori r24,lo8(-128)
 6029 2b52 8093 0000 		sts led_frame_bitmap+11,r24
 6030               	.L386:
 6031               	.LM1227:
 6032 2b56 8D81      		ldd r24,Y+5
 6033 2b58 8823      		tst r24
 6034 2b5a 01F0      		breq .L387
 6035               	.LM1228:
 6036 2b5c 8091 0000 		lds r24,led_frame_bitmap+12
 6037 2b60 8068      		ori r24,lo8(-128)
 6038 2b62 8093 0000 		sts led_frame_bitmap+12,r24
 6039               	.L387:
 6040               	.LM1229:
 6041 2b66 8E81      		ldd r24,Y+6
 6042 2b68 8823      		tst r24
 6043 2b6a 01F0      		breq .L388
 6044               	.LM1230:
 6045 2b6c 8091 0000 		lds r24,led_frame_bitmap+13
 6046 2b70 8068      		ori r24,lo8(-128)
 6047 2b72 8093 0000 		sts led_frame_bitmap+13,r24
 6048               	.L388:
 6049               	.LM1231:
 6050 2b76 8F81      		ldd r24,Y+7
 6051 2b78 8823      		tst r24
 6052 2b7a 01F0      		breq .L389
 6053               	.LM1232:
 6054 2b7c 8091 0000 		lds r24,led_frame_bitmap+14
 6055 2b80 8068      		ori r24,lo8(-128)
 6056 2b82 8093 0000 		sts led_frame_bitmap+14,r24
 6057               	.L389:
 6058               	.LM1233:
 6059 2b86 8885      		ldd r24,Y+8
 6060 2b88 8823      		tst r24
 6061 2b8a 01F0      		breq .L391
 6062               	.LM1234:
 6063 2b8c 8091 0000 		lds r24,led_frame_bitmap+15
 6064 2b90 8068      		ori r24,lo8(-128)
 6065 2b92 8093 0000 		sts led_frame_bitmap+15,r24
 6066               	.L391:
 6067               	/* epilogue start */
 6068               	.LM1235:
 6069 2b96 6096      		adiw r28,16
 6070 2b98 0FB6      		in __tmp_reg__,__SREG__
 6071 2b9a F894      		cli
 6072 2b9c DEBF      		out __SP_H__,r29
 6073 2b9e 0FBE      		out __SREG__,__tmp_reg__
 6074 2ba0 CDBF      		out __SP_L__,r28
 6075 2ba2 CF91      		pop r28
 6076 2ba4 DF91      		pop r29
 6077 2ba6 0895      		ret
 6078               	.LFE41:
 6080               	.global	led_perimeter_clockwise
 6082               	led_perimeter_clockwise:
 6083               	.LFB40:
 6084               	.LM1236:
 6085 2ba8 DF93      		push r29
 6086 2baa CF93      		push r28
 6087 2bac CDB7      		in r28,__SP_L__
 6088 2bae DEB7      		in r29,__SP_H__
 6089 2bb0 6097      		sbiw r28,16
 6090 2bb2 0FB6      		in __tmp_reg__,__SREG__
 6091 2bb4 F894      		cli
 6092 2bb6 DEBF      		out __SP_H__,r29
 6093 2bb8 0FBE      		out __SREG__,__tmp_reg__
 6094 2bba CDBF      		out __SP_L__,r28
 6095               	/* prologue: function */
 6096               	/* frame size = 16 */
 6097               	.LM1237:
 6098 2bbc 88E0      		ldi r24,lo8(8)
 6099 2bbe FE01      		movw r30,r28
 6100 2bc0 3196      		adiw r30,1
 6101 2bc2 DF01      		movw r26,r30
 6102 2bc4 982F      		mov r25,r24
 6103 2bc6 1D92      		st X+,__zero_reg__
 6104 2bc8 9A95      	        dec r25
 6105 2bca 01F4      		brne .-6
 6106               	.LM1238:
 6107 2bcc FE01      		movw r30,r28
 6108 2bce 3996      		adiw r30,9
 6109 2bd0 DF01      		movw r26,r30
 6110 2bd2 1D92      		st X+,__zero_reg__
 6111 2bd4 8A95      	        dec r24
 6112 2bd6 01F4      		brne .-6
 6113               	.LM1239:
 6114 2bd8 8091 0000 		lds r24,led_frame_bitmap
 6115 2bdc 80FF      		sbrs r24,0
 6116 2bde 00C0      		rjmp .L393
 6117               	.LM1240:
 6118 2be0 81E0      		ldi r24,lo8(1)
 6119 2be2 8983      		std Y+1,r24
 6120               	.L393:
 6121               	.LM1241:
 6122 2be4 8091 0000 		lds r24,led_frame_bitmap+1
 6123 2be8 80FF      		sbrs r24,0
 6124 2bea 00C0      		rjmp .L394
 6125               	.LM1242:
 6126 2bec 81E0      		ldi r24,lo8(1)
 6127 2bee 8A83      		std Y+2,r24
 6128               	.L394:
 6129               	.LM1243:
 6130 2bf0 8091 0000 		lds r24,led_frame_bitmap+2
 6131 2bf4 80FF      		sbrs r24,0
 6132 2bf6 00C0      		rjmp .L395
 6133               	.LM1244:
 6134 2bf8 81E0      		ldi r24,lo8(1)
 6135 2bfa 8B83      		std Y+3,r24
 6136               	.L395:
 6137               	.LM1245:
 6138 2bfc 8091 0000 		lds r24,led_frame_bitmap+3
 6139 2c00 80FF      		sbrs r24,0
 6140 2c02 00C0      		rjmp .L396
 6141               	.LM1246:
 6142 2c04 81E0      		ldi r24,lo8(1)
 6143 2c06 8C83      		std Y+4,r24
 6144               	.L396:
 6145               	.LM1247:
 6146 2c08 8091 0000 		lds r24,led_frame_bitmap+4
 6147 2c0c 80FF      		sbrs r24,0
 6148 2c0e 00C0      		rjmp .L397
 6149               	.LM1248:
 6150 2c10 81E0      		ldi r24,lo8(1)
 6151 2c12 8D83      		std Y+5,r24
 6152               	.L397:
 6153               	.LM1249:
 6154 2c14 8091 0000 		lds r24,led_frame_bitmap+5
 6155 2c18 80FF      		sbrs r24,0
 6156 2c1a 00C0      		rjmp .L398
 6157               	.LM1250:
 6158 2c1c 81E0      		ldi r24,lo8(1)
 6159 2c1e 8E83      		std Y+6,r24
 6160               	.L398:
 6161               	.LM1251:
 6162 2c20 8091 0000 		lds r24,led_frame_bitmap+6
 6163 2c24 80FF      		sbrs r24,0
 6164 2c26 00C0      		rjmp .L399
 6165               	.LM1252:
 6166 2c28 81E0      		ldi r24,lo8(1)
 6167 2c2a 8F83      		std Y+7,r24
 6168               	.L399:
 6169               	.LM1253:
 6170 2c2c 8091 0000 		lds r24,led_frame_bitmap+7
 6171 2c30 80FF      		sbrs r24,0
 6172 2c32 00C0      		rjmp .L400
 6173               	.LM1254:
 6174 2c34 81E0      		ldi r24,lo8(1)
 6175 2c36 8887      		std Y+8,r24
 6176               	.L400:
 6177               	.LM1255:
 6178 2c38 80E0      		ldi r24,lo8(0)
 6179 2c3a 0E94 0000 		call led_plane_y_right
 6180               	.LM1256:
 6181 2c3e 80E0      		ldi r24,lo8(0)
 6182 2c40 0E94 0000 		call led_plane_x_up
 6183               	.LM1257:
 6184 2c44 87E0      		ldi r24,lo8(7)
 6185 2c46 0E94 0000 		call led_plane_y_left
 6186               	.LM1258:
 6187 2c4a 8091 0000 		lds r24,led_frame_bitmap
 6188 2c4e 80FF      		sbrs r24,0
 6189 2c50 00C0      		rjmp .L401
 6190               	.LM1259:
 6191 2c52 81E0      		ldi r24,lo8(1)
 6192 2c54 8987      		std Y+9,r24
 6193               	.L401:
 6194               	.LM1260:
 6195 2c56 8091 0000 		lds r24,led_frame_bitmap+1
 6196 2c5a 80FF      		sbrs r24,0
 6197 2c5c 00C0      		rjmp .L402
 6198               	.LM1261:
 6199 2c5e 81E0      		ldi r24,lo8(1)
 6200 2c60 8A87      		std Y+10,r24
 6201               	.L402:
 6202               	.LM1262:
 6203 2c62 8091 0000 		lds r24,led_frame_bitmap+2
 6204 2c66 80FF      		sbrs r24,0
 6205 2c68 00C0      		rjmp .L403
 6206               	.LM1263:
 6207 2c6a 81E0      		ldi r24,lo8(1)
 6208 2c6c 8B87      		std Y+11,r24
 6209               	.L403:
 6210               	.LM1264:
 6211 2c6e 8091 0000 		lds r24,led_frame_bitmap+3
 6212 2c72 80FF      		sbrs r24,0
 6213 2c74 00C0      		rjmp .L404
 6214               	.LM1265:
 6215 2c76 81E0      		ldi r24,lo8(1)
 6216 2c78 8C87      		std Y+12,r24
 6217               	.L404:
 6218               	.LM1266:
 6219 2c7a 8091 0000 		lds r24,led_frame_bitmap+4
 6220 2c7e 80FF      		sbrs r24,0
 6221 2c80 00C0      		rjmp .L405
 6222               	.LM1267:
 6223 2c82 81E0      		ldi r24,lo8(1)
 6224 2c84 8D87      		std Y+13,r24
 6225               	.L405:
 6226               	.LM1268:
 6227 2c86 8091 0000 		lds r24,led_frame_bitmap+5
 6228 2c8a 80FF      		sbrs r24,0
 6229 2c8c 00C0      		rjmp .L406
 6230               	.LM1269:
 6231 2c8e 81E0      		ldi r24,lo8(1)
 6232 2c90 8E87      		std Y+14,r24
 6233               	.L406:
 6234               	.LM1270:
 6235 2c92 8091 0000 		lds r24,led_frame_bitmap+6
 6236 2c96 80FF      		sbrs r24,0
 6237 2c98 00C0      		rjmp .L407
 6238               	.LM1271:
 6239 2c9a 81E0      		ldi r24,lo8(1)
 6240 2c9c 8F87      		std Y+15,r24
 6241               	.L407:
 6242               	.LM1272:
 6243 2c9e 8091 0000 		lds r24,led_frame_bitmap+7
 6244 2ca2 80FF      		sbrs r24,0
 6245 2ca4 00C0      		rjmp .L408
 6246               	.LM1273:
 6247 2ca6 81E0      		ldi r24,lo8(1)
 6248 2ca8 888B      		std Y+16,r24
 6249               	.L408:
 6250               	.LM1274:
 6251 2caa 87E0      		ldi r24,lo8(7)
 6252 2cac 0E94 0000 		call led_plane_x_down
 6253               	.LM1275:
 6254 2cb0 8985      		ldd r24,Y+9
 6255 2cb2 8823      		tst r24
 6256 2cb4 01F0      		breq .L409
 6257               	.LM1276:
 6258 2cb6 8091 0000 		lds r24,led_frame_bitmap
 6259 2cba 8160      		ori r24,lo8(1)
 6260 2cbc 8093 0000 		sts led_frame_bitmap,r24
 6261               	.L409:
 6262               	.LM1277:
 6263 2cc0 8A85      		ldd r24,Y+10
 6264 2cc2 8823      		tst r24
 6265 2cc4 01F0      		breq .L410
 6266               	.LM1278:
 6267 2cc6 8091 0000 		lds r24,led_frame_bitmap+1
 6268 2cca 8160      		ori r24,lo8(1)
 6269 2ccc 8093 0000 		sts led_frame_bitmap+1,r24
 6270               	.L410:
 6271               	.LM1279:
 6272 2cd0 8B85      		ldd r24,Y+11
 6273 2cd2 8823      		tst r24
 6274 2cd4 01F0      		breq .L411
 6275               	.LM1280:
 6276 2cd6 8091 0000 		lds r24,led_frame_bitmap+2
 6277 2cda 8160      		ori r24,lo8(1)
 6278 2cdc 8093 0000 		sts led_frame_bitmap+2,r24
 6279               	.L411:
 6280               	.LM1281:
 6281 2ce0 8C85      		ldd r24,Y+12
 6282 2ce2 8823      		tst r24
 6283 2ce4 01F0      		breq .L412
 6284               	.LM1282:
 6285 2ce6 8091 0000 		lds r24,led_frame_bitmap+3
 6286 2cea 8160      		ori r24,lo8(1)
 6287 2cec 8093 0000 		sts led_frame_bitmap+3,r24
 6288               	.L412:
 6289               	.LM1283:
 6290 2cf0 8D85      		ldd r24,Y+13
 6291 2cf2 8823      		tst r24
 6292 2cf4 01F0      		breq .L413
 6293               	.LM1284:
 6294 2cf6 8091 0000 		lds r24,led_frame_bitmap+4
 6295 2cfa 8160      		ori r24,lo8(1)
 6296 2cfc 8093 0000 		sts led_frame_bitmap+4,r24
 6297               	.L413:
 6298               	.LM1285:
 6299 2d00 8E85      		ldd r24,Y+14
 6300 2d02 8823      		tst r24
 6301 2d04 01F0      		breq .L414
 6302               	.LM1286:
 6303 2d06 8091 0000 		lds r24,led_frame_bitmap+5
 6304 2d0a 8160      		ori r24,lo8(1)
 6305 2d0c 8093 0000 		sts led_frame_bitmap+5,r24
 6306               	.L414:
 6307               	.LM1287:
 6308 2d10 8F85      		ldd r24,Y+15
 6309 2d12 8823      		tst r24
 6310 2d14 01F0      		breq .L415
 6311               	.LM1288:
 6312 2d16 8091 0000 		lds r24,led_frame_bitmap+6
 6313 2d1a 8160      		ori r24,lo8(1)
 6314 2d1c 8093 0000 		sts led_frame_bitmap+6,r24
 6315               	.L415:
 6316               	.LM1289:
 6317 2d20 8889      		ldd r24,Y+16
 6318 2d22 8823      		tst r24
 6319 2d24 01F0      		breq .L416
 6320               	.LM1290:
 6321 2d26 8091 0000 		lds r24,led_frame_bitmap+7
 6322 2d2a 8160      		ori r24,lo8(1)
 6323 2d2c 8093 0000 		sts led_frame_bitmap+7,r24
 6324               	.L416:
 6325               	.LM1291:
 6326 2d30 9091 0000 		lds r25,led_frame_bitmap+8
 6327 2d34 9E7F      		andi r25,lo8(-2)
 6328 2d36 9093 0000 		sts led_frame_bitmap+8,r25
 6329               	.LM1292:
 6330 2d3a 8091 0000 		lds r24,led_frame_bitmap+9
 6331 2d3e 8E7F      		andi r24,lo8(-2)
 6332 2d40 8093 0000 		sts led_frame_bitmap+9,r24
 6333               	.LM1293:
 6334 2d44 8091 0000 		lds r24,led_frame_bitmap+10
 6335 2d48 8E7F      		andi r24,lo8(-2)
 6336 2d4a 8093 0000 		sts led_frame_bitmap+10,r24
 6337               	.LM1294:
 6338 2d4e 8091 0000 		lds r24,led_frame_bitmap+11
 6339 2d52 8E7F      		andi r24,lo8(-2)
 6340 2d54 8093 0000 		sts led_frame_bitmap+11,r24
 6341               	.LM1295:
 6342 2d58 8091 0000 		lds r24,led_frame_bitmap+12
 6343 2d5c 8E7F      		andi r24,lo8(-2)
 6344 2d5e 8093 0000 		sts led_frame_bitmap+12,r24
 6345               	.LM1296:
 6346 2d62 8091 0000 		lds r24,led_frame_bitmap+13
 6347 2d66 8E7F      		andi r24,lo8(-2)
 6348 2d68 8093 0000 		sts led_frame_bitmap+13,r24
 6349               	.LM1297:
 6350 2d6c 8091 0000 		lds r24,led_frame_bitmap+14
 6351 2d70 8E7F      		andi r24,lo8(-2)
 6352 2d72 8093 0000 		sts led_frame_bitmap+14,r24
 6353               	.LM1298:
 6354 2d76 8091 0000 		lds r24,led_frame_bitmap+15
 6355 2d7a 8E7F      		andi r24,lo8(-2)
 6356 2d7c 8093 0000 		sts led_frame_bitmap+15,r24
 6357               	.LM1299:
 6358 2d80 8981      		ldd r24,Y+1
 6359 2d82 8823      		tst r24
 6360 2d84 01F0      		breq .L417
 6361               	.LM1300:
 6362 2d86 9160      		ori r25,lo8(1)
 6363 2d88 9093 0000 		sts led_frame_bitmap+8,r25
 6364               	.L417:
 6365               	.LM1301:
 6366 2d8c 8A81      		ldd r24,Y+2
 6367 2d8e 8823      		tst r24
 6368 2d90 01F0      		breq .L418
 6369               	.LM1302:
 6370 2d92 8091 0000 		lds r24,led_frame_bitmap+9
 6371 2d96 8160      		ori r24,lo8(1)
 6372 2d98 8093 0000 		sts led_frame_bitmap+9,r24
 6373               	.L418:
 6374               	.LM1303:
 6375 2d9c 8B81      		ldd r24,Y+3
 6376 2d9e 8823      		tst r24
 6377 2da0 01F0      		breq .L419
 6378               	.LM1304:
 6379 2da2 8091 0000 		lds r24,led_frame_bitmap+10
 6380 2da6 8160      		ori r24,lo8(1)
 6381 2da8 8093 0000 		sts led_frame_bitmap+10,r24
 6382               	.L419:
 6383               	.LM1305:
 6384 2dac 8C81      		ldd r24,Y+4
 6385 2dae 8823      		tst r24
 6386 2db0 01F0      		breq .L420
 6387               	.LM1306:
 6388 2db2 8091 0000 		lds r24,led_frame_bitmap+11
 6389 2db6 8160      		ori r24,lo8(1)
 6390 2db8 8093 0000 		sts led_frame_bitmap+11,r24
 6391               	.L420:
 6392               	.LM1307:
 6393 2dbc 8D81      		ldd r24,Y+5
 6394 2dbe 8823      		tst r24
 6395 2dc0 01F0      		breq .L421
 6396               	.LM1308:
 6397 2dc2 8091 0000 		lds r24,led_frame_bitmap+12
 6398 2dc6 8160      		ori r24,lo8(1)
 6399 2dc8 8093 0000 		sts led_frame_bitmap+12,r24
 6400               	.L421:
 6401               	.LM1309:
 6402 2dcc 8E81      		ldd r24,Y+6
 6403 2dce 8823      		tst r24
 6404 2dd0 01F0      		breq .L422
 6405               	.LM1310:
 6406 2dd2 8091 0000 		lds r24,led_frame_bitmap+13
 6407 2dd6 8160      		ori r24,lo8(1)
 6408 2dd8 8093 0000 		sts led_frame_bitmap+13,r24
 6409               	.L422:
 6410               	.LM1311:
 6411 2ddc 8F81      		ldd r24,Y+7
 6412 2dde 8823      		tst r24
 6413 2de0 01F0      		breq .L423
 6414               	.LM1312:
 6415 2de2 8091 0000 		lds r24,led_frame_bitmap+14
 6416 2de6 8160      		ori r24,lo8(1)
 6417 2de8 8093 0000 		sts led_frame_bitmap+14,r24
 6418               	.L423:
 6419               	.LM1313:
 6420 2dec 8885      		ldd r24,Y+8
 6421 2dee 8823      		tst r24
 6422 2df0 01F0      		breq .L425
 6423               	.LM1314:
 6424 2df2 8091 0000 		lds r24,led_frame_bitmap+15
 6425 2df6 8160      		ori r24,lo8(1)
 6426 2df8 8093 0000 		sts led_frame_bitmap+15,r24
 6427               	.L425:
 6428               	/* epilogue start */
 6429               	.LM1315:
 6430 2dfc 6096      		adiw r28,16
 6431 2dfe 0FB6      		in __tmp_reg__,__SREG__
 6432 2e00 F894      		cli
 6433 2e02 DEBF      		out __SP_H__,r29
 6434 2e04 0FBE      		out __SREG__,__tmp_reg__
 6435 2e06 CDBF      		out __SP_L__,r28
 6436 2e08 CF91      		pop r28
 6437 2e0a DF91      		pop r29
 6438 2e0c 0895      		ret
 6439               	.LFE40:
 6441               	.global	led_perimeter_right
 6443               	led_perimeter_right:
 6444               	.LFB37:
 6445               	.LM1316:
 6446 2e0e DF93      		push r29
 6447 2e10 CF93      		push r28
 6448 2e12 CDB7      		in r28,__SP_L__
 6449 2e14 DEB7      		in r29,__SP_H__
 6450 2e16 6097      		sbiw r28,16
 6451 2e18 0FB6      		in __tmp_reg__,__SREG__
 6452 2e1a F894      		cli
 6453 2e1c DEBF      		out __SP_H__,r29
 6454 2e1e 0FBE      		out __SREG__,__tmp_reg__
 6455 2e20 CDBF      		out __SP_L__,r28
 6456               	/* prologue: function */
 6457               	/* frame size = 16 */
 6458               	.LM1317:
 6459 2e22 88E0      		ldi r24,lo8(8)
 6460 2e24 FE01      		movw r30,r28
 6461 2e26 3196      		adiw r30,1
 6462 2e28 DF01      		movw r26,r30
 6463 2e2a 982F      		mov r25,r24
 6464 2e2c 1D92      		st X+,__zero_reg__
 6465 2e2e 9A95      	        dec r25
 6466 2e30 01F4      		brne .-6
 6467               	.LM1318:
 6468 2e32 FE01      		movw r30,r28
 6469 2e34 3996      		adiw r30,9
 6470 2e36 DF01      		movw r26,r30
 6471 2e38 1D92      		st X+,__zero_reg__
 6472 2e3a 8A95      	        dec r24
 6473 2e3c 01F4      		brne .-6
 6474               	.LM1319:
 6475 2e3e 8091 0000 		lds r24,led_frame_bitmap+7
 6476 2e42 87FF      		sbrs r24,7
 6477 2e44 00C0      		rjmp .L427
 6478               	.LM1320:
 6479 2e46 81E0      		ldi r24,lo8(1)
 6480 2e48 8983      		std Y+1,r24
 6481               	.L427:
 6482               	.LM1321:
 6483 2e4a 8091 0000 		lds r24,led_frame_bitmap+15
 6484 2e4e 87FF      		sbrs r24,7
 6485 2e50 00C0      		rjmp .L428
 6486               	.LM1322:
 6487 2e52 81E0      		ldi r24,lo8(1)
 6488 2e54 8A83      		std Y+2,r24
 6489               	.L428:
 6490               	.LM1323:
 6491 2e56 8091 0000 		lds r24,led_frame_bitmap+23
 6492 2e5a 87FF      		sbrs r24,7
 6493 2e5c 00C0      		rjmp .L429
 6494               	.LM1324:
 6495 2e5e 81E0      		ldi r24,lo8(1)
 6496 2e60 8B83      		std Y+3,r24
 6497               	.L429:
 6498               	.LM1325:
 6499 2e62 8091 0000 		lds r24,led_frame_bitmap+31
 6500 2e66 87FF      		sbrs r24,7
 6501 2e68 00C0      		rjmp .L430
 6502               	.LM1326:
 6503 2e6a 81E0      		ldi r24,lo8(1)
 6504 2e6c 8C83      		std Y+4,r24
 6505               	.L430:
 6506               	.LM1327:
 6507 2e6e 8091 0000 		lds r24,led_frame_bitmap+39
 6508 2e72 87FF      		sbrs r24,7
 6509 2e74 00C0      		rjmp .L431
 6510               	.LM1328:
 6511 2e76 81E0      		ldi r24,lo8(1)
 6512 2e78 8D83      		std Y+5,r24
 6513               	.L431:
 6514               	.LM1329:
 6515 2e7a 8091 0000 		lds r24,led_frame_bitmap+47
 6516 2e7e 87FF      		sbrs r24,7
 6517 2e80 00C0      		rjmp .L432
 6518               	.LM1330:
 6519 2e82 81E0      		ldi r24,lo8(1)
 6520 2e84 8E83      		std Y+6,r24
 6521               	.L432:
 6522               	.LM1331:
 6523 2e86 8091 0000 		lds r24,led_frame_bitmap+55
 6524 2e8a 87FF      		sbrs r24,7
 6525 2e8c 00C0      		rjmp .L433
 6526               	.LM1332:
 6527 2e8e 81E0      		ldi r24,lo8(1)
 6528 2e90 8F83      		std Y+7,r24
 6529               	.L433:
 6530               	.LM1333:
 6531 2e92 8091 0000 		lds r24,led_frame_bitmap+63
 6532 2e96 87FF      		sbrs r24,7
 6533 2e98 00C0      		rjmp .L434
 6534               	.LM1334:
 6535 2e9a 81E0      		ldi r24,lo8(1)
 6536 2e9c 8887      		std Y+8,r24
 6537               	.L434:
 6538               	.LM1335:
 6539 2e9e 87E0      		ldi r24,lo8(7)
 6540 2ea0 0E94 0000 		call led_plane_z_left
 6541               	.LM1336:
 6542 2ea4 87E0      		ldi r24,lo8(7)
 6543 2ea6 0E94 0000 		call led_plane_x_back
 6544               	.LM1337:
 6545 2eaa 80E0      		ldi r24,lo8(0)
 6546 2eac 0E94 0000 		call led_plane_z_right
 6547               	.LM1338:
 6548 2eb0 8091 0000 		lds r24,led_frame_bitmap+7
 6549 2eb4 87FF      		sbrs r24,7
 6550 2eb6 00C0      		rjmp .L435
 6551               	.LM1339:
 6552 2eb8 81E0      		ldi r24,lo8(1)
 6553 2eba 8987      		std Y+9,r24
 6554               	.L435:
 6555               	.LM1340:
 6556 2ebc 8091 0000 		lds r24,led_frame_bitmap+15
 6557 2ec0 87FF      		sbrs r24,7
 6558 2ec2 00C0      		rjmp .L436
 6559               	.LM1341:
 6560 2ec4 81E0      		ldi r24,lo8(1)
 6561 2ec6 8A87      		std Y+10,r24
 6562               	.L436:
 6563               	.LM1342:
 6564 2ec8 8091 0000 		lds r24,led_frame_bitmap+23
 6565 2ecc 87FF      		sbrs r24,7
 6566 2ece 00C0      		rjmp .L437
 6567               	.LM1343:
 6568 2ed0 81E0      		ldi r24,lo8(1)
 6569 2ed2 8B87      		std Y+11,r24
 6570               	.L437:
 6571               	.LM1344:
 6572 2ed4 8091 0000 		lds r24,led_frame_bitmap+31
 6573 2ed8 87FF      		sbrs r24,7
 6574 2eda 00C0      		rjmp .L438
 6575               	.LM1345:
 6576 2edc 81E0      		ldi r24,lo8(1)
 6577 2ede 8C87      		std Y+12,r24
 6578               	.L438:
 6579               	.LM1346:
 6580 2ee0 8091 0000 		lds r24,led_frame_bitmap+39
 6581 2ee4 87FF      		sbrs r24,7
 6582 2ee6 00C0      		rjmp .L439
 6583               	.LM1347:
 6584 2ee8 81E0      		ldi r24,lo8(1)
 6585 2eea 8D87      		std Y+13,r24
 6586               	.L439:
 6587               	.LM1348:
 6588 2eec 8091 0000 		lds r24,led_frame_bitmap+47
 6589 2ef0 87FF      		sbrs r24,7
 6590 2ef2 00C0      		rjmp .L440
 6591               	.LM1349:
 6592 2ef4 81E0      		ldi r24,lo8(1)
 6593 2ef6 8E87      		std Y+14,r24
 6594               	.L440:
 6595               	.LM1350:
 6596 2ef8 8091 0000 		lds r24,led_frame_bitmap+55
 6597 2efc 87FF      		sbrs r24,7
 6598 2efe 00C0      		rjmp .L441
 6599               	.LM1351:
 6600 2f00 81E0      		ldi r24,lo8(1)
 6601 2f02 8F87      		std Y+15,r24
 6602               	.L441:
 6603               	.LM1352:
 6604 2f04 8091 0000 		lds r24,led_frame_bitmap+63
 6605 2f08 87FF      		sbrs r24,7
 6606 2f0a 00C0      		rjmp .L442
 6607               	.LM1353:
 6608 2f0c 81E0      		ldi r24,lo8(1)
 6609 2f0e 888B      		std Y+16,r24
 6610               	.L442:
 6611               	.LM1354:
 6612 2f10 80E0      		ldi r24,lo8(0)
 6613 2f12 0E94 0000 		call led_plane_x_forward
 6614               	.LM1355:
 6615 2f16 8985      		ldd r24,Y+9
 6616 2f18 8823      		tst r24
 6617 2f1a 01F0      		breq .L443
 6618               	.LM1356:
 6619 2f1c 8091 0000 		lds r24,led_frame_bitmap+7
 6620 2f20 8068      		ori r24,lo8(-128)
 6621 2f22 8093 0000 		sts led_frame_bitmap+7,r24
 6622               	.L443:
 6623               	.LM1357:
 6624 2f26 8A85      		ldd r24,Y+10
 6625 2f28 8823      		tst r24
 6626 2f2a 01F0      		breq .L444
 6627               	.LM1358:
 6628 2f2c 8091 0000 		lds r24,led_frame_bitmap+15
 6629 2f30 8068      		ori r24,lo8(-128)
 6630 2f32 8093 0000 		sts led_frame_bitmap+15,r24
 6631               	.L444:
 6632               	.LM1359:
 6633 2f36 8B85      		ldd r24,Y+11
 6634 2f38 8823      		tst r24
 6635 2f3a 01F0      		breq .L445
 6636               	.LM1360:
 6637 2f3c 8091 0000 		lds r24,led_frame_bitmap+23
 6638 2f40 8068      		ori r24,lo8(-128)
 6639 2f42 8093 0000 		sts led_frame_bitmap+23,r24
 6640               	.L445:
 6641               	.LM1361:
 6642 2f46 8C85      		ldd r24,Y+12
 6643 2f48 8823      		tst r24
 6644 2f4a 01F0      		breq .L446
 6645               	.LM1362:
 6646 2f4c 8091 0000 		lds r24,led_frame_bitmap+31
 6647 2f50 8068      		ori r24,lo8(-128)
 6648 2f52 8093 0000 		sts led_frame_bitmap+31,r24
 6649               	.L446:
 6650               	.LM1363:
 6651 2f56 8D85      		ldd r24,Y+13
 6652 2f58 8823      		tst r24
 6653 2f5a 01F0      		breq .L447
 6654               	.LM1364:
 6655 2f5c 8091 0000 		lds r24,led_frame_bitmap+39
 6656 2f60 8068      		ori r24,lo8(-128)
 6657 2f62 8093 0000 		sts led_frame_bitmap+39,r24
 6658               	.L447:
 6659               	.LM1365:
 6660 2f66 8E85      		ldd r24,Y+14
 6661 2f68 8823      		tst r24
 6662 2f6a 01F0      		breq .L448
 6663               	.LM1366:
 6664 2f6c 8091 0000 		lds r24,led_frame_bitmap+47
 6665 2f70 8068      		ori r24,lo8(-128)
 6666 2f72 8093 0000 		sts led_frame_bitmap+47,r24
 6667               	.L448:
 6668               	.LM1367:
 6669 2f76 8F85      		ldd r24,Y+15
 6670 2f78 8823      		tst r24
 6671 2f7a 01F0      		breq .L449
 6672               	.LM1368:
 6673 2f7c 8091 0000 		lds r24,led_frame_bitmap+55
 6674 2f80 8068      		ori r24,lo8(-128)
 6675 2f82 8093 0000 		sts led_frame_bitmap+55,r24
 6676               	.L449:
 6677               	.LM1369:
 6678 2f86 8889      		ldd r24,Y+16
 6679 2f88 8823      		tst r24
 6680 2f8a 01F0      		breq .L450
 6681               	.LM1370:
 6682 2f8c 8091 0000 		lds r24,led_frame_bitmap+63
 6683 2f90 8068      		ori r24,lo8(-128)
 6684 2f92 8093 0000 		sts led_frame_bitmap+63,r24
 6685               	.L450:
 6686               	.LM1371:
 6687 2f96 9091 0000 		lds r25,led_frame_bitmap+6
 6688 2f9a 9F77      		andi r25,lo8(127)
 6689 2f9c 9093 0000 		sts led_frame_bitmap+6,r25
 6690               	.LM1372:
 6691 2fa0 8091 0000 		lds r24,led_frame_bitmap+14
 6692 2fa4 8F77      		andi r24,lo8(127)
 6693 2fa6 8093 0000 		sts led_frame_bitmap+14,r24
 6694               	.LM1373:
 6695 2faa 8091 0000 		lds r24,led_frame_bitmap+22
 6696 2fae 8F77      		andi r24,lo8(127)
 6697 2fb0 8093 0000 		sts led_frame_bitmap+22,r24
 6698               	.LM1374:
 6699 2fb4 8091 0000 		lds r24,led_frame_bitmap+30
 6700 2fb8 8F77      		andi r24,lo8(127)
 6701 2fba 8093 0000 		sts led_frame_bitmap+30,r24
 6702               	.LM1375:
 6703 2fbe 8091 0000 		lds r24,led_frame_bitmap+38
 6704 2fc2 8F77      		andi r24,lo8(127)
 6705 2fc4 8093 0000 		sts led_frame_bitmap+38,r24
 6706               	.LM1376:
 6707 2fc8 8091 0000 		lds r24,led_frame_bitmap+46
 6708 2fcc 8F77      		andi r24,lo8(127)
 6709 2fce 8093 0000 		sts led_frame_bitmap+46,r24
 6710               	.LM1377:
 6711 2fd2 8091 0000 		lds r24,led_frame_bitmap+54
 6712 2fd6 8F77      		andi r24,lo8(127)
 6713 2fd8 8093 0000 		sts led_frame_bitmap+54,r24
 6714               	.LM1378:
 6715 2fdc 8091 0000 		lds r24,led_frame_bitmap+62
 6716 2fe0 8F77      		andi r24,lo8(127)
 6717 2fe2 8093 0000 		sts led_frame_bitmap+62,r24
 6718               	.LM1379:
 6719 2fe6 8981      		ldd r24,Y+1
 6720 2fe8 8823      		tst r24
 6721 2fea 01F0      		breq .L451
 6722               	.LM1380:
 6723 2fec 9068      		ori r25,lo8(-128)
 6724 2fee 9093 0000 		sts led_frame_bitmap+6,r25
 6725               	.L451:
 6726               	.LM1381:
 6727 2ff2 8A81      		ldd r24,Y+2
 6728 2ff4 8823      		tst r24
 6729 2ff6 01F0      		breq .L452
 6730               	.LM1382:
 6731 2ff8 8091 0000 		lds r24,led_frame_bitmap+14
 6732 2ffc 8068      		ori r24,lo8(-128)
 6733 2ffe 8093 0000 		sts led_frame_bitmap+14,r24
 6734               	.L452:
 6735               	.LM1383:
 6736 3002 8B81      		ldd r24,Y+3
 6737 3004 8823      		tst r24
 6738 3006 01F0      		breq .L453
 6739               	.LM1384:
 6740 3008 8091 0000 		lds r24,led_frame_bitmap+22
 6741 300c 8068      		ori r24,lo8(-128)
 6742 300e 8093 0000 		sts led_frame_bitmap+22,r24
 6743               	.L453:
 6744               	.LM1385:
 6745 3012 8C81      		ldd r24,Y+4
 6746 3014 8823      		tst r24
 6747 3016 01F0      		breq .L454
 6748               	.LM1386:
 6749 3018 8091 0000 		lds r24,led_frame_bitmap+30
 6750 301c 8068      		ori r24,lo8(-128)
 6751 301e 8093 0000 		sts led_frame_bitmap+30,r24
 6752               	.L454:
 6753               	.LM1387:
 6754 3022 8D81      		ldd r24,Y+5
 6755 3024 8823      		tst r24
 6756 3026 01F0      		breq .L455
 6757               	.LM1388:
 6758 3028 8091 0000 		lds r24,led_frame_bitmap+38
 6759 302c 8068      		ori r24,lo8(-128)
 6760 302e 8093 0000 		sts led_frame_bitmap+38,r24
 6761               	.L455:
 6762               	.LM1389:
 6763 3032 8E81      		ldd r24,Y+6
 6764 3034 8823      		tst r24
 6765 3036 01F0      		breq .L456
 6766               	.LM1390:
 6767 3038 8091 0000 		lds r24,led_frame_bitmap+46
 6768 303c 8068      		ori r24,lo8(-128)
 6769 303e 8093 0000 		sts led_frame_bitmap+46,r24
 6770               	.L456:
 6771               	.LM1391:
 6772 3042 8F81      		ldd r24,Y+7
 6773 3044 8823      		tst r24
 6774 3046 01F0      		breq .L457
 6775               	.LM1392:
 6776 3048 8091 0000 		lds r24,led_frame_bitmap+54
 6777 304c 8068      		ori r24,lo8(-128)
 6778 304e 8093 0000 		sts led_frame_bitmap+54,r24
 6779               	.L457:
 6780               	.LM1393:
 6781 3052 8885      		ldd r24,Y+8
 6782 3054 8823      		tst r24
 6783 3056 01F0      		breq .L459
 6784               	.LM1394:
 6785 3058 8091 0000 		lds r24,led_frame_bitmap+62
 6786 305c 8068      		ori r24,lo8(-128)
 6787 305e 8093 0000 		sts led_frame_bitmap+62,r24
 6788               	.L459:
 6789               	/* epilogue start */
 6790               	.LM1395:
 6791 3062 6096      		adiw r28,16
 6792 3064 0FB6      		in __tmp_reg__,__SREG__
 6793 3066 F894      		cli
 6794 3068 DEBF      		out __SP_H__,r29
 6795 306a 0FBE      		out __SREG__,__tmp_reg__
 6796 306c CDBF      		out __SP_L__,r28
 6797 306e CF91      		pop r28
 6798 3070 DF91      		pop r29
 6799 3072 0895      		ret
 6800               	.LFE37:
 6802               	.global	led_perimeter_left
 6804               	led_perimeter_left:
 6805               	.LFB36:
 6806               	.LM1396:
 6807 3074 DF93      		push r29
 6808 3076 CF93      		push r28
 6809 3078 CDB7      		in r28,__SP_L__
 6810 307a DEB7      		in r29,__SP_H__
 6811 307c 6097      		sbiw r28,16
 6812 307e 0FB6      		in __tmp_reg__,__SREG__
 6813 3080 F894      		cli
 6814 3082 DEBF      		out __SP_H__,r29
 6815 3084 0FBE      		out __SREG__,__tmp_reg__
 6816 3086 CDBF      		out __SP_L__,r28
 6817               	/* prologue: function */
 6818               	/* frame size = 16 */
 6819               	.LM1397:
 6820 3088 88E0      		ldi r24,lo8(8)
 6821 308a FE01      		movw r30,r28
 6822 308c 3196      		adiw r30,1
 6823 308e DF01      		movw r26,r30
 6824 3090 982F      		mov r25,r24
 6825 3092 1D92      		st X+,__zero_reg__
 6826 3094 9A95      	        dec r25
 6827 3096 01F4      		brne .-6
 6828               	.LM1398:
 6829 3098 FE01      		movw r30,r28
 6830 309a 3996      		adiw r30,9
 6831 309c DF01      		movw r26,r30
 6832 309e 1D92      		st X+,__zero_reg__
 6833 30a0 8A95      	        dec r24
 6834 30a2 01F4      		brne .-6
 6835               	.LM1399:
 6836 30a4 8091 0000 		lds r24,led_frame_bitmap+7
 6837 30a8 80FF      		sbrs r24,0
 6838 30aa 00C0      		rjmp .L461
 6839               	.LM1400:
 6840 30ac 81E0      		ldi r24,lo8(1)
 6841 30ae 8983      		std Y+1,r24
 6842               	.L461:
 6843               	.LM1401:
 6844 30b0 8091 0000 		lds r24,led_frame_bitmap+15
 6845 30b4 80FF      		sbrs r24,0
 6846 30b6 00C0      		rjmp .L462
 6847               	.LM1402:
 6848 30b8 81E0      		ldi r24,lo8(1)
 6849 30ba 8A83      		std Y+2,r24
 6850               	.L462:
 6851               	.LM1403:
 6852 30bc 8091 0000 		lds r24,led_frame_bitmap+23
 6853 30c0 80FF      		sbrs r24,0
 6854 30c2 00C0      		rjmp .L463
 6855               	.LM1404:
 6856 30c4 81E0      		ldi r24,lo8(1)
 6857 30c6 8B83      		std Y+3,r24
 6858               	.L463:
 6859               	.LM1405:
 6860 30c8 8091 0000 		lds r24,led_frame_bitmap+31
 6861 30cc 80FF      		sbrs r24,0
 6862 30ce 00C0      		rjmp .L464
 6863               	.LM1406:
 6864 30d0 81E0      		ldi r24,lo8(1)
 6865 30d2 8C83      		std Y+4,r24
 6866               	.L464:
 6867               	.LM1407:
 6868 30d4 8091 0000 		lds r24,led_frame_bitmap+39
 6869 30d8 80FF      		sbrs r24,0
 6870 30da 00C0      		rjmp .L465
 6871               	.LM1408:
 6872 30dc 81E0      		ldi r24,lo8(1)
 6873 30de 8D83      		std Y+5,r24
 6874               	.L465:
 6875               	.LM1409:
 6876 30e0 8091 0000 		lds r24,led_frame_bitmap+47
 6877 30e4 80FF      		sbrs r24,0
 6878 30e6 00C0      		rjmp .L466
 6879               	.LM1410:
 6880 30e8 81E0      		ldi r24,lo8(1)
 6881 30ea 8E83      		std Y+6,r24
 6882               	.L466:
 6883               	.LM1411:
 6884 30ec 8091 0000 		lds r24,led_frame_bitmap+55
 6885 30f0 80FF      		sbrs r24,0
 6886 30f2 00C0      		rjmp .L467
 6887               	.LM1412:
 6888 30f4 81E0      		ldi r24,lo8(1)
 6889 30f6 8F83      		std Y+7,r24
 6890               	.L467:
 6891               	.LM1413:
 6892 30f8 8091 0000 		lds r24,led_frame_bitmap+63
 6893 30fc 80FF      		sbrs r24,0
 6894 30fe 00C0      		rjmp .L468
 6895               	.LM1414:
 6896 3100 81E0      		ldi r24,lo8(1)
 6897 3102 8887      		std Y+8,r24
 6898               	.L468:
 6899               	.LM1415:
 6900 3104 87E0      		ldi r24,lo8(7)
 6901 3106 0E94 0000 		call led_plane_z_right
 6902               	.LM1416:
 6903 310a 80E0      		ldi r24,lo8(0)
 6904 310c 0E94 0000 		call led_plane_x_back
 6905               	.LM1417:
 6906 3110 80E0      		ldi r24,lo8(0)
 6907 3112 0E94 0000 		call led_plane_z_left
 6908               	.LM1418:
 6909 3116 8091 0000 		lds r24,led_frame_bitmap+7
 6910 311a 80FF      		sbrs r24,0
 6911 311c 00C0      		rjmp .L469
 6912               	.LM1419:
 6913 311e 81E0      		ldi r24,lo8(1)
 6914 3120 8987      		std Y+9,r24
 6915               	.L469:
 6916               	.LM1420:
 6917 3122 8091 0000 		lds r24,led_frame_bitmap+15
 6918 3126 80FF      		sbrs r24,0
 6919 3128 00C0      		rjmp .L470
 6920               	.LM1421:
 6921 312a 81E0      		ldi r24,lo8(1)
 6922 312c 8A87      		std Y+10,r24
 6923               	.L470:
 6924               	.LM1422:
 6925 312e 8091 0000 		lds r24,led_frame_bitmap+23
 6926 3132 80FF      		sbrs r24,0
 6927 3134 00C0      		rjmp .L471
 6928               	.LM1423:
 6929 3136 81E0      		ldi r24,lo8(1)
 6930 3138 8B87      		std Y+11,r24
 6931               	.L471:
 6932               	.LM1424:
 6933 313a 8091 0000 		lds r24,led_frame_bitmap+31
 6934 313e 80FF      		sbrs r24,0
 6935 3140 00C0      		rjmp .L472
 6936               	.LM1425:
 6937 3142 81E0      		ldi r24,lo8(1)
 6938 3144 8C87      		std Y+12,r24
 6939               	.L472:
 6940               	.LM1426:
 6941 3146 8091 0000 		lds r24,led_frame_bitmap+39
 6942 314a 80FF      		sbrs r24,0
 6943 314c 00C0      		rjmp .L473
 6944               	.LM1427:
 6945 314e 81E0      		ldi r24,lo8(1)
 6946 3150 8D87      		std Y+13,r24
 6947               	.L473:
 6948               	.LM1428:
 6949 3152 8091 0000 		lds r24,led_frame_bitmap+47
 6950 3156 80FF      		sbrs r24,0
 6951 3158 00C0      		rjmp .L474
 6952               	.LM1429:
 6953 315a 81E0      		ldi r24,lo8(1)
 6954 315c 8E87      		std Y+14,r24
 6955               	.L474:
 6956               	.LM1430:
 6957 315e 8091 0000 		lds r24,led_frame_bitmap+55
 6958 3162 80FF      		sbrs r24,0
 6959 3164 00C0      		rjmp .L475
 6960               	.LM1431:
 6961 3166 81E0      		ldi r24,lo8(1)
 6962 3168 8F87      		std Y+15,r24
 6963               	.L475:
 6964               	.LM1432:
 6965 316a 8091 0000 		lds r24,led_frame_bitmap+63
 6966 316e 80FF      		sbrs r24,0
 6967 3170 00C0      		rjmp .L476
 6968               	.LM1433:
 6969 3172 81E0      		ldi r24,lo8(1)
 6970 3174 888B      		std Y+16,r24
 6971               	.L476:
 6972               	.LM1434:
 6973 3176 87E0      		ldi r24,lo8(7)
 6974 3178 0E94 0000 		call led_plane_x_forward
 6975               	.LM1435:
 6976 317c 8985      		ldd r24,Y+9
 6977 317e 8823      		tst r24
 6978 3180 01F0      		breq .L477
 6979               	.LM1436:
 6980 3182 8091 0000 		lds r24,led_frame_bitmap+7
 6981 3186 8160      		ori r24,lo8(1)
 6982 3188 8093 0000 		sts led_frame_bitmap+7,r24
 6983               	.L477:
 6984               	.LM1437:
 6985 318c 8A85      		ldd r24,Y+10
 6986 318e 8823      		tst r24
 6987 3190 01F0      		breq .L478
 6988               	.LM1438:
 6989 3192 8091 0000 		lds r24,led_frame_bitmap+15
 6990 3196 8160      		ori r24,lo8(1)
 6991 3198 8093 0000 		sts led_frame_bitmap+15,r24
 6992               	.L478:
 6993               	.LM1439:
 6994 319c 8B85      		ldd r24,Y+11
 6995 319e 8823      		tst r24
 6996 31a0 01F0      		breq .L479
 6997               	.LM1440:
 6998 31a2 8091 0000 		lds r24,led_frame_bitmap+23
 6999 31a6 8160      		ori r24,lo8(1)
 7000 31a8 8093 0000 		sts led_frame_bitmap+23,r24
 7001               	.L479:
 7002               	.LM1441:
 7003 31ac 8C85      		ldd r24,Y+12
 7004 31ae 8823      		tst r24
 7005 31b0 01F0      		breq .L480
 7006               	.LM1442:
 7007 31b2 8091 0000 		lds r24,led_frame_bitmap+31
 7008 31b6 8160      		ori r24,lo8(1)
 7009 31b8 8093 0000 		sts led_frame_bitmap+31,r24
 7010               	.L480:
 7011               	.LM1443:
 7012 31bc 8D85      		ldd r24,Y+13
 7013 31be 8823      		tst r24
 7014 31c0 01F0      		breq .L481
 7015               	.LM1444:
 7016 31c2 8091 0000 		lds r24,led_frame_bitmap+39
 7017 31c6 8160      		ori r24,lo8(1)
 7018 31c8 8093 0000 		sts led_frame_bitmap+39,r24
 7019               	.L481:
 7020               	.LM1445:
 7021 31cc 8E85      		ldd r24,Y+14
 7022 31ce 8823      		tst r24
 7023 31d0 01F0      		breq .L482
 7024               	.LM1446:
 7025 31d2 8091 0000 		lds r24,led_frame_bitmap+47
 7026 31d6 8160      		ori r24,lo8(1)
 7027 31d8 8093 0000 		sts led_frame_bitmap+47,r24
 7028               	.L482:
 7029               	.LM1447:
 7030 31dc 8F85      		ldd r24,Y+15
 7031 31de 8823      		tst r24
 7032 31e0 01F0      		breq .L483
 7033               	.LM1448:
 7034 31e2 8091 0000 		lds r24,led_frame_bitmap+55
 7035 31e6 8160      		ori r24,lo8(1)
 7036 31e8 8093 0000 		sts led_frame_bitmap+55,r24
 7037               	.L483:
 7038               	.LM1449:
 7039 31ec 8889      		ldd r24,Y+16
 7040 31ee 8823      		tst r24
 7041 31f0 01F0      		breq .L484
 7042               	.LM1450:
 7043 31f2 8091 0000 		lds r24,led_frame_bitmap+63
 7044 31f6 8160      		ori r24,lo8(1)
 7045 31f8 8093 0000 		sts led_frame_bitmap+63,r24
 7046               	.L484:
 7047               	.LM1451:
 7048 31fc 9091 0000 		lds r25,led_frame_bitmap+6
 7049 3200 9E7F      		andi r25,lo8(-2)
 7050 3202 9093 0000 		sts led_frame_bitmap+6,r25
 7051               	.LM1452:
 7052 3206 8091 0000 		lds r24,led_frame_bitmap+14
 7053 320a 8E7F      		andi r24,lo8(-2)
 7054 320c 8093 0000 		sts led_frame_bitmap+14,r24
 7055               	.LM1453:
 7056 3210 8091 0000 		lds r24,led_frame_bitmap+22
 7057 3214 8E7F      		andi r24,lo8(-2)
 7058 3216 8093 0000 		sts led_frame_bitmap+22,r24
 7059               	.LM1454:
 7060 321a 8091 0000 		lds r24,led_frame_bitmap+30
 7061 321e 8E7F      		andi r24,lo8(-2)
 7062 3220 8093 0000 		sts led_frame_bitmap+30,r24
 7063               	.LM1455:
 7064 3224 8091 0000 		lds r24,led_frame_bitmap+38
 7065 3228 8E7F      		andi r24,lo8(-2)
 7066 322a 8093 0000 		sts led_frame_bitmap+38,r24
 7067               	.LM1456:
 7068 322e 8091 0000 		lds r24,led_frame_bitmap+46
 7069 3232 8E7F      		andi r24,lo8(-2)
 7070 3234 8093 0000 		sts led_frame_bitmap+46,r24
 7071               	.LM1457:
 7072 3238 8091 0000 		lds r24,led_frame_bitmap+54
 7073 323c 8E7F      		andi r24,lo8(-2)
 7074 323e 8093 0000 		sts led_frame_bitmap+54,r24
 7075               	.LM1458:
 7076 3242 8091 0000 		lds r24,led_frame_bitmap+62
 7077 3246 8E7F      		andi r24,lo8(-2)
 7078 3248 8093 0000 		sts led_frame_bitmap+62,r24
 7079               	.LM1459:
 7080 324c 8981      		ldd r24,Y+1
 7081 324e 8823      		tst r24
 7082 3250 01F0      		breq .L485
 7083               	.LM1460:
 7084 3252 9160      		ori r25,lo8(1)
 7085 3254 9093 0000 		sts led_frame_bitmap+6,r25
 7086               	.L485:
 7087               	.LM1461:
 7088 3258 8A81      		ldd r24,Y+2
 7089 325a 8823      		tst r24
 7090 325c 01F0      		breq .L486
 7091               	.LM1462:
 7092 325e 8091 0000 		lds r24,led_frame_bitmap+14
 7093 3262 8160      		ori r24,lo8(1)
 7094 3264 8093 0000 		sts led_frame_bitmap+14,r24
 7095               	.L486:
 7096               	.LM1463:
 7097 3268 8B81      		ldd r24,Y+3
 7098 326a 8823      		tst r24
 7099 326c 01F0      		breq .L487
 7100               	.LM1464:
 7101 326e 8091 0000 		lds r24,led_frame_bitmap+22
 7102 3272 8160      		ori r24,lo8(1)
 7103 3274 8093 0000 		sts led_frame_bitmap+22,r24
 7104               	.L487:
 7105               	.LM1465:
 7106 3278 8C81      		ldd r24,Y+4
 7107 327a 8823      		tst r24
 7108 327c 01F0      		breq .L488
 7109               	.LM1466:
 7110 327e 8091 0000 		lds r24,led_frame_bitmap+30
 7111 3282 8160      		ori r24,lo8(1)
 7112 3284 8093 0000 		sts led_frame_bitmap+30,r24
 7113               	.L488:
 7114               	.LM1467:
 7115 3288 8D81      		ldd r24,Y+5
 7116 328a 8823      		tst r24
 7117 328c 01F0      		breq .L489
 7118               	.LM1468:
 7119 328e 8091 0000 		lds r24,led_frame_bitmap+38
 7120 3292 8160      		ori r24,lo8(1)
 7121 3294 8093 0000 		sts led_frame_bitmap+38,r24
 7122               	.L489:
 7123               	.LM1469:
 7124 3298 8E81      		ldd r24,Y+6
 7125 329a 8823      		tst r24
 7126 329c 01F0      		breq .L490
 7127               	.LM1470:
 7128 329e 8091 0000 		lds r24,led_frame_bitmap+46
 7129 32a2 8160      		ori r24,lo8(1)
 7130 32a4 8093 0000 		sts led_frame_bitmap+46,r24
 7131               	.L490:
 7132               	.LM1471:
 7133 32a8 8F81      		ldd r24,Y+7
 7134 32aa 8823      		tst r24
 7135 32ac 01F0      		breq .L491
 7136               	.LM1472:
 7137 32ae 8091 0000 		lds r24,led_frame_bitmap+54
 7138 32b2 8160      		ori r24,lo8(1)
 7139 32b4 8093 0000 		sts led_frame_bitmap+54,r24
 7140               	.L491:
 7141               	.LM1473:
 7142 32b8 8885      		ldd r24,Y+8
 7143 32ba 8823      		tst r24
 7144 32bc 01F0      		breq .L493
 7145               	.LM1474:
 7146 32be 8091 0000 		lds r24,led_frame_bitmap+62
 7147 32c2 8160      		ori r24,lo8(1)
 7148 32c4 8093 0000 		sts led_frame_bitmap+62,r24
 7149               	.L493:
 7150               	/* epilogue start */
 7151               	.LM1475:
 7152 32c8 6096      		adiw r28,16
 7153 32ca 0FB6      		in __tmp_reg__,__SREG__
 7154 32cc F894      		cli
 7155 32ce DEBF      		out __SP_H__,r29
 7156 32d0 0FBE      		out __SREG__,__tmp_reg__
 7157 32d2 CDBF      		out __SP_L__,r28
 7158 32d4 CF91      		pop r28
 7159 32d6 DF91      		pop r29
 7160 32d8 0895      		ret
 7161               	.LFE36:
 7163               	.global	led_blank
 7165               	led_blank:
 7166               	.LFB21:
 7167               	.LM1476:
 7168               	/* prologue: function */
 7169               	/* frame size = 0 */
 7170               	.LM1477:
 7171 32da 80E4      		ldi r24,lo8(64)
 7172 32dc E0E0      		ldi r30,lo8(led_frame_bitmap)
 7173 32de F0E0      		ldi r31,hi8(led_frame_bitmap)
 7174 32e0 DF01      		movw r26,r30
 7175 32e2 1D92      		st X+,__zero_reg__
 7176 32e4 8A95      	        dec r24
 7177 32e6 01F4      		brne .-6
 7178               	/* epilogue start */
 7179               	.LM1478:
 7180 32e8 0895      		ret
 7181               	.LFE21:
 7183               	.global	led_init
 7185               	led_init:
 7186               	.LFB14:
 7187               	.LM1479:
 7188               	/* prologue: function */
 7189               	/* frame size = 0 */
 7190               	.LM1480:
 7191 32ea 8091 6200 		lds r24,98
 7192 32ee 8F77      		andi r24,lo8(127)
 7193 32f0 8093 6200 		sts 98,r24
 7194               	.LM1481:
 7195 32f4 8091 6100 		lds r24,97
 7196 32f8 8068      		ori r24,lo8(-128)
 7197 32fa 8093 6100 		sts 97,r24
 7198               	.LM1482:
 7199 32fe BA9A      		sbi 55-32,2
 7200               	.LM1483:
 7201 3300 B99A      		sbi 55-32,1
 7202               	.LM1484:
 7203 3302 C09A      		sbi 56-32,0
 7204               	.LM1485:
 7205 3304 B89A      		sbi 55-32,0
 7206               	.LM1486:
 7207 3306 8FB5      		in r24,79-32
 7208 3308 8162      		ori r24,lo8(33)
 7209 330a 8FBD      		out 79-32,r24
 7210               	.LM1487:
 7211 330c 8EB5      		in r24,78-32
 7212 330e 8161      		ori r24,lo8(17)
 7213 3310 8EBD      		out 78-32,r24
 7214               	.LM1488:
 7215 3312 8DB1      		in r24,45-32
 7216 3314 8065      		ori r24,lo8(80)
 7217 3316 8DB9      		out 45-32,r24
 7218               	.LM1489:
 7219 3318 709A      		sbi 46-32,0
 7220               	.LM1490:
 7221 331a 8FEF      		ldi r24,lo8(-1)
 7222 331c 85BB      		out 53-32,r24
 7223               	.LM1491:
 7224 331e 84BB      		out 52-32,r24
 7225               	.LM1492:
 7226 3320 BE9A      		sbi 55-32,6
 7227               	.LM1493:
 7228 3322 87B7      		in r24,87-32
 7229 3324 8461      		ori r24,lo8(20)
 7230 3326 87BF      		out 87-32,r24
 7231               	.LM1494:
 7232 3328 80E4      		ldi r24,lo8(64)
 7233 332a E0E0      		ldi r30,lo8(led_frame_bitmap)
 7234 332c F0E0      		ldi r31,hi8(led_frame_bitmap)
 7235 332e DF01      		movw r26,r30
 7236 3330 1D92      		st X+,__zero_reg__
 7237 3332 8A95      	        dec r24
 7238 3334 01F4      		brne .-6
 7239               	.LM1495:
 7240 3336 8CE3      		ldi r24,lo8(60)
 7241 3338 90E0      		ldi r25,hi8(60)
 7242 333a 0E94 0000 		call led_framerate
 7243               	.LBB10:
 7244               	.LBB11:
 7245               	.LM1496:
 7246 333e 2091 0000 		lds r18,frame_time
 7247 3342 3091 0000 		lds r19,(frame_time)+1
 7248 3346 C901      		movw r24,r18
 7249 3348 A0E0      		ldi r26,lo8(0)
 7250 334a B0E0      		ldi r27,hi8(0)
 7251               	.LM1497:
 7252 334c 42E0      		ldi r20,2
 7253 334e B695      	1:	lsr r27
 7254 3350 A795      		ror r26
 7255 3352 9795      		ror r25
 7256 3354 8795      		ror r24
 7257 3356 4A95      		dec r20
 7258 3358 01F4      		brne 1b
 7259 335a 281B      		sub r18,r24
 7260 335c 390B      		sbc r19,r25
 7261 335e E0E0      		ldi r30,lo8(plane_period)
 7262 3360 F0E0      		ldi r31,hi8(plane_period)
 7263 3362 A0E0      		ldi r26,lo8(plane_intensity)
 7264 3364 B0E0      		ldi r27,hi8(plane_intensity)
 7265               	.LM1498:
 7266 3366 80E8      		ldi r24,lo8(-128)
 7267               	.L497:
 7268               	.LM1499:
 7269 3368 2193      		st Z+,r18
 7270 336a 3193      		st Z+,r19
 7271               	.LM1500:
 7272 336c 8D93      		st X+,r24
 7273               	.LBE11:
 7274               	.LBE10:
 7275               	.LM1501:
 7276 336e 90E0      		ldi r25,hi8(plane_period+16)
 7277 3370 E030      		cpi r30,lo8(plane_period+16)
 7278 3372 F907      		cpc r31,r25
 7279 3374 01F4      		brne .L497
 7280               	.LM1502:
 7281 3376 A0E0      		ldi r26,lo8(output_bitmap)
 7282 3378 B0E0      		ldi r27,hi8(output_bitmap)
 7283 337a E0E0      		ldi r30,lo8(led_frame_bitmap)
 7284 337c F0E0      		ldi r31,hi8(led_frame_bitmap)
 7285 337e 80E4      		ldi r24,lo8(64)
 7286               	.L498:
 7287 3380 0190      		ld r0,Z+
 7288 3382 0D92      		st X+,r0
 7289 3384 8150      		subi r24,lo8(-(-1))
 7290 3386 01F4      		brne .L498
 7291               	.LM1503:
 7292 3388 A0E0      		ldi r26,lo8(output_plane_period)
 7293 338a B0E0      		ldi r27,hi8(output_plane_period)
 7294 338c E0E0      		ldi r30,lo8(plane_period)
 7295 338e F0E0      		ldi r31,hi8(plane_period)
 7296 3390 88E0      		ldi r24,lo8(8)
 7297               	.L499:
 7298 3392 0190      		ld r0,Z+
 7299 3394 0D92      		st X+,r0
 7300 3396 8150      		subi r24,lo8(-(-1))
 7301 3398 01F4      		brne .L499
 7302               	.LM1504:
 7303 339a 8091 0000 		lds r24,frame_time
 7304 339e 9091 0000 		lds r25,(frame_time)+1
 7305 33a2 9BBD      		out (74)+1-32,r25
 7306 33a4 8ABD      		out 74-32,r24
 7307               	/* epilogue start */
 7308               	.LM1505:
 7309 33a6 0895      		ret
 7310               	.LFE14:
 7312               	.global	led_waitframe
 7314               	led_waitframe:
 7315               	.LFB23:
 7316               	.LM1506:
 7317               	.LVL212:
 7318 33a8 CF93      		push r28
 7319 33aa DF93      		push r29
 7320               	/* prologue: function */
 7321               	/* frame size = 0 */
 7322 33ac EC01      		movw r28,r24
 7323 33ae 00C0      		rjmp .L505
 7324               	.LVL213:
 7325               	.L508:
 7326               	.LM1507:
 7327 33b0 1092 0000 		sts frame_sync,__zero_reg__
 7328 33b4 00C0      		rjmp .L506
 7329               	.LVL214:
 7330               	.L507:
 7331               	.LM1508:
 7332 33b6 0E94 0000 		call main_fly
 7333               	.LVL215:
 7334               	.L506:
 7335               	.LM1509:
 7336 33ba 8091 0000 		lds r24,frame_sync
 7337 33be 8823      		tst r24
 7338 33c0 01F0      		breq .L507
 7339 33c2 2197      		sbiw r28,1
 7340               	.LVL216:
 7341               	.L505:
 7342               	.LM1510:
 7343 33c4 2097      		sbiw r28,0
 7344 33c6 01F4      		brne .L508
 7345               	/* epilogue start */
 7346               	.LM1511:
 7347 33c8 DF91      		pop r29
 7348 33ca CF91      		pop r28
 7349               	.LVL217:
 7350 33cc 0895      		ret
 7351               	.LFE23:
 7353               		.lcomm flip,1
 7354               		.data
 7357               	plane_current:
 7358 0000 07        		.byte	7
 7359               		.lcomm frame_sync,1
 7360               		.lcomm plane_period,16
 7361               		.lcomm frame_time,2
 7362               		.lcomm plane_intensity,8
 7363               		.lcomm output_bitmap,64
 7364               		.lcomm output_plane_period,16
 7365               		.comm led_frame_bitmap,64,1
 7670               	.Letext0:
DEFINED SYMBOLS
                            *ABS*:00000000 led.c
C:\DOCUME~1\Mick\LOCALS~1\Temp/ccnoigSB.s:2      *ABS*:0000003f __SREG__
C:\DOCUME~1\Mick\LOCALS~1\Temp/ccnoigSB.s:3      *ABS*:0000003e __SP_H__
C:\DOCUME~1\Mick\LOCALS~1\Temp/ccnoigSB.s:4      *ABS*:0000003d __SP_L__
C:\DOCUME~1\Mick\LOCALS~1\Temp/ccnoigSB.s:5      *ABS*:00000034 __CCP__
C:\DOCUME~1\Mick\LOCALS~1\Temp/ccnoigSB.s:6      *ABS*:00000000 __tmp_reg__
C:\DOCUME~1\Mick\LOCALS~1\Temp/ccnoigSB.s:7      *ABS*:00000001 __zero_reg__
C:\DOCUME~1\Mick\LOCALS~1\Temp/ccnoigSB.s:18     .text:00000000 led_flip
                             .bss:00000000 flip
C:\DOCUME~1\Mick\LOCALS~1\Temp/ccnoigSB.s:33     .text:00000006 led_shutdown
C:\DOCUME~1\Mick\LOCALS~1\Temp/ccnoigSB.s:54     .text:00000014 led_framerate
C:\DOCUME~1\Mick\LOCALS~1\Temp/ccnoigSB.s:7360   .bss:00000012 frame_time
C:\DOCUME~1\Mick\LOCALS~1\Temp/ccnoigSB.s:7361   .bss:00000014 plane_intensity
C:\DOCUME~1\Mick\LOCALS~1\Temp/ccnoigSB.s:7359   .bss:00000002 plane_period
C:\DOCUME~1\Mick\LOCALS~1\Temp/ccnoigSB.s:169    .text:000000bc led_plane_intensity
C:\DOCUME~1\Mick\LOCALS~1\Temp/ccnoigSB.s:235    .text:0000011c led_plane_intensity_all
C:\DOCUME~1\Mick\LOCALS~1\Temp/ccnoigSB.s:321    .text:000001bc led_point
                            *COM*:00000040 led_frame_bitmap
C:\DOCUME~1\Mick\LOCALS~1\Temp/ccnoigSB.s:397    .text:00000226 led_line
C:\DOCUME~1\Mick\LOCALS~1\Temp/ccnoigSB.s:899    .text:000004be led_plane_y_left
C:\DOCUME~1\Mick\LOCALS~1\Temp/ccnoigSB.s:988    .text:00000536 led_plane_y_right
C:\DOCUME~1\Mick\LOCALS~1\Temp/ccnoigSB.s:1077   .text:000005ae led_plane_z_down
C:\DOCUME~1\Mick\LOCALS~1\Temp/ccnoigSB.s:1147   .text:000005f0 led_plane_z_up
C:\DOCUME~1\Mick\LOCALS~1\Temp/ccnoigSB.s:1230   .text:00000654 led_plane_x_back
C:\DOCUME~1\Mick\LOCALS~1\Temp/ccnoigSB.s:2009   .text:00000cbc led_plane_x_forward
C:\DOCUME~1\Mick\LOCALS~1\Temp/ccnoigSB.s:2788   .text:00001324 led_plane_x_up
C:\DOCUME~1\Mick\LOCALS~1\Temp/ccnoigSB.s:3567   .text:0000198c led_plane_x_down
C:\DOCUME~1\Mick\LOCALS~1\Temp/ccnoigSB.s:4346   .text:00001ff4 led_plane_z_left
C:\DOCUME~1\Mick\LOCALS~1\Temp/ccnoigSB.s:4436   .text:00002066 led_plane_z_right
C:\DOCUME~1\Mick\LOCALS~1\Temp/ccnoigSB.s:4526   .text:000020d8 led_frame_left
C:\DOCUME~1\Mick\LOCALS~1\Temp/ccnoigSB.s:4801   .text:0000235c led_frame_right
C:\DOCUME~1\Mick\LOCALS~1\Temp/ccnoigSB.s:5076   .text:000025e0 __vector_14
C:\DOCUME~1\Mick\LOCALS~1\Temp/ccnoigSB.s:7357   .data:00000000 plane_current
C:\DOCUME~1\Mick\LOCALS~1\Temp/ccnoigSB.s:5137   .text:00002642 __vector_12
C:\DOCUME~1\Mick\LOCALS~1\Temp/ccnoigSB.s:7362   .bss:0000001c output_bitmap
C:\DOCUME~1\Mick\LOCALS~1\Temp/ccnoigSB.s:7363   .bss:0000005c output_plane_period
C:\DOCUME~1\Mick\LOCALS~1\Temp/ccnoigSB.s:7353   .bss:00000001 frame_sync
C:\DOCUME~1\Mick\LOCALS~1\Temp/ccnoigSB.s:5409   .text:000027ae led_frame_back
C:\DOCUME~1\Mick\LOCALS~1\Temp/ccnoigSB.s:5452   .text:000027ec led_frame_forward
C:\DOCUME~1\Mick\LOCALS~1\Temp/ccnoigSB.s:5495   .text:0000282a led_plane_y_forward
C:\DOCUME~1\Mick\LOCALS~1\Temp/ccnoigSB.s:5535   .text:0000285a led_plane_y_back
C:\DOCUME~1\Mick\LOCALS~1\Temp/ccnoigSB.s:5575   .text:0000288a led_perimeter_down
C:\DOCUME~1\Mick\LOCALS~1\Temp/ccnoigSB.s:5615   .text:000028bc led_perimeter_up
C:\DOCUME~1\Mick\LOCALS~1\Temp/ccnoigSB.s:5655   .text:000028ee led_frame_up
C:\DOCUME~1\Mick\LOCALS~1\Temp/ccnoigSB.s:5689   .text:0000291a led_frame_down
C:\DOCUME~1\Mick\LOCALS~1\Temp/ccnoigSB.s:5721   .text:00002942 led_perimeter_anticlockwise
C:\DOCUME~1\Mick\LOCALS~1\Temp/ccnoigSB.s:6082   .text:00002ba8 led_perimeter_clockwise
C:\DOCUME~1\Mick\LOCALS~1\Temp/ccnoigSB.s:6443   .text:00002e0e led_perimeter_right
C:\DOCUME~1\Mick\LOCALS~1\Temp/ccnoigSB.s:6804   .text:00003074 led_perimeter_left
C:\DOCUME~1\Mick\LOCALS~1\Temp/ccnoigSB.s:7165   .text:000032da led_blank
C:\DOCUME~1\Mick\LOCALS~1\Temp/ccnoigSB.s:7185   .text:000032ea led_init
C:\DOCUME~1\Mick\LOCALS~1\Temp/ccnoigSB.s:7314   .text:000033a8 led_waitframe

UNDEFINED SYMBOLS
__udivmodsi4
__mulsi3
memmove
main_fly
__do_copy_data
__do_clear_bss
