   1               		.file	"mode.c"
   2               	__SREG__ = 0x3f
   3               	__SP_H__ = 0x3e
   4               	__SP_L__ = 0x3d
   5               	__CCP__ = 0x34
   6               	__tmp_reg__ = 0
   7               	__zero_reg__ = 1
  15               	.Ltext0:
  16               	.global	mode_timer
  18               	mode_timer:
  19               	.LFB12:
  20               	.LM1:
  21               	/* prologue: function */
  22               	/* frame size = 0 */
  23               	/* stack size = 0 */
  24               	.L__stack_usage = 0
  25               	.LM2:
  26 0000 8091 0000 		lds r24,time
  27 0004 9091 0000 		lds r25,time+1
  28 0008 0097      		sbiw r24,0
  29 000a 01F0      		breq .L1
  30               	.LM3:
  31 000c 0197      		sbiw r24,1
  32 000e 9093 0000 		sts time+1,r25
  33 0012 8093 0000 		sts time,r24
  34               	.L1:
  35 0016 0895      		ret
  36               	.LFE12:
  38               	.global	mode_init
  40               	mode_init:
  41               	.LFB13:
  42               	.LM4:
  43               	/* prologue: function */
  44               	/* frame size = 0 */
  45               	/* stack size = 0 */
  46               	.L__stack_usage = 0
  47               	/* epilogue start */
  48               	.LM5:
  49 0018 0895      		ret
  50               	.LFE13:
  52               	.global	mode_setnight
  54               	mode_setnight:
  55               	.LFB14:
  56               	.LM6:
  57               	/* prologue: function */
  58               	/* frame size = 0 */
  59               	/* stack size = 0 */
  60               	.L__stack_usage = 0
  61               	.LM7:
  62 001a 8091 0000 		lds r24,user_mode
  63 001e 8230      		cpi r24,lo8(2)
  64 0020 01F4      		brne .L4
  65               	.LM8:
  66 0022 81E0      		ldi r24,lo8(1)
  67 0024 8093 0000 		sts current_mode,r24
  68               	.L4:
  69 0028 0895      		ret
  70               	.LFE14:
  72               	.global	mode_setday
  74               	mode_setday:
  75               	.LFB15:
  76               	.LM9:
  77               	/* prologue: function */
  78               	/* frame size = 0 */
  79               	/* stack size = 0 */
  80               	.L__stack_usage = 0
  81               	.LM10:
  82 002a 8091 0000 		lds r24,user_mode
  83 002e 8230      		cpi r24,lo8(2)
  84 0030 01F4      		brne .L6
  85               	.LM11:
  86 0032 1092 0000 		sts current_mode,__zero_reg__
  87               	.L6:
  88 0036 0895      		ret
  89               	.LFE15:
  91               	.global	mode_press
  93               	mode_press:
  94               	.LFB16:
  95               	.LM12:
  96               	/* prologue: function */
  97               	/* frame size = 0 */
  98               	/* stack size = 0 */
  99               	.L__stack_usage = 0
 100               	.LM13:
 101 0038 81E0      		ldi r24,lo8(1)
 102 003a 8093 0000 		sts button_press,r24
 103               	/* epilogue start */
 104               	.LM14:
 105 003e 0895      		ret
 106               	.LFE16:
 108               	.global	mode_current
 110               	mode_current:
 111               	.LFB17:
 112               	.LM15:
 113               	/* prologue: function */
 114               	/* frame size = 0 */
 115               	/* stack size = 0 */
 116               	.L__stack_usage = 0
 117               	.LM16:
 118 0040 8091 0000 		lds r24,current_mode
 119               	/* epilogue start */
 120 0044 0895      		ret
 121               	.LFE17:
 123               	.global	mode_isauto
 125               	mode_isauto:
 126               	.LFB18:
 127               	.LM17:
 128               	/* prologue: function */
 129               	/* frame size = 0 */
 130               	/* stack size = 0 */
 131               	.L__stack_usage = 0
 132               	.LVL0:
 133               	.LM18:
 134 0046 81E0      		ldi r24,lo8(1)
 135 0048 9091 0000 		lds r25,user_mode
 136 004c 9230      		cpi r25,lo8(2)
 137 004e 01F0      		breq .L11
 138 0050 80E0      		ldi r24,lo8(0)
 139               	.L11:
 140               	.LM19:
 141 0052 0895      		ret
 142               	.LFE18:
 144               	.global	mode_selector
 146               	mode_selector:
 147               	.LFB19:
 148               	.LM20:
 149 0054 0F93      		push r16
 150 0056 1F93      		push r17
 151 0058 CF93      		push r28
 152 005a DF93      		push r29
 153               	/* prologue: function */
 154               	/* frame size = 0 */
 155               	/* stack size = 4 */
 156               	.L__stack_usage = 4
 157               	.LM21:
 158 005c 8091 0000 		lds r24,button_press
 159 0060 8823      		tst r24
 160 0062 01F4      		brne .+2
 161 0064 00C0      		rjmp .L12
 162               	.LM22:
 163 0066 84E6      		ldi r24,lo8(100)
 164 0068 90E0      		ldi r25,hi8(100)
 165 006a 0E94 0000 		call led_framerate
 166               	.LM23:
 167 006e 8FEF      		ldi r24,lo8(-1)
 168 0070 0E94 0000 		call led_plane_intensity_all
 169               	.LM24:
 170 0074 8FEF      		ldi r24,lo8(-1)
 171 0076 0E94 0000 		call power_vled_set
 172               	.LM25:
 173 007a CDE3      		ldi r28,lo8(61)
 174 007c D0E0      		ldi r29,hi8(61)
 175               	.L26:
 176               	.LM26:
 177 007e 1092 0000 		sts button_press,__zero_reg__
 178               	.LM27:
 179 0082 D093 0000 		sts time+1,r29
 180 0086 C093 0000 		sts time,r28
 181               	.LM28:
 182 008a 0E94 0000 		call led_blank
 183               	.LM29:
 184 008e 8091 0000 		lds r24,user_mode
 185 0092 8130      		cpi r24,lo8(1)
 186 0094 01F0      		breq .L16
 187 0096 8130      		cpi r24,lo8(1)
 188 0098 00F0      		brlo .L15
 189 009a 8230      		cpi r24,lo8(2)
 190 009c 01F4      		brne .L14
 191 009e 00C0      		rjmp .L32
 192               	.L15:
 193               	.LM30:
 194 00a0 80E0      		ldi r24,lo8(__c.2269)
 195 00a2 90E0      		ldi r25,hi8(__c.2269)
 196 00a4 00C0      		rjmp .L31
 197               	.L16:
 198               	.LM31:
 199 00a6 80E0      		ldi r24,lo8(__c.2273)
 200 00a8 90E0      		ldi r25,hi8(__c.2273)
 201 00aa 00C0      		rjmp .L31
 202               	.L32:
 203               	.LM32:
 204 00ac 80E0      		ldi r24,lo8(__c.2276)
 205 00ae 90E0      		ldi r25,hi8(__c.2276)
 206               	.L31:
 207 00b0 0E94 0000 		call text_set_P
 208               	.L14:
 209               	.LM33:
 210 00b4 00E0      		ldi r16,lo8(0)
 211 00b6 00C0      		rjmp .L18
 212               	.LVL1:
 213               	.L19:
 214               	.LM34:
 215 00b8 102F      		mov r17,r16
 216 00ba 1F5F      		subi r17,lo8(-(1))
 217               	.LVL2:
 218 00bc 802F      		mov r24,r16
 219 00be 61E0      		ldi r22,lo8(1)
 220 00c0 40E0      		ldi r20,lo8(0)
 221 00c2 0E94 0000 		call text_draw_y
 222 00c6 012F      		mov r16,r17
 223               	.LVL3:
 224               	.L18:
 225               	.LM35:
 226 00c8 0E94 0000 		call text_isfinished
 227 00cc 8823      		tst r24
 228 00ce 01F0      		breq .L19
 229 00d0 00C0      		rjmp .L29
 230               	.L24:
 231               	.LM36:
 232 00d2 0E94 0000 		call main_fly
 233               	.L29:
 234               	.LM37:
 235 00d6 8091 0000 		lds r24,button_press
 236 00da 8823      		tst r24
 237 00dc 01F0      		breq .L21
 238               	.LM38:
 239 00de 8091 0000 		lds r24,user_mode
 240 00e2 8230      		cpi r24,lo8(2)
 241 00e4 01F4      		brne .L30
 242 00e6 00C0      		rjmp .L33
 243               	.L21:
 244               	.LM39:
 245 00e8 8091 0000 		lds r24,time
 246 00ec 9091 0000 		lds r25,time+1
 247 00f0 0097      		sbiw r24,0
 248 00f2 01F4      		brne .L24
 249 00f4 00C0      		rjmp .L25
 250               	.L33:
 251               	.LM40:
 252 00f6 1092 0000 		sts user_mode,__zero_reg__
 253 00fa 00C0      		rjmp .L25
 254               	.L30:
 255               	.LM41:
 256 00fc 8F5F      		subi r24,lo8(-(1))
 257 00fe 8093 0000 		sts user_mode,r24
 258               	.L25:
 259               	.LM42:
 260 0102 8091 0000 		lds r24,time
 261 0106 9091 0000 		lds r25,time+1
 262 010a 0097      		sbiw r24,0
 263 010c 01F0      		breq .+2
 264 010e 00C0      		rjmp .L26
 265               	.LM43:
 266 0110 8091 0000 		lds r24,user_mode
 267 0114 8823      		tst r24
 268 0116 01F4      		brne .L27
 269               	.LM44:
 270 0118 1092 0000 		sts current_mode,__zero_reg__
 271 011c 00C0      		rjmp .L12
 272               	.L27:
 273               	.LM45:
 274 011e 8130      		cpi r24,lo8(1)
 275 0120 01F4      		brne .L12
 276               	.LM46:
 277 0122 8093 0000 		sts current_mode,r24
 278               	.LVL4:
 279               	.L12:
 280               	/* epilogue start */
 281               	.LM47:
 282 0126 DF91      		pop r29
 283 0128 CF91      		pop r28
 284 012a 1F91      		pop r17
 285 012c 0F91      		pop r16
 286 012e 0895      		ret
 287               	.LFE19:
 289               		.lcomm button_press,1
 290               		.lcomm time,2
 291               		.lcomm user_mode,1
 292               		.lcomm current_mode,1
 293               		.section	.progmem.data,"a",@progbits
 296               	__c.2276:
 297 0000 4100      		.string	"A"
 300               	__c.2273:
 301 0002 4E00      		.string	"N"
 304               	__c.2269:
 305 0004 4400      		.string	"D"
 386               	.Letext0:
DEFINED SYMBOLS
                            *ABS*:00000000 mode.c
     /tmp/cc64y9rS.s:2      *ABS*:0000003f __SREG__
     /tmp/cc64y9rS.s:3      *ABS*:0000003e __SP_H__
     /tmp/cc64y9rS.s:4      *ABS*:0000003d __SP_L__
     /tmp/cc64y9rS.s:5      *ABS*:00000034 __CCP__
     /tmp/cc64y9rS.s:6      *ABS*:00000000 __tmp_reg__
     /tmp/cc64y9rS.s:7      *ABS*:00000001 __zero_reg__
     /tmp/cc64y9rS.s:18     .text:00000000 mode_timer
     /tmp/cc64y9rS.s:289    .bss:00000001 time
     /tmp/cc64y9rS.s:40     .text:00000018 mode_init
     /tmp/cc64y9rS.s:54     .text:0000001a mode_setnight
     /tmp/cc64y9rS.s:290    .bss:00000003 user_mode
     /tmp/cc64y9rS.s:291    .bss:00000004 current_mode
     /tmp/cc64y9rS.s:74     .text:0000002a mode_setday
     /tmp/cc64y9rS.s:93     .text:00000038 mode_press
                             .bss:00000000 button_press
     /tmp/cc64y9rS.s:110    .text:00000040 mode_current
     /tmp/cc64y9rS.s:125    .text:00000046 mode_isauto
     /tmp/cc64y9rS.s:146    .text:00000054 mode_selector
     /tmp/cc64y9rS.s:304    .progmem.data:00000004 __c.2269
     /tmp/cc64y9rS.s:300    .progmem.data:00000002 __c.2273
     /tmp/cc64y9rS.s:296    .progmem.data:00000000 __c.2276

UNDEFINED SYMBOLS
led_framerate
led_plane_intensity_all
power_vled_set
led_blank
text_set_P
text_draw_y
text_isfinished
main_fly
__do_clear_bss
