   1               		.file	"pattern.c"
   2               	__SREG__ = 0x3f
   3               	__SP_H__ = 0x3e
   4               	__SP_L__ = 0x3d
   5               	__CCP__  = 0x34
   6               	__tmp_reg__ = 0
   7               	__zero_reg__ = 1
  15               	.Ltext0:
  16               	.global	pattern_tick
  18               	pattern_tick:
  19               	.LFB14:
  20               	.LM1:
  21               	/* prologue: function */
  22               	/* frame size = 0 */
  23               	.LM2:
  24 0000 8091 0000 		lds r24,time
  25 0004 9091 0000 		lds r25,(time)+1
  26 0008 0097      		sbiw r24,0
  27 000a 01F0      		breq .L3
  28               	.LM3:
  29 000c 0197      		sbiw r24,1
  30 000e 9093 0000 		sts (time)+1,r25
  31 0012 8093 0000 		sts time,r24
  32               	.L3:
  33 0016 0895      		ret
  34               	.LFE14:
  36               	.global	pattern_break
  38               	pattern_break:
  39               	.LFB15:
  40               	.LM4:
  41               	/* prologue: function */
  42               	/* frame size = 0 */
  43               	.LM5:
  44 0018 81E0      		ldi r24,lo8(1)
  45 001a 8093 0000 		sts fallout,r24
  46               	/* epilogue start */
  47               	.LM6:
  48 001e 0895      		ret
  49               	.LFE15:
  51               	.global	pattern_duration_set
  53               	pattern_duration_set:
  54               	.LFB16:
  55               	.LM7:
  56               	.LVL0:
  57               	/* prologue: function */
  58               	/* frame size = 0 */
  59               	.LM8:
  60 0020 9093 0000 		sts (duration)+1,r25
  61 0024 8093 0000 		sts duration,r24
  62               	/* epilogue start */
  63               	.LM9:
  64 0028 0895      		ret
  65               	.LFE16:
  68               	point_rotate:
  69               	.LFB35:
  70               	.LM10:
  71               	.LVL1:
  72 002a CF93      		push r28
  73 002c DF93      		push r29
  74               	/* prologue: function */
  75               	/* frame size = 0 */
  76 002e FB01      		movw r30,r22
  77 0030 DA01      		movw r26,r20
  78 0032 E901      		movw r28,r18
  79               	.LM11:
  80 0034 9081      		ld r25,Z
  81               	.LVL2:
  82               	.LM12:
  83 0036 2C91      		ld r18,X
  84               	.LVL3:
  85               	.LM13:
  86 0038 3881      		ld r19,Y
  87               	.LVL4:
  88               	.LM14:
  89 003a 8330      		cpi r24,lo8(3)
  90 003c 01F0      		breq .L12
  91               	.LVL5:
  92 003e 8430      		cpi r24,lo8(4)
  93 0040 00F4      		brsh .L16
  94 0042 8130      		cpi r24,lo8(1)
  95 0044 01F0      		breq .L10
  96 0046 8230      		cpi r24,lo8(2)
  97 0048 01F0      		breq .+2
  98 004a 00C0      		rjmp .L9
  99 004c 00C0      		rjmp .L49
 100               	.L16:
 101 004e 8530      		cpi r24,lo8(5)
 102 0050 01F4      		brne .+2
 103 0052 00C0      		rjmp .L14
 104 0054 8530      		cpi r24,lo8(5)
 105 0056 00F0      		brlo .L13
 106 0058 8630      		cpi r24,lo8(6)
 107 005a 01F0      		breq .+2
 108 005c 00C0      		rjmp .L9
 109 005e 00C0      		rjmp .L50
 110               	.L10:
 111               	.LM15:
 112 0060 3323      		tst r19
 113 0062 01F4      		brne .L17
 114 0064 2223      		tst r18
 115 0066 01F0      		breq .L18
 116 0068 00C0      		rjmp .L39
 117               	.L17:
 118               	.LM16:
 119 006a 2223      		tst r18
 120 006c 01F4      		brne .L19
 121 006e 3730      		cpi r19,lo8(7)
 122 0070 00F4      		brsh .L19
 123               	.L18:
 124               	.LM17:
 125 0072 3F5F      		subi r19,lo8(-(1))
 126 0074 20E0      		ldi r18,lo8(0)
 127 0076 00C0      		rjmp .L9
 128               	.L19:
 129               	.LM18:
 130 0078 3730      		cpi r19,lo8(7)
 131 007a 01F4      		brne .L20
 132 007c 2730      		cpi r18,lo8(7)
 133 007e 00F4      		brsh .+2
 134 0080 00C0      		rjmp .L40
 135               	.L20:
 136               	.LM19:
 137 0082 2730      		cpi r18,lo8(7)
 138 0084 01F0      		breq .+2
 139 0086 00C0      		rjmp .L9
 140 0088 00C0      		rjmp .L43
 141               	.L49:
 142               	.LM20:
 143 008a 3323      		tst r19
 144 008c 01F4      		brne .L21
 145 008e 2730      		cpi r18,lo8(7)
 146 0090 00F0      		brlo .L40
 147               	.L21:
 148               	.LM21:
 149 0092 2223      		tst r18
 150 0094 01F0      		breq .L45
 151               	.L22:
 152               	.LM22:
 153 0096 3730      		cpi r19,lo8(7)
 154 0098 01F4      		brne .+2
 155 009a 00C0      		rjmp .L39
 156               	.L23:
 157               	.LM23:
 158 009c 2730      		cpi r18,lo8(7)
 159 009e 01F0      		breq .L48
 160 00a0 00C0      		rjmp .L9
 161               	.L12:
 162               	.LM24:
 163 00a2 3323      		tst r19
 164 00a4 01F4      		brne .L24
 165 00a6 9923      		tst r25
 166 00a8 01F0      		breq .L25
 167 00aa 00C0      		rjmp .L41
 168               	.L24:
 169               	.LM25:
 170 00ac 9923      		tst r25
 171 00ae 01F4      		brne .L26
 172 00b0 3730      		cpi r19,lo8(7)
 173 00b2 00F4      		brsh .L26
 174               	.L25:
 175               	.LM26:
 176 00b4 3F5F      		subi r19,lo8(-(1))
 177 00b6 00C0      		rjmp .L44
 178               	.L26:
 179               	.LM27:
 180 00b8 3730      		cpi r19,lo8(7)
 181 00ba 01F4      		brne .L27
 182 00bc 9730      		cpi r25,lo8(7)
 183 00be 00F0      		brlo .L42
 184               	.L27:
 185               	.LM28:
 186 00c0 9730      		cpi r25,lo8(7)
 187 00c2 01F4      		brne .L9
 188 00c4 00C0      		rjmp .L43
 189               	.L13:
 190               	.LM29:
 191 00c6 3323      		tst r19
 192 00c8 01F4      		brne .L28
 193 00ca 9730      		cpi r25,lo8(7)
 194 00cc 00F0      		brlo .L42
 195               	.L28:
 196               	.LM30:
 197 00ce 9923      		tst r25
 198 00d0 01F4      		brne .L29
 199               	.L45:
 200 00d2 3323      		tst r19
 201 00d4 01F0      		breq .L9
 202               	.L43:
 203               	.LM31:
 204 00d6 3150      		subi r19,lo8(-(-1))
 205 00d8 00C0      		rjmp .L9
 206               	.L29:
 207               	.LM32:
 208 00da 3730      		cpi r19,lo8(7)
 209 00dc 01F0      		breq .L41
 210               	.L30:
 211               	.LM33:
 212 00de 9730      		cpi r25,lo8(7)
 213 00e0 01F4      		brne .L9
 214               	.L48:
 215 00e2 3730      		cpi r19,lo8(7)
 216 00e4 00F4      		brsh .L9
 217               	.LM34:
 218 00e6 3F5F      		subi r19,lo8(-(1))
 219 00e8 00C0      		rjmp .L9
 220               	.L14:
 221               	.LM35:
 222 00ea 2223      		tst r18
 223 00ec 01F4      		brne .L31
 224 00ee 9730      		cpi r25,lo8(7)
 225 00f0 00F0      		brlo .L42
 226               	.L31:
 227               	.LM36:
 228 00f2 9923      		tst r25
 229 00f4 01F4      		brne .L32
 230 00f6 2223      		tst r18
 231 00f8 01F0      		breq .L9
 232 00fa 00C0      		rjmp .L39
 233               	.L32:
 234               	.LM37:
 235 00fc 2730      		cpi r18,lo8(7)
 236 00fe 01F0      		breq .L41
 237               	.L33:
 238               	.LM38:
 239 0100 9730      		cpi r25,lo8(7)
 240 0102 01F4      		brne .L9
 241 0104 2730      		cpi r18,lo8(7)
 242 0106 00F4      		brsh .L9
 243               	.L40:
 244               	.LM39:
 245 0108 2F5F      		subi r18,lo8(-(1))
 246 010a 00C0      		rjmp .L9
 247               	.L50:
 248               	.LM40:
 249 010c 2223      		tst r18
 250 010e 01F4      		brne .L34
 251 0110 9923      		tst r25
 252 0112 01F0      		breq .L35
 253               	.L41:
 254               	.LM41:
 255 0114 9150      		subi r25,lo8(-(-1))
 256 0116 00C0      		rjmp .L9
 257               	.L34:
 258               	.LM42:
 259 0118 9923      		tst r25
 260 011a 01F4      		brne .L36
 261 011c 2730      		cpi r18,lo8(7)
 262 011e 00F4      		brsh .L36
 263               	.L35:
 264               	.LM43:
 265 0120 2F5F      		subi r18,lo8(-(1))
 266               	.L44:
 267 0122 90E0      		ldi r25,lo8(0)
 268 0124 00C0      		rjmp .L9
 269               	.L36:
 270               	.LM44:
 271 0126 2730      		cpi r18,lo8(7)
 272 0128 01F4      		brne .L37
 273 012a 9730      		cpi r25,lo8(7)
 274 012c 00F4      		brsh .L37
 275               	.L42:
 276               	.LM45:
 277 012e 9F5F      		subi r25,lo8(-(1))
 278 0130 00C0      		rjmp .L9
 279               	.L37:
 280               	.LM46:
 281 0132 9730      		cpi r25,lo8(7)
 282 0134 01F4      		brne .L9
 283               	.L39:
 284               	.LM47:
 285 0136 2150      		subi r18,lo8(-(-1))
 286               	.L9:
 287               	.LM48:
 288 0138 9083      		st Z,r25
 289               	.LM49:
 290 013a 2C93      		st X,r18
 291               	.LM50:
 292 013c 3883      		st Y,r19
 293               	/* epilogue start */
 294               	.LM51:
 295 013e DF91      		pop r29
 296 0140 CF91      		pop r28
 297               	.LVL6:
 298 0142 0895      		ret
 299               	.LFE35:
 302               	physical_plot:
 303               	.LFB37:
 304               	.LM52:
 305               	.LVL7:
 306               	/* prologue: function */
 307               	/* frame size = 0 */
 308 0144 FC01      		movw r30,r24
 309               	.LM53:
 310 0146 3181      		ldd r19,Z+1
 311 0148 3295      		swap r19
 312 014a 3F70      		andi r19,lo8(15)
 313               	.LM54:
 314 014c 2381      		ldd r18,Z+3
 315 014e 2295      		swap r18
 316 0150 2F70      		andi r18,lo8(15)
 317               	.LM55:
 318 0152 9581      		ldd r25,Z+5
 319 0154 9295      		swap r25
 320 0156 9F70      		andi r25,lo8(15)
 321               	.LM56:
 322 0158 822F      		mov r24,r18
 323               	.LVL8:
 324 015a 832B      		or r24,r19
 325 015c 892B      		or r24,r25
 326 015e 887F      		andi r24,lo8(-8)
 327 0160 01F4      		brne .L54
 328 0162 E22F      		mov r30,r18
 329               	.LVL9:
 330 0164 F0E0      		ldi r31,lo8(0)
 331               	.LVL10:
 332 0166 892F      		mov r24,r25
 333               	.LVL11:
 334 0168 90E0      		ldi r25,lo8(0)
 335               	.LVL12:
 336               	.LM57:
 337 016a 6623      		tst r22
 338 016c 01F0      		breq .L53
 339               	.LM58:
 340 016e 43E0      		ldi r20,3
 341 0170 EE0F      	1:	lsl r30
 342 0172 FF1F      		rol r31
 343 0174 4A95      		dec r20
 344 0176 01F4      		brne 1b
 345               	.LVL13:
 346 0178 E80F      		add r30,r24
 347 017a F91F      		adc r31,r25
 348 017c E050      		subi r30,lo8(-(led_frame_bitmap))
 349 017e F040      		sbci r31,hi8(-(led_frame_bitmap))
 350 0180 80E8      		ldi r24,lo8(128)
 351 0182 90E0      		ldi r25,hi8(128)
 352               	.LVL14:
 353 0184 00C0      		rjmp 2f
 354 0186 9595      	1:	asr r25
 355 0188 8795      		ror r24
 356 018a 3A95      	2:	dec r19
 357 018c 02F4      		brpl 1b
 358 018e 2081      		ld r18,Z
 359 0190 282B      		or r18,r24
 360 0192 2083      		st Z,r18
 361 0194 0895      		ret
 362               	.LVL15:
 363               	.L53:
 364               	.LM59:
 365 0196 23E0      		ldi r18,3
 366 0198 EE0F      	1:	lsl r30
 367 019a FF1F      		rol r31
 368 019c 2A95      		dec r18
 369 019e 01F4      		brne 1b
 370               	.LVL16:
 371 01a0 E80F      		add r30,r24
 372 01a2 F91F      		adc r31,r25
 373 01a4 E050      		subi r30,lo8(-(led_frame_bitmap))
 374 01a6 F040      		sbci r31,hi8(-(led_frame_bitmap))
 375 01a8 80E8      		ldi r24,lo8(128)
 376 01aa 90E0      		ldi r25,hi8(128)
 377               	.LVL17:
 378 01ac 00C0      		rjmp 2f
 379 01ae 9595      	1:	asr r25
 380 01b0 8795      		ror r24
 381 01b2 3A95      	2:	dec r19
 382 01b4 02F4      		brpl 1b
 383 01b6 8095      		com r24
 384 01b8 2081      		ld r18,Z
 385 01ba 2823      		and r18,r24
 386 01bc 2083      		st Z,r18
 387               	.LVL18:
 388               	.L54:
 389 01be 0895      		ret
 390               	.LFE37:
 393               	cube_draw:
 394               	.LFB39:
 395               	.LM60:
 396               	.LVL19:
 397 01c0 6F92      		push r6
 398 01c2 7F92      		push r7
 399 01c4 8F92      		push r8
 400 01c6 9F92      		push r9
 401 01c8 AF92      		push r10
 402 01ca BF92      		push r11
 403 01cc CF92      		push r12
 404               	.LVL20:
 405 01ce DF92      		push r13
 406 01d0 EF92      		push r14
 407               	.LVL21:
 408 01d2 FF92      		push r15
 409 01d4 0F93      		push r16
 410               	.LVL22:
 411 01d6 1F93      		push r17
 412               	/* prologue: function */
 413               	/* frame size = 0 */
 414 01d8 B82E      		mov r11,r24
 415 01da A62E      		mov r10,r22
 416 01dc D42E      		mov r13,r20
 417 01de 922E      		mov r9,r18
 418 01e0 802E      		mov r8,r16
 419               	.LVL23:
 420 01e2 7E2C      		mov r7,r14
 421               	.LVL24:
 422               	.LM61:
 423 01e4 90E0      		ldi r25,lo8(0)
 424 01e6 70E0      		ldi r23,lo8(0)
 425 01e8 50E0      		ldi r21,lo8(0)
 426 01ea 30E0      		ldi r19,lo8(0)
 427 01ec 0A2D      		mov r16,r10
 428               	.LVL25:
 429 01ee 10E0      		ldi r17,lo8(0)
 430 01f0 ED2C      		mov r14,r13
 431               	.LVL26:
 432 01f2 FF24      		clr r15
 433 01f4 0E94 0000 		call led_line
 434               	.LVL27:
 435               	.LM62:
 436 01f8 8B2D      		mov r24,r11
 437 01fa 90E0      		ldi r25,lo8(0)
 438 01fc 6A2D      		mov r22,r10
 439 01fe 70E0      		ldi r23,lo8(0)
 440 0200 472D      		mov r20,r7
 441 0202 50E0      		ldi r21,lo8(0)
 442 0204 292D      		mov r18,r9
 443 0206 30E0      		ldi r19,lo8(0)
 444 0208 E72C      		mov r14,r7
 445 020a 0E94 0000 		call led_line
 446               	.LM63:
 447 020e 8B2D      		mov r24,r11
 448 0210 90E0      		ldi r25,lo8(0)
 449 0212 682D      		mov r22,r8
 450 0214 70E0      		ldi r23,lo8(0)
 451 0216 4D2D      		mov r20,r13
 452 0218 50E0      		ldi r21,lo8(0)
 453 021a 292D      		mov r18,r9
 454 021c 30E0      		ldi r19,lo8(0)
 455 021e 082D      		mov r16,r8
 456 0220 ED2C      		mov r14,r13
 457 0222 0E94 0000 		call led_line
 458               	.LM64:
 459 0226 8B2D      		mov r24,r11
 460 0228 90E0      		ldi r25,lo8(0)
 461 022a 682D      		mov r22,r8
 462 022c 70E0      		ldi r23,lo8(0)
 463 022e 472D      		mov r20,r7
 464 0230 50E0      		ldi r21,lo8(0)
 465 0232 292D      		mov r18,r9
 466 0234 30E0      		ldi r19,lo8(0)
 467 0236 E72C      		mov r14,r7
 468 0238 0E94 0000 		call led_line
 469               	.LM65:
 470 023c 8B2D      		mov r24,r11
 471 023e 90E0      		ldi r25,lo8(0)
 472 0240 6A2D      		mov r22,r10
 473 0242 70E0      		ldi r23,lo8(0)
 474 0244 4D2D      		mov r20,r13
 475 0246 50E0      		ldi r21,lo8(0)
 476 0248 2B2D      		mov r18,r11
 477 024a 30E0      		ldi r19,lo8(0)
 478 024c 0A2D      		mov r16,r10
 479 024e 0E94 0000 		call led_line
 480               	.LM66:
 481 0252 892D      		mov r24,r9
 482 0254 90E0      		ldi r25,lo8(0)
 483 0256 6A2D      		mov r22,r10
 484 0258 70E0      		ldi r23,lo8(0)
 485 025a 4D2D      		mov r20,r13
 486 025c 50E0      		ldi r21,lo8(0)
 487 025e 292D      		mov r18,r9
 488 0260 30E0      		ldi r19,lo8(0)
 489 0262 0E94 0000 		call led_line
 490               	.LM67:
 491 0266 8B2D      		mov r24,r11
 492 0268 90E0      		ldi r25,lo8(0)
 493 026a 682D      		mov r22,r8
 494 026c 70E0      		ldi r23,lo8(0)
 495 026e 4D2D      		mov r20,r13
 496 0270 50E0      		ldi r21,lo8(0)
 497 0272 2B2D      		mov r18,r11
 498 0274 30E0      		ldi r19,lo8(0)
 499 0276 082D      		mov r16,r8
 500 0278 0E94 0000 		call led_line
 501               	.LM68:
 502 027c 892D      		mov r24,r9
 503 027e 90E0      		ldi r25,lo8(0)
 504 0280 682D      		mov r22,r8
 505 0282 70E0      		ldi r23,lo8(0)
 506 0284 4D2D      		mov r20,r13
 507 0286 50E0      		ldi r21,lo8(0)
 508 0288 292D      		mov r18,r9
 509 028a 30E0      		ldi r19,lo8(0)
 510 028c 0E94 0000 		call led_line
 511               	.LM69:
 512 0290 8B2D      		mov r24,r11
 513 0292 90E0      		ldi r25,lo8(0)
 514 0294 6A2D      		mov r22,r10
 515 0296 70E0      		ldi r23,lo8(0)
 516 0298 4D2D      		mov r20,r13
 517 029a 50E0      		ldi r21,lo8(0)
 518 029c 2B2D      		mov r18,r11
 519 029e 30E0      		ldi r19,lo8(0)
 520 02a0 ED2C      		mov r14,r13
 521 02a2 0E94 0000 		call led_line
 522               	.LM70:
 523 02a6 892D      		mov r24,r9
 524 02a8 90E0      		ldi r25,lo8(0)
 525 02aa 6A2D      		mov r22,r10
 526 02ac 70E0      		ldi r23,lo8(0)
 527 02ae 4D2D      		mov r20,r13
 528 02b0 50E0      		ldi r21,lo8(0)
 529 02b2 292D      		mov r18,r9
 530 02b4 30E0      		ldi r19,lo8(0)
 531 02b6 0E94 0000 		call led_line
 532               	.LM71:
 533 02ba 8B2D      		mov r24,r11
 534 02bc 90E0      		ldi r25,lo8(0)
 535 02be 6A2D      		mov r22,r10
 536 02c0 70E0      		ldi r23,lo8(0)
 537 02c2 472D      		mov r20,r7
 538 02c4 50E0      		ldi r21,lo8(0)
 539 02c6 2B2D      		mov r18,r11
 540 02c8 30E0      		ldi r19,lo8(0)
 541 02ca E72C      		mov r14,r7
 542 02cc 0E94 0000 		call led_line
 543               	.LM72:
 544 02d0 892D      		mov r24,r9
 545 02d2 90E0      		ldi r25,lo8(0)
 546 02d4 6A2D      		mov r22,r10
 547 02d6 70E0      		ldi r23,lo8(0)
 548 02d8 472D      		mov r20,r7
 549 02da 50E0      		ldi r21,lo8(0)
 550 02dc 292D      		mov r18,r9
 551 02de 30E0      		ldi r19,lo8(0)
 552 02e0 0E94 0000 		call led_line
 553               	/* epilogue start */
 554               	.LM73:
 555 02e4 1F91      		pop r17
 556 02e6 0F91      		pop r16
 557 02e8 FF90      		pop r15
 558 02ea EF90      		pop r14
 559 02ec DF90      		pop r13
 560               	.LVL28:
 561 02ee CF90      		pop r12
 562 02f0 BF90      		pop r11
 563               	.LVL29:
 564 02f2 AF90      		pop r10
 565               	.LVL30:
 566 02f4 9F90      		pop r9
 567               	.LVL31:
 568 02f6 8F90      		pop r8
 569               	.LVL32:
 570 02f8 7F90      		pop r7
 571               	.LVL33:
 572 02fa 6F90      		pop r6
 573 02fc 0895      		ret
 574               	.LFE39:
 576               	.global	pattern_text1_P
 578               	pattern_text1_P:
 579               	.LFB34:
 580               	.LM74:
 581               	.LVL34:
 582 02fe CF92      		push r12
 583 0300 DF92      		push r13
 584 0302 EF92      		push r14
 585 0304 FF92      		push r15
 586 0306 0F93      		push r16
 587 0308 1F93      		push r17
 588 030a CF93      		push r28
 589 030c DF93      		push r29
 590               	/* prologue: function */
 591               	/* frame size = 0 */
 592 030e EC01      		movw r28,r24
 593               	.LM75:
 594 0310 1092 0000 		sts fallout,__zero_reg__
 595               	.LM76:
 596 0314 84E6      		ldi r24,lo8(100)
 597 0316 90E0      		ldi r25,hi8(100)
 598               	.LVL35:
 599 0318 0E94 0000 		call led_framerate
 600               	.LM77:
 601 031c 0E94 0000 		call led_blank
 602               	.LM78:
 603 0320 8FEF      		ldi r24,lo8(-1)
 604 0322 0E94 0000 		call led_plane_intensity_all
 605               	.LM79:
 606 0326 CE01      		movw r24,r28
 607 0328 0E94 0000 		call text_set_P
 608 032c DD24      		clr r13
 609               	.LVL36:
 610 032e 00C0      		rjmp .L58
 611               	.L64:
 612               	.LM80:
 613 0330 0E94 0000 		call text_isfinished
 614 0334 8823      		tst r24
 615 0336 01F0      		breq .L59
 616               	.LM81:
 617 0338 8091 0000 		lds r24,duration
 618 033c 9091 0000 		lds r25,(duration)+1
 619 0340 892B      		or r24,r25
 620 0342 01F0      		breq .L60
 621 0344 8091 0000 		lds r24,time
 622 0348 9091 0000 		lds r25,(time)+1
 623 034c 892B      		or r24,r25
 624 034e 01F0      		breq .L61
 625               	.L60:
 626               	.LM82:
 627 0350 CE01      		movw r24,r28
 628 0352 0E94 0000 		call text_set_P
 629 0356 00C0      		rjmp .L59
 630               	.L61:
 631               	.LM83:
 632 0358 D394      		inc r13
 633               	.L59:
 634               	.LM84:
 635 035a DD20      		tst r13
 636 035c 01F4      		brne .L62
 637               	.LM85:
 638 035e 87E0      		ldi r24,lo8(7)
 639 0360 61E0      		ldi r22,lo8(1)
 640 0362 47E0      		ldi r20,lo8(7)
 641 0364 0E94 0000 		call text_draw_y
 642               	.L62:
 643               	.LM86:
 644 0368 0E94 0000 		call led_perimeter_left
 645               	.LM87:
 646 036c 80E0      		ldi r24,lo8(0)
 647 036e 90E0      		ldi r25,hi8(0)
 648 0370 60E0      		ldi r22,lo8(0)
 649 0372 70E0      		ldi r23,hi8(0)
 650 0374 41E0      		ldi r20,lo8(1)
 651 0376 50E0      		ldi r21,hi8(1)
 652 0378 20E0      		ldi r18,lo8(0)
 653 037a 30E0      		ldi r19,hi8(0)
 654 037c 07E0      		ldi r16,lo8(7)
 655 037e 10E0      		ldi r17,hi8(7)
 656 0380 E1E0      		ldi r30,lo8(1)
 657 0382 EE2E      		mov r14,r30
 658 0384 F12C      		mov r15,__zero_reg__
 659 0386 CC24      		clr r12
 660 0388 0E94 0000 		call led_line
 661               	.LM88:
 662 038c 86E0      		ldi r24,lo8(6)
 663 038e 90E0      		ldi r25,hi8(6)
 664 0390 0E94 0000 		call led_waitframe
 665               	.L58:
 666               	.LM89:
 667 0394 8091 0000 		lds r24,fallout
 668 0398 8823      		tst r24
 669 039a 01F4      		brne .L65
 670 039c 8FE0      		ldi r24,lo8(15)
 671 039e D816      		cp r13,r24
 672 03a0 01F4      		brne .L64
 673               	.L65:
 674               	/* epilogue start */
 675               	.LM90:
 676 03a2 DF91      		pop r29
 677 03a4 CF91      		pop r28
 678               	.LVL37:
 679 03a6 1F91      		pop r17
 680 03a8 0F91      		pop r16
 681 03aa FF90      		pop r15
 682 03ac EF90      		pop r14
 683 03ae DF90      		pop r13
 684               	.LVL38:
 685 03b0 CF90      		pop r12
 686 03b2 0895      		ret
 687               	.LFE34:
 689               	.global	pattern_cube_stretch
 691               	pattern_cube_stretch:
 692               	.LFB28:
 693               	.LM91:
 694 03b4 8F92      		push r8
 695 03b6 9F92      		push r9
 696 03b8 AF92      		push r10
 697 03ba BF92      		push r11
 698 03bc CF92      		push r12
 699 03be DF92      		push r13
 700 03c0 EF92      		push r14
 701 03c2 FF92      		push r15
 702 03c4 0F93      		push r16
 703 03c6 1F93      		push r17
 704               	/* prologue: function */
 705               	/* frame size = 0 */
 706               	.LM92:
 707 03c8 1092 0000 		sts fallout,__zero_reg__
 708               	.LM93:
 709 03cc 8091 0000 		lds r24,duration
 710 03d0 9091 0000 		lds r25,(duration)+1
 711 03d4 9093 0000 		sts (time)+1,r25
 712 03d8 8093 0000 		sts time,r24
 713               	.LM94:
 714 03dc 82E3      		ldi r24,lo8(50)
 715 03de 90E0      		ldi r25,hi8(50)
 716 03e0 0E94 0000 		call led_framerate
 717               	.LM95:
 718 03e4 0E94 0000 		call led_blank
 719               	.LM96:
 720 03e8 8FEF      		ldi r24,lo8(-1)
 721 03ea 0E94 0000 		call led_plane_intensity_all
 722               	.LM97:
 723 03ee 83E0      		ldi r24,lo8(3)
 724 03f0 63E0      		ldi r22,lo8(3)
 725 03f2 43E0      		ldi r20,lo8(3)
 726 03f4 24E0      		ldi r18,lo8(4)
 727 03f6 04E0      		ldi r16,lo8(4)
 728 03f8 94E0      		ldi r25,lo8(4)
 729 03fa E92E      		mov r14,r25
 730 03fc CC24      		clr r12
 731 03fe C394      		inc r12
 732 0400 0E94 0000 		call cube_draw
 733               	.LM98:
 734 0404 83E0      		ldi r24,lo8(3)
 735 0406 90E0      		ldi r25,hi8(3)
 736 0408 0E94 0000 		call led_waitframe
 737 040c 13E0      		ldi r17,lo8(3)
 738               	.LVL39:
 739 040e 84E0      		ldi r24,lo8(4)
 740 0410 F82E      		mov r15,r24
 741               	.LVL40:
 742 0412 00C0      		rjmp .L67
 743               	.L70:
 744               	.LM99:
 745 0414 1150      		subi r17,lo8(-(-1))
 746               	.LM100:
 747 0416 0E94 0000 		call led_blank
 748               	.LM101:
 749 041a F394      		inc r15
 750               	.LM102:
 751 041c 812F      		mov r24,r17
 752 041e 612F      		mov r22,r17
 753 0420 412F      		mov r20,r17
 754 0422 2F2D      		mov r18,r15
 755 0424 0F2D      		mov r16,r15
 756 0426 EF2C      		mov r14,r15
 757 0428 CC24      		clr r12
 758 042a C394      		inc r12
 759 042c 0E94 0000 		call cube_draw
 760               	.LM103:
 761 0430 83E0      		ldi r24,lo8(3)
 762 0432 90E0      		ldi r25,hi8(3)
 763 0434 0E94 0000 		call led_waitframe
 764               	.L67:
 765               	.LM104:
 766 0438 8091 0000 		lds r24,fallout
 767 043c 8823      		tst r24
 768 043e 01F4      		brne .L68
 769 0440 8091 0000 		lds r24,duration
 770 0444 9091 0000 		lds r25,(duration)+1
 771 0448 892B      		or r24,r25
 772 044a 01F0      		breq .L69
 773 044c 8091 0000 		lds r24,time
 774 0450 9091 0000 		lds r25,(time)+1
 775 0454 892B      		or r24,r25
 776 0456 01F0      		breq .L68
 777               	.L69:
 778 0458 1123      		tst r17
 779 045a 01F4      		brne .L70
 780 045c DD24      		clr r13
 781               	.LVL41:
 782 045e BB24      		clr r11
 783               	.LVL42:
 784 0460 00C0      		rjmp .L71
 785               	.LVL43:
 786               	.L68:
 787 0462 D12E      		mov r13,r17
 788               	.LVL44:
 789 0464 B12E      		mov r11,r17
 790               	.LVL45:
 791               	.L71:
 792 0466 9F2C      		mov r9,r15
 793               	.LVL46:
 794 0468 AF2C      		mov r10,r15
 795               	.LVL47:
 796 046a 00C0      		rjmp .L72
 797               	.L76:
 798               	.LM105:
 799 046c 0E94 0000 		call led_blank
 800               	.LM106:
 801 0470 1F5F      		subi r17,lo8(-(1))
 802               	.LVL48:
 803 0472 D394      		inc r13
 804 0474 B394      		inc r11
 805               	.LM107:
 806 0476 812F      		mov r24,r17
 807 0478 6D2D      		mov r22,r13
 808 047a 4B2D      		mov r20,r11
 809 047c 2F2D      		mov r18,r15
 810 047e 0A2D      		mov r16,r10
 811 0480 E92C      		mov r14,r9
 812 0482 CC24      		clr r12
 813 0484 C394      		inc r12
 814 0486 0E94 0000 		call cube_draw
 815               	.LM108:
 816 048a 83E0      		ldi r24,lo8(3)
 817 048c 90E0      		ldi r25,hi8(3)
 818 048e 0E94 0000 		call led_waitframe
 819 0492 00C0      		rjmp .L73
 820               	.LVL49:
 821               	.L138:
 822               	.LM109:
 823 0494 06E0      		ldi r16,lo8(6)
 824 0496 802E      		mov r8,r16
 825 0498 810E      		add r8,r17
 826               	.L73:
 827 049a 8091 0000 		lds r24,fallout
 828 049e 8823      		tst r24
 829 04a0 01F0      		breq .L74
 830               	.L77:
 831               	.LM110:
 832 04a2 BAEF      		ldi r27,lo8(-6)
 833 04a4 8B2E      		mov r8,r27
 834 04a6 810E      		add r8,r17
 835 04a8 00C0      		rjmp .L75
 836               	.L74:
 837               	.LM111:
 838 04aa 1815      		cp r17,r8
 839 04ac 01F4      		brne .L76
 840 04ae 00C0      		rjmp .L77
 841               	.L80:
 842               	.LM112:
 843 04b0 0E94 0000 		call led_blank
 844               	.LM113:
 845 04b4 1150      		subi r17,lo8(-(-1))
 846               	.LVL50:
 847 04b6 DA94      		dec r13
 848 04b8 BA94      		dec r11
 849               	.LM114:
 850 04ba 812F      		mov r24,r17
 851 04bc 6D2D      		mov r22,r13
 852 04be 4B2D      		mov r20,r11
 853 04c0 2F2D      		mov r18,r15
 854 04c2 0A2D      		mov r16,r10
 855 04c4 E92C      		mov r14,r9
 856 04c6 CC24      		clr r12
 857 04c8 C394      		inc r12
 858 04ca 0E94 0000 		call cube_draw
 859               	.LM115:
 860 04ce 83E0      		ldi r24,lo8(3)
 861 04d0 90E0      		ldi r25,hi8(3)
 862 04d2 0E94 0000 		call led_waitframe
 863               	.LVL51:
 864               	.L75:
 865               	.LM116:
 866 04d6 8091 0000 		lds r24,fallout
 867 04da 8823      		tst r24
 868 04dc 01F0      		breq .L78
 869               	.L81:
 870               	.LM117:
 871 04de AAEF      		ldi r26,lo8(-6)
 872 04e0 8A2E      		mov r8,r26
 873 04e2 8F0C      		add r8,r15
 874 04e4 00C0      		rjmp .L79
 875               	.L78:
 876               	.LM118:
 877 04e6 1815      		cp r17,r8
 878 04e8 01F4      		brne .L80
 879 04ea 00C0      		rjmp .L81
 880               	.L84:
 881               	.LM119:
 882 04ec 0E94 0000 		call led_blank
 883               	.LM120:
 884 04f0 FA94      		dec r15
 885               	.LVL52:
 886 04f2 AA94      		dec r10
 887 04f4 9A94      		dec r9
 888               	.LM121:
 889 04f6 812F      		mov r24,r17
 890 04f8 6D2D      		mov r22,r13
 891 04fa 4B2D      		mov r20,r11
 892 04fc 2F2D      		mov r18,r15
 893 04fe 0A2D      		mov r16,r10
 894 0500 E92C      		mov r14,r9
 895 0502 CC24      		clr r12
 896 0504 C394      		inc r12
 897 0506 0E94 0000 		call cube_draw
 898               	.LM122:
 899 050a 83E0      		ldi r24,lo8(3)
 900 050c 90E0      		ldi r25,hi8(3)
 901 050e 0E94 0000 		call led_waitframe
 902               	.L79:
 903               	.LM123:
 904 0512 8091 0000 		lds r24,fallout
 905 0516 8823      		tst r24
 906 0518 01F0      		breq .L82
 907               	.L85:
 908               	.LM124:
 909 051a F6E0      		ldi r31,lo8(6)
 910 051c 8F2E      		mov r8,r31
 911 051e 8F0C      		add r8,r15
 912 0520 00C0      		rjmp .L83
 913               	.L82:
 914               	.LM125:
 915 0522 F814      		cp r15,r8
 916 0524 01F4      		brne .L84
 917 0526 00C0      		rjmp .L85
 918               	.L88:
 919               	.LM126:
 920 0528 0E94 0000 		call led_blank
 921               	.LM127:
 922 052c F394      		inc r15
 923               	.LVL53:
 924 052e A394      		inc r10
 925 0530 9394      		inc r9
 926               	.LM128:
 927 0532 812F      		mov r24,r17
 928 0534 6D2D      		mov r22,r13
 929 0536 4B2D      		mov r20,r11
 930 0538 2F2D      		mov r18,r15
 931 053a 0A2D      		mov r16,r10
 932 053c E92C      		mov r14,r9
 933 053e CC24      		clr r12
 934 0540 C394      		inc r12
 935 0542 0E94 0000 		call cube_draw
 936               	.LM129:
 937 0546 83E0      		ldi r24,lo8(3)
 938 0548 90E0      		ldi r25,hi8(3)
 939 054a 0E94 0000 		call led_waitframe
 940               	.L83:
 941               	.LM130:
 942 054e 8091 0000 		lds r24,fallout
 943 0552 8823      		tst r24
 944 0554 01F4      		brne .L87
 945 0556 F814      		cp r15,r8
 946 0558 01F4      		brne .L88
 947 055a 00C0      		rjmp .L87
 948               	.L92:
 949               	.LM131:
 950 055c 0E94 0000 		call led_blank
 951               	.LM132:
 952 0560 D394      		inc r13
 953 0562 B394      		inc r11
 954               	.LM133:
 955 0564 FA94      		dec r15
 956               	.LVL54:
 957               	.LM134:
 958 0566 812F      		mov r24,r17
 959 0568 6D2D      		mov r22,r13
 960 056a 4B2D      		mov r20,r11
 961 056c 2F2D      		mov r18,r15
 962 056e 0A2D      		mov r16,r10
 963 0570 E92C      		mov r14,r9
 964 0572 CC24      		clr r12
 965 0574 C394      		inc r12
 966 0576 0E94 0000 		call cube_draw
 967               	.LM135:
 968 057a 83E0      		ldi r24,lo8(3)
 969 057c 90E0      		ldi r25,hi8(3)
 970 057e 0E94 0000 		call led_waitframe
 971 0582 00C0      		rjmp .L143
 972               	.L87:
 973               	.LM136:
 974 0584 E6E0      		ldi r30,lo8(6)
 975 0586 8E2E      		mov r8,r30
 976 0588 8D0C      		add r8,r13
 977               	.L143:
 978 058a 8091 0000 		lds r24,fallout
 979 058e 8823      		tst r24
 980 0590 01F0      		breq .L90
 981               	.L93:
 982               	.LM137:
 983 0592 7AEF      		ldi r23,lo8(-6)
 984 0594 872E      		mov r8,r23
 985 0596 8D0C      		add r8,r13
 986 0598 00C0      		rjmp .L91
 987               	.L90:
 988               	.LM138:
 989 059a D814      		cp r13,r8
 990 059c 01F4      		brne .L92
 991 059e 00C0      		rjmp .L93
 992               	.L96:
 993               	.LM139:
 994 05a0 0E94 0000 		call led_blank
 995               	.LM140:
 996 05a4 DA94      		dec r13
 997 05a6 BA94      		dec r11
 998               	.LM141:
 999 05a8 F394      		inc r15
 1000               	.LVL55:
 1001               	.LM142:
 1002 05aa 812F      		mov r24,r17
 1003 05ac 6D2D      		mov r22,r13
 1004 05ae 4B2D      		mov r20,r11
 1005 05b0 2F2D      		mov r18,r15
 1006 05b2 0A2D      		mov r16,r10
 1007 05b4 E92C      		mov r14,r9
 1008 05b6 CC24      		clr r12
 1009 05b8 C394      		inc r12
 1010 05ba 0E94 0000 		call cube_draw
 1011               	.LM143:
 1012 05be 83E0      		ldi r24,lo8(3)
 1013 05c0 90E0      		ldi r25,hi8(3)
 1014 05c2 0E94 0000 		call led_waitframe
 1015               	.L91:
 1016               	.LM144:
 1017 05c6 8091 0000 		lds r24,fallout
 1018 05ca 8823      		tst r24
 1019 05cc 01F4      		brne .L95
 1020 05ce D814      		cp r13,r8
 1021 05d0 01F4      		brne .L96
 1022 05d2 00C0      		rjmp .L95
 1023               	.L100:
 1024               	.LM145:
 1025 05d4 0E94 0000 		call led_blank
 1026               	.LM146:
 1027 05d8 1F5F      		subi r17,lo8(-(1))
 1028               	.LVL56:
 1029 05da D394      		inc r13
 1030               	.LM147:
 1031 05dc 9A94      		dec r9
 1032               	.LM148:
 1033 05de 812F      		mov r24,r17
 1034 05e0 6D2D      		mov r22,r13
 1035 05e2 4B2D      		mov r20,r11
 1036 05e4 2F2D      		mov r18,r15
 1037 05e6 0A2D      		mov r16,r10
 1038 05e8 E92C      		mov r14,r9
 1039 05ea CC24      		clr r12
 1040 05ec C394      		inc r12
 1041 05ee 0E94 0000 		call cube_draw
 1042               	.LM149:
 1043 05f2 83E0      		ldi r24,lo8(3)
 1044 05f4 90E0      		ldi r25,hi8(3)
 1045 05f6 0E94 0000 		call led_waitframe
 1046 05fa 00C0      		rjmp .L144
 1047               	.LVL57:
 1048               	.L95:
 1049               	.LM150:
 1050 05fc 66E0      		ldi r22,lo8(6)
 1051 05fe 862E      		mov r8,r22
 1052 0600 810E      		add r8,r17
 1053               	.L144:
 1054 0602 8091 0000 		lds r24,fallout
 1055 0606 8823      		tst r24
 1056 0608 01F0      		breq .L98
 1057               	.L101:
 1058               	.LM151:
 1059 060a 5AEF      		ldi r21,lo8(-6)
 1060 060c 852E      		mov r8,r21
 1061 060e 810E      		add r8,r17
 1062 0610 00C0      		rjmp .L99
 1063               	.L98:
 1064               	.LM152:
 1065 0612 1815      		cp r17,r8
 1066 0614 01F4      		brne .L100
 1067 0616 00C0      		rjmp .L101
 1068               	.L104:
 1069               	.LM153:
 1070 0618 0E94 0000 		call led_blank
 1071               	.LM154:
 1072 061c 1150      		subi r17,lo8(-(-1))
 1073               	.LVL58:
 1074 061e DA94      		dec r13
 1075               	.LM155:
 1076 0620 9394      		inc r9
 1077               	.LM156:
 1078 0622 812F      		mov r24,r17
 1079 0624 6D2D      		mov r22,r13
 1080 0626 4B2D      		mov r20,r11
 1081 0628 2F2D      		mov r18,r15
 1082 062a 0A2D      		mov r16,r10
 1083 062c E92C      		mov r14,r9
 1084 062e CC24      		clr r12
 1085 0630 C394      		inc r12
 1086 0632 0E94 0000 		call cube_draw
 1087               	.LM157:
 1088 0636 83E0      		ldi r24,lo8(3)
 1089 0638 90E0      		ldi r25,hi8(3)
 1090 063a 0E94 0000 		call led_waitframe
 1091               	.LVL59:
 1092               	.L99:
 1093               	.LM158:
 1094 063e 8091 0000 		lds r24,fallout
 1095 0642 8823      		tst r24
 1096 0644 01F0      		breq .L102
 1097               	.L105:
 1098               	.LM159:
 1099 0646 46E0      		ldi r20,lo8(6)
 1100 0648 842E      		mov r8,r20
 1101 064a 810E      		add r8,r17
 1102 064c 00C0      		rjmp .L103
 1103               	.L102:
 1104               	.LM160:
 1105 064e 1815      		cp r17,r8
 1106 0650 01F4      		brne .L104
 1107 0652 00C0      		rjmp .L105
 1108               	.L108:
 1109               	.LM161:
 1110 0654 0E94 0000 		call led_blank
 1111               	.LM162:
 1112 0658 1F5F      		subi r17,lo8(-(1))
 1113               	.LVL60:
 1114 065a B394      		inc r11
 1115               	.LM163:
 1116 065c AA94      		dec r10
 1117               	.LM164:
 1118 065e 812F      		mov r24,r17
 1119 0660 6D2D      		mov r22,r13
 1120 0662 4B2D      		mov r20,r11
 1121 0664 2F2D      		mov r18,r15
 1122 0666 0A2D      		mov r16,r10
 1123 0668 E92C      		mov r14,r9
 1124 066a CC24      		clr r12
 1125 066c C394      		inc r12
 1126 066e 0E94 0000 		call cube_draw
 1127               	.LM165:
 1128 0672 83E0      		ldi r24,lo8(3)
 1129 0674 90E0      		ldi r25,hi8(3)
 1130 0676 0E94 0000 		call led_waitframe
 1131               	.LVL61:
 1132               	.L103:
 1133               	.LM166:
 1134 067a 8091 0000 		lds r24,fallout
 1135 067e 8823      		tst r24
 1136 0680 01F0      		breq .L106
 1137               	.L109:
 1138               	.LM167:
 1139 0682 3AEF      		ldi r19,lo8(-6)
 1140 0684 832E      		mov r8,r19
 1141 0686 810E      		add r8,r17
 1142 0688 00C0      		rjmp .L107
 1143               	.L106:
 1144               	.LM168:
 1145 068a 1815      		cp r17,r8
 1146 068c 01F4      		brne .L108
 1147 068e 00C0      		rjmp .L109
 1148               	.L112:
 1149               	.LM169:
 1150 0690 0E94 0000 		call led_blank
 1151               	.LM170:
 1152 0694 1150      		subi r17,lo8(-(-1))
 1153               	.LVL62:
 1154 0696 BA94      		dec r11
 1155               	.LM171:
 1156 0698 A394      		inc r10
 1157               	.LM172:
 1158 069a 812F      		mov r24,r17
 1159 069c 6D2D      		mov r22,r13
 1160 069e 4B2D      		mov r20,r11
 1161 06a0 2F2D      		mov r18,r15
 1162 06a2 0A2D      		mov r16,r10
 1163 06a4 E92C      		mov r14,r9
 1164 06a6 CC24      		clr r12
 1165 06a8 C394      		inc r12
 1166 06aa 0E94 0000 		call cube_draw
 1167               	.LM173:
 1168 06ae 83E0      		ldi r24,lo8(3)
 1169 06b0 90E0      		ldi r25,hi8(3)
 1170 06b2 0E94 0000 		call led_waitframe
 1171               	.LVL63:
 1172               	.L107:
 1173               	.LM174:
 1174 06b6 8091 0000 		lds r24,fallout
 1175 06ba 8823      		tst r24
 1176 06bc 01F0      		breq .L110
 1177               	.L113:
 1178               	.LM175:
 1179 06be 26E0      		ldi r18,lo8(6)
 1180 06c0 822E      		mov r8,r18
 1181 06c2 8D0C      		add r8,r13
 1182 06c4 00C0      		rjmp .L111
 1183               	.L110:
 1184               	.LM176:
 1185 06c6 1815      		cp r17,r8
 1186 06c8 01F4      		brne .L112
 1187 06ca 00C0      		rjmp .L113
 1188               	.L116:
 1189               	.LM177:
 1190 06cc 0E94 0000 		call led_blank
 1191               	.LM178:
 1192 06d0 FA94      		dec r15
 1193               	.LVL64:
 1194 06d2 9A94      		dec r9
 1195               	.LM179:
 1196 06d4 D394      		inc r13
 1197               	.LM180:
 1198 06d6 812F      		mov r24,r17
 1199 06d8 6D2D      		mov r22,r13
 1200 06da 4B2D      		mov r20,r11
 1201 06dc 2F2D      		mov r18,r15
 1202 06de 0A2D      		mov r16,r10
 1203 06e0 E92C      		mov r14,r9
 1204 06e2 CC24      		clr r12
 1205 06e4 C394      		inc r12
 1206 06e6 0E94 0000 		call cube_draw
 1207               	.LM181:
 1208 06ea 83E0      		ldi r24,lo8(3)
 1209 06ec 90E0      		ldi r25,hi8(3)
 1210 06ee 0E94 0000 		call led_waitframe
 1211               	.L111:
 1212               	.LM182:
 1213 06f2 8091 0000 		lds r24,fallout
 1214 06f6 8823      		tst r24
 1215 06f8 01F0      		breq .L114
 1216               	.L117:
 1217               	.LM183:
 1218 06fa 9AEF      		ldi r25,lo8(-6)
 1219 06fc 892E      		mov r8,r25
 1220 06fe 8D0C      		add r8,r13
 1221 0700 00C0      		rjmp .L115
 1222               	.L114:
 1223               	.LM184:
 1224 0702 D814      		cp r13,r8
 1225 0704 01F4      		brne .L116
 1226 0706 00C0      		rjmp .L117
 1227               	.L120:
 1228               	.LM185:
 1229 0708 0E94 0000 		call led_blank
 1230               	.LM186:
 1231 070c F394      		inc r15
 1232               	.LVL65:
 1233 070e 9394      		inc r9
 1234               	.LM187:
 1235 0710 DA94      		dec r13
 1236               	.LM188:
 1237 0712 812F      		mov r24,r17
 1238 0714 6D2D      		mov r22,r13
 1239 0716 4B2D      		mov r20,r11
 1240 0718 2F2D      		mov r18,r15
 1241 071a 0A2D      		mov r16,r10
 1242 071c E92C      		mov r14,r9
 1243 071e CC24      		clr r12
 1244 0720 C394      		inc r12
 1245 0722 0E94 0000 		call cube_draw
 1246               	.LM189:
 1247 0726 83E0      		ldi r24,lo8(3)
 1248 0728 90E0      		ldi r25,hi8(3)
 1249 072a 0E94 0000 		call led_waitframe
 1250               	.L115:
 1251               	.LM190:
 1252 072e 8091 0000 		lds r24,fallout
 1253 0732 8823      		tst r24
 1254 0734 01F0      		breq .L118
 1255               	.L121:
 1256               	.LM191:
 1257 0736 86E0      		ldi r24,lo8(6)
 1258 0738 882E      		mov r8,r24
 1259 073a 810E      		add r8,r17
 1260 073c 00C0      		rjmp .L119
 1261               	.L118:
 1262               	.LM192:
 1263 073e D814      		cp r13,r8
 1264 0740 01F4      		brne .L120
 1265 0742 00C0      		rjmp .L121
 1266               	.L124:
 1267               	.LM193:
 1268 0744 0E94 0000 		call led_blank
 1269               	.LM194:
 1270 0748 AA94      		dec r10
 1271 074a 9A94      		dec r9
 1272               	.LM195:
 1273 074c 1F5F      		subi r17,lo8(-(1))
 1274               	.LVL66:
 1275               	.LM196:
 1276 074e 812F      		mov r24,r17
 1277 0750 6D2D      		mov r22,r13
 1278 0752 4B2D      		mov r20,r11
 1279 0754 2F2D      		mov r18,r15
 1280 0756 0A2D      		mov r16,r10
 1281 0758 E92C      		mov r14,r9
 1282 075a CC24      		clr r12
 1283 075c C394      		inc r12
 1284 075e 0E94 0000 		call cube_draw
 1285               	.LM197:
 1286 0762 83E0      		ldi r24,lo8(3)
 1287 0764 90E0      		ldi r25,hi8(3)
 1288 0766 0E94 0000 		call led_waitframe
 1289               	.LVL67:
 1290               	.L119:
 1291               	.LM198:
 1292 076a 8091 0000 		lds r24,fallout
 1293 076e 8823      		tst r24
 1294 0770 01F0      		breq .L122
 1295               	.L125:
 1296               	.LM199:
 1297 0772 0AEF      		ldi r16,lo8(-6)
 1298 0774 802E      		mov r8,r16
 1299 0776 810E      		add r8,r17
 1300 0778 00C0      		rjmp .L123
 1301               	.L122:
 1302               	.LM200:
 1303 077a 1815      		cp r17,r8
 1304 077c 01F4      		brne .L124
 1305 077e 00C0      		rjmp .L125
 1306               	.L128:
 1307               	.LM201:
 1308 0780 0E94 0000 		call led_blank
 1309               	.LM202:
 1310 0784 A394      		inc r10
 1311 0786 9394      		inc r9
 1312               	.LM203:
 1313 0788 1150      		subi r17,lo8(-(-1))
 1314               	.LVL68:
 1315               	.LM204:
 1316 078a 812F      		mov r24,r17
 1317 078c 6D2D      		mov r22,r13
 1318 078e 4B2D      		mov r20,r11
 1319 0790 2F2D      		mov r18,r15
 1320 0792 0A2D      		mov r16,r10
 1321 0794 E92C      		mov r14,r9
 1322 0796 CC24      		clr r12
 1323 0798 C394      		inc r12
 1324 079a 0E94 0000 		call cube_draw
 1325               	.LM205:
 1326 079e 83E0      		ldi r24,lo8(3)
 1327 07a0 90E0      		ldi r25,hi8(3)
 1328 07a2 0E94 0000 		call led_waitframe
 1329               	.LVL69:
 1330               	.L123:
 1331               	.LM206:
 1332 07a6 8091 0000 		lds r24,fallout
 1333 07aa 8823      		tst r24
 1334 07ac 01F4      		brne .L127
 1335 07ae 1815      		cp r17,r8
 1336 07b0 01F4      		brne .L128
 1337 07b2 00C0      		rjmp .L127
 1338               	.L132:
 1339               	.LM207:
 1340 07b4 0E94 0000 		call led_blank
 1341               	.LM208:
 1342 07b8 AA94      		dec r10
 1343 07ba FA94      		dec r15
 1344               	.LVL70:
 1345               	.LM209:
 1346 07bc B394      		inc r11
 1347               	.LM210:
 1348 07be 812F      		mov r24,r17
 1349 07c0 6D2D      		mov r22,r13
 1350 07c2 4B2D      		mov r20,r11
 1351 07c4 2F2D      		mov r18,r15
 1352 07c6 0A2D      		mov r16,r10
 1353 07c8 E92C      		mov r14,r9
 1354 07ca CC24      		clr r12
 1355 07cc C394      		inc r12
 1356 07ce 0E94 0000 		call cube_draw
 1357               	.LM211:
 1358 07d2 83E0      		ldi r24,lo8(3)
 1359 07d4 90E0      		ldi r25,hi8(3)
 1360 07d6 0E94 0000 		call led_waitframe
 1361 07da 00C0      		rjmp .L145
 1362               	.L127:
 1363               	.LM212:
 1364 07dc BAEF      		ldi r27,lo8(-6)
 1365 07de 8B2E      		mov r8,r27
 1366 07e0 8F0C      		add r8,r15
 1367               	.L145:
 1368 07e2 8091 0000 		lds r24,fallout
 1369 07e6 8823      		tst r24
 1370 07e8 01F0      		breq .L130
 1371               	.L133:
 1372               	.LM213:
 1373 07ea A6E0      		ldi r26,lo8(6)
 1374 07ec 8A2E      		mov r8,r26
 1375 07ee 8F0C      		add r8,r15
 1376 07f0 00C0      		rjmp .L131
 1377               	.L130:
 1378               	.LM214:
 1379 07f2 F814      		cp r15,r8
 1380 07f4 01F4      		brne .L132
 1381 07f6 00C0      		rjmp .L133
 1382               	.L135:
 1383               	.LM215:
 1384 07f8 0E94 0000 		call led_blank
 1385               	.LM216:
 1386 07fc A394      		inc r10
 1387 07fe F394      		inc r15
 1388               	.LVL71:
 1389               	.LM217:
 1390 0800 BA94      		dec r11
 1391               	.LM218:
 1392 0802 812F      		mov r24,r17
 1393 0804 6D2D      		mov r22,r13
 1394 0806 4B2D      		mov r20,r11
 1395 0808 2F2D      		mov r18,r15
 1396 080a 0A2D      		mov r16,r10
 1397 080c E92C      		mov r14,r9
 1398 080e CC24      		clr r12
 1399 0810 C394      		inc r12
 1400 0812 0E94 0000 		call cube_draw
 1401               	.LM219:
 1402 0816 83E0      		ldi r24,lo8(3)
 1403 0818 90E0      		ldi r25,hi8(3)
 1404 081a 0E94 0000 		call led_waitframe
 1405               	.L131:
 1406               	.LM220:
 1407 081e 8091 0000 		lds r24,fallout
 1408 0822 8823      		tst r24
 1409 0824 01F4      		brne .L72
 1410 0826 F814      		cp r15,r8
 1411 0828 01F4      		brne .L135
 1412               	.L72:
 1413               	.LM221:
 1414 082a 8091 0000 		lds r24,fallout
 1415 082e 8823      		tst r24
 1416 0830 01F0      		breq .L136
 1417               	.L139:
 1418               	.LM222:
 1419 0832 F3E0      		ldi r31,lo8(3)
 1420 0834 8F2E      		mov r8,r31
 1421 0836 810E      		add r8,r17
 1422 0838 00C0      		rjmp .L137
 1423               	.L136:
 1424               	.LM223:
 1425 083a 8091 0000 		lds r24,duration
 1426 083e 9091 0000 		lds r25,(duration)+1
 1427 0842 892B      		or r24,r25
 1428 0844 01F4      		brne .+2
 1429 0846 00C0      		rjmp .L138
 1430 0848 8091 0000 		lds r24,time
 1431 084c 9091 0000 		lds r25,(time)+1
 1432 0850 892B      		or r24,r25
 1433 0852 01F0      		breq .+2
 1434 0854 00C0      		rjmp .L138
 1435 0856 00C0      		rjmp .L139
 1436               	.L141:
 1437               	.LM224:
 1438 0858 0E94 0000 		call led_blank
 1439               	.LM225:
 1440 085c 1F5F      		subi r17,lo8(-(1))
 1441               	.LVL72:
 1442 085e D394      		inc r13
 1443 0860 B394      		inc r11
 1444               	.LM226:
 1445 0862 FA94      		dec r15
 1446 0864 AA94      		dec r10
 1447 0866 9A94      		dec r9
 1448               	.LM227:
 1449 0868 812F      		mov r24,r17
 1450 086a 6D2D      		mov r22,r13
 1451 086c 4B2D      		mov r20,r11
 1452 086e 2F2D      		mov r18,r15
 1453 0870 0A2D      		mov r16,r10
 1454 0872 E92C      		mov r14,r9
 1455 0874 CC24      		clr r12
 1456 0876 C394      		inc r12
 1457 0878 0E94 0000 		call cube_draw
 1458               	.LM228:
 1459 087c 83E0      		ldi r24,lo8(3)
 1460 087e 90E0      		ldi r25,hi8(3)
 1461 0880 0E94 0000 		call led_waitframe
 1462               	.LVL73:
 1463               	.L137:
 1464               	.LM229:
 1465 0884 8091 0000 		lds r24,fallout
 1466 0888 8823      		tst r24
 1467 088a 01F4      		brne .L140
 1468 088c 1815      		cp r17,r8
 1469 088e 01F4      		brne .L141
 1470               	.L140:
 1471               	.LM230:
 1472 0890 0E94 0000 		call led_blank
 1473               	.LM231:
 1474 0894 81E0      		ldi r24,lo8(1)
 1475 0896 90E0      		ldi r25,hi8(1)
 1476 0898 0E94 0000 		call led_waitframe
 1477               	/* epilogue start */
 1478               	.LM232:
 1479 089c 1F91      		pop r17
 1480               	.LVL74:
 1481 089e 0F91      		pop r16
 1482 08a0 FF90      		pop r15
 1483               	.LVL75:
 1484 08a2 EF90      		pop r14
 1485 08a4 DF90      		pop r13
 1486               	.LVL76:
 1487 08a6 CF90      		pop r12
 1488 08a8 BF90      		pop r11
 1489               	.LVL77:
 1490 08aa AF90      		pop r10
 1491               	.LVL78:
 1492 08ac 9F90      		pop r9
 1493               	.LVL79:
 1494 08ae 8F90      		pop r8
 1495 08b0 0895      		ret
 1496               	.LFE28:
 1499               	physical_process:
 1500               	.LFB36:
 1501               	.LM233:
 1502               	.LVL80:
 1503 08b2 EF92      		push r14
 1504 08b4 FF92      		push r15
 1505 08b6 0F93      		push r16
 1506 08b8 1F93      		push r17
 1507               	/* prologue: function */
 1508               	/* frame size = 0 */
 1509 08ba F82E      		mov r15,r24
 1510 08bc E92E      		mov r14,r25
 1511               	.LVL81:
 1512               	.LM234:
 1513 08be A0E0      		ldi r26,lo8(physical.3148)
 1514 08c0 B0E0      		ldi r27,hi8(physical.3148)
 1515 08c2 9C01      		movw r18,r24
 1516               	.LVL82:
 1517 08c4 F901      		movw r30,r18
 1518 08c6 83E1      		ldi r24,lo8(19)
 1519               	.LVL83:
 1520               	.L147:
 1521 08c8 0190      		ld r0,Z+
 1522 08ca 0D92      		st X+,r0
 1523 08cc 8150      		subi r24,lo8(-(-1))
 1524 08ce 01F4      		brne .L147
 1525               	.LM235:
 1526 08d0 8091 0000 		lds r24,physical.3148+18
 1527 08d4 8130      		cpi r24,lo8(1)
 1528 08d6 01F0      		breq .+2
 1529 08d8 00C0      		rjmp .L151
 1530               	.LM236:
 1531 08da 0091 0000 		lds r16,physical.3148+6
 1532 08de 1091 0000 		lds r17,(physical.3148+6)+1
 1533 08e2 6091 0000 		lds r22,physical.3148
 1534 08e6 7091 0000 		lds r23,(physical.3148)+1
 1535 08ea 600F      		add r22,r16
 1536 08ec 711F      		adc r23,r17
 1537 08ee 7093 0000 		sts (physical.3148)+1,r23
 1538 08f2 6093 0000 		sts physical.3148,r22
 1539               	.LM237:
 1540 08f6 A091 0000 		lds r26,physical.3148+8
 1541 08fa B091 0000 		lds r27,(physical.3148+8)+1
 1542 08fe 2091 0000 		lds r18,physical.3148+2
 1543 0902 3091 0000 		lds r19,(physical.3148+2)+1
 1544 0906 2A0F      		add r18,r26
 1545 0908 3B1F      		adc r19,r27
 1546 090a 3093 0000 		sts (physical.3148+2)+1,r19
 1547 090e 2093 0000 		sts physical.3148+2,r18
 1548               	.LM238:
 1549 0912 E091 0000 		lds r30,physical.3148+10
 1550 0916 F091 0000 		lds r31,(physical.3148+10)+1
 1551               	.LVL84:
 1552 091a 4091 0000 		lds r20,physical.3148+4
 1553 091e 5091 0000 		lds r21,(physical.3148+4)+1
 1554 0922 4E0F      		add r20,r30
 1555 0924 5F1F      		adc r21,r31
 1556 0926 5093 0000 		sts (physical.3148+4)+1,r21
 1557 092a 4093 0000 		sts physical.3148+4,r20
 1558               	.LM239:
 1559 092e 8091 0000 		lds r24,physical.3148+12
 1560 0932 9091 0000 		lds r25,(physical.3148+12)+1
 1561 0936 800F      		add r24,r16
 1562 0938 911F      		adc r25,r17
 1563 093a 9093 0000 		sts (physical.3148+6)+1,r25
 1564 093e 8093 0000 		sts physical.3148+6,r24
 1565               	.LM240:
 1566 0942 8091 0000 		lds r24,physical.3148+14
 1567 0946 9091 0000 		lds r25,(physical.3148+14)+1
 1568 094a 8A0F      		add r24,r26
 1569 094c 9B1F      		adc r25,r27
 1570 094e 9093 0000 		sts (physical.3148+8)+1,r25
 1571 0952 8093 0000 		sts physical.3148+8,r24
 1572               	.LM241:
 1573 0956 8091 0000 		lds r24,physical.3148+16
 1574 095a 9091 0000 		lds r25,(physical.3148+16)+1
 1575 095e 8E0F      		add r24,r30
 1576 0960 9F1F      		adc r25,r31
 1577 0962 9093 0000 		sts (physical.3148+10)+1,r25
 1578 0966 8093 0000 		sts physical.3148+10,r24
 1579               	.LM242:
 1580 096a 262B      		or r18,r22
 1581 096c 372B      		or r19,r23
 1582 096e 242B      		or r18,r20
 1583 0970 352B      		or r19,r21
 1584 0972 37FF      		sbrs r19,7
 1585 0974 00C0      		rjmp .L149
 1586               	.LM243:
 1587 0976 1092 0000 		sts physical.3148+18,__zero_reg__
 1588               	.L149:
 1589               	.LM244:
 1590 097a 8F2D      		mov r24,r15
 1591 097c 9E2D      		mov r25,r14
 1592 097e 9C01      		movw r18,r24
 1593 0980 D901      		movw r26,r18
 1594 0982 E0E0      		ldi r30,lo8(physical.3148)
 1595 0984 F0E0      		ldi r31,hi8(physical.3148)
 1596 0986 83E1      		ldi r24,lo8(19)
 1597               	.LVL85:
 1598               	.L150:
 1599 0988 0190      		ld r0,Z+
 1600 098a 0D92      		st X+,r0
 1601 098c 8150      		subi r24,lo8(-(-1))
 1602 098e 01F4      		brne .L150
 1603               	.LVL86:
 1604               	.L151:
 1605               	/* epilogue start */
 1606               	.LM245:
 1607 0990 1F91      		pop r17
 1608 0992 0F91      		pop r16
 1609 0994 FF90      		pop r15
 1610 0996 EF90      		pop r14
 1611 0998 0895      		ret
 1612               	.LFE36:
 1615               	firework_init:
 1616               	.LFB38:
 1617               	.LM246:
 1618               	.LVL87:
 1619 099a 0F93      		push r16
 1620 099c 1F93      		push r17
 1621               	/* prologue: function */
 1622               	/* frame size = 0 */
 1623 099e 8C01      		movw r16,r24
 1624               	.LM247:
 1625 09a0 0E94 0000 		call rand
 1626               	.LVL88:
 1627 09a4 9F77      		andi r25,hi8(32767)
 1628 09a6 F801      		movw r30,r16
 1629 09a8 9283      		std Z+2,r25
 1630 09aa 8183      		std Z+1,r24
 1631               	.LM248:
 1632 09ac 8FEF      		ldi r24,lo8(32767)
 1633 09ae 9FE7      		ldi r25,hi8(32767)
 1634 09b0 9483      		std Z+4,r25
 1635 09b2 8383      		std Z+3,r24
 1636               	.LM249:
 1637 09b4 0E94 0000 		call rand
 1638 09b8 9F77      		andi r25,hi8(32767)
 1639 09ba F801      		movw r30,r16
 1640 09bc 9683      		std Z+6,r25
 1641 09be 8583      		std Z+5,r24
 1642               	.LM250:
 1643 09c0 1086      		std Z+8,__zero_reg__
 1644 09c2 1782      		std Z+7,__zero_reg__
 1645               	.LM251:
 1646 09c4 0E94 0000 		call rand
 1647 09c8 2CEE      		ldi r18,lo8(-1300)
 1648 09ca 3AEF      		ldi r19,hi8(-1300)
 1649 09cc 281B      		sub r18,r24
 1650 09ce 3109      		sbc r19,__zero_reg__
 1651 09d0 F801      		movw r30,r16
 1652 09d2 3287      		std Z+10,r19
 1653 09d4 2187      		std Z+9,r18
 1654               	.LM252:
 1655 09d6 1486      		std Z+12,__zero_reg__
 1656 09d8 1386      		std Z+11,__zero_reg__
 1657               	.LM253:
 1658 09da 1686      		std Z+14,__zero_reg__
 1659 09dc 1586      		std Z+13,__zero_reg__
 1660               	.LM254:
 1661 09de 82E3      		ldi r24,lo8(50)
 1662 09e0 90E0      		ldi r25,hi8(50)
 1663 09e2 908B      		std Z+16,r25
 1664 09e4 8787      		std Z+15,r24
 1665               	.LM255:
 1666 09e6 128A      		std Z+18,__zero_reg__
 1667 09e8 118A      		std Z+17,__zero_reg__
 1668               	.LM256:
 1669 09ea 81E0      		ldi r24,lo8(1)
 1670 09ec 838B      		std Z+19,r24
 1671               	.LM257:
 1672 09ee 1082      		st Z,__zero_reg__
 1673               	/* epilogue start */
 1674               	.LM258:
 1675 09f0 1F91      		pop r17
 1676 09f2 0F91      		pop r16
 1677               	.LVL89:
 1678 09f4 0895      		ret
 1679               	.LFE38:
 1681               	.global	pattern_fireworks
 1683               	pattern_fireworks:
 1684               	.LFB33:
 1685               	.LM259:
 1686 09f6 2F92      		push r2
 1687 09f8 3F92      		push r3
 1688 09fa 4F92      		push r4
 1689 09fc 5F92      		push r5
 1690 09fe 6F92      		push r6
 1691 0a00 7F92      		push r7
 1692 0a02 8F92      		push r8
 1693 0a04 9F92      		push r9
 1694 0a06 AF92      		push r10
 1695 0a08 BF92      		push r11
 1696 0a0a CF92      		push r12
 1697 0a0c DF92      		push r13
 1698 0a0e EF92      		push r14
 1699 0a10 FF92      		push r15
 1700 0a12 0F93      		push r16
 1701 0a14 1F93      		push r17
 1702 0a16 DF93      		push r29
 1703 0a18 CF93      		push r28
 1704 0a1a CDB7      		in r28,__SP_L__
 1705 0a1c DEB7      		in r29,__SP_H__
 1706 0a1e CC59      		subi r28,lo8(-(-1180))
 1707 0a20 D440      		sbci r29,hi8(-(-1180))
 1708 0a22 0FB6      		in __tmp_reg__,__SREG__
 1709 0a24 F894      		cli
 1710 0a26 DEBF      		out __SP_H__,r29
 1711 0a28 0FBE      		out __SREG__,__tmp_reg__
 1712 0a2a CDBF      		out __SP_L__,r28
 1713               	/* prologue: function */
 1714               	/* frame size = 1180 */
 1715               	.LM260:
 1716 0a2c 1092 0000 		sts fallout,__zero_reg__
 1717               	.LM261:
 1718 0a30 82E3      		ldi r24,lo8(50)
 1719 0a32 90E0      		ldi r25,hi8(50)
 1720 0a34 0E94 0000 		call led_framerate
 1721               	.LM262:
 1722 0a38 0E94 0000 		call led_blank
 1723               	.LM263:
 1724 0a3c 8FEF      		ldi r24,lo8(-1)
 1725 0a3e 0E94 0000 		call led_plane_intensity_all
 1726               	.LM264:
 1727 0a42 8091 0000 		lds r24,duration
 1728 0a46 9091 0000 		lds r25,(duration)+1
 1729 0a4a 9093 0000 		sts (time)+1,r25
 1730 0a4e 8093 0000 		sts time,r24
 1731               	.LM265:
 1732 0a52 8E01      		movw r16,r28
 1733 0a54 0F5F      		subi r16,lo8(-(1))
 1734 0a56 1F4F      		sbci r17,hi8(-(1))
 1735 0a58 C801      		movw r24,r16
 1736 0a5a 0E94 0000 		call firework_init
 1737 0a5e CE01      		movw r24,r28
 1738 0a60 815B      		subi r24,lo8(-(591))
 1739 0a62 9D4F      		sbci r25,hi8(-(591))
 1740 0a64 0E94 0000 		call firework_init
 1741 0a68 90E0      		ldi r25,lo8(0)
 1742               	.LVL90:
 1743               	.LM266:
 1744 0a6a 1801      		movw r2,r16
 1745               	.LM267:
 1746 0a6c 32E0      		ldi r19,lo8(2)
 1747 0a6e 432E      		mov r4,r19
 1748 0a70 00C0      		rjmp .L157
 1749               	.LVL91:
 1750               	.L171:
 1751               	.LM268:
 1752 0a72 0E94 0000 		call led_blank
 1753               	.LVL92:
 1754 0a76 5101      		movw r10,r2
 1755 0a78 11E0      		ldi r17,lo8(1)
 1756 0a7a 6624      		clr r6
 1757 0a7c 7724      		clr r7
 1758               	.L169:
 1759               	.LM269:
 1760 0a7e F501      		movw r30,r10
 1761 0a80 8081      		ld r24,Z
 1762 0a82 8823      		tst r24
 1763 0a84 01F0      		breq .+2
 1764 0a86 00C0      		rjmp .L158
 1765               	.LM270:
 1766 0a88 2EE4      		ldi r18,lo8(590)
 1767 0a8a 32E0      		ldi r19,hi8(590)
 1768 0a8c 629E      		mul r6,r18
 1769 0a8e 8001      		movw r16,r0
 1770 0a90 639E      		mul r6,r19
 1771 0a92 100D      		add r17,r0
 1772 0a94 729E      		mul r7,r18
 1773 0a96 100D      		add r17,r0
 1774 0a98 1124      		clr r1
 1775 0a9a 0F5F      		subi r16,lo8(-(1))
 1776 0a9c 1F4F      		sbci r17,hi8(-(1))
 1777 0a9e 4101      		movw r8,r2
 1778 0aa0 800E      		add r8,r16
 1779 0aa2 911E      		adc r9,r17
 1780 0aa4 0150      		subi r16,lo8(-(-1))
 1781 0aa6 1040      		sbci r17,hi8(-(-1))
 1782 0aa8 C401      		movw r24,r8
 1783 0aaa 0E94 0000 		call physical_process
 1784               	.LM271:
 1785 0aae F501      		movw r30,r10
 1786 0ab0 8389      		ldd r24,Z+19
 1787 0ab2 8823      		tst r24
 1788 0ab4 01F4      		brne .+2
 1789 0ab6 00C0      		rjmp .L178
 1790               	.L159:
 1791               	.LM272:
 1792 0ab8 F501      		movw r30,r10
 1793 0aba 8185      		ldd r24,Z+9
 1794 0abc 9285      		ldd r25,Z+10
 1795 0abe 1816      		cp __zero_reg__,r24
 1796 0ac0 1906      		cpc __zero_reg__,r25
 1797 0ac2 04F0      		brlt .+2
 1798 0ac4 00C0      		rjmp .L161
 1799 0ac6 2AE1      		ldi r18,lo8(26)
 1800 0ac8 E22E      		mov r14,r18
 1801 0aca F12C      		mov r15,__zero_reg__
 1802 0acc E00E      		add r14,r16
 1803 0ace F11E      		adc r15,r17
 1804 0ad0 E20C      		add r14,r2
 1805 0ad2 F31C      		adc r15,r3
 1806 0ad4 CC24      		clr r12
 1807 0ad6 DD24      		clr r13
 1808               	.L163:
 1809               	.LM273:
 1810 0ad8 23E1      		ldi r18,lo8(19)
 1811 0ada 30E0      		ldi r19,hi8(19)
 1812 0adc C29E      		mul r12,r18
 1813 0ade F001      		movw r30,r0
 1814 0ae0 C39E      		mul r12,r19
 1815 0ae2 F00D      		add r31,r0
 1816 0ae4 D29E      		mul r13,r18
 1817 0ae6 F00D      		add r31,r0
 1818 0ae8 1124      		clr r1
 1819 0aea E00F      		add r30,r16
 1820 0aec F11F      		adc r31,r17
 1821 0aee 7496      		adiw r30,20
 1822 0af0 E20D      		add r30,r2
 1823 0af2 F31D      		adc r31,r3
 1824 0af4 D401      		movw r26,r8
 1825 0af6 83E1      		ldi r24,lo8(19)
 1826               	.L162:
 1827 0af8 0D90      		ld r0,X+
 1828 0afa 0192      		st Z+,r0
 1829 0afc 8150      		subi r24,lo8(-(-1))
 1830 0afe 01F4      		brne .L162
 1831               	.LM274:
 1832 0b00 0E94 0000 		call rand
 1833 0b04 9370      		andi r25,hi8(1023)
 1834 0b06 8050      		subi r24,lo8(-(-512))
 1835 0b08 9240      		sbci r25,hi8(-(-512))
 1836 0b0a F701      		movw r30,r14
 1837 0b0c 9183      		std Z+1,r25
 1838 0b0e 8083      		st Z,r24
 1839               	.LM275:
 1840 0b10 0E94 0000 		call rand
 1841 0b14 9370      		andi r25,hi8(1023)
 1842 0b16 8050      		subi r24,lo8(-(-512))
 1843 0b18 9240      		sbci r25,hi8(-(-512))
 1844 0b1a F701      		movw r30,r14
 1845 0b1c 9583      		std Z+5,r25
 1846 0b1e 8483      		std Z+4,r24
 1847               	.LM276:
 1848 0b20 0E94 0000 		call rand
 1849 0b24 9370      		andi r25,hi8(1023)
 1850 0b26 885E      		subi r24,lo8(-(-1000))
 1851 0b28 9340      		sbci r25,hi8(-(-1000))
 1852 0b2a F701      		movw r30,r14
 1853 0b2c 9383      		std Z+3,r25
 1854 0b2e 8283      		std Z+2,r24
 1855 0b30 0894      		sec
 1856 0b32 C11C      		adc r12,__zero_reg__
 1857 0b34 D11C      		adc r13,__zero_reg__
 1858 0b36 23E1      		ldi r18,lo8(19)
 1859 0b38 30E0      		ldi r19,hi8(19)
 1860 0b3a E20E      		add r14,r18
 1861 0b3c F31E      		adc r15,r19
 1862               	.LM277:
 1863 0b3e 3EE1      		ldi r19,lo8(30)
 1864 0b40 C316      		cp r12,r19
 1865 0b42 D104      		cpc r13,__zero_reg__
 1866 0b44 01F4      		brne .L163
 1867               	.LM278:
 1868 0b46 21E0      		ldi r18,lo8(1)
 1869 0b48 F501      		movw r30,r10
 1870 0b4a 2083      		st Z,r18
 1871               	.LM279:
 1872 0b4c 138A      		std Z+19,__zero_reg__
 1873 0b4e 00C0      		rjmp .L177
 1874               	.L161:
 1875               	.LM280:
 1876 0b50 C401      		movw r24,r8
 1877 0b52 61E0      		ldi r22,lo8(1)
 1878 0b54 0E94 0000 		call physical_plot
 1879 0b58 00C0      		rjmp .L177
 1880               	.L158:
 1881               	.LM281:
 1882 0b5a 8130      		cpi r24,lo8(1)
 1883 0b5c 01F4      		brne .L164
 1884 0b5e EEE4      		ldi r30,lo8(590)
 1885 0b60 F2E0      		ldi r31,hi8(590)
 1886 0b62 6E9E      		mul r6,r30
 1887 0b64 C001      		movw r24,r0
 1888 0b66 6F9E      		mul r6,r31
 1889 0b68 900D      		add r25,r0
 1890 0b6a 7E9E      		mul r7,r30
 1891 0b6c 900D      		add r25,r0
 1892 0b6e 1124      		clr r1
 1893 0b70 8696      		adiw r24,38
 1894 0b72 6101      		movw r12,r2
 1895 0b74 C80E      		add r12,r24
 1896 0b76 D91E      		adc r13,r25
 1897 0b78 8697      		sbiw r24,38
 1898 0b7a 5524      		clr r5
 1899 0b7c 5394      		inc r5
 1900 0b7e EE24      		clr r14
 1901 0b80 FF24      		clr r15
 1902               	.LM282:
 1903 0b82 4C01      		movw r8,r24
 1904               	.L166:
 1905 0b84 23E1      		ldi r18,lo8(19)
 1906 0b86 30E0      		ldi r19,hi8(19)
 1907 0b88 E29E      		mul r14,r18
 1908 0b8a 8001      		movw r16,r0
 1909 0b8c E39E      		mul r14,r19
 1910 0b8e 100D      		add r17,r0
 1911 0b90 F29E      		mul r15,r18
 1912 0b92 100D      		add r17,r0
 1913 0b94 1124      		clr r1
 1914 0b96 080D      		add r16,r8
 1915 0b98 191D      		adc r17,r9
 1916 0b9a 0C5E      		subi r16,lo8(-(20))
 1917 0b9c 1F4F      		sbci r17,hi8(-(20))
 1918 0b9e 020D      		add r16,r2
 1919 0ba0 131D      		adc r17,r3
 1920 0ba2 C801      		movw r24,r16
 1921 0ba4 0E94 0000 		call physical_process
 1922               	.LM283:
 1923 0ba8 F601      		movw r30,r12
 1924 0baa 8081      		ld r24,Z
 1925 0bac 8823      		tst r24
 1926 0bae 01F0      		breq .L165
 1927               	.LM284:
 1928 0bb0 C801      		movw r24,r16
 1929 0bb2 61E0      		ldi r22,lo8(1)
 1930 0bb4 0E94 0000 		call physical_plot
 1931 0bb8 5524      		clr r5
 1932               	.L165:
 1933 0bba 0894      		sec
 1934 0bbc E11C      		adc r14,__zero_reg__
 1935 0bbe F11C      		adc r15,__zero_reg__
 1936 0bc0 23E1      		ldi r18,lo8(19)
 1937 0bc2 30E0      		ldi r19,hi8(19)
 1938 0bc4 C20E      		add r12,r18
 1939 0bc6 D31E      		adc r13,r19
 1940               	.LM285:
 1941 0bc8 3EE1      		ldi r19,lo8(30)
 1942 0bca E316      		cp r14,r19
 1943 0bcc F104      		cpc r15,__zero_reg__
 1944 0bce 01F4      		brne .L166
 1945               	.LM286:
 1946 0bd0 5520      		tst r5
 1947 0bd2 01F0      		breq .L177
 1948               	.L167:
 1949               	.LM287:
 1950 0bd4 F501      		movw r30,r10
 1951               	.L178:
 1952 0bd6 4082      		st Z,r4
 1953 0bd8 00C0      		rjmp .L177
 1954               	.L164:
 1955               	.LM288:
 1956 0bda 8230      		cpi r24,lo8(2)
 1957 0bdc 01F4      		brne .L160
 1958 0bde 8091 0000 		lds r24,duration
 1959 0be2 9091 0000 		lds r25,(duration)+1
 1960 0be6 892B      		or r24,r25
 1961 0be8 01F0      		breq .L168
 1962 0bea 8091 0000 		lds r24,time
 1963 0bee 9091 0000 		lds r25,(time)+1
 1964 0bf2 892B      		or r24,r25
 1965 0bf4 01F0      		breq .L160
 1966               	.L168:
 1967               	.LM289:
 1968 0bf6 C501      		movw r24,r10
 1969 0bf8 0E94 0000 		call firework_init
 1970               	.L177:
 1971 0bfc 10E0      		ldi r17,lo8(0)
 1972               	.L160:
 1973 0bfe 0894      		sec
 1974 0c00 611C      		adc r6,__zero_reg__
 1975 0c02 711C      		adc r7,__zero_reg__
 1976 0c04 2EE4      		ldi r18,lo8(590)
 1977 0c06 32E0      		ldi r19,hi8(590)
 1978 0c08 A20E      		add r10,r18
 1979 0c0a B31E      		adc r11,r19
 1980               	.LM290:
 1981 0c0c 32E0      		ldi r19,lo8(2)
 1982 0c0e 6316      		cp r6,r19
 1983 0c10 7104      		cpc r7,__zero_reg__
 1984 0c12 01F0      		breq .+2
 1985 0c14 00C0      		rjmp .L169
 1986               	.LM291:
 1987 0c16 81E0      		ldi r24,lo8(1)
 1988 0c18 90E0      		ldi r25,hi8(1)
 1989 0c1a 0E94 0000 		call led_waitframe
 1990 0c1e 912F      		mov r25,r17
 1991               	.LVL93:
 1992               	.L157:
 1993               	.LM292:
 1994 0c20 8091 0000 		lds r24,fallout
 1995 0c24 8823      		tst r24
 1996 0c26 01F4      		brne .L172
 1997 0c28 9923      		tst r25
 1998 0c2a 01F4      		brne .+2
 1999 0c2c 00C0      		rjmp .L171
 2000               	.L172:
 2001               	/* epilogue start */
 2002               	.LM293:
 2003 0c2e C456      		subi r28,lo8(-(1180))
 2004 0c30 DB4F      		sbci r29,hi8(-(1180))
 2005 0c32 0FB6      		in __tmp_reg__,__SREG__
 2006 0c34 F894      		cli
 2007 0c36 DEBF      		out __SP_H__,r29
 2008 0c38 0FBE      		out __SREG__,__tmp_reg__
 2009 0c3a CDBF      		out __SP_L__,r28
 2010 0c3c CF91      		pop r28
 2011 0c3e DF91      		pop r29
 2012 0c40 1F91      		pop r17
 2013 0c42 0F91      		pop r16
 2014 0c44 FF90      		pop r15
 2015 0c46 EF90      		pop r14
 2016 0c48 DF90      		pop r13
 2017 0c4a CF90      		pop r12
 2018 0c4c BF90      		pop r11
 2019 0c4e AF90      		pop r10
 2020 0c50 9F90      		pop r9
 2021 0c52 8F90      		pop r8
 2022 0c54 7F90      		pop r7
 2023 0c56 6F90      		pop r6
 2024 0c58 5F90      		pop r5
 2025               	.LVL94:
 2026 0c5a 4F90      		pop r4
 2027 0c5c 3F90      		pop r3
 2028 0c5e 2F90      		pop r2
 2029 0c60 0895      		ret
 2030               	.LFE33:
 2032               	.global	pattern_fountain
 2034               	pattern_fountain:
 2035               	.LFB26:
 2036               	.LM294:
 2037 0c62 2F92      		push r2
 2038 0c64 3F92      		push r3
 2039 0c66 4F92      		push r4
 2040 0c68 5F92      		push r5
 2041 0c6a 6F92      		push r6
 2042 0c6c 7F92      		push r7
 2043 0c6e 8F92      		push r8
 2044 0c70 9F92      		push r9
 2045 0c72 AF92      		push r10
 2046 0c74 BF92      		push r11
 2047 0c76 CF92      		push r12
 2048 0c78 DF92      		push r13
 2049 0c7a EF92      		push r14
 2050 0c7c FF92      		push r15
 2051 0c7e 0F93      		push r16
 2052 0c80 1F93      		push r17
 2053 0c82 DF93      		push r29
 2054 0c84 CF93      		push r28
 2055 0c86 CDB7      		in r28,__SP_L__
 2056 0c88 DEB7      		in r29,__SP_H__
 2057 0c8a C859      		subi r28,lo8(-(-152))
 2058 0c8c D040      		sbci r29,hi8(-(-152))
 2059 0c8e 0FB6      		in __tmp_reg__,__SREG__
 2060 0c90 F894      		cli
 2061 0c92 DEBF      		out __SP_H__,r29
 2062 0c94 0FBE      		out __SREG__,__tmp_reg__
 2063 0c96 CDBF      		out __SP_L__,r28
 2064               	/* prologue: function */
 2065               	/* frame size = 152 */
 2066               	.LM295:
 2067 0c98 1092 0000 		sts fallout,__zero_reg__
 2068               	.LM296:
 2069 0c9c 8091 0000 		lds r24,duration
 2070 0ca0 9091 0000 		lds r25,(duration)+1
 2071 0ca4 9093 0000 		sts (time)+1,r25
 2072 0ca8 8093 0000 		sts time,r24
 2073               	.LM297:
 2074 0cac 82E3      		ldi r24,lo8(50)
 2075 0cae 90E0      		ldi r25,hi8(50)
 2076 0cb0 0E94 0000 		call led_framerate
 2077               	.LM298:
 2078 0cb4 0E94 0000 		call led_blank
 2079               	.LM299:
 2080 0cb8 8FEF      		ldi r24,lo8(-1)
 2081 0cba 0E94 0000 		call led_plane_intensity_all
 2082 0cbe FE01      		movw r30,r28
 2083 0cc0 7396      		adiw r30,19
 2084               	.LM300:
 2085 0cc2 CE01      		movw r24,r28
 2086 0cc4 8555      		subi r24,lo8(-(171))
 2087 0cc6 9F4F      		sbci r25,hi8(-(171))
 2088               	.L180:
 2089               	.LM301:
 2090 0cc8 1082      		st Z,__zero_reg__
 2091 0cca 7396      		adiw r30,19
 2092               	.LM302:
 2093 0ccc E817      		cp r30,r24
 2094 0cce F907      		cpc r31,r25
 2095 0cd0 01F4      		brne .L180
 2096 0cd2 EE24      		clr r14
 2097               	.LVL95:
 2098 0cd4 90E0      		ldi r25,lo8(0)
 2099               	.LVL96:
 2100 0cd6 CC24      		clr r12
 2101 0cd8 DD24      		clr r13
 2102               	.LVL97:
 2103               	.LM303:
 2104 0cda A12C      		mov r10,__zero_reg__
 2105 0cdc E8E7      		ldi r30,hi8(30720)
 2106 0cde BE2E      		mov r11,r30
 2107               	.LM304:
 2108 0ce0 74E5      		ldi r23,lo8(-3500)
 2109 0ce2 272E      		mov r2,r23
 2110 0ce4 72EF      		ldi r23,hi8(-3500)
 2111 0ce6 372E      		mov r3,r23
 2112               	.LM305:
 2113 0ce8 61E0      		ldi r22,lo8(-1023)
 2114 0cea 662E      		mov r6,r22
 2115 0cec 6CEF      		ldi r22,hi8(-1023)
 2116 0cee 762E      		mov r7,r22
 2117               	.LM306:
 2118 0cf0 812C      		mov r8,__zero_reg__
 2119 0cf2 58E0      		ldi r21,hi8(2048)
 2120 0cf4 952E      		mov r9,r21
 2121               	.LM307:
 2122 0cf6 49E9      		ldi r20,lo8(153)
 2123 0cf8 442E      		mov r4,r20
 2124 0cfa 512C      		mov r5,__zero_reg__
 2125 0cfc 4C0E      		add r4,r28
 2126 0cfe 5D1E      		adc r5,r29
 2127 0d00 00C0      		rjmp .L181
 2128               	.LVL98:
 2129               	.L193:
 2130               	.LM308:
 2131 0d02 0E94 0000 		call led_blank
 2132               	.LVL99:
 2133 0d06 8E01      		movw r16,r28
 2134 0d08 0F5F      		subi r16,lo8(-(1))
 2135 0d0a 1F4F      		sbci r17,hi8(-(1))
 2136 0d0c FF24      		clr r15
 2137 0d0e F394      		inc r15
 2138               	.L190:
 2139               	.LM309:
 2140 0d10 F801      		movw r30,r16
 2141 0d12 8289      		ldd r24,Z+18
 2142 0d14 8823      		tst r24
 2143 0d16 01F0      		breq .+2
 2144 0d18 00C0      		rjmp .L182
 2145               	.LM310:
 2146 0d1a 8091 0000 		lds r24,duration
 2147 0d1e 9091 0000 		lds r25,(duration)+1
 2148 0d22 892B      		or r24,r25
 2149 0d24 01F0      		breq .L183
 2150 0d26 8091 0000 		lds r24,time
 2151 0d2a 9091 0000 		lds r25,(time)+1
 2152 0d2e 892B      		or r24,r25
 2153 0d30 01F4      		brne .+2
 2154 0d32 00C0      		rjmp .L184
 2155               	.L183:
 2156               	.LM311:
 2157 0d34 F1E0      		ldi r31,lo8(1)
 2158 0d36 EF16      		cp r14,r31
 2159 0d38 01F0      		breq .L187
 2160 0d3a EF16      		cp r14,r31
 2161 0d3c 00F0      		brlo .L186
 2162 0d3e 22E0      		ldi r18,lo8(2)
 2163 0d40 E216      		cp r14,r18
 2164 0d42 01F0      		breq .L188
 2165 0d44 33E0      		ldi r19,lo8(3)
 2166 0d46 E316      		cp r14,r19
 2167 0d48 01F0      		breq .+2
 2168 0d4a 00C0      		rjmp .L185
 2169 0d4c 00C0      		rjmp .L201
 2170               	.L186:
 2171               	.LM312:
 2172 0d4e F801      		movw r30,r16
 2173 0d50 9182      		std Z+1,r9
 2174 0d52 8082      		st Z,r8
 2175               	.LM313:
 2176 0d54 B582      		std Z+5,r11
 2177 0d56 A482      		std Z+4,r10
 2178               	.LM314:
 2179 0d58 0E94 0000 		call rand
 2180 0d5c 9170      		andi r25,hi8(511)
 2181 0d5e 8150      		subi r24,lo8(-(1023))
 2182 0d60 9C4F      		sbci r25,hi8(-(1023))
 2183 0d62 00C0      		rjmp .L199
 2184               	.L187:
 2185               	.LM315:
 2186 0d64 F801      		movw r30,r16
 2187 0d66 B182      		std Z+1,r11
 2188 0d68 A082      		st Z,r10
 2189               	.LM316:
 2190 0d6a B582      		std Z+5,r11
 2191 0d6c A482      		std Z+4,r10
 2192               	.LM317:
 2193 0d6e 0E94 0000 		call rand
 2194 0d72 9170      		andi r25,hi8(511)
 2195 0d74 9301      		movw r18,r6
 2196 0d76 281B      		sub r18,r24
 2197 0d78 390B      		sbc r19,r25
 2198 0d7a C901      		movw r24,r18
 2199               	.L199:
 2200 0d7c F801      		movw r30,r16
 2201 0d7e 9783      		std Z+7,r25
 2202 0d80 8683      		std Z+6,r24
 2203               	.LM318:
 2204 0d82 0E94 0000 		call rand
 2205 0d86 9170      		andi r25,hi8(511)
 2206 0d88 9301      		movw r18,r6
 2207 0d8a 281B      		sub r18,r24
 2208 0d8c 390B      		sbc r19,r25
 2209 0d8e C901      		movw r24,r18
 2210 0d90 00C0      		rjmp .L197
 2211               	.L188:
 2212               	.LM319:
 2213 0d92 F801      		movw r30,r16
 2214 0d94 B182      		std Z+1,r11
 2215 0d96 A082      		st Z,r10
 2216               	.LM320:
 2217 0d98 9582      		std Z+5,r9
 2218 0d9a 8482      		std Z+4,r8
 2219               	.LM321:
 2220 0d9c 0E94 0000 		call rand
 2221 0da0 9170      		andi r25,hi8(511)
 2222 0da2 9301      		movw r18,r6
 2223 0da4 281B      		sub r18,r24
 2224 0da6 390B      		sbc r19,r25
 2225 0da8 C901      		movw r24,r18
 2226 0daa 00C0      		rjmp .L200
 2227               	.L201:
 2228               	.LM322:
 2229 0dac F801      		movw r30,r16
 2230 0dae 9182      		std Z+1,r9
 2231 0db0 8082      		st Z,r8
 2232               	.LM323:
 2233 0db2 9582      		std Z+5,r9
 2234 0db4 8482      		std Z+4,r8
 2235               	.LM324:
 2236 0db6 0E94 0000 		call rand
 2237 0dba 9170      		andi r25,hi8(511)
 2238 0dbc 8150      		subi r24,lo8(-(1023))
 2239 0dbe 9C4F      		sbci r25,hi8(-(1023))
 2240               	.L200:
 2241 0dc0 F801      		movw r30,r16
 2242 0dc2 9783      		std Z+7,r25
 2243 0dc4 8683      		std Z+6,r24
 2244               	.LM325:
 2245 0dc6 0E94 0000 		call rand
 2246 0dca 9170      		andi r25,hi8(511)
 2247 0dcc 8150      		subi r24,lo8(-(1023))
 2248 0dce 9C4F      		sbci r25,hi8(-(1023))
 2249               	.L197:
 2250 0dd0 F801      		movw r30,r16
 2251 0dd2 9387      		std Z+11,r25
 2252 0dd4 8287      		std Z+10,r24
 2253               	.L185:
 2254               	.LM326:
 2255 0dd6 F801      		movw r30,r16
 2256 0dd8 B382      		std Z+3,r11
 2257 0dda A282      		std Z+2,r10
 2258               	.LM327:
 2259 0ddc 1586      		std Z+13,__zero_reg__
 2260 0dde 1486      		std Z+12,__zero_reg__
 2261               	.LM328:
 2262 0de0 28E7      		ldi r18,lo8(632)
 2263 0de2 32E0      		ldi r19,hi8(632)
 2264 0de4 3787      		std Z+15,r19
 2265 0de6 2687      		std Z+14,r18
 2266               	.LM329:
 2267 0de8 118A      		std Z+17,__zero_reg__
 2268 0dea 108A      		std Z+16,__zero_reg__
 2269               	.LM330:
 2270 0dec 0E94 0000 		call rand
 2271 0df0 9770      		andi r25,hi8(2047)
 2272 0df2 F101      		movw r30,r2
 2273 0df4 E81B      		sub r30,r24
 2274 0df6 F90B      		sbc r31,r25
 2275 0df8 CF01      		movw r24,r30
 2276 0dfa F801      		movw r30,r16
 2277 0dfc 9187      		std Z+9,r25
 2278 0dfe 8087      		std Z+8,r24
 2279               	.LM331:
 2280 0e00 21E0      		ldi r18,lo8(1)
 2281 0e02 228B      		std Z+18,r18
 2282               	.LM332:
 2283 0e04 C801      		movw r24,r16
 2284 0e06 00C0      		rjmp .L198
 2285               	.L182:
 2286               	.LM333:
 2287 0e08 C801      		movw r24,r16
 2288 0e0a 0E94 0000 		call physical_process
 2289               	.LM334:
 2290 0e0e C801      		movw r24,r16
 2291               	.L198:
 2292 0e10 61E0      		ldi r22,lo8(1)
 2293 0e12 0E94 0000 		call physical_plot
 2294 0e16 FF24      		clr r15
 2295               	.L184:
 2296 0e18 0D5E      		subi r16,lo8(-(19))
 2297 0e1a 1F4F      		sbci r17,hi8(-(19))
 2298               	.LM335:
 2299 0e1c 0415      		cp r16,r4
 2300 0e1e 1505      		cpc r17,r5
 2301 0e20 01F0      		breq .+2
 2302 0e22 00C0      		rjmp .L190
 2303               	.LM336:
 2304 0e24 81E0      		ldi r24,lo8(1)
 2305 0e26 90E0      		ldi r25,hi8(1)
 2306 0e28 0E94 0000 		call led_waitframe
 2307               	.LM337:
 2308 0e2c 0894      		sec
 2309 0e2e C11C      		adc r12,__zero_reg__
 2310 0e30 D11C      		adc r13,__zero_reg__
 2311               	.LM338:
 2312 0e32 3AEF      		ldi r19,lo8(250)
 2313 0e34 C316      		cp r12,r19
 2314 0e36 D104      		cpc r13,__zero_reg__
 2315 0e38 01F4      		brne .L191
 2316               	.LM339:
 2317 0e3a E394      		inc r14
 2318               	.LM340:
 2319 0e3c 83E0      		ldi r24,lo8(3)
 2320 0e3e E822      		and r14,r24
 2321 0e40 CC24      		clr r12
 2322 0e42 DD24      		clr r13
 2323               	.L191:
 2324 0e44 9F2D      		mov r25,r15
 2325               	.LVL100:
 2326               	.L181:
 2327               	.LM341:
 2328 0e46 8091 0000 		lds r24,fallout
 2329 0e4a 8823      		tst r24
 2330 0e4c 01F4      		brne .L194
 2331 0e4e 9923      		tst r25
 2332 0e50 01F4      		brne .+2
 2333 0e52 00C0      		rjmp .L193
 2334               	.L194:
 2335               	/* epilogue start */
 2336               	.LM342:
 2337 0e54 C856      		subi r28,lo8(-(152))
 2338 0e56 DF4F      		sbci r29,hi8(-(152))
 2339 0e58 0FB6      		in __tmp_reg__,__SREG__
 2340 0e5a F894      		cli
 2341 0e5c DEBF      		out __SP_H__,r29
 2342 0e5e 0FBE      		out __SREG__,__tmp_reg__
 2343 0e60 CDBF      		out __SP_L__,r28
 2344 0e62 CF91      		pop r28
 2345 0e64 DF91      		pop r29
 2346 0e66 1F91      		pop r17
 2347 0e68 0F91      		pop r16
 2348 0e6a FF90      		pop r15
 2349 0e6c EF90      		pop r14
 2350               	.LVL101:
 2351 0e6e DF90      		pop r13
 2352 0e70 CF90      		pop r12
 2353               	.LVL102:
 2354 0e72 BF90      		pop r11
 2355 0e74 AF90      		pop r10
 2356 0e76 9F90      		pop r9
 2357 0e78 8F90      		pop r8
 2358 0e7a 7F90      		pop r7
 2359 0e7c 6F90      		pop r6
 2360 0e7e 5F90      		pop r5
 2361 0e80 4F90      		pop r4
 2362 0e82 3F90      		pop r3
 2363 0e84 2F90      		pop r2
 2364 0e86 0895      		ret
 2365               	.LFE26:
 2367               	.global	pattern_rain1
 2369               	pattern_rain1:
 2370               	.LFB32:
 2371               	.LM343:
 2372 0e88 6F92      		push r6
 2373 0e8a 7F92      		push r7
 2374 0e8c 8F92      		push r8
 2375 0e8e 9F92      		push r9
 2376 0e90 AF92      		push r10
 2377 0e92 BF92      		push r11
 2378 0e94 CF92      		push r12
 2379 0e96 DF92      		push r13
 2380 0e98 EF92      		push r14
 2381 0e9a FF92      		push r15
 2382 0e9c 0F93      		push r16
 2383 0e9e 1F93      		push r17
 2384 0ea0 DF93      		push r29
 2385 0ea2 CF93      		push r28
 2386 0ea4 CDB7      		in r28,__SP_L__
 2387 0ea6 DEB7      		in r29,__SP_H__
 2388 0ea8 C555      		subi r28,lo8(-(-85))
 2389 0eaa D040      		sbci r29,hi8(-(-85))
 2390 0eac 0FB6      		in __tmp_reg__,__SREG__
 2391 0eae F894      		cli
 2392 0eb0 DEBF      		out __SP_H__,r29
 2393 0eb2 0FBE      		out __SREG__,__tmp_reg__
 2394 0eb4 CDBF      		out __SP_L__,r28
 2395               	/* prologue: function */
 2396               	/* frame size = 85 */
 2397               	.LM344:
 2398 0eb6 DE01      		movw r26,r28
 2399 0eb8 1196      		adiw r26,1
 2400 0eba E0E0      		ldi r30,lo8(C.63.3010)
 2401 0ebc F0E0      		ldi r31,hi8(C.63.3010)
 2402 0ebe 85E1      		ldi r24,lo8(21)
 2403               	.L203:
 2404 0ec0 0190      		ld r0,Z+
 2405 0ec2 0D92      		st X+,r0
 2406 0ec4 8150      		subi r24,lo8(-(-1))
 2407 0ec6 01F4      		brne .L203
 2408               	.LM345:
 2409 0ec8 1092 0000 		sts fallout,__zero_reg__
 2410               	.LM346:
 2411 0ecc 82E3      		ldi r24,lo8(50)
 2412 0ece 90E0      		ldi r25,hi8(50)
 2413 0ed0 0E94 0000 		call led_framerate
 2414               	.LM347:
 2415 0ed4 0E94 0000 		call led_blank
 2416               	.LM348:
 2417 0ed8 8FEF      		ldi r24,lo8(-1)
 2418 0eda 0E94 0000 		call led_plane_intensity_all
 2419 0ede 3EE1      		ldi r19,lo8(30)
 2420 0ee0 C32E      		mov r12,r19
 2421 0ee2 D12C      		mov r13,__zero_reg__
 2422 0ee4 CC0E      		add r12,r28
 2423 0ee6 DD1E      		adc r13,r29
 2424 0ee8 EE24      		clr r14
 2425 0eea FF24      		clr r15
 2426               	.LM349:
 2427 0eec 26E1      		ldi r18,lo8(22)
 2428 0eee A22E      		mov r10,r18
 2429 0ef0 B12C      		mov r11,__zero_reg__
 2430 0ef2 AC0E      		add r10,r28
 2431 0ef4 BD1E      		adc r11,r29
 2432 0ef6 00C0      		rjmp .L204
 2433               	.L205:
 2434               	.LM350:
 2435 0ef8 0E94 0000 		call rand
 2436 0efc 8F77      		andi r24,lo8(127)
 2437 0efe F801      		movw r30,r16
 2438 0f00 8193      		st Z+,r24
 2439 0f02 8F01      		movw r16,r30
 2440               	.LM351:
 2441 0f04 EC15      		cp r30,r12
 2442 0f06 FD05      		cpc r31,r13
 2443 0f08 01F4      		brne .L205
 2444 0f0a 0894      		sec
 2445 0f0c E11C      		adc r14,__zero_reg__
 2446 0f0e F11C      		adc r15,__zero_reg__
 2447 0f10 98E0      		ldi r25,lo8(8)
 2448 0f12 C92E      		mov r12,r25
 2449 0f14 D12C      		mov r13,__zero_reg__
 2450 0f16 CE0E      		add r12,r30
 2451 0f18 DF1E      		adc r13,r31
 2452               	.LM352:
 2453 0f1a F8E0      		ldi r31,lo8(8)
 2454 0f1c EF16      		cp r14,r31
 2455 0f1e F104      		cpc r15,__zero_reg__
 2456 0f20 01F0      		breq .L206
 2457               	.L204:
 2458 0f22 8701      		movw r16,r14
 2459 0f24 83E0      		ldi r24,3
 2460 0f26 000F      	1:	lsl r16
 2461 0f28 111F      		rol r17
 2462 0f2a 8A95      		dec r24
 2463 0f2c 01F4      		brne 1b
 2464 0f2e 0A0D      		add r16,r10
 2465 0f30 1B1D      		adc r17,r11
 2466 0f32 00C0      		rjmp .L205
 2467               	.L206:
 2468               	.LM353:
 2469 0f34 8091 0000 		lds r24,duration
 2470 0f38 9091 0000 		lds r25,(duration)+1
 2471 0f3c 9093 0000 		sts (time)+1,r25
 2472 0f40 8093 0000 		sts time,r24
 2473               	.LM354:
 2474 0f44 16E1      		ldi r17,lo8(22)
 2475 0f46 612E      		mov r6,r17
 2476 0f48 712C      		mov r7,__zero_reg__
 2477 0f4a 6C0E      		add r6,r28
 2478 0f4c 7D1E      		adc r7,r29
 2479               	.LM355:
 2480 0f4e 4E01      		movw r8,r28
 2481 0f50 0894      		sec
 2482 0f52 811C      		adc r8,__zero_reg__
 2483 0f54 911C      		adc r9,__zero_reg__
 2484 0f56 00C0      		rjmp .L207
 2485               	.LVL103:
 2486               	.L214:
 2487               	.LM356:
 2488 0f58 81E0      		ldi r24,lo8(1)
 2489 0f5a 90E0      		ldi r25,hi8(1)
 2490 0f5c 0E94 0000 		call led_waitframe
 2491 0f60 CC24      		clr r12
 2492 0f62 DD24      		clr r13
 2493 0f64 00C0      		rjmp .L208
 2494               	.L212:
 2495               	.LM357:
 2496 0f66 F701      		movw r30,r14
 2497 0f68 1081      		ld r17,Z
 2498               	.LVL104:
 2499               	.LM358:
 2500 0f6a 17FF      		sbrs r17,7
 2501 0f6c 00C0      		rjmp .L209
 2502               	.LM359:
 2503 0f6e 812F      		mov r24,r17
 2504 0f70 8F77      		andi r24,lo8(127)
 2505 0f72 F401      		movw r30,r8
 2506 0f74 E80F      		add r30,r24
 2507 0f76 F11D      		adc r31,__zero_reg__
 2508 0f78 8B2D      		mov r24,r11
 2509 0f7a 6081      		ld r22,Z
 2510 0f7c 402F      		mov r20,r16
 2511 0f7e 20E0      		ldi r18,lo8(0)
 2512 0f80 0E94 0000 		call led_point
 2513               	.L209:
 2514               	.LM360:
 2515 0f84 1F5F      		subi r17,lo8(-(1))
 2516               	.LVL105:
 2517               	.LM361:
 2518 0f86 1539      		cpi r17,lo8(-107)
 2519 0f88 01F4      		brne .L210
 2520               	.LM362:
 2521 0f8a 0E94 0000 		call rand
 2522 0f8e 182F      		mov r17,r24
 2523 0f90 1F77      		andi r17,lo8(127)
 2524               	.L210:
 2525               	.LM363:
 2526 0f92 17FF      		sbrs r17,7
 2527 0f94 00C0      		rjmp .L211
 2528               	.LM364:
 2529 0f96 812F      		mov r24,r17
 2530 0f98 8F77      		andi r24,lo8(127)
 2531 0f9a F401      		movw r30,r8
 2532 0f9c E80F      		add r30,r24
 2533 0f9e F11D      		adc r31,__zero_reg__
 2534 0fa0 8B2D      		mov r24,r11
 2535 0fa2 6081      		ld r22,Z
 2536 0fa4 402F      		mov r20,r16
 2537 0fa6 21E0      		ldi r18,lo8(1)
 2538 0fa8 0E94 0000 		call led_point
 2539               	.L211:
 2540               	.LM365:
 2541 0fac F701      		movw r30,r14
 2542 0fae 1193      		st Z+,r17
 2543 0fb0 7F01      		movw r14,r30
 2544               	.LM366:
 2545 0fb2 0F5F      		subi r16,lo8(-(1))
 2546               	.LM367:
 2547 0fb4 0830      		cpi r16,lo8(8)
 2548 0fb6 01F4      		brne .L212
 2549 0fb8 0894      		sec
 2550 0fba C11C      		adc r12,__zero_reg__
 2551 0fbc D11C      		adc r13,__zero_reg__
 2552               	.LM368:
 2553 0fbe F8E0      		ldi r31,lo8(8)
 2554 0fc0 CF16      		cp r12,r31
 2555 0fc2 D104      		cpc r13,__zero_reg__
 2556 0fc4 01F0      		breq .L207
 2557               	.L208:
 2558 0fc6 BC2C      		mov r11,r12
 2559 0fc8 7601      		movw r14,r12
 2560 0fca B3E0      		ldi r27,3
 2561 0fcc EE0C      	1:	lsl r14
 2562 0fce FF1C      		rol r15
 2563 0fd0 BA95      		dec r27
 2564 0fd2 01F4      		brne 1b
 2565 0fd4 E60C      		add r14,r6
 2566 0fd6 F71C      		adc r15,r7
 2567 0fd8 00E0      		ldi r16,lo8(0)
 2568 0fda 00C0      		rjmp .L212
 2569               	.L207:
 2570               	.LM369:
 2571 0fdc 8091 0000 		lds r24,fallout
 2572 0fe0 8823      		tst r24
 2573 0fe2 01F0      		breq .+2
 2574 0fe4 00C0      		rjmp .L213
 2575 0fe6 8091 0000 		lds r24,duration
 2576 0fea 9091 0000 		lds r25,(duration)+1
 2577 0fee 892B      		or r24,r25
 2578 0ff0 01F4      		brne .+2
 2579 0ff2 00C0      		rjmp .L214
 2580 0ff4 8091 0000 		lds r24,time
 2581 0ff8 9091 0000 		lds r25,(time)+1
 2582 0ffc 892B      		or r24,r25
 2583 0ffe 01F0      		breq .+2
 2584 1000 00C0      		rjmp .L214
 2585 1002 00C0      		rjmp .L213
 2586               	.LVL106:
 2587               	.L222:
 2588               	.LM370:
 2589 1004 81E0      		ldi r24,lo8(1)
 2590 1006 90E0      		ldi r25,hi8(1)
 2591 1008 0E94 0000 		call led_waitframe
 2592               	.LVL107:
 2593 100c AA24      		clr r10
 2594 100e A394      		inc r10
 2595 1010 CC24      		clr r12
 2596 1012 DD24      		clr r13
 2597 1014 00C0      		rjmp .L215
 2598               	.L219:
 2599               	.LM371:
 2600 1016 F701      		movw r30,r14
 2601 1018 1081      		ld r17,Z
 2602               	.LM372:
 2603 101a 17FF      		sbrs r17,7
 2604 101c 00C0      		rjmp .L216
 2605               	.LM373:
 2606 101e 812F      		mov r24,r17
 2607 1020 8F77      		andi r24,lo8(127)
 2608 1022 F401      		movw r30,r8
 2609 1024 E80F      		add r30,r24
 2610 1026 F11D      		adc r31,__zero_reg__
 2611 1028 8B2D      		mov r24,r11
 2612 102a 6081      		ld r22,Z
 2613 102c 402F      		mov r20,r16
 2614 102e 20E0      		ldi r18,lo8(0)
 2615 1030 0E94 0000 		call led_point
 2616               	.LM374:
 2617 1034 1F5F      		subi r17,lo8(-(1))
 2618               	.L216:
 2619               	.LM375:
 2620 1036 1539      		cpi r17,lo8(-107)
 2621 1038 01F4      		brne .L217
 2622 103a 10E0      		ldi r17,lo8(0)
 2623 103c 00C0      		rjmp .L218
 2624               	.L217:
 2625               	.LM376:
 2626 103e 17FF      		sbrs r17,7
 2627 1040 00C0      		rjmp .L218
 2628               	.LM377:
 2629 1042 812F      		mov r24,r17
 2630 1044 8F77      		andi r24,lo8(127)
 2631 1046 F401      		movw r30,r8
 2632 1048 E80F      		add r30,r24
 2633 104a F11D      		adc r31,__zero_reg__
 2634 104c 8B2D      		mov r24,r11
 2635 104e 6081      		ld r22,Z
 2636 1050 402F      		mov r20,r16
 2637 1052 21E0      		ldi r18,lo8(1)
 2638 1054 0E94 0000 		call led_point
 2639 1058 AA24      		clr r10
 2640               	.L218:
 2641               	.LM378:
 2642 105a F701      		movw r30,r14
 2643 105c 1193      		st Z+,r17
 2644 105e 7F01      		movw r14,r30
 2645               	.LM379:
 2646 1060 0F5F      		subi r16,lo8(-(1))
 2647               	.LM380:
 2648 1062 0830      		cpi r16,lo8(8)
 2649 1064 01F4      		brne .L219
 2650 1066 0894      		sec
 2651 1068 C11C      		adc r12,__zero_reg__
 2652 106a D11C      		adc r13,__zero_reg__
 2653               	.LM381:
 2654 106c F8E0      		ldi r31,lo8(8)
 2655 106e CF16      		cp r12,r31
 2656 1070 D104      		cpc r13,__zero_reg__
 2657 1072 01F4      		brne .L215
 2658 1074 9A2D      		mov r25,r10
 2659 1076 00C0      		rjmp .L220
 2660               	.LVL108:
 2661               	.L215:
 2662 1078 BC2C      		mov r11,r12
 2663 107a 7601      		movw r14,r12
 2664 107c A3E0      		ldi r26,3
 2665 107e EE0C      	1:	lsl r14
 2666 1080 FF1C      		rol r15
 2667 1082 AA95      		dec r26
 2668 1084 01F4      		brne 1b
 2669 1086 E60C      		add r14,r6
 2670 1088 F71C      		adc r15,r7
 2671 108a 00E0      		ldi r16,lo8(0)
 2672 108c 00C0      		rjmp .L219
 2673               	.LVL109:
 2674               	.L213:
 2675 108e 90E0      		ldi r25,lo8(0)
 2676               	.LVL110:
 2677 1090 F6E1      		ldi r31,lo8(22)
 2678 1092 6F2E      		mov r6,r31
 2679 1094 712C      		mov r7,__zero_reg__
 2680 1096 6C0E      		add r6,r28
 2681 1098 7D1E      		adc r7,r29
 2682               	.LM382:
 2683 109a 4E01      		movw r8,r28
 2684 109c 0894      		sec
 2685 109e 811C      		adc r8,__zero_reg__
 2686 10a0 911C      		adc r9,__zero_reg__
 2687               	.LVL111:
 2688               	.L220:
 2689               	.LM383:
 2690 10a2 8091 0000 		lds r24,fallout
 2691 10a6 8823      		tst r24
 2692 10a8 01F4      		brne .L223
 2693 10aa 9923      		tst r25
 2694 10ac 01F4      		brne .+2
 2695 10ae 00C0      		rjmp .L222
 2696               	.L223:
 2697               	/* epilogue start */
 2698               	.LM384:
 2699 10b0 CB5A      		subi r28,lo8(-(85))
 2700 10b2 DF4F      		sbci r29,hi8(-(85))
 2701 10b4 0FB6      		in __tmp_reg__,__SREG__
 2702 10b6 F894      		cli
 2703 10b8 DEBF      		out __SP_H__,r29
 2704 10ba 0FBE      		out __SREG__,__tmp_reg__
 2705 10bc CDBF      		out __SP_L__,r28
 2706 10be CF91      		pop r28
 2707 10c0 DF91      		pop r29
 2708 10c2 1F91      		pop r17
 2709               	.LVL112:
 2710 10c4 0F91      		pop r16
 2711               	.LVL113:
 2712 10c6 FF90      		pop r15
 2713 10c8 EF90      		pop r14
 2714 10ca DF90      		pop r13
 2715 10cc CF90      		pop r12
 2716 10ce BF90      		pop r11
 2717               	.LVL114:
 2718 10d0 AF90      		pop r10
 2719 10d2 9F90      		pop r9
 2720 10d4 8F90      		pop r8
 2721 10d6 7F90      		pop r7
 2722 10d8 6F90      		pop r6
 2723 10da 0895      		ret
 2724               	.LFE32:
 2726               	.global	pattern_popcorn
 2728               	pattern_popcorn:
 2729               	.LFB23:
 2730               	.LM385:
 2731 10dc 2F92      		push r2
 2732 10de 3F92      		push r3
 2733 10e0 4F92      		push r4
 2734 10e2 5F92      		push r5
 2735 10e4 6F92      		push r6
 2736 10e6 7F92      		push r7
 2737 10e8 8F92      		push r8
 2738 10ea 9F92      		push r9
 2739 10ec AF92      		push r10
 2740 10ee BF92      		push r11
 2741 10f0 CF92      		push r12
 2742 10f2 DF92      		push r13
 2743 10f4 EF92      		push r14
 2744 10f6 FF92      		push r15
 2745 10f8 0F93      		push r16
 2746 10fa 1F93      		push r17
 2747 10fc DF93      		push r29
 2748 10fe CF93      		push r28
 2749 1100 CDB7      		in r28,__SP_L__
 2750 1102 DEB7      		in r29,__SP_H__
 2751 1104 CF5F      		subi r28,lo8(-(-511))
 2752 1106 D140      		sbci r29,hi8(-(-511))
 2753 1108 0FB6      		in __tmp_reg__,__SREG__
 2754 110a F894      		cli
 2755 110c DEBF      		out __SP_H__,r29
 2756 110e 0FBE      		out __SREG__,__tmp_reg__
 2757 1110 CDBF      		out __SP_L__,r28
 2758               	/* prologue: function */
 2759               	/* frame size = 511 */
 2760               	.LM386:
 2761 1112 1092 0000 		sts fallout,__zero_reg__
 2762               	.LM387:
 2763 1116 8091 0000 		lds r24,duration
 2764 111a 9091 0000 		lds r25,(duration)+1
 2765 111e 9093 0000 		sts (time)+1,r25
 2766 1122 8093 0000 		sts time,r24
 2767               	.LM388:
 2768 1126 8CE3      		ldi r24,lo8(60)
 2769 1128 90E0      		ldi r25,hi8(60)
 2770 112a 0E94 0000 		call led_framerate
 2771               	.LM389:
 2772 112e 0E94 0000 		call led_blank
 2773               	.LM390:
 2774 1132 8FEF      		ldi r24,lo8(-1)
 2775 1134 0E94 0000 		call led_plane_intensity_all
 2776 1138 1E01      		movw r2,r28
 2777 113a 0894      		sec
 2778 113c 211C      		adc r2,__zero_reg__
 2779 113e 311C      		adc r3,__zero_reg__
 2780 1140 8E01      		movw r16,r28
 2781 1142 0F57      		subi r16,lo8(-(129))
 2782 1144 1F4F      		sbci r17,hi8(-(129))
 2783 1146 7101      		movw r14,r2
 2784 1148 90E0      		ldi r25,lo8(0)
 2785               	.LVL115:
 2786 114a DD24      		clr r13
 2787               	.LVL116:
 2788               	.LM391:
 2789 114c 59E2      		ldi r21,lo8(41)
 2790 114e A52E      		mov r10,r21
 2791 1150 B12C      		mov r11,__zero_reg__
 2792 1152 AC0E      		add r10,r28
 2793 1154 BD1E      		adc r11,r29
 2794               	.L232:
 2795               	.LM392:
 2796 1156 D701      		movw r26,r14
 2797 1158 9C93      		st X,r25
 2798               	.LM393:
 2799 115a 1196      		adiw r26,1
 2800 115c DC92      		st X,r13
 2801               	.LM394:
 2802 115e F801      		movw r30,r16
 2803 1160 1182      		std Z+1,__zero_reg__
 2804 1162 1082      		st Z,__zero_reg__
 2805               	.LM395:
 2806 1164 1382      		std Z+3,__zero_reg__
 2807 1166 1282      		std Z+2,__zero_reg__
 2808               	.LM396:
 2809 1168 1582      		std Z+5,__zero_reg__
 2810 116a 1482      		std Z+4,__zero_reg__
 2811               	.LM397:
 2812 116c 1782      		std Z+7,__zero_reg__
 2813 116e 1682      		std Z+6,__zero_reg__
 2814               	.LM398:
 2815 1170 1186      		std Z+9,__zero_reg__
 2816 1172 1086      		std Z+8,__zero_reg__
 2817               	.LM399:
 2818 1174 1386      		std Z+11,__zero_reg__
 2819 1176 1286      		std Z+10,__zero_reg__
 2820               	.LM400:
 2821 1178 1586      		std Z+13,__zero_reg__
 2822 117a 1486      		std Z+12,__zero_reg__
 2823               	.LM401:
 2824 117c 1786      		std Z+15,__zero_reg__
 2825 117e 1686      		std Z+14,__zero_reg__
 2826               	.LM402:
 2827 1180 118A      		std Z+17,__zero_reg__
 2828 1182 108A      		std Z+16,__zero_reg__
 2829               	.LM403:
 2830 1184 128A      		std Z+18,__zero_reg__
 2831               	.LM404:
 2832 1186 892F      		mov r24,r25
 2833 1188 67E0      		ldi r22,lo8(7)
 2834 118a 4D2D      		mov r20,r13
 2835 118c 21E0      		ldi r18,lo8(1)
 2836 118e C350      		subi r28,lo8(-509)
 2837 1190 DE4F      		sbci r29,hi8(-509)
 2838 1192 9883      		st Y,r25
 2839 1194 CD5F      		subi r28,lo8(509)
 2840 1196 D140      		sbci r29,hi8(509)
 2841               	.LVL117:
 2842 1198 0E94 0000 		call led_point
 2843               	.LM405:
 2844 119c C350      		subi r28,lo8(-509)
 2845 119e DE4F      		sbci r29,hi8(-509)
 2846 11a0 9881      		ld r25,Y
 2847 11a2 CD5F      		subi r28,lo8(509)
 2848 11a4 D140      		sbci r29,hi8(509)
 2849 11a6 9F5F      		subi r25,lo8(-(1))
 2850               	.LVL118:
 2851               	.LM406:
 2852 11a8 9830      		cpi r25,lo8(8)
 2853 11aa 01F4      		brne .L231
 2854               	.LM407:
 2855 11ac D394      		inc r13
 2856 11ae 90E0      		ldi r25,lo8(0)
 2857               	.L231:
 2858 11b0 22E0      		ldi r18,lo8(2)
 2859 11b2 30E0      		ldi r19,hi8(2)
 2860 11b4 E20E      		add r14,r18
 2861 11b6 F31E      		adc r15,r19
 2862 11b8 0D5E      		subi r16,lo8(-(19))
 2863 11ba 1F4F      		sbci r17,hi8(-(19))
 2864               	.LM408:
 2865 11bc EA14      		cp r14,r10
 2866 11be FB04      		cpc r15,r11
 2867 11c0 01F4      		brne .L232
 2868 11c2 8701      		movw r16,r14
 2869               	.LM409:
 2870 11c4 41E8      		ldi r20,lo8(129)
 2871 11c6 E42E      		mov r14,r20
 2872 11c8 F12C      		mov r15,__zero_reg__
 2873 11ca EC0E      		add r14,r28
 2874 11cc FD1E      		adc r15,r29
 2875               	.L234:
 2876               	.LM410:
 2877 11ce D801      		movw r26,r16
 2878 11d0 9C93      		st X,r25
 2879               	.LM411:
 2880 11d2 1196      		adiw r26,1
 2881 11d4 DC92      		st X,r13
 2882               	.LM412:
 2883 11d6 892F      		mov r24,r25
 2884 11d8 67E0      		ldi r22,lo8(7)
 2885 11da 4D2D      		mov r20,r13
 2886 11dc 21E0      		ldi r18,lo8(1)
 2887 11de C350      		subi r28,lo8(-509)
 2888 11e0 DE4F      		sbci r29,hi8(-509)
 2889 11e2 9883      		st Y,r25
 2890 11e4 CD5F      		subi r28,lo8(509)
 2891 11e6 D140      		sbci r29,hi8(509)
 2892               	.LVL119:
 2893 11e8 0E94 0000 		call led_point
 2894               	.LM413:
 2895 11ec C350      		subi r28,lo8(-509)
 2896 11ee DE4F      		sbci r29,hi8(-509)
 2897 11f0 9881      		ld r25,Y
 2898 11f2 CD5F      		subi r28,lo8(509)
 2899 11f4 D140      		sbci r29,hi8(509)
 2900 11f6 9F5F      		subi r25,lo8(-(1))
 2901               	.LVL120:
 2902               	.LM414:
 2903 11f8 9830      		cpi r25,lo8(8)
 2904 11fa 01F4      		brne .L233
 2905               	.LM415:
 2906 11fc D394      		inc r13
 2907 11fe 90E0      		ldi r25,lo8(0)
 2908               	.L233:
 2909 1200 0E5F      		subi r16,lo8(-(2))
 2910 1202 1F4F      		sbci r17,hi8(-(2))
 2911               	.LM416:
 2912 1204 0E15      		cp r16,r14
 2913 1206 1F05      		cpc r17,r15
 2914 1208 01F4      		brne .L234
 2915 120a 00C0      		rjmp .L256
 2916               	.L240:
 2917               	.LM417:
 2918 120c 81E0      		ldi r24,lo8(1)
 2919 120e 90E0      		ldi r25,hi8(1)
 2920 1210 0E94 0000 		call led_waitframe
 2921               	.LVL121:
 2922 1214 31E8      		ldi r19,lo8(129)
 2923 1216 E32E      		mov r14,r19
 2924 1218 F12C      		mov r15,__zero_reg__
 2925 121a EC0E      		add r14,r28
 2926 121c FD1E      		adc r15,r29
 2927 121e 6101      		movw r12,r2
 2928               	.L238:
 2929               	.LM418:
 2930 1220 C701      		movw r24,r14
 2931 1222 60E0      		ldi r22,lo8(0)
 2932 1224 0E94 0000 		call physical_plot
 2933               	.LM419:
 2934 1228 C701      		movw r24,r14
 2935 122a 0E94 0000 		call physical_process
 2936               	.LM420:
 2937 122e F701      		movw r30,r14
 2938 1230 8289      		ldd r24,Z+18
 2939 1232 8823      		tst r24
 2940 1234 01F0      		breq .+2
 2941 1236 00C0      		rjmp .L236
 2942               	.LM421:
 2943 1238 D601      		movw r26,r12
 2944 123a 1C91      		ld r17,X
 2945               	.LVL122:
 2946               	.LM422:
 2947 123c 1196      		adiw r26,1
 2948 123e 0C91      		ld r16,X
 2949               	.LVL123:
 2950               	.LM423:
 2951 1240 812F      		mov r24,r17
 2952 1242 67E0      		ldi r22,lo8(7)
 2953 1244 402F      		mov r20,r16
 2954 1246 21E0      		ldi r18,lo8(1)
 2955 1248 0E94 0000 		call led_point
 2956               	.LM424:
 2957 124c 0E94 0000 		call rand
 2958 1250 6CE2      		ldi r22,lo8(44)
 2959 1252 70E0      		ldi r23,hi8(44)
 2960 1254 0E94 0000 		call __divmodhi4
 2961 1258 FC01      		movw r30,r24
 2962               	.LM425:
 2963 125a EE0F      		lsl r30
 2964 125c FF1F      		rol r31
 2965               	.LVL124:
 2966 125e 21E0      		ldi r18,lo8(1)
 2967 1260 30E0      		ldi r19,hi8(1)
 2968 1262 2C0F      		add r18,r28
 2969 1264 3D1F      		adc r19,r29
 2970 1266 E20F      		add r30,r18
 2971 1268 F31F      		adc r31,r19
 2972 126a 80A5      		ldd r24,Z+40
 2973 126c D601      		movw r26,r12
 2974 126e 8C93      		st X,r24
 2975               	.LM426:
 2976 1270 91A5      		ldd r25,Z+41
 2977 1272 1196      		adiw r26,1
 2978 1274 9C93      		st X,r25
 2979 1276 1197      		sbiw r26,1
 2980               	.LM427:
 2981 1278 10A7      		std Z+40,r17
 2982               	.LM428:
 2983 127a 01A7      		std Z+41,r16
 2984               	.LM429:
 2985 127c 8C91      		ld r24,X
 2986 127e 182F      		mov r17,r24
 2987               	.LVL125:
 2988 1280 1295      		swap r17
 2989 1282 107F      		andi r17,lo8(-16)
 2990 1284 00E0      		ldi r16,lo8(0)
 2991               	.LVL126:
 2992 1286 0050      		subi r16,lo8(-(2048))
 2993 1288 184F      		sbci r17,hi8(-(2048))
 2994 128a F701      		movw r30,r14
 2995 128c 1183      		std Z+1,r17
 2996 128e 0083      		st Z,r16
 2997               	.LM430:
 2998 1290 5382      		std Z+3,r5
 2999 1292 4282      		std Z+2,r4
 3000               	.LM431:
 3001 1294 B92E      		mov r11,r25
 3002 1296 B294      		swap r11
 3003 1298 90EF      		ldi r25,lo8(-16)
 3004 129a B922      		and r11,r25
 3005 129c AA24      		clr r10
 3006 129e 20E0      		ldi r18,lo8(2048)
 3007 12a0 38E0      		ldi r19,hi8(2048)
 3008 12a2 A20E      		add r10,r18
 3009 12a4 B31E      		adc r11,r19
 3010 12a6 B582      		std Z+5,r11
 3011 12a8 A482      		std Z+4,r10
 3012               	.LM432:
 3013 12aa 1782      		std Z+7,__zero_reg__
 3014 12ac 1682      		std Z+6,__zero_reg__
 3015               	.LM433:
 3016 12ae 0E94 0000 		call rand
 3017 12b2 9F70      		andi r25,hi8(4095)
 3018 12b4 9095      		com r25
 3019 12b6 8195      		neg r24
 3020 12b8 9F4F      		sbci r25,lo8(-1)
 3021 12ba D701      		movw r26,r14
 3022 12bc 1996      		adiw r26,8+1
 3023 12be 9C93      		st X,r25
 3024 12c0 8E93      		st -X,r24
 3025 12c2 1897      		sbiw r26,8
 3026               	.LM434:
 3027 12c4 1B96      		adiw r26,10+1
 3028 12c6 1C92      		st X,__zero_reg__
 3029 12c8 1E92      		st -X,__zero_reg__
 3030 12ca 1A97      		sbiw r26,10
 3031               	.LM435:
 3032 12cc 1D96      		adiw r26,12+1
 3033 12ce 1C92      		st X,__zero_reg__
 3034 12d0 1E92      		st -X,__zero_reg__
 3035 12d2 1C97      		sbiw r26,12
 3036               	.LM436:
 3037 12d4 1F96      		adiw r26,14+1
 3038 12d6 7C92      		st X,r7
 3039 12d8 6E92      		st -X,r6
 3040 12da 1E97      		sbiw r26,14
 3041               	.LM437:
 3042 12dc 5196      		adiw r26,16+1
 3043 12de 1C92      		st X,__zero_reg__
 3044 12e0 1E92      		st -X,__zero_reg__
 3045 12e2 5097      		sbiw r26,16
 3046               	.LM438:
 3047 12e4 81E0      		ldi r24,lo8(1)
 3048 12e6 5296      		adiw r26,18
 3049 12e8 8C93      		st X,r24
 3050 12ea 00C0      		rjmp .L237
 3051               	.LVL127:
 3052               	.L236:
 3053               	.LM439:
 3054 12ec C701      		movw r24,r14
 3055 12ee 61E0      		ldi r22,lo8(1)
 3056 12f0 0E94 0000 		call physical_plot
 3057               	.L237:
 3058 12f4 E3E1      		ldi r30,lo8(19)
 3059 12f6 F0E0      		ldi r31,hi8(19)
 3060 12f8 EE0E      		add r14,r30
 3061 12fa FF1E      		adc r15,r31
 3062 12fc 22E0      		ldi r18,lo8(2)
 3063 12fe 30E0      		ldi r19,hi8(2)
 3064 1300 C20E      		add r12,r18
 3065 1302 D31E      		adc r13,r19
 3066               	.LM440:
 3067 1304 E814      		cp r14,r8
 3068 1306 F904      		cpc r15,r9
 3069 1308 01F0      		breq .+2
 3070 130a 00C0      		rjmp .L238
 3071 130c 00C0      		rjmp .L254
 3072               	.LVL128:
 3073               	.L256:
 3074               	.LM441:
 3075 130e 412C      		mov r4,__zero_reg__
 3076 1310 88E7      		ldi r24,hi8(30720)
 3077 1312 582E      		mov r5,r24
 3078               	.LM442:
 3079 1314 09E2      		ldi r16,lo8(297)
 3080 1316 602E      		mov r6,r16
 3081 1318 01E0      		ldi r16,hi8(297)
 3082 131a 702E      		mov r7,r16
 3083               	.LM443:
 3084 131c 1DEF      		ldi r17,lo8(509)
 3085 131e 812E      		mov r8,r17
 3086 1320 11E0      		ldi r17,hi8(509)
 3087 1322 912E      		mov r9,r17
 3088 1324 8C0E      		add r8,r28
 3089 1326 9D1E      		adc r9,r29
 3090               	.L254:
 3091               	.LM444:
 3092 1328 8091 0000 		lds r24,fallout
 3093 132c 8823      		tst r24
 3094 132e 01F0      		breq .+2
 3095 1330 00C0      		rjmp .L239
 3096 1332 8091 0000 		lds r24,duration
 3097 1336 9091 0000 		lds r25,(duration)+1
 3098 133a 892B      		or r24,r25
 3099 133c 01F4      		brne .+2
 3100 133e 00C0      		rjmp .L240
 3101 1340 8091 0000 		lds r24,time
 3102 1344 9091 0000 		lds r25,(time)+1
 3103 1348 892B      		or r24,r25
 3104 134a 01F0      		breq .+2
 3105 134c 00C0      		rjmp .L240
 3106 134e 00C0      		rjmp .L239
 3107               	.LVL129:
 3108               	.L247:
 3109               	.LM445:
 3110 1350 81E0      		ldi r24,lo8(1)
 3111 1352 90E0      		ldi r25,hi8(1)
 3112 1354 0E94 0000 		call led_waitframe
 3113               	.LVL130:
 3114 1358 B1E8      		ldi r27,lo8(129)
 3115 135a EB2E      		mov r14,r27
 3116 135c F12C      		mov r15,__zero_reg__
 3117 135e EC0E      		add r14,r28
 3118 1360 FD1E      		adc r15,r29
 3119 1362 6101      		movw r12,r2
 3120 1364 5524      		clr r5
 3121               	.L244:
 3122               	.LM446:
 3123 1366 C701      		movw r24,r14
 3124 1368 60E0      		ldi r22,lo8(0)
 3125 136a 0E94 0000 		call physical_plot
 3126               	.LM447:
 3127 136e C701      		movw r24,r14
 3128 1370 0E94 0000 		call physical_process
 3129               	.LM448:
 3130 1374 D701      		movw r26,r14
 3131 1376 5296      		adiw r26,18
 3132 1378 8C91      		ld r24,X
 3133 137a 5297      		sbiw r26,18
 3134 137c 8823      		tst r24
 3135 137e 01F0      		breq .+2
 3136 1380 00C0      		rjmp .L241
 3137               	.LM449:
 3138 1382 1E96      		adiw r26,14
 3139 1384 8D91      		ld r24,X+
 3140 1386 9C91      		ld r25,X
 3141 1388 1F97      		sbiw r26,14+1
 3142 138a 892B      		or r24,r25
 3143 138c 01F0      		breq .+2
 3144 138e 00C0      		rjmp .L242
 3145               	.LM450:
 3146 1390 BBE2      		ldi r27,lo8(43)
 3147 1392 B415      		cp r27,r4
 3148 1394 00F4      		brsh .+2
 3149 1396 00C0      		rjmp .L243
 3150               	.LM451:
 3151 1398 F601      		movw r30,r12
 3152 139a 2081      		ld r18,Z
 3153               	.LVL131:
 3154               	.LM452:
 3155 139c 3181      		ldd r19,Z+1
 3156               	.LVL132:
 3157               	.LM453:
 3158 139e E42D      		mov r30,r4
 3159 13a0 F0E0      		ldi r31,lo8(0)
 3160 13a2 4394      		inc r4
 3161               	.LM454:
 3162 13a4 EE0F      		lsl r30
 3163 13a6 FF1F      		rol r31
 3164 13a8 81E0      		ldi r24,lo8(1)
 3165 13aa 90E0      		ldi r25,hi8(1)
 3166 13ac 8C0F      		add r24,r28
 3167 13ae 9D1F      		adc r25,r29
 3168 13b0 E80F      		add r30,r24
 3169 13b2 F91F      		adc r31,r25
 3170 13b4 80A5      		ldd r24,Z+40
 3171 13b6 D601      		movw r26,r12
 3172 13b8 8C93      		st X,r24
 3173               	.LM455:
 3174 13ba 91A5      		ldd r25,Z+41
 3175 13bc 1196      		adiw r26,1
 3176 13be 9C93      		st X,r25
 3177 13c0 1197      		sbiw r26,1
 3178               	.LM456:
 3179 13c2 20A7      		std Z+40,r18
 3180               	.LM457:
 3181 13c4 31A7      		std Z+41,r19
 3182               	.LM458:
 3183 13c6 8C91      		ld r24,X
 3184 13c8 B82E      		mov r11,r24
 3185 13ca B294      		swap r11
 3186 13cc 70EF      		ldi r23,lo8(-16)
 3187 13ce B722      		and r11,r23
 3188 13d0 AA24      		clr r10
 3189 13d2 E0E0      		ldi r30,lo8(2048)
 3190 13d4 F8E0      		ldi r31,hi8(2048)
 3191 13d6 AE0E      		add r10,r30
 3192 13d8 BF1E      		adc r11,r31
 3193 13da D701      		movw r26,r14
 3194 13dc 1196      		adiw r26,1
 3195 13de BC92      		st X,r11
 3196 13e0 AE92      		st -X,r10
 3197               	.LM459:
 3198 13e2 20E0      		ldi r18,lo8(30720)
 3199 13e4 38E7      		ldi r19,hi8(30720)
 3200               	.LVL133:
 3201 13e6 1396      		adiw r26,2+1
 3202 13e8 3C93      		st X,r19
 3203 13ea 2E93      		st -X,r18
 3204 13ec 1297      		sbiw r26,2
 3205               	.LM460:
 3206 13ee 992E      		mov r9,r25
 3207 13f0 9294      		swap r9
 3208 13f2 60EF      		ldi r22,lo8(-16)
 3209 13f4 9622      		and r9,r22
 3210 13f6 8824      		clr r8
 3211 13f8 80E0      		ldi r24,lo8(2048)
 3212 13fa 98E0      		ldi r25,hi8(2048)
 3213 13fc 880E      		add r8,r24
 3214 13fe 991E      		adc r9,r25
 3215 1400 1596      		adiw r26,4+1
 3216 1402 9C92      		st X,r9
 3217 1404 8E92      		st -X,r8
 3218 1406 1497      		sbiw r26,4
 3219               	.LM461:
 3220 1408 1796      		adiw r26,6+1
 3221 140a 1C92      		st X,__zero_reg__
 3222 140c 1E92      		st -X,__zero_reg__
 3223 140e 1697      		sbiw r26,6
 3224               	.LM462:
 3225 1410 0E94 0000 		call rand
 3226               	.LVL134:
 3227 1414 9F70      		andi r25,hi8(4095)
 3228 1416 A0E7      		ldi r26,lo8(-400)
 3229 1418 BEEF      		ldi r27,hi8(-400)
 3230 141a A81B      		sub r26,r24
 3231 141c B90B      		sbc r27,r25
 3232 141e F701      		movw r30,r14
 3233 1420 B187      		std Z+9,r27
 3234 1422 A087      		std Z+8,r26
 3235               	.LM463:
 3236 1424 1386      		std Z+11,__zero_reg__
 3237 1426 1286      		std Z+10,__zero_reg__
 3238               	.LM464:
 3239 1428 1586      		std Z+13,__zero_reg__
 3240 142a 1486      		std Z+12,__zero_reg__
 3241               	.LM465:
 3242 142c 1786      		std Z+15,__zero_reg__
 3243 142e 1686      		std Z+14,__zero_reg__
 3244               	.LM466:
 3245 1430 118A      		std Z+17,__zero_reg__
 3246 1432 108A      		std Z+16,__zero_reg__
 3247               	.LM467:
 3248 1434 81E0      		ldi r24,lo8(1)
 3249 1436 828B      		std Z+18,r24
 3250 1438 00C0      		rjmp .L255
 3251               	.LVL135:
 3252               	.L242:
 3253               	.LM468:
 3254 143a FBE2      		ldi r31,lo8(43)
 3255 143c F415      		cp r31,r4
 3256 143e 00F4      		brsh .+2
 3257 1440 00C0      		rjmp .L243
 3258               	.LM469:
 3259 1442 D601      		movw r26,r12
 3260 1444 1C91      		ld r17,X
 3261               	.LVL136:
 3262               	.LM470:
 3263 1446 1196      		adiw r26,1
 3264 1448 0C91      		ld r16,X
 3265               	.LVL137:
 3266               	.LM471:
 3267 144a 812F      		mov r24,r17
 3268 144c 67E0      		ldi r22,lo8(7)
 3269 144e 402F      		mov r20,r16
 3270 1450 21E0      		ldi r18,lo8(1)
 3271 1452 0E94 0000 		call led_point
 3272               	.LM472:
 3273 1456 0E94 0000 		call rand
 3274 145a 242D      		mov r18,r4
 3275 145c 30E0      		ldi r19,lo8(0)
 3276 145e 6CE2      		ldi r22,lo8(44)
 3277 1460 70E0      		ldi r23,hi8(44)
 3278 1462 621B      		sub r22,r18
 3279 1464 730B      		sbc r23,r19
 3280 1466 0E94 0000 		call __divmodhi4
 3281 146a FC01      		movw r30,r24
 3282 146c E20F      		add r30,r18
 3283 146e F31F      		adc r31,r19
 3284               	.LM473:
 3285 1470 EE0F      		lsl r30
 3286 1472 FF1F      		rol r31
 3287 1474 21E0      		ldi r18,lo8(1)
 3288 1476 30E0      		ldi r19,hi8(1)
 3289 1478 2C0F      		add r18,r28
 3290 147a 3D1F      		adc r19,r29
 3291 147c E20F      		add r30,r18
 3292 147e F31F      		adc r31,r19
 3293 1480 80A5      		ldd r24,Z+40
 3294 1482 D601      		movw r26,r12
 3295 1484 8C93      		st X,r24
 3296               	.LM474:
 3297 1486 91A5      		ldd r25,Z+41
 3298 1488 1196      		adiw r26,1
 3299 148a 9C93      		st X,r25
 3300 148c 1197      		sbiw r26,1
 3301               	.LM475:
 3302 148e 10A7      		std Z+40,r17
 3303               	.LM476:
 3304 1490 01A7      		std Z+41,r16
 3305               	.LM477:
 3306 1492 8C91      		ld r24,X
 3307 1494 182F      		mov r17,r24
 3308               	.LVL138:
 3309 1496 1295      		swap r17
 3310 1498 107F      		andi r17,lo8(-16)
 3311 149a 00E0      		ldi r16,lo8(0)
 3312               	.LVL139:
 3313 149c 0050      		subi r16,lo8(-(2048))
 3314 149e 184F      		sbci r17,hi8(-(2048))
 3315 14a0 F701      		movw r30,r14
 3316 14a2 1183      		std Z+1,r17
 3317 14a4 0083      		st Z,r16
 3318               	.LM478:
 3319 14a6 20E0      		ldi r18,lo8(30720)
 3320 14a8 38E7      		ldi r19,hi8(30720)
 3321 14aa 3383      		std Z+3,r19
 3322 14ac 2283      		std Z+2,r18
 3323               	.LM479:
 3324 14ae 792E      		mov r7,r25
 3325 14b0 7294      		swap r7
 3326 14b2 40EF      		ldi r20,lo8(-16)
 3327 14b4 7422      		and r7,r20
 3328 14b6 6624      		clr r6
 3329 14b8 80E0      		ldi r24,lo8(2048)
 3330 14ba 98E0      		ldi r25,hi8(2048)
 3331 14bc 680E      		add r6,r24
 3332 14be 791E      		adc r7,r25
 3333 14c0 7582      		std Z+5,r7
 3334 14c2 6482      		std Z+4,r6
 3335               	.LM480:
 3336 14c4 1782      		std Z+7,__zero_reg__
 3337 14c6 1682      		std Z+6,__zero_reg__
 3338               	.LM481:
 3339 14c8 0E94 0000 		call rand
 3340 14cc 9F70      		andi r25,hi8(4095)
 3341 14ce E0E7      		ldi r30,lo8(-400)
 3342 14d0 FEEF      		ldi r31,hi8(-400)
 3343 14d2 E81B      		sub r30,r24
 3344 14d4 F90B      		sbc r31,r25
 3345 14d6 D701      		movw r26,r14
 3346 14d8 1996      		adiw r26,8+1
 3347 14da FC93      		st X,r31
 3348 14dc EE93      		st -X,r30
 3349 14de 1897      		sbiw r26,8
 3350               	.LM482:
 3351 14e0 1B96      		adiw r26,10+1
 3352 14e2 1C92      		st X,__zero_reg__
 3353 14e4 1E92      		st -X,__zero_reg__
 3354 14e6 1A97      		sbiw r26,10
 3355               	.LM483:
 3356 14e8 1D96      		adiw r26,12+1
 3357 14ea 1C92      		st X,__zero_reg__
 3358 14ec 1E92      		st -X,__zero_reg__
 3359 14ee 1C97      		sbiw r26,12
 3360               	.LM484:
 3361 14f0 1F96      		adiw r26,14+1
 3362 14f2 1C92      		st X,__zero_reg__
 3363 14f4 1E92      		st -X,__zero_reg__
 3364 14f6 1E97      		sbiw r26,14
 3365               	.LM485:
 3366 14f8 5196      		adiw r26,16+1
 3367 14fa 1C92      		st X,__zero_reg__
 3368 14fc 1E92      		st -X,__zero_reg__
 3369 14fe 5097      		sbiw r26,16
 3370               	.LM486:
 3371 1500 81E0      		ldi r24,lo8(1)
 3372 1502 5296      		adiw r26,18
 3373 1504 8C93      		st X,r24
 3374 1506 00C0      		rjmp .L255
 3375               	.LVL140:
 3376               	.L241:
 3377               	.LM487:
 3378 1508 C701      		movw r24,r14
 3379 150a 61E0      		ldi r22,lo8(1)
 3380 150c 0E94 0000 		call physical_plot
 3381               	.L255:
 3382 1510 5524      		clr r5
 3383 1512 5394      		inc r5
 3384               	.L243:
 3385 1514 E3E1      		ldi r30,lo8(19)
 3386 1516 F0E0      		ldi r31,hi8(19)
 3387 1518 EE0E      		add r14,r30
 3388 151a FF1E      		adc r15,r31
 3389 151c 22E0      		ldi r18,lo8(2)
 3390 151e 30E0      		ldi r19,hi8(2)
 3391 1520 C20E      		add r12,r18
 3392 1522 D31E      		adc r13,r19
 3393               	.LM488:
 3394 1524 C250      		subi r28,lo8(-510)
 3395 1526 DE4F      		sbci r29,hi8(-510)
 3396 1528 8881      		ld r24,Y
 3397 152a 9981      		ldd r25,Y+1
 3398 152c CE5F      		subi r28,lo8(510)
 3399 152e D140      		sbci r29,hi8(510)
 3400 1530 E816      		cp r14,r24
 3401 1532 F906      		cpc r15,r25
 3402 1534 01F0      		breq .+2
 3403 1536 00C0      		rjmp .L244
 3404               	.LM489:
 3405 1538 5520      		tst r5
 3406 153a 01F4      		brne .L246
 3407 153c 00C0      		rjmp .L248
 3408               	.LVL141:
 3409               	.L239:
 3410 153e 4424      		clr r4
 3411               	.LVL142:
 3412               	.LM490:
 3413 1540 DE01      		movw r26,r28
 3414 1542 A350      		subi r26,lo8(-(509))
 3415 1544 BE4F      		sbci r27,hi8(-(509))
 3416 1546 C250      		subi r28,lo8(-510)
 3417 1548 DE4F      		sbci r29,hi8(-510)
 3418 154a B983      		std Y+1,r27
 3419 154c A883      		st Y,r26
 3420 154e CE5F      		subi r28,lo8(510)
 3421 1550 D140      		sbci r29,hi8(510)
 3422               	.LVL143:
 3423               	.L246:
 3424               	.LM491:
 3425 1552 8091 0000 		lds r24,fallout
 3426 1556 8823      		tst r24
 3427 1558 01F4      		brne .+2
 3428 155a 00C0      		rjmp .L247
 3429               	.L248:
 3430               	/* epilogue start */
 3431               	.LM492:
 3432 155c C150      		subi r28,lo8(-(511))
 3433 155e DE4F      		sbci r29,hi8(-(511))
 3434 1560 0FB6      		in __tmp_reg__,__SREG__
 3435 1562 F894      		cli
 3436 1564 DEBF      		out __SP_H__,r29
 3437 1566 0FBE      		out __SREG__,__tmp_reg__
 3438 1568 CDBF      		out __SP_L__,r28
 3439 156a CF91      		pop r28
 3440 156c DF91      		pop r29
 3441 156e 1F91      		pop r17
 3442 1570 0F91      		pop r16
 3443 1572 FF90      		pop r15
 3444 1574 EF90      		pop r14
 3445 1576 DF90      		pop r13
 3446               	.LVL144:
 3447 1578 CF90      		pop r12
 3448 157a BF90      		pop r11
 3449 157c AF90      		pop r10
 3450 157e 9F90      		pop r9
 3451 1580 8F90      		pop r8
 3452 1582 7F90      		pop r7
 3453 1584 6F90      		pop r6
 3454 1586 5F90      		pop r5
 3455               	.LVL145:
 3456 1588 4F90      		pop r4
 3457               	.LVL146:
 3458 158a 3F90      		pop r3
 3459 158c 2F90      		pop r2
 3460 158e 0895      		ret
 3461               	.LFE23:
 3463               	.global	pattern_noise_scroll
 3465               	pattern_noise_scroll:
 3466               	.LFB27:
 3467               	.LM493:
 3468 1590 FF92      		push r15
 3469 1592 0F93      		push r16
 3470 1594 1F93      		push r17
 3471 1596 CF93      		push r28
 3472 1598 DF93      		push r29
 3473               	/* prologue: function */
 3474               	/* frame size = 0 */
 3475               	.LM494:
 3476 159a 1092 0000 		sts fallout,__zero_reg__
 3477               	.LM495:
 3478 159e 8091 0000 		lds r24,duration
 3479 15a2 9091 0000 		lds r25,(duration)+1
 3480 15a6 9093 0000 		sts (time)+1,r25
 3481 15aa 8093 0000 		sts time,r24
 3482               	.LM496:
 3483 15ae 84E6      		ldi r24,lo8(100)
 3484 15b0 90E0      		ldi r25,hi8(100)
 3485 15b2 0E94 0000 		call led_framerate
 3486               	.LM497:
 3487 15b6 8FEF      		ldi r24,lo8(-1)
 3488 15b8 0E94 0000 		call led_plane_intensity_all
 3489 15bc 00C0      		rjmp .L258
 3490               	.L261:
 3491               	.LM498:
 3492 15be 0E94 0000 		call led_frame_up
 3493 15c2 C0E0      		ldi r28,lo8(led_frame_bitmap+56)
 3494 15c4 D0E0      		ldi r29,hi8(led_frame_bitmap+56)
 3495               	.L259:
 3496               	.LM499:
 3497 15c6 1881      		ld r17,Y
 3498 15c8 0E94 0000 		call rand
 3499 15cc F82E      		mov r15,r24
 3500 15ce 0E94 0000 		call rand
 3501 15d2 082F      		mov r16,r24
 3502 15d4 0E94 0000 		call rand
 3503 15d8 0F21      		and r16,r15
 3504 15da 0823      		and r16,r24
 3505 15dc 102B      		or r17,r16
 3506 15de 1993      		st Y+,r17
 3507               	.LM500:
 3508 15e0 80E0      		ldi r24,hi8(led_frame_bitmap+64)
 3509 15e2 C030      		cpi r28,lo8(led_frame_bitmap+64)
 3510 15e4 D807      		cpc r29,r24
 3511 15e6 01F4      		brne .L259
 3512               	.LM501:
 3513 15e8 84E0      		ldi r24,lo8(4)
 3514 15ea 90E0      		ldi r25,hi8(4)
 3515 15ec 0E94 0000 		call led_waitframe
 3516               	.L258:
 3517               	.LM502:
 3518 15f0 8091 0000 		lds r24,fallout
 3519 15f4 8823      		tst r24
 3520 15f6 01F4      		brne .L260
 3521 15f8 8091 0000 		lds r24,duration
 3522 15fc 9091 0000 		lds r25,(duration)+1
 3523 1600 892B      		or r24,r25
 3524 1602 01F0      		breq .L261
 3525 1604 8091 0000 		lds r24,time
 3526 1608 9091 0000 		lds r25,(time)+1
 3527 160c 892B      		or r24,r25
 3528 160e 01F4      		brne .L261
 3529               	.L260:
 3530               	.LM503:
 3531 1610 0E94 0000 		call led_blank
 3532               	/* epilogue start */
 3533               	.LM504:
 3534 1614 DF91      		pop r29
 3535 1616 CF91      		pop r28
 3536 1618 1F91      		pop r17
 3537 161a 0F91      		pop r16
 3538 161c FF90      		pop r15
 3539 161e 0895      		ret
 3540               	.LFE27:
 3542               	.global	pattern_rotate1
 3544               	pattern_rotate1:
 3545               	.LFB31:
 3546               	.LM505:
 3547 1620 4F92      		push r4
 3548 1622 5F92      		push r5
 3549 1624 6F92      		push r6
 3550 1626 7F92      		push r7
 3551 1628 8F92      		push r8
 3552 162a 9F92      		push r9
 3553 162c AF92      		push r10
 3554 162e BF92      		push r11
 3555 1630 CF92      		push r12
 3556 1632 DF92      		push r13
 3557 1634 EF92      		push r14
 3558 1636 FF92      		push r15
 3559 1638 0F93      		push r16
 3560 163a 1F93      		push r17
 3561 163c DF93      		push r29
 3562 163e CF93      		push r28
 3563 1640 CDB7      		in r28,__SP_L__
 3564 1642 DEB7      		in r29,__SP_H__
 3565 1644 2C97      		sbiw r28,12
 3566 1646 0FB6      		in __tmp_reg__,__SREG__
 3567 1648 F894      		cli
 3568 164a DEBF      		out __SP_H__,r29
 3569 164c 0FBE      		out __SREG__,__tmp_reg__
 3570 164e CDBF      		out __SP_L__,r28
 3571               	/* prologue: function */
 3572               	/* frame size = 12 */
 3573               	.LM506:
 3574 1650 1092 0000 		sts fallout,__zero_reg__
 3575               	.LM507:
 3576 1654 8091 0000 		lds r24,duration
 3577 1658 9091 0000 		lds r25,(duration)+1
 3578 165c 9093 0000 		sts (time)+1,r25
 3579 1660 8093 0000 		sts time,r24
 3580               	.LM508:
 3581 1664 84E6      		ldi r24,lo8(100)
 3582 1666 90E0      		ldi r25,hi8(100)
 3583 1668 0E94 0000 		call led_framerate
 3584               	.LM509:
 3585 166c 0E94 0000 		call led_blank
 3586               	.LM510:
 3587 1670 8FEF      		ldi r24,lo8(-1)
 3588 1672 0E94 0000 		call led_plane_intensity_all
 3589 1676 16E0      		ldi r17,lo8(6)
 3590               	.LVL147:
 3591 1678 00C0      		rjmp .L265
 3592               	.L267:
 3593               	.LM511:
 3594 167a 80E0      		ldi r24,lo8(0)
 3595 167c 0E94 0000 		call led_plane_y_left
 3596               	.LM512:
 3597 1680 8091 0000 		lds r24,led_frame_bitmap+1
 3598 1684 8160      		ori r24,lo8(1)
 3599 1686 8093 0000 		sts led_frame_bitmap+1,r24
 3600               	.LM513:
 3601 168a 8091 0000 		lds r24,led_frame_bitmap+2
 3602 168e 8160      		ori r24,lo8(1)
 3603 1690 8093 0000 		sts led_frame_bitmap+2,r24
 3604               	.LM514:
 3605 1694 8091 0000 		lds r24,led_frame_bitmap+3
 3606 1698 8160      		ori r24,lo8(1)
 3607 169a 8093 0000 		sts led_frame_bitmap+3,r24
 3608               	.LM515:
 3609 169e 8091 0000 		lds r24,led_frame_bitmap+4
 3610 16a2 8160      		ori r24,lo8(1)
 3611 16a4 8093 0000 		sts led_frame_bitmap+4,r24
 3612               	.LM516:
 3613 16a8 8091 0000 		lds r24,led_frame_bitmap+5
 3614 16ac 8160      		ori r24,lo8(1)
 3615 16ae 8093 0000 		sts led_frame_bitmap+5,r24
 3616               	.LM517:
 3617 16b2 8091 0000 		lds r24,led_frame_bitmap+6
 3618 16b6 8160      		ori r24,lo8(1)
 3619 16b8 8093 0000 		sts led_frame_bitmap+6,r24
 3620               	.LM518:
 3621 16bc 84E0      		ldi r24,lo8(4)
 3622 16be 90E0      		ldi r25,hi8(4)
 3623 16c0 0E94 0000 		call led_waitframe
 3624               	.L265:
 3625               	.LM519:
 3626 16c4 1150      		subi r17,lo8(-(-1))
 3627 16c6 1F3F      		cpi r17,lo8(-1)
 3628 16c8 01F0      		breq .L266
 3629 16ca 8091 0000 		lds r24,fallout
 3630 16ce 8823      		tst r24
 3631 16d0 01F0      		breq .L267
 3632               	.L266:
 3633               	.LM520:
 3634 16d2 80E0      		ldi r24,lo8(0)
 3635 16d4 0E94 0000 		call led_plane_y_left
 3636               	.LM521:
 3637 16d8 84E0      		ldi r24,lo8(4)
 3638 16da 90E0      		ldi r25,hi8(4)
 3639 16dc 0E94 0000 		call led_waitframe
 3640 16e0 03E0      		ldi r16,lo8(3)
 3641               	.LVL148:
 3642 16e2 28E0      		ldi r18,lo8(8)
 3643               	.LVL149:
 3644               	.LM522:
 3645 16e4 8CE0      		ldi r24,lo8(12)
 3646 16e6 682E      		mov r6,r24
 3647 16e8 6E01      		movw r12,r28
 3648 16ea 0894      		sec
 3649 16ec C11C      		adc r12,__zero_reg__
 3650 16ee D11C      		adc r13,__zero_reg__
 3651               	.LM523:
 3652 16f0 14E0      		ldi r17,lo8(4)
 3653 16f2 712E      		mov r7,r17
 3654               	.LVL150:
 3655               	.LM524:
 3656 16f4 8824      		clr r8
 3657 16f6 8394      		inc r8
 3658               	.LM525:
 3659 16f8 B2E0      		ldi r27,lo8(2)
 3660 16fa 9B2E      		mov r9,r27
 3661               	.LM526:
 3662 16fc A5E0      		ldi r26,lo8(5)
 3663 16fe AA2E      		mov r10,r26
 3664               	.LM527:
 3665 1700 F6E0      		ldi r31,lo8(6)
 3666 1702 BF2E      		mov r11,r31
 3667               	.LM528:
 3668 1704 E3E0      		ldi r30,lo8(3)
 3669 1706 EE2E      		mov r14,r30
 3670               	.LM529:
 3671 1708 72E0      		ldi r23,lo8(2)
 3672 170a 472E      		mov r4,r23
 3673 170c 512C      		mov r5,__zero_reg__
 3674 170e 4C0E      		add r4,r28
 3675 1710 5D1E      		adc r5,r29
 3676 1712 00C0      		rjmp .L308
 3677               	.LVL151:
 3678               	.L300:
 3679               	.LM530:
 3680 1714 F601      		movw r30,r12
 3681 1716 862D      		mov r24,r6
 3682 1718 1192      		st Z+,__zero_reg__
 3683 171a 8A95      	        dec r24
 3684 171c 01F4      		brne .-6
 3685               	.LM531:
 3686 171e 0330      		cpi r16,lo8(3)
 3687 1720 01F0      		breq .L272
 3688 1722 0430      		cpi r16,lo8(4)
 3689 1724 00F4      		brsh .L276
 3690 1726 0130      		cpi r16,lo8(1)
 3691 1728 01F0      		breq .L270
 3692 172a 0230      		cpi r16,lo8(2)
 3693 172c 01F4      		brne .L269
 3694 172e 00C0      		rjmp .L310
 3695               	.L276:
 3696 1730 0530      		cpi r16,lo8(5)
 3697 1732 01F0      		breq .L274
 3698 1734 0530      		cpi r16,lo8(5)
 3699 1736 00F0      		brlo .L273
 3700 1738 0630      		cpi r16,lo8(6)
 3701 173a 01F4      		brne .L269
 3702 173c 00C0      		rjmp .L311
 3703               	.L272:
 3704               	.LM532:
 3705 173e 7A86      		std Y+10,r7
 3706               	.LM533:
 3707 1740 8E82      		std Y+6,r8
 3708               	.LM534:
 3709 1742 9D82      		std Y+5,r9
 3710               	.LM535:
 3711 1744 AC82      		std Y+4,r10
 3712               	.LM536:
 3713 1746 BB82      		std Y+3,r11
 3714 1748 00C0      		rjmp .L269
 3715               	.L273:
 3716               	.LM537:
 3717 174a E986      		std Y+9,r14
 3718               	.LM538:
 3719 174c 9E82      		std Y+6,r9
 3720               	.LM539:
 3721 174e 8D82      		std Y+5,r8
 3722               	.LM540:
 3723 1750 BC82      		std Y+4,r11
 3724               	.LM541:
 3725 1752 AB82      		std Y+3,r10
 3726 1754 00C0      		rjmp .L269
 3727               	.L270:
 3728               	.LM542:
 3729 1756 9886      		std Y+8,r9
 3730               	.LM543:
 3731 1758 7E82      		std Y+6,r7
 3732               	.LM544:
 3733 175a ED82      		std Y+5,r14
 3734               	.LM545:
 3735 175c B982      		std Y+1,r11
 3736               	.LM546:
 3737 175e AA82      		std Y+2,r10
 3738 1760 00C0      		rjmp .L269
 3739               	.L310:
 3740               	.LM547:
 3741 1762 8F82      		std Y+7,r8
 3742               	.LM548:
 3743 1764 EE82      		std Y+6,r14
 3744               	.LM549:
 3745 1766 7D82      		std Y+5,r7
 3746               	.LM550:
 3747 1768 A982      		std Y+1,r10
 3748               	.LM551:
 3749 176a BA82      		std Y+2,r11
 3750 176c 00C0      		rjmp .L269
 3751               	.L274:
 3752               	.LM552:
 3753 176e BB86      		std Y+11,r11
 3754               	.LM553:
 3755 1770 7C82      		std Y+4,r7
 3756               	.LM554:
 3757 1772 EB82      		std Y+3,r14
 3758               	.LM555:
 3759 1774 8982      		std Y+1,r8
 3760               	.LM556:
 3761 1776 9A82      		std Y+2,r9
 3762 1778 00C0      		rjmp .L269
 3763               	.L311:
 3764               	.LM557:
 3765 177a AC86      		std Y+12,r10
 3766               	.LM558:
 3767 177c EC82      		std Y+4,r14
 3768               	.LM559:
 3769 177e 7B82      		std Y+3,r7
 3770               	.LM560:
 3771 1780 9982      		std Y+1,r9
 3772               	.LM561:
 3773 1782 8A82      		std Y+2,r8
 3774               	.L269:
 3775               	.LM562:
 3776 1784 E22F      		mov r30,r18
 3777 1786 F0E0      		ldi r31,lo8(0)
 3778 1788 20FF      		sbrs r18,0
 3779 178a 00C0      		rjmp .L277
 3780               	.LVL152:
 3781               	.LM563:
 3782 178c EC0F      		add r30,r28
 3783 178e FD1F      		adc r31,r29
 3784 1790 00C0      		rjmp .L309
 3785               	.L277:
 3786               	.LM564:
 3787 1792 E40D      		add r30,r4
 3788 1794 F51D      		adc r31,r5
 3789               	.L309:
 3790 1796 1082      		st Z,__zero_reg__
 3791               	.LM565:
 3792 1798 0E94 0000 		call rand
 3793 179c 982F      		mov r25,r24
 3794               	.LVL153:
 3795 179e 9370      		andi r25,lo8(3)
 3796               	.LM566:
 3797 17a0 9F5F      		subi r25,lo8(-(1))
 3798 17a2 20E0      		ldi r18,lo8(0)
 3799               	.LVL154:
 3800               	.L280:
 3801               	.LM567:
 3802 17a4 F601      		movw r30,r12
 3803 17a6 E20F      		add r30,r18
 3804 17a8 F11D      		adc r31,__zero_reg__
 3805 17aa 8081      		ld r24,Z
 3806 17ac 8111      		cpse r24,__zero_reg__
 3807               	.LM568:
 3808 17ae 9150      		subi r25,lo8(-(-1))
 3809               	.L279:
 3810               	.LM569:
 3811 17b0 2F5F      		subi r18,lo8(-(1))
 3812               	.LM570:
 3813 17b2 9923      		tst r25
 3814 17b4 01F4      		brne .L280
 3815               	.LM571:
 3816 17b6 122F      		mov r17,r18
 3817 17b8 1150      		subi r17,lo8(-(-1))
 3818               	.LVL155:
 3819               	.LM572:
 3820 17ba F601      		movw r30,r12
 3821 17bc E10F      		add r30,r17
 3822 17be F11D      		adc r31,__zero_reg__
 3823 17c0 0081      		ld r16,Z
 3824 17c2 67E0      		ldi r22,lo8(7)
 3825 17c4 F62E      		mov r15,r22
 3826               	.LVL156:
 3827 17c6 00C0      		rjmp .L281
 3828               	.LVL157:
 3829               	.L298:
 3830               	.LM573:
 3831 17c8 1530      		cpi r17,lo8(5)
 3832 17ca 01F0      		breq .L288
 3833 17cc 1630      		cpi r17,lo8(6)
 3834 17ce 00F4      		brsh .L295
 3835 17d0 1230      		cpi r17,lo8(2)
 3836 17d2 01F0      		breq .L285
 3837 17d4 1330      		cpi r17,lo8(3)
 3838 17d6 00F4      		brsh .L296
 3839 17d8 1123      		tst r17
 3840 17da 01F0      		breq .L283
 3841 17dc 1130      		cpi r17,lo8(1)
 3842 17de 01F4      		brne .L282
 3843 17e0 00C0      		rjmp .L312
 3844               	.L296:
 3845 17e2 1330      		cpi r17,lo8(3)
 3846 17e4 01F0      		breq .L286
 3847 17e6 1430      		cpi r17,lo8(4)
 3848 17e8 01F4      		brne .L282
 3849 17ea 00C0      		rjmp .L313
 3850               	.L295:
 3851 17ec 1830      		cpi r17,lo8(8)
 3852 17ee 01F0      		breq .L291
 3853 17f0 1930      		cpi r17,lo8(9)
 3854 17f2 00F4      		brsh .L297
 3855 17f4 1630      		cpi r17,lo8(6)
 3856 17f6 01F0      		breq .L289
 3857 17f8 1730      		cpi r17,lo8(7)
 3858 17fa 01F4      		brne .L282
 3859 17fc 00C0      		rjmp .L314
 3860               	.L297:
 3861 17fe 1A30      		cpi r17,lo8(10)
 3862 1800 01F0      		breq .L293
 3863 1802 1A30      		cpi r17,lo8(10)
 3864 1804 00F0      		brlo .L292
 3865 1806 1B30      		cpi r17,lo8(11)
 3866 1808 01F4      		brne .L282
 3867 180a 00C0      		rjmp .L315
 3868               	.L283:
 3869               	.LM574:
 3870 180c 0E94 0000 		call led_perimeter_left
 3871               	.LVL158:
 3872 1810 00C0      		rjmp .L282
 3873               	.LVL159:
 3874               	.L312:
 3875               	.LM575:
 3876 1812 0E94 0000 		call led_perimeter_right
 3877               	.LVL160:
 3878 1816 00C0      		rjmp .L282
 3879               	.LVL161:
 3880               	.L285:
 3881               	.LM576:
 3882 1818 0E94 0000 		call led_perimeter_up
 3883               	.LVL162:
 3884 181c 00C0      		rjmp .L282
 3885               	.LVL163:
 3886               	.L286:
 3887               	.LM577:
 3888 181e 0E94 0000 		call led_perimeter_down
 3889               	.LVL164:
 3890 1822 00C0      		rjmp .L282
 3891               	.LVL165:
 3892               	.L313:
 3893               	.LM578:
 3894 1824 0E94 0000 		call led_perimeter_clockwise
 3895               	.LVL166:
 3896 1828 00C0      		rjmp .L282
 3897               	.LVL167:
 3898               	.L288:
 3899               	.LM579:
 3900 182a 0E94 0000 		call led_perimeter_anticlockwise
 3901               	.LVL168:
 3902 182e 00C0      		rjmp .L282
 3903               	.LVL169:
 3904               	.L289:
 3905               	.LM580:
 3906 1830 0E94 0000 		call led_frame_left
 3907               	.LVL170:
 3908 1834 00C0      		rjmp .L282
 3909               	.LVL171:
 3910               	.L314:
 3911               	.LM581:
 3912 1836 0E94 0000 		call led_frame_right
 3913               	.LVL172:
 3914 183a 00C0      		rjmp .L282
 3915               	.LVL173:
 3916               	.L291:
 3917               	.LM582:
 3918 183c 0E94 0000 		call led_frame_up
 3919               	.LVL174:
 3920 1840 00C0      		rjmp .L282
 3921               	.LVL175:
 3922               	.L292:
 3923               	.LM583:
 3924 1842 0E94 0000 		call led_frame_down
 3925               	.LVL176:
 3926 1846 00C0      		rjmp .L282
 3927               	.LVL177:
 3928               	.L293:
 3929               	.LM584:
 3930 1848 0E94 0000 		call led_frame_back
 3931               	.LVL178:
 3932 184c 00C0      		rjmp .L282
 3933               	.LVL179:
 3934               	.L315:
 3935               	.LM585:
 3936 184e 0E94 0000 		call led_frame_forward
 3937               	.LVL180:
 3938               	.L282:
 3939               	.LM586:
 3940 1852 84E0      		ldi r24,lo8(4)
 3941 1854 90E0      		ldi r25,hi8(4)
 3942 1856 0E94 0000 		call led_waitframe
 3943               	.LVL181:
 3944               	.L281:
 3945               	.LM587:
 3946 185a FA94      		dec r15
 3947 185c 212F      		mov r18,r17
 3948               	.LVL182:
 3949 185e EFEF      		ldi r30,lo8(-1)
 3950 1860 FE16      		cp r15,r30
 3951 1862 01F0      		breq .L308
 3952 1864 8091 0000 		lds r24,fallout
 3953 1868 8823      		tst r24
 3954 186a 01F4      		brne .+2
 3955 186c 00C0      		rjmp .L298
 3956               	.L308:
 3957               	.LM588:
 3958 186e 8091 0000 		lds r24,fallout
 3959 1872 8823      		tst r24
 3960 1874 01F4      		brne .L299
 3961 1876 8091 0000 		lds r24,duration
 3962 187a 9091 0000 		lds r25,(duration)+1
 3963 187e 892B      		or r24,r25
 3964 1880 01F4      		brne .+2
 3965 1882 00C0      		rjmp .L300
 3966 1884 8091 0000 		lds r24,time
 3967 1888 9091 0000 		lds r25,(time)+1
 3968 188c 892B      		or r24,r25
 3969 188e 01F0      		breq .+2
 3970 1890 00C0      		rjmp .L300
 3971 1892 00C0      		rjmp .L299
 3972               	.LVL183:
 3973               	.L303:
 3974               	.LM589:
 3975 1894 1150      		subi r17,lo8(-(-1))
 3976               	.LM590:
 3977 1896 0E94 0000 		call led_frame_down
 3978               	.LVL184:
 3979               	.LM591:
 3980 189a 84E0      		ldi r24,lo8(4)
 3981 189c 90E0      		ldi r25,hi8(4)
 3982 189e 0E94 0000 		call led_waitframe
 3983 18a2 00C0      		rjmp .L301
 3984               	.LVL185:
 3985               	.L299:
 3986 18a4 18E0      		ldi r17,lo8(8)
 3987               	.LVL186:
 3988               	.L301:
 3989               	.LM592:
 3990 18a6 8091 0000 		lds r24,fallout
 3991 18aa 8823      		tst r24
 3992 18ac 01F4      		brne .L304
 3993 18ae 1123      		tst r17
 3994 18b0 01F4      		brne .L303
 3995               	.L304:
 3996               	/* epilogue start */
 3997               	.LM593:
 3998 18b2 2C96      		adiw r28,12
 3999 18b4 0FB6      		in __tmp_reg__,__SREG__
 4000 18b6 F894      		cli
 4001 18b8 DEBF      		out __SP_H__,r29
 4002 18ba 0FBE      		out __SREG__,__tmp_reg__
 4003 18bc CDBF      		out __SP_L__,r28
 4004 18be CF91      		pop r28
 4005 18c0 DF91      		pop r29
 4006 18c2 1F91      		pop r17
 4007               	.LVL187:
 4008 18c4 0F91      		pop r16
 4009               	.LVL188:
 4010 18c6 FF90      		pop r15
 4011 18c8 EF90      		pop r14
 4012 18ca DF90      		pop r13
 4013 18cc CF90      		pop r12
 4014 18ce BF90      		pop r11
 4015 18d0 AF90      		pop r10
 4016 18d2 9F90      		pop r9
 4017 18d4 8F90      		pop r8
 4018 18d6 7F90      		pop r7
 4019 18d8 6F90      		pop r6
 4020 18da 5F90      		pop r5
 4021 18dc 4F90      		pop r4
 4022 18de 0895      		ret
 4023               	.LFE31:
 4025               	.global	pattern_screw
 4027               	pattern_screw:
 4028               	.LFB29:
 4029               	.LM594:
 4030 18e0 2F92      		push r2
 4031 18e2 3F92      		push r3
 4032 18e4 4F92      		push r4
 4033 18e6 5F92      		push r5
 4034 18e8 6F92      		push r6
 4035 18ea 7F92      		push r7
 4036 18ec 8F92      		push r8
 4037 18ee 9F92      		push r9
 4038 18f0 AF92      		push r10
 4039 18f2 BF92      		push r11
 4040 18f4 CF92      		push r12
 4041 18f6 DF92      		push r13
 4042 18f8 EF92      		push r14
 4043 18fa FF92      		push r15
 4044 18fc 0F93      		push r16
 4045 18fe 1F93      		push r17
 4046 1900 DF93      		push r29
 4047 1902 CF93      		push r28
 4048 1904 CDB7      		in r28,__SP_L__
 4049 1906 DEB7      		in r29,__SP_H__
 4050 1908 2797      		sbiw r28,7
 4051 190a 0FB6      		in __tmp_reg__,__SREG__
 4052 190c F894      		cli
 4053 190e DEBF      		out __SP_H__,r29
 4054 1910 0FBE      		out __SREG__,__tmp_reg__
 4055 1912 CDBF      		out __SP_L__,r28
 4056               	/* prologue: function */
 4057               	/* frame size = 7 */
 4058               	.LM595:
 4059 1914 1982      		std Y+1,__zero_reg__
 4060               	.LVL189:
 4061 1916 1A82      		std Y+2,__zero_reg__
 4062               	.LVL190:
 4063 1918 1B82      		std Y+3,__zero_reg__
 4064               	.LVL191:
 4065 191a 87E0      		ldi r24,lo8(7)
 4066 191c 8C83      		std Y+4,r24
 4067               	.LVL192:
 4068 191e 8D83      		std Y+5,r24
 4069               	.LVL193:
 4070 1920 1E82      		std Y+6,__zero_reg__
 4071               	.LVL194:
 4072               	.LM596:
 4073 1922 1092 0000 		sts fallout,__zero_reg__
 4074               	.LM597:
 4075 1926 8091 0000 		lds r24,duration
 4076 192a 9091 0000 		lds r25,(duration)+1
 4077 192e 9093 0000 		sts (time)+1,r25
 4078 1932 8093 0000 		sts time,r24
 4079               	.LM598:
 4080 1936 84E6      		ldi r24,lo8(100)
 4081 1938 90E0      		ldi r25,hi8(100)
 4082 193a 0E94 0000 		call led_framerate
 4083               	.LM599:
 4084 193e 0E94 0000 		call led_blank
 4085               	.LM600:
 4086 1942 8FEF      		ldi r24,lo8(-1)
 4087 1944 0E94 0000 		call led_plane_intensity_all
 4088 1948 86E0      		ldi r24,lo8(6)
 4089 194a 8F83      		std Y+7,r24
 4090               	.LVL195:
 4091               	.LM601:
 4092 194c 07E0      		ldi r16,lo8(7)
 4093 194e D02E      		mov r13,r16
 4094               	.LM602:
 4095 1950 12E0      		ldi r17,lo8(2)
 4096 1952 412E      		mov r4,r17
 4097 1954 512C      		mov r5,__zero_reg__
 4098 1956 4C0E      		add r4,r28
 4099 1958 5D1E      		adc r5,r29
 4100 195a B3E0      		ldi r27,lo8(3)
 4101 195c 6B2E      		mov r6,r27
 4102 195e 712C      		mov r7,__zero_reg__
 4103 1960 6C0E      		add r6,r28
 4104 1962 7D1E      		adc r7,r29
 4105 1964 4E01      		movw r8,r28
 4106 1966 0894      		sec
 4107 1968 811C      		adc r8,__zero_reg__
 4108 196a 911C      		adc r9,__zero_reg__
 4109               	.LM603:
 4110 196c A6E0      		ldi r26,lo8(6)
 4111 196e 2A2E      		mov r2,r26
 4112 1970 312C      		mov r3,__zero_reg__
 4113 1972 2C0E      		add r2,r28
 4114 1974 3D1E      		adc r3,r29
 4115 1976 00C0      		rjmp .L363
 4116               	.LVL196:
 4117               	.L348:
 4118               	.LM604:
 4119 1978 1982      		std Y+1,__zero_reg__
 4120               	.LVL197:
 4121 197a 1A82      		std Y+2,__zero_reg__
 4122               	.LVL198:
 4123 197c 1B82      		std Y+3,__zero_reg__
 4124               	.LVL199:
 4125 197e DC82      		std Y+4,r13
 4126               	.LVL200:
 4127 1980 DD82      		std Y+5,r13
 4128               	.LVL201:
 4129 1982 1E82      		std Y+6,__zero_reg__
 4130               	.LVL202:
 4131 1984 FCE8      		ldi r31,lo8(140)
 4132 1986 AF2E      		mov r10,r31
 4133 1988 B12C      		mov r11,__zero_reg__
 4134               	.LVL203:
 4135 198a 00C0      		rjmp .L318
 4136               	.LVL204:
 4137               	.L320:
 4138               	.LM605:
 4139 198c 0E94 0000 		call led_frame_back
 4140               	.LM606:
 4141 1990 85E0      		ldi r24,lo8(5)
 4142 1992 B401      		movw r22,r8
 4143 1994 A201      		movw r20,r4
 4144 1996 9301      		movw r18,r6
 4145 1998 0E94 0000 		call point_rotate
 4146               	.LM607:
 4147 199c 85E0      		ldi r24,lo8(5)
 4148 199e BE01      		movw r22,r28
 4149 19a0 6C5F      		subi r22,lo8(-(4))
 4150 19a2 7F4F      		sbci r23,hi8(-(4))
 4151 19a4 AE01      		movw r20,r28
 4152 19a6 4B5F      		subi r20,lo8(-(5))
 4153 19a8 5F4F      		sbci r21,hi8(-(5))
 4154 19aa 9101      		movw r18,r2
 4155 19ac 0E94 0000 		call point_rotate
 4156               	.LM608:
 4157 19b0 6A81      		ldd r22,Y+2
 4158 19b2 4B81      		ldd r20,Y+3
 4159 19b4 2C81      		ldd r18,Y+4
 4160 19b6 0D81      		ldd r16,Y+5
 4161 19b8 EE80      		ldd r14,Y+6
 4162 19ba 8981      		ldd r24,Y+1
 4163 19bc 90E0      		ldi r25,lo8(0)
 4164 19be 70E0      		ldi r23,lo8(0)
 4165 19c0 50E0      		ldi r21,lo8(0)
 4166 19c2 30E0      		ldi r19,lo8(0)
 4167 19c4 10E0      		ldi r17,lo8(0)
 4168 19c6 FF24      		clr r15
 4169 19c8 CC24      		clr r12
 4170 19ca C394      		inc r12
 4171 19cc 0E94 0000 		call led_line
 4172               	.LM609:
 4173 19d0 85E0      		ldi r24,lo8(5)
 4174 19d2 90E0      		ldi r25,hi8(5)
 4175 19d4 0E94 0000 		call led_waitframe
 4176 19d8 86E0      		ldi r24,lo8(6)
 4177 19da 8F83      		std Y+7,r24
 4178               	.LVL205:
 4179               	.L318:
 4180               	.LM610:
 4181 19dc 0894      		sec
 4182 19de A108      		sbc r10,__zero_reg__
 4183 19e0 B108      		sbc r11,__zero_reg__
 4184 19e2 8FEF      		ldi r24,lo8(-1)
 4185 19e4 A816      		cp r10,r24
 4186 19e6 8FEF      		ldi r24,hi8(-1)
 4187 19e8 B806      		cpc r11,r24
 4188 19ea 01F0      		breq .L319
 4189 19ec 8091 0000 		lds r24,fallout
 4190 19f0 8823      		tst r24
 4191 19f2 01F4      		brne .L319
 4192 19f4 8091 0000 		lds r24,duration
 4193 19f8 9091 0000 		lds r25,(duration)+1
 4194 19fc 892B      		or r24,r25
 4195 19fe 01F0      		breq .L320
 4196 1a00 8091 0000 		lds r24,time
 4197 1a04 9091 0000 		lds r25,(time)+1
 4198 1a08 892B      		or r24,r25
 4199 1a0a 01F0      		breq .+2
 4200 1a0c 00C0      		rjmp .L320
 4201 1a0e 00C0      		rjmp .L319
 4202               	.L323:
 4203               	.LM611:
 4204 1a10 0E94 0000 		call led_frame_back
 4205               	.LM612:
 4206 1a14 85E0      		ldi r24,lo8(5)
 4207 1a16 B401      		movw r22,r8
 4208 1a18 A201      		movw r20,r4
 4209 1a1a 9301      		movw r18,r6
 4210 1a1c 0E94 0000 		call point_rotate
 4211               	.LM613:
 4212 1a20 6A81      		ldd r22,Y+2
 4213 1a22 4B81      		ldd r20,Y+3
 4214 1a24 2C81      		ldd r18,Y+4
 4215 1a26 0D81      		ldd r16,Y+5
 4216 1a28 EE80      		ldd r14,Y+6
 4217 1a2a 8981      		ldd r24,Y+1
 4218 1a2c 90E0      		ldi r25,lo8(0)
 4219 1a2e 70E0      		ldi r23,lo8(0)
 4220 1a30 50E0      		ldi r21,lo8(0)
 4221 1a32 30E0      		ldi r19,lo8(0)
 4222 1a34 10E0      		ldi r17,lo8(0)
 4223 1a36 FF24      		clr r15
 4224 1a38 CC24      		clr r12
 4225 1a3a C394      		inc r12
 4226 1a3c 0E94 0000 		call led_line
 4227               	.LM614:
 4228 1a40 85E0      		ldi r24,lo8(5)
 4229 1a42 90E0      		ldi r25,hi8(5)
 4230 1a44 0E94 0000 		call led_waitframe
 4231 1a48 00C0      		rjmp .L321
 4232               	.L319:
 4233 1a4a E7E0      		ldi r30,lo8(7)
 4234 1a4c AE2E      		mov r10,r30
 4235 1a4e B12C      		mov r11,__zero_reg__
 4236               	.LVL206:
 4237               	.L321:
 4238               	.LM615:
 4239 1a50 0894      		sec
 4240 1a52 A108      		sbc r10,__zero_reg__
 4241 1a54 B108      		sbc r11,__zero_reg__
 4242 1a56 8FEF      		ldi r24,lo8(-1)
 4243 1a58 A816      		cp r10,r24
 4244 1a5a 8FEF      		ldi r24,hi8(-1)
 4245 1a5c B806      		cpc r11,r24
 4246 1a5e 01F0      		breq .L322
 4247 1a60 8091 0000 		lds r24,fallout
 4248 1a64 8823      		tst r24
 4249 1a66 01F4      		brne .L322
 4250 1a68 8091 0000 		lds r24,duration
 4251 1a6c 9091 0000 		lds r25,(duration)+1
 4252 1a70 892B      		or r24,r25
 4253 1a72 01F0      		breq .L323
 4254 1a74 8091 0000 		lds r24,time
 4255 1a78 9091 0000 		lds r25,(time)+1
 4256 1a7c 892B      		or r24,r25
 4257 1a7e 01F4      		brne .L323
 4258 1a80 00C0      		rjmp .L322
 4259               	.L328:
 4260               	.LM616:
 4261 1a82 0E94 0000 		call led_frame_left
 4262               	.LM617:
 4263 1a86 81E0      		ldi r24,lo8(1)
 4264 1a88 B401      		movw r22,r8
 4265 1a8a A201      		movw r20,r4
 4266 1a8c 9301      		movw r18,r6
 4267 1a8e 0E94 0000 		call point_rotate
 4268               	.LM618:
 4269 1a92 6A81      		ldd r22,Y+2
 4270 1a94 4B81      		ldd r20,Y+3
 4271 1a96 2C81      		ldd r18,Y+4
 4272 1a98 0D81      		ldd r16,Y+5
 4273 1a9a EE80      		ldd r14,Y+6
 4274 1a9c 8981      		ldd r24,Y+1
 4275 1a9e 90E0      		ldi r25,lo8(0)
 4276 1aa0 70E0      		ldi r23,lo8(0)
 4277 1aa2 50E0      		ldi r21,lo8(0)
 4278 1aa4 30E0      		ldi r19,lo8(0)
 4279 1aa6 10E0      		ldi r17,lo8(0)
 4280 1aa8 FF24      		clr r15
 4281 1aaa CC24      		clr r12
 4282 1aac C394      		inc r12
 4283 1aae 0E94 0000 		call led_line
 4284               	.LM619:
 4285 1ab2 85E0      		ldi r24,lo8(5)
 4286 1ab4 90E0      		ldi r25,hi8(5)
 4287 1ab6 0E94 0000 		call led_waitframe
 4288 1aba 83E0      		ldi r24,lo8(3)
 4289 1abc 8F83      		std Y+7,r24
 4290               	.LVL207:
 4291 1abe 00C0      		rjmp .L324
 4292               	.L322:
 4293 1ac0 77E0      		ldi r23,lo8(7)
 4294 1ac2 A72E      		mov r10,r23
 4295 1ac4 B12C      		mov r11,__zero_reg__
 4296               	.LVL208:
 4297               	.L324:
 4298               	.LM620:
 4299 1ac6 0894      		sec
 4300 1ac8 A108      		sbc r10,__zero_reg__
 4301 1aca B108      		sbc r11,__zero_reg__
 4302 1acc 8FEF      		ldi r24,lo8(-1)
 4303 1ace A816      		cp r10,r24
 4304 1ad0 8FEF      		ldi r24,hi8(-1)
 4305 1ad2 B806      		cpc r11,r24
 4306 1ad4 01F0      		breq .L325
 4307 1ad6 8091 0000 		lds r24,fallout
 4308 1ada 8823      		tst r24
 4309 1adc 01F0      		breq .L326
 4310               	.L325:
 4311 1ade 6CE8      		ldi r22,lo8(140)
 4312 1ae0 A62E      		mov r10,r22
 4313 1ae2 B12C      		mov r11,__zero_reg__
 4314               	.LVL209:
 4315 1ae4 00C0      		rjmp .L327
 4316               	.L326:
 4317 1ae6 8091 0000 		lds r24,duration
 4318 1aea 9091 0000 		lds r25,(duration)+1
 4319 1aee 892B      		or r24,r25
 4320 1af0 01F0      		breq .L328
 4321 1af2 8091 0000 		lds r24,time
 4322 1af6 9091 0000 		lds r25,(time)+1
 4323 1afa 892B      		or r24,r25
 4324 1afc 01F4      		brne .L328
 4325 1afe 00C0      		rjmp .L325
 4326               	.LVL210:
 4327               	.L330:
 4328               	.LM621:
 4329 1b00 0E94 0000 		call led_frame_left
 4330               	.LM622:
 4331 1b04 81E0      		ldi r24,lo8(1)
 4332 1b06 B401      		movw r22,r8
 4333 1b08 A201      		movw r20,r4
 4334 1b0a 9301      		movw r18,r6
 4335 1b0c 0E94 0000 		call point_rotate
 4336               	.LM623:
 4337 1b10 81E0      		ldi r24,lo8(1)
 4338 1b12 BE01      		movw r22,r28
 4339 1b14 6C5F      		subi r22,lo8(-(4))
 4340 1b16 7F4F      		sbci r23,hi8(-(4))
 4341 1b18 AE01      		movw r20,r28
 4342 1b1a 4B5F      		subi r20,lo8(-(5))
 4343 1b1c 5F4F      		sbci r21,hi8(-(5))
 4344 1b1e 9101      		movw r18,r2
 4345 1b20 0E94 0000 		call point_rotate
 4346               	.LM624:
 4347 1b24 6A81      		ldd r22,Y+2
 4348 1b26 4B81      		ldd r20,Y+3
 4349 1b28 2C81      		ldd r18,Y+4
 4350 1b2a 0D81      		ldd r16,Y+5
 4351 1b2c EE80      		ldd r14,Y+6
 4352 1b2e 8981      		ldd r24,Y+1
 4353 1b30 90E0      		ldi r25,lo8(0)
 4354 1b32 70E0      		ldi r23,lo8(0)
 4355 1b34 50E0      		ldi r21,lo8(0)
 4356 1b36 30E0      		ldi r19,lo8(0)
 4357 1b38 10E0      		ldi r17,lo8(0)
 4358 1b3a FF24      		clr r15
 4359 1b3c CC24      		clr r12
 4360 1b3e C394      		inc r12
 4361 1b40 0E94 0000 		call led_line
 4362               	.LM625:
 4363 1b44 85E0      		ldi r24,lo8(5)
 4364 1b46 90E0      		ldi r25,hi8(5)
 4365 1b48 0E94 0000 		call led_waitframe
 4366               	.L327:
 4367               	.LM626:
 4368 1b4c 0894      		sec
 4369 1b4e A108      		sbc r10,__zero_reg__
 4370 1b50 B108      		sbc r11,__zero_reg__
 4371 1b52 8FEF      		ldi r24,lo8(-1)
 4372 1b54 A816      		cp r10,r24
 4373 1b56 8FEF      		ldi r24,hi8(-1)
 4374 1b58 B806      		cpc r11,r24
 4375 1b5a 01F0      		breq .L329
 4376 1b5c 8091 0000 		lds r24,fallout
 4377 1b60 8823      		tst r24
 4378 1b62 01F4      		brne .L329
 4379 1b64 8091 0000 		lds r24,duration
 4380 1b68 9091 0000 		lds r25,(duration)+1
 4381 1b6c 892B      		or r24,r25
 4382 1b6e 01F0      		breq .L330
 4383 1b70 8091 0000 		lds r24,time
 4384 1b74 9091 0000 		lds r25,(time)+1
 4385 1b78 892B      		or r24,r25
 4386 1b7a 01F4      		brne .L330
 4387 1b7c 00C0      		rjmp .L329
 4388               	.L333:
 4389               	.LM627:
 4390 1b7e 0E94 0000 		call led_frame_left
 4391               	.LM628:
 4392 1b82 81E0      		ldi r24,lo8(1)
 4393 1b84 BE01      		movw r22,r28
 4394 1b86 6C5F      		subi r22,lo8(-(4))
 4395 1b88 7F4F      		sbci r23,hi8(-(4))
 4396 1b8a AE01      		movw r20,r28
 4397 1b8c 4B5F      		subi r20,lo8(-(5))
 4398 1b8e 5F4F      		sbci r21,hi8(-(5))
 4399 1b90 9101      		movw r18,r2
 4400 1b92 0E94 0000 		call point_rotate
 4401               	.LM629:
 4402 1b96 6A81      		ldd r22,Y+2
 4403 1b98 4B81      		ldd r20,Y+3
 4404 1b9a 2C81      		ldd r18,Y+4
 4405 1b9c 0D81      		ldd r16,Y+5
 4406 1b9e EE80      		ldd r14,Y+6
 4407 1ba0 8981      		ldd r24,Y+1
 4408 1ba2 90E0      		ldi r25,lo8(0)
 4409 1ba4 70E0      		ldi r23,lo8(0)
 4410 1ba6 50E0      		ldi r21,lo8(0)
 4411 1ba8 30E0      		ldi r19,lo8(0)
 4412 1baa 10E0      		ldi r17,lo8(0)
 4413 1bac FF24      		clr r15
 4414 1bae CC24      		clr r12
 4415 1bb0 C394      		inc r12
 4416 1bb2 0E94 0000 		call led_line
 4417               	.LM630:
 4418 1bb6 85E0      		ldi r24,lo8(5)
 4419 1bb8 90E0      		ldi r25,hi8(5)
 4420 1bba 0E94 0000 		call led_waitframe
 4421 1bbe 00C0      		rjmp .L331
 4422               	.L329:
 4423 1bc0 57E0      		ldi r21,lo8(7)
 4424 1bc2 A52E      		mov r10,r21
 4425 1bc4 B12C      		mov r11,__zero_reg__
 4426               	.LVL211:
 4427               	.L331:
 4428               	.LM631:
 4429 1bc6 0894      		sec
 4430 1bc8 A108      		sbc r10,__zero_reg__
 4431 1bca B108      		sbc r11,__zero_reg__
 4432 1bcc 8FEF      		ldi r24,lo8(-1)
 4433 1bce A816      		cp r10,r24
 4434 1bd0 8FEF      		ldi r24,hi8(-1)
 4435 1bd2 B806      		cpc r11,r24
 4436 1bd4 01F0      		breq .L332
 4437 1bd6 8091 0000 		lds r24,fallout
 4438 1bda 8823      		tst r24
 4439 1bdc 01F4      		brne .L332
 4440 1bde 8091 0000 		lds r24,duration
 4441 1be2 9091 0000 		lds r25,(duration)+1
 4442 1be6 892B      		or r24,r25
 4443 1be8 01F0      		breq .L333
 4444 1bea 8091 0000 		lds r24,time
 4445 1bee 9091 0000 		lds r25,(time)+1
 4446 1bf2 892B      		or r24,r25
 4447 1bf4 01F4      		brne .L333
 4448 1bf6 00C0      		rjmp .L332
 4449               	.L338:
 4450               	.LM632:
 4451 1bf8 0E94 0000 		call led_frame_down
 4452               	.LM633:
 4453 1bfc 83E0      		ldi r24,lo8(3)
 4454 1bfe BE01      		movw r22,r28
 4455 1c00 6C5F      		subi r22,lo8(-(4))
 4456 1c02 7F4F      		sbci r23,hi8(-(4))
 4457 1c04 AE01      		movw r20,r28
 4458 1c06 4B5F      		subi r20,lo8(-(5))
 4459 1c08 5F4F      		sbci r21,hi8(-(5))
 4460 1c0a 9101      		movw r18,r2
 4461 1c0c 0E94 0000 		call point_rotate
 4462               	.LM634:
 4463 1c10 6A81      		ldd r22,Y+2
 4464 1c12 4B81      		ldd r20,Y+3
 4465 1c14 2C81      		ldd r18,Y+4
 4466 1c16 0D81      		ldd r16,Y+5
 4467 1c18 EE80      		ldd r14,Y+6
 4468 1c1a 8981      		ldd r24,Y+1
 4469 1c1c 90E0      		ldi r25,lo8(0)
 4470 1c1e 70E0      		ldi r23,lo8(0)
 4471 1c20 50E0      		ldi r21,lo8(0)
 4472 1c22 30E0      		ldi r19,lo8(0)
 4473 1c24 10E0      		ldi r17,lo8(0)
 4474 1c26 FF24      		clr r15
 4475 1c28 CC24      		clr r12
 4476 1c2a C394      		inc r12
 4477 1c2c 0E94 0000 		call led_line
 4478               	.LM635:
 4479 1c30 85E0      		ldi r24,lo8(5)
 4480 1c32 90E0      		ldi r25,hi8(5)
 4481 1c34 0E94 0000 		call led_waitframe
 4482 1c38 82E0      		ldi r24,lo8(2)
 4483 1c3a 8F83      		std Y+7,r24
 4484               	.LVL212:
 4485 1c3c 00C0      		rjmp .L334
 4486               	.L332:
 4487 1c3e 47E0      		ldi r20,lo8(7)
 4488 1c40 A42E      		mov r10,r20
 4489 1c42 B12C      		mov r11,__zero_reg__
 4490               	.LVL213:
 4491               	.L334:
 4492               	.LM636:
 4493 1c44 0894      		sec
 4494 1c46 A108      		sbc r10,__zero_reg__
 4495 1c48 B108      		sbc r11,__zero_reg__
 4496 1c4a 8FEF      		ldi r24,lo8(-1)
 4497 1c4c A816      		cp r10,r24
 4498 1c4e 8FEF      		ldi r24,hi8(-1)
 4499 1c50 B806      		cpc r11,r24
 4500 1c52 01F0      		breq .L335
 4501 1c54 8091 0000 		lds r24,fallout
 4502 1c58 8823      		tst r24
 4503 1c5a 01F0      		breq .L336
 4504               	.L335:
 4505 1c5c 3CE8      		ldi r19,lo8(140)
 4506 1c5e A32E      		mov r10,r19
 4507 1c60 B12C      		mov r11,__zero_reg__
 4508               	.LVL214:
 4509 1c62 00C0      		rjmp .L337
 4510               	.L336:
 4511 1c64 8091 0000 		lds r24,duration
 4512 1c68 9091 0000 		lds r25,(duration)+1
 4513 1c6c 892B      		or r24,r25
 4514 1c6e 01F0      		breq .L338
 4515 1c70 8091 0000 		lds r24,time
 4516 1c74 9091 0000 		lds r25,(time)+1
 4517 1c78 892B      		or r24,r25
 4518 1c7a 01F0      		breq .+2
 4519 1c7c 00C0      		rjmp .L338
 4520 1c7e 00C0      		rjmp .L335
 4521               	.L340:
 4522               	.LM637:
 4523 1c80 0E94 0000 		call led_frame_down
 4524               	.LM638:
 4525 1c84 83E0      		ldi r24,lo8(3)
 4526 1c86 B401      		movw r22,r8
 4527 1c88 A201      		movw r20,r4
 4528 1c8a 9301      		movw r18,r6
 4529 1c8c 0E94 0000 		call point_rotate
 4530               	.LM639:
 4531 1c90 83E0      		ldi r24,lo8(3)
 4532 1c92 BE01      		movw r22,r28
 4533 1c94 6C5F      		subi r22,lo8(-(4))
 4534 1c96 7F4F      		sbci r23,hi8(-(4))
 4535 1c98 AE01      		movw r20,r28
 4536 1c9a 4B5F      		subi r20,lo8(-(5))
 4537 1c9c 5F4F      		sbci r21,hi8(-(5))
 4538 1c9e 9101      		movw r18,r2
 4539 1ca0 0E94 0000 		call point_rotate
 4540               	.LM640:
 4541 1ca4 6A81      		ldd r22,Y+2
 4542 1ca6 4B81      		ldd r20,Y+3
 4543 1ca8 2C81      		ldd r18,Y+4
 4544 1caa 0D81      		ldd r16,Y+5
 4545 1cac EE80      		ldd r14,Y+6
 4546 1cae 8981      		ldd r24,Y+1
 4547 1cb0 90E0      		ldi r25,lo8(0)
 4548 1cb2 70E0      		ldi r23,lo8(0)
 4549 1cb4 50E0      		ldi r21,lo8(0)
 4550 1cb6 30E0      		ldi r19,lo8(0)
 4551 1cb8 10E0      		ldi r17,lo8(0)
 4552 1cba FF24      		clr r15
 4553 1cbc CC24      		clr r12
 4554 1cbe C394      		inc r12
 4555 1cc0 0E94 0000 		call led_line
 4556               	.LM641:
 4557 1cc4 85E0      		ldi r24,lo8(5)
 4558 1cc6 90E0      		ldi r25,hi8(5)
 4559 1cc8 0E94 0000 		call led_waitframe
 4560               	.L337:
 4561               	.LM642:
 4562 1ccc 0894      		sec
 4563 1cce A108      		sbc r10,__zero_reg__
 4564 1cd0 B108      		sbc r11,__zero_reg__
 4565 1cd2 8FEF      		ldi r24,lo8(-1)
 4566 1cd4 A816      		cp r10,r24
 4567 1cd6 8FEF      		ldi r24,hi8(-1)
 4568 1cd8 B806      		cpc r11,r24
 4569 1cda 01F0      		breq .L339
 4570 1cdc 8091 0000 		lds r24,fallout
 4571 1ce0 8823      		tst r24
 4572 1ce2 01F4      		brne .L339
 4573 1ce4 8091 0000 		lds r24,duration
 4574 1ce8 9091 0000 		lds r25,(duration)+1
 4575 1cec 892B      		or r24,r25
 4576 1cee 01F0      		breq .L340
 4577 1cf0 8091 0000 		lds r24,time
 4578 1cf4 9091 0000 		lds r25,(time)+1
 4579 1cf8 892B      		or r24,r25
 4580 1cfa 01F4      		brne .L340
 4581 1cfc 00C0      		rjmp .L339
 4582               	.L343:
 4583               	.LM643:
 4584 1cfe 0E94 0000 		call led_frame_down
 4585               	.LM644:
 4586 1d02 82E0      		ldi r24,lo8(2)
 4587 1d04 B401      		movw r22,r8
 4588 1d06 A201      		movw r20,r4
 4589 1d08 9301      		movw r18,r6
 4590 1d0a 0E94 0000 		call point_rotate
 4591               	.LM645:
 4592 1d0e 6A81      		ldd r22,Y+2
 4593 1d10 4B81      		ldd r20,Y+3
 4594 1d12 2C81      		ldd r18,Y+4
 4595 1d14 0D81      		ldd r16,Y+5
 4596 1d16 EE80      		ldd r14,Y+6
 4597 1d18 8981      		ldd r24,Y+1
 4598 1d1a 90E0      		ldi r25,lo8(0)
 4599 1d1c 70E0      		ldi r23,lo8(0)
 4600 1d1e 50E0      		ldi r21,lo8(0)
 4601 1d20 30E0      		ldi r19,lo8(0)
 4602 1d22 10E0      		ldi r17,lo8(0)
 4603 1d24 FF24      		clr r15
 4604 1d26 CC24      		clr r12
 4605 1d28 C394      		inc r12
 4606 1d2a 0E94 0000 		call led_line
 4607               	.LM646:
 4608 1d2e 85E0      		ldi r24,lo8(5)
 4609 1d30 90E0      		ldi r25,hi8(5)
 4610 1d32 0E94 0000 		call led_waitframe
 4611 1d36 00C0      		rjmp .L341
 4612               	.L339:
 4613 1d38 27E0      		ldi r18,lo8(7)
 4614 1d3a A22E      		mov r10,r18
 4615 1d3c B12C      		mov r11,__zero_reg__
 4616               	.LVL215:
 4617               	.L341:
 4618               	.LM647:
 4619 1d3e 0894      		sec
 4620 1d40 A108      		sbc r10,__zero_reg__
 4621 1d42 B108      		sbc r11,__zero_reg__
 4622 1d44 8FEF      		ldi r24,lo8(-1)
 4623 1d46 A816      		cp r10,r24
 4624 1d48 8FEF      		ldi r24,hi8(-1)
 4625 1d4a B806      		cpc r11,r24
 4626 1d4c 01F0      		breq .L342
 4627 1d4e 8091 0000 		lds r24,fallout
 4628 1d52 8823      		tst r24
 4629 1d54 01F4      		brne .L342
 4630 1d56 8091 0000 		lds r24,duration
 4631 1d5a 9091 0000 		lds r25,(duration)+1
 4632 1d5e 892B      		or r24,r25
 4633 1d60 01F0      		breq .L343
 4634 1d62 8091 0000 		lds r24,time
 4635 1d66 9091 0000 		lds r25,(time)+1
 4636 1d6a 892B      		or r24,r25
 4637 1d6c 01F4      		brne .L343
 4638 1d6e 00C0      		rjmp .L342
 4639               	.L345:
 4640               	.LM648:
 4641 1d70 0E94 0000 		call led_frame_back
 4642               	.LM649:
 4643 1d74 82E0      		ldi r24,lo8(2)
 4644 1d76 B401      		movw r22,r8
 4645 1d78 A201      		movw r20,r4
 4646 1d7a 9301      		movw r18,r6
 4647 1d7c 0E94 0000 		call point_rotate
 4648               	.LM650:
 4649 1d80 6A81      		ldd r22,Y+2
 4650 1d82 4B81      		ldd r20,Y+3
 4651 1d84 2C81      		ldd r18,Y+4
 4652 1d86 0D81      		ldd r16,Y+5
 4653 1d88 EE80      		ldd r14,Y+6
 4654 1d8a 8981      		ldd r24,Y+1
 4655 1d8c 90E0      		ldi r25,lo8(0)
 4656 1d8e 70E0      		ldi r23,lo8(0)
 4657 1d90 50E0      		ldi r21,lo8(0)
 4658 1d92 30E0      		ldi r19,lo8(0)
 4659 1d94 10E0      		ldi r17,lo8(0)
 4660 1d96 FF24      		clr r15
 4661 1d98 CC24      		clr r12
 4662 1d9a C394      		inc r12
 4663 1d9c 0E94 0000 		call led_line
 4664               	.LM651:
 4665 1da0 85E0      		ldi r24,lo8(5)
 4666 1da2 90E0      		ldi r25,hi8(5)
 4667 1da4 0E94 0000 		call led_waitframe
 4668 1da8 86E0      		ldi r24,lo8(6)
 4669 1daa 8F83      		std Y+7,r24
 4670               	.LVL216:
 4671 1dac 00C0      		rjmp .L344
 4672               	.L342:
 4673 1dae 97E0      		ldi r25,lo8(7)
 4674 1db0 A92E      		mov r10,r25
 4675 1db2 B12C      		mov r11,__zero_reg__
 4676               	.LVL217:
 4677               	.L344:
 4678               	.LM652:
 4679 1db4 0894      		sec
 4680 1db6 A108      		sbc r10,__zero_reg__
 4681 1db8 B108      		sbc r11,__zero_reg__
 4682 1dba 8FEF      		ldi r24,lo8(-1)
 4683 1dbc A816      		cp r10,r24
 4684 1dbe 8FEF      		ldi r24,hi8(-1)
 4685 1dc0 B806      		cpc r11,r24
 4686 1dc2 01F0      		breq .L363
 4687 1dc4 8091 0000 		lds r24,fallout
 4688 1dc8 8823      		tst r24
 4689 1dca 01F4      		brne .L363
 4690 1dcc 8091 0000 		lds r24,duration
 4691 1dd0 9091 0000 		lds r25,(duration)+1
 4692 1dd4 892B      		or r24,r25
 4693 1dd6 01F0      		breq .L345
 4694 1dd8 8091 0000 		lds r24,time
 4695 1ddc 9091 0000 		lds r25,(time)+1
 4696 1de0 892B      		or r24,r25
 4697 1de2 01F4      		brne .L345
 4698               	.LVL218:
 4699               	.L363:
 4700               	.LM653:
 4701 1de4 8091 0000 		lds r24,fallout
 4702 1de8 8823      		tst r24
 4703 1dea 01F0      		breq .L346
 4704               	.L349:
 4705 1dec 08E0      		ldi r16,lo8(8)
 4706 1dee 10E0      		ldi r17,hi8(8)
 4707               	.LVL219:
 4708 1df0 00C0      		rjmp .L347
 4709               	.LVL220:
 4710               	.L346:
 4711 1df2 8091 0000 		lds r24,duration
 4712 1df6 9091 0000 		lds r25,(duration)+1
 4713 1dfa 892B      		or r24,r25
 4714 1dfc 01F4      		brne .+2
 4715 1dfe 00C0      		rjmp .L348
 4716 1e00 8091 0000 		lds r24,time
 4717 1e04 9091 0000 		lds r25,(time)+1
 4718 1e08 892B      		or r24,r25
 4719 1e0a 01F0      		breq .+2
 4720 1e0c 00C0      		rjmp .L348
 4721 1e0e 00C0      		rjmp .L349
 4722               	.LVL221:
 4723               	.L359:
 4724               	.LM654:
 4725 1e10 8F81      		ldd r24,Y+7
 4726 1e12 8330      		cpi r24,lo8(3)
 4727 1e14 01F0      		breq .L353
 4728 1e16 8430      		cpi r24,lo8(4)
 4729 1e18 00F4      		brsh .L357
 4730 1e1a 8130      		cpi r24,lo8(1)
 4731 1e1c 01F0      		breq .L351
 4732 1e1e 8230      		cpi r24,lo8(2)
 4733 1e20 01F4      		brne .L350
 4734 1e22 00C0      		rjmp .L364
 4735               	.L357:
 4736 1e24 8F81      		ldd r24,Y+7
 4737 1e26 8530      		cpi r24,lo8(5)
 4738 1e28 01F0      		breq .L355
 4739 1e2a 8530      		cpi r24,lo8(5)
 4740 1e2c 00F0      		brlo .L354
 4741 1e2e 8630      		cpi r24,lo8(6)
 4742 1e30 01F4      		brne .L350
 4743               	.LM655:
 4744 1e32 0E94 0000 		call led_frame_back
 4745 1e36 00C0      		rjmp .L350
 4746               	.L355:
 4747               	.LM656:
 4748 1e38 0E94 0000 		call led_frame_forward
 4749 1e3c 00C0      		rjmp .L350
 4750               	.L353:
 4751               	.LM657:
 4752 1e3e 0E94 0000 		call led_frame_left
 4753 1e42 00C0      		rjmp .L350
 4754               	.L354:
 4755               	.LM658:
 4756 1e44 0E94 0000 		call led_frame_right
 4757 1e48 00C0      		rjmp .L350
 4758               	.L351:
 4759               	.LM659:
 4760 1e4a 0E94 0000 		call led_frame_up
 4761 1e4e 00C0      		rjmp .L350
 4762               	.L364:
 4763               	.LM660:
 4764 1e50 0E94 0000 		call led_frame_down
 4765               	.L350:
 4766               	.LM661:
 4767 1e54 0150      		subi r16,lo8(-(-1))
 4768 1e56 1040      		sbci r17,hi8(-(-1))
 4769               	.LM662:
 4770 1e58 85E0      		ldi r24,lo8(5)
 4771 1e5a 90E0      		ldi r25,hi8(5)
 4772 1e5c 0E94 0000 		call led_waitframe
 4773               	.L347:
 4774               	.LM663:
 4775 1e60 8091 0000 		lds r24,fallout
 4776 1e64 8823      		tst r24
 4777 1e66 01F4      		brne .L360
 4778 1e68 0115      		cp r16,__zero_reg__
 4779 1e6a 1105      		cpc r17,__zero_reg__
 4780 1e6c 01F4      		brne .L359
 4781               	.L360:
 4782               	/* epilogue start */
 4783               	.LM664:
 4784 1e6e 2796      		adiw r28,7
 4785 1e70 0FB6      		in __tmp_reg__,__SREG__
 4786 1e72 F894      		cli
 4787 1e74 DEBF      		out __SP_H__,r29
 4788 1e76 0FBE      		out __SREG__,__tmp_reg__
 4789 1e78 CDBF      		out __SP_L__,r28
 4790 1e7a CF91      		pop r28
 4791 1e7c DF91      		pop r29
 4792 1e7e 1F91      		pop r17
 4793 1e80 0F91      		pop r16
 4794               	.LVL222:
 4795 1e82 FF90      		pop r15
 4796 1e84 EF90      		pop r14
 4797 1e86 DF90      		pop r13
 4798 1e88 CF90      		pop r12
 4799 1e8a BF90      		pop r11
 4800 1e8c AF90      		pop r10
 4801 1e8e 9F90      		pop r9
 4802 1e90 8F90      		pop r8
 4803 1e92 7F90      		pop r7
 4804 1e94 6F90      		pop r6
 4805 1e96 5F90      		pop r5
 4806 1e98 4F90      		pop r4
 4807 1e9a 3F90      		pop r3
 4808 1e9c 2F90      		pop r2
 4809 1e9e 0895      		ret
 4810               	.LFE29:
 4812               	.global	pattern_waveup
 4814               	pattern_waveup:
 4815               	.LFB30:
 4816               	.LM665:
 4817               	.LVL223:
 4818 1ea0 2F92      		push r2
 4819 1ea2 3F92      		push r3
 4820 1ea4 4F92      		push r4
 4821 1ea6 5F92      		push r5
 4822 1ea8 6F92      		push r6
 4823 1eaa 7F92      		push r7
 4824 1eac 8F92      		push r8
 4825 1eae 9F92      		push r9
 4826 1eb0 AF92      		push r10
 4827 1eb2 BF92      		push r11
 4828 1eb4 CF92      		push r12
 4829 1eb6 DF92      		push r13
 4830 1eb8 EF92      		push r14
 4831 1eba FF92      		push r15
 4832 1ebc 0F93      		push r16
 4833 1ebe 1F93      		push r17
 4834 1ec0 DF93      		push r29
 4835 1ec2 CF93      		push r28
 4836 1ec4 CDB7      		in r28,__SP_L__
 4837 1ec6 DEB7      		in r29,__SP_H__
 4838 1ec8 6197      		sbiw r28,17
 4839 1eca 0FB6      		in __tmp_reg__,__SREG__
 4840 1ecc F894      		cli
 4841 1ece DEBF      		out __SP_H__,r29
 4842 1ed0 0FBE      		out __SREG__,__tmp_reg__
 4843 1ed2 CDBF      		out __SP_L__,r28
 4844               	/* prologue: function */
 4845               	/* frame size = 17 */
 4846 1ed4 1C01      		movw r2,r24
 4847 1ed6 8A01      		movw r16,r20
 4848 1ed8 C901      		movw r24,r18
 4849               	.LVL224:
 4850               	.LM666:
 4851 1eda 1092 0000 		sts fallout,__zero_reg__
 4852               	.LM667:
 4853 1ede 2091 0000 		lds r18,duration
 4854 1ee2 3091 0000 		lds r19,(duration)+1
 4855               	.LVL225:
 4856 1ee6 3093 0000 		sts (time)+1,r19
 4857 1eea 2093 0000 		sts time,r18
 4858               	.LM668:
 4859 1eee 21E0      		ldi r18,lo8(-255)
 4860 1ef0 E22E      		mov r14,r18
 4861 1ef2 2FEF      		ldi r18,hi8(-255)
 4862 1ef4 F22E      		mov r15,r18
 4863 1ef6 E41A      		sub r14,r20
 4864 1ef8 F50A      		sbc r15,r21
 4865               	.LM669:
 4866 1efa 2701      		movw r4,r14
 4867 1efc 441A      		sub r4,r20
 4868 1efe 550A      		sbc r5,r21
 4869               	.LM670:
 4870 1f00 3201      		movw r6,r4
 4871 1f02 641A      		sub r6,r20
 4872 1f04 750A      		sbc r7,r21
 4873               	.LM671:
 4874 1f06 4301      		movw r8,r6
 4875 1f08 841A      		sub r8,r20
 4876 1f0a 950A      		sbc r9,r21
 4877               	.LM672:
 4878 1f0c 5401      		movw r10,r8
 4879 1f0e A41A      		sub r10,r20
 4880 1f10 B50A      		sbc r11,r21
 4881               	.LM673:
 4882 1f12 6501      		movw r12,r10
 4883 1f14 C41A      		sub r12,r20
 4884 1f16 D50A      		sbc r13,r21
 4885               	.LM674:
 4886 1f18 0E94 0000 		call led_framerate
 4887               	.LVL226:
 4888 1f1c 90E0      		ldi r25,lo8(0)
 4889               	.L366:
 4890               	.LM675:
 4891 1f1e 892F      		mov r24,r25
 4892 1f20 60E0      		ldi r22,lo8(0)
 4893 1f22 998B      		std Y+17,r25
 4894 1f24 0E94 0000 		call led_plane_intensity
 4895 1f28 9989      		ldd r25,Y+17
 4896 1f2a 9F5F      		subi r25,lo8(-(1))
 4897               	.LM676:
 4898 1f2c 9830      		cpi r25,lo8(8)
 4899 1f2e 01F4      		brne .L366
 4900               	.LM677:
 4901 1f30 81E0      		ldi r24,lo8(-255)
 4902 1f32 9FEF      		ldi r25,hi8(-255)
 4903 1f34 988B      		std Y+16,r25
 4904 1f36 8F87      		std Y+15,r24
 4905               	.LM678:
 4906 1f38 FE86      		std Y+14,r15
 4907 1f3a ED86      		std Y+13,r14
 4908               	.LM679:
 4909 1f3c 5C86      		std Y+12,r5
 4910 1f3e 4B86      		std Y+11,r4
 4911               	.LM680:
 4912 1f40 7A86      		std Y+10,r7
 4913 1f42 6986      		std Y+9,r6
 4914               	.LM681:
 4915 1f44 9886      		std Y+8,r9
 4916 1f46 8F82      		std Y+7,r8
 4917               	.LM682:
 4918 1f48 BE82      		std Y+6,r11
 4919 1f4a AD82      		std Y+5,r10
 4920               	.LM683:
 4921 1f4c DC82      		std Y+4,r13
 4922 1f4e CB82      		std Y+3,r12
 4923               	.LM684:
 4924 1f50 C01A      		sub r12,r16
 4925 1f52 D10A      		sbc r13,r17
 4926 1f54 DA82      		std Y+2,r13
 4927 1f56 C982      		std Y+1,r12
 4928               	.LM685:
 4929 1f58 80E0      		ldi r24,lo8(led_frame_bitmap)
 4930 1f5a 90E0      		ldi r25,hi8(led_frame_bitmap)
 4931 1f5c 6FEF      		ldi r22,lo8(255)
 4932 1f5e 70E0      		ldi r23,hi8(255)
 4933 1f60 40E4      		ldi r20,lo8(64)
 4934 1f62 50E0      		ldi r21,hi8(64)
 4935 1f64 0E94 0000 		call memset
 4936               	.LM686:
 4937 1f68 3E01      		movw r6,r28
 4938 1f6a 0894      		sec
 4939 1f6c 611C      		adc r6,__zero_reg__
 4940 1f6e 711C      		adc r7,__zero_reg__
 4941               	.LM687:
 4942 1f70 4101      		movw r8,r2
 4943 1f72 0894      		sec
 4944 1f74 811C      		adc r8,__zero_reg__
 4945 1f76 911C      		adc r9,__zero_reg__
 4946               	.LM688:
 4947 1f78 AA24      		clr r10
 4948 1f7a BB24      		clr r11
 4949 1f7c A218      		sub r10,r2
 4950 1f7e B308      		sbc r11,r3
 4951               	.LVL227:
 4952 1f80 00C0      		rjmp .L367
 4953               	.LVL228:
 4954               	.L373:
 4955               	.LM689:
 4956 1f82 F601      		movw r30,r12
 4957 1f84 0081      		ld r16,Z
 4958 1f86 1181      		ldd r17,Z+1
 4959               	.LVL229:
 4960               	.LM690:
 4961 1f88 0F5F      		subi r16,lo8(-(1))
 4962 1f8a 1F4F      		sbci r17,hi8(-(1))
 4963               	.LM691:
 4964 1f8c 0815      		cp r16,r8
 4965 1f8e 1905      		cpc r17,r9
 4966 1f90 01F4      		brne .L368
 4967               	.LM692:
 4968 1f92 8501      		movw r16,r10
 4969               	.L368:
 4970               	.LM693:
 4971 1f94 17FF      		sbrs r17,7
 4972 1f96 00C0      		rjmp .L369
 4973               	.LM694:
 4974 1f98 FFEF      		ldi r31,hi8(-254)
 4975 1f9a 0230      		cpi r16,lo8(-254)
 4976 1f9c 1F07      		cpc r17,r31
 4977 1f9e 04F0      		brlt .L372
 4978               	.LM695:
 4979 1fa0 602F      		mov r22,r16
 4980               	.LVL230:
 4981 1fa2 6150      		subi r22,lo8(-(-1))
 4982 1fa4 00C0      		rjmp .L392
 4983               	.LVL231:
 4984               	.L369:
 4985               	.LM696:
 4986 1fa6 0F3F      		cpi r16,255
 4987 1fa8 1105      		cpc r17,__zero_reg__
 4988 1faa 04F4      		brge .L372
 4989               	.LM697:
 4990 1fac 602F      		mov r22,r16
 4991               	.LVL232:
 4992 1fae 6095      		com r22
 4993               	.L392:
 4994 1fb0 8F2D      		mov r24,r15
 4995 1fb2 00C0      		rjmp .L390
 4996               	.LVL233:
 4997               	.L372:
 4998               	.LM698:
 4999 1fb4 8F2D      		mov r24,r15
 5000 1fb6 60E0      		ldi r22,lo8(0)
 5001               	.LVL234:
 5002               	.L390:
 5003 1fb8 0E94 0000 		call led_plane_intensity
 5004               	.LM699:
 5005 1fbc F601      		movw r30,r12
 5006 1fbe 0193      		st Z+,r16
 5007 1fc0 1193      		st Z+,r17
 5008 1fc2 6F01      		movw r12,r30
 5009 1fc4 F394      		inc r15
 5010               	.LM700:
 5011 1fc6 F8E0      		ldi r31,lo8(8)
 5012 1fc8 FF16      		cp r15,r31
 5013 1fca 01F4      		brne .L373
 5014               	.LVL235:
 5015               	.LM701:
 5016 1fcc 81E0      		ldi r24,lo8(1)
 5017 1fce 90E0      		ldi r25,hi8(1)
 5018 1fd0 0E94 0000 		call led_waitframe
 5019               	.LVL236:
 5020               	.L367:
 5021               	.LM702:
 5022 1fd4 8091 0000 		lds r24,fallout
 5023 1fd8 8823      		tst r24
 5024 1fda 01F4      		brne .L374
 5025 1fdc 8091 0000 		lds r24,duration
 5026 1fe0 9091 0000 		lds r25,(duration)+1
 5027 1fe4 892B      		or r24,r25
 5028 1fe6 01F4      		brne .L375
 5029               	.L376:
 5030 1fe8 6301      		movw r12,r6
 5031 1fea FF24      		clr r15
 5032 1fec 00C0      		rjmp .L373
 5033               	.L375:
 5034 1fee 8091 0000 		lds r24,time
 5035 1ff2 9091 0000 		lds r25,(time)+1
 5036 1ff6 892B      		or r24,r25
 5037 1ff8 01F4      		brne .L376
 5038 1ffa 00C0      		rjmp .L374
 5039               	.LVL237:
 5040               	.L383:
 5041               	.LM703:
 5042 1ffc F601      		movw r30,r12
 5043 1ffe 8081      		ld r24,Z
 5044 2000 9181      		ldd r25,Z+1
 5045               	.LVL238:
 5046               	.LM704:
 5047 2002 8501      		movw r16,r10
 5048               	.LVL239:
 5049 2004 8A15      		cp r24,r10
 5050 2006 9B05      		cpc r25,r11
 5051 2008 01F0      		breq .L377
 5052               	.LVL240:
 5053               	.LM705:
 5054 200a 0196      		adiw r24,1
 5055               	.LVL241:
 5056 200c EE24      		clr r14
 5057               	.LVL242:
 5058               	.L377:
 5059               	.LM706:
 5060 200e 8815      		cp r24,r8
 5061 2010 9905      		cpc r25,r9
 5062 2012 01F0      		breq .L378
 5063 2014 8C01      		movw r16,r24
 5064               	.L378:
 5065               	.LM707:
 5066 2016 17FF      		sbrs r17,7
 5067 2018 00C0      		rjmp .L379
 5068               	.LVL243:
 5069               	.LM708:
 5070 201a FFEF      		ldi r31,hi8(-254)
 5071 201c 0230      		cpi r16,lo8(-254)
 5072 201e 1F07      		cpc r17,r31
 5073 2020 04F0      		brlt .L382
 5074               	.LM709:
 5075 2022 602F      		mov r22,r16
 5076               	.LVL244:
 5077 2024 6150      		subi r22,lo8(-(-1))
 5078 2026 00C0      		rjmp .L393
 5079               	.LVL245:
 5080               	.L379:
 5081               	.LM710:
 5082 2028 0F3F      		cpi r16,255
 5083 202a 1105      		cpc r17,__zero_reg__
 5084 202c 04F4      		brge .L382
 5085               	.LM711:
 5086 202e 602F      		mov r22,r16
 5087               	.LVL246:
 5088 2030 6095      		com r22
 5089               	.L393:
 5090 2032 8F2D      		mov r24,r15
 5091               	.LVL247:
 5092 2034 00C0      		rjmp .L391
 5093               	.LVL248:
 5094               	.L382:
 5095               	.LM712:
 5096 2036 8F2D      		mov r24,r15
 5097 2038 60E0      		ldi r22,lo8(0)
 5098               	.LVL249:
 5099               	.L391:
 5100 203a 0E94 0000 		call led_plane_intensity
 5101               	.LM713:
 5102 203e F601      		movw r30,r12
 5103 2040 0193      		st Z+,r16
 5104 2042 1193      		st Z+,r17
 5105 2044 6F01      		movw r12,r30
 5106 2046 F394      		inc r15
 5107               	.LM714:
 5108 2048 F8E0      		ldi r31,lo8(8)
 5109 204a FF16      		cp r15,r31
 5110 204c 01F4      		brne .L383
 5111               	.LVL250:
 5112               	.LM715:
 5113 204e 81E0      		ldi r24,lo8(1)
 5114 2050 90E0      		ldi r25,hi8(1)
 5115 2052 0E94 0000 		call led_waitframe
 5116 2056 00C0      		rjmp .L384
 5117               	.LVL251:
 5118               	.L374:
 5119 2058 EE24      		clr r14
 5120               	.LVL252:
 5121               	.LM716:
 5122 205a 3E01      		movw r6,r28
 5123 205c 0894      		sec
 5124 205e 611C      		adc r6,__zero_reg__
 5125 2060 711C      		adc r7,__zero_reg__
 5126               	.LM717:
 5127 2062 AA24      		clr r10
 5128 2064 BB24      		clr r11
 5129 2066 A218      		sub r10,r2
 5130 2068 B308      		sbc r11,r3
 5131               	.LVL253:
 5132               	.LM718:
 5133 206a 4101      		movw r8,r2
 5134 206c 0894      		sec
 5135 206e 811C      		adc r8,__zero_reg__
 5136 2070 911C      		adc r9,__zero_reg__
 5137               	.LVL254:
 5138               	.L384:
 5139               	.LM719:
 5140 2072 8091 0000 		lds r24,fallout
 5141 2076 8823      		tst r24
 5142 2078 01F4      		brne .L386
 5143 207a EE20      		tst r14
 5144 207c 01F4      		brne .L386
 5145 207e 6301      		movw r12,r6
 5146 2080 EE24      		clr r14
 5147 2082 E394      		inc r14
 5148 2084 FF24      		clr r15
 5149 2086 00C0      		rjmp .L383
 5150               	.L386:
 5151               	/* epilogue start */
 5152               	.LM720:
 5153 2088 6196      		adiw r28,17
 5154 208a 0FB6      		in __tmp_reg__,__SREG__
 5155 208c F894      		cli
 5156 208e DEBF      		out __SP_H__,r29
 5157 2090 0FBE      		out __SREG__,__tmp_reg__
 5158 2092 CDBF      		out __SP_L__,r28
 5159 2094 CF91      		pop r28
 5160 2096 DF91      		pop r29
 5161 2098 1F91      		pop r17
 5162 209a 0F91      		pop r16
 5163               	.LVL255:
 5164 209c FF90      		pop r15
 5165 209e EF90      		pop r14
 5166               	.LVL256:
 5167 20a0 DF90      		pop r13
 5168 20a2 CF90      		pop r12
 5169 20a4 BF90      		pop r11
 5170 20a6 AF90      		pop r10
 5171               	.LVL257:
 5172 20a8 9F90      		pop r9
 5173 20aa 8F90      		pop r8
 5174 20ac 7F90      		pop r7
 5175 20ae 6F90      		pop r6
 5176 20b0 5F90      		pop r5
 5177 20b2 4F90      		pop r4
 5178 20b4 3F90      		pop r3
 5179 20b6 2F90      		pop r2
 5180               	.LVL258:
 5181 20b8 0895      		ret
 5182               	.LFE30:
 5184               	.global	pattern_spinface
 5186               	pattern_spinface:
 5187               	.LFB25:
 5188               	.LM721:
 5189 20ba CF92      		push r12
 5190 20bc EF92      		push r14
 5191 20be FF92      		push r15
 5192 20c0 0F93      		push r16
 5193 20c2 1F93      		push r17
 5194               	/* prologue: function */
 5195               	/* frame size = 0 */
 5196               	.LM722:
 5197 20c4 1092 0000 		sts fallout,__zero_reg__
 5198               	.LM723:
 5199 20c8 8091 0000 		lds r24,duration
 5200 20cc 9091 0000 		lds r25,(duration)+1
 5201 20d0 9093 0000 		sts (time)+1,r25
 5202 20d4 8093 0000 		sts time,r24
 5203               	.LM724:
 5204 20d8 84E6      		ldi r24,lo8(100)
 5205 20da 90E0      		ldi r25,hi8(100)
 5206 20dc 0E94 0000 		call led_framerate
 5207               	.LM725:
 5208 20e0 0E94 0000 		call led_blank
 5209               	.LM726:
 5210 20e4 8FEF      		ldi r24,lo8(-1)
 5211 20e6 0E94 0000 		call led_plane_intensity_all
 5212               	.LM727:
 5213 20ea 80E0      		ldi r24,lo8(0)
 5214 20ec 90E0      		ldi r25,hi8(0)
 5215 20ee 60E0      		ldi r22,lo8(0)
 5216 20f0 70E0      		ldi r23,hi8(0)
 5217 20f2 44E0      		ldi r20,lo8(4)
 5218 20f4 50E0      		ldi r21,hi8(4)
 5219 20f6 21E0      		ldi r18,lo8(1)
 5220 20f8 30E0      		ldi r19,hi8(1)
 5221 20fa 00E0      		ldi r16,lo8(0)
 5222 20fc 10E0      		ldi r17,hi8(0)
 5223 20fe F4E0      		ldi r31,lo8(4)
 5224 2100 EF2E      		mov r14,r31
 5225 2102 F12C      		mov r15,__zero_reg__
 5226 2104 CC24      		clr r12
 5227 2106 C394      		inc r12
 5228 2108 0E94 0000 		call led_line
 5229 210c 86E0      		ldi r24,lo8(6)
 5230 210e 90E0      		ldi r25,hi8(6)
 5231 2110 60E0      		ldi r22,lo8(0)
 5232 2112 70E0      		ldi r23,hi8(0)
 5233 2114 43E0      		ldi r20,lo8(3)
 5234 2116 50E0      		ldi r21,hi8(3)
 5235 2118 27E0      		ldi r18,lo8(7)
 5236 211a 30E0      		ldi r19,hi8(7)
 5237 211c E3E0      		ldi r30,lo8(3)
 5238 211e EE2E      		mov r14,r30
 5239 2120 F12C      		mov r15,__zero_reg__
 5240 2122 0E94 0000 		call led_line
 5241               	.LM728:
 5242 2126 80E0      		ldi r24,lo8(0)
 5243 2128 90E0      		ldi r25,hi8(0)
 5244 212a 61E0      		ldi r22,lo8(1)
 5245 212c 70E0      		ldi r23,hi8(1)
 5246 212e 44E0      		ldi r20,lo8(4)
 5247 2130 50E0      		ldi r21,hi8(4)
 5248 2132 21E0      		ldi r18,lo8(1)
 5249 2134 30E0      		ldi r19,hi8(1)
 5250 2136 01E0      		ldi r16,lo8(1)
 5251 2138 10E0      		ldi r17,hi8(1)
 5252 213a B4E0      		ldi r27,lo8(4)
 5253 213c EB2E      		mov r14,r27
 5254 213e F12C      		mov r15,__zero_reg__
 5255 2140 0E94 0000 		call led_line
 5256 2144 86E0      		ldi r24,lo8(6)
 5257 2146 90E0      		ldi r25,hi8(6)
 5258 2148 61E0      		ldi r22,lo8(1)
 5259 214a 70E0      		ldi r23,hi8(1)
 5260 214c 43E0      		ldi r20,lo8(3)
 5261 214e 50E0      		ldi r21,hi8(3)
 5262 2150 27E0      		ldi r18,lo8(7)
 5263 2152 30E0      		ldi r19,hi8(7)
 5264 2154 A3E0      		ldi r26,lo8(3)
 5265 2156 EA2E      		mov r14,r26
 5266 2158 F12C      		mov r15,__zero_reg__
 5267 215a 0E94 0000 		call led_line
 5268               	.LM729:
 5269 215e 83E0      		ldi r24,lo8(3)
 5270 2160 90E0      		ldi r25,hi8(3)
 5271 2162 62E0      		ldi r22,lo8(2)
 5272 2164 70E0      		ldi r23,hi8(2)
 5273 2166 44E0      		ldi r20,lo8(4)
 5274 2168 50E0      		ldi r21,hi8(4)
 5275 216a 24E0      		ldi r18,lo8(4)
 5276 216c 30E0      		ldi r19,hi8(4)
 5277 216e 02E0      		ldi r16,lo8(2)
 5278 2170 10E0      		ldi r17,hi8(2)
 5279 2172 0E94 0000 		call led_line
 5280               	.LM730:
 5281 2176 83E0      		ldi r24,lo8(3)
 5282 2178 90E0      		ldi r25,hi8(3)
 5283 217a 63E0      		ldi r22,lo8(3)
 5284 217c 70E0      		ldi r23,hi8(3)
 5285 217e 44E0      		ldi r20,lo8(4)
 5286 2180 50E0      		ldi r21,hi8(4)
 5287 2182 24E0      		ldi r18,lo8(4)
 5288 2184 30E0      		ldi r19,hi8(4)
 5289 2186 03E0      		ldi r16,lo8(3)
 5290 2188 10E0      		ldi r17,hi8(3)
 5291 218a 0E94 0000 		call led_line
 5292               	.LM731:
 5293 218e 82E0      		ldi r24,lo8(2)
 5294 2190 90E0      		ldi r25,hi8(2)
 5295 2192 64E0      		ldi r22,lo8(4)
 5296 2194 70E0      		ldi r23,hi8(4)
 5297 2196 44E0      		ldi r20,lo8(4)
 5298 2198 50E0      		ldi r21,hi8(4)
 5299 219a 25E0      		ldi r18,lo8(5)
 5300 219c 30E0      		ldi r19,hi8(5)
 5301 219e 04E0      		ldi r16,lo8(4)
 5302 21a0 10E0      		ldi r17,hi8(4)
 5303 21a2 0E94 0000 		call led_line
 5304               	.LM732:
 5305 21a6 80E0      		ldi r24,lo8(0)
 5306 21a8 90E0      		ldi r25,hi8(0)
 5307 21aa 65E0      		ldi r22,lo8(5)
 5308 21ac 70E0      		ldi r23,hi8(5)
 5309 21ae 44E0      		ldi r20,lo8(4)
 5310 21b0 50E0      		ldi r21,hi8(4)
 5311 21b2 21E0      		ldi r18,lo8(1)
 5312 21b4 30E0      		ldi r19,hi8(1)
 5313 21b6 05E0      		ldi r16,lo8(5)
 5314 21b8 10E0      		ldi r17,hi8(5)
 5315 21ba F4E0      		ldi r31,lo8(4)
 5316 21bc EF2E      		mov r14,r31
 5317 21be F12C      		mov r15,__zero_reg__
 5318 21c0 0E94 0000 		call led_line
 5319 21c4 86E0      		ldi r24,lo8(6)
 5320 21c6 90E0      		ldi r25,hi8(6)
 5321 21c8 65E0      		ldi r22,lo8(5)
 5322 21ca 70E0      		ldi r23,hi8(5)
 5323 21cc 43E0      		ldi r20,lo8(3)
 5324 21ce 50E0      		ldi r21,hi8(3)
 5325 21d0 27E0      		ldi r18,lo8(7)
 5326 21d2 30E0      		ldi r19,hi8(7)
 5327 21d4 E3E0      		ldi r30,lo8(3)
 5328 21d6 EE2E      		mov r14,r30
 5329 21d8 F12C      		mov r15,__zero_reg__
 5330 21da 0E94 0000 		call led_line
 5331               	.LM733:
 5332 21de 80E0      		ldi r24,lo8(0)
 5333 21e0 90E0      		ldi r25,hi8(0)
 5334 21e2 66E0      		ldi r22,lo8(6)
 5335 21e4 70E0      		ldi r23,hi8(6)
 5336 21e6 44E0      		ldi r20,lo8(4)
 5337 21e8 50E0      		ldi r21,hi8(4)
 5338 21ea 27E0      		ldi r18,lo8(7)
 5339 21ec 30E0      		ldi r19,hi8(7)
 5340 21ee 06E0      		ldi r16,lo8(6)
 5341 21f0 10E0      		ldi r17,hi8(6)
 5342 21f2 0E94 0000 		call led_line
 5343               	.LM734:
 5344 21f6 81E0      		ldi r24,lo8(1)
 5345 21f8 90E0      		ldi r25,hi8(1)
 5346 21fa 67E0      		ldi r22,lo8(7)
 5347 21fc 70E0      		ldi r23,hi8(7)
 5348 21fe 44E0      		ldi r20,lo8(4)
 5349 2200 50E0      		ldi r21,hi8(4)
 5350 2202 26E0      		ldi r18,lo8(6)
 5351 2204 30E0      		ldi r19,hi8(6)
 5352 2206 07E0      		ldi r16,lo8(7)
 5353 2208 10E0      		ldi r17,hi8(7)
 5354 220a 0E94 0000 		call led_line
 5355 220e 10E0      		ldi r17,lo8(0)
 5356               	.LVL259:
 5357 2210 00E0      		ldi r16,lo8(0)
 5358               	.LVL260:
 5359 2212 00C0      		rjmp .L395
 5360               	.L417:
 5361               	.LBB4:
 5362               	.LBB5:
 5363               	.LM735:
 5364 2214 1630      		cpi r17,lo8(6)
 5365 2216 01F0      		breq .L403
 5366 2218 1730      		cpi r17,lo8(7)
 5367 221a 00F4      		brsh .L411
 5368 221c 1230      		cpi r17,lo8(2)
 5369 221e 01F0      		breq .L399
 5370 2220 1330      		cpi r17,lo8(3)
 5371 2222 00F4      		brsh .L412
 5372 2224 1123      		tst r17
 5373 2226 01F0      		breq .L399
 5374 2228 1130      		cpi r17,lo8(1)
 5375 222a 01F0      		breq .+2
 5376 222c 00C0      		rjmp .L396
 5377 222e 00C0      		rjmp .L426
 5378               	.L412:
 5379 2230 1430      		cpi r17,lo8(4)
 5380 2232 01F0      		breq .+2
 5381 2234 00C0      		rjmp .L406
 5382 2236 00C0      		rjmp .L405
 5383               	.L411:
 5384 2238 1A30      		cpi r17,lo8(10)
 5385 223a 01F4      		brne .+2
 5386 223c 00C0      		rjmp .L409
 5387 223e 1B30      		cpi r17,lo8(11)
 5388 2240 00F4      		brsh .L413
 5389 2242 1830      		cpi r17,lo8(8)
 5390 2244 01F4      		brne .L406
 5391 2246 00C0      		rjmp .L405
 5392               	.L413:
 5393 2248 1C30      		cpi r17,lo8(12)
 5394 224a 01F4      		brne .+2
 5395 224c 00C0      		rjmp .L409
 5396 224e 1C30      		cpi r17,lo8(12)
 5397 2250 00F4      		brsh .+2
 5398 2252 00C0      		rjmp .L408
 5399 2254 1D30      		cpi r17,lo8(13)
 5400 2256 01F0      		breq .+2
 5401 2258 00C0      		rjmp .L396
 5402 225a 00C0      		rjmp .L427
 5403               	.L426:
 5404               	.LM736:
 5405 225c 80E0      		ldi r24,lo8(0)
 5406 225e 0E94 0000 		call led_plane_x_back
 5407               	.LM737:
 5408 2262 82E0      		ldi r24,lo8(2)
 5409 2264 0E94 0000 		call led_plane_x_back
 5410               	.LM738:
 5411 2268 85E0      		ldi r24,lo8(5)
 5412 226a 00C0      		rjmp .L422
 5413               	.L399:
 5414               	.LM739:
 5415 226c 80E0      		ldi r24,lo8(0)
 5416 226e 0E94 0000 		call led_plane_x_back
 5417               	.LM740:
 5418 2272 81E0      		ldi r24,lo8(1)
 5419 2274 0E94 0000 		call led_plane_x_back
 5420               	.LM741:
 5421 2278 86E0      		ldi r24,lo8(6)
 5422               	.L422:
 5423 227a 0E94 0000 		call led_plane_x_forward
 5424               	.LM742:
 5425 227e 87E0      		ldi r24,lo8(7)
 5426 2280 0E94 0000 		call led_plane_x_forward
 5427 2284 00C0      		rjmp .L396
 5428               	.L403:
 5429               	.LM743:
 5430 2286 87E0      		ldi r24,lo8(7)
 5431 2288 0E94 0000 		call led_plane_z_right
 5432               	.LM744:
 5433 228c 86E0      		ldi r24,lo8(6)
 5434 228e 0E94 0000 		call led_plane_z_right
 5435               	.LM745:
 5436 2292 85E0      		ldi r24,lo8(5)
 5437 2294 0E94 0000 		call led_plane_z_right
 5438               	.LM746:
 5439 2298 84E0      		ldi r24,lo8(4)
 5440 229a 0E94 0000 		call led_plane_z_right
 5441               	.LM747:
 5442 229e 83E0      		ldi r24,lo8(3)
 5443 22a0 0E94 0000 		call led_plane_z_left
 5444               	.LM748:
 5445 22a4 82E0      		ldi r24,lo8(2)
 5446 22a6 0E94 0000 		call led_plane_z_left
 5447 22aa 00C0      		rjmp .L424
 5448               	.L405:
 5449               	.LM749:
 5450 22ac 87E0      		ldi r24,lo8(7)
 5451 22ae 0E94 0000 		call led_plane_z_right
 5452               	.LM750:
 5453 22b2 85E0      		ldi r24,lo8(5)
 5454 22b4 0E94 0000 		call led_plane_z_right
 5455               	.LM751:
 5456 22b8 82E0      		ldi r24,lo8(2)
 5457 22ba 00C0      		rjmp .L423
 5458               	.L406:
 5459               	.LM752:
 5460 22bc 87E0      		ldi r24,lo8(7)
 5461 22be 0E94 0000 		call led_plane_z_right
 5462               	.LM753:
 5463 22c2 86E0      		ldi r24,lo8(6)
 5464 22c4 0E94 0000 		call led_plane_z_right
 5465               	.L424:
 5466               	.LM754:
 5467 22c8 81E0      		ldi r24,lo8(1)
 5468               	.L423:
 5469 22ca 0E94 0000 		call led_plane_z_left
 5470               	.LM755:
 5471 22ce 80E0      		ldi r24,lo8(0)
 5472 22d0 0E94 0000 		call led_plane_z_left
 5473 22d4 00C0      		rjmp .L396
 5474               	.L408:
 5475               	.LM756:
 5476 22d6 87E0      		ldi r24,lo8(7)
 5477 22d8 0E94 0000 		call led_plane_x_forward
 5478               	.LM757:
 5479 22dc 85E0      		ldi r24,lo8(5)
 5480 22de 0E94 0000 		call led_plane_x_forward
 5481               	.LM758:
 5482 22e2 82E0      		ldi r24,lo8(2)
 5483 22e4 00C0      		rjmp .L421
 5484               	.L409:
 5485               	.LM759:
 5486 22e6 87E0      		ldi r24,lo8(7)
 5487 22e8 0E94 0000 		call led_plane_x_forward
 5488               	.LM760:
 5489 22ec 86E0      		ldi r24,lo8(6)
 5490 22ee 0E94 0000 		call led_plane_x_forward
 5491 22f2 00C0      		rjmp .L425
 5492               	.L427:
 5493               	.LM761:
 5494 22f4 87E0      		ldi r24,lo8(7)
 5495 22f6 0E94 0000 		call led_plane_x_forward
 5496               	.LM762:
 5497 22fa 86E0      		ldi r24,lo8(6)
 5498 22fc 0E94 0000 		call led_plane_x_forward
 5499               	.LM763:
 5500 2300 85E0      		ldi r24,lo8(5)
 5501 2302 0E94 0000 		call led_plane_x_forward
 5502               	.LM764:
 5503 2306 84E0      		ldi r24,lo8(4)
 5504 2308 0E94 0000 		call led_plane_x_forward
 5505               	.LM765:
 5506 230c 83E0      		ldi r24,lo8(3)
 5507 230e 0E94 0000 		call led_plane_x_back
 5508               	.LM766:
 5509 2312 82E0      		ldi r24,lo8(2)
 5510 2314 0E94 0000 		call led_plane_x_back
 5511               	.L425:
 5512               	.LM767:
 5513 2318 81E0      		ldi r24,lo8(1)
 5514               	.L421:
 5515 231a 0E94 0000 		call led_plane_x_back
 5516               	.LM768:
 5517 231e 80E0      		ldi r24,lo8(0)
 5518 2320 0E94 0000 		call led_plane_x_back
 5519               	.L396:
 5520               	.LBE5:
 5521               	.LBE4:
 5522               	.LM769:
 5523 2324 1F5F      		subi r17,lo8(-(1))
 5524               	.LM770:
 5525 2326 1E30      		cpi r17,lo8(14)
 5526 2328 01F4      		brne .L414
 5527 232a 10E0      		ldi r17,lo8(0)
 5528               	.L414:
 5529               	.LM771:
 5530 232c 8091 0000 		lds r24,duration
 5531 2330 9091 0000 		lds r25,(duration)+1
 5532 2334 892B      		or r24,r25
 5533 2336 01F0      		breq .L415
 5534 2338 8091 0000 		lds r24,time
 5535 233c 9091 0000 		lds r25,(time)+1
 5536 2340 892B      		or r24,r25
 5537 2342 01F4      		brne .L415
 5538               	.LM772:
 5539 2344 0E94 0000 		call led_frame_down
 5540               	.LM773:
 5541 2348 0F5F      		subi r16,lo8(-(1))
 5542               	.L415:
 5543               	.LM774:
 5544 234a 85E0      		ldi r24,lo8(5)
 5545 234c 90E0      		ldi r25,hi8(5)
 5546 234e 0E94 0000 		call led_waitframe
 5547               	.L395:
 5548               	.LM775:
 5549 2352 8091 0000 		lds r24,fallout
 5550 2356 8823      		tst r24
 5551 2358 01F4      		brne .L418
 5552 235a 0830      		cpi r16,lo8(8)
 5553 235c 01F0      		breq .+2
 5554 235e 00C0      		rjmp .L417
 5555               	.L418:
 5556               	/* epilogue start */
 5557               	.LM776:
 5558 2360 1F91      		pop r17
 5559               	.LVL261:
 5560 2362 0F91      		pop r16
 5561               	.LVL262:
 5562 2364 FF90      		pop r15
 5563 2366 EF90      		pop r14
 5564 2368 CF90      		pop r12
 5565 236a 0895      		ret
 5566               	.LFE25:
 5568               	.global	pattern_flapsheet
 5570               	pattern_flapsheet:
 5571               	.LFB24:
 5572               	.LM777:
 5573 236c 2F92      		push r2
 5574 236e 3F92      		push r3
 5575 2370 4F92      		push r4
 5576 2372 5F92      		push r5
 5577 2374 6F92      		push r6
 5578 2376 7F92      		push r7
 5579 2378 8F92      		push r8
 5580 237a 9F92      		push r9
 5581 237c AF92      		push r10
 5582 237e BF92      		push r11
 5583 2380 CF92      		push r12
 5584 2382 DF92      		push r13
 5585 2384 EF92      		push r14
 5586 2386 FF92      		push r15
 5587 2388 0F93      		push r16
 5588 238a 1F93      		push r17
 5589 238c DF93      		push r29
 5590 238e CF93      		push r28
 5591 2390 CDB7      		in r28,__SP_L__
 5592 2392 DEB7      		in r29,__SP_H__
 5593 2394 C058      		subi r28,lo8(-(-128))
 5594 2396 D040      		sbci r29,hi8(-(-128))
 5595 2398 0FB6      		in __tmp_reg__,__SREG__
 5596 239a F894      		cli
 5597 239c DEBF      		out __SP_H__,r29
 5598 239e 0FBE      		out __SREG__,__tmp_reg__
 5599 23a0 CDBF      		out __SP_L__,r28
 5600               	/* prologue: function */
 5601               	/* frame size = 128 */
 5602               	.LM778:
 5603 23a2 1092 0000 		sts fallout,__zero_reg__
 5604               	.LM779:
 5605 23a6 8091 0000 		lds r24,duration
 5606 23aa 9091 0000 		lds r25,(duration)+1
 5607 23ae 9093 0000 		sts (time)+1,r25
 5608 23b2 8093 0000 		sts time,r24
 5609               	.LM780:
 5610 23b6 82E3      		ldi r24,lo8(50)
 5611 23b8 90E0      		ldi r25,hi8(50)
 5612 23ba 0E94 0000 		call led_framerate
 5613               	.LM781:
 5614 23be 0E94 0000 		call led_blank
 5615               	.LM782:
 5616 23c2 8FEF      		ldi r24,lo8(-1)
 5617 23c4 0E94 0000 		call led_plane_intensity_all
 5618 23c8 CC24      		clr r12
 5619 23ca DD24      		clr r13
 5620               	.LVL263:
 5621 23cc 17E0      		ldi r17,lo8(7)
 5622 23ce E12E      		mov r14,r17
 5623 23d0 F12C      		mov r15,__zero_reg__
 5624               	.LM783:
 5625 23d2 1E01      		movw r2,r28
 5626 23d4 0894      		sec
 5627 23d6 211C      		adc r2,__zero_reg__
 5628 23d8 311C      		adc r3,__zero_reg__
 5629 23da B1E4      		ldi r27,lo8(65)
 5630 23dc 4B2E      		mov r4,r27
 5631 23de 512C      		mov r5,__zero_reg__
 5632 23e0 4C0E      		add r4,r28
 5633 23e2 5D1E      		adc r5,r29
 5634 23e4 00C0      		rjmp .L429
 5635               	.LVL264:
 5636               	.L431:
 5637               	.LM784:
 5638 23e6 9801      		movw r18,r16
 5639 23e8 17FF      		sbrs r17,7
 5640 23ea 00C0      		rjmp .L430
 5641               	.LVL265:
 5642 23ec 3095      		com r19
 5643 23ee 2195      		neg r18
 5644 23f0 3F4F      		sbci r19,lo8(-1)
 5645               	.LVL266:
 5646               	.L430:
 5647               	.LM785:
 5648 23f2 229F      		mul r18,r18
 5649 23f4 B001      		movw r22,r0
 5650 23f6 239F      		mul r18,r19
 5651 23f8 700D      		add r23,r0
 5652 23fa 329F      		mul r19,r18
 5653 23fc 700D      		add r23,r0
 5654 23fe 1124      		clr r1
 5655 2400 660D      		add r22,r6
 5656 2402 771D      		adc r23,r7
 5657 2404 8827      		clr r24
 5658 2406 77FD      		sbrc r23,7
 5659 2408 8095      		com r24
 5660 240a 982F      		mov r25,r24
 5661 240c 0E94 0000 		call __floatsisf
 5662 2410 0E94 0000 		call sqrt
 5663 2414 20E0      		ldi r18,lo8(0x41100000)
 5664 2416 30E0      		ldi r19,hi8(0x41100000)
 5665 2418 40E1      		ldi r20,hlo8(0x41100000)
 5666 241a 51E4      		ldi r21,hhi8(0x41100000)
 5667 241c 0E94 0000 		call __mulsf3
 5668 2420 0E94 0000 		call __fixunssfsi
 5669 2424 D401      		movw r26,r8
 5670 2426 6D93      		st X+,r22
 5671 2428 4D01      		movw r8,r26
 5672               	.LM786:
 5673 242a F501      		movw r30,r10
 5674 242c 1192      		st Z+,__zero_reg__
 5675 242e 5F01      		movw r10,r30
 5676 2430 0250      		subi r16,lo8(-(-2))
 5677 2432 1040      		sbci r17,hi8(-(-2))
 5678               	.LVL267:
 5679               	.LM787:
 5680 2434 FFEF      		ldi r31,hi8(-9)
 5681 2436 073F      		cpi r16,lo8(-9)
 5682 2438 1F07      		cpc r17,r31
 5683 243a 01F4      		brne .L431
 5684               	.LM788:
 5685 243c 0894      		sec
 5686 243e C11C      		adc r12,__zero_reg__
 5687 2440 D11C      		adc r13,__zero_reg__
 5688 2442 8EEF      		ldi r24,lo8(-2)
 5689 2444 9FEF      		ldi r25,hi8(-2)
 5690 2446 E80E      		add r14,r24
 5691 2448 F91E      		adc r15,r25
 5692               	.LVL268:
 5693               	.LM789:
 5694 244a 98E0      		ldi r25,lo8(8)
 5695 244c C916      		cp r12,r25
 5696 244e D104      		cpc r13,__zero_reg__
 5697 2450 01F4      		brne .L429
 5698 2452 A8E0      		ldi r26,lo8(8)
 5699 2454 DA2E      		mov r13,r26
 5700               	.LVL269:
 5701 2456 00C0      		rjmp .L432
 5702               	.LVL270:
 5703               	.L429:
 5704 2458 9701      		movw r18,r14
 5705 245a F7FE      		sbrs r15,7
 5706 245c 00C0      		rjmp .L433
 5707               	.LVL271:
 5708 245e 3095      		com r19
 5709 2460 2195      		neg r18
 5710 2462 3F4F      		sbci r19,lo8(-1)
 5711               	.LVL272:
 5712               	.L433:
 5713               	.LM790:
 5714 2464 C601      		movw r24,r12
 5715 2466 F3E0      		ldi r31,3
 5716 2468 880F      	1:	lsl r24
 5717 246a 991F      		rol r25
 5718 246c FA95      		dec r31
 5719 246e 01F4      		brne 1b
 5720 2470 229F      		mul r18,r18
 5721 2472 3001      		movw r6,r0
 5722 2474 239F      		mul r18,r19
 5723 2476 700C      		add r7,r0
 5724 2478 329F      		mul r19,r18
 5725 247a 700C      		add r7,r0
 5726 247c 1124      		clr r1
 5727 247e 4101      		movw r8,r2
 5728 2480 880E      		add r8,r24
 5729 2482 991E      		adc r9,r25
 5730 2484 5201      		movw r10,r4
 5731 2486 A80E      		add r10,r24
 5732 2488 B91E      		adc r11,r25
 5733 248a 07E0      		ldi r16,lo8(7)
 5734 248c 10E0      		ldi r17,hi8(7)
 5735 248e 00C0      		rjmp .L431
 5736               	.LVL273:
 5737               	.L435:
 5738               	.LM791:
 5739 2490 DA94      		dec r13
 5740               	.LM792:
 5741 2492 0E94 0000 		call led_frame_left
 5742               	.LM793:
 5743 2496 87E0      		ldi r24,lo8(7)
 5744 2498 90E0      		ldi r25,hi8(7)
 5745 249a 66E0      		ldi r22,lo8(6)
 5746 249c 70E0      		ldi r23,hi8(6)
 5747 249e 40E0      		ldi r20,lo8(0)
 5748 24a0 50E0      		ldi r21,hi8(0)
 5749 24a2 27E0      		ldi r18,lo8(7)
 5750 24a4 30E0      		ldi r19,hi8(7)
 5751 24a6 06E0      		ldi r16,lo8(6)
 5752 24a8 10E0      		ldi r17,hi8(6)
 5753 24aa E7E0      		ldi r30,lo8(7)
 5754 24ac EE2E      		mov r14,r30
 5755 24ae F12C      		mov r15,__zero_reg__
 5756 24b0 CC24      		clr r12
 5757 24b2 C394      		inc r12
 5758               	.LVL274:
 5759 24b4 0E94 0000 		call led_line
 5760               	.LM794:
 5761 24b8 81E0      		ldi r24,lo8(1)
 5762 24ba 90E0      		ldi r25,hi8(1)
 5763 24bc 0E94 0000 		call led_waitframe
 5764               	.LVL275:
 5765               	.L432:
 5766               	.LM795:
 5767 24c0 8091 0000 		lds r24,fallout
 5768 24c4 8823      		tst r24
 5769 24c6 01F0      		breq .+2
 5770 24c8 00C0      		rjmp .L434
 5771 24ca DD20      		tst r13
 5772 24cc 01F4      		brne .L435
 5773 24ce 00C0      		rjmp .L434
 5774               	.LVL276:
 5775               	.L448:
 5776               	.LM796:
 5777 24d0 0E94 0000 		call led_blank
 5778               	.LVL277:
 5779 24d4 8301      		movw r16,r6
 5780 24d6 7501      		movw r14,r10
 5781 24d8 DD24      		clr r13
 5782 24da D394      		inc r13
 5783               	.LVL278:
 5784               	.L445:
 5785 24dc 4E2D      		mov r20,r14
 5786               	.LVL279:
 5787 24de 4A19      		sub r20,r10
 5788               	.LM797:
 5789 24e0 8091 0000 		lds r24,duration
 5790 24e4 9091 0000 		lds r25,(duration)+1
 5791 24e8 892B      		or r24,r25
 5792 24ea 01F0      		breq .L436
 5793 24ec 8091 0000 		lds r24,time
 5794 24f0 9091 0000 		lds r25,(time)+1
 5795 24f4 892B      		or r24,r25
 5796 24f6 01F0      		breq .L437
 5797               	.L436:
 5798               	.LM798:
 5799 24f8 D801      		movw r26,r16
 5800 24fa 8C91      		ld r24,X
 5801 24fc 8B5F      		subi r24,lo8(-(5))
 5802 24fe 8C93      		st X,r24
 5803 2500 00C0      		rjmp .L441
 5804               	.L437:
 5805 2502 F801      		movw r30,r16
 5806 2504 8081      		ld r24,Z
 5807               	.LM799:
 5808 2506 CC20      		tst r12
 5809 2508 01F0      		breq .L439
 5810               	.LM800:
 5811 250a 8630      		cpi r24,lo8(6)
 5812 250c 00F0      		brlo .L456
 5813               	.L440:
 5814               	.LM801:
 5815 250e 8B5F      		subi r24,lo8(-(5))
 5816 2510 D801      		movw r26,r16
 5817 2512 8C93      		st X,r24
 5818 2514 00C0      		rjmp .L458
 5819               	.L439:
 5820               	.LM802:
 5821 2516 8B5F      		subi r24,lo8(-(5))
 5822 2518 F801      		movw r30,r16
 5823 251a 8083      		st Z,r24
 5824               	.LM803:
 5825 251c 8981      		ldd r24,Y+1
 5826 251e 8530      		cpi r24,lo8(5)
 5827 2520 00F4      		brsh .L441
 5828               	.L458:
 5829 2522 DD24      		clr r13
 5830               	.LVL280:
 5831               	.L456:
 5832 2524 CC24      		clr r12
 5833 2526 C394      		inc r12
 5834 2528 00C0      		rjmp .L438
 5835               	.L441:
 5836 252a DD24      		clr r13
 5837               	.LVL281:
 5838               	.L438:
 5839               	.LBB6:
 5840               	.LM804:
 5841 252c D801      		movw r26,r16
 5842 252e EC91      		ld r30,X
 5843 2530 F0E0      		ldi r31,lo8(0)
 5844 2532 E050      		subi r30,lo8(-(sintable))
 5845 2534 F040      		sbci r31,hi8(-(sintable))
 5846               	/* #APP */
 5847               	 ;  1041 "pattern.c" 1
 5848 2536 6491      		lpm r22, Z
 5849               		
 5850               	 ;  0 "" 2
 5851               	.LVL282:
 5852               	/* #NOAPP */
 5853               	.LBE6:
 5854               	.LM805:
 5855 2538 6295      		swap r22
 5856 253a 6F70      		andi r22,lo8(15)
 5857               	.LM806:
 5858 253c 6630      		cpi r22,lo8(6)
 5859 253e 01F4      		brne .L442
 5860               	.LM807:
 5861 2540 F701      		movw r30,r14
 5862 2542 5082      		st Z,r5
 5863               	.L442:
 5864               	.LM808:
 5865 2544 D701      		movw r26,r14
 5866 2546 8C91      		ld r24,X
 5867 2548 942F      		mov r25,r20
 5868 254a 9770      		andi r25,lo8(7)
 5869 254c 4695      		lsr r20
 5870 254e 4695      		lsr r20
 5871 2550 4695      		lsr r20
 5872               	.LVL283:
 5873 2552 8823      		tst r24
 5874 2554 01F4      		brne .L443
 5875               	.LM809:
 5876 2556 4770      		andi r20,lo8(7)
 5877 2558 892F      		mov r24,r25
 5878 255a 66E0      		ldi r22,lo8(6)
 5879               	.LVL284:
 5880 255c 00C0      		rjmp .L457
 5881               	.LVL285:
 5882               	.L443:
 5883               	.LM810:
 5884 255e 4770      		andi r20,lo8(7)
 5885 2560 892F      		mov r24,r25
 5886               	.L457:
 5887 2562 21E0      		ldi r18,lo8(1)
 5888 2564 0E94 0000 		call led_point
 5889               	.LVL286:
 5890 2568 0894      		sec
 5891 256a E11C      		adc r14,__zero_reg__
 5892 256c F11C      		adc r15,__zero_reg__
 5893 256e 0F5F      		subi r16,lo8(-(1))
 5894 2570 1F4F      		sbci r17,hi8(-(1))
 5895               	.LM811:
 5896 2572 E814      		cp r14,r8
 5897 2574 F904      		cpc r15,r9
 5898 2576 01F0      		breq .+2
 5899 2578 00C0      		rjmp .L445
 5900               	.LM812:
 5901 257a 81E0      		ldi r24,lo8(1)
 5902 257c 90E0      		ldi r25,hi8(1)
 5903 257e 0E94 0000 		call led_waitframe
 5904 2582 9D2D      		mov r25,r13
 5905 2584 00C0      		rjmp .L446
 5906               	.LVL287:
 5907               	.L434:
 5908 2586 CC24      		clr r12
 5909               	.LVL288:
 5910 2588 90E0      		ldi r25,lo8(0)
 5911               	.LVL289:
 5912               	.LM813:
 5913 258a B1E4      		ldi r27,lo8(65)
 5914 258c AB2E      		mov r10,r27
 5915 258e B12C      		mov r11,__zero_reg__
 5916 2590 AC0E      		add r10,r28
 5917 2592 BD1E      		adc r11,r29
 5918 2594 3E01      		movw r6,r28
 5919 2596 0894      		sec
 5920 2598 611C      		adc r6,__zero_reg__
 5921 259a 711C      		adc r7,__zero_reg__
 5922 259c 5524      		clr r5
 5923 259e 5394      		inc r5
 5924               	.LVL290:
 5925               	.LM814:
 5926 25a0 A1E8      		ldi r26,lo8(129)
 5927 25a2 8A2E      		mov r8,r26
 5928 25a4 912C      		mov r9,__zero_reg__
 5929 25a6 8C0E      		add r8,r28
 5930 25a8 9D1E      		adc r9,r29
 5931               	.LVL291:
 5932               	.L446:
 5933               	.LM815:
 5934 25aa 8091 0000 		lds r24,fallout
 5935 25ae 8823      		tst r24
 5936 25b0 01F4      		brne .L447
 5937 25b2 9923      		tst r25
 5938 25b4 01F4      		brne .+2
 5939 25b6 00C0      		rjmp .L448
 5940               	.LVL292:
 5941 25b8 00C0      		rjmp .L447
 5942               	.LVL293:
 5943               	.L451:
 5944               	.LM816:
 5945 25ba 1150      		subi r17,lo8(-(-1))
 5946               	.LM817:
 5947 25bc 0E94 0000 		call led_frame_left
 5948               	.LM818:
 5949 25c0 81E0      		ldi r24,lo8(1)
 5950 25c2 90E0      		ldi r25,hi8(1)
 5951 25c4 0E94 0000 		call led_waitframe
 5952 25c8 00C0      		rjmp .L449
 5953               	.LVL294:
 5954               	.L447:
 5955 25ca 18E0      		ldi r17,lo8(8)
 5956               	.LVL295:
 5957               	.L449:
 5958               	.LM819:
 5959 25cc 8091 0000 		lds r24,fallout
 5960 25d0 8823      		tst r24
 5961 25d2 01F4      		brne .L452
 5962 25d4 1123      		tst r17
 5963 25d6 01F4      		brne .L451
 5964               	.L452:
 5965               	/* epilogue start */
 5966               	.LM820:
 5967 25d8 C058      		subi r28,lo8(-(128))
 5968 25da DF4F      		sbci r29,hi8(-(128))
 5969 25dc 0FB6      		in __tmp_reg__,__SREG__
 5970 25de F894      		cli
 5971 25e0 DEBF      		out __SP_H__,r29
 5972 25e2 0FBE      		out __SREG__,__tmp_reg__
 5973 25e4 CDBF      		out __SP_L__,r28
 5974 25e6 CF91      		pop r28
 5975 25e8 DF91      		pop r29
 5976 25ea 1F91      		pop r17
 5977               	.LVL296:
 5978 25ec 0F91      		pop r16
 5979 25ee FF90      		pop r15
 5980 25f0 EF90      		pop r14
 5981 25f2 DF90      		pop r13
 5982 25f4 CF90      		pop r12
 5983               	.LVL297:
 5984 25f6 BF90      		pop r11
 5985 25f8 AF90      		pop r10
 5986 25fa 9F90      		pop r9
 5987 25fc 8F90      		pop r8
 5988 25fe 7F90      		pop r7
 5989 2600 6F90      		pop r6
 5990 2602 5F90      		pop r5
 5991               	.LVL298:
 5992 2604 4F90      		pop r4
 5993 2606 3F90      		pop r3
 5994 2608 2F90      		pop r2
 5995 260a 0895      		ret
 5996               	.LFE24:
 5998               	.global	pattern_wirecubediag
 6000               	pattern_wirecubediag:
 6001               	.LFB22:
 6002               	.LM821:
 6003 260c AF92      		push r10
 6004 260e BF92      		push r11
 6005 2610 CF92      		push r12
 6006 2612 EF92      		push r14
 6007 2614 FF92      		push r15
 6008 2616 0F93      		push r16
 6009 2618 1F93      		push r17
 6010 261a DF93      		push r29
 6011 261c CF93      		push r28
 6012 261e CDB7      		in r28,__SP_L__
 6013 2620 DEB7      		in r29,__SP_H__
 6014 2622 6097      		sbiw r28,16
 6015 2624 0FB6      		in __tmp_reg__,__SREG__
 6016 2626 F894      		cli
 6017 2628 DEBF      		out __SP_H__,r29
 6018 262a 0FBE      		out __SREG__,__tmp_reg__
 6019 262c CDBF      		out __SP_L__,r28
 6020               	/* prologue: function */
 6021               	/* frame size = 16 */
 6022               	.LM822:
 6023 262e 1092 0000 		sts fallout,__zero_reg__
 6024               	.LM823:
 6025 2632 8091 0000 		lds r24,duration
 6026 2636 9091 0000 		lds r25,(duration)+1
 6027 263a 9093 0000 		sts (time)+1,r25
 6028 263e 8093 0000 		sts time,r24
 6029               	.LM824:
 6030 2642 84E6      		ldi r24,lo8(100)
 6031 2644 90E0      		ldi r25,hi8(100)
 6032 2646 0E94 0000 		call led_framerate
 6033               	.LM825:
 6034 264a 80E0      		ldi r24,lo8(0)
 6035 264c 0E94 0000 		call led_plane_intensity_all
 6036               	.LM826:
 6037 2650 0E94 0000 		call led_blank
 6038               	.LM827:
 6039 2654 80E0      		ldi r24,lo8(0)
 6040 2656 90E0      		ldi r25,hi8(0)
 6041 2658 60E0      		ldi r22,lo8(0)
 6042 265a 70E0      		ldi r23,hi8(0)
 6043 265c 40E0      		ldi r20,lo8(0)
 6044 265e 50E0      		ldi r21,hi8(0)
 6045 2660 27E0      		ldi r18,lo8(7)
 6046 2662 30E0      		ldi r19,hi8(7)
 6047 2664 00E0      		ldi r16,lo8(0)
 6048 2666 10E0      		ldi r17,hi8(0)
 6049 2668 EE24      		clr r14
 6050 266a FF24      		clr r15
 6051 266c CC24      		clr r12
 6052 266e C394      		inc r12
 6053 2670 0E94 0000 		call led_line
 6054               	.LM828:
 6055 2674 80E0      		ldi r24,lo8(0)
 6056 2676 90E0      		ldi r25,hi8(0)
 6057 2678 60E0      		ldi r22,lo8(0)
 6058 267a 70E0      		ldi r23,hi8(0)
 6059 267c 47E0      		ldi r20,lo8(7)
 6060 267e 50E0      		ldi r21,hi8(7)
 6061 2680 27E0      		ldi r18,lo8(7)
 6062 2682 30E0      		ldi r19,hi8(7)
 6063 2684 A7E0      		ldi r26,lo8(7)
 6064 2686 EA2E      		mov r14,r26
 6065 2688 F12C      		mov r15,__zero_reg__
 6066 268a 0E94 0000 		call led_line
 6067               	.LM829:
 6068 268e 80E0      		ldi r24,lo8(0)
 6069 2690 90E0      		ldi r25,hi8(0)
 6070 2692 67E0      		ldi r22,lo8(7)
 6071 2694 70E0      		ldi r23,hi8(7)
 6072 2696 40E0      		ldi r20,lo8(0)
 6073 2698 50E0      		ldi r21,hi8(0)
 6074 269a 27E0      		ldi r18,lo8(7)
 6075 269c 30E0      		ldi r19,hi8(7)
 6076 269e 07E0      		ldi r16,lo8(7)
 6077 26a0 10E0      		ldi r17,hi8(7)
 6078 26a2 EE24      		clr r14
 6079 26a4 FF24      		clr r15
 6080 26a6 0E94 0000 		call led_line
 6081               	.LM830:
 6082 26aa 80E0      		ldi r24,lo8(0)
 6083 26ac 90E0      		ldi r25,hi8(0)
 6084 26ae 67E0      		ldi r22,lo8(7)
 6085 26b0 70E0      		ldi r23,hi8(7)
 6086 26b2 47E0      		ldi r20,lo8(7)
 6087 26b4 50E0      		ldi r21,hi8(7)
 6088 26b6 27E0      		ldi r18,lo8(7)
 6089 26b8 30E0      		ldi r19,hi8(7)
 6090 26ba F7E0      		ldi r31,lo8(7)
 6091 26bc EF2E      		mov r14,r31
 6092 26be F12C      		mov r15,__zero_reg__
 6093 26c0 0E94 0000 		call led_line
 6094               	.LM831:
 6095 26c4 80E0      		ldi r24,lo8(0)
 6096 26c6 90E0      		ldi r25,hi8(0)
 6097 26c8 60E0      		ldi r22,lo8(0)
 6098 26ca 70E0      		ldi r23,hi8(0)
 6099 26cc 40E0      		ldi r20,lo8(0)
 6100 26ce 50E0      		ldi r21,hi8(0)
 6101 26d0 20E0      		ldi r18,lo8(0)
 6102 26d2 30E0      		ldi r19,hi8(0)
 6103 26d4 EE24      		clr r14
 6104 26d6 FF24      		clr r15
 6105 26d8 0E94 0000 		call led_line
 6106               	.LM832:
 6107 26dc 87E0      		ldi r24,lo8(7)
 6108 26de 90E0      		ldi r25,hi8(7)
 6109 26e0 60E0      		ldi r22,lo8(0)
 6110 26e2 70E0      		ldi r23,hi8(0)
 6111 26e4 40E0      		ldi r20,lo8(0)
 6112 26e6 50E0      		ldi r21,hi8(0)
 6113 26e8 27E0      		ldi r18,lo8(7)
 6114 26ea 30E0      		ldi r19,hi8(7)
 6115 26ec 0E94 0000 		call led_line
 6116               	.LM833:
 6117 26f0 80E0      		ldi r24,lo8(0)
 6118 26f2 90E0      		ldi r25,hi8(0)
 6119 26f4 60E0      		ldi r22,lo8(0)
 6120 26f6 70E0      		ldi r23,hi8(0)
 6121 26f8 47E0      		ldi r20,lo8(7)
 6122 26fa 50E0      		ldi r21,hi8(7)
 6123 26fc 20E0      		ldi r18,lo8(0)
 6124 26fe 30E0      		ldi r19,hi8(0)
 6125 2700 E7E0      		ldi r30,lo8(7)
 6126 2702 EE2E      		mov r14,r30
 6127 2704 F12C      		mov r15,__zero_reg__
 6128 2706 0E94 0000 		call led_line
 6129               	.LM834:
 6130 270a 87E0      		ldi r24,lo8(7)
 6131 270c 90E0      		ldi r25,hi8(7)
 6132 270e 60E0      		ldi r22,lo8(0)
 6133 2710 70E0      		ldi r23,hi8(0)
 6134 2712 47E0      		ldi r20,lo8(7)
 6135 2714 50E0      		ldi r21,hi8(7)
 6136 2716 27E0      		ldi r18,lo8(7)
 6137 2718 30E0      		ldi r19,hi8(7)
 6138 271a 0E94 0000 		call led_line
 6139               	.LM835:
 6140 271e 80E0      		ldi r24,lo8(0)
 6141 2720 90E0      		ldi r25,hi8(0)
 6142 2722 60E0      		ldi r22,lo8(0)
 6143 2724 70E0      		ldi r23,hi8(0)
 6144 2726 40E0      		ldi r20,lo8(0)
 6145 2728 50E0      		ldi r21,hi8(0)
 6146 272a 20E0      		ldi r18,lo8(0)
 6147 272c 30E0      		ldi r19,hi8(0)
 6148 272e 00E0      		ldi r16,lo8(0)
 6149 2730 10E0      		ldi r17,hi8(0)
 6150 2732 0E94 0000 		call led_line
 6151               	.LM836:
 6152 2736 87E0      		ldi r24,lo8(7)
 6153 2738 90E0      		ldi r25,hi8(7)
 6154 273a 60E0      		ldi r22,lo8(0)
 6155 273c 70E0      		ldi r23,hi8(0)
 6156 273e 40E0      		ldi r20,lo8(0)
 6157 2740 50E0      		ldi r21,hi8(0)
 6158 2742 27E0      		ldi r18,lo8(7)
 6159 2744 30E0      		ldi r19,hi8(7)
 6160 2746 0E94 0000 		call led_line
 6161               	.LM837:
 6162 274a 80E0      		ldi r24,lo8(0)
 6163 274c 90E0      		ldi r25,hi8(0)
 6164 274e 67E0      		ldi r22,lo8(7)
 6165 2750 70E0      		ldi r23,hi8(7)
 6166 2752 40E0      		ldi r20,lo8(0)
 6167 2754 50E0      		ldi r21,hi8(0)
 6168 2756 20E0      		ldi r18,lo8(0)
 6169 2758 30E0      		ldi r19,hi8(0)
 6170 275a 07E0      		ldi r16,lo8(7)
 6171 275c 10E0      		ldi r17,hi8(7)
 6172 275e 0E94 0000 		call led_line
 6173               	.LM838:
 6174 2762 87E0      		ldi r24,lo8(7)
 6175 2764 90E0      		ldi r25,hi8(7)
 6176 2766 67E0      		ldi r22,lo8(7)
 6177 2768 70E0      		ldi r23,hi8(7)
 6178 276a 40E0      		ldi r20,lo8(0)
 6179 276c 50E0      		ldi r21,hi8(0)
 6180 276e 27E0      		ldi r18,lo8(7)
 6181 2770 30E0      		ldi r19,hi8(7)
 6182 2772 0E94 0000 		call led_line
 6183               	.LM839:
 6184 2776 80E0      		ldi r24,lo8(0)
 6185 2778 90E0      		ldi r25,hi8(0)
 6186 277a 60E0      		ldi r22,lo8(0)
 6187 277c 70E0      		ldi r23,hi8(0)
 6188 277e 40E0      		ldi r20,lo8(0)
 6189 2780 50E0      		ldi r21,hi8(0)
 6190 2782 27E0      		ldi r18,lo8(7)
 6191 2784 30E0      		ldi r19,hi8(7)
 6192 2786 0E94 0000 		call led_line
 6193               	.LM840:
 6194 278a 87E0      		ldi r24,lo8(7)
 6195 278c 90E0      		ldi r25,hi8(7)
 6196 278e 60E0      		ldi r22,lo8(0)
 6197 2790 70E0      		ldi r23,hi8(0)
 6198 2792 40E0      		ldi r20,lo8(0)
 6199 2794 50E0      		ldi r21,hi8(0)
 6200 2796 20E0      		ldi r18,lo8(0)
 6201 2798 30E0      		ldi r19,hi8(0)
 6202 279a 0E94 0000 		call led_line
 6203               	.LM841:
 6204 279e 80E0      		ldi r24,lo8(0)
 6205 27a0 90E0      		ldi r25,hi8(0)
 6206 27a2 60E0      		ldi r22,lo8(0)
 6207 27a4 70E0      		ldi r23,hi8(0)
 6208 27a6 47E0      		ldi r20,lo8(7)
 6209 27a8 50E0      		ldi r21,hi8(7)
 6210 27aa 27E0      		ldi r18,lo8(7)
 6211 27ac 30E0      		ldi r19,hi8(7)
 6212 27ae EE24      		clr r14
 6213 27b0 FF24      		clr r15
 6214 27b2 0E94 0000 		call led_line
 6215               	.LM842:
 6216 27b6 87E0      		ldi r24,lo8(7)
 6217 27b8 90E0      		ldi r25,hi8(7)
 6218 27ba 60E0      		ldi r22,lo8(0)
 6219 27bc 70E0      		ldi r23,hi8(0)
 6220 27be 47E0      		ldi r20,lo8(7)
 6221 27c0 50E0      		ldi r21,hi8(7)
 6222 27c2 20E0      		ldi r18,lo8(0)
 6223 27c4 30E0      		ldi r19,hi8(0)
 6224 27c6 0E94 0000 		call led_line
 6225               	.LM843:
 6226 27ca 188A      		std Y+16,__zero_reg__
 6227 27cc 1F86      		std Y+15,__zero_reg__
 6228               	.LM844:
 6229 27ce 81EE      		ldi r24,lo8(-31)
 6230 27d0 9FEF      		ldi r25,hi8(-31)
 6231 27d2 9E87      		std Y+14,r25
 6232 27d4 8D87      		std Y+13,r24
 6233               	.LM845:
 6234 27d6 81EC      		ldi r24,lo8(-63)
 6235 27d8 9FEF      		ldi r25,hi8(-63)
 6236 27da 9C87      		std Y+12,r25
 6237 27dc 8B87      		std Y+11,r24
 6238               	.LM846:
 6239 27de 81EA      		ldi r24,lo8(-95)
 6240 27e0 9FEF      		ldi r25,hi8(-95)
 6241 27e2 9A87      		std Y+10,r25
 6242 27e4 8987      		std Y+9,r24
 6243               	.LM847:
 6244 27e6 81E8      		ldi r24,lo8(-127)
 6245 27e8 9FEF      		ldi r25,hi8(-127)
 6246 27ea 9887      		std Y+8,r25
 6247 27ec 8F83      		std Y+7,r24
 6248               	.LM848:
 6249 27ee 81E6      		ldi r24,lo8(-159)
 6250 27f0 9FEF      		ldi r25,hi8(-159)
 6251 27f2 9E83      		std Y+6,r25
 6252 27f4 8D83      		std Y+5,r24
 6253               	.LM849:
 6254 27f6 81E4      		ldi r24,lo8(-191)
 6255 27f8 9FEF      		ldi r25,hi8(-191)
 6256 27fa 9C83      		std Y+4,r25
 6257 27fc 8B83      		std Y+3,r24
 6258               	.LM850:
 6259 27fe 81E2      		ldi r24,lo8(-223)
 6260 2800 9FEF      		ldi r25,hi8(-223)
 6261 2802 9A83      		std Y+2,r25
 6262 2804 8983      		std Y+1,r24
 6263               	.LM851:
 6264 2806 5E01      		movw r10,r28
 6265 2808 0894      		sec
 6266 280a A11C      		adc r10,__zero_reg__
 6267 280c B11C      		adc r11,__zero_reg__
 6268 280e 00C0      		rjmp .L460
 6269               	.L461:
 6270               	.LM852:
 6271 2810 F701      		movw r30,r14
 6272 2812 0081      		ld r16,Z
 6273 2814 1181      		ldd r17,Z+1
 6274 2816 C801      		movw r24,r16
 6275 2818 60E0      		ldi r22,lo8(0)
 6276 281a 70E0      		ldi r23,hi8(0)
 6277 281c 4FEF      		ldi r20,lo8(255)
 6278 281e 50E0      		ldi r21,hi8(255)
 6279 2820 0E94 0000 		call clip_int
 6280 2824 682F      		mov r22,r24
 6281 2826 8C2D      		mov r24,r12
 6282 2828 0E94 0000 		call led_plane_intensity
 6283               	.LM853:
 6284 282c 0F5F      		subi r16,lo8(-(1))
 6285 282e 1F4F      		sbci r17,hi8(-(1))
 6286 2830 F701      		movw r30,r14
 6287 2832 0193      		st Z+,r16
 6288 2834 1193      		st Z+,r17
 6289 2836 7F01      		movw r14,r30
 6290 2838 C394      		inc r12
 6291               	.LM854:
 6292 283a F8E0      		ldi r31,lo8(8)
 6293 283c CF16      		cp r12,r31
 6294 283e 01F4      		brne .L461
 6295               	.LM855:
 6296 2840 81E0      		ldi r24,lo8(1)
 6297 2842 90E0      		ldi r25,hi8(1)
 6298 2844 0E94 0000 		call led_waitframe
 6299               	.L460:
 6300               	.LM856:
 6301 2848 8981      		ldd r24,Y+1
 6302 284a 9A81      		ldd r25,Y+2
 6303 284c 8F3F      		cpi r24,255
 6304 284e 9105      		cpc r25,__zero_reg__
 6305 2850 01F0      		breq .L471
 6306 2852 8091 0000 		lds r24,fallout
 6307 2856 8823      		tst r24
 6308 2858 01F4      		brne .L471
 6309 285a 7501      		movw r14,r10
 6310 285c CC24      		clr r12
 6311 285e 00C0      		rjmp .L461
 6312               	.L464:
 6313               	.LM857:
 6314 2860 81E0      		ldi r24,lo8(1)
 6315 2862 90E0      		ldi r25,hi8(1)
 6316 2864 0E94 0000 		call led_waitframe
 6317               	.L471:
 6318               	.LM858:
 6319 2868 8091 0000 		lds r24,fallout
 6320 286c 8823      		tst r24
 6321 286e 01F4      		brne .L463
 6322 2870 8091 0000 		lds r24,duration
 6323 2874 9091 0000 		lds r25,(duration)+1
 6324 2878 892B      		or r24,r25
 6325 287a 01F0      		breq .L464
 6326 287c 8091 0000 		lds r24,time
 6327 2880 9091 0000 		lds r25,(time)+1
 6328 2884 892B      		or r24,r25
 6329 2886 01F4      		brne .L464
 6330               	.L463:
 6331               	.LM859:
 6332 2888 80E0      		ldi r24,lo8(256)
 6333 288a 91E0      		ldi r25,hi8(256)
 6334 288c 988B      		std Y+16,r25
 6335 288e 8F87      		std Y+15,r24
 6336               	.LM860:
 6337 2890 80E2      		ldi r24,lo8(288)
 6338 2892 91E0      		ldi r25,hi8(288)
 6339 2894 9E87      		std Y+14,r25
 6340 2896 8D87      		std Y+13,r24
 6341               	.LM861:
 6342 2898 80E4      		ldi r24,lo8(320)
 6343 289a 91E0      		ldi r25,hi8(320)
 6344 289c 9C87      		std Y+12,r25
 6345 289e 8B87      		std Y+11,r24
 6346               	.LM862:
 6347 28a0 80E6      		ldi r24,lo8(352)
 6348 28a2 91E0      		ldi r25,hi8(352)
 6349 28a4 9A87      		std Y+10,r25
 6350 28a6 8987      		std Y+9,r24
 6351               	.LM863:
 6352 28a8 80E8      		ldi r24,lo8(384)
 6353 28aa 91E0      		ldi r25,hi8(384)
 6354 28ac 9887      		std Y+8,r25
 6355 28ae 8F83      		std Y+7,r24
 6356               	.LM864:
 6357 28b0 80EA      		ldi r24,lo8(416)
 6358 28b2 91E0      		ldi r25,hi8(416)
 6359 28b4 9E83      		std Y+6,r25
 6360 28b6 8D83      		std Y+5,r24
 6361               	.LM865:
 6362 28b8 80EC      		ldi r24,lo8(448)
 6363 28ba 91E0      		ldi r25,hi8(448)
 6364 28bc 9C83      		std Y+4,r25
 6365 28be 8B83      		std Y+3,r24
 6366               	.LM866:
 6367 28c0 80EE      		ldi r24,lo8(480)
 6368 28c2 91E0      		ldi r25,hi8(480)
 6369 28c4 9A83      		std Y+2,r25
 6370 28c6 8983      		std Y+1,r24
 6371               	.LM867:
 6372 28c8 5E01      		movw r10,r28
 6373 28ca 0894      		sec
 6374 28cc A11C      		adc r10,__zero_reg__
 6375 28ce B11C      		adc r11,__zero_reg__
 6376 28d0 00C0      		rjmp .L465
 6377               	.L466:
 6378               	.LM868:
 6379 28d2 F701      		movw r30,r14
 6380 28d4 0081      		ld r16,Z
 6381 28d6 1181      		ldd r17,Z+1
 6382 28d8 C801      		movw r24,r16
 6383 28da 60E0      		ldi r22,lo8(0)
 6384 28dc 70E0      		ldi r23,hi8(0)
 6385 28de 4FEF      		ldi r20,lo8(255)
 6386 28e0 50E0      		ldi r21,hi8(255)
 6387 28e2 0E94 0000 		call clip_int
 6388 28e6 682F      		mov r22,r24
 6389 28e8 8C2D      		mov r24,r12
 6390 28ea 0E94 0000 		call led_plane_intensity
 6391               	.LM869:
 6392 28ee 0150      		subi r16,lo8(-(-1))
 6393 28f0 1040      		sbci r17,hi8(-(-1))
 6394 28f2 F701      		movw r30,r14
 6395 28f4 0193      		st Z+,r16
 6396 28f6 1193      		st Z+,r17
 6397 28f8 7F01      		movw r14,r30
 6398 28fa C394      		inc r12
 6399               	.LM870:
 6400 28fc F8E0      		ldi r31,lo8(8)
 6401 28fe CF16      		cp r12,r31
 6402 2900 01F4      		brne .L466
 6403               	.LM871:
 6404 2902 81E0      		ldi r24,lo8(1)
 6405 2904 90E0      		ldi r25,hi8(1)
 6406 2906 0E94 0000 		call led_waitframe
 6407               	.L465:
 6408               	.LM872:
 6409 290a 8981      		ldd r24,Y+1
 6410 290c 9A81      		ldd r25,Y+2
 6411 290e 1816      		cp __zero_reg__,r24
 6412 2910 1906      		cpc __zero_reg__,r25
 6413 2912 04F4      		brge .L468
 6414 2914 8091 0000 		lds r24,fallout
 6415 2918 8823      		tst r24
 6416 291a 01F4      		brne .L468
 6417 291c 7501      		movw r14,r10
 6418 291e CC24      		clr r12
 6419 2920 00C0      		rjmp .L466
 6420               	.L468:
 6421               	/* epilogue start */
 6422               	.LM873:
 6423 2922 6096      		adiw r28,16
 6424 2924 0FB6      		in __tmp_reg__,__SREG__
 6425 2926 F894      		cli
 6426 2928 DEBF      		out __SP_H__,r29
 6427 292a 0FBE      		out __SREG__,__tmp_reg__
 6428 292c CDBF      		out __SP_L__,r28
 6429 292e CF91      		pop r28
 6430 2930 DF91      		pop r29
 6431 2932 1F91      		pop r17
 6432 2934 0F91      		pop r16
 6433 2936 FF90      		pop r15
 6434 2938 EF90      		pop r14
 6435 293a CF90      		pop r12
 6436 293c BF90      		pop r11
 6437 293e AF90      		pop r10
 6438 2940 0895      		ret
 6439               	.LFE22:
 6441               	.global	pattern_wirecube
 6443               	pattern_wirecube:
 6444               	.LFB21:
 6445               	.LM874:
 6446 2942 AF92      		push r10
 6447 2944 BF92      		push r11
 6448 2946 CF92      		push r12
 6449 2948 EF92      		push r14
 6450 294a FF92      		push r15
 6451 294c 0F93      		push r16
 6452 294e 1F93      		push r17
 6453 2950 DF93      		push r29
 6454 2952 CF93      		push r28
 6455 2954 CDB7      		in r28,__SP_L__
 6456 2956 DEB7      		in r29,__SP_H__
 6457 2958 6097      		sbiw r28,16
 6458 295a 0FB6      		in __tmp_reg__,__SREG__
 6459 295c F894      		cli
 6460 295e DEBF      		out __SP_H__,r29
 6461 2960 0FBE      		out __SREG__,__tmp_reg__
 6462 2962 CDBF      		out __SP_L__,r28
 6463               	/* prologue: function */
 6464               	/* frame size = 16 */
 6465               	.LM875:
 6466 2964 1092 0000 		sts fallout,__zero_reg__
 6467               	.LM876:
 6468 2968 8091 0000 		lds r24,duration
 6469 296c 9091 0000 		lds r25,(duration)+1
 6470 2970 9093 0000 		sts (time)+1,r25
 6471 2974 8093 0000 		sts time,r24
 6472               	.LM877:
 6473 2978 84E6      		ldi r24,lo8(100)
 6474 297a 90E0      		ldi r25,hi8(100)
 6475 297c 0E94 0000 		call led_framerate
 6476               	.LM878:
 6477 2980 80E0      		ldi r24,lo8(0)
 6478 2982 0E94 0000 		call led_plane_intensity_all
 6479               	.LM879:
 6480 2986 0E94 0000 		call led_blank
 6481               	.LM880:
 6482 298a 80E0      		ldi r24,lo8(0)
 6483 298c 90E0      		ldi r25,hi8(0)
 6484 298e 60E0      		ldi r22,lo8(0)
 6485 2990 70E0      		ldi r23,hi8(0)
 6486 2992 40E0      		ldi r20,lo8(0)
 6487 2994 50E0      		ldi r21,hi8(0)
 6488 2996 27E0      		ldi r18,lo8(7)
 6489 2998 30E0      		ldi r19,hi8(7)
 6490 299a 00E0      		ldi r16,lo8(0)
 6491 299c 10E0      		ldi r17,hi8(0)
 6492 299e EE24      		clr r14
 6493 29a0 FF24      		clr r15
 6494 29a2 CC24      		clr r12
 6495 29a4 C394      		inc r12
 6496 29a6 0E94 0000 		call led_line
 6497               	.LM881:
 6498 29aa 80E0      		ldi r24,lo8(0)
 6499 29ac 90E0      		ldi r25,hi8(0)
 6500 29ae 60E0      		ldi r22,lo8(0)
 6501 29b0 70E0      		ldi r23,hi8(0)
 6502 29b2 47E0      		ldi r20,lo8(7)
 6503 29b4 50E0      		ldi r21,hi8(7)
 6504 29b6 27E0      		ldi r18,lo8(7)
 6505 29b8 30E0      		ldi r19,hi8(7)
 6506 29ba F7E0      		ldi r31,lo8(7)
 6507 29bc EF2E      		mov r14,r31
 6508 29be F12C      		mov r15,__zero_reg__
 6509 29c0 0E94 0000 		call led_line
 6510               	.LM882:
 6511 29c4 80E0      		ldi r24,lo8(0)
 6512 29c6 90E0      		ldi r25,hi8(0)
 6513 29c8 67E0      		ldi r22,lo8(7)
 6514 29ca 70E0      		ldi r23,hi8(7)
 6515 29cc 40E0      		ldi r20,lo8(0)
 6516 29ce 50E0      		ldi r21,hi8(0)
 6517 29d0 27E0      		ldi r18,lo8(7)
 6518 29d2 30E0      		ldi r19,hi8(7)
 6519 29d4 07E0      		ldi r16,lo8(7)
 6520 29d6 10E0      		ldi r17,hi8(7)
 6521 29d8 EE24      		clr r14
 6522 29da FF24      		clr r15
 6523 29dc 0E94 0000 		call led_line
 6524               	.LM883:
 6525 29e0 80E0      		ldi r24,lo8(0)
 6526 29e2 90E0      		ldi r25,hi8(0)
 6527 29e4 67E0      		ldi r22,lo8(7)
 6528 29e6 70E0      		ldi r23,hi8(7)
 6529 29e8 47E0      		ldi r20,lo8(7)
 6530 29ea 50E0      		ldi r21,hi8(7)
 6531 29ec 27E0      		ldi r18,lo8(7)
 6532 29ee 30E0      		ldi r19,hi8(7)
 6533 29f0 E7E0      		ldi r30,lo8(7)
 6534 29f2 EE2E      		mov r14,r30
 6535 29f4 F12C      		mov r15,__zero_reg__
 6536 29f6 0E94 0000 		call led_line
 6537               	.LM884:
 6538 29fa 80E0      		ldi r24,lo8(0)
 6539 29fc 90E0      		ldi r25,hi8(0)
 6540 29fe 60E0      		ldi r22,lo8(0)
 6541 2a00 70E0      		ldi r23,hi8(0)
 6542 2a02 40E0      		ldi r20,lo8(0)
 6543 2a04 50E0      		ldi r21,hi8(0)
 6544 2a06 20E0      		ldi r18,lo8(0)
 6545 2a08 30E0      		ldi r19,hi8(0)
 6546 2a0a EE24      		clr r14
 6547 2a0c FF24      		clr r15
 6548 2a0e 0E94 0000 		call led_line
 6549               	.LM885:
 6550 2a12 87E0      		ldi r24,lo8(7)
 6551 2a14 90E0      		ldi r25,hi8(7)
 6552 2a16 60E0      		ldi r22,lo8(0)
 6553 2a18 70E0      		ldi r23,hi8(0)
 6554 2a1a 40E0      		ldi r20,lo8(0)
 6555 2a1c 50E0      		ldi r21,hi8(0)
 6556 2a1e 27E0      		ldi r18,lo8(7)
 6557 2a20 30E0      		ldi r19,hi8(7)
 6558 2a22 0E94 0000 		call led_line
 6559               	.LM886:
 6560 2a26 80E0      		ldi r24,lo8(0)
 6561 2a28 90E0      		ldi r25,hi8(0)
 6562 2a2a 60E0      		ldi r22,lo8(0)
 6563 2a2c 70E0      		ldi r23,hi8(0)
 6564 2a2e 47E0      		ldi r20,lo8(7)
 6565 2a30 50E0      		ldi r21,hi8(7)
 6566 2a32 20E0      		ldi r18,lo8(0)
 6567 2a34 30E0      		ldi r19,hi8(0)
 6568 2a36 B7E0      		ldi r27,lo8(7)
 6569 2a38 EB2E      		mov r14,r27
 6570 2a3a F12C      		mov r15,__zero_reg__
 6571 2a3c 0E94 0000 		call led_line
 6572               	.LM887:
 6573 2a40 87E0      		ldi r24,lo8(7)
 6574 2a42 90E0      		ldi r25,hi8(7)
 6575 2a44 60E0      		ldi r22,lo8(0)
 6576 2a46 70E0      		ldi r23,hi8(0)
 6577 2a48 47E0      		ldi r20,lo8(7)
 6578 2a4a 50E0      		ldi r21,hi8(7)
 6579 2a4c 27E0      		ldi r18,lo8(7)
 6580 2a4e 30E0      		ldi r19,hi8(7)
 6581 2a50 0E94 0000 		call led_line
 6582               	.LM888:
 6583 2a54 80E0      		ldi r24,lo8(0)
 6584 2a56 90E0      		ldi r25,hi8(0)
 6585 2a58 60E0      		ldi r22,lo8(0)
 6586 2a5a 70E0      		ldi r23,hi8(0)
 6587 2a5c 40E0      		ldi r20,lo8(0)
 6588 2a5e 50E0      		ldi r21,hi8(0)
 6589 2a60 20E0      		ldi r18,lo8(0)
 6590 2a62 30E0      		ldi r19,hi8(0)
 6591 2a64 00E0      		ldi r16,lo8(0)
 6592 2a66 10E0      		ldi r17,hi8(0)
 6593 2a68 0E94 0000 		call led_line
 6594               	.LM889:
 6595 2a6c 87E0      		ldi r24,lo8(7)
 6596 2a6e 90E0      		ldi r25,hi8(7)
 6597 2a70 60E0      		ldi r22,lo8(0)
 6598 2a72 70E0      		ldi r23,hi8(0)
 6599 2a74 40E0      		ldi r20,lo8(0)
 6600 2a76 50E0      		ldi r21,hi8(0)
 6601 2a78 27E0      		ldi r18,lo8(7)
 6602 2a7a 30E0      		ldi r19,hi8(7)
 6603 2a7c 0E94 0000 		call led_line
 6604               	.LM890:
 6605 2a80 80E0      		ldi r24,lo8(0)
 6606 2a82 90E0      		ldi r25,hi8(0)
 6607 2a84 67E0      		ldi r22,lo8(7)
 6608 2a86 70E0      		ldi r23,hi8(7)
 6609 2a88 40E0      		ldi r20,lo8(0)
 6610 2a8a 50E0      		ldi r21,hi8(0)
 6611 2a8c 20E0      		ldi r18,lo8(0)
 6612 2a8e 30E0      		ldi r19,hi8(0)
 6613 2a90 07E0      		ldi r16,lo8(7)
 6614 2a92 10E0      		ldi r17,hi8(7)
 6615 2a94 0E94 0000 		call led_line
 6616               	.LM891:
 6617 2a98 87E0      		ldi r24,lo8(7)
 6618 2a9a 90E0      		ldi r25,hi8(7)
 6619 2a9c 67E0      		ldi r22,lo8(7)
 6620 2a9e 70E0      		ldi r23,hi8(7)
 6621 2aa0 40E0      		ldi r20,lo8(0)
 6622 2aa2 50E0      		ldi r21,hi8(0)
 6623 2aa4 27E0      		ldi r18,lo8(7)
 6624 2aa6 30E0      		ldi r19,hi8(7)
 6625 2aa8 0E94 0000 		call led_line
 6626               	.LM892:
 6627 2aac 188A      		std Y+16,__zero_reg__
 6628 2aae 1F86      		std Y+15,__zero_reg__
 6629               	.LM893:
 6630 2ab0 81EE      		ldi r24,lo8(-31)
 6631 2ab2 9FEF      		ldi r25,hi8(-31)
 6632 2ab4 9E87      		std Y+14,r25
 6633 2ab6 8D87      		std Y+13,r24
 6634               	.LM894:
 6635 2ab8 81EC      		ldi r24,lo8(-63)
 6636 2aba 9FEF      		ldi r25,hi8(-63)
 6637 2abc 9C87      		std Y+12,r25
 6638 2abe 8B87      		std Y+11,r24
 6639               	.LM895:
 6640 2ac0 81EA      		ldi r24,lo8(-95)
 6641 2ac2 9FEF      		ldi r25,hi8(-95)
 6642 2ac4 9A87      		std Y+10,r25
 6643 2ac6 8987      		std Y+9,r24
 6644               	.LM896:
 6645 2ac8 81E8      		ldi r24,lo8(-127)
 6646 2aca 9FEF      		ldi r25,hi8(-127)
 6647 2acc 9887      		std Y+8,r25
 6648 2ace 8F83      		std Y+7,r24
 6649               	.LM897:
 6650 2ad0 81E6      		ldi r24,lo8(-159)
 6651 2ad2 9FEF      		ldi r25,hi8(-159)
 6652 2ad4 9E83      		std Y+6,r25
 6653 2ad6 8D83      		std Y+5,r24
 6654               	.LM898:
 6655 2ad8 81E4      		ldi r24,lo8(-191)
 6656 2ada 9FEF      		ldi r25,hi8(-191)
 6657 2adc 9C83      		std Y+4,r25
 6658 2ade 8B83      		std Y+3,r24
 6659               	.LM899:
 6660 2ae0 81E2      		ldi r24,lo8(-223)
 6661 2ae2 9FEF      		ldi r25,hi8(-223)
 6662 2ae4 9A83      		std Y+2,r25
 6663 2ae6 8983      		std Y+1,r24
 6664               	.LM900:
 6665 2ae8 5E01      		movw r10,r28
 6666 2aea 0894      		sec
 6667 2aec A11C      		adc r10,__zero_reg__
 6668 2aee B11C      		adc r11,__zero_reg__
 6669 2af0 00C0      		rjmp .L473
 6670               	.L474:
 6671               	.LM901:
 6672 2af2 F701      		movw r30,r14
 6673 2af4 0081      		ld r16,Z
 6674 2af6 1181      		ldd r17,Z+1
 6675 2af8 C801      		movw r24,r16
 6676 2afa 60E0      		ldi r22,lo8(0)
 6677 2afc 70E0      		ldi r23,hi8(0)
 6678 2afe 4FEF      		ldi r20,lo8(255)
 6679 2b00 50E0      		ldi r21,hi8(255)
 6680 2b02 0E94 0000 		call clip_int
 6681 2b06 682F      		mov r22,r24
 6682 2b08 8C2D      		mov r24,r12
 6683 2b0a 0E94 0000 		call led_plane_intensity
 6684               	.LM902:
 6685 2b0e 0F5F      		subi r16,lo8(-(1))
 6686 2b10 1F4F      		sbci r17,hi8(-(1))
 6687 2b12 F701      		movw r30,r14
 6688 2b14 0193      		st Z+,r16
 6689 2b16 1193      		st Z+,r17
 6690 2b18 7F01      		movw r14,r30
 6691 2b1a C394      		inc r12
 6692               	.LM903:
 6693 2b1c F8E0      		ldi r31,lo8(8)
 6694 2b1e CF16      		cp r12,r31
 6695 2b20 01F4      		brne .L474
 6696               	.LM904:
 6697 2b22 81E0      		ldi r24,lo8(1)
 6698 2b24 90E0      		ldi r25,hi8(1)
 6699 2b26 0E94 0000 		call led_waitframe
 6700               	.L473:
 6701               	.LM905:
 6702 2b2a 8981      		ldd r24,Y+1
 6703 2b2c 9A81      		ldd r25,Y+2
 6704 2b2e 8F3F      		cpi r24,255
 6705 2b30 9105      		cpc r25,__zero_reg__
 6706 2b32 01F0      		breq .L484
 6707 2b34 8091 0000 		lds r24,fallout
 6708 2b38 8823      		tst r24
 6709 2b3a 01F4      		brne .L484
 6710 2b3c 7501      		movw r14,r10
 6711 2b3e CC24      		clr r12
 6712 2b40 00C0      		rjmp .L474
 6713               	.L477:
 6714               	.LM906:
 6715 2b42 81E0      		ldi r24,lo8(1)
 6716 2b44 90E0      		ldi r25,hi8(1)
 6717 2b46 0E94 0000 		call led_waitframe
 6718               	.L484:
 6719               	.LM907:
 6720 2b4a 8091 0000 		lds r24,fallout
 6721 2b4e 8823      		tst r24
 6722 2b50 01F4      		brne .L476
 6723 2b52 8091 0000 		lds r24,duration
 6724 2b56 9091 0000 		lds r25,(duration)+1
 6725 2b5a 892B      		or r24,r25
 6726 2b5c 01F0      		breq .L477
 6727 2b5e 8091 0000 		lds r24,time
 6728 2b62 9091 0000 		lds r25,(time)+1
 6729 2b66 892B      		or r24,r25
 6730 2b68 01F4      		brne .L477
 6731               	.L476:
 6732               	.LM908:
 6733 2b6a 80E0      		ldi r24,lo8(256)
 6734 2b6c 91E0      		ldi r25,hi8(256)
 6735 2b6e 988B      		std Y+16,r25
 6736 2b70 8F87      		std Y+15,r24
 6737               	.LM909:
 6738 2b72 80E2      		ldi r24,lo8(288)
 6739 2b74 91E0      		ldi r25,hi8(288)
 6740 2b76 9E87      		std Y+14,r25
 6741 2b78 8D87      		std Y+13,r24
 6742               	.LM910:
 6743 2b7a 80E4      		ldi r24,lo8(320)
 6744 2b7c 91E0      		ldi r25,hi8(320)
 6745 2b7e 9C87      		std Y+12,r25
 6746 2b80 8B87      		std Y+11,r24
 6747               	.LM911:
 6748 2b82 80E6      		ldi r24,lo8(352)
 6749 2b84 91E0      		ldi r25,hi8(352)
 6750 2b86 9A87      		std Y+10,r25
 6751 2b88 8987      		std Y+9,r24
 6752               	.LM912:
 6753 2b8a 80E8      		ldi r24,lo8(384)
 6754 2b8c 91E0      		ldi r25,hi8(384)
 6755 2b8e 9887      		std Y+8,r25
 6756 2b90 8F83      		std Y+7,r24
 6757               	.LM913:
 6758 2b92 80EA      		ldi r24,lo8(416)
 6759 2b94 91E0      		ldi r25,hi8(416)
 6760 2b96 9E83      		std Y+6,r25
 6761 2b98 8D83      		std Y+5,r24
 6762               	.LM914:
 6763 2b9a 80EC      		ldi r24,lo8(448)
 6764 2b9c 91E0      		ldi r25,hi8(448)
 6765 2b9e 9C83      		std Y+4,r25
 6766 2ba0 8B83      		std Y+3,r24
 6767               	.LM915:
 6768 2ba2 80EE      		ldi r24,lo8(480)
 6769 2ba4 91E0      		ldi r25,hi8(480)
 6770 2ba6 9A83      		std Y+2,r25
 6771 2ba8 8983      		std Y+1,r24
 6772               	.LM916:
 6773 2baa 5E01      		movw r10,r28
 6774 2bac 0894      		sec
 6775 2bae A11C      		adc r10,__zero_reg__
 6776 2bb0 B11C      		adc r11,__zero_reg__
 6777 2bb2 00C0      		rjmp .L478
 6778               	.L479:
 6779               	.LM917:
 6780 2bb4 F701      		movw r30,r14
 6781 2bb6 0081      		ld r16,Z
 6782 2bb8 1181      		ldd r17,Z+1
 6783 2bba C801      		movw r24,r16
 6784 2bbc 60E0      		ldi r22,lo8(0)
 6785 2bbe 70E0      		ldi r23,hi8(0)
 6786 2bc0 4FEF      		ldi r20,lo8(255)
 6787 2bc2 50E0      		ldi r21,hi8(255)
 6788 2bc4 0E94 0000 		call clip_int
 6789 2bc8 682F      		mov r22,r24
 6790 2bca 8C2D      		mov r24,r12
 6791 2bcc 0E94 0000 		call led_plane_intensity
 6792               	.LM918:
 6793 2bd0 0150      		subi r16,lo8(-(-1))
 6794 2bd2 1040      		sbci r17,hi8(-(-1))
 6795 2bd4 F701      		movw r30,r14
 6796 2bd6 0193      		st Z+,r16
 6797 2bd8 1193      		st Z+,r17
 6798 2bda 7F01      		movw r14,r30
 6799 2bdc C394      		inc r12
 6800               	.LM919:
 6801 2bde F8E0      		ldi r31,lo8(8)
 6802 2be0 CF16      		cp r12,r31
 6803 2be2 01F4      		brne .L479
 6804               	.LM920:
 6805 2be4 81E0      		ldi r24,lo8(1)
 6806 2be6 90E0      		ldi r25,hi8(1)
 6807 2be8 0E94 0000 		call led_waitframe
 6808               	.L478:
 6809               	.LM921:
 6810 2bec 8981      		ldd r24,Y+1
 6811 2bee 9A81      		ldd r25,Y+2
 6812 2bf0 1816      		cp __zero_reg__,r24
 6813 2bf2 1906      		cpc __zero_reg__,r25
 6814 2bf4 04F4      		brge .L481
 6815 2bf6 8091 0000 		lds r24,fallout
 6816 2bfa 8823      		tst r24
 6817 2bfc 01F4      		brne .L481
 6818 2bfe 7501      		movw r14,r10
 6819 2c00 CC24      		clr r12
 6820 2c02 00C0      		rjmp .L479
 6821               	.L481:
 6822               	/* epilogue start */
 6823               	.LM922:
 6824 2c04 6096      		adiw r28,16
 6825 2c06 0FB6      		in __tmp_reg__,__SREG__
 6826 2c08 F894      		cli
 6827 2c0a DEBF      		out __SP_H__,r29
 6828 2c0c 0FBE      		out __SREG__,__tmp_reg__
 6829 2c0e CDBF      		out __SP_L__,r28
 6830 2c10 CF91      		pop r28
 6831 2c12 DF91      		pop r29
 6832 2c14 1F91      		pop r17
 6833 2c16 0F91      		pop r16
 6834 2c18 FF90      		pop r15
 6835 2c1a EF90      		pop r14
 6836 2c1c CF90      		pop r12
 6837 2c1e BF90      		pop r11
 6838 2c20 AF90      		pop r10
 6839 2c22 0895      		ret
 6840               	.LFE21:
 6842               	.global	pattern_tesseract
 6844               	pattern_tesseract:
 6845               	.LFB20:
 6846               	.LM923:
 6847 2c24 AF92      		push r10
 6848 2c26 BF92      		push r11
 6849 2c28 CF92      		push r12
 6850 2c2a EF92      		push r14
 6851 2c2c FF92      		push r15
 6852 2c2e 0F93      		push r16
 6853 2c30 1F93      		push r17
 6854 2c32 DF93      		push r29
 6855 2c34 CF93      		push r28
 6856 2c36 CDB7      		in r28,__SP_L__
 6857 2c38 DEB7      		in r29,__SP_H__
 6858 2c3a 6097      		sbiw r28,16
 6859 2c3c 0FB6      		in __tmp_reg__,__SREG__
 6860 2c3e F894      		cli
 6861 2c40 DEBF      		out __SP_H__,r29
 6862 2c42 0FBE      		out __SREG__,__tmp_reg__
 6863 2c44 CDBF      		out __SP_L__,r28
 6864               	/* prologue: function */
 6865               	/* frame size = 16 */
 6866               	.LM924:
 6867 2c46 1092 0000 		sts fallout,__zero_reg__
 6868               	.LM925:
 6869 2c4a 8091 0000 		lds r24,duration
 6870 2c4e 9091 0000 		lds r25,(duration)+1
 6871 2c52 9093 0000 		sts (time)+1,r25
 6872 2c56 8093 0000 		sts time,r24
 6873               	.LM926:
 6874 2c5a 84E6      		ldi r24,lo8(100)
 6875 2c5c 90E0      		ldi r25,hi8(100)
 6876 2c5e 0E94 0000 		call led_framerate
 6877               	.LM927:
 6878 2c62 80E0      		ldi r24,lo8(0)
 6879 2c64 0E94 0000 		call led_plane_intensity_all
 6880               	.LM928:
 6881 2c68 0E94 0000 		call led_blank
 6882               	.LM929:
 6883 2c6c 80E0      		ldi r24,lo8(0)
 6884 2c6e 90E0      		ldi r25,hi8(0)
 6885 2c70 60E0      		ldi r22,lo8(0)
 6886 2c72 70E0      		ldi r23,hi8(0)
 6887 2c74 40E0      		ldi r20,lo8(0)
 6888 2c76 50E0      		ldi r21,hi8(0)
 6889 2c78 27E0      		ldi r18,lo8(7)
 6890 2c7a 30E0      		ldi r19,hi8(7)
 6891 2c7c 00E0      		ldi r16,lo8(0)
 6892 2c7e 10E0      		ldi r17,hi8(0)
 6893 2c80 EE24      		clr r14
 6894 2c82 FF24      		clr r15
 6895 2c84 CC24      		clr r12
 6896 2c86 C394      		inc r12
 6897 2c88 0E94 0000 		call led_line
 6898               	.LM930:
 6899 2c8c 80E0      		ldi r24,lo8(0)
 6900 2c8e 90E0      		ldi r25,hi8(0)
 6901 2c90 60E0      		ldi r22,lo8(0)
 6902 2c92 70E0      		ldi r23,hi8(0)
 6903 2c94 47E0      		ldi r20,lo8(7)
 6904 2c96 50E0      		ldi r21,hi8(7)
 6905 2c98 27E0      		ldi r18,lo8(7)
 6906 2c9a 30E0      		ldi r19,hi8(7)
 6907 2c9c A7E0      		ldi r26,lo8(7)
 6908 2c9e EA2E      		mov r14,r26
 6909 2ca0 F12C      		mov r15,__zero_reg__
 6910 2ca2 0E94 0000 		call led_line
 6911               	.LM931:
 6912 2ca6 80E0      		ldi r24,lo8(0)
 6913 2ca8 90E0      		ldi r25,hi8(0)
 6914 2caa 67E0      		ldi r22,lo8(7)
 6915 2cac 70E0      		ldi r23,hi8(7)
 6916 2cae 40E0      		ldi r20,lo8(0)
 6917 2cb0 50E0      		ldi r21,hi8(0)
 6918 2cb2 27E0      		ldi r18,lo8(7)
 6919 2cb4 30E0      		ldi r19,hi8(7)
 6920 2cb6 07E0      		ldi r16,lo8(7)
 6921 2cb8 10E0      		ldi r17,hi8(7)
 6922 2cba EE24      		clr r14
 6923 2cbc FF24      		clr r15
 6924 2cbe 0E94 0000 		call led_line
 6925               	.LM932:
 6926 2cc2 80E0      		ldi r24,lo8(0)
 6927 2cc4 90E0      		ldi r25,hi8(0)
 6928 2cc6 67E0      		ldi r22,lo8(7)
 6929 2cc8 70E0      		ldi r23,hi8(7)
 6930 2cca 47E0      		ldi r20,lo8(7)
 6931 2ccc 50E0      		ldi r21,hi8(7)
 6932 2cce 27E0      		ldi r18,lo8(7)
 6933 2cd0 30E0      		ldi r19,hi8(7)
 6934 2cd2 F7E0      		ldi r31,lo8(7)
 6935 2cd4 EF2E      		mov r14,r31
 6936 2cd6 F12C      		mov r15,__zero_reg__
 6937 2cd8 0E94 0000 		call led_line
 6938               	.LM933:
 6939 2cdc 80E0      		ldi r24,lo8(0)
 6940 2cde 90E0      		ldi r25,hi8(0)
 6941 2ce0 60E0      		ldi r22,lo8(0)
 6942 2ce2 70E0      		ldi r23,hi8(0)
 6943 2ce4 40E0      		ldi r20,lo8(0)
 6944 2ce6 50E0      		ldi r21,hi8(0)
 6945 2ce8 20E0      		ldi r18,lo8(0)
 6946 2cea 30E0      		ldi r19,hi8(0)
 6947 2cec EE24      		clr r14
 6948 2cee FF24      		clr r15
 6949 2cf0 0E94 0000 		call led_line
 6950               	.LM934:
 6951 2cf4 87E0      		ldi r24,lo8(7)
 6952 2cf6 90E0      		ldi r25,hi8(7)
 6953 2cf8 60E0      		ldi r22,lo8(0)
 6954 2cfa 70E0      		ldi r23,hi8(0)
 6955 2cfc 40E0      		ldi r20,lo8(0)
 6956 2cfe 50E0      		ldi r21,hi8(0)
 6957 2d00 27E0      		ldi r18,lo8(7)
 6958 2d02 30E0      		ldi r19,hi8(7)
 6959 2d04 0E94 0000 		call led_line
 6960               	.LM935:
 6961 2d08 80E0      		ldi r24,lo8(0)
 6962 2d0a 90E0      		ldi r25,hi8(0)
 6963 2d0c 60E0      		ldi r22,lo8(0)
 6964 2d0e 70E0      		ldi r23,hi8(0)
 6965 2d10 47E0      		ldi r20,lo8(7)
 6966 2d12 50E0      		ldi r21,hi8(7)
 6967 2d14 20E0      		ldi r18,lo8(0)
 6968 2d16 30E0      		ldi r19,hi8(0)
 6969 2d18 E7E0      		ldi r30,lo8(7)
 6970 2d1a EE2E      		mov r14,r30
 6971 2d1c F12C      		mov r15,__zero_reg__
 6972 2d1e 0E94 0000 		call led_line
 6973               	.LM936:
 6974 2d22 87E0      		ldi r24,lo8(7)
 6975 2d24 90E0      		ldi r25,hi8(7)
 6976 2d26 60E0      		ldi r22,lo8(0)
 6977 2d28 70E0      		ldi r23,hi8(0)
 6978 2d2a 47E0      		ldi r20,lo8(7)
 6979 2d2c 50E0      		ldi r21,hi8(7)
 6980 2d2e 27E0      		ldi r18,lo8(7)
 6981 2d30 30E0      		ldi r19,hi8(7)
 6982 2d32 0E94 0000 		call led_line
 6983               	.LM937:
 6984 2d36 80E0      		ldi r24,lo8(0)
 6985 2d38 90E0      		ldi r25,hi8(0)
 6986 2d3a 60E0      		ldi r22,lo8(0)
 6987 2d3c 70E0      		ldi r23,hi8(0)
 6988 2d3e 40E0      		ldi r20,lo8(0)
 6989 2d40 50E0      		ldi r21,hi8(0)
 6990 2d42 20E0      		ldi r18,lo8(0)
 6991 2d44 30E0      		ldi r19,hi8(0)
 6992 2d46 00E0      		ldi r16,lo8(0)
 6993 2d48 10E0      		ldi r17,hi8(0)
 6994 2d4a 0E94 0000 		call led_line
 6995               	.LM938:
 6996 2d4e 87E0      		ldi r24,lo8(7)
 6997 2d50 90E0      		ldi r25,hi8(7)
 6998 2d52 60E0      		ldi r22,lo8(0)
 6999 2d54 70E0      		ldi r23,hi8(0)
 7000 2d56 40E0      		ldi r20,lo8(0)
 7001 2d58 50E0      		ldi r21,hi8(0)
 7002 2d5a 27E0      		ldi r18,lo8(7)
 7003 2d5c 30E0      		ldi r19,hi8(7)
 7004 2d5e 0E94 0000 		call led_line
 7005               	.LM939:
 7006 2d62 80E0      		ldi r24,lo8(0)
 7007 2d64 90E0      		ldi r25,hi8(0)
 7008 2d66 67E0      		ldi r22,lo8(7)
 7009 2d68 70E0      		ldi r23,hi8(7)
 7010 2d6a 40E0      		ldi r20,lo8(0)
 7011 2d6c 50E0      		ldi r21,hi8(0)
 7012 2d6e 20E0      		ldi r18,lo8(0)
 7013 2d70 30E0      		ldi r19,hi8(0)
 7014 2d72 07E0      		ldi r16,lo8(7)
 7015 2d74 10E0      		ldi r17,hi8(7)
 7016 2d76 0E94 0000 		call led_line
 7017               	.LM940:
 7018 2d7a 87E0      		ldi r24,lo8(7)
 7019 2d7c 90E0      		ldi r25,hi8(7)
 7020 2d7e 67E0      		ldi r22,lo8(7)
 7021 2d80 70E0      		ldi r23,hi8(7)
 7022 2d82 40E0      		ldi r20,lo8(0)
 7023 2d84 50E0      		ldi r21,hi8(0)
 7024 2d86 27E0      		ldi r18,lo8(7)
 7025 2d88 30E0      		ldi r19,hi8(7)
 7026 2d8a 0E94 0000 		call led_line
 7027               	.LM941:
 7028 2d8e 82E0      		ldi r24,lo8(2)
 7029 2d90 90E0      		ldi r25,hi8(2)
 7030 2d92 62E0      		ldi r22,lo8(2)
 7031 2d94 70E0      		ldi r23,hi8(2)
 7032 2d96 42E0      		ldi r20,lo8(2)
 7033 2d98 50E0      		ldi r21,hi8(2)
 7034 2d9a 25E0      		ldi r18,lo8(5)
 7035 2d9c 30E0      		ldi r19,hi8(5)
 7036 2d9e 02E0      		ldi r16,lo8(2)
 7037 2da0 10E0      		ldi r17,hi8(2)
 7038 2da2 B2E0      		ldi r27,lo8(2)
 7039 2da4 EB2E      		mov r14,r27
 7040 2da6 F12C      		mov r15,__zero_reg__
 7041 2da8 0E94 0000 		call led_line
 7042               	.LM942:
 7043 2dac 82E0      		ldi r24,lo8(2)
 7044 2dae 90E0      		ldi r25,hi8(2)
 7045 2db0 62E0      		ldi r22,lo8(2)
 7046 2db2 70E0      		ldi r23,hi8(2)
 7047 2db4 45E0      		ldi r20,lo8(5)
 7048 2db6 50E0      		ldi r21,hi8(5)
 7049 2db8 25E0      		ldi r18,lo8(5)
 7050 2dba 30E0      		ldi r19,hi8(5)
 7051 2dbc A5E0      		ldi r26,lo8(5)
 7052 2dbe EA2E      		mov r14,r26
 7053 2dc0 F12C      		mov r15,__zero_reg__
 7054 2dc2 0E94 0000 		call led_line
 7055               	.LM943:
 7056 2dc6 82E0      		ldi r24,lo8(2)
 7057 2dc8 90E0      		ldi r25,hi8(2)
 7058 2dca 65E0      		ldi r22,lo8(5)
 7059 2dcc 70E0      		ldi r23,hi8(5)
 7060 2dce 42E0      		ldi r20,lo8(2)
 7061 2dd0 50E0      		ldi r21,hi8(2)
 7062 2dd2 25E0      		ldi r18,lo8(5)
 7063 2dd4 30E0      		ldi r19,hi8(5)
 7064 2dd6 05E0      		ldi r16,lo8(5)
 7065 2dd8 10E0      		ldi r17,hi8(5)
 7066 2dda F2E0      		ldi r31,lo8(2)
 7067 2ddc EF2E      		mov r14,r31
 7068 2dde F12C      		mov r15,__zero_reg__
 7069 2de0 0E94 0000 		call led_line
 7070               	.LM944:
 7071 2de4 82E0      		ldi r24,lo8(2)
 7072 2de6 90E0      		ldi r25,hi8(2)
 7073 2de8 65E0      		ldi r22,lo8(5)
 7074 2dea 70E0      		ldi r23,hi8(5)
 7075 2dec 45E0      		ldi r20,lo8(5)
 7076 2dee 50E0      		ldi r21,hi8(5)
 7077 2df0 25E0      		ldi r18,lo8(5)
 7078 2df2 30E0      		ldi r19,hi8(5)
 7079 2df4 E5E0      		ldi r30,lo8(5)
 7080 2df6 EE2E      		mov r14,r30
 7081 2df8 F12C      		mov r15,__zero_reg__
 7082 2dfa 0E94 0000 		call led_line
 7083               	.LM945:
 7084 2dfe 82E0      		ldi r24,lo8(2)
 7085 2e00 90E0      		ldi r25,hi8(2)
 7086 2e02 62E0      		ldi r22,lo8(2)
 7087 2e04 70E0      		ldi r23,hi8(2)
 7088 2e06 42E0      		ldi r20,lo8(2)
 7089 2e08 50E0      		ldi r21,hi8(2)
 7090 2e0a 22E0      		ldi r18,lo8(2)
 7091 2e0c 30E0      		ldi r19,hi8(2)
 7092 2e0e B2E0      		ldi r27,lo8(2)
 7093 2e10 EB2E      		mov r14,r27
 7094 2e12 F12C      		mov r15,__zero_reg__
 7095 2e14 0E94 0000 		call led_line
 7096               	.LM946:
 7097 2e18 85E0      		ldi r24,lo8(5)
 7098 2e1a 90E0      		ldi r25,hi8(5)
 7099 2e1c 62E0      		ldi r22,lo8(2)
 7100 2e1e 70E0      		ldi r23,hi8(2)
 7101 2e20 42E0      		ldi r20,lo8(2)
 7102 2e22 50E0      		ldi r21,hi8(2)
 7103 2e24 25E0      		ldi r18,lo8(5)
 7104 2e26 30E0      		ldi r19,hi8(5)
 7105 2e28 0E94 0000 		call led_line
 7106               	.LM947:
 7107 2e2c 82E0      		ldi r24,lo8(2)
 7108 2e2e 90E0      		ldi r25,hi8(2)
 7109 2e30 62E0      		ldi r22,lo8(2)
 7110 2e32 70E0      		ldi r23,hi8(2)
 7111 2e34 45E0      		ldi r20,lo8(5)
 7112 2e36 50E0      		ldi r21,hi8(5)
 7113 2e38 22E0      		ldi r18,lo8(2)
 7114 2e3a 30E0      		ldi r19,hi8(2)
 7115 2e3c A5E0      		ldi r26,lo8(5)
 7116 2e3e EA2E      		mov r14,r26
 7117 2e40 F12C      		mov r15,__zero_reg__
 7118 2e42 0E94 0000 		call led_line
 7119               	.LM948:
 7120 2e46 85E0      		ldi r24,lo8(5)
 7121 2e48 90E0      		ldi r25,hi8(5)
 7122 2e4a 62E0      		ldi r22,lo8(2)
 7123 2e4c 70E0      		ldi r23,hi8(2)
 7124 2e4e 45E0      		ldi r20,lo8(5)
 7125 2e50 50E0      		ldi r21,hi8(5)
 7126 2e52 25E0      		ldi r18,lo8(5)
 7127 2e54 30E0      		ldi r19,hi8(5)
 7128 2e56 0E94 0000 		call led_line
 7129               	.LM949:
 7130 2e5a 82E0      		ldi r24,lo8(2)
 7131 2e5c 90E0      		ldi r25,hi8(2)
 7132 2e5e 62E0      		ldi r22,lo8(2)
 7133 2e60 70E0      		ldi r23,hi8(2)
 7134 2e62 42E0      		ldi r20,lo8(2)
 7135 2e64 50E0      		ldi r21,hi8(2)
 7136 2e66 22E0      		ldi r18,lo8(2)
 7137 2e68 30E0      		ldi r19,hi8(2)
 7138 2e6a 02E0      		ldi r16,lo8(2)
 7139 2e6c 10E0      		ldi r17,hi8(2)
 7140 2e6e 0E94 0000 		call led_line
 7141               	.LM950:
 7142 2e72 85E0      		ldi r24,lo8(5)
 7143 2e74 90E0      		ldi r25,hi8(5)
 7144 2e76 62E0      		ldi r22,lo8(2)
 7145 2e78 70E0      		ldi r23,hi8(2)
 7146 2e7a 42E0      		ldi r20,lo8(2)
 7147 2e7c 50E0      		ldi r21,hi8(2)
 7148 2e7e 25E0      		ldi r18,lo8(5)
 7149 2e80 30E0      		ldi r19,hi8(5)
 7150 2e82 0E94 0000 		call led_line
 7151               	.LM951:
 7152 2e86 82E0      		ldi r24,lo8(2)
 7153 2e88 90E0      		ldi r25,hi8(2)
 7154 2e8a 65E0      		ldi r22,lo8(5)
 7155 2e8c 70E0      		ldi r23,hi8(5)
 7156 2e8e 42E0      		ldi r20,lo8(2)
 7157 2e90 50E0      		ldi r21,hi8(2)
 7158 2e92 22E0      		ldi r18,lo8(2)
 7159 2e94 30E0      		ldi r19,hi8(2)
 7160 2e96 05E0      		ldi r16,lo8(5)
 7161 2e98 10E0      		ldi r17,hi8(5)
 7162 2e9a 0E94 0000 		call led_line
 7163               	.LM952:
 7164 2e9e 85E0      		ldi r24,lo8(5)
 7165 2ea0 90E0      		ldi r25,hi8(5)
 7166 2ea2 65E0      		ldi r22,lo8(5)
 7167 2ea4 70E0      		ldi r23,hi8(5)
 7168 2ea6 42E0      		ldi r20,lo8(2)
 7169 2ea8 50E0      		ldi r21,hi8(2)
 7170 2eaa 25E0      		ldi r18,lo8(5)
 7171 2eac 30E0      		ldi r19,hi8(5)
 7172 2eae 0E94 0000 		call led_line
 7173               	.LM953:
 7174 2eb2 81E0      		ldi r24,lo8(1)
 7175 2eb4 61E0      		ldi r22,lo8(1)
 7176 2eb6 41E0      		ldi r20,lo8(1)
 7177 2eb8 21E0      		ldi r18,lo8(1)
 7178 2eba 0E94 0000 		call led_point
 7179               	.LM954:
 7180 2ebe 86E0      		ldi r24,lo8(6)
 7181 2ec0 61E0      		ldi r22,lo8(1)
 7182 2ec2 41E0      		ldi r20,lo8(1)
 7183 2ec4 21E0      		ldi r18,lo8(1)
 7184 2ec6 0E94 0000 		call led_point
 7185               	.LM955:
 7186 2eca 81E0      		ldi r24,lo8(1)
 7187 2ecc 61E0      		ldi r22,lo8(1)
 7188 2ece 46E0      		ldi r20,lo8(6)
 7189 2ed0 21E0      		ldi r18,lo8(1)
 7190 2ed2 0E94 0000 		call led_point
 7191               	.LM956:
 7192 2ed6 86E0      		ldi r24,lo8(6)
 7193 2ed8 61E0      		ldi r22,lo8(1)
 7194 2eda 46E0      		ldi r20,lo8(6)
 7195 2edc 21E0      		ldi r18,lo8(1)
 7196 2ede 0E94 0000 		call led_point
 7197               	.LM957:
 7198 2ee2 81E0      		ldi r24,lo8(1)
 7199 2ee4 66E0      		ldi r22,lo8(6)
 7200 2ee6 41E0      		ldi r20,lo8(1)
 7201 2ee8 21E0      		ldi r18,lo8(1)
 7202 2eea 0E94 0000 		call led_point
 7203               	.LM958:
 7204 2eee 86E0      		ldi r24,lo8(6)
 7205 2ef0 66E0      		ldi r22,lo8(6)
 7206 2ef2 41E0      		ldi r20,lo8(1)
 7207 2ef4 21E0      		ldi r18,lo8(1)
 7208 2ef6 0E94 0000 		call led_point
 7209               	.LM959:
 7210 2efa 81E0      		ldi r24,lo8(1)
 7211 2efc 66E0      		ldi r22,lo8(6)
 7212 2efe 46E0      		ldi r20,lo8(6)
 7213 2f00 21E0      		ldi r18,lo8(1)
 7214 2f02 0E94 0000 		call led_point
 7215               	.LM960:
 7216 2f06 86E0      		ldi r24,lo8(6)
 7217 2f08 66E0      		ldi r22,lo8(6)
 7218 2f0a 46E0      		ldi r20,lo8(6)
 7219 2f0c 21E0      		ldi r18,lo8(1)
 7220 2f0e 0E94 0000 		call led_point
 7221               	.LM961:
 7222 2f12 188A      		std Y+16,__zero_reg__
 7223 2f14 1F86      		std Y+15,__zero_reg__
 7224               	.LM962:
 7225 2f16 81EE      		ldi r24,lo8(-31)
 7226 2f18 9FEF      		ldi r25,hi8(-31)
 7227 2f1a 9E87      		std Y+14,r25
 7228 2f1c 8D87      		std Y+13,r24
 7229               	.LM963:
 7230 2f1e 81EC      		ldi r24,lo8(-63)
 7231 2f20 9FEF      		ldi r25,hi8(-63)
 7232 2f22 9C87      		std Y+12,r25
 7233 2f24 8B87      		std Y+11,r24
 7234               	.LM964:
 7235 2f26 81EA      		ldi r24,lo8(-95)
 7236 2f28 9FEF      		ldi r25,hi8(-95)
 7237 2f2a 9A87      		std Y+10,r25
 7238 2f2c 8987      		std Y+9,r24
 7239               	.LM965:
 7240 2f2e 81E8      		ldi r24,lo8(-127)
 7241 2f30 9FEF      		ldi r25,hi8(-127)
 7242 2f32 9887      		std Y+8,r25
 7243 2f34 8F83      		std Y+7,r24
 7244               	.LM966:
 7245 2f36 81E6      		ldi r24,lo8(-159)
 7246 2f38 9FEF      		ldi r25,hi8(-159)
 7247 2f3a 9E83      		std Y+6,r25
 7248 2f3c 8D83      		std Y+5,r24
 7249               	.LM967:
 7250 2f3e 81E4      		ldi r24,lo8(-191)
 7251 2f40 9FEF      		ldi r25,hi8(-191)
 7252 2f42 9C83      		std Y+4,r25
 7253 2f44 8B83      		std Y+3,r24
 7254               	.LM968:
 7255 2f46 81E2      		ldi r24,lo8(-223)
 7256 2f48 9FEF      		ldi r25,hi8(-223)
 7257 2f4a 9A83      		std Y+2,r25
 7258 2f4c 8983      		std Y+1,r24
 7259               	.LM969:
 7260 2f4e 5E01      		movw r10,r28
 7261 2f50 0894      		sec
 7262 2f52 A11C      		adc r10,__zero_reg__
 7263 2f54 B11C      		adc r11,__zero_reg__
 7264 2f56 00C0      		rjmp .L486
 7265               	.L487:
 7266               	.LM970:
 7267 2f58 F701      		movw r30,r14
 7268 2f5a 0081      		ld r16,Z
 7269 2f5c 1181      		ldd r17,Z+1
 7270 2f5e C801      		movw r24,r16
 7271 2f60 60E0      		ldi r22,lo8(0)
 7272 2f62 70E0      		ldi r23,hi8(0)
 7273 2f64 4FEF      		ldi r20,lo8(255)
 7274 2f66 50E0      		ldi r21,hi8(255)
 7275 2f68 0E94 0000 		call clip_int
 7276 2f6c 682F      		mov r22,r24
 7277 2f6e 8C2D      		mov r24,r12
 7278 2f70 0E94 0000 		call led_plane_intensity
 7279               	.LM971:
 7280 2f74 0F5F      		subi r16,lo8(-(1))
 7281 2f76 1F4F      		sbci r17,hi8(-(1))
 7282 2f78 F701      		movw r30,r14
 7283 2f7a 0193      		st Z+,r16
 7284 2f7c 1193      		st Z+,r17
 7285 2f7e 7F01      		movw r14,r30
 7286 2f80 C394      		inc r12
 7287               	.LM972:
 7288 2f82 F8E0      		ldi r31,lo8(8)
 7289 2f84 CF16      		cp r12,r31
 7290 2f86 01F4      		brne .L487
 7291               	.LM973:
 7292 2f88 81E0      		ldi r24,lo8(1)
 7293 2f8a 90E0      		ldi r25,hi8(1)
 7294 2f8c 0E94 0000 		call led_waitframe
 7295               	.L486:
 7296               	.LM974:
 7297 2f90 8981      		ldd r24,Y+1
 7298 2f92 9A81      		ldd r25,Y+2
 7299 2f94 8F3F      		cpi r24,255
 7300 2f96 9105      		cpc r25,__zero_reg__
 7301 2f98 01F0      		breq .L497
 7302 2f9a 8091 0000 		lds r24,fallout
 7303 2f9e 8823      		tst r24
 7304 2fa0 01F4      		brne .L497
 7305 2fa2 7501      		movw r14,r10
 7306 2fa4 CC24      		clr r12
 7307 2fa6 00C0      		rjmp .L487
 7308               	.L490:
 7309               	.LM975:
 7310 2fa8 81E0      		ldi r24,lo8(1)
 7311 2faa 90E0      		ldi r25,hi8(1)
 7312 2fac 0E94 0000 		call led_waitframe
 7313               	.L497:
 7314               	.LM976:
 7315 2fb0 8091 0000 		lds r24,fallout
 7316 2fb4 8823      		tst r24
 7317 2fb6 01F4      		brne .L489
 7318 2fb8 8091 0000 		lds r24,duration
 7319 2fbc 9091 0000 		lds r25,(duration)+1
 7320 2fc0 892B      		or r24,r25
 7321 2fc2 01F0      		breq .L490
 7322 2fc4 8091 0000 		lds r24,time
 7323 2fc8 9091 0000 		lds r25,(time)+1
 7324 2fcc 892B      		or r24,r25
 7325 2fce 01F4      		brne .L490
 7326               	.L489:
 7327               	.LM977:
 7328 2fd0 80E0      		ldi r24,lo8(256)
 7329 2fd2 91E0      		ldi r25,hi8(256)
 7330 2fd4 988B      		std Y+16,r25
 7331 2fd6 8F87      		std Y+15,r24
 7332               	.LM978:
 7333 2fd8 80E2      		ldi r24,lo8(288)
 7334 2fda 91E0      		ldi r25,hi8(288)
 7335 2fdc 9E87      		std Y+14,r25
 7336 2fde 8D87      		std Y+13,r24
 7337               	.LM979:
 7338 2fe0 80E4      		ldi r24,lo8(320)
 7339 2fe2 91E0      		ldi r25,hi8(320)
 7340 2fe4 9C87      		std Y+12,r25
 7341 2fe6 8B87      		std Y+11,r24
 7342               	.LM980:
 7343 2fe8 80E6      		ldi r24,lo8(352)
 7344 2fea 91E0      		ldi r25,hi8(352)
 7345 2fec 9A87      		std Y+10,r25
 7346 2fee 8987      		std Y+9,r24
 7347               	.LM981:
 7348 2ff0 80E8      		ldi r24,lo8(384)
 7349 2ff2 91E0      		ldi r25,hi8(384)
 7350 2ff4 9887      		std Y+8,r25
 7351 2ff6 8F83      		std Y+7,r24
 7352               	.LM982:
 7353 2ff8 80EA      		ldi r24,lo8(416)
 7354 2ffa 91E0      		ldi r25,hi8(416)
 7355 2ffc 9E83      		std Y+6,r25
 7356 2ffe 8D83      		std Y+5,r24
 7357               	.LM983:
 7358 3000 80EC      		ldi r24,lo8(448)
 7359 3002 91E0      		ldi r25,hi8(448)
 7360 3004 9C83      		std Y+4,r25
 7361 3006 8B83      		std Y+3,r24
 7362               	.LM984:
 7363 3008 80EE      		ldi r24,lo8(480)
 7364 300a 91E0      		ldi r25,hi8(480)
 7365 300c 9A83      		std Y+2,r25
 7366 300e 8983      		std Y+1,r24
 7367               	.LM985:
 7368 3010 5E01      		movw r10,r28
 7369 3012 0894      		sec
 7370 3014 A11C      		adc r10,__zero_reg__
 7371 3016 B11C      		adc r11,__zero_reg__
 7372 3018 00C0      		rjmp .L491
 7373               	.L492:
 7374               	.LM986:
 7375 301a F701      		movw r30,r14
 7376 301c 0081      		ld r16,Z
 7377 301e 1181      		ldd r17,Z+1
 7378 3020 C801      		movw r24,r16
 7379 3022 60E0      		ldi r22,lo8(0)
 7380 3024 70E0      		ldi r23,hi8(0)
 7381 3026 4FEF      		ldi r20,lo8(255)
 7382 3028 50E0      		ldi r21,hi8(255)
 7383 302a 0E94 0000 		call clip_int
 7384 302e 682F      		mov r22,r24
 7385 3030 8C2D      		mov r24,r12
 7386 3032 0E94 0000 		call led_plane_intensity
 7387               	.LM987:
 7388 3036 0150      		subi r16,lo8(-(-1))
 7389 3038 1040      		sbci r17,hi8(-(-1))
 7390 303a F701      		movw r30,r14
 7391 303c 0193      		st Z+,r16
 7392 303e 1193      		st Z+,r17
 7393 3040 7F01      		movw r14,r30
 7394 3042 C394      		inc r12
 7395               	.LM988:
 7396 3044 F8E0      		ldi r31,lo8(8)
 7397 3046 CF16      		cp r12,r31
 7398 3048 01F4      		brne .L492
 7399               	.LM989:
 7400 304a 81E0      		ldi r24,lo8(1)
 7401 304c 90E0      		ldi r25,hi8(1)
 7402 304e 0E94 0000 		call led_waitframe
 7403               	.L491:
 7404               	.LM990:
 7405 3052 8981      		ldd r24,Y+1
 7406 3054 9A81      		ldd r25,Y+2
 7407 3056 1816      		cp __zero_reg__,r24
 7408 3058 1906      		cpc __zero_reg__,r25
 7409 305a 04F4      		brge .L494
 7410 305c 8091 0000 		lds r24,fallout
 7411 3060 8823      		tst r24
 7412 3062 01F4      		brne .L494
 7413 3064 7501      		movw r14,r10
 7414 3066 CC24      		clr r12
 7415 3068 00C0      		rjmp .L492
 7416               	.L494:
 7417               	/* epilogue start */
 7418               	.LM991:
 7419 306a 6096      		adiw r28,16
 7420 306c 0FB6      		in __tmp_reg__,__SREG__
 7421 306e F894      		cli
 7422 3070 DEBF      		out __SP_H__,r29
 7423 3072 0FBE      		out __SREG__,__tmp_reg__
 7424 3074 CDBF      		out __SP_L__,r28
 7425 3076 CF91      		pop r28
 7426 3078 DF91      		pop r29
 7427 307a 1F91      		pop r17
 7428 307c 0F91      		pop r16
 7429 307e FF90      		pop r15
 7430 3080 EF90      		pop r14
 7431 3082 CF90      		pop r12
 7432 3084 BF90      		pop r11
 7433 3086 AF90      		pop r10
 7434 3088 0895      		ret
 7435               	.LFE20:
 7437               	.global	pattern_cubewalls
 7439               	pattern_cubewalls:
 7440               	.LFB19:
 7441               	.LM992:
 7442 308a AF92      		push r10
 7443 308c BF92      		push r11
 7444 308e DF92      		push r13
 7445 3090 EF92      		push r14
 7446 3092 FF92      		push r15
 7447 3094 0F93      		push r16
 7448 3096 1F93      		push r17
 7449 3098 DF93      		push r29
 7450 309a CF93      		push r28
 7451 309c CDB7      		in r28,__SP_L__
 7452 309e DEB7      		in r29,__SP_H__
 7453 30a0 6097      		sbiw r28,16
 7454 30a2 0FB6      		in __tmp_reg__,__SREG__
 7455 30a4 F894      		cli
 7456 30a6 DEBF      		out __SP_H__,r29
 7457 30a8 0FBE      		out __SREG__,__tmp_reg__
 7458 30aa CDBF      		out __SP_L__,r28
 7459               	/* prologue: function */
 7460               	/* frame size = 16 */
 7461               	.LM993:
 7462 30ac 1092 0000 		sts fallout,__zero_reg__
 7463               	.LM994:
 7464 30b0 8091 0000 		lds r24,duration
 7465 30b4 9091 0000 		lds r25,(duration)+1
 7466 30b8 9093 0000 		sts (time)+1,r25
 7467 30bc 8093 0000 		sts time,r24
 7468               	.LM995:
 7469 30c0 84E6      		ldi r24,lo8(100)
 7470 30c2 90E0      		ldi r25,hi8(100)
 7471 30c4 0E94 0000 		call led_framerate
 7472               	.LM996:
 7473 30c8 80E0      		ldi r24,lo8(0)
 7474 30ca 0E94 0000 		call led_plane_intensity_all
 7475               	.LM997:
 7476 30ce 0E94 0000 		call led_blank
 7477               	.LM998:
 7478 30d2 80E0      		ldi r24,lo8(led_frame_bitmap)
 7479 30d4 90E0      		ldi r25,hi8(led_frame_bitmap)
 7480 30d6 61E8      		ldi r22,lo8(129)
 7481 30d8 70E0      		ldi r23,hi8(129)
 7482 30da 40E4      		ldi r20,lo8(64)
 7483 30dc 50E0      		ldi r21,hi8(64)
 7484 30de 0E94 0000 		call memset
 7485               	.LM999:
 7486 30e2 8FEF      		ldi r24,lo8(-1)
 7487 30e4 8093 0000 		sts led_frame_bitmap+8,r24
 7488               	.LM1000:
 7489 30e8 8093 0000 		sts led_frame_bitmap+15,r24
 7490               	.LM1001:
 7491 30ec 8093 0000 		sts led_frame_bitmap+16,r24
 7492               	.LM1002:
 7493 30f0 8093 0000 		sts led_frame_bitmap+23,r24
 7494               	.LM1003:
 7495 30f4 8093 0000 		sts led_frame_bitmap+24,r24
 7496               	.LM1004:
 7497 30f8 8093 0000 		sts led_frame_bitmap+31,r24
 7498               	.LM1005:
 7499 30fc 8093 0000 		sts led_frame_bitmap+32,r24
 7500               	.LM1006:
 7501 3100 8093 0000 		sts led_frame_bitmap+39,r24
 7502               	.LM1007:
 7503 3104 8093 0000 		sts led_frame_bitmap+40,r24
 7504               	.LM1008:
 7505 3108 8093 0000 		sts led_frame_bitmap+47,r24
 7506               	.LM1009:
 7507 310c 8093 0000 		sts led_frame_bitmap+48,r24
 7508               	.LM1010:
 7509 3110 8093 0000 		sts led_frame_bitmap+55,r24
 7510               	.LM1011:
 7511 3114 8093 0000 		sts led_frame_bitmap,r24
 7512               	.LM1012:
 7513 3118 8093 0000 		sts led_frame_bitmap+1,r24
 7514               	.LM1013:
 7515 311c 8093 0000 		sts led_frame_bitmap+2,r24
 7516               	.LM1014:
 7517 3120 8093 0000 		sts led_frame_bitmap+3,r24
 7518               	.LM1015:
 7519 3124 8093 0000 		sts led_frame_bitmap+4,r24
 7520               	.LM1016:
 7521 3128 8093 0000 		sts led_frame_bitmap+5,r24
 7522               	.LM1017:
 7523 312c 8093 0000 		sts led_frame_bitmap+6,r24
 7524               	.LM1018:
 7525 3130 8093 0000 		sts led_frame_bitmap+7,r24
 7526               	.LM1019:
 7527 3134 8093 0000 		sts led_frame_bitmap+56,r24
 7528               	.LM1020:
 7529 3138 8093 0000 		sts led_frame_bitmap+57,r24
 7530               	.LM1021:
 7531 313c 8093 0000 		sts led_frame_bitmap+58,r24
 7532               	.LM1022:
 7533 3140 8093 0000 		sts led_frame_bitmap+59,r24
 7534               	.LM1023:
 7535 3144 8093 0000 		sts led_frame_bitmap+60,r24
 7536               	.LM1024:
 7537 3148 8093 0000 		sts led_frame_bitmap+61,r24
 7538               	.LM1025:
 7539 314c 8093 0000 		sts led_frame_bitmap+62,r24
 7540               	.LM1026:
 7541 3150 8093 0000 		sts led_frame_bitmap+63,r24
 7542               	.LM1027:
 7543 3154 188A      		std Y+16,__zero_reg__
 7544 3156 1F86      		std Y+15,__zero_reg__
 7545               	.LM1028:
 7546 3158 81EE      		ldi r24,lo8(-31)
 7547 315a 9FEF      		ldi r25,hi8(-31)
 7548 315c 9E87      		std Y+14,r25
 7549 315e 8D87      		std Y+13,r24
 7550               	.LM1029:
 7551 3160 81EC      		ldi r24,lo8(-63)
 7552 3162 9FEF      		ldi r25,hi8(-63)
 7553 3164 9C87      		std Y+12,r25
 7554 3166 8B87      		std Y+11,r24
 7555               	.LM1030:
 7556 3168 81EA      		ldi r24,lo8(-95)
 7557 316a 9FEF      		ldi r25,hi8(-95)
 7558 316c 9A87      		std Y+10,r25
 7559 316e 8987      		std Y+9,r24
 7560               	.LM1031:
 7561 3170 81E8      		ldi r24,lo8(-127)
 7562 3172 9FEF      		ldi r25,hi8(-127)
 7563 3174 9887      		std Y+8,r25
 7564 3176 8F83      		std Y+7,r24
 7565               	.LM1032:
 7566 3178 81E6      		ldi r24,lo8(-159)
 7567 317a 9FEF      		ldi r25,hi8(-159)
 7568 317c 9E83      		std Y+6,r25
 7569 317e 8D83      		std Y+5,r24
 7570               	.LM1033:
 7571 3180 81E4      		ldi r24,lo8(-191)
 7572 3182 9FEF      		ldi r25,hi8(-191)
 7573 3184 9C83      		std Y+4,r25
 7574 3186 8B83      		std Y+3,r24
 7575               	.LM1034:
 7576 3188 81E2      		ldi r24,lo8(-223)
 7577 318a 9FEF      		ldi r25,hi8(-223)
 7578 318c 9A83      		std Y+2,r25
 7579 318e 8983      		std Y+1,r24
 7580               	.LM1035:
 7581 3190 5E01      		movw r10,r28
 7582 3192 0894      		sec
 7583 3194 A11C      		adc r10,__zero_reg__
 7584 3196 B11C      		adc r11,__zero_reg__
 7585 3198 00C0      		rjmp .L499
 7586               	.L500:
 7587               	.LM1036:
 7588 319a F701      		movw r30,r14
 7589 319c 0081      		ld r16,Z
 7590 319e 1181      		ldd r17,Z+1
 7591 31a0 C801      		movw r24,r16
 7592 31a2 60E0      		ldi r22,lo8(0)
 7593 31a4 70E0      		ldi r23,hi8(0)
 7594 31a6 4FEF      		ldi r20,lo8(255)
 7595 31a8 50E0      		ldi r21,hi8(255)
 7596 31aa 0E94 0000 		call clip_int
 7597 31ae 682F      		mov r22,r24
 7598 31b0 8D2D      		mov r24,r13
 7599 31b2 0E94 0000 		call led_plane_intensity
 7600               	.LM1037:
 7601 31b6 0F5F      		subi r16,lo8(-(1))
 7602 31b8 1F4F      		sbci r17,hi8(-(1))
 7603 31ba F701      		movw r30,r14
 7604 31bc 0193      		st Z+,r16
 7605 31be 1193      		st Z+,r17
 7606 31c0 7F01      		movw r14,r30
 7607 31c2 D394      		inc r13
 7608               	.LM1038:
 7609 31c4 F8E0      		ldi r31,lo8(8)
 7610 31c6 DF16      		cp r13,r31
 7611 31c8 01F4      		brne .L500
 7612               	.LM1039:
 7613 31ca 81E0      		ldi r24,lo8(1)
 7614 31cc 90E0      		ldi r25,hi8(1)
 7615 31ce 0E94 0000 		call led_waitframe
 7616               	.L499:
 7617               	.LM1040:
 7618 31d2 8981      		ldd r24,Y+1
 7619 31d4 9A81      		ldd r25,Y+2
 7620 31d6 8F3F      		cpi r24,255
 7621 31d8 9105      		cpc r25,__zero_reg__
 7622 31da 01F0      		breq .L510
 7623 31dc 8091 0000 		lds r24,fallout
 7624 31e0 8823      		tst r24
 7625 31e2 01F4      		brne .L510
 7626 31e4 7501      		movw r14,r10
 7627 31e6 DD24      		clr r13
 7628 31e8 00C0      		rjmp .L500
 7629               	.L503:
 7630               	.LM1041:
 7631 31ea 81E0      		ldi r24,lo8(1)
 7632 31ec 90E0      		ldi r25,hi8(1)
 7633 31ee 0E94 0000 		call led_waitframe
 7634               	.L510:
 7635               	.LM1042:
 7636 31f2 8091 0000 		lds r24,fallout
 7637 31f6 8823      		tst r24
 7638 31f8 01F4      		brne .L502
 7639 31fa 8091 0000 		lds r24,duration
 7640 31fe 9091 0000 		lds r25,(duration)+1
 7641 3202 892B      		or r24,r25
 7642 3204 01F0      		breq .L503
 7643 3206 8091 0000 		lds r24,time
 7644 320a 9091 0000 		lds r25,(time)+1
 7645 320e 892B      		or r24,r25
 7646 3210 01F4      		brne .L503
 7647               	.L502:
 7648               	.LM1043:
 7649 3212 80E0      		ldi r24,lo8(256)
 7650 3214 91E0      		ldi r25,hi8(256)
 7651 3216 988B      		std Y+16,r25
 7652 3218 8F87      		std Y+15,r24
 7653               	.LM1044:
 7654 321a 80E2      		ldi r24,lo8(288)
 7655 321c 91E0      		ldi r25,hi8(288)
 7656 321e 9E87      		std Y+14,r25
 7657 3220 8D87      		std Y+13,r24
 7658               	.LM1045:
 7659 3222 80E4      		ldi r24,lo8(320)
 7660 3224 91E0      		ldi r25,hi8(320)
 7661 3226 9C87      		std Y+12,r25
 7662 3228 8B87      		std Y+11,r24
 7663               	.LM1046:
 7664 322a 80E6      		ldi r24,lo8(352)
 7665 322c 91E0      		ldi r25,hi8(352)
 7666 322e 9A87      		std Y+10,r25
 7667 3230 8987      		std Y+9,r24
 7668               	.LM1047:
 7669 3232 80E8      		ldi r24,lo8(384)
 7670 3234 91E0      		ldi r25,hi8(384)
 7671 3236 9887      		std Y+8,r25
 7672 3238 8F83      		std Y+7,r24
 7673               	.LM1048:
 7674 323a 80EA      		ldi r24,lo8(416)
 7675 323c 91E0      		ldi r25,hi8(416)
 7676 323e 9E83      		std Y+6,r25
 7677 3240 8D83      		std Y+5,r24
 7678               	.LM1049:
 7679 3242 80EC      		ldi r24,lo8(448)
 7680 3244 91E0      		ldi r25,hi8(448)
 7681 3246 9C83      		std Y+4,r25
 7682 3248 8B83      		std Y+3,r24
 7683               	.LM1050:
 7684 324a 80EE      		ldi r24,lo8(480)
 7685 324c 91E0      		ldi r25,hi8(480)
 7686 324e 9A83      		std Y+2,r25
 7687 3250 8983      		std Y+1,r24
 7688               	.LM1051:
 7689 3252 5E01      		movw r10,r28
 7690 3254 0894      		sec
 7691 3256 A11C      		adc r10,__zero_reg__
 7692 3258 B11C      		adc r11,__zero_reg__
 7693 325a 00C0      		rjmp .L504
 7694               	.L505:
 7695               	.LM1052:
 7696 325c F701      		movw r30,r14
 7697 325e 0081      		ld r16,Z
 7698 3260 1181      		ldd r17,Z+1
 7699 3262 C801      		movw r24,r16
 7700 3264 60E0      		ldi r22,lo8(0)
 7701 3266 70E0      		ldi r23,hi8(0)
 7702 3268 4FEF      		ldi r20,lo8(255)
 7703 326a 50E0      		ldi r21,hi8(255)
 7704 326c 0E94 0000 		call clip_int
 7705 3270 682F      		mov r22,r24
 7706 3272 8D2D      		mov r24,r13
 7707 3274 0E94 0000 		call led_plane_intensity
 7708               	.LM1053:
 7709 3278 0150      		subi r16,lo8(-(-1))
 7710 327a 1040      		sbci r17,hi8(-(-1))
 7711 327c F701      		movw r30,r14
 7712 327e 0193      		st Z+,r16
 7713 3280 1193      		st Z+,r17
 7714 3282 7F01      		movw r14,r30
 7715 3284 D394      		inc r13
 7716               	.LM1054:
 7717 3286 F8E0      		ldi r31,lo8(8)
 7718 3288 DF16      		cp r13,r31
 7719 328a 01F4      		brne .L505
 7720               	.LM1055:
 7721 328c 81E0      		ldi r24,lo8(1)
 7722 328e 90E0      		ldi r25,hi8(1)
 7723 3290 0E94 0000 		call led_waitframe
 7724               	.L504:
 7725               	.LM1056:
 7726 3294 8981      		ldd r24,Y+1
 7727 3296 9A81      		ldd r25,Y+2
 7728 3298 1816      		cp __zero_reg__,r24
 7729 329a 1906      		cpc __zero_reg__,r25
 7730 329c 04F4      		brge .L507
 7731 329e 8091 0000 		lds r24,fallout
 7732 32a2 8823      		tst r24
 7733 32a4 01F4      		brne .L507
 7734 32a6 7501      		movw r14,r10
 7735 32a8 DD24      		clr r13
 7736 32aa 00C0      		rjmp .L505
 7737               	.L507:
 7738               	/* epilogue start */
 7739               	.LM1057:
 7740 32ac 6096      		adiw r28,16
 7741 32ae 0FB6      		in __tmp_reg__,__SREG__
 7742 32b0 F894      		cli
 7743 32b2 DEBF      		out __SP_H__,r29
 7744 32b4 0FBE      		out __SREG__,__tmp_reg__
 7745 32b6 CDBF      		out __SP_L__,r28
 7746 32b8 CF91      		pop r28
 7747 32ba DF91      		pop r29
 7748 32bc 1F91      		pop r17
 7749 32be 0F91      		pop r16
 7750 32c0 FF90      		pop r15
 7751 32c2 EF90      		pop r14
 7752 32c4 DF90      		pop r13
 7753 32c6 BF90      		pop r11
 7754 32c8 AF90      		pop r10
 7755 32ca 0895      		ret
 7756               	.LFE19:
 7758               	.global	pattern_diamond
 7760               	pattern_diamond:
 7761               	.LFB18:
 7762               	.LM1058:
 7763 32cc AF92      		push r10
 7764 32ce BF92      		push r11
 7765 32d0 DF92      		push r13
 7766 32d2 EF92      		push r14
 7767 32d4 FF92      		push r15
 7768 32d6 0F93      		push r16
 7769 32d8 1F93      		push r17
 7770 32da DF93      		push r29
 7771 32dc CF93      		push r28
 7772 32de CDB7      		in r28,__SP_L__
 7773 32e0 DEB7      		in r29,__SP_H__
 7774 32e2 6097      		sbiw r28,16
 7775 32e4 0FB6      		in __tmp_reg__,__SREG__
 7776 32e6 F894      		cli
 7777 32e8 DEBF      		out __SP_H__,r29
 7778 32ea 0FBE      		out __SREG__,__tmp_reg__
 7779 32ec CDBF      		out __SP_L__,r28
 7780               	/* prologue: function */
 7781               	/* frame size = 16 */
 7782               	.LM1059:
 7783 32ee 1092 0000 		sts fallout,__zero_reg__
 7784               	.LM1060:
 7785 32f2 8091 0000 		lds r24,duration
 7786 32f6 9091 0000 		lds r25,(duration)+1
 7787 32fa 9093 0000 		sts (time)+1,r25
 7788 32fe 8093 0000 		sts time,r24
 7789               	.LM1061:
 7790 3302 84E6      		ldi r24,lo8(100)
 7791 3304 90E0      		ldi r25,hi8(100)
 7792 3306 0E94 0000 		call led_framerate
 7793               	.LM1062:
 7794 330a 80E0      		ldi r24,lo8(0)
 7795 330c 0E94 0000 		call led_plane_intensity_all
 7796               	.LM1063:
 7797 3310 0E94 0000 		call led_blank
 7798               	.LM1064:
 7799 3314 80E0      		ldi r24,lo8(led_frame_bitmap)
 7800 3316 90E0      		ldi r25,hi8(led_frame_bitmap)
 7801 3318 60E0      		ldi r22,lo8(progframe_diamond)
 7802 331a 70E0      		ldi r23,hi8(progframe_diamond)
 7803 331c 40E4      		ldi r20,lo8(64)
 7804 331e 50E0      		ldi r21,hi8(64)
 7805 3320 0E94 0000 		call memcpy_P
 7806               	.LM1065:
 7807 3324 188A      		std Y+16,__zero_reg__
 7808 3326 1F86      		std Y+15,__zero_reg__
 7809               	.LM1066:
 7810 3328 81EE      		ldi r24,lo8(-31)
 7811 332a 9FEF      		ldi r25,hi8(-31)
 7812 332c 9E87      		std Y+14,r25
 7813 332e 8D87      		std Y+13,r24
 7814               	.LM1067:
 7815 3330 81EC      		ldi r24,lo8(-63)
 7816 3332 9FEF      		ldi r25,hi8(-63)
 7817 3334 9C87      		std Y+12,r25
 7818 3336 8B87      		std Y+11,r24
 7819               	.LM1068:
 7820 3338 81EA      		ldi r24,lo8(-95)
 7821 333a 9FEF      		ldi r25,hi8(-95)
 7822 333c 9A87      		std Y+10,r25
 7823 333e 8987      		std Y+9,r24
 7824               	.LM1069:
 7825 3340 81E8      		ldi r24,lo8(-127)
 7826 3342 9FEF      		ldi r25,hi8(-127)
 7827 3344 9887      		std Y+8,r25
 7828 3346 8F83      		std Y+7,r24
 7829               	.LM1070:
 7830 3348 81E6      		ldi r24,lo8(-159)
 7831 334a 9FEF      		ldi r25,hi8(-159)
 7832 334c 9E83      		std Y+6,r25
 7833 334e 8D83      		std Y+5,r24
 7834               	.LM1071:
 7835 3350 81E4      		ldi r24,lo8(-191)
 7836 3352 9FEF      		ldi r25,hi8(-191)
 7837 3354 9C83      		std Y+4,r25
 7838 3356 8B83      		std Y+3,r24
 7839               	.LM1072:
 7840 3358 81E2      		ldi r24,lo8(-223)
 7841 335a 9FEF      		ldi r25,hi8(-223)
 7842 335c 9A83      		std Y+2,r25
 7843 335e 8983      		std Y+1,r24
 7844               	.LM1073:
 7845 3360 5E01      		movw r10,r28
 7846 3362 0894      		sec
 7847 3364 A11C      		adc r10,__zero_reg__
 7848 3366 B11C      		adc r11,__zero_reg__
 7849 3368 00C0      		rjmp .L512
 7850               	.L513:
 7851               	.LM1074:
 7852 336a F701      		movw r30,r14
 7853 336c 0081      		ld r16,Z
 7854 336e 1181      		ldd r17,Z+1
 7855 3370 C801      		movw r24,r16
 7856 3372 60E0      		ldi r22,lo8(0)
 7857 3374 70E0      		ldi r23,hi8(0)
 7858 3376 4FEF      		ldi r20,lo8(255)
 7859 3378 50E0      		ldi r21,hi8(255)
 7860 337a 0E94 0000 		call clip_int
 7861 337e 682F      		mov r22,r24
 7862 3380 8D2D      		mov r24,r13
 7863 3382 0E94 0000 		call led_plane_intensity
 7864               	.LM1075:
 7865 3386 0F5F      		subi r16,lo8(-(1))
 7866 3388 1F4F      		sbci r17,hi8(-(1))
 7867 338a F701      		movw r30,r14
 7868 338c 0193      		st Z+,r16
 7869 338e 1193      		st Z+,r17
 7870 3390 7F01      		movw r14,r30
 7871 3392 D394      		inc r13
 7872               	.LM1076:
 7873 3394 F8E0      		ldi r31,lo8(8)
 7874 3396 DF16      		cp r13,r31
 7875 3398 01F4      		brne .L513
 7876               	.LM1077:
 7877 339a 81E0      		ldi r24,lo8(1)
 7878 339c 90E0      		ldi r25,hi8(1)
 7879 339e 0E94 0000 		call led_waitframe
 7880               	.L512:
 7881               	.LM1078:
 7882 33a2 8981      		ldd r24,Y+1
 7883 33a4 9A81      		ldd r25,Y+2
 7884 33a6 8F3F      		cpi r24,255
 7885 33a8 9105      		cpc r25,__zero_reg__
 7886 33aa 01F0      		breq .L523
 7887 33ac 8091 0000 		lds r24,fallout
 7888 33b0 8823      		tst r24
 7889 33b2 01F4      		brne .L523
 7890 33b4 7501      		movw r14,r10
 7891 33b6 DD24      		clr r13
 7892 33b8 00C0      		rjmp .L513
 7893               	.L516:
 7894               	.LM1079:
 7895 33ba 81E0      		ldi r24,lo8(1)
 7896 33bc 90E0      		ldi r25,hi8(1)
 7897 33be 0E94 0000 		call led_waitframe
 7898               	.L523:
 7899               	.LM1080:
 7900 33c2 8091 0000 		lds r24,fallout
 7901 33c6 8823      		tst r24
 7902 33c8 01F4      		brne .L515
 7903 33ca 8091 0000 		lds r24,duration
 7904 33ce 9091 0000 		lds r25,(duration)+1
 7905 33d2 892B      		or r24,r25
 7906 33d4 01F0      		breq .L516
 7907 33d6 8091 0000 		lds r24,time
 7908 33da 9091 0000 		lds r25,(time)+1
 7909 33de 892B      		or r24,r25
 7910 33e0 01F4      		brne .L516
 7911               	.L515:
 7912               	.LM1081:
 7913 33e2 80E0      		ldi r24,lo8(256)
 7914 33e4 91E0      		ldi r25,hi8(256)
 7915 33e6 988B      		std Y+16,r25
 7916 33e8 8F87      		std Y+15,r24
 7917               	.LM1082:
 7918 33ea 80E2      		ldi r24,lo8(288)
 7919 33ec 91E0      		ldi r25,hi8(288)
 7920 33ee 9E87      		std Y+14,r25
 7921 33f0 8D87      		std Y+13,r24
 7922               	.LM1083:
 7923 33f2 80E4      		ldi r24,lo8(320)
 7924 33f4 91E0      		ldi r25,hi8(320)
 7925 33f6 9C87      		std Y+12,r25
 7926 33f8 8B87      		std Y+11,r24
 7927               	.LM1084:
 7928 33fa 80E6      		ldi r24,lo8(352)
 7929 33fc 91E0      		ldi r25,hi8(352)
 7930 33fe 9A87      		std Y+10,r25
 7931 3400 8987      		std Y+9,r24
 7932               	.LM1085:
 7933 3402 80E8      		ldi r24,lo8(384)
 7934 3404 91E0      		ldi r25,hi8(384)
 7935 3406 9887      		std Y+8,r25
 7936 3408 8F83      		std Y+7,r24
 7937               	.LM1086:
 7938 340a 80EA      		ldi r24,lo8(416)
 7939 340c 91E0      		ldi r25,hi8(416)
 7940 340e 9E83      		std Y+6,r25
 7941 3410 8D83      		std Y+5,r24
 7942               	.LM1087:
 7943 3412 80EC      		ldi r24,lo8(448)
 7944 3414 91E0      		ldi r25,hi8(448)
 7945 3416 9C83      		std Y+4,r25
 7946 3418 8B83      		std Y+3,r24
 7947               	.LM1088:
 7948 341a 80EE      		ldi r24,lo8(480)
 7949 341c 91E0      		ldi r25,hi8(480)
 7950 341e 9A83      		std Y+2,r25
 7951 3420 8983      		std Y+1,r24
 7952               	.LM1089:
 7953 3422 5E01      		movw r10,r28
 7954 3424 0894      		sec
 7955 3426 A11C      		adc r10,__zero_reg__
 7956 3428 B11C      		adc r11,__zero_reg__
 7957 342a 00C0      		rjmp .L517
 7958               	.L518:
 7959               	.LM1090:
 7960 342c F701      		movw r30,r14
 7961 342e 0081      		ld r16,Z
 7962 3430 1181      		ldd r17,Z+1
 7963 3432 C801      		movw r24,r16
 7964 3434 60E0      		ldi r22,lo8(0)
 7965 3436 70E0      		ldi r23,hi8(0)
 7966 3438 4FEF      		ldi r20,lo8(255)
 7967 343a 50E0      		ldi r21,hi8(255)
 7968 343c 0E94 0000 		call clip_int
 7969 3440 682F      		mov r22,r24
 7970 3442 8D2D      		mov r24,r13
 7971 3444 0E94 0000 		call led_plane_intensity
 7972               	.LM1091:
 7973 3448 0150      		subi r16,lo8(-(-1))
 7974 344a 1040      		sbci r17,hi8(-(-1))
 7975 344c F701      		movw r30,r14
 7976 344e 0193      		st Z+,r16
 7977 3450 1193      		st Z+,r17
 7978 3452 7F01      		movw r14,r30
 7979 3454 D394      		inc r13
 7980               	.LM1092:
 7981 3456 F8E0      		ldi r31,lo8(8)
 7982 3458 DF16      		cp r13,r31
 7983 345a 01F4      		brne .L518
 7984               	.LM1093:
 7985 345c 81E0      		ldi r24,lo8(1)
 7986 345e 90E0      		ldi r25,hi8(1)
 7987 3460 0E94 0000 		call led_waitframe
 7988               	.L517:
 7989               	.LM1094:
 7990 3464 8981      		ldd r24,Y+1
 7991 3466 9A81      		ldd r25,Y+2
 7992 3468 1816      		cp __zero_reg__,r24
 7993 346a 1906      		cpc __zero_reg__,r25
 7994 346c 04F4      		brge .L520
 7995 346e 8091 0000 		lds r24,fallout
 7996 3472 8823      		tst r24
 7997 3474 01F4      		brne .L520
 7998 3476 7501      		movw r14,r10
 7999 3478 DD24      		clr r13
 8000 347a 00C0      		rjmp .L518
 8001               	.L520:
 8002               	/* epilogue start */
 8003               	.LM1095:
 8004 347c 6096      		adiw r28,16
 8005 347e 0FB6      		in __tmp_reg__,__SREG__
 8006 3480 F894      		cli
 8007 3482 DEBF      		out __SP_H__,r29
 8008 3484 0FBE      		out __SREG__,__tmp_reg__
 8009 3486 CDBF      		out __SP_L__,r28
 8010 3488 CF91      		pop r28
 8011 348a DF91      		pop r29
 8012 348c 1F91      		pop r17
 8013 348e 0F91      		pop r16
 8014 3490 FF90      		pop r15
 8015 3492 EF90      		pop r14
 8016 3494 DF90      		pop r13
 8017 3496 BF90      		pop r11
 8018 3498 AF90      		pop r10
 8019 349a 0895      		ret
 8020               	.LFE18:
 8022               	.global	pattern_diamond_scroll
 8024               	pattern_diamond_scroll:
 8025               	.LFB17:
 8026               	.LM1096:
 8027 349c 1F93      		push r17
 8028               	/* prologue: function */
 8029               	/* frame size = 0 */
 8030               	.LM1097:
 8031 349e 1092 0000 		sts fallout,__zero_reg__
 8032               	.LM1098:
 8033 34a2 8091 0000 		lds r24,duration
 8034 34a6 9091 0000 		lds r25,(duration)+1
 8035 34aa 9093 0000 		sts (time)+1,r25
 8036 34ae 8093 0000 		sts time,r24
 8037               	.LM1099:
 8038 34b2 84E6      		ldi r24,lo8(100)
 8039 34b4 90E0      		ldi r25,hi8(100)
 8040 34b6 0E94 0000 		call led_framerate
 8041               	.LM1100:
 8042 34ba 0E94 0000 		call led_blank
 8043               	.LM1101:
 8044 34be 8FEF      		ldi r24,lo8(-1)
 8045 34c0 0E94 0000 		call led_plane_intensity_all
 8046 34c4 10E0      		ldi r17,lo8(0)
 8047               	.LVL299:
 8048 34c6 00C0      		rjmp .L525
 8049               	.L527:
 8050               	.LM1102:
 8051 34c8 0E94 0000 		call led_frame_up
 8052               	.LM1103:
 8053 34cc 612F      		mov r22,r17
 8054 34ce 70E0      		ldi r23,lo8(0)
 8055               	.LVL300:
 8056 34d0 6050      		subi r22,lo8(-(progframe_diamond))
 8057 34d2 7040      		sbci r23,hi8(-(progframe_diamond))
 8058               	.LVL301:
 8059 34d4 80E0      		ldi r24,lo8(led_frame_bitmap+56)
 8060 34d6 90E0      		ldi r25,hi8(led_frame_bitmap+56)
 8061 34d8 48E0      		ldi r20,lo8(8)
 8062 34da 50E0      		ldi r21,hi8(8)
 8063 34dc 0E94 0000 		call memcpy_P
 8064               	.LVL302:
 8065               	.LM1104:
 8066 34e0 185F      		subi r17,lo8(-(8))
 8067               	.LVL303:
 8068               	.LM1105:
 8069 34e2 1F73      		andi r17,lo8(63)
 8070               	.LM1106:
 8071 34e4 86E0      		ldi r24,lo8(6)
 8072 34e6 90E0      		ldi r25,hi8(6)
 8073 34e8 0E94 0000 		call led_waitframe
 8074               	.L525:
 8075               	.LM1107:
 8076 34ec 8091 0000 		lds r24,fallout
 8077 34f0 8823      		tst r24
 8078 34f2 01F4      		brne .L526
 8079 34f4 8091 0000 		lds r24,duration
 8080 34f8 9091 0000 		lds r25,(duration)+1
 8081 34fc 892B      		or r24,r25
 8082 34fe 01F0      		breq .L527
 8083 3500 8091 0000 		lds r24,time
 8084 3504 9091 0000 		lds r25,(time)+1
 8085 3508 892B      		or r24,r25
 8086 350a 01F4      		brne .L527
 8087 350c 00C0      		rjmp .L526
 8088               	.L530:
 8089               	.LM1108:
 8090 350e 1150      		subi r17,lo8(-(-1))
 8091               	.LM1109:
 8092 3510 0E94 0000 		call led_frame_up
 8093               	.LM1110:
 8094 3514 86E0      		ldi r24,lo8(6)
 8095 3516 90E0      		ldi r25,hi8(6)
 8096 3518 0E94 0000 		call led_waitframe
 8097 351c 00C0      		rjmp .L528
 8098               	.L526:
 8099 351e 18E0      		ldi r17,lo8(8)
 8100               	.LVL304:
 8101               	.L528:
 8102               	.LM1111:
 8103 3520 8091 0000 		lds r24,fallout
 8104 3524 8823      		tst r24
 8105 3526 01F4      		brne .L531
 8106 3528 1123      		tst r17
 8107 352a 01F4      		brne .L530
 8108               	.L531:
 8109               	/* epilogue start */
 8110               	.LM1112:
 8111 352c 1F91      		pop r17
 8112               	.LVL305:
 8113 352e 0895      		ret
 8114               	.LFE17:
 8116               		.lcomm fallout,1
 8117               		.lcomm duration,2
 8118               		.lcomm physical.3148,19
 8119               		.data
 8122               	C.63.3010:
 8123 0000 00        		.byte	0
 8124 0001 00        		.byte	0
 8125 0002 00        		.byte	0
 8126 0003 00        		.byte	0
 8127 0004 00        		.byte	0
 8128 0005 00        		.byte	0
 8129 0006 00        		.byte	0
 8130 0007 00        		.byte	0
 8131 0008 01        		.byte	1
 8132 0009 01        		.byte	1
 8133 000a 01        		.byte	1
 8134 000b 02        		.byte	2
 8135 000c 02        		.byte	2
 8136 000d 03        		.byte	3
 8137 000e 03        		.byte	3
 8138 000f 04        		.byte	4
 8139 0010 04        		.byte	4
 8140 0011 05        		.byte	5
 8141 0012 05        		.byte	5
 8142 0013 06        		.byte	6
 8143 0014 07        		.byte	7
 8144               		.section	.progmem.data,"a",@progbits
 8147               	sintable:
 8148 0000 3F        		.byte	63
 8149 0001 40        		.byte	64
 8150 0002 42        		.byte	66
 8151 0003 43        		.byte	67
 8152 0004 45        		.byte	69
 8153 0005 46        		.byte	70
 8154 0006 48        		.byte	72
 8155 0007 49        		.byte	73
 8156 0008 4B        		.byte	75
 8157 0009 4C        		.byte	76
 8158 000a 4E        		.byte	78
 8159 000b 4F        		.byte	79
 8160 000c 51        		.byte	81
 8161 000d 52        		.byte	82
 8162 000e 54        		.byte	84
 8163 000f 55        		.byte	85
 8164 0010 56        		.byte	86
 8165 0011 58        		.byte	88
 8166 0012 59        		.byte	89
 8167 0013 5A        		.byte	90
 8168 0014 5C        		.byte	92
 8169 0015 5D        		.byte	93
 8170 0016 5E        		.byte	94
 8171 0017 60        		.byte	96
 8172 0018 61        		.byte	97
 8173 0019 62        		.byte	98
 8174 001a 63        		.byte	99
 8175 001b 65        		.byte	101
 8176 001c 66        		.byte	102
 8177 001d 67        		.byte	103
 8178 001e 68        		.byte	104
 8179 001f 69        		.byte	105
 8180 0020 6A        		.byte	106
 8181 0021 6B        		.byte	107
 8182 0022 6C        		.byte	108
 8183 0023 6D        		.byte	109
 8184 0024 6E        		.byte	110
 8185 0025 6F        		.byte	111
 8186 0026 70        		.byte	112
 8187 0027 71        		.byte	113
 8188 0028 72        		.byte	114
 8189 0029 73        		.byte	115
 8190 002a 73        		.byte	115
 8191 002b 74        		.byte	116
 8192 002c 75        		.byte	117
 8193 002d 75        		.byte	117
 8194 002e 76        		.byte	118
 8195 002f 77        		.byte	119
 8196 0030 77        		.byte	119
 8197 0031 78        		.byte	120
 8198 0032 78        		.byte	120
 8199 0033 79        		.byte	121
 8200 0034 79        		.byte	121
 8201 0035 7A        		.byte	122
 8202 0036 7A        		.byte	122
 8203 0037 7B        		.byte	123
 8204 0038 7B        		.byte	123
 8205 0039 7B        		.byte	123
 8206 003a 7B        		.byte	123
 8207 003b 7C        		.byte	124
 8208 003c 7C        		.byte	124
 8209 003d 7C        		.byte	124
 8210 003e 7C        		.byte	124
 8211 003f 7C        		.byte	124
 8212 0040 7C        		.byte	124
 8213 0041 7C        		.byte	124
 8214 0042 7C        		.byte	124
 8215 0043 7C        		.byte	124
 8216 0044 7C        		.byte	124
 8217 0045 7C        		.byte	124
 8218 0046 7B        		.byte	123
 8219 0047 7B        		.byte	123
 8220 0048 7B        		.byte	123
 8221 0049 7B        		.byte	123
 8222 004a 7A        		.byte	122
 8223 004b 7A        		.byte	122
 8224 004c 79        		.byte	121
 8225 004d 79        		.byte	121
 8226 004e 78        		.byte	120
 8227 004f 78        		.byte	120
 8228 0050 77        		.byte	119
 8229 0051 77        		.byte	119
 8230 0052 76        		.byte	118
 8231 0053 75        		.byte	117
 8232 0054 75        		.byte	117
 8233 0055 74        		.byte	116
 8234 0056 73        		.byte	115
 8235 0057 73        		.byte	115
 8236 0058 72        		.byte	114
 8237 0059 71        		.byte	113
 8238 005a 70        		.byte	112
 8239 005b 6F        		.byte	111
 8240 005c 6E        		.byte	110
 8241 005d 6D        		.byte	109
 8242 005e 6C        		.byte	108
 8243 005f 6B        		.byte	107
 8244 0060 6A        		.byte	106
 8245 0061 69        		.byte	105
 8246 0062 68        		.byte	104
 8247 0063 67        		.byte	103
 8248 0064 66        		.byte	102
 8249 0065 65        		.byte	101
 8250 0066 63        		.byte	99
 8251 0067 62        		.byte	98
 8252 0068 61        		.byte	97
 8253 0069 60        		.byte	96
 8254 006a 5E        		.byte	94
 8255 006b 5D        		.byte	93
 8256 006c 5C        		.byte	92
 8257 006d 5A        		.byte	90
 8258 006e 59        		.byte	89
 8259 006f 58        		.byte	88
 8260 0070 56        		.byte	86
 8261 0071 55        		.byte	85
 8262 0072 54        		.byte	84
 8263 0073 52        		.byte	82
 8264 0074 51        		.byte	81
 8265 0075 4F        		.byte	79
 8266 0076 4E        		.byte	78
 8267 0077 4C        		.byte	76
 8268 0078 4B        		.byte	75
 8269 0079 49        		.byte	73
 8270 007a 48        		.byte	72
 8271 007b 46        		.byte	70
 8272 007c 45        		.byte	69
 8273 007d 43        		.byte	67
 8274 007e 42        		.byte	66
 8275 007f 40        		.byte	64
 8276 0080 3F        		.byte	63
 8277 0081 3E        		.byte	62
 8278 0082 3C        		.byte	60
 8279 0083 3B        		.byte	59
 8280 0084 39        		.byte	57
 8281 0085 38        		.byte	56
 8282 0086 36        		.byte	54
 8283 0087 35        		.byte	53
 8284 0088 33        		.byte	51
 8285 0089 32        		.byte	50
 8286 008a 30        		.byte	48
 8287 008b 2F        		.byte	47
 8288 008c 2D        		.byte	45
 8289 008d 2C        		.byte	44
 8290 008e 2A        		.byte	42
 8291 008f 29        		.byte	41
 8292 0090 28        		.byte	40
 8293 0091 26        		.byte	38
 8294 0092 25        		.byte	37
 8295 0093 24        		.byte	36
 8296 0094 22        		.byte	34
 8297 0095 21        		.byte	33
 8298 0096 20        		.byte	32
 8299 0097 1E        		.byte	30
 8300 0098 1D        		.byte	29
 8301 0099 1C        		.byte	28
 8302 009a 1B        		.byte	27
 8303 009b 19        		.byte	25
 8304 009c 18        		.byte	24
 8305 009d 17        		.byte	23
 8306 009e 16        		.byte	22
 8307 009f 15        		.byte	21
 8308 00a0 14        		.byte	20
 8309 00a1 13        		.byte	19
 8310 00a2 12        		.byte	18
 8311 00a3 11        		.byte	17
 8312 00a4 10        		.byte	16
 8313 00a5 0F        		.byte	15
 8314 00a6 0E        		.byte	14
 8315 00a7 0D        		.byte	13
 8316 00a8 0C        		.byte	12
 8317 00a9 0B        		.byte	11
 8318 00aa 0B        		.byte	11
 8319 00ab 0A        		.byte	10
 8320 00ac 09        		.byte	9
 8321 00ad 09        		.byte	9
 8322 00ae 08        		.byte	8
 8323 00af 07        		.byte	7
 8324 00b0 07        		.byte	7
 8325 00b1 06        		.byte	6
 8326 00b2 06        		.byte	6
 8327 00b3 05        		.byte	5
 8328 00b4 05        		.byte	5
 8329 00b5 04        		.byte	4
 8330 00b6 04        		.byte	4
 8331 00b7 03        		.byte	3
 8332 00b8 03        		.byte	3
 8333 00b9 03        		.byte	3
 8334 00ba 03        		.byte	3
 8335 00bb 02        		.byte	2
 8336 00bc 02        		.byte	2
 8337 00bd 02        		.byte	2
 8338 00be 02        		.byte	2
 8339 00bf 02        		.byte	2
 8340 00c0 02        		.byte	2
 8341 00c1 02        		.byte	2
 8342 00c2 02        		.byte	2
 8343 00c3 02        		.byte	2
 8344 00c4 02        		.byte	2
 8345 00c5 02        		.byte	2
 8346 00c6 03        		.byte	3
 8347 00c7 03        		.byte	3
 8348 00c8 03        		.byte	3
 8349 00c9 03        		.byte	3
 8350 00ca 04        		.byte	4
 8351 00cb 04        		.byte	4
 8352 00cc 05        		.byte	5
 8353 00cd 05        		.byte	5
 8354 00ce 06        		.byte	6
 8355 00cf 06        		.byte	6
 8356 00d0 07        		.byte	7
 8357 00d1 07        		.byte	7
 8358 00d2 08        		.byte	8
 8359 00d3 09        		.byte	9
 8360 00d4 09        		.byte	9
 8361 00d5 0A        		.byte	10
 8362 00d6 0B        		.byte	11
 8363 00d7 0B        		.byte	11
 8364 00d8 0C        		.byte	12
 8365 00d9 0D        		.byte	13
 8366 00da 0E        		.byte	14
 8367 00db 0F        		.byte	15
 8368 00dc 10        		.byte	16
 8369 00dd 11        		.byte	17
 8370 00de 12        		.byte	18
 8371 00df 13        		.byte	19
 8372 00e0 14        		.byte	20
 8373 00e1 15        		.byte	21
 8374 00e2 16        		.byte	22
 8375 00e3 17        		.byte	23
 8376 00e4 18        		.byte	24
 8377 00e5 19        		.byte	25
 8378 00e6 1B        		.byte	27
 8379 00e7 1C        		.byte	28
 8380 00e8 1D        		.byte	29
 8381 00e9 1E        		.byte	30
 8382 00ea 20        		.byte	32
 8383 00eb 21        		.byte	33
 8384 00ec 22        		.byte	34
 8385 00ed 24        		.byte	36
 8386 00ee 25        		.byte	37
 8387 00ef 26        		.byte	38
 8388 00f0 28        		.byte	40
 8389 00f1 29        		.byte	41
 8390 00f2 2A        		.byte	42
 8391 00f3 2C        		.byte	44
 8392 00f4 2D        		.byte	45
 8393 00f5 2F        		.byte	47
 8394 00f6 30        		.byte	48
 8395 00f7 32        		.byte	50
 8396 00f8 33        		.byte	51
 8397 00f9 35        		.byte	53
 8398 00fa 36        		.byte	54
 8399 00fb 38        		.byte	56
 8400 00fc 39        		.byte	57
 8401 00fd 3B        		.byte	59
 8402 00fe 3C        		.byte	60
 8403 00ff 3E        		.byte	62
 8406               	progframe_diamond:
 8407 0100 00        		.byte	0
 8408 0101 00        		.byte	0
 8409 0102 00        		.byte	0
 8410 0103 18        		.byte	24
 8411 0104 18        		.byte	24
 8412 0105 00        		.byte	0
 8413 0106 00        		.byte	0
 8414 0107 00        		.byte	0
 8415 0108 00        		.byte	0
 8416 0109 00        		.byte	0
 8417 010a 18        		.byte	24
 8418 010b 24        		.byte	36
 8419 010c 24        		.byte	36
 8420 010d 18        		.byte	24
 8421 010e 00        		.byte	0
 8422 010f 00        		.byte	0
 8423 0110 00        		.byte	0
 8424 0111 18        		.byte	24
 8425 0112 24        		.byte	36
 8426 0113 42        		.byte	66
 8427 0114 42        		.byte	66
 8428 0115 24        		.byte	36
 8429 0116 18        		.byte	24
 8430 0117 00        		.byte	0
 8431 0118 18        		.byte	24
 8432 0119 24        		.byte	36
 8433 011a 42        		.byte	66
 8434 011b 81        		.byte	-127
 8435 011c 81        		.byte	-127
 8436 011d 42        		.byte	66
 8437 011e 24        		.byte	36
 8438 011f 18        		.byte	24
 8439 0120 18        		.byte	24
 8440 0121 24        		.byte	36
 8441 0122 42        		.byte	66
 8442 0123 81        		.byte	-127
 8443 0124 81        		.byte	-127
 8444 0125 42        		.byte	66
 8445 0126 24        		.byte	36
 8446 0127 18        		.byte	24
 8447 0128 00        		.byte	0
 8448 0129 18        		.byte	24
 8449 012a 24        		.byte	36
 8450 012b 42        		.byte	66
 8451 012c 42        		.byte	66
 8452 012d 24        		.byte	36
 8453 012e 18        		.byte	24
 8454 012f 00        		.byte	0
 8455 0130 00        		.byte	0
 8456 0131 00        		.byte	0
 8457 0132 18        		.byte	24
 8458 0133 24        		.byte	36
 8459 0134 24        		.byte	36
 8460 0135 18        		.byte	24
 8461 0136 00        		.byte	0
 8462 0137 00        		.byte	0
 8463 0138 00        		.byte	0
 8464 0139 00        		.byte	0
 8465 013a 00        		.byte	0
 8466 013b 18        		.byte	24
 8467 013c 18        		.byte	24
 8468 013d 00        		.byte	0
 8469 013e 00        		.byte	0
 8470 013f 00        		.byte	0
 8471               		.lcomm time,2
 8696               	.Letext0:
DEFINED SYMBOLS
                            *ABS*:00000000 pattern.c
C:\DOCUME~1\Mick\LOCALS~1\Temp/ccm1uNgP.s:2      *ABS*:0000003f __SREG__
C:\DOCUME~1\Mick\LOCALS~1\Temp/ccm1uNgP.s:3      *ABS*:0000003e __SP_H__
C:\DOCUME~1\Mick\LOCALS~1\Temp/ccm1uNgP.s:4      *ABS*:0000003d __SP_L__
C:\DOCUME~1\Mick\LOCALS~1\Temp/ccm1uNgP.s:5      *ABS*:00000034 __CCP__
C:\DOCUME~1\Mick\LOCALS~1\Temp/ccm1uNgP.s:6      *ABS*:00000000 __tmp_reg__
C:\DOCUME~1\Mick\LOCALS~1\Temp/ccm1uNgP.s:7      *ABS*:00000001 __zero_reg__
C:\DOCUME~1\Mick\LOCALS~1\Temp/ccm1uNgP.s:18     .text:00000000 pattern_tick
C:\DOCUME~1\Mick\LOCALS~1\Temp/ccm1uNgP.s:8118   .bss:00000016 time
C:\DOCUME~1\Mick\LOCALS~1\Temp/ccm1uNgP.s:38     .text:00000018 pattern_break
                             .bss:00000000 fallout
C:\DOCUME~1\Mick\LOCALS~1\Temp/ccm1uNgP.s:53     .text:00000020 pattern_duration_set
C:\DOCUME~1\Mick\LOCALS~1\Temp/ccm1uNgP.s:8116   .bss:00000001 duration
C:\DOCUME~1\Mick\LOCALS~1\Temp/ccm1uNgP.s:68     .text:0000002a point_rotate
C:\DOCUME~1\Mick\LOCALS~1\Temp/ccm1uNgP.s:302    .text:00000144 physical_plot
C:\DOCUME~1\Mick\LOCALS~1\Temp/ccm1uNgP.s:393    .text:000001c0 cube_draw
C:\DOCUME~1\Mick\LOCALS~1\Temp/ccm1uNgP.s:578    .text:000002fe pattern_text1_P
C:\DOCUME~1\Mick\LOCALS~1\Temp/ccm1uNgP.s:691    .text:000003b4 pattern_cube_stretch
C:\DOCUME~1\Mick\LOCALS~1\Temp/ccm1uNgP.s:1499   .text:000008b2 physical_process
C:\DOCUME~1\Mick\LOCALS~1\Temp/ccm1uNgP.s:8117   .bss:00000003 physical.3148
C:\DOCUME~1\Mick\LOCALS~1\Temp/ccm1uNgP.s:1615   .text:0000099a firework_init
C:\DOCUME~1\Mick\LOCALS~1\Temp/ccm1uNgP.s:1683   .text:000009f6 pattern_fireworks
C:\DOCUME~1\Mick\LOCALS~1\Temp/ccm1uNgP.s:2034   .text:00000c62 pattern_fountain
C:\DOCUME~1\Mick\LOCALS~1\Temp/ccm1uNgP.s:2369   .text:00000e88 pattern_rain1
C:\DOCUME~1\Mick\LOCALS~1\Temp/ccm1uNgP.s:8122   .data:00000000 C.63.3010
C:\DOCUME~1\Mick\LOCALS~1\Temp/ccm1uNgP.s:2728   .text:000010dc pattern_popcorn
C:\DOCUME~1\Mick\LOCALS~1\Temp/ccm1uNgP.s:3465   .text:00001590 pattern_noise_scroll
C:\DOCUME~1\Mick\LOCALS~1\Temp/ccm1uNgP.s:3544   .text:00001620 pattern_rotate1
C:\DOCUME~1\Mick\LOCALS~1\Temp/ccm1uNgP.s:4027   .text:000018e0 pattern_screw
C:\DOCUME~1\Mick\LOCALS~1\Temp/ccm1uNgP.s:4814   .text:00001ea0 pattern_waveup
C:\DOCUME~1\Mick\LOCALS~1\Temp/ccm1uNgP.s:5186   .text:000020ba pattern_spinface
C:\DOCUME~1\Mick\LOCALS~1\Temp/ccm1uNgP.s:5570   .text:0000236c pattern_flapsheet
C:\DOCUME~1\Mick\LOCALS~1\Temp/ccm1uNgP.s:8147   .progmem.data:00000000 sintable
C:\DOCUME~1\Mick\LOCALS~1\Temp/ccm1uNgP.s:6000   .text:0000260c pattern_wirecubediag
C:\DOCUME~1\Mick\LOCALS~1\Temp/ccm1uNgP.s:6443   .text:00002942 pattern_wirecube
C:\DOCUME~1\Mick\LOCALS~1\Temp/ccm1uNgP.s:6844   .text:00002c24 pattern_tesseract
C:\DOCUME~1\Mick\LOCALS~1\Temp/ccm1uNgP.s:7439   .text:0000308a pattern_cubewalls
C:\DOCUME~1\Mick\LOCALS~1\Temp/ccm1uNgP.s:7760   .text:000032cc pattern_diamond
C:\DOCUME~1\Mick\LOCALS~1\Temp/ccm1uNgP.s:8406   .progmem.data:00000100 progframe_diamond
C:\DOCUME~1\Mick\LOCALS~1\Temp/ccm1uNgP.s:8024   .text:0000349c pattern_diamond_scroll

UNDEFINED SYMBOLS
led_frame_bitmap
led_line
led_framerate
led_blank
led_plane_intensity_all
text_set_P
text_isfinished
text_draw_y
led_perimeter_left
led_waitframe
rand
led_point
__divmodhi4
led_frame_up
led_plane_y_left
led_perimeter_right
led_perimeter_up
led_perimeter_down
led_perimeter_clockwise
led_perimeter_anticlockwise
led_frame_left
led_frame_right
led_frame_down
led_frame_back
led_frame_forward
led_plane_intensity
memset
led_plane_x_back
led_plane_x_forward
led_plane_z_right
led_plane_z_left
__floatsisf
sqrt
__mulsf3
__fixunssfsi
clip_int
memcpy_P
__do_copy_data
__do_clear_bss
