   1               		.file	"sequence.c"
   2               	__SREG__ = 0x3f
   3               	__SP_H__ = 0x3e
   4               	__SP_L__ = 0x3d
   5               	__CCP__  = 0x34
   6               	__tmp_reg__ = 0
   7               	__zero_reg__ = 1
  15               	.Ltext0:
  16               	.global	sequence_tick
  18               	sequence_tick:
  19               	.LFB14:
  20               	.LM1:
  21               	/* prologue: function */
  22               	/* frame size = 0 */
  23               	.LM2:
  24 0000 8091 0000 		lds r24,time
  25 0004 9091 0000 		lds r25,(time)+1
  26 0008 0097      		sbiw r24,0
  27 000a 01F0      		breq .L3
  28               	.LM3:
  29 000c 0197      		sbiw r24,1
  30 000e 9093 0000 		sts (time)+1,r25
  31 0012 8093 0000 		sts time,r24
  32               	.L3:
  33 0016 0895      		ret
  34               	.LFE14:
  36               	.global	sequence_init
  38               	sequence_init:
  39               	.LFB15:
  40               	.LM4:
  41               	/* prologue: function */
  42               	/* frame size = 0 */
  43               	.LM5:
  44 0018 8091 0000 		lds r24,settings_ram+5
  45 001c 8093 0000 		sts sequence_index,r24
  46               	.LM6:
  47 0020 8091 0000 		lds r24,settings_ram+4
  48 0024 8093 0000 		sts mode_auto,r24
  49               	/* epilogue start */
  50               	.LM7:
  51 0028 0895      		ret
  52               	.LFE15:
  55               	menu_show:
  56               	.LFB25:
  57               	.LM8:
  58 002a 0F93      		push r16
  59 002c 1F93      		push r17
  60               	/* prologue: function */
  61               	/* frame size = 0 */
  62               	.LM9:
  63 002e 8091 0000 		lds r24,sequence_index
  64 0032 805D      		subi r24,lo8(-(48))
  65 0034 8093 0000 		sts text,r24
  66               	.LM10:
  67 0038 1092 0000 		sts text+1,__zero_reg__
  68               	.LM11:
  69 003c 80E0      		ldi r24,lo8(text)
  70 003e 90E0      		ldi r25,hi8(text)
  71 0040 0E94 0000 		call text_set
  72 0044 00E0      		ldi r16,lo8(0)
  73               	.LVL0:
  74 0046 00C0      		rjmp .L7
  75               	.LVL1:
  76               	.L8:
  77               	.LM12:
  78 0048 102F      		mov r17,r16
  79 004a 1F5F      		subi r17,lo8(-(1))
  80               	.LVL2:
  81 004c 802F      		mov r24,r16
  82 004e 61E0      		ldi r22,lo8(1)
  83 0050 40E0      		ldi r20,lo8(0)
  84 0052 0E94 0000 		call text_draw_y
  85 0056 012F      		mov r16,r17
  86               	.LVL3:
  87               	.L7:
  88               	.LM13:
  89 0058 0E94 0000 		call text_isfinished
  90 005c 8823      		tst r24
  91 005e 01F0      		breq .L8
  92               	.LM14:
  93 0060 E091 0000 		lds r30,sequence_index
  94 0064 F0E0      		ldi r31,lo8(0)
  95 0066 EE0F      		lsl r30
  96 0068 FF1F      		rol r31
  97 006a E050      		subi r30,lo8(-(sequence_info))
  98 006c F040      		sbci r31,hi8(-(sequence_info))
  99 006e 8081      		ld r24,Z
 100 0070 8823      		tst r24
 101 0072 01F4      		brne .L9
 102               	.LM15:
 103 0074 80E0      		ldi r24,lo8(__c.2426)
 104 0076 90E0      		ldi r25,hi8(__c.2426)
 105 0078 00C0      		rjmp .L14
 106               	.L9:
 107               	.LM16:
 108 007a 80E0      		ldi r24,lo8(__c.2428)
 109 007c 90E0      		ldi r25,hi8(__c.2428)
 110               	.L14:
 111 007e 0E94 0000 		call text_set_P
 112 0082 07E0      		ldi r16,lo8(7)
 113               	.LVL4:
 114 0084 00C0      		rjmp .L11
 115               	.LVL5:
 116               	.L12:
 117               	.LM17:
 118 0086 102F      		mov r17,r16
 119 0088 1150      		subi r17,lo8(-(-1))
 120               	.LVL6:
 121 008a 80E0      		ldi r24,lo8(0)
 122 008c 61E0      		ldi r22,lo8(1)
 123 008e 402F      		mov r20,r16
 124 0090 0E94 0000 		call text_draw_y
 125 0094 012F      		mov r16,r17
 126               	.LVL7:
 127               	.L11:
 128               	.LM18:
 129 0096 0E94 0000 		call text_isfinished
 130 009a 8823      		tst r24
 131 009c 01F0      		breq .L12
 132               	/* epilogue start */
 133               	.LM19:
 134 009e 1F91      		pop r17
 135 00a0 0F91      		pop r16
 136               	.LVL8:
 137 00a2 0895      		ret
 138               	.LFE25:
 140               	.global	sequence_menu
 142               	sequence_menu:
 143               	.LFB21:
 144               	.LM20:
 145 00a4 0F93      		push r16
 146 00a6 1F93      		push r17
 147 00a8 CF93      		push r28
 148 00aa DF93      		push r29
 149               	/* prologue: function */
 150               	/* frame size = 0 */
 151               	.LM21:
 152 00ac 8091 0000 		lds r24,button_select
 153 00b0 8823      		tst r24
 154 00b2 01F4      		brne .+2
 155 00b4 00C0      		rjmp .L33
 156               	.LM22:
 157 00b6 80E0      		ldi r24,lo8(__c.2229)
 158 00b8 90E0      		ldi r25,hi8(__c.2229)
 159 00ba 0E94 0000 		call uart1_tx_string_P
 160               	.LM23:
 161 00be 84E6      		ldi r24,lo8(100)
 162 00c0 90E0      		ldi r25,hi8(100)
 163 00c2 0E94 0000 		call led_framerate
 164               	.LM24:
 165 00c6 8FEF      		ldi r24,lo8(-1)
 166 00c8 0E94 0000 		call led_plane_intensity_all
 167               	.LM25:
 168 00cc 8FEF      		ldi r24,lo8(-1)
 169 00ce 0E94 0000 		call power_vled_set
 170               	.LM26:
 171 00d2 C7EB      		ldi r28,lo8(183)
 172 00d4 D0E0      		ldi r29,hi8(183)
 173               	.LVL9:
 174               	.L28:
 175               	.LM27:
 176 00d6 1092 0000 		sts button_select,__zero_reg__
 177               	.LM28:
 178 00da D093 0000 		sts (time)+1,r29
 179 00de C093 0000 		sts time,r28
 180               	.LM29:
 181 00e2 0E94 0000 		call led_blank
 182               	.LM30:
 183 00e6 8091 0000 		lds r24,mode_auto
 184 00ea 8823      		tst r24
 185 00ec 01F0      		breq .L17
 186               	.LM31:
 187 00ee 80E0      		ldi r24,lo8(__c.2231)
 188 00f0 90E0      		ldi r25,hi8(__c.2231)
 189 00f2 0E94 0000 		call text_set_P
 190 00f6 00E0      		ldi r16,lo8(0)
 191 00f8 00C0      		rjmp .L18
 192               	.LVL10:
 193               	.L19:
 194               	.LM32:
 195 00fa 102F      		mov r17,r16
 196 00fc 1F5F      		subi r17,lo8(-(1))
 197               	.LVL11:
 198 00fe 802F      		mov r24,r16
 199 0100 61E0      		ldi r22,lo8(1)
 200 0102 40E0      		ldi r20,lo8(0)
 201 0104 0E94 0000 		call text_draw_y
 202 0108 012F      		mov r16,r17
 203               	.LVL12:
 204               	.L18:
 205               	.LM33:
 206 010a 0E94 0000 		call text_isfinished
 207 010e 8823      		tst r24
 208 0110 01F0      		breq .L19
 209 0112 00C0      		rjmp .L35
 210               	.L17:
 211               	.LM34:
 212 0114 0E94 0000 		call menu_show
 213 0118 00C0      		rjmp .L35
 214               	.L22:
 215               	.LM35:
 216 011a 0E94 0000 		call main_fly
 217               	.L35:
 218               	.LM36:
 219 011e 8091 0000 		lds r24,button_select
 220 0122 8823      		tst r24
 221 0124 01F4      		brne .L21
 222 0126 8091 0000 		lds r24,time
 223 012a 9091 0000 		lds r25,(time)+1
 224 012e 892B      		or r24,r25
 225 0130 01F4      		brne .L22
 226 0132 00C0      		rjmp .L23
 227               	.L21:
 228               	.LM37:
 229 0134 8091 0000 		lds r24,mode_auto
 230 0138 8823      		tst r24
 231 013a 01F0      		breq .L24
 232               	.LM38:
 233 013c 1092 0000 		sts mode_auto,__zero_reg__
 234 0140 00C0      		rjmp .L25
 235               	.L24:
 236               	.LM39:
 237 0142 8091 0000 		lds r24,sequence_index
 238 0146 8F5F      		subi r24,lo8(-(1))
 239 0148 8093 0000 		sts sequence_index,r24
 240               	.LM40:
 241 014c 8430      		cpi r24,lo8(4)
 242 014e 01F4      		brne .L25
 243               	.LM41:
 244 0150 1092 0000 		sts sequence_index,__zero_reg__
 245               	.LM42:
 246 0154 81E0      		ldi r24,lo8(1)
 247 0156 8093 0000 		sts mode_auto,r24
 248               	.L25:
 249               	.LM43:
 250 015a 8091 0000 		lds r24,mode_auto
 251 015e 8823      		tst r24
 252 0160 01F0      		breq .L26
 253               	.LM44:
 254 0162 80E0      		ldi r24,lo8(__c.2239)
 255 0164 90E0      		ldi r25,hi8(__c.2239)
 256 0166 0E94 0000 		call uart1_tx_string_P
 257               	.LM45:
 258 016a 8091 0000 		lds r24,settings_ram+3
 259 016e 90E0      		ldi r25,lo8(0)
 260 0170 60E0      		ldi r22,lo8(text)
 261 0172 70E0      		ldi r23,hi8(text)
 262 0174 4AE0      		ldi r20,lo8(10)
 263 0176 50E0      		ldi r21,hi8(10)
 264 0178 0E94 0000 		call itoa
 265 017c 0E94 0000 		call uart1_tx_string
 266               	.LM46:
 267 0180 80E0      		ldi r24,lo8(__c.2241)
 268 0182 90E0      		ldi r25,hi8(__c.2241)
 269 0184 0E94 0000 		call uart1_tx_string_P
 270               	.LM47:
 271 0188 8091 0000 		lds r24,settings_ram+2
 272 018c 90E0      		ldi r25,lo8(0)
 273 018e 60E0      		ldi r22,lo8(text)
 274 0190 70E0      		ldi r23,hi8(text)
 275 0192 4AE0      		ldi r20,lo8(10)
 276 0194 50E0      		ldi r21,hi8(10)
 277 0196 0E94 0000 		call itoa
 278 019a 0E94 0000 		call uart1_tx_string
 279               	.LM48:
 280 019e 80E0      		ldi r24,lo8(__c.2243)
 281 01a0 90E0      		ldi r25,hi8(__c.2243)
 282 01a2 00C0      		rjmp .L36
 283               	.L26:
 284               	.LM49:
 285 01a4 80E0      		ldi r24,lo8(__c.2245)
 286 01a6 90E0      		ldi r25,hi8(__c.2245)
 287 01a8 0E94 0000 		call uart1_tx_string_P
 288               	.LM50:
 289 01ac 8091 0000 		lds r24,sequence_index
 290 01b0 90E0      		ldi r25,lo8(0)
 291 01b2 60E0      		ldi r22,lo8(text)
 292 01b4 70E0      		ldi r23,hi8(text)
 293 01b6 4AE0      		ldi r20,lo8(10)
 294 01b8 50E0      		ldi r21,hi8(10)
 295 01ba 0E94 0000 		call itoa
 296 01be 0E94 0000 		call uart1_tx_string
 297               	.LM51:
 298 01c2 E091 0000 		lds r30,sequence_index
 299 01c6 F0E0      		ldi r31,lo8(0)
 300 01c8 EE0F      		lsl r30
 301 01ca FF1F      		rol r31
 302 01cc E050      		subi r30,lo8(-(sequence_info))
 303 01ce F040      		sbci r31,hi8(-(sequence_info))
 304 01d0 8081      		ld r24,Z
 305 01d2 8823      		tst r24
 306 01d4 01F4      		brne .L27
 307               	.LM52:
 308 01d6 80E0      		ldi r24,lo8(__c.2247)
 309 01d8 90E0      		ldi r25,hi8(__c.2247)
 310 01da 00C0      		rjmp .L36
 311               	.L27:
 312               	.LM53:
 313 01dc 80E0      		ldi r24,lo8(__c.2249)
 314 01de 90E0      		ldi r25,hi8(__c.2249)
 315               	.L36:
 316 01e0 0E94 0000 		call uart1_tx_string_P
 317               	.L23:
 318               	.LM54:
 319 01e4 8091 0000 		lds r24,time
 320 01e8 9091 0000 		lds r25,(time)+1
 321 01ec 892B      		or r24,r25
 322 01ee 01F0      		breq .+2
 323 01f0 00C0      		rjmp .L28
 324               	.LM55:
 325 01f2 8091 0000 		lds r24,mode_auto
 326 01f6 8823      		tst r24
 327 01f8 01F4      		brne .L29
 328               	.LM56:
 329 01fa 80E0      		ldi r24,lo8(__c.2253)
 330 01fc 90E0      		ldi r25,hi8(__c.2253)
 331 01fe 0E94 0000 		call uart1_tx_string_P
 332               	.LM57:
 333 0202 E091 0000 		lds r30,sequence_index
 334 0206 F0E0      		ldi r31,lo8(0)
 335 0208 EE0F      		lsl r30
 336 020a FF1F      		rol r31
 337 020c E050      		subi r30,lo8(-(sequence_info))
 338 020e F040      		sbci r31,hi8(-(sequence_info))
 339 0210 8081      		ld r24,Z
 340 0212 8823      		tst r24
 341 0214 01F4      		brne .L30
 342               	.LM58:
 343 0216 80E0      		ldi r24,lo8(__c.2255)
 344 0218 90E0      		ldi r25,hi8(__c.2255)
 345 021a 0E94 0000 		call uart1_tx_string_P
 346               	.LM59:
 347 021e 8091 0000 		lds r24,sequence_index
 348 0222 8093 0000 		sts settings_ram+3,r24
 349 0226 00C0      		rjmp .L31
 350               	.L30:
 351               	.LM60:
 352 0228 80E0      		ldi r24,lo8(__c.2257)
 353 022a 90E0      		ldi r25,hi8(__c.2257)
 354 022c 0E94 0000 		call uart1_tx_string_P
 355               	.LM61:
 356 0230 8091 0000 		lds r24,sequence_index
 357 0234 8093 0000 		sts settings_ram+2,r24
 358               	.L31:
 359               	.LM62:
 360 0238 80E0      		ldi r24,lo8(__c.2259)
 361 023a 90E0      		ldi r25,hi8(__c.2259)
 362 023c 0E94 0000 		call uart1_tx_string_P
 363               	.LM63:
 364 0240 8091 0000 		lds r24,sequence_index
 365 0244 90E0      		ldi r25,lo8(0)
 366 0246 60E0      		ldi r22,lo8(text)
 367 0248 70E0      		ldi r23,hi8(text)
 368 024a 4AE0      		ldi r20,lo8(10)
 369 024c 50E0      		ldi r21,hi8(10)
 370 024e 0E94 0000 		call itoa
 371 0252 0E94 0000 		call uart1_tx_string
 372               	.LM64:
 373 0256 80E0      		ldi r24,lo8(__c.2261)
 374 0258 90E0      		ldi r25,hi8(__c.2261)
 375 025a 0E94 0000 		call uart1_tx_string_P
 376               	.LM65:
 377 025e 8091 0000 		lds r24,sequence_index
 378 0262 8093 0000 		sts settings_ram+5,r24
 379               	.LM66:
 380 0266 1092 0000 		sts settings_ram+4,__zero_reg__
 381 026a 00C0      		rjmp .L32
 382               	.L29:
 383               	.LM67:
 384 026c 81E0      		ldi r24,lo8(1)
 385 026e 8093 0000 		sts settings_ram+4,r24
 386               	.LM68:
 387 0272 8093 0000 		sts forced_measure,r24
 388               	.L32:
 389               	.LM69:
 390 0276 0E94 0000 		call settings_save
 391               	.L33:
 392               	/* epilogue start */
 393               	.LM70:
 394 027a DF91      		pop r29
 395 027c CF91      		pop r28
 396 027e 1F91      		pop r17
 397 0280 0F91      		pop r16
 398               	.LVL13:
 399 0282 0895      		ret
 400               	.LFE21:
 402               	.global	sequence_run
 404               	sequence_run:
 405               	.LFB22:
 406               	.LM71:
 407 0284 5F92      		push r5
 408 0286 6F92      		push r6
 409 0288 7F92      		push r7
 410 028a 8F92      		push r8
 411 028c 9F92      		push r9
 412 028e AF92      		push r10
 413 0290 BF92      		push r11
 414 0292 CF92      		push r12
 415 0294 DF92      		push r13
 416 0296 EF92      		push r14
 417 0298 FF92      		push r15
 418 029a 0F93      		push r16
 419 029c 1F93      		push r17
 420 029e CF93      		push r28
 421 02a0 DF93      		push r29
 422               	/* prologue: function */
 423               	/* frame size = 0 */
 424               	.LM72:
 425 02a2 1092 0000 		sts seq_quit,__zero_reg__
 426               	.LM73:
 427 02a6 8091 0000 		lds r24,forced_measure
 428 02aa 8823      		tst r24
 429 02ac 01F0      		breq .L38
 430 02ae 8091 0000 		lds r24,mode_auto
 431 02b2 8823      		tst r24
 432 02b4 01F0      		breq .+2
 433 02b6 00C0      		rjmp .L119
 434               	.L38:
 435               	.LM74:
 436 02b8 80E0      		ldi r24,lo8(__c.2287)
 437 02ba 90E0      		ldi r25,hi8(__c.2287)
 438 02bc 0E94 0000 		call uart1_tx_string_P
 439               	.LM75:
 440 02c0 8091 0000 		lds r24,sequence_index
 441 02c4 90E0      		ldi r25,lo8(0)
 442 02c6 60E0      		ldi r22,lo8(text)
 443 02c8 70E0      		ldi r23,hi8(text)
 444 02ca 4AE0      		ldi r20,lo8(10)
 445 02cc 50E0      		ldi r21,hi8(10)
 446 02ce 0E94 0000 		call itoa
 447 02d2 0E94 0000 		call uart1_tx_string
 448               	.LM76:
 449 02d6 80E0      		ldi r24,lo8(__c.2289)
 450 02d8 90E0      		ldi r25,hi8(__c.2289)
 451 02da 0E94 0000 		call uart1_tx_string_P
 452               	.LM77:
 453 02de E091 0000 		lds r30,sequence_index
 454 02e2 F0E0      		ldi r31,lo8(0)
 455 02e4 EE0F      		lsl r30
 456 02e6 FF1F      		rol r31
 457 02e8 E050      		subi r30,lo8(-(sequence_info))
 458 02ea F040      		sbci r31,hi8(-(sequence_info))
 459 02ec 8081      		ld r24,Z
 460 02ee 8823      		tst r24
 461 02f0 01F4      		brne .L40
 462               	.LM78:
 463 02f2 80E0      		ldi r24,lo8(__c.2291)
 464 02f4 90E0      		ldi r25,hi8(__c.2291)
 465 02f6 00C0      		rjmp .L118
 466               	.L40:
 467               	.LM79:
 468 02f8 80E0      		ldi r24,lo8(__c.2293)
 469 02fa 90E0      		ldi r25,hi8(__c.2293)
 470               	.L118:
 471 02fc 0E94 0000 		call uart1_tx_string_P
 472               	.LM80:
 473 0300 E091 0000 		lds r30,sequence_index
 474 0304 F0E0      		ldi r31,lo8(0)
 475 0306 EE0F      		lsl r30
 476 0308 FF1F      		rol r31
 477 030a E050      		subi r30,lo8(-(sequence_info))
 478 030c F040      		sbci r31,hi8(-(sequence_info))
 479 030e 8181      		ldd r24,Z+1
 480 0310 90E0      		ldi r25,lo8(0)
 481 0312 60E0      		ldi r22,lo8(text)
 482 0314 70E0      		ldi r23,hi8(text)
 483 0316 4AE0      		ldi r20,lo8(10)
 484 0318 50E0      		ldi r21,hi8(10)
 485 031a 0E94 0000 		call itoa
 486 031e 0E94 0000 		call uart1_tx_string
 487               	.LM81:
 488 0322 80E0      		ldi r24,lo8(__c.2295)
 489 0324 90E0      		ldi r25,hi8(__c.2295)
 490 0326 0E94 0000 		call uart1_tx_string_P
 491               	.LM82:
 492 032a 80E0      		ldi r24,lo8(__c.2297)
 493 032c 90E0      		ldi r25,hi8(__c.2297)
 494 032e 0E94 0000 		call uart1_tx_string_P
 495               	.LM83:
 496 0332 8091 0000 		lds r24,sequence_index
 497 0336 90E0      		ldi r25,lo8(0)
 498 0338 FC01      		movw r30,r24
 499 033a EE0F      		lsl r30
 500 033c FF1F      		rol r31
 501 033e E80F      		add r30,r24
 502 0340 F91F      		adc r31,r25
 503 0342 E050      		subi r30,lo8(-(settings_ram))
 504 0344 F040      		sbci r31,hi8(-(settings_ram))
 505 0346 8285      		ldd r24,Z+10
 506 0348 90E0      		ldi r25,lo8(0)
 507 034a 60E0      		ldi r22,lo8(text)
 508 034c 70E0      		ldi r23,hi8(text)
 509 034e 4AE0      		ldi r20,lo8(10)
 510 0350 50E0      		ldi r21,hi8(10)
 511 0352 0E94 0000 		call itoa
 512 0356 0E94 0000 		call uart1_tx_string
 513               	.LM84:
 514 035a 80E0      		ldi r24,lo8(__c.2299)
 515 035c 90E0      		ldi r25,hi8(__c.2299)
 516 035e 0E94 0000 		call uart1_tx_string_P
 517               	.LM85:
 518 0362 80E0      		ldi r24,lo8(__c.2301)
 519 0364 90E0      		ldi r25,hi8(__c.2301)
 520 0366 0E94 0000 		call uart1_tx_string_P
 521               	.LM86:
 522 036a 8091 0000 		lds r24,sequence_index
 523 036e 90E0      		ldi r25,lo8(0)
 524 0370 FC01      		movw r30,r24
 525 0372 EE0F      		lsl r30
 526 0374 FF1F      		rol r31
 527 0376 E80F      		add r30,r24
 528 0378 F91F      		adc r31,r25
 529 037a E050      		subi r30,lo8(-(settings_ram))
 530 037c F040      		sbci r31,hi8(-(settings_ram))
 531 037e 8385      		ldd r24,Z+11
 532 0380 8823      		tst r24
 533 0382 01F0      		breq .L42
 534               	.LM87:
 535 0384 80E0      		ldi r24,lo8(__c.2303)
 536 0386 90E0      		ldi r25,hi8(__c.2303)
 537 0388 0E94 0000 		call uart1_tx_string_P
 538               	.L119:
 539 038c BB24      		clr r11
 540               	.LVL14:
 541 038e 00C0      		rjmp .L39
 542               	.LVL15:
 543               	.L42:
 544               	.LM88:
 545 0390 B484      		ldd r11,Z+12
 546               	.LVL16:
 547               	.LM89:
 548 0392 80E0      		ldi r24,lo8(__c.2305)
 549 0394 90E0      		ldi r25,hi8(__c.2305)
 550 0396 0E94 0000 		call uart1_tx_string_P
 551               	.LM90:
 552 039a 8B2D      		mov r24,r11
 553 039c 90E0      		ldi r25,lo8(0)
 554 039e 60E0      		ldi r22,lo8(text)
 555 03a0 70E0      		ldi r23,hi8(text)
 556 03a2 4AE0      		ldi r20,lo8(10)
 557 03a4 50E0      		ldi r21,hi8(10)
 558 03a6 0E94 0000 		call itoa
 559 03aa 0E94 0000 		call uart1_tx_string
 560               	.LM91:
 561 03ae 80E0      		ldi r24,lo8(__c.2307)
 562 03b0 90E0      		ldi r25,hi8(__c.2307)
 563 03b2 0E94 0000 		call uart1_tx_string_P
 564               	.L39:
 565               	.LM92:
 566 03b6 8091 0000 		lds r24,sequence_index
 567 03ba 90E0      		ldi r25,lo8(0)
 568 03bc FC01      		movw r30,r24
 569 03be EE0F      		lsl r30
 570 03c0 FF1F      		rol r31
 571 03c2 E80F      		add r30,r24
 572 03c4 F91F      		adc r31,r25
 573 03c6 E050      		subi r30,lo8(-(settings_ram))
 574 03c8 F040      		sbci r31,hi8(-(settings_ram))
 575 03ca 8285      		ldd r24,Z+10
 576 03cc 0E94 0000 		call power_vled_set
 577 03d0 AA24      		clr r10
 578               	.LVL17:
 579               	.LM93:
 580 03d2 7EE1      		ldi r23,lo8(30)
 581 03d4 672E      		mov r6,r23
 582 03d6 712C      		mov r7,__zero_reg__
 583               	.LM94:
 584 03d8 5524      		clr r5
 585 03da 5394      		inc r5
 586               	.LVL18:
 587               	.LBB81:
 588               	.LBB82:
 589               	.LM95:
 590 03dc 67E0      		ldi r22,lo8(7)
 591 03de 862E      		mov r8,r22
 592 03e0 912C      		mov r9,__zero_reg__
 593               	.LVL19:
 594               	.L111:
 595               	.LBE82:
 596               	.LBE81:
 597               	.LM96:
 598 03e2 8091 0000 		lds r24,mode_auto
 599 03e6 8823      		tst r24
 600 03e8 01F4      		brne .+2
 601 03ea 00C0      		rjmp .L43
 602 03ec AA20      		tst r10
 603 03ee 01F0      		breq .+2
 604 03f0 00C0      		rjmp .L43
 605               	.LM97:
 606 03f2 0E94 0000 		call a2d_light
 607 03f6 EC01      		movw r28,r24
 608               	.LM98:
 609 03f8 80E0      		ldi r24,lo8(__c.2309)
 610 03fa 90E0      		ldi r25,hi8(__c.2309)
 611 03fc 0E94 0000 		call uart1_tx_string_P
 612               	.LM99:
 613 0400 CE01      		movw r24,r28
 614 0402 60E0      		ldi r22,lo8(text)
 615 0404 70E0      		ldi r23,hi8(text)
 616 0406 4AE0      		ldi r20,lo8(10)
 617 0408 50E0      		ldi r21,hi8(10)
 618 040a 0E94 0000 		call itoa
 619 040e 0E94 0000 		call uart1_tx_string
 620               	.LM100:
 621 0412 8091 0000 		lds r24,forced_measure
 622 0416 8823      		tst r24
 623 0418 01F0      		breq .L44
 624               	.LM101:
 625 041a 1092 0000 		sts forced_measure,__zero_reg__
 626               	.LM102:
 627 041e 80E0      		ldi r24,lo8(__c.2311)
 628 0420 90E0      		ldi r25,hi8(__c.2311)
 629 0422 0E94 0000 		call uart1_tx_string_P
 630               	.LM103:
 631 0426 8091 0000 		lds r24,settings_ram+8
 632 042a 9091 0000 		lds r25,(settings_ram+8)+1
 633 042e 2091 0000 		lds r18,settings_ram+6
 634 0432 3091 0000 		lds r19,(settings_ram+6)+1
 635 0436 820F      		add r24,r18
 636 0438 931F      		adc r25,r19
 637 043a 9695      		lsr r25
 638 043c 8795      		ror r24
 639 043e C817      		cp r28,r24
 640 0440 D907      		cpc r29,r25
 641 0442 00F4      		brsh .L45
 642               	.LM104:
 643 0444 8091 0000 		lds r24,settings_ram+2
 644 0448 8093 0000 		sts sequence_index,r24
 645               	.LM105:
 646 044c 80E0      		ldi r24,lo8(__c.2313)
 647 044e 90E0      		ldi r25,hi8(__c.2313)
 648 0450 00C0      		rjmp .L120
 649               	.L45:
 650               	.LM106:
 651 0452 8091 0000 		lds r24,settings_ram+3
 652 0456 8093 0000 		sts sequence_index,r24
 653               	.LM107:
 654 045a 80E0      		ldi r24,lo8(__c.2315)
 655 045c 90E0      		ldi r25,hi8(__c.2315)
 656               	.L120:
 657 045e 0E94 0000 		call uart1_tx_string_P
 658               	.LM108:
 659 0462 80E0      		ldi r24,lo8(__c.2317)
 660 0464 90E0      		ldi r25,hi8(__c.2317)
 661 0466 00C0      		rjmp .L121
 662               	.L44:
 663               	.LM109:
 664 0468 E091 0000 		lds r30,sequence_index
 665 046c F0E0      		ldi r31,lo8(0)
 666 046e EE0F      		lsl r30
 667 0470 FF1F      		rol r31
 668 0472 E050      		subi r30,lo8(-(sequence_info))
 669 0474 F040      		sbci r31,hi8(-(sequence_info))
 670 0476 8081      		ld r24,Z
 671 0478 8823      		tst r24
 672 047a 01F4      		brne .L48
 673               	.LM110:
 674 047c 8091 0000 		lds r24,settings_ram+6
 675 0480 9091 0000 		lds r25,(settings_ram+6)+1
 676 0484 C817      		cp r28,r24
 677 0486 D907      		cpc r29,r25
 678 0488 00F4      		brsh .L49
 679               	.LM111:
 680 048a 8091 0000 		lds r24,settings_ram+2
 681 048e 8093 0000 		sts sequence_index,r24
 682               	.LM112:
 683 0492 80E0      		ldi r24,lo8(__c.2319)
 684 0494 90E0      		ldi r25,hi8(__c.2319)
 685               	.L121:
 686 0496 0E94 0000 		call uart1_tx_string_P
 687               	.LM113:
 688 049a 8091 0000 		lds r24,sequence_index
 689 049e 90E0      		ldi r25,lo8(0)
 690 04a0 60E0      		ldi r22,lo8(text)
 691 04a2 70E0      		ldi r23,hi8(text)
 692 04a4 4AE0      		ldi r20,lo8(10)
 693 04a6 50E0      		ldi r21,hi8(10)
 694 04a8 0E94 0000 		call itoa
 695 04ac 0E94 0000 		call uart1_tx_string
 696 04b0 11E0      		ldi r17,lo8(1)
 697               	.LVL20:
 698 04b2 00C0      		rjmp .L47
 699               	.LVL21:
 700               	.L49:
 701               	.LM114:
 702 04b4 80E0      		ldi r24,lo8(__c.2321)
 703 04b6 90E0      		ldi r25,hi8(__c.2321)
 704 04b8 00C0      		rjmp .L122
 705               	.L48:
 706               	.LM115:
 707 04ba 8091 0000 		lds r24,settings_ram+8
 708 04be 9091 0000 		lds r25,(settings_ram+8)+1
 709 04c2 8C17      		cp r24,r28
 710 04c4 9D07      		cpc r25,r29
 711 04c6 00F4      		brsh .L50
 712               	.LM116:
 713 04c8 8091 0000 		lds r24,settings_ram+3
 714 04cc 8093 0000 		sts sequence_index,r24
 715               	.LM117:
 716 04d0 80E0      		ldi r24,lo8(__c.2323)
 717 04d2 90E0      		ldi r25,hi8(__c.2323)
 718 04d4 00C0      		rjmp .L121
 719               	.L50:
 720               	.LM118:
 721 04d6 80E0      		ldi r24,lo8(__c.2325)
 722 04d8 90E0      		ldi r25,hi8(__c.2325)
 723               	.L122:
 724 04da 0E94 0000 		call uart1_tx_string_P
 725 04de 10E0      		ldi r17,lo8(0)
 726               	.LVL22:
 727               	.L47:
 728               	.LM119:
 729 04e0 80E0      		ldi r24,lo8(__c.2327)
 730 04e2 90E0      		ldi r25,hi8(__c.2327)
 731 04e4 0E94 0000 		call uart1_tx_string_P
 732               	.LM120:
 733 04e8 1123      		tst r17
 734 04ea 01F0      		breq .L43
 735               	.LM121:
 736 04ec 84E6      		ldi r24,lo8(100)
 737 04ee 90E0      		ldi r25,hi8(100)
 738 04f0 0E94 0000 		call led_framerate
 739               	.LM122:
 740 04f4 8FEF      		ldi r24,lo8(-1)
 741 04f6 0E94 0000 		call led_plane_intensity_all
 742               	.LM123:
 743 04fa 8FEF      		ldi r24,lo8(-1)
 744 04fc 0E94 0000 		call power_vled_set
 745               	.LM124:
 746 0500 0E94 0000 		call menu_show
 747               	.LM125:
 748 0504 7092 0000 		sts (time)+1,r7
 749 0508 6092 0000 		sts time,r6
 750 050c 00C0      		rjmp .L51
 751               	.L52:
 752               	.LM126:
 753 050e 0E94 0000 		call main_fly
 754               	.L51:
 755               	.LM127:
 756 0512 8091 0000 		lds r24,time
 757 0516 9091 0000 		lds r25,(time)+1
 758 051a 892B      		or r24,r25
 759 051c 01F4      		brne .L52
 760 051e DD24      		clr r13
 761 0520 D394      		inc r13
 762               	.LVL23:
 763 0522 00C0      		rjmp .L53
 764               	.LVL24:
 765               	.L43:
 766               	.LM128:
 767 0524 2091 0000 		lds r18,sequence_index
 768 0528 822F      		mov r24,r18
 769 052a 90E0      		ldi r25,lo8(0)
 770 052c FC01      		movw r30,r24
 771 052e EE0F      		lsl r30
 772 0530 FF1F      		rol r31
 773 0532 E80F      		add r30,r24
 774 0534 F91F      		adc r31,r25
 775 0536 E050      		subi r30,lo8(-(settings_ram))
 776 0538 F040      		sbci r31,hi8(-(settings_ram))
 777 053a 8385      		ldd r24,Z+11
 778 053c 8823      		tst r24
 779 053e 01F0      		breq .L54
 780               	.LM129:
 781 0540 2130      		cpi r18,lo8(1)
 782 0542 01F0      		breq .L57
 783 0544 2130      		cpi r18,lo8(1)
 784 0546 00F0      		brlo .L56
 785 0548 2230      		cpi r18,lo8(2)
 786 054a 01F0      		breq .L58
 787 054c 2330      		cpi r18,lo8(3)
 788 054e 01F4      		brne .L55
 789 0550 00C0      		rjmp .L126
 790               	.L56:
 791               	.LM130:
 792 0552 EB2D      		mov r30,r11
 793 0554 F0E0      		ldi r31,lo8(0)
 794               	.LVL25:
 795 0556 EE0F      		lsl r30
 796 0558 FF1F      		rol r31
 797               	.LVL26:
 798 055a E050      		subi r30,lo8(-(sequence_0_times))
 799 055c F040      		sbci r31,hi8(-(sequence_0_times))
 800               	.LVL27:
 801 055e 00C0      		rjmp .L124
 802               	.LVL28:
 803               	.L57:
 804               	.LM131:
 805 0560 EB2D      		mov r30,r11
 806 0562 F0E0      		ldi r31,lo8(0)
 807               	.LVL29:
 808 0564 EE0F      		lsl r30
 809 0566 FF1F      		rol r31
 810               	.LVL30:
 811 0568 E050      		subi r30,lo8(-(sequence_1_times))
 812 056a F040      		sbci r31,hi8(-(sequence_1_times))
 813               	.LVL31:
 814               	.L124:
 815 056c 8081      		ld r24,Z
 816 056e 9181      		ldd r25,Z+1
 817 0570 00C0      		rjmp .L123
 818               	.LVL32:
 819               	.L58:
 820               	.LM132:
 821 0572 EB2D      		mov r30,r11
 822 0574 F0E0      		ldi r31,lo8(0)
 823               	.LVL33:
 824 0576 EE0F      		lsl r30
 825 0578 FF1F      		rol r31
 826               	.LVL34:
 827 057a E050      		subi r30,lo8(-(sequence_2_times))
 828 057c F040      		sbci r31,hi8(-(sequence_2_times))
 829               	.LVL35:
 830 057e 00C0      		rjmp .L124
 831               	.LVL36:
 832               	.L126:
 833               	.LM133:
 834 0580 EB2D      		mov r30,r11
 835 0582 F0E0      		ldi r31,lo8(0)
 836               	.LVL37:
 837 0584 EE0F      		lsl r30
 838 0586 FF1F      		rol r31
 839               	.LVL38:
 840 0588 E050      		subi r30,lo8(-(sequence_3_times))
 841 058a F040      		sbci r31,hi8(-(sequence_3_times))
 842               	.LVL39:
 843 058c 00C0      		rjmp .L124
 844               	.LVL40:
 845               	.L54:
 846               	.LM134:
 847 058e 8091 0000 		lds r24,mode_auto
 848 0592 8823      		tst r24
 849 0594 01F0      		breq .L60
 850               	.LM135:
 851 0596 87E2      		ldi r24,lo8(1831)
 852 0598 97E0      		ldi r25,hi8(1831)
 853 059a 00C0      		rjmp .L123
 854               	.L60:
 855               	.LM136:
 856 059c 80E0      		ldi r24,lo8(0)
 857 059e 90E0      		ldi r25,hi8(0)
 858               	.LVL41:
 859               	.L123:
 860 05a0 0E94 0000 		call pattern_duration_set
 861               	.LVL42:
 862               	.L55:
 863               	.LM137:
 864 05a4 80E0      		ldi r24,lo8(__c.2337)
 865 05a6 90E0      		ldi r25,hi8(__c.2337)
 866 05a8 0E94 0000 		call uart1_tx_string_P
 867               	.LM138:
 868 05ac 8B2D      		mov r24,r11
 869 05ae 90E0      		ldi r25,lo8(0)
 870 05b0 60E0      		ldi r22,lo8(text)
 871 05b2 70E0      		ldi r23,hi8(text)
 872 05b4 4AE0      		ldi r20,lo8(10)
 873 05b6 50E0      		ldi r21,hi8(10)
 874 05b8 0E94 0000 		call itoa
 875 05bc 0E94 0000 		call uart1_tx_string
 876               	.LM139:
 877 05c0 80E0      		ldi r24,lo8(__c.2339)
 878 05c2 90E0      		ldi r25,hi8(__c.2339)
 879 05c4 0E94 0000 		call uart1_tx_string_P
 880               	.LM140:
 881 05c8 8091 0000 		lds r24,sequence_index
 882 05cc 8130      		cpi r24,lo8(1)
 883 05ce 01F4      		brne .+2
 884 05d0 00C0      		rjmp .L63
 885 05d2 8130      		cpi r24,lo8(1)
 886 05d4 00F0      		brlo .L62
 887 05d6 8230      		cpi r24,lo8(2)
 888 05d8 01F4      		brne .+2
 889 05da 00C0      		rjmp .L64
 890 05dc 8330      		cpi r24,lo8(3)
 891 05de 01F0      		breq .+2
 892 05e0 00C0      		rjmp .L61
 893 05e2 00C0      		rjmp .L127
 894               	.L62:
 895               	.LBB84:
 896               	.LBB85:
 897               	.LM141:
 898 05e4 86E0      		ldi r24,lo8(6)
 899 05e6 B816      		cp r11,r24
 900 05e8 01F4      		brne .+2
 901 05ea 00C0      		rjmp .L86
 902 05ec 8B15      		cp r24,r11
 903 05ee 00F0      		brlo .L79
 904 05f0 82E0      		ldi r24,lo8(2)
 905 05f2 B816      		cp r11,r24
 906 05f4 01F4      		brne .+2
 907 05f6 00C0      		rjmp .L117
 908 05f8 8B15      		cp r24,r11
 909 05fa 00F0      		brlo .L80
 910 05fc BB20      		tst r11
 911 05fe 01F0      		breq .L66
 912 0600 81E0      		ldi r24,lo8(1)
 913 0602 B816      		cp r11,r24
 914 0604 01F0      		breq .+2
 915 0606 00C0      		rjmp .L61
 916 0608 00C0      		rjmp .L128
 917               	.L80:
 918 060a 84E0      		ldi r24,lo8(4)
 919 060c B816      		cp r11,r24
 920 060e 01F4      		brne .+2
 921 0610 00C0      		rjmp .L99
 922 0612 8B15      		cp r24,r11
 923 0614 00F4      		brsh .+2
 924 0616 00C0      		rjmp .L97
 925 0618 00C0      		rjmp .L83
 926               	.L79:
 927 061a 89E0      		ldi r24,lo8(9)
 928 061c B816      		cp r11,r24
 929 061e 01F4      		brne .+2
 930 0620 00C0      		rjmp .L98
 931 0622 8B15      		cp r24,r11
 932 0624 00F0      		brlo .L81
 933 0626 87E0      		ldi r24,lo8(7)
 934 0628 B816      		cp r11,r24
 935 062a 01F0      		breq .L73
 936 062c 88E0      		ldi r24,lo8(8)
 937 062e B816      		cp r11,r24
 938 0630 01F0      		breq .+2
 939 0632 00C0      		rjmp .L61
 940 0634 00C0      		rjmp .L129
 941               	.L81:
 942 0636 8BE0      		ldi r24,lo8(11)
 943 0638 B816      		cp r11,r24
 944 063a 01F4      		brne .+2
 945 063c 00C0      		rjmp .L88
 946 063e B816      		cp r11,r24
 947 0640 00F0      		brlo .L76
 948 0642 8CE0      		ldi r24,lo8(12)
 949 0644 B816      		cp r11,r24
 950 0646 01F0      		breq .+2
 951 0648 00C0      		rjmp .L61
 952 064a 00C0      		rjmp .L130
 953               	.L66:
 954               	.LM142:
 955 064c 8FEF      		ldi r24,lo8(255)
 956 064e 90E0      		ldi r25,hi8(255)
 957 0650 61E0      		ldi r22,lo8(1)
 958 0652 70E0      		ldi r23,hi8(1)
 959 0654 40E2      		ldi r20,lo8(32)
 960 0656 50E0      		ldi r21,hi8(32)
 961 0658 00C0      		rjmp .L125
 962               	.L128:
 963               	.LM143:
 964 065a 0E94 0000 		call pattern_diamond_scroll
 965 065e 00C0      		rjmp .L61
 966               	.L73:
 967               	.LM144:
 968 0660 0E94 0000 		call pattern_fountain
 969 0664 00C0      		rjmp .L61
 970               	.L129:
 971               	.LM145:
 972 0666 0E94 0000 		call pattern_spinface
 973 066a 00C0      		rjmp .L61
 974               	.L76:
 975               	.LBE85:
 976               	.LM146:
 977 066c 80E0      		ldi r24,lo8(__c.2456)
 978 066e 90E0      		ldi r25,hi8(__c.2456)
 979 0670 0E94 0000 		call pattern_text1_P
 980 0674 00C0      		rjmp .L61
 981               	.L130:
 982               	.LBB86:
 983               	.LM147:
 984 0676 0E94 0000 		call pattern_fireworks
 985 067a 00C0      		rjmp .L61
 986               	.L63:
 987               	.LBE86:
 988               	.LBE84:
 989               	.LBB87:
 990               	.LBB88:
 991               	.LM148:
 992 067c 83E0      		ldi r24,lo8(3)
 993 067e B816      		cp r11,r24
 994 0680 01F4      		brne .+2
 995 0682 00C0      		rjmp .L97
 996 0684 8B15      		cp r24,r11
 997 0686 00F0      		brlo .L89
 998 0688 81E0      		ldi r24,lo8(1)
 999 068a B816      		cp r11,r24
 1000 068c 01F0      		breq .L83
 1001 068e 8B15      		cp r24,r11
 1002 0690 00F4      		brsh .+2
 1003 0692 00C0      		rjmp .L99
 1004 0694 00C0      		rjmp .L117
 1005               	.L89:
 1006 0696 85E0      		ldi r24,lo8(5)
 1007 0698 B816      		cp r11,r24
 1008 069a 01F4      		brne .+2
 1009 069c 00C0      		rjmp .L98
 1010 069e B816      		cp r11,r24
 1011 06a0 00F0      		brlo .L86
 1012 06a2 86E0      		ldi r24,lo8(6)
 1013 06a4 B816      		cp r11,r24
 1014 06a6 01F0      		breq .+2
 1015 06a8 00C0      		rjmp .L61
 1016 06aa 00C0      		rjmp .L88
 1017               	.L117:
 1018               	.LM149:
 1019 06ac 0E94 0000 		call pattern_popcorn
 1020 06b0 00C0      		rjmp .L61
 1021               	.L83:
 1022               	.LM150:
 1023 06b2 0E94 0000 		call pattern_rotate1
 1024 06b6 00C0      		rjmp .L61
 1025               	.L86:
 1026               	.LM151:
 1027 06b8 0E94 0000 		call pattern_cube_stretch
 1028 06bc 00C0      		rjmp .L61
 1029               	.L88:
 1030               	.LM152:
 1031 06be 0E94 0000 		call pattern_noise_scroll
 1032 06c2 00C0      		rjmp .L61
 1033               	.L64:
 1034               	.LBE88:
 1035               	.LBE87:
 1036               	.LBB89:
 1037               	.LBB90:
 1038               	.LM153:
 1039 06c4 82E0      		ldi r24,lo8(2)
 1040 06c6 B816      		cp r11,r24
 1041 06c8 01F0      		breq .L92
 1042 06ca 8B15      		cp r24,r11
 1043 06cc 00F0      		brlo .L96
 1044 06ce BB20      		tst r11
 1045 06d0 01F0      		breq .L90
 1046 06d2 81E0      		ldi r24,lo8(1)
 1047 06d4 B816      		cp r11,r24
 1048 06d6 01F4      		brne .L61
 1049 06d8 00C0      		rjmp .L131
 1050               	.L96:
 1051 06da 84E0      		ldi r24,lo8(4)
 1052 06dc B816      		cp r11,r24
 1053 06de 01F0      		breq .L94
 1054 06e0 B816      		cp r11,r24
 1055 06e2 00F0      		brlo .L93
 1056 06e4 85E0      		ldi r24,lo8(5)
 1057 06e6 B816      		cp r11,r24
 1058 06e8 01F4      		brne .L61
 1059 06ea 00C0      		rjmp .L132
 1060               	.L90:
 1061               	.LM154:
 1062 06ec 0E94 0000 		call pattern_wirecube
 1063 06f0 00C0      		rjmp .L61
 1064               	.L131:
 1065               	.LM155:
 1066 06f2 0E94 0000 		call pattern_wirecubediag
 1067 06f6 00C0      		rjmp .L61
 1068               	.L92:
 1069               	.LM156:
 1070 06f8 0E94 0000 		call pattern_tesseract
 1071 06fc 00C0      		rjmp .L61
 1072               	.L93:
 1073               	.LM157:
 1074 06fe 0E94 0000 		call pattern_cubewalls
 1075 0702 00C0      		rjmp .L61
 1076               	.L94:
 1077               	.LM158:
 1078 0704 0E94 0000 		call pattern_diamond
 1079 0708 00C0      		rjmp .L61
 1080               	.L132:
 1081               	.LM159:
 1082 070a 8FEF      		ldi r24,lo8(255)
 1083 070c 90E0      		ldi r25,hi8(255)
 1084 070e 6AE0      		ldi r22,lo8(10)
 1085 0710 70E0      		ldi r23,hi8(10)
 1086 0712 40E4      		ldi r20,lo8(64)
 1087 0714 50E0      		ldi r21,hi8(64)
 1088               	.L125:
 1089 0716 28EC      		ldi r18,lo8(200)
 1090 0718 30E0      		ldi r19,hi8(200)
 1091 071a 0E94 0000 		call pattern_waveup
 1092 071e 00C0      		rjmp .L61
 1093               	.L127:
 1094               	.LBE90:
 1095               	.LBE89:
 1096               	.LBB91:
 1097               	.LBB92:
 1098               	.LM160:
 1099 0720 81E0      		ldi r24,lo8(1)
 1100 0722 B816      		cp r11,r24
 1101 0724 01F0      		breq .L98
 1102 0726 B816      		cp r11,r24
 1103 0728 00F0      		brlo .L97
 1104 072a 82E0      		ldi r24,lo8(2)
 1105 072c B816      		cp r11,r24
 1106 072e 01F4      		brne .L61
 1107 0730 00C0      		rjmp .L99
 1108               	.L97:
 1109               	.LM161:
 1110 0732 0E94 0000 		call pattern_screw
 1111 0736 00C0      		rjmp .L61
 1112               	.L98:
 1113               	.LM162:
 1114 0738 0E94 0000 		call pattern_flapsheet
 1115 073c 00C0      		rjmp .L61
 1116               	.L99:
 1117               	.LM163:
 1118 073e 0E94 0000 		call pattern_rain1
 1119               	.L61:
 1120 0742 DD24      		clr r13
 1121               	.LVL43:
 1122               	.L53:
 1123               	.LBE92:
 1124               	.LBE91:
 1125               	.LM164:
 1126 0744 8091 0000 		lds r24,seq_quit
 1127 0748 8823      		tst r24
 1128 074a 01F0      		breq .+2
 1129 074c 00C0      		rjmp .L112
 1130               	.LM165:
 1131 074e 8091 0000 		lds r24,button_skip
 1132 0752 8823      		tst r24
 1133 0754 01F4      		brne .L101
 1134 0756 AA24      		clr r10
 1135 0758 00C0      		rjmp .L102
 1136               	.L101:
 1137               	.LM166:
 1138 075a 1092 0000 		sts button_skip,__zero_reg__
 1139               	.LM167:
 1140 075e 8091 0000 		lds r24,sequence_index
 1141 0762 282F      		mov r18,r24
 1142 0764 30E0      		ldi r19,lo8(0)
 1143 0766 F901      		movw r30,r18
 1144 0768 EE0F      		lsl r30
 1145 076a FF1F      		rol r31
 1146 076c DF01      		movw r26,r30
 1147 076e A20F      		add r26,r18
 1148 0770 B31F      		adc r27,r19
 1149 0772 A050      		subi r26,lo8(-(settings_ram))
 1150 0774 B040      		sbci r27,hi8(-(settings_ram))
 1151 0776 1B96      		adiw r26,11
 1152 0778 8C91      		ld r24,X
 1153 077a 1B97      		sbiw r26,11
 1154 077c 8823      		tst r24
 1155 077e 01F4      		brne .+2
 1156 0780 00C0      		rjmp .L103
 1157               	.LM168:
 1158 0782 1B96      		adiw r26,11
 1159 0784 1C92      		st X,__zero_reg__
 1160 0786 1B97      		sbiw r26,11
 1161               	.LM169:
 1162 0788 1C96      		adiw r26,12
 1163 078a BC92      		st X,r11
 1164               	.LM170:
 1165 078c 80E0      		ldi r24,lo8(__c.2346)
 1166 078e 90E0      		ldi r25,hi8(__c.2346)
 1167 0790 0E94 0000 		call uart1_tx_string_P
 1168               	.LM171:
 1169 0794 8B2D      		mov r24,r11
 1170 0796 90E0      		ldi r25,lo8(0)
 1171 0798 60E0      		ldi r22,lo8(text)
 1172 079a 70E0      		ldi r23,hi8(text)
 1173 079c 4AE0      		ldi r20,lo8(10)
 1174 079e 50E0      		ldi r21,hi8(10)
 1175 07a0 0E94 0000 		call itoa
 1176 07a4 0E94 0000 		call uart1_tx_string
 1177               	.LM172:
 1178 07a8 80E0      		ldi r24,lo8(__c.2348)
 1179 07aa 90E0      		ldi r25,hi8(__c.2348)
 1180 07ac 0E94 0000 		call uart1_tx_string_P
 1181               	.LBB93:
 1182               	.LBB83:
 1183               	.LM173:
 1184 07b0 84E6      		ldi r24,lo8(100)
 1185 07b2 90E0      		ldi r25,hi8(100)
 1186 07b4 0E94 0000 		call led_framerate
 1187               	.LM174:
 1188 07b8 0E94 0000 		call led_blank
 1189               	.LM175:
 1190 07bc 8FEF      		ldi r24,lo8(-1)
 1191 07be 0E94 0000 		call led_plane_intensity_all
 1192               	.LM176:
 1193 07c2 82E0      		ldi r24,lo8(2)
 1194 07c4 90E0      		ldi r25,hi8(2)
 1195 07c6 60E0      		ldi r22,lo8(0)
 1196 07c8 70E0      		ldi r23,hi8(0)
 1197 07ca 40E0      		ldi r20,lo8(0)
 1198 07cc 50E0      		ldi r21,hi8(0)
 1199 07ce 25E0      		ldi r18,lo8(5)
 1200 07d0 30E0      		ldi r19,hi8(5)
 1201 07d2 00E0      		ldi r16,lo8(0)
 1202 07d4 10E0      		ldi r17,hi8(0)
 1203 07d6 EE24      		clr r14
 1204 07d8 FF24      		clr r15
 1205 07da CC24      		clr r12
 1206 07dc C394      		inc r12
 1207 07de 0E94 0000 		call led_line
 1208               	.LM177:
 1209 07e2 82E0      		ldi r24,lo8(2)
 1210 07e4 90E0      		ldi r25,hi8(2)
 1211 07e6 67E0      		ldi r22,lo8(7)
 1212 07e8 70E0      		ldi r23,hi8(7)
 1213 07ea 40E0      		ldi r20,lo8(0)
 1214 07ec 50E0      		ldi r21,hi8(0)
 1215 07ee 25E0      		ldi r18,lo8(5)
 1216 07f0 30E0      		ldi r19,hi8(5)
 1217 07f2 07E0      		ldi r16,lo8(7)
 1218 07f4 10E0      		ldi r17,hi8(7)
 1219 07f6 0E94 0000 		call led_line
 1220               	.LM178:
 1221 07fa 87E0      		ldi r24,lo8(7)
 1222 07fc 90E0      		ldi r25,hi8(7)
 1223 07fe 62E0      		ldi r22,lo8(2)
 1224 0800 70E0      		ldi r23,hi8(2)
 1225 0802 40E0      		ldi r20,lo8(0)
 1226 0804 50E0      		ldi r21,hi8(0)
 1227 0806 27E0      		ldi r18,lo8(7)
 1228 0808 30E0      		ldi r19,hi8(7)
 1229 080a 05E0      		ldi r16,lo8(5)
 1230 080c 10E0      		ldi r17,hi8(5)
 1231 080e 0E94 0000 		call led_line
 1232               	.LM179:
 1233 0812 80E0      		ldi r24,lo8(0)
 1234 0814 90E0      		ldi r25,hi8(0)
 1235 0816 62E0      		ldi r22,lo8(2)
 1236 0818 70E0      		ldi r23,hi8(2)
 1237 081a 40E0      		ldi r20,lo8(0)
 1238 081c 50E0      		ldi r21,hi8(0)
 1239 081e 20E0      		ldi r18,lo8(0)
 1240 0820 30E0      		ldi r19,hi8(0)
 1241 0822 0E94 0000 		call led_line
 1242               	.LM180:
 1243 0826 82E3      		ldi r24,lo8(50)
 1244 0828 90E0      		ldi r25,hi8(50)
 1245 082a 0E94 0000 		call led_waitframe
 1246 082e AA24      		clr r10
 1247 0830 00C0      		rjmp .L104
 1248               	.L103:
 1249               	.LBE83:
 1250               	.LBE93:
 1251               	.LM181:
 1252 0832 B394      		inc r11
 1253               	.LM182:
 1254 0834 E050      		subi r30,lo8(-(sequence_info))
 1255 0836 F040      		sbci r31,hi8(-(sequence_info))
 1256 0838 8181      		ldd r24,Z+1
 1257 083a B816      		cp r11,r24
 1258 083c 01F4      		brne .L105
 1259 083e BB24      		clr r11
 1260               	.L105:
 1261               	.LM183:
 1262 0840 F901      		movw r30,r18
 1263 0842 EE0F      		lsl r30
 1264 0844 FF1F      		rol r31
 1265 0846 E20F      		add r30,r18
 1266 0848 F31F      		adc r31,r19
 1267 084a E050      		subi r30,lo8(-(settings_ram))
 1268 084c F040      		sbci r31,hi8(-(settings_ram))
 1269 084e B486      		std Z+12,r11
 1270               	.LM184:
 1271 0850 80E0      		ldi r24,lo8(__c.2350)
 1272 0852 90E0      		ldi r25,hi8(__c.2350)
 1273 0854 0E94 0000 		call uart1_tx_string_P
 1274               	.LM185:
 1275 0858 8B2D      		mov r24,r11
 1276 085a 90E0      		ldi r25,lo8(0)
 1277 085c 60E0      		ldi r22,lo8(text)
 1278 085e 70E0      		ldi r23,hi8(text)
 1279 0860 4AE0      		ldi r20,lo8(10)
 1280 0862 50E0      		ldi r21,hi8(10)
 1281 0864 0E94 0000 		call itoa
 1282 0868 0E94 0000 		call uart1_tx_string
 1283               	.LM186:
 1284 086c 80E0      		ldi r24,lo8(__c.2352)
 1285 086e 90E0      		ldi r25,hi8(__c.2352)
 1286 0870 0E94 0000 		call uart1_tx_string_P
 1287 0874 AA24      		clr r10
 1288 0876 A394      		inc r10
 1289               	.L104:
 1290               	.LM187:
 1291 0878 0E94 0000 		call settings_save
 1292               	.L102:
 1293               	.LM188:
 1294 087c 8091 0000 		lds r24,button_rotate
 1295 0880 8823      		tst r24
 1296 0882 01F4      		brne .+2
 1297 0884 00C0      		rjmp .L106
 1298               	.LM189:
 1299 0886 1092 0000 		sts button_rotate,__zero_reg__
 1300               	.LM190:
 1301 088a 8091 0000 		lds r24,sequence_index
 1302 088e 90E0      		ldi r25,lo8(0)
 1303 0890 FC01      		movw r30,r24
 1304 0892 EE0F      		lsl r30
 1305 0894 FF1F      		rol r31
 1306 0896 E80F      		add r30,r24
 1307 0898 F91F      		adc r31,r25
 1308 089a E050      		subi r30,lo8(-(settings_ram))
 1309 089c F040      		sbci r31,hi8(-(settings_ram))
 1310 089e 8385      		ldd r24,Z+11
 1311 08a0 8823      		tst r24
 1312 08a2 01F0      		breq .+2
 1313 08a4 00C0      		rjmp .L107
 1314               	.LM191:
 1315 08a6 80E0      		ldi r24,lo8(__c.2354)
 1316 08a8 90E0      		ldi r25,hi8(__c.2354)
 1317 08aa 0E94 0000 		call uart1_tx_string_P
 1318               	.LM192:
 1319 08ae 8091 0000 		lds r24,sequence_index
 1320 08b2 90E0      		ldi r25,lo8(0)
 1321 08b4 FC01      		movw r30,r24
 1322 08b6 EE0F      		lsl r30
 1323 08b8 FF1F      		rol r31
 1324 08ba E80F      		add r30,r24
 1325 08bc F91F      		adc r31,r25
 1326 08be E050      		subi r30,lo8(-(settings_ram))
 1327 08c0 F040      		sbci r31,hi8(-(settings_ram))
 1328 08c2 5386      		std Z+11,r5
 1329               	.LBB94:
 1330               	.LBB95:
 1331               	.LM193:
 1332 08c4 8CE3      		ldi r24,lo8(60)
 1333 08c6 90E0      		ldi r25,hi8(60)
 1334 08c8 0E94 0000 		call led_framerate
 1335               	.LM194:
 1336 08cc 8FEF      		ldi r24,lo8(-1)
 1337 08ce 0E94 0000 		call led_plane_intensity_all
 1338 08d2 C0E0      		ldi r28,lo8(0)
 1339 08d4 D0E0      		ldi r29,hi8(0)
 1340               	.LVL44:
 1341               	.L108:
 1342               	.LM195:
 1343 08d6 0E94 0000 		call led_blank
 1344               	.LM196:
 1345 08da 9401      		movw r18,r8
 1346 08dc 2C1B      		sub r18,r28
 1347 08de 3D0B      		sbc r19,r29
 1348 08e0 CE01      		movw r24,r28
 1349 08e2 60E0      		ldi r22,lo8(0)
 1350 08e4 70E0      		ldi r23,hi8(0)
 1351 08e6 40E0      		ldi r20,lo8(0)
 1352 08e8 50E0      		ldi r21,hi8(0)
 1353 08ea 07E0      		ldi r16,lo8(7)
 1354 08ec 10E0      		ldi r17,hi8(7)
 1355 08ee EE24      		clr r14
 1356 08f0 FF24      		clr r15
 1357 08f2 CC24      		clr r12
 1358 08f4 C394      		inc r12
 1359 08f6 0E94 0000 		call led_line
 1360               	.LM197:
 1361 08fa 81E0      		ldi r24,lo8(1)
 1362 08fc 90E0      		ldi r25,hi8(1)
 1363 08fe 0E94 0000 		call led_waitframe
 1364 0902 2196      		adiw r28,1
 1365               	.LM198:
 1366 0904 C830      		cpi r28,8
 1367 0906 D105      		cpc r29,__zero_reg__
 1368 0908 01F4      		brne .L108
 1369 090a C0E0      		ldi r28,lo8(0)
 1370 090c D0E0      		ldi r29,hi8(0)
 1371               	.L109:
 1372               	.LM199:
 1373 090e 0E94 0000 		call led_blank
 1374               	.LM200:
 1375 0912 8401      		movw r16,r8
 1376 0914 0C1B      		sub r16,r28
 1377 0916 1D0B      		sbc r17,r29
 1378 0918 87E0      		ldi r24,lo8(7)
 1379 091a 90E0      		ldi r25,hi8(7)
 1380 091c BE01      		movw r22,r28
 1381 091e 40E0      		ldi r20,lo8(0)
 1382 0920 50E0      		ldi r21,hi8(0)
 1383 0922 20E0      		ldi r18,lo8(0)
 1384 0924 30E0      		ldi r19,hi8(0)
 1385 0926 EE24      		clr r14
 1386 0928 FF24      		clr r15
 1387 092a CC24      		clr r12
 1388 092c C394      		inc r12
 1389 092e 0E94 0000 		call led_line
 1390               	.LM201:
 1391 0932 81E0      		ldi r24,lo8(1)
 1392 0934 90E0      		ldi r25,hi8(1)
 1393 0936 0E94 0000 		call led_waitframe
 1394 093a 2196      		adiw r28,1
 1395               	.LM202:
 1396 093c C830      		cpi r28,8
 1397 093e D105      		cpc r29,__zero_reg__
 1398 0940 01F4      		brne .L109
 1399               	.LVL45:
 1400               	.L107:
 1401               	.LBE95:
 1402               	.LBE94:
 1403               	.LM203:
 1404 0942 0E94 0000 		call settings_save
 1405               	.L106:
 1406               	.LM204:
 1407 0946 E091 0000 		lds r30,sequence_index
 1408 094a F0E0      		ldi r31,lo8(0)
 1409 094c 9F01      		movw r18,r30
 1410 094e 220F      		lsl r18
 1411 0950 331F      		rol r19
 1412 0952 E20F      		add r30,r18
 1413 0954 F31F      		adc r31,r19
 1414 0956 E050      		subi r30,lo8(-(settings_ram))
 1415 0958 F040      		sbci r31,hi8(-(settings_ram))
 1416 095a 8385      		ldd r24,Z+11
 1417 095c 8823      		tst r24
 1418 095e 01F0      		breq .L110
 1419               	.LM205:
 1420 0960 B394      		inc r11
 1421               	.LM206:
 1422 0962 F901      		movw r30,r18
 1423 0964 E050      		subi r30,lo8(-(sequence_info))
 1424 0966 F040      		sbci r31,hi8(-(sequence_info))
 1425 0968 8181      		ldd r24,Z+1
 1426 096a B816      		cp r11,r24
 1427 096c 01F4      		brne .L110
 1428 096e BB24      		clr r11
 1429               	.L110:
 1430               	.LM207:
 1431 0970 DD20      		tst r13
 1432 0972 01F4      		brne .+2
 1433 0974 00C0      		rjmp .L111
 1434               	.L112:
 1435               	/* epilogue start */
 1436               	.LM208:
 1437 0976 DF91      		pop r29
 1438 0978 CF91      		pop r28
 1439               	.LVL46:
 1440 097a 1F91      		pop r17
 1441 097c 0F91      		pop r16
 1442 097e FF90      		pop r15
 1443 0980 EF90      		pop r14
 1444 0982 DF90      		pop r13
 1445               	.LVL47:
 1446 0984 CF90      		pop r12
 1447 0986 BF90      		pop r11
 1448               	.LVL48:
 1449 0988 AF90      		pop r10
 1450               	.LVL49:
 1451 098a 9F90      		pop r9
 1452 098c 8F90      		pop r8
 1453 098e 7F90      		pop r7
 1454 0990 6F90      		pop r6
 1455 0992 5F90      		pop r5
 1456               	.LVL50:
 1457 0994 0895      		ret
 1458               	.LFE22:
 1460               	.global	sequence_save_brightness
 1462               	sequence_save_brightness:
 1463               	.LFB20:
 1464               	.LM209:
 1465 0996 0F93      		push r16
 1466 0998 1F93      		push r17
 1467               	/* prologue: function */
 1468               	/* frame size = 0 */
 1469               	.LM210:
 1470 099a 0091 0000 		lds r16,sequence_index
 1471 099e 10E0      		ldi r17,lo8(0)
 1472 09a0 0E94 0000 		call power_vled_get
 1473 09a4 F801      		movw r30,r16
 1474 09a6 EE0F      		lsl r30
 1475 09a8 FF1F      		rol r31
 1476 09aa E00F      		add r30,r16
 1477 09ac F11F      		adc r31,r17
 1478 09ae E050      		subi r30,lo8(-(settings_ram))
 1479 09b0 F040      		sbci r31,hi8(-(settings_ram))
 1480 09b2 8287      		std Z+10,r24
 1481               	.LM211:
 1482 09b4 0E94 0000 		call settings_save
 1483               	/* epilogue start */
 1484               	.LM212:
 1485 09b8 1F91      		pop r17
 1486 09ba 0F91      		pop r16
 1487 09bc 0895      		ret
 1488               	.LFE20:
 1490               	.global	sequence_select_press
 1492               	sequence_select_press:
 1493               	.LFB19:
 1494               	.LM213:
 1495 09be 1F93      		push r17
 1496               	/* prologue: function */
 1497               	/* frame size = 0 */
 1498               	.LM214:
 1499 09c0 11E0      		ldi r17,lo8(1)
 1500 09c2 1093 0000 		sts seq_quit,r17
 1501               	.LM215:
 1502 09c6 0E94 0000 		call pattern_break
 1503               	.LM216:
 1504 09ca 1093 0000 		sts button_select,r17
 1505               	/* epilogue start */
 1506               	.LM217:
 1507 09ce 1F91      		pop r17
 1508 09d0 0895      		ret
 1509               	.LFE19:
 1511               	.global	sequence_rotate_en
 1513               	sequence_rotate_en:
 1514               	.LFB18:
 1515               	.LM218:
 1516               	/* prologue: function */
 1517               	/* frame size = 0 */
 1518               	.LM219:
 1519 09d2 81E0      		ldi r24,lo8(1)
 1520 09d4 8093 0000 		sts button_rotate,r24
 1521               	.LM220:
 1522 09d8 0E94 0000 		call pattern_break
 1523               	/* epilogue start */
 1524               	.LM221:
 1525 09dc 0895      		ret
 1526               	.LFE18:
 1528               	.global	sequence_skip
 1530               	sequence_skip:
 1531               	.LFB17:
 1532               	.LM222:
 1533               	/* prologue: function */
 1534               	/* frame size = 0 */
 1535               	.LM223:
 1536 09de 81E0      		ldi r24,lo8(1)
 1537 09e0 8093 0000 		sts button_skip,r24
 1538               	.LM224:
 1539 09e4 0E94 0000 		call pattern_break
 1540               	/* epilogue start */
 1541               	.LM225:
 1542 09e8 0895      		ret
 1543               	.LFE17:
 1545               	.global	sequence_exit
 1547               	sequence_exit:
 1548               	.LFB16:
 1549               	.LM226:
 1550               	/* prologue: function */
 1551               	/* frame size = 0 */
 1552               	.LM227:
 1553 09ea 81E0      		ldi r24,lo8(1)
 1554 09ec 8093 0000 		sts seq_quit,r24
 1555               	.LM228:
 1556 09f0 0E94 0000 		call pattern_break
 1557               	/* epilogue start */
 1558               	.LM229:
 1559 09f4 0895      		ret
 1560               	.LFE16:
 1562               	.global	sequence_info
 1563               		.data
 1566               	sequence_info:
 1567 0000 00        		.byte	0
 1568 0001 0D        		.byte	13
 1569 0002 00        		.byte	0
 1570 0003 07        		.byte	7
 1571 0004 01        		.byte	1
 1572 0005 06        		.byte	6
 1573 0006 01        		.byte	1
 1574 0007 03        		.byte	3
 1575               		.lcomm seq_quit,1
 1578               	forced_measure:
 1579 0008 01        		.byte	1
 1580               		.lcomm sequence_index,1
 1583               	sequence_0_times:
 1584 0009 C404      		.word	1220
 1585 000b 9303      		.word	915
 1586 000d 2707      		.word	1831
 1587 000f C404      		.word	1220
 1588 0011 2707      		.word	1831
 1589 0013 2707      		.word	1831
 1590 0015 2707      		.word	1831
 1591 0017 C404      		.word	1220
 1592 0019 C404      		.word	1220
 1593 001b 2707      		.word	1831
 1594 001d 3D00      		.word	61
 1595 001f 2707      		.word	1831
 1596 0021 2707      		.word	1831
 1599               	sequence_1_times:
 1600 0023 2707      		.word	1831
 1601 0025 2707      		.word	1831
 1602 0027 2707      		.word	1831
 1603 0029 2707      		.word	1831
 1604 002b 2707      		.word	1831
 1605 002d 2707      		.word	1831
 1606 002f 2707      		.word	1831
 1609               	sequence_2_times:
 1610 0031 9C1C      		.word	7324
 1611 0033 9C1C      		.word	7324
 1612 0035 9C1C      		.word	7324
 1613 0037 9C1C      		.word	7324
 1614 0039 9C1C      		.word	7324
 1615 003b 9C1C      		.word	7324
 1618               	sequence_3_times:
 1619 003d 2707      		.word	1831
 1620 003f 2707      		.word	1831
 1621 0041 2707      		.word	1831
 1622               		.section	.progmem.data,"a",@progbits
 1625               	__c.2354:
 1626 0000 526F 7461 		.string	"Rotation enabled\r\n"
 1626      7469 6F6E 
 1626      2065 6E61 
 1626      626C 6564 
 1626      0D0A 00
 1629               	__c.2352:
 1630 0013 0D0A 00   		.string	"\r\n"
 1633               	__c.2350:
 1634 0016 5072 6566 		.string	"Preferred pattern = "
 1634      6572 7265 
 1634      6420 7061 
 1634      7474 6572 
 1634      6E20 3D20 
 1637               	__c.2348:
 1638 002b 0D0A 00   		.string	"\r\n"
 1641               	__c.2346:
 1642 002e 526F 7461 		.string	"Rotation disabled\r\nPreferred pattern = "
 1642      7469 6F6E 
 1642      2064 6973 
 1642      6162 6C65 
 1642      640D 0A50 
 1645               	__c.2339:
 1646 0056 0D0A 00   		.string	"\r\n"
 1649               	__c.2337:
 1650 0059 5061 7474 		.string	"Pattern "
 1650      6572 6E20 
 1650      00
 1653               	__c.2327:
 1654 0062 0D0A 00   		.string	"\r\n"
 1657               	__c.2325:
 1658 0065 2873 7469 		.string	"(still night)"
 1658      6C6C 206E 
 1658      6967 6874 
 1658      2900 
 1661               	__c.2323:
 1662 0073 0D0A 5365 		.string	"\r\nSelecting day sequence "
 1662      6C65 6374 
 1662      696E 6720 
 1662      6461 7920 
 1662      7365 7175 
 1665               	__c.2321:
 1666 008d 2873 7469 		.string	"(still day)"
 1666      6C6C 2064 
 1666      6179 2900 
 1669               	__c.2319:
 1670 0099 0D0A 5365 		.string	"\r\nSelecting night sequence "
 1670      6C65 6374 
 1670      696E 6720 
 1670      6E69 6768 
 1670      7420 7365 
 1673               	__c.2317:
 1674 00b5 2073 6571 		.string	" sequence "
 1674      7565 6E63 
 1674      6520 00
 1677               	__c.2315:
 1678 00c0 6461 7920 		.string	"day "
 1678      00
 1681               	__c.2313:
 1682 00c5 6E69 6768 		.string	"night "
 1682      7420 00
 1685               	__c.2311:
 1686 00cc 0D0A 5365 		.string	"\r\nSelecting "
 1686      6C65 6374 
 1686      696E 6720 
 1686      00
 1689               	__c.2309:
 1690 00d9 4C69 6768 		.string	"Light = "
 1690      7420 3D20 
 1690      00
 1693               	__c.2307:
 1694 00e2 0D0A 00   		.string	"\r\n"
 1697               	__c.2305:
 1698 00e5 6469 7361 		.string	"disabled\r\nPattern "
 1698      626C 6564 
 1698      0D0A 5061 
 1698      7474 6572 
 1698      6E20 00
 1701               	__c.2303:
 1702 00f8 656E 6162 		.string	"enabled\r\n"
 1702      6C65 640D 
 1702      0A00 
 1705               	__c.2301:
 1706 0102 526F 7461 		.string	"Rotation "
 1706      7469 6F6E 
 1706      2000 
 1709               	__c.2299:
 1710 010c 282F 3235 		.string	"(/255)\r\n"
 1710      3529 0D0A 
 1710      00
 1713               	__c.2297:
 1714 0115 4272 6967 		.string	"Brightness "
 1714      6874 6E65 
 1714      7373 2000 
 1717               	__c.2295:
 1718 0121 2070 6174 		.string	" patterns in sequence\r\n"
 1718      7465 726E 
 1718      7320 696E 
 1718      2073 6571 
 1718      7565 6E63 
 1721               	__c.2293:
 1722 0139 4E49 4748 		.string	"NIGHT\r\n"
 1722      540D 0A00 
 1725               	__c.2291:
 1726 0141 4441 590D 		.string	"DAY\r\n"
 1726      0A00 
 1729               	__c.2289:
 1730 0147 0D0A 4D6F 		.string	"\r\nMode "
 1730      6465 2000 
 1733               	__c.2287:
 1734 014f 0D0A 5275 		.string	"\r\nRunning sequence "
 1734      6E6E 696E 
 1734      6720 7365 
 1734      7175 656E 
 1734      6365 2000 
 1737               	__c.2428:
 1738 0163 4E00      		.string	"N"
 1741               	__c.2426:
 1742 0165 4400      		.string	"D"
 1745               	__c.2456:
 1746 0167 4375 626F 		.string	"Cuboid        "
 1746      6964 2020 
 1746      2020 2020 
 1746      2020 00
 1749               	__c.2261:
 1750 0176 0D0A 00   		.string	"\r\n"
 1753               	__c.2259:
 1754 0179 2073 6571 		.string	" sequence = "
 1754      7565 6E63 
 1754      6520 3D20 
 1754      00
 1757               	__c.2257:
 1758 0186 6E69 6768 		.string	"night"
 1758      7400 
 1761               	__c.2255:
 1762 018c 6461 7900 		.string	"day"
 1765               	__c.2253:
 1766 0190 5072 6566 		.string	"Preferred "
 1766      6572 7265 
 1766      6420 00
 1769               	__c.2249:
 1770 019b 2028 6E69 		.string	" (night)\r\n"
 1770      6768 7429 
 1770      0D0A 00
 1773               	__c.2247:
 1774 01a6 2028 6461 		.string	" (day)\r\n"
 1774      7929 0D0A 
 1774      00
 1777               	__c.2245:
 1778 01af 5365 7175 		.string	"Sequence "
 1778      656E 6365 
 1778      2000 
 1781               	__c.2243:
 1782 01b9 6475 7269 		.string	"during night\r\n"
 1782      6E67 206E 
 1782      6967 6874 
 1782      0D0A 00
 1785               	__c.2241:
 1786 01c8 6475 7269 		.string	"during day, sequence "
 1786      6E67 2064 
 1786      6179 2C20 
 1786      7365 7175 
 1786      656E 6365 
 1789               	__c.2239:
 1790 01de 4175 746F 		.string	"Auto, sequence "
 1790      2C20 7365 
 1790      7175 656E 
 1790      6365 2000 
 1793               	__c.2231:
 1794 01ee 4100      		.string	"A"
 1797               	__c.2229:
 1798 01f0 0D0A 5365 		.string	"\r\nSequence menu\r\n"
 1798      7175 656E 
 1798      6365 206D 
 1798      656E 750D 
 1798      0A00 
 1799               		.lcomm button_skip,1
 1800               		.lcomm button_rotate,1
 1801               		.lcomm button_select,1
 1802               		.lcomm mode_auto,1
 1803               		.lcomm text,10
 1804               		.lcomm time,2
 1901               	.Letext0:
DEFINED SYMBOLS
                            *ABS*:00000000 sequence.c
C:\DOCUME~1\Mick\LOCALS~1\Temp/ccFahdk0.s:2      *ABS*:0000003f __SREG__
C:\DOCUME~1\Mick\LOCALS~1\Temp/ccFahdk0.s:3      *ABS*:0000003e __SP_H__
C:\DOCUME~1\Mick\LOCALS~1\Temp/ccFahdk0.s:4      *ABS*:0000003d __SP_L__
C:\DOCUME~1\Mick\LOCALS~1\Temp/ccFahdk0.s:5      *ABS*:00000034 __CCP__
C:\DOCUME~1\Mick\LOCALS~1\Temp/ccFahdk0.s:6      *ABS*:00000000 __tmp_reg__
C:\DOCUME~1\Mick\LOCALS~1\Temp/ccFahdk0.s:7      *ABS*:00000001 __zero_reg__
C:\DOCUME~1\Mick\LOCALS~1\Temp/ccFahdk0.s:18     .text:00000000 sequence_tick
C:\DOCUME~1\Mick\LOCALS~1\Temp/ccFahdk0.s:1803   .bss:00000010 time
C:\DOCUME~1\Mick\LOCALS~1\Temp/ccFahdk0.s:38     .text:00000018 sequence_init
C:\DOCUME~1\Mick\LOCALS~1\Temp/ccFahdk0.s:1575   .bss:00000001 sequence_index
C:\DOCUME~1\Mick\LOCALS~1\Temp/ccFahdk0.s:1801   .bss:00000005 mode_auto
C:\DOCUME~1\Mick\LOCALS~1\Temp/ccFahdk0.s:55     .text:0000002a menu_show
C:\DOCUME~1\Mick\LOCALS~1\Temp/ccFahdk0.s:1802   .bss:00000006 text
C:\DOCUME~1\Mick\LOCALS~1\Temp/ccFahdk0.s:1566   .data:00000000 sequence_info
C:\DOCUME~1\Mick\LOCALS~1\Temp/ccFahdk0.s:1741   .progmem.data:00000165 __c.2426
C:\DOCUME~1\Mick\LOCALS~1\Temp/ccFahdk0.s:1737   .progmem.data:00000163 __c.2428
C:\DOCUME~1\Mick\LOCALS~1\Temp/ccFahdk0.s:142    .text:000000a4 sequence_menu
C:\DOCUME~1\Mick\LOCALS~1\Temp/ccFahdk0.s:1800   .bss:00000004 button_select
C:\DOCUME~1\Mick\LOCALS~1\Temp/ccFahdk0.s:1797   .progmem.data:000001f0 __c.2229
C:\DOCUME~1\Mick\LOCALS~1\Temp/ccFahdk0.s:1793   .progmem.data:000001ee __c.2231
C:\DOCUME~1\Mick\LOCALS~1\Temp/ccFahdk0.s:1789   .progmem.data:000001de __c.2239
C:\DOCUME~1\Mick\LOCALS~1\Temp/ccFahdk0.s:1785   .progmem.data:000001c8 __c.2241
C:\DOCUME~1\Mick\LOCALS~1\Temp/ccFahdk0.s:1781   .progmem.data:000001b9 __c.2243
C:\DOCUME~1\Mick\LOCALS~1\Temp/ccFahdk0.s:1777   .progmem.data:000001af __c.2245
C:\DOCUME~1\Mick\LOCALS~1\Temp/ccFahdk0.s:1773   .progmem.data:000001a6 __c.2247
C:\DOCUME~1\Mick\LOCALS~1\Temp/ccFahdk0.s:1769   .progmem.data:0000019b __c.2249
C:\DOCUME~1\Mick\LOCALS~1\Temp/ccFahdk0.s:1765   .progmem.data:00000190 __c.2253
C:\DOCUME~1\Mick\LOCALS~1\Temp/ccFahdk0.s:1761   .progmem.data:0000018c __c.2255
C:\DOCUME~1\Mick\LOCALS~1\Temp/ccFahdk0.s:1757   .progmem.data:00000186 __c.2257
C:\DOCUME~1\Mick\LOCALS~1\Temp/ccFahdk0.s:1753   .progmem.data:00000179 __c.2259
C:\DOCUME~1\Mick\LOCALS~1\Temp/ccFahdk0.s:1749   .progmem.data:00000176 __c.2261
C:\DOCUME~1\Mick\LOCALS~1\Temp/ccFahdk0.s:1578   .data:00000008 forced_measure
C:\DOCUME~1\Mick\LOCALS~1\Temp/ccFahdk0.s:404    .text:00000284 sequence_run
                             .bss:00000000 seq_quit
C:\DOCUME~1\Mick\LOCALS~1\Temp/ccFahdk0.s:1733   .progmem.data:0000014f __c.2287
C:\DOCUME~1\Mick\LOCALS~1\Temp/ccFahdk0.s:1729   .progmem.data:00000147 __c.2289
C:\DOCUME~1\Mick\LOCALS~1\Temp/ccFahdk0.s:1725   .progmem.data:00000141 __c.2291
C:\DOCUME~1\Mick\LOCALS~1\Temp/ccFahdk0.s:1721   .progmem.data:00000139 __c.2293
C:\DOCUME~1\Mick\LOCALS~1\Temp/ccFahdk0.s:1717   .progmem.data:00000121 __c.2295
C:\DOCUME~1\Mick\LOCALS~1\Temp/ccFahdk0.s:1713   .progmem.data:00000115 __c.2297
C:\DOCUME~1\Mick\LOCALS~1\Temp/ccFahdk0.s:1709   .progmem.data:0000010c __c.2299
C:\DOCUME~1\Mick\LOCALS~1\Temp/ccFahdk0.s:1705   .progmem.data:00000102 __c.2301
C:\DOCUME~1\Mick\LOCALS~1\Temp/ccFahdk0.s:1701   .progmem.data:000000f8 __c.2303
C:\DOCUME~1\Mick\LOCALS~1\Temp/ccFahdk0.s:1697   .progmem.data:000000e5 __c.2305
C:\DOCUME~1\Mick\LOCALS~1\Temp/ccFahdk0.s:1693   .progmem.data:000000e2 __c.2307
C:\DOCUME~1\Mick\LOCALS~1\Temp/ccFahdk0.s:1689   .progmem.data:000000d9 __c.2309
C:\DOCUME~1\Mick\LOCALS~1\Temp/ccFahdk0.s:1685   .progmem.data:000000cc __c.2311
C:\DOCUME~1\Mick\LOCALS~1\Temp/ccFahdk0.s:1681   .progmem.data:000000c5 __c.2313
C:\DOCUME~1\Mick\LOCALS~1\Temp/ccFahdk0.s:1677   .progmem.data:000000c0 __c.2315
C:\DOCUME~1\Mick\LOCALS~1\Temp/ccFahdk0.s:1673   .progmem.data:000000b5 __c.2317
C:\DOCUME~1\Mick\LOCALS~1\Temp/ccFahdk0.s:1669   .progmem.data:00000099 __c.2319
C:\DOCUME~1\Mick\LOCALS~1\Temp/ccFahdk0.s:1665   .progmem.data:0000008d __c.2321
C:\DOCUME~1\Mick\LOCALS~1\Temp/ccFahdk0.s:1661   .progmem.data:00000073 __c.2323
C:\DOCUME~1\Mick\LOCALS~1\Temp/ccFahdk0.s:1657   .progmem.data:00000065 __c.2325
C:\DOCUME~1\Mick\LOCALS~1\Temp/ccFahdk0.s:1653   .progmem.data:00000062 __c.2327
C:\DOCUME~1\Mick\LOCALS~1\Temp/ccFahdk0.s:1583   .data:00000009 sequence_0_times
C:\DOCUME~1\Mick\LOCALS~1\Temp/ccFahdk0.s:1599   .data:00000023 sequence_1_times
C:\DOCUME~1\Mick\LOCALS~1\Temp/ccFahdk0.s:1609   .data:00000031 sequence_2_times
C:\DOCUME~1\Mick\LOCALS~1\Temp/ccFahdk0.s:1618   .data:0000003d sequence_3_times
C:\DOCUME~1\Mick\LOCALS~1\Temp/ccFahdk0.s:1649   .progmem.data:00000059 __c.2337
C:\DOCUME~1\Mick\LOCALS~1\Temp/ccFahdk0.s:1645   .progmem.data:00000056 __c.2339
C:\DOCUME~1\Mick\LOCALS~1\Temp/ccFahdk0.s:1745   .progmem.data:00000167 __c.2456
C:\DOCUME~1\Mick\LOCALS~1\Temp/ccFahdk0.s:1580   .bss:00000002 button_skip
C:\DOCUME~1\Mick\LOCALS~1\Temp/ccFahdk0.s:1641   .progmem.data:0000002e __c.2346
C:\DOCUME~1\Mick\LOCALS~1\Temp/ccFahdk0.s:1637   .progmem.data:0000002b __c.2348
C:\DOCUME~1\Mick\LOCALS~1\Temp/ccFahdk0.s:1633   .progmem.data:00000016 __c.2350
C:\DOCUME~1\Mick\LOCALS~1\Temp/ccFahdk0.s:1629   .progmem.data:00000013 __c.2352
C:\DOCUME~1\Mick\LOCALS~1\Temp/ccFahdk0.s:1799   .bss:00000003 button_rotate
C:\DOCUME~1\Mick\LOCALS~1\Temp/ccFahdk0.s:1625   .progmem.data:00000000 __c.2354
C:\DOCUME~1\Mick\LOCALS~1\Temp/ccFahdk0.s:1462   .text:00000996 sequence_save_brightness
C:\DOCUME~1\Mick\LOCALS~1\Temp/ccFahdk0.s:1492   .text:000009be sequence_select_press
C:\DOCUME~1\Mick\LOCALS~1\Temp/ccFahdk0.s:1513   .text:000009d2 sequence_rotate_en
C:\DOCUME~1\Mick\LOCALS~1\Temp/ccFahdk0.s:1530   .text:000009de sequence_skip
C:\DOCUME~1\Mick\LOCALS~1\Temp/ccFahdk0.s:1547   .text:000009ea sequence_exit

UNDEFINED SYMBOLS
settings_ram
text_set
text_draw_y
text_isfinished
text_set_P
uart1_tx_string_P
led_framerate
led_plane_intensity_all
power_vled_set
led_blank
main_fly
itoa
uart1_tx_string
settings_save
a2d_light
pattern_duration_set
pattern_diamond_scroll
pattern_fountain
pattern_spinface
pattern_text1_P
pattern_fireworks
pattern_popcorn
pattern_rotate1
pattern_cube_stretch
pattern_noise_scroll
pattern_wirecube
pattern_wirecubediag
pattern_tesseract
pattern_cubewalls
pattern_diamond
pattern_waveup
pattern_screw
pattern_flapsheet
pattern_rain1
led_line
led_waitframe
power_vled_get
pattern_break
__do_copy_data
__do_clear_bss
