   1               		.file	"settings.c"
   2               	__SREG__ = 0x3f
   3               	__SP_H__ = 0x3e
   4               	__SP_L__ = 0x3d
   5               	__CCP__  = 0x34
   6               	__tmp_reg__ = 0
   7               	__zero_reg__ = 1
  15               	.Ltext0:
  16               	.global	settings_save
  18               	settings_save:
  19               	.LFB15:
  20               	.LM1:
  21 0000 0F93      		push r16
  22 0002 1F93      		push r17
  23 0004 CF93      		push r28
  24 0006 DF93      		push r29
  25               	/* prologue: function */
  26               	/* frame size = 0 */
  27               	.LM2:
  28 0008 00E0      		ldi r16,lo8(settings_ram)
  29 000a 10E0      		ldi r17,hi8(settings_ram)
  30               	.LVL0:
  31 000c C0E0      		ldi r28,lo8(settings_ee)
  32 000e D0E0      		ldi r29,hi8(settings_ee)
  33               	.LVL1:
  34 0010 00C0      		rjmp .L2
  35               	.L4:
  36               	.LM3:
  37 0012 CE01      		movw r24,r28
  38 0014 0E94 0000 		call __eerd_byte_m64
  39 0018 F801      		movw r30,r16
  40 001a 6081      		ld r22,Z
  41 001c 8617      		cp r24,r22
  42 001e 01F0      		breq .L3
  43               	.LM4:
  44 0020 CE01      		movw r24,r28
  45 0022 0E94 0000 		call __eewr_byte_m64
  46               	.L3:
  47               	.LM5:
  48 0026 2196      		adiw r28,1
  49               	.LM6:
  50 0028 0F5F      		subi r16,lo8(-(1))
  51 002a 1F4F      		sbci r17,hi8(-(1))
  52               	.L2:
  53               	.LM7:
  54 002c F0E0      		ldi r31,hi8(settings_ram+22)
  55 002e 0030      		cpi r16,lo8(settings_ram+22)
  56 0030 1F07      		cpc r17,r31
  57 0032 01F4      		brne .L4
  58               	/* epilogue start */
  59               	.LM8:
  60 0034 DF91      		pop r29
  61 0036 CF91      		pop r28
  62               	.LVL2:
  63 0038 1F91      		pop r17
  64 003a 0F91      		pop r16
  65               	.LVL3:
  66 003c 0895      		ret
  67               	.LFE15:
  69               	.global	settings_default
  71               	settings_default:
  72               	.LFB14:
  73               	.LM9:
  74 003e FF92      		push r15
  75 0040 0F93      		push r16
  76 0042 1F93      		push r17
  77               	/* prologue: function */
  78               	/* frame size = 0 */
  79               	.LM10:
  80 0044 F090 0000 		lds r15,settings_ram+1
  81               	.LVL4:
  82               	.LM11:
  83 0048 00E0      		ldi r16,lo8(settings_ram)
  84 004a 10E0      		ldi r17,hi8(settings_ram)
  85 004c C801      		movw r24,r16
  86 004e 60E0      		ldi r22,lo8(settings_p)
  87 0050 70E0      		ldi r23,hi8(settings_p)
  88 0052 46E1      		ldi r20,lo8(22)
  89 0054 50E0      		ldi r21,hi8(22)
  90 0056 0E94 0000 		call memcpy_P
  91               	.LM12:
  92 005a F092 0000 		sts settings_ram+1,r15
  93               	.LM13:
  94 005e 0E94 0000 		call settings_save
  95               	.LM14:
  96 0062 82E0      		ldi r24,lo8(2)
  97 0064 F801      		movw r30,r16
  98 0066 8083      		st Z,r24
  99               	.LM15:
 100 0068 0E94 0000 		call settings_save
 101               	/* epilogue start */
 102               	.LM16:
 103 006c 1F91      		pop r17
 104 006e 0F91      		pop r16
 105 0070 FF90      		pop r15
 106               	.LVL5:
 107 0072 0895      		ret
 108               	.LFE14:
 110               	.global	settings_init
 112               	settings_init:
 113               	.LFB16:
 114               	.LM17:
 115               	/* prologue: function */
 116               	/* frame size = 0 */
 117               	.LM18:
 118 0074 80E0      		ldi r24,lo8(settings_ram)
 119 0076 90E0      		ldi r25,hi8(settings_ram)
 120 0078 60E0      		ldi r22,lo8(settings_ee)
 121 007a 70E0      		ldi r23,hi8(settings_ee)
 122 007c 46E1      		ldi r20,lo8(22)
 123 007e 50E0      		ldi r21,hi8(22)
 124 0080 0E94 0000 		call __eerd_block_m64
 125               	.LM19:
 126 0084 8091 0000 		lds r24,settings_ram
 127 0088 8230      		cpi r24,lo8(2)
 128 008a 01F0      		breq .L10
 129               	.LM20:
 130 008c 0E94 0000 		call settings_default
 131               	.L10:
 132 0090 0895      		ret
 133               	.LFE16:
 135               	.global	settings_p
 136               		.section	.progmem.data,"a",@progbits
 139               	settings_p:
 140 0000 FF        		.byte	-1
 141 0001 FF        		.byte	-1
 142 0002 02        		.byte	2
 143 0003 00        		.byte	0
 144 0004 01        		.byte	1
 145 0005 00        		.byte	0
 146 0006 C800      		.word	200
 147 0008 F401      		.word	500
 148 000a FF        		.byte	-1
 149 000b 01        		.byte	1
 150 000c 00        		.byte	0
 151 000d FF        		.byte	-1
 152 000e 01        		.byte	1
 153 000f 00        		.byte	0
 154 0010 8C        		.byte	-116
 155 0011 01        		.byte	1
 156 0012 00        		.byte	0
 157 0013 8C        		.byte	-116
 158 0014 01        		.byte	1
 159 0015 00        		.byte	0
 160               		.comm settings_ram,22,1
 161               	.global	settings_ee
 162               		.section	.eeprom,"aw",@progbits
 165               	settings_ee:
 166 0000 0000 0000 		.skip 22,0
 166      0000 0000 
 166      0000 0000 
 166      0000 0000 
 166      0000 0000 
 207               	.Letext0:
DEFINED SYMBOLS
                            *ABS*:00000000 settings.c
C:\DOCUME~1\Mick\LOCALS~1\Temp/ccI7nfZe.s:2      *ABS*:0000003f __SREG__
C:\DOCUME~1\Mick\LOCALS~1\Temp/ccI7nfZe.s:3      *ABS*:0000003e __SP_H__
C:\DOCUME~1\Mick\LOCALS~1\Temp/ccI7nfZe.s:4      *ABS*:0000003d __SP_L__
C:\DOCUME~1\Mick\LOCALS~1\Temp/ccI7nfZe.s:5      *ABS*:00000034 __CCP__
C:\DOCUME~1\Mick\LOCALS~1\Temp/ccI7nfZe.s:6      *ABS*:00000000 __tmp_reg__
C:\DOCUME~1\Mick\LOCALS~1\Temp/ccI7nfZe.s:7      *ABS*:00000001 __zero_reg__
C:\DOCUME~1\Mick\LOCALS~1\Temp/ccI7nfZe.s:18     .text:00000000 settings_save
                            *COM*:00000016 settings_ram
C:\DOCUME~1\Mick\LOCALS~1\Temp/ccI7nfZe.s:165    .eeprom:00000000 settings_ee
C:\DOCUME~1\Mick\LOCALS~1\Temp/ccI7nfZe.s:71     .text:0000003e settings_default
C:\DOCUME~1\Mick\LOCALS~1\Temp/ccI7nfZe.s:139    .progmem.data:00000000 settings_p
C:\DOCUME~1\Mick\LOCALS~1\Temp/ccI7nfZe.s:112    .text:00000074 settings_init

UNDEFINED SYMBOLS
__eerd_byte_m64
__eewr_byte_m64
memcpy_P
__eerd_block_m64
__do_clear_bss
