   1               		.file	"text.c"
   2               	__SREG__ = 0x3f
   3               	__SP_H__ = 0x3e
   4               	__SP_L__ = 0x3d
   5               	__CCP__  = 0x34
   6               	__tmp_reg__ = 0
   7               	__zero_reg__ = 1
  15               	.Ltext0:
  16               	.global	text_isfinished
  18               	text_isfinished:
  19               	.LFB18:
  20               	.LM1:
  21               	/* prologue: function */
  22               	/* frame size = 0 */
  23               	.LM2:
  24 0000 8091 0000 		lds r24,finished
  25               	/* epilogue start */
  26 0004 0895      		ret
  27               	.LFE18:
  30               	load_char:
  31               	.LFB19:
  32               	.LM3:
  33               	.LVL0:
  34               	/* prologue: function */
  35               	/* frame size = 0 */
  36               	.LM4:
  37 0006 8F77      		andi r24,lo8(127)
  38               	.LVL1:
  39               	.LM5:
  40 0008 8052      		subi r24,lo8(-(-32))
  41 000a 90E0      		ldi r25,lo8(0)
  42               	.LM6:
  43 000c FC01      		movw r30,r24
  44               	.LVL2:
  45 000e EE0F      		lsl r30
  46 0010 FF1F      		rol r31
  47 0012 EE0F      		lsl r30
  48 0014 FF1F      		rol r31
  49 0016 E80F      		add r30,r24
  50 0018 F91F      		adc r31,r25
  51 001a E050      		subi r30,lo8(-(font))
  52 001c F040      		sbci r31,hi8(-(font))
  53               	.LBB2:
  54               	.LM7:
  55 001e CF01      		movw r24,r30
  56 0020 0196      		adiw r24,1
  57               	.LVL3:
  58               	/* #APP */
  59               	 ;  675 "text.c" 1
  60 0022 E491      		lpm r30, Z
  61               		
  62               	 ;  0 "" 2
  63               	.LVL4:
  64               	/* #NOAPP */
  65               	.LBE2:
  66 0024 E093 0000 		sts row,r30
  67               	.LBB3:
  68               	.LM8:
  69 0028 AC01      		movw r20,r24
  70 002a 4F5F      		subi r20,lo8(-(1))
  71 002c 5F4F      		sbci r21,hi8(-(1))
  72               	.LVL5:
  73 002e FC01      		movw r30,r24
  74               	.LVL6:
  75               	/* #APP */
  76               	 ;  676 "text.c" 1
  77 0030 8491      		lpm r24, Z
  78               		
  79               	 ;  0 "" 2
  80               	.LVL7:
  81               	/* #NOAPP */
  82               	.LBE3:
  83 0032 8093 0000 		sts row+1,r24
  84               	.LBB4:
  85               	.LM9:
  86 0036 9A01      		movw r18,r20
  87 0038 2F5F      		subi r18,lo8(-(1))
  88 003a 3F4F      		sbci r19,hi8(-(1))
  89               	.LVL8:
  90 003c FA01      		movw r30,r20
  91               	/* #APP */
  92               	 ;  677 "text.c" 1
  93 003e 8491      		lpm r24, Z
  94               		
  95               	 ;  0 "" 2
  96               	.LVL9:
  97               	/* #NOAPP */
  98               	.LBE4:
  99 0040 8093 0000 		sts row+2,r24
 100               	.LBB5:
 101               	.LM10:
 102 0044 F901      		movw r30,r18
 103               	/* #APP */
 104               	 ;  678 "text.c" 1
 105 0046 8491      		lpm r24, Z
 106               		
 107               	 ;  0 "" 2
 108               	.LVL10:
 109               	/* #NOAPP */
 110               	.LBE5:
 111 0048 8093 0000 		sts row+3,r24
 112               	.LBB6:
 113               	.LM11:
 114 004c 2F5F      		subi r18,lo8(-(1))
 115 004e 3F4F      		sbci r19,hi8(-(1))
 116 0050 F901      		movw r30,r18
 117               	/* #APP */
 118               	 ;  679 "text.c" 1
 119 0052 8491      		lpm r24, Z
 120               		
 121               	 ;  0 "" 2
 122               	.LVL11:
 123               	/* #NOAPP */
 124               	.LBE6:
 125 0054 8093 0000 		sts row+4,r24
 126               	.LM12:
 127 0058 86E0      		ldi r24,lo8(6)
 128               	.LVL12:
 129 005a 8093 0000 		sts row_contents,r24
 130               	/* epilogue start */
 131               	.LM13:
 132 005e 0895      		ret
 133               	.LFE19:
 135               	.global	text_set
 137               	text_set:
 138               	.LFB15:
 139               	.LM14:
 140               	.LVL13:
 141               	/* prologue: function */
 142               	/* frame size = 0 */
 143 0060 FC01      		movw r30,r24
 144               	.LM15:
 145 0062 1092 0000 		sts (text_ptr_p)+1,__zero_reg__
 146 0066 1092 0000 		sts text_ptr_p,__zero_reg__
 147               	.LM16:
 148 006a 9093 0000 		sts (text_ptr)+1,r25
 149 006e 8093 0000 		sts text_ptr,r24
 150               	.LM17:
 151 0072 8081      		ld r24,Z
 152               	.LVL14:
 153               	.LM18:
 154 0074 8823      		tst r24
 155 0076 01F0      		breq .L6
 156               	.LM19:
 157 0078 3196      		adiw r30,1
 158 007a F093 0000 		sts (text_ptr)+1,r31
 159 007e E093 0000 		sts text_ptr,r30
 160               	.LM20:
 161 0082 0E94 0000 		call load_char
 162               	.LVL15:
 163               	.LM21:
 164 0086 1092 0000 		sts finished,__zero_reg__
 165 008a 0895      		ret
 166               	.LVL16:
 167               	.L6:
 168               	.LM22:
 169 008c 81E0      		ldi r24,lo8(1)
 170               	.LVL17:
 171 008e 8093 0000 		sts finished,r24
 172 0092 0895      		ret
 173               	.LFE15:
 175               	.global	text_set_P
 177               	text_set_P:
 178               	.LFB14:
 179               	.LM23:
 180               	.LVL18:
 181               	/* prologue: function */
 182               	/* frame size = 0 */
 183 0094 FC01      		movw r30,r24
 184               	.LM24:
 185 0096 1092 0000 		sts (text_ptr)+1,__zero_reg__
 186 009a 1092 0000 		sts text_ptr,__zero_reg__
 187               	.LM25:
 188 009e 9093 0000 		sts (text_ptr_p)+1,r25
 189 00a2 8093 0000 		sts text_ptr_p,r24
 190               	.LBB7:
 191               	.LM26:
 192               	/* #APP */
 193               	 ;  529 "text.c" 1
 194 00a6 8491      		lpm r24, Z
 195               		
 196               	 ;  0 "" 2
 197               	.LVL19:
 198               	/* #NOAPP */
 199               	.LBE7:
 200               	.LM27:
 201 00a8 8823      		tst r24
 202 00aa 01F0      		breq .L10
 203               	.LM28:
 204 00ac 3196      		adiw r30,1
 205 00ae F093 0000 		sts (text_ptr_p)+1,r31
 206 00b2 E093 0000 		sts text_ptr_p,r30
 207               	.LM29:
 208 00b6 0E94 0000 		call load_char
 209               	.LVL20:
 210               	.LM30:
 211 00ba 1092 0000 		sts finished,__zero_reg__
 212 00be 0895      		ret
 213               	.LVL21:
 214               	.L10:
 215               	.LM31:
 216 00c0 81E0      		ldi r24,lo8(1)
 217               	.LVL22:
 218 00c2 8093 0000 		sts finished,r24
 219 00c6 0895      		ret
 220               	.LFE14:
 222               	.global	text_draw_x
 224               	text_draw_x:
 225               	.LFB17:
 226               	.LM32:
 227               	.LVL23:
 228               	/* prologue: function */
 229               	/* frame size = 0 */
 230 00c8 E62F      		mov r30,r22
 231               	.LM33:
 232 00ca E770      		andi r30,lo8(7)
 233               	.LVL24:
 234 00cc EE0F      		lsl r30
 235 00ce EE0F      		lsl r30
 236 00d0 EE0F      		lsl r30
 237 00d2 4770      		andi r20,lo8(7)
 238               	.LVL25:
 239 00d4 E40F      		add r30,r20
 240 00d6 F0E0      		ldi r31,lo8(0)
 241 00d8 8370      		andi r24,lo8(3)
 242               	.LVL26:
 243 00da 43E0      		ldi r20,lo8(3)
 244 00dc 50E0      		ldi r21,hi8(3)
 245               	.LVL27:
 246 00de 481B      		sub r20,r24
 247 00e0 5109      		sbc r21,__zero_reg__
 248               	.LM34:
 249 00e2 E050      		subi r30,lo8(-(led_frame_bitmap))
 250 00e4 F040      		sbci r31,hi8(-(led_frame_bitmap))
 251               	.LVL28:
 252 00e6 2FE1      		ldi r18,lo8(31)
 253 00e8 30E0      		ldi r19,hi8(31)
 254 00ea 042E      		mov r0,r20
 255 00ec 00C0      		rjmp 2f
 256 00ee 220F      	1:	lsl r18
 257 00f0 331F      		rol r19
 258 00f2 0A94      	2:	dec r0
 259 00f4 02F4      		brpl 1b
 260 00f6 2095      		com r18
 261 00f8 8081      		ld r24,Z
 262 00fa 2823      		and r18,r24
 263 00fc 8091 0000 		lds r24,row
 264 0100 90E0      		ldi r25,lo8(0)
 265 0102 00C0      		rjmp 2f
 266 0104 880F      	1:	lsl r24
 267 0106 991F      		rol r25
 268 0108 4A95      	2:	dec r20
 269 010a 02F4      		brpl 1b
 270 010c 282B      		or r18,r24
 271 010e 2083      		st Z,r18
 272               	.LM35:
 273 0110 8091 0000 		lds r24,row+1
 274 0114 8093 0000 		sts row,r24
 275               	.LM36:
 276 0118 8091 0000 		lds r24,row+2
 277 011c 8093 0000 		sts row+1,r24
 278               	.LM37:
 279 0120 8091 0000 		lds r24,row+3
 280 0124 8093 0000 		sts row+2,r24
 281               	.LM38:
 282 0128 8091 0000 		lds r24,row+4
 283 012c 8093 0000 		sts row+3,r24
 284               	.LM39:
 285 0130 1092 0000 		sts row+4,__zero_reg__
 286               	.LM40:
 287 0134 8091 0000 		lds r24,row_contents
 288 0138 8150      		subi r24,lo8(-(-1))
 289 013a 8093 0000 		sts row_contents,r24
 290               	.LM41:
 291 013e 8823      		tst r24
 292 0140 01F4      		brne .L16
 293               	.LM42:
 294 0142 8091 0000 		lds r24,text_ptr_p
 295 0146 9091 0000 		lds r25,(text_ptr_p)+1
 296 014a 0097      		sbiw r24,0
 297 014c 01F0      		breq .L15
 298               	.LM43:
 299 014e 0E94 0000 		call text_set_P
 300 0152 0895      		ret
 301               	.L15:
 302               	.LM44:
 303 0154 8091 0000 		lds r24,text_ptr
 304 0158 9091 0000 		lds r25,(text_ptr)+1
 305 015c 0E94 0000 		call text_set
 306               	.L16:
 307 0160 0895      		ret
 308               	.LFE17:
 310               	.global	text_draw_y
 312               	text_draw_y:
 313               	.LFB16:
 314               	.LM45:
 315               	.LVL29:
 316               	/* prologue: function */
 317               	/* frame size = 0 */
 318 0162 282F      		mov r18,r24
 319               	.LM46:
 320 0164 8091 0000 		lds r24,finished
 321               	.LVL30:
 322 0168 8823      		tst r24
 323 016a 01F0      		breq .+2
 324 016c 00C0      		rjmp .L30
 325               	.LM47:
 326 016e 2770      		andi r18,lo8(7)
 327 0170 80E8      		ldi r24,lo8(128)
 328 0172 90E0      		ldi r25,hi8(128)
 329 0174 00C0      		rjmp 2f
 330 0176 9595      	1:	asr r25
 331 0178 8795      		ror r24
 332 017a 2A95      	2:	dec r18
 333 017c 02F4      		brpl 1b
 334 017e 982F      		mov r25,r24
 335               	.LVL31:
 336               	.LM48:
 337 0180 282F      		mov r18,r24
 338               	.LVL32:
 339 0182 2095      		com r18
 340               	.LM49:
 341 0184 6370      		andi r22,lo8(3)
 342               	.LVL33:
 343 0186 660F      		lsl r22
 344 0188 660F      		lsl r22
 345 018a 660F      		lsl r22
 346 018c 4770      		andi r20,lo8(7)
 347               	.LVL34:
 348 018e 640F      		add r22,r20
 349               	.LM50:
 350 0190 3091 0000 		lds r19,row
 351 0194 E62F      		mov r30,r22
 352 0196 F0E0      		ldi r31,lo8(0)
 353 0198 35FF      		sbrs r19,5
 354 019a 00C0      		rjmp .L19
 355               	.LVL35:
 356               	.LM51:
 357 019c E050      		subi r30,lo8(-(led_frame_bitmap))
 358 019e F040      		sbci r31,hi8(-(led_frame_bitmap))
 359 01a0 8081      		ld r24,Z
 360               	.LVL36:
 361 01a2 892B      		or r24,r25
 362 01a4 00C0      		rjmp .L31
 363               	.LVL37:
 364               	.L19:
 365               	.LM52:
 366 01a6 E050      		subi r30,lo8(-(led_frame_bitmap))
 367 01a8 F040      		sbci r31,hi8(-(led_frame_bitmap))
 368 01aa 8081      		ld r24,Z
 369               	.LVL38:
 370 01ac 8223      		and r24,r18
 371               	.L31:
 372 01ae 8083      		st Z,r24
 373               	.LM53:
 374 01b0 685F      		subi r22,lo8(-(8))
 375               	.LVL39:
 376               	.LM54:
 377 01b2 8091 0000 		lds r24,row+1
 378 01b6 E62F      		mov r30,r22
 379 01b8 F0E0      		ldi r31,lo8(0)
 380 01ba 85FF      		sbrs r24,5
 381 01bc 00C0      		rjmp .L21
 382               	.LM55:
 383 01be E050      		subi r30,lo8(-(led_frame_bitmap))
 384 01c0 F040      		sbci r31,hi8(-(led_frame_bitmap))
 385 01c2 8081      		ld r24,Z
 386 01c4 892B      		or r24,r25
 387 01c6 00C0      		rjmp .L32
 388               	.L21:
 389               	.LM56:
 390 01c8 E050      		subi r30,lo8(-(led_frame_bitmap))
 391 01ca F040      		sbci r31,hi8(-(led_frame_bitmap))
 392 01cc 8081      		ld r24,Z
 393 01ce 8223      		and r24,r18
 394               	.L32:
 395 01d0 8083      		st Z,r24
 396               	.LM57:
 397 01d2 685F      		subi r22,lo8(-(8))
 398               	.LVL40:
 399               	.LM58:
 400 01d4 8091 0000 		lds r24,row+2
 401 01d8 E62F      		mov r30,r22
 402 01da F0E0      		ldi r31,lo8(0)
 403 01dc 85FF      		sbrs r24,5
 404 01de 00C0      		rjmp .L23
 405               	.LM59:
 406 01e0 E050      		subi r30,lo8(-(led_frame_bitmap))
 407 01e2 F040      		sbci r31,hi8(-(led_frame_bitmap))
 408 01e4 8081      		ld r24,Z
 409 01e6 892B      		or r24,r25
 410 01e8 00C0      		rjmp .L33
 411               	.L23:
 412               	.LM60:
 413 01ea E050      		subi r30,lo8(-(led_frame_bitmap))
 414 01ec F040      		sbci r31,hi8(-(led_frame_bitmap))
 415 01ee 8081      		ld r24,Z
 416 01f0 8223      		and r24,r18
 417               	.L33:
 418 01f2 8083      		st Z,r24
 419               	.LM61:
 420 01f4 685F      		subi r22,lo8(-(8))
 421               	.LVL41:
 422               	.LM62:
 423 01f6 8091 0000 		lds r24,row+3
 424 01fa E62F      		mov r30,r22
 425 01fc F0E0      		ldi r31,lo8(0)
 426 01fe 85FF      		sbrs r24,5
 427 0200 00C0      		rjmp .L25
 428               	.LM63:
 429 0202 E050      		subi r30,lo8(-(led_frame_bitmap))
 430 0204 F040      		sbci r31,hi8(-(led_frame_bitmap))
 431 0206 8081      		ld r24,Z
 432 0208 892B      		or r24,r25
 433 020a 00C0      		rjmp .L34
 434               	.L25:
 435               	.LM64:
 436 020c E050      		subi r30,lo8(-(led_frame_bitmap))
 437 020e F040      		sbci r31,hi8(-(led_frame_bitmap))
 438 0210 8081      		ld r24,Z
 439 0212 8223      		and r24,r18
 440               	.L34:
 441 0214 8083      		st Z,r24
 442               	.LM65:
 443 0216 685F      		subi r22,lo8(-(8))
 444               	.LM66:
 445 0218 8091 0000 		lds r24,row+4
 446 021c 70E0      		ldi r23,lo8(0)
 447 021e 85FF      		sbrs r24,5
 448 0220 00C0      		rjmp .L27
 449               	.LM67:
 450 0222 FB01      		movw r30,r22
 451               	.LVL42:
 452 0224 E050      		subi r30,lo8(-(led_frame_bitmap))
 453 0226 F040      		sbci r31,hi8(-(led_frame_bitmap))
 454 0228 8081      		ld r24,Z
 455 022a 892B      		or r24,r25
 456 022c 00C0      		rjmp .L35
 457               	.LVL43:
 458               	.L27:
 459               	.LM68:
 460 022e FB01      		movw r30,r22
 461               	.LVL44:
 462 0230 E050      		subi r30,lo8(-(led_frame_bitmap))
 463 0232 F040      		sbci r31,hi8(-(led_frame_bitmap))
 464 0234 8081      		ld r24,Z
 465 0236 8223      		and r24,r18
 466               	.L35:
 467 0238 8083      		st Z,r24
 468               	.LM69:
 469 023a 330F      		lsl r19
 470 023c 3093 0000 		sts row,r19
 471               	.LM70:
 472 0240 8091 0000 		lds r24,row+1
 473 0244 880F      		lsl r24
 474 0246 8093 0000 		sts row+1,r24
 475               	.LM71:
 476 024a 8091 0000 		lds r24,row+2
 477 024e 880F      		lsl r24
 478 0250 8093 0000 		sts row+2,r24
 479               	.LM72:
 480 0254 8091 0000 		lds r24,row+3
 481 0258 880F      		lsl r24
 482 025a 8093 0000 		sts row+3,r24
 483               	.LM73:
 484 025e 8091 0000 		lds r24,row+4
 485 0262 880F      		lsl r24
 486 0264 8093 0000 		sts row+4,r24
 487               	.LM74:
 488 0268 8091 0000 		lds r24,row_contents
 489 026c 8150      		subi r24,lo8(-(-1))
 490 026e 8093 0000 		sts row_contents,r24
 491               	.LM75:
 492 0272 8823      		tst r24
 493 0274 01F4      		brne .L30
 494               	.LM76:
 495 0276 8091 0000 		lds r24,text_ptr_p
 496 027a 9091 0000 		lds r25,(text_ptr_p)+1
 497 027e 0097      		sbiw r24,0
 498 0280 01F0      		breq .L29
 499               	.LM77:
 500 0282 0E94 0000 		call text_set_P
 501               	.LVL45:
 502 0286 0895      		ret
 503               	.LVL46:
 504               	.L29:
 505               	.LM78:
 506 0288 8091 0000 		lds r24,text_ptr
 507 028c 9091 0000 		lds r25,(text_ptr)+1
 508 0290 0E94 0000 		call text_set
 509               	.LVL47:
 510               	.L30:
 511 0294 0895      		ret
 512               	.LFE16:
 514               		.data
 517               	finished:
 518 0000 01        		.byte	1
 519               		.lcomm row_contents,1
 520               		.section	.progmem.data,"a",@progbits
 523               	font:
 524 0000 00        		.byte	0
 525 0001 00        		.byte	0
 526 0002 00        		.byte	0
 527 0003 00        		.byte	0
 528 0004 00        		.byte	0
 529 0005 04        		.byte	4
 530 0006 04        		.byte	4
 531 0007 04        		.byte	4
 532 0008 00        		.byte	0
 533 0009 04        		.byte	4
 534 000a 0A        		.byte	10
 535 000b 0A        		.byte	10
 536 000c 00        		.byte	0
 537 000d 00        		.byte	0
 538 000e 00        		.byte	0
 539 000f 0A        		.byte	10
 540 0010 1F        		.byte	31
 541 0011 0A        		.byte	10
 542 0012 1F        		.byte	31
 543 0013 0A        		.byte	10
 544 0014 0F        		.byte	15
 545 0015 14        		.byte	20
 546 0016 0E        		.byte	14
 547 0017 05        		.byte	5
 548 0018 1E        		.byte	30
 549 0019 11        		.byte	17
 550 001a 02        		.byte	2
 551 001b 04        		.byte	4
 552 001c 08        		.byte	8
 553 001d 11        		.byte	17
 554 001e 08        		.byte	8
 555 001f 14        		.byte	20
 556 0020 0D        		.byte	13
 557 0021 12        		.byte	18
 558 0022 0D        		.byte	13
 559 0023 04        		.byte	4
 560 0024 04        		.byte	4
 561 0025 00        		.byte	0
 562 0026 00        		.byte	0
 563 0027 00        		.byte	0
 564 0028 02        		.byte	2
 565 0029 04        		.byte	4
 566 002a 04        		.byte	4
 567 002b 04        		.byte	4
 568 002c 02        		.byte	2
 569 002d 08        		.byte	8
 570 002e 04        		.byte	4
 571 002f 04        		.byte	4
 572 0030 04        		.byte	4
 573 0031 08        		.byte	8
 574 0032 15        		.byte	21
 575 0033 0E        		.byte	14
 576 0034 1F        		.byte	31
 577 0035 0E        		.byte	14
 578 0036 15        		.byte	21
 579 0037 04        		.byte	4
 580 0038 04        		.byte	4
 581 0039 1F        		.byte	31
 582 003a 04        		.byte	4
 583 003b 04        		.byte	4
 584 003c 00        		.byte	0
 585 003d 00        		.byte	0
 586 003e 00        		.byte	0
 587 003f 04        		.byte	4
 588 0040 08        		.byte	8
 589 0041 00        		.byte	0
 590 0042 00        		.byte	0
 591 0043 1F        		.byte	31
 592 0044 00        		.byte	0
 593 0045 00        		.byte	0
 594 0046 00        		.byte	0
 595 0047 00        		.byte	0
 596 0048 00        		.byte	0
 597 0049 00        		.byte	0
 598 004a 08        		.byte	8
 599 004b 01        		.byte	1
 600 004c 02        		.byte	2
 601 004d 04        		.byte	4
 602 004e 08        		.byte	8
 603 004f 10        		.byte	16
 604 0050 0E        		.byte	14
 605 0051 13        		.byte	19
 606 0052 15        		.byte	21
 607 0053 19        		.byte	25
 608 0054 0E        		.byte	14
 609 0055 04        		.byte	4
 610 0056 0C        		.byte	12
 611 0057 04        		.byte	4
 612 0058 04        		.byte	4
 613 0059 0E        		.byte	14
 614 005a 0E        		.byte	14
 615 005b 11        		.byte	17
 616 005c 02        		.byte	2
 617 005d 0C        		.byte	12
 618 005e 1F        		.byte	31
 619 005f 0E        		.byte	14
 620 0060 11        		.byte	17
 621 0061 06        		.byte	6
 622 0062 11        		.byte	17
 623 0063 0E        		.byte	14
 624 0064 04        		.byte	4
 625 0065 0C        		.byte	12
 626 0066 1E        		.byte	30
 627 0067 04        		.byte	4
 628 0068 04        		.byte	4
 629 0069 1E        		.byte	30
 630 006a 10        		.byte	16
 631 006b 1E        		.byte	30
 632 006c 01        		.byte	1
 633 006d 1E        		.byte	30
 634 006e 0E        		.byte	14
 635 006f 10        		.byte	16
 636 0070 1E        		.byte	30
 637 0071 11        		.byte	17
 638 0072 0E        		.byte	14
 639 0073 1F        		.byte	31
 640 0074 02        		.byte	2
 641 0075 04        		.byte	4
 642 0076 08        		.byte	8
 643 0077 10        		.byte	16
 644 0078 0E        		.byte	14
 645 0079 11        		.byte	17
 646 007a 0E        		.byte	14
 647 007b 11        		.byte	17
 648 007c 0E        		.byte	14
 649 007d 0E        		.byte	14
 650 007e 11        		.byte	17
 651 007f 0E        		.byte	14
 652 0080 01        		.byte	1
 653 0081 0E        		.byte	14
 654 0082 04        		.byte	4
 655 0083 04        		.byte	4
 656 0084 00        		.byte	0
 657 0085 04        		.byte	4
 658 0086 04        		.byte	4
 659 0087 04        		.byte	4
 660 0088 04        		.byte	4
 661 0089 00        		.byte	0
 662 008a 04        		.byte	4
 663 008b 08        		.byte	8
 664 008c 04        		.byte	4
 665 008d 08        		.byte	8
 666 008e 10        		.byte	16
 667 008f 08        		.byte	8
 668 0090 04        		.byte	4
 669 0091 00        		.byte	0
 670 0092 1F        		.byte	31
 671 0093 00        		.byte	0
 672 0094 1F        		.byte	31
 673 0095 00        		.byte	0
 674 0096 04        		.byte	4
 675 0097 02        		.byte	2
 676 0098 01        		.byte	1
 677 0099 02        		.byte	2
 678 009a 04        		.byte	4
 679 009b 0E        		.byte	14
 680 009c 11        		.byte	17
 681 009d 06        		.byte	6
 682 009e 00        		.byte	0
 683 009f 04        		.byte	4
 684 00a0 0E        		.byte	14
 685 00a1 13        		.byte	19
 686 00a2 15        		.byte	21
 687 00a3 17        		.byte	23
 688 00a4 0D        		.byte	13
 689 00a5 04        		.byte	4
 690 00a6 0A        		.byte	10
 691 00a7 1F        		.byte	31
 692 00a8 11        		.byte	17
 693 00a9 11        		.byte	17
 694 00aa 1E        		.byte	30
 695 00ab 11        		.byte	17
 696 00ac 1E        		.byte	30
 697 00ad 11        		.byte	17
 698 00ae 1E        		.byte	30
 699 00af 0E        		.byte	14
 700 00b0 11        		.byte	17
 701 00b1 10        		.byte	16
 702 00b2 11        		.byte	17
 703 00b3 0E        		.byte	14
 704 00b4 1E        		.byte	30
 705 00b5 11        		.byte	17
 706 00b6 11        		.byte	17
 707 00b7 11        		.byte	17
 708 00b8 1E        		.byte	30
 709 00b9 1F        		.byte	31
 710 00ba 10        		.byte	16
 711 00bb 1C        		.byte	28
 712 00bc 10        		.byte	16
 713 00bd 1F        		.byte	31
 714 00be 1F        		.byte	31
 715 00bf 10        		.byte	16
 716 00c0 1C        		.byte	28
 717 00c1 10        		.byte	16
 718 00c2 10        		.byte	16
 719 00c3 0E        		.byte	14
 720 00c4 10        		.byte	16
 721 00c5 17        		.byte	23
 722 00c6 12        		.byte	18
 723 00c7 0E        		.byte	14
 724 00c8 11        		.byte	17
 725 00c9 11        		.byte	17
 726 00ca 1F        		.byte	31
 727 00cb 11        		.byte	17
 728 00cc 11        		.byte	17
 729 00cd 0E        		.byte	14
 730 00ce 04        		.byte	4
 731 00cf 04        		.byte	4
 732 00d0 04        		.byte	4
 733 00d1 0E        		.byte	14
 734 00d2 01        		.byte	1
 735 00d3 01        		.byte	1
 736 00d4 01        		.byte	1
 737 00d5 11        		.byte	17
 738 00d6 0E        		.byte	14
 739 00d7 11        		.byte	17
 740 00d8 12        		.byte	18
 741 00d9 1C        		.byte	28
 742 00da 12        		.byte	18
 743 00db 11        		.byte	17
 744 00dc 10        		.byte	16
 745 00dd 10        		.byte	16
 746 00de 10        		.byte	16
 747 00df 10        		.byte	16
 748 00e0 1F        		.byte	31
 749 00e1 11        		.byte	17
 750 00e2 1B        		.byte	27
 751 00e3 15        		.byte	21
 752 00e4 11        		.byte	17
 753 00e5 11        		.byte	17
 754 00e6 11        		.byte	17
 755 00e7 19        		.byte	25
 756 00e8 15        		.byte	21
 757 00e9 13        		.byte	19
 758 00ea 11        		.byte	17
 759 00eb 0E        		.byte	14
 760 00ec 11        		.byte	17
 761 00ed 11        		.byte	17
 762 00ee 11        		.byte	17
 763 00ef 0E        		.byte	14
 764 00f0 1E        		.byte	30
 765 00f1 11        		.byte	17
 766 00f2 1E        		.byte	30
 767 00f3 10        		.byte	16
 768 00f4 10        		.byte	16
 769 00f5 0E        		.byte	14
 770 00f6 11        		.byte	17
 771 00f7 15        		.byte	21
 772 00f8 13        		.byte	19
 773 00f9 0F        		.byte	15
 774 00fa 1E        		.byte	30
 775 00fb 11        		.byte	17
 776 00fc 1E        		.byte	30
 777 00fd 12        		.byte	18
 778 00fe 11        		.byte	17
 779 00ff 0F        		.byte	15
 780 0100 10        		.byte	16
 781 0101 0E        		.byte	14
 782 0102 01        		.byte	1
 783 0103 1E        		.byte	30
 784 0104 1F        		.byte	31
 785 0105 04        		.byte	4
 786 0106 04        		.byte	4
 787 0107 04        		.byte	4
 788 0108 04        		.byte	4
 789 0109 11        		.byte	17
 790 010a 11        		.byte	17
 791 010b 11        		.byte	17
 792 010c 11        		.byte	17
 793 010d 0E        		.byte	14
 794 010e 11        		.byte	17
 795 010f 11        		.byte	17
 796 0110 11        		.byte	17
 797 0111 0A        		.byte	10
 798 0112 04        		.byte	4
 799 0113 11        		.byte	17
 800 0114 11        		.byte	17
 801 0115 11        		.byte	17
 802 0116 15        		.byte	21
 803 0117 0A        		.byte	10
 804 0118 11        		.byte	17
 805 0119 0A        		.byte	10
 806 011a 04        		.byte	4
 807 011b 0A        		.byte	10
 808 011c 11        		.byte	17
 809 011d 11        		.byte	17
 810 011e 0A        		.byte	10
 811 011f 04        		.byte	4
 812 0120 04        		.byte	4
 813 0121 04        		.byte	4
 814 0122 1F        		.byte	31
 815 0123 02        		.byte	2
 816 0124 04        		.byte	4
 817 0125 08        		.byte	8
 818 0126 1F        		.byte	31
 819 0127 0E        		.byte	14
 820 0128 08        		.byte	8
 821 0129 08        		.byte	8
 822 012a 08        		.byte	8
 823 012b 0E        		.byte	14
 824 012c 10        		.byte	16
 825 012d 08        		.byte	8
 826 012e 04        		.byte	4
 827 012f 02        		.byte	2
 828 0130 01        		.byte	1
 829 0131 0E        		.byte	14
 830 0132 02        		.byte	2
 831 0133 02        		.byte	2
 832 0134 02        		.byte	2
 833 0135 0E        		.byte	14
 834 0136 04        		.byte	4
 835 0137 0A        		.byte	10
 836 0138 11        		.byte	17
 837 0139 00        		.byte	0
 838 013a 00        		.byte	0
 839 013b 00        		.byte	0
 840 013c 00        		.byte	0
 841 013d 00        		.byte	0
 842 013e 00        		.byte	0
 843 013f 1F        		.byte	31
 844 0140 10        		.byte	16
 845 0141 10        		.byte	16
 846 0142 00        		.byte	0
 847 0143 00        		.byte	0
 848 0144 00        		.byte	0
 849 0145 04        		.byte	4
 850 0146 0A        		.byte	10
 851 0147 1F        		.byte	31
 852 0148 11        		.byte	17
 853 0149 11        		.byte	17
 854 014a 1E        		.byte	30
 855 014b 11        		.byte	17
 856 014c 1E        		.byte	30
 857 014d 11        		.byte	17
 858 014e 1E        		.byte	30
 859 014f 0E        		.byte	14
 860 0150 11        		.byte	17
 861 0151 10        		.byte	16
 862 0152 11        		.byte	17
 863 0153 0E        		.byte	14
 864 0154 1E        		.byte	30
 865 0155 11        		.byte	17
 866 0156 11        		.byte	17
 867 0157 11        		.byte	17
 868 0158 1E        		.byte	30
 869 0159 1F        		.byte	31
 870 015a 10        		.byte	16
 871 015b 1C        		.byte	28
 872 015c 10        		.byte	16
 873 015d 1F        		.byte	31
 874 015e 1F        		.byte	31
 875 015f 10        		.byte	16
 876 0160 1C        		.byte	28
 877 0161 10        		.byte	16
 878 0162 10        		.byte	16
 879 0163 0E        		.byte	14
 880 0164 10        		.byte	16
 881 0165 17        		.byte	23
 882 0166 12        		.byte	18
 883 0167 0E        		.byte	14
 884 0168 11        		.byte	17
 885 0169 11        		.byte	17
 886 016a 1F        		.byte	31
 887 016b 11        		.byte	17
 888 016c 11        		.byte	17
 889 016d 0E        		.byte	14
 890 016e 04        		.byte	4
 891 016f 04        		.byte	4
 892 0170 04        		.byte	4
 893 0171 0E        		.byte	14
 894 0172 01        		.byte	1
 895 0173 01        		.byte	1
 896 0174 01        		.byte	1
 897 0175 11        		.byte	17
 898 0176 0E        		.byte	14
 899 0177 11        		.byte	17
 900 0178 12        		.byte	18
 901 0179 1C        		.byte	28
 902 017a 12        		.byte	18
 903 017b 11        		.byte	17
 904 017c 10        		.byte	16
 905 017d 10        		.byte	16
 906 017e 10        		.byte	16
 907 017f 10        		.byte	16
 908 0180 1F        		.byte	31
 909 0181 11        		.byte	17
 910 0182 1B        		.byte	27
 911 0183 15        		.byte	21
 912 0184 11        		.byte	17
 913 0185 11        		.byte	17
 914 0186 11        		.byte	17
 915 0187 19        		.byte	25
 916 0188 15        		.byte	21
 917 0189 13        		.byte	19
 918 018a 11        		.byte	17
 919 018b 0E        		.byte	14
 920 018c 11        		.byte	17
 921 018d 11        		.byte	17
 922 018e 11        		.byte	17
 923 018f 0E        		.byte	14
 924 0190 1E        		.byte	30
 925 0191 11        		.byte	17
 926 0192 1E        		.byte	30
 927 0193 10        		.byte	16
 928 0194 10        		.byte	16
 929 0195 0E        		.byte	14
 930 0196 11        		.byte	17
 931 0197 15        		.byte	21
 932 0198 13        		.byte	19
 933 0199 0F        		.byte	15
 934 019a 1E        		.byte	30
 935 019b 11        		.byte	17
 936 019c 1E        		.byte	30
 937 019d 12        		.byte	18
 938 019e 11        		.byte	17
 939 019f 0F        		.byte	15
 940 01a0 10        		.byte	16
 941 01a1 0E        		.byte	14
 942 01a2 01        		.byte	1
 943 01a3 1E        		.byte	30
 944 01a4 1F        		.byte	31
 945 01a5 04        		.byte	4
 946 01a6 04        		.byte	4
 947 01a7 04        		.byte	4
 948 01a8 04        		.byte	4
 949 01a9 11        		.byte	17
 950 01aa 11        		.byte	17
 951 01ab 11        		.byte	17
 952 01ac 11        		.byte	17
 953 01ad 0E        		.byte	14
 954 01ae 11        		.byte	17
 955 01af 11        		.byte	17
 956 01b0 11        		.byte	17
 957 01b1 0A        		.byte	10
 958 01b2 04        		.byte	4
 959 01b3 11        		.byte	17
 960 01b4 11        		.byte	17
 961 01b5 11        		.byte	17
 962 01b6 15        		.byte	21
 963 01b7 0A        		.byte	10
 964 01b8 11        		.byte	17
 965 01b9 0A        		.byte	10
 966 01ba 04        		.byte	4
 967 01bb 0A        		.byte	10
 968 01bc 11        		.byte	17
 969 01bd 11        		.byte	17
 970 01be 0A        		.byte	10
 971 01bf 04        		.byte	4
 972 01c0 04        		.byte	4
 973 01c1 04        		.byte	4
 974 01c2 1F        		.byte	31
 975 01c3 02        		.byte	2
 976 01c4 04        		.byte	4
 977 01c5 08        		.byte	8
 978 01c6 1F        		.byte	31
 979 01c7 06        		.byte	6
 980 01c8 08        		.byte	8
 981 01c9 18        		.byte	24
 982 01ca 08        		.byte	8
 983 01cb 06        		.byte	6
 984 01cc 04        		.byte	4
 985 01cd 04        		.byte	4
 986 01ce 04        		.byte	4
 987 01cf 04        		.byte	4
 988 01d0 04        		.byte	4
 989 01d1 0C        		.byte	12
 990 01d2 02        		.byte	2
 991 01d3 03        		.byte	3
 992 01d4 02        		.byte	2
 993 01d5 0C        		.byte	12
 994 01d6 14        		.byte	20
 995 01d7 0A        		.byte	10
 996 01d8 00        		.byte	0
 997 01d9 00        		.byte	0
 998 01da 00        		.byte	0
 999 01db 1F        		.byte	31
 1000 01dc 11        		.byte	17
 1001 01dd 11        		.byte	17
 1002 01de 11        		.byte	17
 1003 01df 1F        		.byte	31
 1004               		.lcomm text_ptr_p,2
 1005               		.lcomm text_ptr,2
 1006               		.lcomm row,5
 1071               	.Letext0:
DEFINED SYMBOLS
                            *ABS*:00000000 text.c
C:\DOCUME~1\Mick\LOCALS~1\Temp/ccAE2EqD.s:2      *ABS*:0000003f __SREG__
C:\DOCUME~1\Mick\LOCALS~1\Temp/ccAE2EqD.s:3      *ABS*:0000003e __SP_H__
C:\DOCUME~1\Mick\LOCALS~1\Temp/ccAE2EqD.s:4      *ABS*:0000003d __SP_L__
C:\DOCUME~1\Mick\LOCALS~1\Temp/ccAE2EqD.s:5      *ABS*:00000034 __CCP__
C:\DOCUME~1\Mick\LOCALS~1\Temp/ccAE2EqD.s:6      *ABS*:00000000 __tmp_reg__
C:\DOCUME~1\Mick\LOCALS~1\Temp/ccAE2EqD.s:7      *ABS*:00000001 __zero_reg__
C:\DOCUME~1\Mick\LOCALS~1\Temp/ccAE2EqD.s:18     .text:00000000 text_isfinished
C:\DOCUME~1\Mick\LOCALS~1\Temp/ccAE2EqD.s:517    .data:00000000 finished
C:\DOCUME~1\Mick\LOCALS~1\Temp/ccAE2EqD.s:30     .text:00000006 load_char
C:\DOCUME~1\Mick\LOCALS~1\Temp/ccAE2EqD.s:523    .progmem.data:00000000 font
C:\DOCUME~1\Mick\LOCALS~1\Temp/ccAE2EqD.s:1005   .bss:00000005 row
                             .bss:00000000 row_contents
C:\DOCUME~1\Mick\LOCALS~1\Temp/ccAE2EqD.s:137    .text:00000060 text_set
C:\DOCUME~1\Mick\LOCALS~1\Temp/ccAE2EqD.s:519    .bss:00000001 text_ptr_p
C:\DOCUME~1\Mick\LOCALS~1\Temp/ccAE2EqD.s:1004   .bss:00000003 text_ptr
C:\DOCUME~1\Mick\LOCALS~1\Temp/ccAE2EqD.s:177    .text:00000094 text_set_P
C:\DOCUME~1\Mick\LOCALS~1\Temp/ccAE2EqD.s:224    .text:000000c8 text_draw_x
C:\DOCUME~1\Mick\LOCALS~1\Temp/ccAE2EqD.s:312    .text:00000162 text_draw_y

UNDEFINED SYMBOLS
led_frame_bitmap
__do_copy_data
__do_clear_bss
