Archive member included because of file (symbol)

c:/programs/winavr-20100110/bin/../lib/gcc/avr/4.3.3/avr5\libgcc.a(_mulsi3.o)
                              M644_MBC_Bootloader.o (__mulsi3)
c:/programs/winavr-20100110/bin/../lib/gcc/avr/4.3.3/avr5\libgcc.a(_udivmodsi4.o)
                              M644_MBC_Bootloader.o (__udivmodsi4)
c:/programs/winavr-20100110/bin/../lib/gcc/avr/4.3.3/avr5\libgcc.a(_exit.o)
                              c:/programs/winavr-20100110/bin/../lib/gcc/avr/4.3.3/../../../../avr/lib/avr5/crtm644.o (exit)
c:/programs/winavr-20100110/bin/../lib/gcc/avr/4.3.3/avr5\libgcc.a(_clear_bss.o)
                              M644_MBC_Bootloader.o (__do_clear_bss)

Allocating common symbols
Common symbol       size              file

bytesInBuff         0x1               M644_MBC_Bootloader.o
ymodemBuffer        0x405             M644_MBC_Bootloader.o
pageBuff            0x100             M644_MBC_Bootloader.o
writeErrorFlag      0x1               M644_MBC_Bootloader.o
ymodemReceivedPackets
                    0x2               M644_MBC_Bootloader.o
pageAddress         0x2               M644_MBC_Bootloader.o
writeErrorAddress   0x2               M644_MBC_Bootloader.o
wordsInBuff         0x1               M644_MBC_Bootloader.o
writeErrorAddressLast
                    0x2               M644_MBC_Bootloader.o

Memory Configuration

Name             Origin             Length             Attributes
text             0x00000000         0x00020000         xr
data             0x00800060         0x0000ffa0         rw !x
eeprom           0x00810000         0x00010000         rw !x
fuse             0x00820000         0x00000400         rw !x
lock             0x00830000         0x00000400         rw !x
signature        0x00840000         0x00000400         rw !x
*default*        0x00000000         0xffffffff

Linker script and memory map

Address of section .data set to 0x800100
LOAD c:/programs/winavr-20100110/bin/../lib/gcc/avr/4.3.3/../../../../avr/lib/avr5/crtm644.o
Address of section .text set to 0xe000
LOAD M644_MBC_Bootloader.o
LOAD c:/programs/winavr-20100110/bin/../lib/gcc/avr/4.3.3/avr5\libgcc.a
LOAD c:/programs/winavr-20100110/bin/../lib/gcc/avr/4.3.3/../../../../avr/lib/avr5\libc.a
LOAD c:/programs/winavr-20100110/bin/../lib/gcc/avr/4.3.3/avr5\libgcc.a

.hash
 *(.hash)

.dynsym
 *(.dynsym)

.dynstr
 *(.dynstr)

.gnu.version
 *(.gnu.version)

.gnu.version_d
 *(.gnu.version_d)

.gnu.version_r
 *(.gnu.version_r)

.rel.init
 *(.rel.init)

.rela.init
 *(.rela.init)

.rel.text
 *(.rel.text)
 *(.rel.text.*)
 *(.rel.gnu.linkonce.t*)

.rela.text
 *(.rela.text)
 *(.rela.text.*)
 *(.rela.gnu.linkonce.t*)

.rel.fini
 *(.rel.fini)

.rela.fini
 *(.rela.fini)

.rel.rodata
 *(.rel.rodata)
 *(.rel.rodata.*)
 *(.rel.gnu.linkonce.r*)

.rela.rodata
 *(.rela.rodata)
 *(.rela.rodata.*)
 *(.rela.gnu.linkonce.r*)

.rel.data
 *(.rel.data)
 *(.rel.data.*)
 *(.rel.gnu.linkonce.d*)

.rela.data
 *(.rela.data)
 *(.rela.data.*)
 *(.rela.gnu.linkonce.d*)

.rel.ctors
 *(.rel.ctors)

.rela.ctors
 *(.rela.ctors)

.rel.dtors
 *(.rel.dtors)

.rela.dtors
 *(.rela.dtors)

.rel.got
 *(.rel.got)

.rela.got
 *(.rela.got)

.rel.bss
 *(.rel.bss)

.rela.bss
 *(.rela.bss)

.rel.plt
 *(.rel.plt)

.rela.plt
 *(.rela.plt)

.text           0x0000e000      0xa5c
 *(.vectors)
 .vectors       0x0000e000       0x70 c:/programs/winavr-20100110/bin/../lib/gcc/avr/4.3.3/../../../../avr/lib/avr5/crtm644.o
                0x0000e000                __vectors
                0x0000e000                __vector_default
 *(.vectors)
 *(.progmem.gcc*)
 *(.progmem*)
 .progmem.data  0x0000e070      0x103 M644_MBC_Bootloader.o
                0x0000e174                . = ALIGN (0x2)
 *fill*         0x0000e173        0x1 00
                0x0000e174                __trampolines_start = .
 *(.trampolines)
 .trampolines   0x0000e174        0x0 linker stubs
 *(.trampolines*)
                0x0000e174                __trampolines_end = .
 *(.jumptables)
 *(.jumptables*)
 *(.lowtext)
 *(.lowtext*)
                0x0000e174                __ctors_start = .
 *(.ctors)
                0x0000e174                __ctors_end = .
                0x0000e174                __dtors_start = .
 *(.dtors)
                0x0000e174                __dtors_end = .
 SORT(*)(.ctors)
 SORT(*)(.dtors)
 *(.init0)
 .init0         0x0000e174        0x0 c:/programs/winavr-20100110/bin/../lib/gcc/avr/4.3.3/../../../../avr/lib/avr5/crtm644.o
                0x0000e174                __init
 *(.init0)
 *(.init1)
 *(.init1)
 *(.init2)
 .init2         0x0000e174        0xc c:/programs/winavr-20100110/bin/../lib/gcc/avr/4.3.3/../../../../avr/lib/avr5/crtm644.o
 *(.init2)
 *(.init3)
 *(.init3)
 *(.init4)
 .init4         0x0000e180       0x10 c:/programs/winavr-20100110/bin/../lib/gcc/avr/4.3.3/avr5\libgcc.a(_clear_bss.o)
                0x0000e180                __do_clear_bss
 *(.init4)
 *(.init5)
 *(.init5)
 *(.init6)
 *(.init6)
 *(.init7)
 *(.init7)
 *(.init8)
 *(.init8)
 *(.init9)
 .init9         0x0000e190        0x8 c:/programs/winavr-20100110/bin/../lib/gcc/avr/4.3.3/../../../../avr/lib/avr5/crtm644.o
 *(.init9)
 *(.text)
 .text          0x0000e198        0x4 c:/programs/winavr-20100110/bin/../lib/gcc/avr/4.3.3/../../../../avr/lib/avr5/crtm644.o
                0x0000e198                __vector_22
                0x0000e198                __vector_1
                0x0000e198                __vector_24
                0x0000e198                __vector_12
                0x0000e198                __bad_interrupt
                0x0000e198                __vector_6
                0x0000e198                __vector_3
                0x0000e198                __vector_23
                0x0000e198                __vector_25
                0x0000e198                __vector_11
                0x0000e198                __vector_13
                0x0000e198                __vector_17
                0x0000e198                __vector_19
                0x0000e198                __vector_7
                0x0000e198                __vector_27
                0x0000e198                __vector_5
                0x0000e198                __vector_4
                0x0000e198                __vector_9
                0x0000e198                __vector_2
                0x0000e198                __vector_21
                0x0000e198                __vector_15
                0x0000e198                __vector_8
                0x0000e198                __vector_26
                0x0000e198                __vector_14
                0x0000e198                __vector_10
                0x0000e198                __vector_16
                0x0000e198                __vector_18
                0x0000e198                __vector_20
 .text          0x0000e19c      0x83a M644_MBC_Bootloader.o
                0x0000e1ec                usart_transmit_int32
                0x0000e19c                init_uart
                0x0000e83e                buff_add
                0x0000e2be                wait_for_continue
                0x0000e1d2                usart_transmit_str_P
                0x0000e2d0                ymodem_receive
                0x0000e89a                main
                0x0000e1c4                usart_receive
                0x0000e1b4                usart_transmit
 .text          0x0000e9d6        0x0 c:/programs/winavr-20100110/bin/../lib/gcc/avr/4.3.3/avr5\libgcc.a(_mulsi3.o)
 .text          0x0000e9d6        0x0 c:/programs/winavr-20100110/bin/../lib/gcc/avr/4.3.3/avr5\libgcc.a(_udivmodsi4.o)
 .text          0x0000e9d6        0x0 c:/programs/winavr-20100110/bin/../lib/gcc/avr/4.3.3/avr5\libgcc.a(_exit.o)
 .text          0x0000e9d6        0x0 c:/programs/winavr-20100110/bin/../lib/gcc/avr/4.3.3/avr5\libgcc.a(_clear_bss.o)
                0x0000e9d6                . = ALIGN (0x2)
 *(.text.*)
 .text.libgcc   0x0000e9d6       0x3e c:/programs/winavr-20100110/bin/../lib/gcc/avr/4.3.3/avr5\libgcc.a(_mulsi3.o)
                0x0000e9d6                __mulsi3
 .text.libgcc   0x0000ea14       0x44 c:/programs/winavr-20100110/bin/../lib/gcc/avr/4.3.3/avr5\libgcc.a(_udivmodsi4.o)
                0x0000ea14                __udivmodsi4
 .text.libgcc   0x0000ea58        0x0 c:/programs/winavr-20100110/bin/../lib/gcc/avr/4.3.3/avr5\libgcc.a(_exit.o)
 .text.libgcc   0x0000ea58        0x0 c:/programs/winavr-20100110/bin/../lib/gcc/avr/4.3.3/avr5\libgcc.a(_clear_bss.o)
                0x0000ea58                . = ALIGN (0x2)
 *(.fini9)
 .fini9         0x0000ea58        0x0 c:/programs/winavr-20100110/bin/../lib/gcc/avr/4.3.3/avr5\libgcc.a(_exit.o)
                0x0000ea58                exit
                0x0000ea58                _exit
 *(.fini9)
 *(.fini8)
 *(.fini8)
 *(.fini7)
 *(.fini7)
 *(.fini6)
 *(.fini6)
 *(.fini5)
 *(.fini5)
 *(.fini4)
 *(.fini4)
 *(.fini3)
 *(.fini3)
 *(.fini2)
 *(.fini2)
 *(.fini1)
 *(.fini1)
 *(.fini0)
 .fini0         0x0000ea58        0x4 c:/programs/winavr-20100110/bin/../lib/gcc/avr/4.3.3/avr5\libgcc.a(_exit.o)
 *(.fini0)
                0x0000ea5c                _etext = .

.data           0x00800100        0x0 load address 0x0000ea5c
                0x00800100                PROVIDE (__data_start, .)
 *(.data)
 .data          0x00800100        0x0 c:/programs/winavr-20100110/bin/../lib/gcc/avr/4.3.3/../../../../avr/lib/avr5/crtm644.o
 .data          0x00800100        0x0 M644_MBC_Bootloader.o
 .data          0x00800100        0x0 c:/programs/winavr-20100110/bin/../lib/gcc/avr/4.3.3/avr5\libgcc.a(_mulsi3.o)
 .data          0x00800100        0x0 c:/programs/winavr-20100110/bin/../lib/gcc/avr/4.3.3/avr5\libgcc.a(_udivmodsi4.o)
 .data          0x00800100        0x0 c:/programs/winavr-20100110/bin/../lib/gcc/avr/4.3.3/avr5\libgcc.a(_exit.o)
 .data          0x00800100        0x0 c:/programs/winavr-20100110/bin/../lib/gcc/avr/4.3.3/avr5\libgcc.a(_clear_bss.o)
 *(.data*)
 *(.rodata)
 *(.rodata*)
 *(.gnu.linkonce.d*)
                0x00800100                . = ALIGN (0x2)
                0x00800100                _edata = .
                0x00800100                PROVIDE (__data_end, .)

.bss            0x00800100      0x510
                0x00800100                PROVIDE (__bss_start, .)
 *(.bss)
 .bss           0x00800100        0x0 c:/programs/winavr-20100110/bin/../lib/gcc/avr/4.3.3/../../../../avr/lib/avr5/crtm644.o
 .bss           0x00800100        0x0 M644_MBC_Bootloader.o
 .bss           0x00800100        0x0 c:/programs/winavr-20100110/bin/../lib/gcc/avr/4.3.3/avr5\libgcc.a(_mulsi3.o)
 .bss           0x00800100        0x0 c:/programs/winavr-20100110/bin/../lib/gcc/avr/4.3.3/avr5\libgcc.a(_udivmodsi4.o)
 .bss           0x00800100        0x0 c:/programs/winavr-20100110/bin/../lib/gcc/avr/4.3.3/avr5\libgcc.a(_exit.o)
 .bss           0x00800100        0x0 c:/programs/winavr-20100110/bin/../lib/gcc/avr/4.3.3/avr5\libgcc.a(_clear_bss.o)
 *(.bss*)
 *(COMMON)
 COMMON         0x00800100      0x510 M644_MBC_Bootloader.o
                0x00800100                bytesInBuff
                0x00800101                ymodemBuffer
                0x00800506                pageBuff
                0x00800606                writeErrorFlag
                0x00800607                ymodemReceivedPackets
                0x00800609                pageAddress
                0x0080060b                writeErrorAddress
                0x0080060d                wordsInBuff
                0x0080060e                writeErrorAddressLast
                0x00800610                PROVIDE (__bss_end, .)
                0x0000ea5c                __data_load_start = LOADADDR (.data)
                0x0000ea5c                __data_load_end = (__data_load_start + SIZEOF (.data))

.noinit         0x00800610        0x0
                0x00800610                PROVIDE (__noinit_start, .)
 *(.noinit*)
                0x00800610                PROVIDE (__noinit_end, .)
                0x00800610                _end = .
                0x00800610                PROVIDE (__heap_start, .)

.eeprom         0x00810000        0x0
 *(.eeprom*)
                0x00810000                __eeprom_end = .

.fuse
 *(.fuse)
 *(.lfuse)
 *(.hfuse)
 *(.efuse)

.lock
 *(.lock*)

.signature
 *(.signature*)

.stab
 *(.stab)

.stabstr
 *(.stabstr)

.stab.excl
 *(.stab.excl)

.stab.exclstr
 *(.stab.exclstr)

.stab.index
 *(.stab.index)

.stab.indexstr
 *(.stab.indexstr)

.comment
 *(.comment)

.debug
 *(.debug)

.line
 *(.line)

.debug_srcinfo
 *(.debug_srcinfo)

.debug_sfnames
 *(.debug_sfnames)

.debug_aranges  0x00000000       0x20
 *(.debug_aranges)
 .debug_aranges
                0x00000000       0x20 M644_MBC_Bootloader.o

.debug_pubnames
                0x00000000      0x161
 *(.debug_pubnames)
 .debug_pubnames
                0x00000000      0x161 M644_MBC_Bootloader.o

.debug_info     0x00000000      0xb71
 *(.debug_info)
 .debug_info    0x00000000      0xb71 M644_MBC_Bootloader.o
 *(.gnu.linkonce.wi.*)

.debug_abbrev   0x00000000      0x342
 *(.debug_abbrev)
 .debug_abbrev  0x00000000      0x342 M644_MBC_Bootloader.o

.debug_line     0x00000000      0x800
 *(.debug_line)
 .debug_line    0x00000000      0x800 M644_MBC_Bootloader.o

.debug_frame    0x00000000       0xb0
 *(.debug_frame)
 .debug_frame   0x00000000       0xb0 M644_MBC_Bootloader.o

.debug_str      0x00000000      0x2c8
 *(.debug_str)
 .debug_str     0x00000000      0x2c8 M644_MBC_Bootloader.o
                                0x30c (size before relaxing)

.debug_loc      0x00000000      0x69d
 *(.debug_loc)
 .debug_loc     0x00000000      0x69d M644_MBC_Bootloader.o

.debug_macinfo
 *(.debug_macinfo)
OUTPUT(M644_MBC_Bootloader.elf elf32-avr)
LOAD linker stubs

.debug_ranges   0x00000000      0x160
 .debug_ranges  0x00000000      0x160 M644_MBC_Bootloader.o
