ARM Linker, RVCT3.0 [Build 942] for uVision [Evaluation]

================================================================================

Section Cross References

    startup.o(STACK) refers (Special) to stkheap2.o(.text) for __use_two_region_memory
    startup.o(HEAP) refers (Special) to stkheap2.o(.text) for __use_two_region_memory
    startup.o(RESET) refers to startup.o(STACK) for StackMem
    startup.o(RESET) refers to lm1770_main.o(.text) for ADCIntHandler
    startup.o(RESET) refers to __main.o(!!!main) for __main
    startup.o(RESET) refers (Special) to stkheap2.o(.text) for __use_two_region_memory
    startup.o(.text) refers to startup.o(HEAP) for HeapMem
    startup.o(.text) refers to startup.o(STACK) for StackMem
    startup.o(.text) refers (Special) to stkheap2.o(.text) for __use_two_region_memory
    random.o(.text) refers to random.o(.bss) for .bss$5
    random.o(.text) refers to random.o(.data) for .data$0
    osram96x16.o(.text) refers to i2c.o(i.I2CMasterSlaveAddrSet) for I2CMasterSlaveAddrSet
    osram96x16.o(.text) refers to i2c.o(i.I2CMasterDataPut) for I2CMasterDataPut
    osram96x16.o(.text) refers to i2c.o(i.I2CMasterControl) for I2CMasterControl
    osram96x16.o(.text) refers to i2c.o(i.I2CMasterIntStatus) for I2CMasterIntStatus
    osram96x16.o(.text) refers to osram96x16.o(.emb_text) for OSRAMDelay
    osram96x16.o(.text) refers to sysctl.o(i.SysCtlPeripheralEnable) for SysCtlPeripheralEnable
    osram96x16.o(.text) refers to gpio.o(i.GPIOPinTypeI2C) for GPIOPinTypeI2C
    osram96x16.o(.text) refers to i2c.o(i.I2CMasterInit) for I2CMasterInit
    osram96x16.o(.text) refers to osram96x16.o(.data) for .data$0
    osram96x16.o(.text) refers to osram96x16.o(.constdata) for .constdata$1
    lm1770_main.o(.text) refers to osram96x16.o(.text) for OSRAMImageDraw
    lm1770_main.o(.text) refers to random.o(.text) for RandomNumber
    lm1770_main.o(.text) refers to lm1770_main.o(.data) for pwheel
    lm1770_main.o(.text) refers to lm1770_main.o(.bss) for gbuf
    lm1770_main.o(.text) refers to h1_alloc.o(.text) for malloc
    lm1770_main.o(.text) refers to sysctl.o(i.SysCtlClockSet) for SysCtlClockSet
    lm1770_main.o(.text) refers to sysctl.o(i.SysCtlPeripheralEnable) for SysCtlPeripheralEnable
    lm1770_main.o(.text) refers to adc.o(i.ADCSequenceConfigure) for ADCSequenceConfigure
    lm1770_main.o(.text) refers to adc.o(i.ADCSequenceStepConfigure) for ADCSequenceStepConfigure
    lm1770_main.o(.text) refers to adc.o(i.ADCSequenceEnable) for ADCSequenceEnable
    lm1770_main.o(.text) refers to adc.o(i.ADCIntEnable) for ADCIntEnable
    lm1770_main.o(.text) refers to interrupt.o(i.IntEnable) for IntEnable
    lm1770_main.o(.text) refers to timer.o(i.TimerConfigure) for TimerConfigure
    lm1770_main.o(.text) refers to sysctl.o(i.SysCtlClockGet) for SysCtlClockGet
    lm1770_main.o(.text) refers to timer.o(i.TimerLoadSet) for TimerLoadSet
    lm1770_main.o(.text) refers to timer.o(i.TimerMatchSet) for TimerMatchSet
    lm1770_main.o(.text) refers to timer.o(i.TimerControlLevel) for TimerControlLevel
    lm1770_main.o(.text) refers to timer.o(i.TimerEnable) for TimerEnable
    lm1770_main.o(.text) refers to timer.o(i.TimerControlStall) for TimerControlStall
    lm1770_main.o(.text) refers to timer.o(i.TimerControlTrigger) for TimerControlTrigger
    lm1770_main.o(.text) refers to gpio.o(i.GPIODirModeSet) for GPIODirModeSet
    lm1770_main.o(.text) refers to gpio.o(i.GPIOPinWrite) for GPIOPinWrite
    lm1770_main.o(.text) refers to adc.o(i.ADCIntClear) for ADCIntClear
    lm1770_main.o(.text) refers to adc.o(i.ADCSequenceDataGet) for ADCSequenceDataGet
    lm1770_main.o(.text) refers to gpio.o(i.GPIOPinRead) for GPIOPinRead
    adc.o(i.ADCIntRegister) refers to interrupt.o(i.IntRegister) for IntRegister
    adc.o(i.ADCIntRegister) refers to interrupt.o(i.IntEnable) for IntEnable
    adc.o(i.ADCIntUnregister) refers to interrupt.o(i.IntDisable) for IntDisable
    adc.o(i.ADCIntUnregister) refers to interrupt.o(i.IntUnregister) for IntUnregister
    adc.o(i.ADCSoftwareOversampleConfigure) refers to adc.o(.data) for .data$0
    adc.o(i.ADCSoftwareOversampleStepConfigure) refers to adc.o(.data) for .data$0
    adc.o(i.ADCSoftwareOversampleDataGet) refers to adc.o(.data) for .data$0
    gpio.o(i.GPIOPortIntRegister) refers to gpio.o(i.GPIOGetIntNumber) for GPIOGetIntNumber
    gpio.o(i.GPIOPortIntRegister) refers to interrupt.o(i.IntRegister) for IntRegister
    gpio.o(i.GPIOPortIntRegister) refers to interrupt.o(i.IntEnable) for IntEnable
    gpio.o(i.GPIOPortIntUnregister) refers to gpio.o(i.GPIOGetIntNumber) for GPIOGetIntNumber
    gpio.o(i.GPIOPortIntUnregister) refers to interrupt.o(i.IntDisable) for IntDisable
    gpio.o(i.GPIOPortIntUnregister) refers to interrupt.o(i.IntUnregister) for IntUnregister
    gpio.o(i.GPIOPinTypeComparator) refers to gpio.o(i.GPIODirModeSet) for GPIODirModeSet
    gpio.o(i.GPIOPinTypeComparator) refers to gpio.o(i.GPIOPadConfigSet) for GPIOPadConfigSet
    gpio.o(i.GPIOPinTypeI2C) refers to gpio.o(i.GPIODirModeSet) for GPIODirModeSet
    gpio.o(i.GPIOPinTypeI2C) refers to gpio.o(i.GPIOPadConfigSet) for GPIOPadConfigSet
    gpio.o(i.GPIOPinTypePWM) refers to gpio.o(i.GPIODirModeSet) for GPIODirModeSet
    gpio.o(i.GPIOPinTypePWM) refers to gpio.o(i.GPIOPadConfigSet) for GPIOPadConfigSet
    gpio.o(i.GPIOPinTypeQEI) refers to gpio.o(i.GPIODirModeSet) for GPIODirModeSet
    gpio.o(i.GPIOPinTypeQEI) refers to gpio.o(i.GPIOPadConfigSet) for GPIOPadConfigSet
    gpio.o(i.GPIOPinTypeSSI) refers to gpio.o(i.GPIODirModeSet) for GPIODirModeSet
    gpio.o(i.GPIOPinTypeSSI) refers to gpio.o(i.GPIOPadConfigSet) for GPIOPadConfigSet
    gpio.o(i.GPIOPinTypeTimer) refers to gpio.o(i.GPIODirModeSet) for GPIODirModeSet
    gpio.o(i.GPIOPinTypeTimer) refers to gpio.o(i.GPIOPadConfigSet) for GPIOPadConfigSet
    gpio.o(i.GPIOPinTypeUART) refers to gpio.o(i.GPIODirModeSet) for GPIODirModeSet
    gpio.o(i.GPIOPinTypeUART) refers to gpio.o(i.GPIOPadConfigSet) for GPIOPadConfigSet
    i2c.o(i.I2CMasterInit) refers to sysctl.o(i.SysCtlClockGet) for SysCtlClockGet
    i2c.o(i.I2CSlaveInit) refers to i2c.o(i.I2CSlaveEnable) for I2CSlaveEnable
    i2c.o(i.I2CIntRegister) refers to interrupt.o(i.IntRegister) for IntRegister
    i2c.o(i.I2CIntRegister) refers to interrupt.o(i.IntEnable) for IntEnable
    i2c.o(i.I2CIntUnregister) refers to interrupt.o(i.IntDisable) for IntDisable
    i2c.o(i.I2CIntUnregister) refers to interrupt.o(i.IntUnregister) for IntUnregister
    interrupt.o(i.IntMasterEnable) refers to cpu.o(.text) for CPUcpsie
    interrupt.o(i.IntMasterDisable) refers to cpu.o(.text) for CPUcpsid
    interrupt.o(i.IntRegister) refers to interrupt.o(vtable) for vtable$7
    interrupt.o(i.IntUnregister) refers to interrupt.o(i.IntDefaultHandler) for IntDefaultHandler
    interrupt.o(i.IntUnregister) refers to interrupt.o(vtable) for vtable$7
    interrupt.o(i.IntPriorityGroupingSet) refers to interrupt.o(.constdata) for .constdata$1
    interrupt.o(i.IntPriorityGroupingGet) refers to interrupt.o(.constdata) for .constdata$1
    interrupt.o(i.IntPrioritySet) refers to interrupt.o(.constdata) for .constdata$1
    interrupt.o(i.IntPriorityGet) refers to interrupt.o(.constdata) for .constdata$1
    sysctl.o(i.SysCtlPeripheralPresent) refers to sysctl.o(.constdata) for .constdata$1
    sysctl.o(i.SysCtlPeripheralReset) refers to sysctl.o(.constdata) for .constdata$1
    sysctl.o(i.SysCtlPeripheralEnable) refers to sysctl.o(.constdata) for .constdata$1
    sysctl.o(i.SysCtlPeripheralDisable) refers to sysctl.o(.constdata) for .constdata$1
    sysctl.o(i.SysCtlPeripheralSleepEnable) refers to sysctl.o(.constdata) for .constdata$1
    sysctl.o(i.SysCtlPeripheralSleepDisable) refers to sysctl.o(.constdata) for .constdata$1
    sysctl.o(i.SysCtlPeripheralDeepSleepEnable) refers to sysctl.o(.constdata) for .constdata$1
    sysctl.o(i.SysCtlPeripheralDeepSleepDisable) refers to sysctl.o(.constdata) for .constdata$1
    sysctl.o(i.SysCtlIntRegister) refers to interrupt.o(i.IntRegister) for IntRegister
    sysctl.o(i.SysCtlIntRegister) refers to interrupt.o(i.IntEnable) for IntEnable
    sysctl.o(i.SysCtlIntUnregister) refers to interrupt.o(i.IntDisable) for IntDisable
    sysctl.o(i.SysCtlIntUnregister) refers to interrupt.o(i.IntUnregister) for IntUnregister
    sysctl.o(i.SysCtlSleep) refers to cpu.o(.text) for CPUwfi
    sysctl.o(i.SysCtlDeepSleep) refers to cpu.o(.text) for CPUwfi
    sysctl.o(i.SysCtlClockGet) refers to sysctl.o(.constdata) for .constdata$1
    timer.o(i.TimerIntRegister) refers to interrupt.o(i.IntRegister) for IntRegister
    timer.o(i.TimerIntRegister) refers to interrupt.o(i.IntEnable) for IntEnable
    timer.o(i.TimerIntUnregister) refers to interrupt.o(i.IntDisable) for IntDisable
    timer.o(i.TimerIntUnregister) refers to interrupt.o(i.IntUnregister) for IntUnregister
    timer.o(i.TimerQuiesce) refers to timer.o(i.TimerIntUnregister) for TimerIntUnregister
    malloc.o(.text) refers to rt_heap_descriptor_intlibspace.o(.text) for __rt_heap_descriptor
    malloc.o(.text) refers to heapstubs.o(.text) for __Heap_Alloc
    malloc.o(.text) refers (Special) to hguard.o(.text) for __heap_guard
    malloc.o(.text) refers (Special) to init_alloc.o(.text) for _init_alloc
    h1_alloc.o(.text) refers to rt_heap_descriptor_intlibspace.o(.text) for __rt_heap_descriptor
    h1_alloc.o(.text) refers to init_alloc.o(.text) for __Heap_Full
    h1_alloc_mt.o(.text) refers to mutex_init.o(.text) for _mutex_initialize
    h1_alloc_mt.o(.text) refers to init_alloc.o(.text) for __Heap_Full
    h1_alloc_mt.o(.text) refers to rt_heap_descriptor_intlibspace.o(.text) for __rt_heap_descriptor
    heap2.o(i.___Heap_ProvideMemory_realtime) refers to fdtree.o(i._FDTree_Delete) for _FDTree_Delete
    heap2.o(i.___Heap_ProvideMemory_realtime) refers to fdtree.o(i._FDTree_Insert) for _FDTree_Insert
    heap2.o(i._malloc_realtime) refers to rt_heap_descriptor_intlibspace.o(.text) for __rt_heap_descriptor
    heap2.o(i._malloc_realtime) refers to fdtree.o(i._FDTree_FindFirst) for _FDTree_FindFirst
    heap2.o(i._malloc_realtime) refers to init_alloc.o(.text) for __Heap_Full
    heap2.o(i._malloc_realtime) refers to fdtree.o(i._FDTree_RemoveNode) for _FDTree_RemoveNode
    heap2.o(i._malloc_realtime) refers to fdtree.o(i._FDTree_Insert) for _FDTree_Insert
    heap2.o(i._realloc_realtime) refers to rt_heap_descriptor_intlibspace.o(.text) for __rt_heap_descriptor
    heap2.o(i._realloc_realtime) refers to h1_free.o(.text) for free
    heap2.o(i._realloc_realtime) refers to h1_alloc.o(.text) for malloc
    heap2.o(i._realloc_realtime) refers to fdtree.o(i._FDTree_Delete) for _FDTree_Delete
    heap2.o(i._realloc_realtime) refers to fdtree.o(i._FDTree_Insert) for _FDTree_Insert
    heap2.o(i._realloc_realtime) refers to rt_memcpy_w.o(.text) for __aeabi_memcpy4
    heap2.o(i._free_realtime) refers to rt_heap_descriptor_intlibspace.o(.text) for __rt_heap_descriptor
    heap2.o(i._free_realtime) refers to fdtree.o(i._FDTree_Delete) for _FDTree_Delete
    heap2.o(i._free_realtime) refers to fdtree.o(i._FDTree_Insert) for _FDTree_Insert
    heap2.o(i.___Heap_Stats_realtime) refers to heap2.o(i._Heap2_StatsIterate) for _Heap2_StatsIterate
    heap2.o(i._FDIterate) refers to heap2.o(.constdata) for .constdata$1
    heap2.o(i.___Heap_Valid_realtime) refers to heap2.o(i._FDIterate) for _FDIterate
    heap2.o(i.___Heap_Valid_realtime) refers to heap2.o(.constdata) for .constdata$1
    heap2mt.o(i.___Heap_Initialize_realtime_concurrent) refers to mutex_init.o(.text) for _mutex_initialize
    heap2mt.o(i.___Heap_ProvideMemory_realtime_concurrent) refers to fdtree.o(i._FDTree_Delete) for _FDTree_Delete
    heap2mt.o(i.___Heap_ProvideMemory_realtime_concurrent) refers to fdtree.o(i._FDTree_Insert) for _FDTree_Insert
    heap2mt.o(i._malloc_realtime_concurrent) refers to rt_heap_descriptor_intlibspace.o(.text) for __rt_heap_descriptor
    heap2mt.o(i._malloc_realtime_concurrent) refers to fdtree.o(i._FDTree_FindFirst) for _FDTree_FindFirst
    heap2mt.o(i._malloc_realtime_concurrent) refers to init_alloc.o(.text) for __Heap_Full
    heap2mt.o(i._malloc_realtime_concurrent) refers to fdtree.o(i._FDTree_RemoveNode) for _FDTree_RemoveNode
    heap2mt.o(i._malloc_realtime_concurrent) refers to fdtree.o(i._FDTree_Insert) for _FDTree_Insert
    heap2mt.o(i._realloc_realtime_concurrent) refers to rt_heap_descriptor_intlibspace.o(.text) for __rt_heap_descriptor
    heap2mt.o(i._realloc_realtime_concurrent) refers to h1_free.o(.text) for free
    heap2mt.o(i._realloc_realtime_concurrent) refers to h1_alloc.o(.text) for malloc
    heap2mt.o(i._realloc_realtime_concurrent) refers to fdtree.o(i._FDTree_Delete) for _FDTree_Delete
    heap2mt.o(i._realloc_realtime_concurrent) refers to fdtree.o(i._FDTree_Insert) for _FDTree_Insert
    heap2mt.o(i._realloc_realtime_concurrent) refers to rt_memcpy_w.o(.text) for __aeabi_memcpy4
    heap2mt.o(i._free_realtime_concurrent) refers to rt_heap_descriptor_intlibspace.o(.text) for __rt_heap_descriptor
    heap2mt.o(i._free_realtime_concurrent) refers to fdtree.o(i._FDTree_Delete) for _FDTree_Delete
    heap2mt.o(i._free_realtime_concurrent) refers to fdtree.o(i._FDTree_Insert) for _FDTree_Insert
    heap2mt.o(i.___Heap_Stats_realtime_concurrent) refers to heap2mt.o(i._Heap2_StatsIterate) for _Heap2_StatsIterate
    heap2mt.o(i._FDIterate) refers to heap2mt.o(.constdata) for .constdata$1
    heap2mt.o(i.___Heap_Valid_realtime_concurrent) refers to heap2mt.o(i._FDIterate) for _FDIterate
    heap2mt.o(i.___Heap_Valid_realtime_concurrent) refers to heap2mt.o(.constdata) for .constdata$1
    stkheap2.o(.text) refers to sys_stackheap_outer.o(.text) for __user_setup_stackheap
    stkheap2.o(.text) refers to rt_stackheap_storage_intlibspace.o(.text) for __rt_stackheap_storage
    __main.o(!!!main) refers to kernel.o(.text) for __rt_entry
    kernel.o(.text) refers to boardinit1.o(.text) for _platform_pre_stackheap_init
    kernel.o(.text) refers to stkheap2.o(.text) for __rt_stackheap_init
    kernel.o(.text) refers to boardinit2.o(.text) for _platform_post_stackheap_init
    kernel.o(.text) refers to lib_init.o(.text) for __rt_lib_init
    kernel.o(.text) refers to boardinit3.o(.text) for _platform_post_lib_init
    kernel.o(.text) refers to lm1770_main.o(.text) for main
    kernel.o(.text) refers to exit.o(.text) for exit
    kernel.o(.text) refers to boardshut.o(.text) for _platform_pre_lib_shutdown
    kernel.o(.text) refers to sys_exit.o(.text) for _sys_exit
    kernel.o(.ARM.exidx) refers to kernel.o(.text) for __rt_entry
    sys_stackheap_outer.o(.text) refers to libspace.o(.text) for __user_perproc_libspace
    sys_stackheap_outer.o(.text) refers to startup.o(.text) for __user_initial_stackheap
    rt_heap_descriptor.o(.text) refers to rt_heap_descriptor.o(.bss) for __rt_heap_descriptor_data
    rt_heap_descriptor_intlibspace.o(.text) refers (Weak) to libspace.o(.bss) for __libspace_start
    rt_heap_descriptor_onelibspace.o(.text) refers (Weak) to libspace.o(.text) for __user_libspace
    rt_heap_descriptor_twolibspace.o(.text) refers (Weak) to libspace.o(.text) for __user_perproc_libspace
    rt_stackheap_storage.o(.text) refers to rt_stackheap_storage.o(.bss) for __rt_stackheap_storage_data
    rt_stackheap_storage_intlibspace.o(.text) refers (Weak) to libspace.o(.bss) for __libspace_start
    rt_stackheap_storage_onelibspace.o(.text) refers (Weak) to libspace.o(.text) for __user_libspace
    rt_stackheap_storage_twolibspace.o(.text) refers (Weak) to libspace.o(.text) for __user_perproc_libspace
    init_alloc.o(.text) refers to heapext.o(.text) for __heap_extend
    init_alloc.o(.text) refers to h1_extend.o(.text) for __Heap_ProvideMemory
    init_alloc.o(.text) refers to defsig_rtmem_outer.o(.text) for __rt_SIGRTMEM
    init_alloc.o(.text) refers to h1_alloc.o(.text) for __Heap_DescSize
    init_alloc.o(.text) refers to rt_heap_descriptor_intlibspace.o(.text) for __rt_heap_descriptor
    init_alloc.o(.text) refers (Special) to hguard.o(.text) for __heap_guard
    free.o(.text) refers to rt_heap_descriptor_intlibspace.o(.text) for __rt_heap_descriptor
    free.o(.text) refers to heapstubs.o(.text) for __Heap_Free
    free.o(.text) refers (Special) to hguard.o(.text) for __heap_guard
    h1_free.o(.text) refers to rt_heap_descriptor_intlibspace.o(.text) for __rt_heap_descriptor
    h1_free_mt.o(.text) refers to rt_heap_descriptor_intlibspace.o(.text) for __rt_heap_descriptor
    sys_exit.o(.text) refers to use_no_semi.o(.text) for __I_use_semihosting
    libspace.o(.text) refers to libspace.o(.bss) for __libspace_start
    h1_extend.o(.text) refers to h1_free.o(.text) for free
    h1_extend_mt.o(.text) refers to h1_free_mt.o(.text) for _free_internal
    exit.o(.text) refers to kernel.o(.text) for __rt_exit
    defsig_rtmem_outer.o(.text) refers to defsig_rtmem_inner.o(.text) for __rt_SIGRTMEM_inner
    defsig_rtmem_outer.o(.text) refers to defsig_exit.o(.text) for __sig_exit
    defsig_rtmem_formal.o(.text) refers to rt_raise.o(.text) for __rt_raise
    heapext.o(.text) refers to stkheap2.o(.text) for __rt_heap_extend
    stkheap1.o(.text) refers to sys_stackheap_outer.o(.text) for __user_setup_stackheap
    stkheap1.o(.text) refers to rt_stackheap_storage_intlibspace.o(.text) for __rt_stackheap_storage
    stkheap1sc.o(.text) refers to sys_stackheap_outer.o(.text) for __user_setup_stackheap
    stkheap1sc.o(.text) refers to rt_stackheap_storage_intlibspace.o(.text) for __rt_stackheap_storage
    stkheap1sc.o(.text) refers to stkovf.o(.text) for __stack_overflow
    stkheap1sc.o(.text) refers to kernel.o(.text) for __rt_exit
    stkheap1sc.o(.text) refers to sys_exit.o(.text) for _sys_exit
    stkheap1sc.o(.text) refers to stacklimit.o(.bss) for __stack_limit
    stkheap1scss.o(.text) refers to sys_stackheap_outer.o(.text) for __user_setup_stackheap
    stkheap1scss.o(.text) refers to rt_stackheap_storage_intlibspace.o(.text) for __rt_stackheap_storage
    stkheap1scss.o(.text) refers to stack_cleanup.o(.text) for __user_stack_cleanup_space
    stkheap1scss.o(.text) refers to stkovf.o(.text) for __stack_overflow
    stkheap1scss.o(.text) refers to kernel.o(.text) for __rt_exit
    stkheap1scss.o(.text) refers to sys_exit.o(.text) for _sys_exit
    stkheap1scss.o(.text) refers to stacklimit.o(.bss) for __stack_limit
    stkheap2sc.o(.text) refers to sys_stackheap_outer.o(.text) for __user_setup_stackheap
    stkheap2sc.o(.text) refers to rt_stackheap_storage_intlibspace.o(.text) for __rt_stackheap_storage
    stkheap2sc.o(.text) refers to stkovf.o(.text) for __stack_overflow
    stkheap2sc.o(.text) refers to kernel.o(.text) for __rt_exit
    stkheap2sc.o(.text) refers to sys_exit.o(.text) for _sys_exit
    stkheap2sc.o(.text) refers to stacklimit.o(.bss) for __stack_limit
    stkheap2scss.o(.text) refers to sys_stackheap_outer.o(.text) for __user_setup_stackheap
    stkheap2scss.o(.text) refers to rt_stackheap_storage_intlibspace.o(.text) for __rt_stackheap_storage
    stkheap2scss.o(.text) refers to stack_cleanup.o(.text) for __user_stack_cleanup_space
    stkheap2scss.o(.text) refers to stkovf.o(.text) for __stack_overflow
    stkheap2scss.o(.text) refers to kernel.o(.text) for __rt_exit
    stkheap2scss.o(.text) refers to sys_exit.o(.text) for _sys_exit
    stkheap2scss.o(.text) refers to stacklimit.o(.bss) for __stack_limit
    lib_init.o(.emb_text) refers to no_argv.o(.text) for __ARM_get_argv
    lib_init.o(.text) refers to fpinit.o(x$fpl$fpinit) for _fp_init
    lib_init.o(.text) refers (Weak) to h1_alloc.o(.text) for __Heap_DescSize
    lib_init.o(.text) refers to lib_init.o(.emb_text) for __ARM_argv_veneer
    lib_init.o(.text) refers (Weak) to init_alloc.o(.text) for _init_alloc
    lib_init.o(.text) refers (Weak) to init_alloc.o(.text) for _init_user_alloc
    lib_init.o(.text) refers to rt_locale_intlibspace.o(.text) for __rt_locale
    lib_init.o(.text) refers (Weak) to init_alloc.o(.text) for _terminate_user_alloc
    boardinit3.o(.text) refers to cpuinit.o(.text) for _cpu_pre_main
    rt_raise.o(.text) refers to __raise.o(.text) for __raise
    rt_raise.o(.text) refers to sys_exit.o(.text) for _sys_exit
    rt_locale.o(.text) refers to rt_locale.o(.bss) for __rt_locale_data
    rt_locale_intlibspace.o(.text) refers (Weak) to libspace.o(.bss) for __libspace_start
    rt_locale_onelibspace.o(.text) refers (Weak) to libspace.o(.text) for __user_libspace
    rt_locale_twolibspace.o(.text) refers (Weak) to libspace.o(.text) for __user_perproc_libspace
    defsig_exit.o(.text) refers to sys_exit.o(.text) for _sys_exit
    defsig_rtmem_inner.o(.text) refers to defsig_general.o(.text) for __default_signal_display
    stkovf.o(.text) refers to defsig_stak_outer.o(.text) for __rt_SIGSTAK
    _get_argv.o(.text) refers to heapext.o(.text) for __heap_extend
    _get_argv.o(.text) refers to defsig_rtmem_outer.o(.text) for __rt_SIGRTMEM
    _get_argv.o(.text) refers to sys_command.o(.text) for _sys_command_string
    _get_argv.o(.text) refers (Special) to hrguard.o(.text) for __heap_region_guard
    fpinit.o(x$fpl$fpinit) refers to rt_fp_status_addr_intlibspace.o(.text) for __rt_fp_status_addr
    sys_command.o(.text) refers (Special) to use_no_semi.o(.text) for __I_use_semihosting
    rt_fp_status_addr.o(.text) refers to rt_fp_status_addr.o(.bss) for __rt_fp_status_addr_data
    rt_fp_status_addr_intlibspace.o(.text) refers (Weak) to libspace.o(.bss) for __libspace_start
    rt_fp_status_addr_onelibspace.o(.text) refers (Weak) to libspace.o(.text) for __user_libspace
    rt_fp_status_addr_twolibspace.o(.text) refers (Weak) to libspace.o(.text) for __user_perthread_libspace
    __raise.o(.text) refers to defsig.o(CL$$defsig) for __default_signal_handler
    defsig_general.o(.text) refers to sys_wrch.o(.text) for _ttywrch
    defsig_stak_outer.o(.text) refers to defsig_stak_inner.o(.text) for __rt_SIGSTAK_inner
    defsig_stak_outer.o(.text) refers to defsig_exit.o(.text) for __sig_exit
    defsig_stak_formal.o(.text) refers to rt_raise.o(.text) for __rt_raise
    sys_wrch.o(.text) refers (Special) to use_no_semi.o(.text) for __I_use_semihosting
    defsig.o(CL$$defsig) refers (Weak) to defsig_stak_inner.o(.text) for __rt_SIGSTAK_inner
    defsig.o(CL$$defsig) refers (Weak) to defsig_rtmem_inner.o(.text) for __rt_SIGRTMEM_inner
    defsig_stak_inner.o(.text) refers to defsig_general.o(.text) for __default_signal_display


================================================================================

Removing Unused input sections from the image.

    Removing adc.o(i.ADCIntRegister), (26 bytes).
    Removing adc.o(i.ADCIntUnregister), (22 bytes).
    Removing adc.o(i.ADCIntDisable), (16 bytes).
    Removing adc.o(i.ADCIntStatus), (18 bytes).
    Removing adc.o(i.ADCSequenceDisable), (16 bytes).
    Removing adc.o(i.ADCSequenceOverflow), (12 bytes).
    Removing adc.o(i.ADCSequenceUnderflow), (12 bytes).
    Removing adc.o(i.ADCProcessorTrigger), (10 bytes).
    Removing adc.o(i.ADCSoftwareOversampleConfigure), (28 bytes).
    Removing adc.o(i.ADCSoftwareOversampleStepConfigure), (108 bytes).
    Removing adc.o(i.ADCSoftwareOversampleDataGet), (60 bytes).
    Removing adc.o(.data), (3 bytes).
    Removing gpio.o(i.GPIOGetIntNumber), (68 bytes).
    Removing gpio.o(i.GPIODirModeGet), (34 bytes).
    Removing gpio.o(i.GPIOIntTypeSet), (58 bytes).
    Removing gpio.o(i.GPIOIntTypeGet), (48 bytes).
    Removing gpio.o(i.GPIOPadConfigGet), (116 bytes).
    Removing gpio.o(i.GPIOPinIntEnable), (12 bytes).
    Removing gpio.o(i.GPIOPinIntDisable), (14 bytes).
    Removing gpio.o(i.GPIOPinIntStatus), (14 bytes).
    Removing gpio.o(i.GPIOPinIntClear), (6 bytes).
    Removing gpio.o(i.GPIOPortIntRegister), (26 bytes).
    Removing gpio.o(i.GPIOPortIntUnregister), (22 bytes).
    Removing gpio.o(i.GPIOPinTypeComparator), (28 bytes).
    Removing gpio.o(i.GPIOPinTypePWM), (28 bytes).
    Removing gpio.o(i.GPIOPinTypeQEI), (28 bytes).
    Removing gpio.o(i.GPIOPinTypeSSI), (28 bytes).
    Removing gpio.o(i.GPIOPinTypeTimer), (28 bytes).
    Removing gpio.o(i.GPIOPinTypeUART), (28 bytes).
    Removing i2c.o(i.I2CMasterEnable), (10 bytes).
    Removing i2c.o(i.I2CSlaveEnable), (22 bytes).
    Removing i2c.o(i.I2CSlaveInit), (14 bytes).
    Removing i2c.o(i.I2CMasterDisable), (10 bytes).
    Removing i2c.o(i.I2CSlaveDisable), (22 bytes).
    Removing i2c.o(i.I2CIntRegister), (18 bytes).
    Removing i2c.o(i.I2CIntUnregister), (18 bytes).
    Removing i2c.o(i.I2CMasterIntEnable), (6 bytes).
    Removing i2c.o(i.I2CSlaveIntEnable), (6 bytes).
    Removing i2c.o(i.I2CMasterIntDisable), (6 bytes).
    Removing i2c.o(i.I2CSlaveIntDisable), (6 bytes).
    Removing i2c.o(i.I2CSlaveIntStatus), (16 bytes).
    Removing i2c.o(i.I2CMasterIntClear), (6 bytes).
    Removing i2c.o(i.I2CSlaveIntClear), (6 bytes).
    Removing i2c.o(i.I2CMasterBusy), (10 bytes).
    Removing i2c.o(i.I2CMasterBusBusy), (14 bytes).
    Removing i2c.o(i.I2CMasterErr), (20 bytes).
    Removing i2c.o(i.I2CMasterDataGet), (4 bytes).
    Removing i2c.o(i.I2CSlaveStatus), (4 bytes).
    Removing i2c.o(i.I2CSlaveDataPut), (4 bytes).
    Removing i2c.o(i.I2CSlaveDataGet), (4 bytes).
    Removing interrupt.o(i.IntDefaultHandler), (2 bytes).
    Removing interrupt.o(i.IntMasterEnable), (4 bytes).
    Removing interrupt.o(i.IntMasterDisable), (4 bytes).
    Removing interrupt.o(i.IntRegister), (48 bytes).
    Removing interrupt.o(i.IntUnregister), (20 bytes).
    Removing interrupt.o(i.IntPriorityGroupingSet), (28 bytes).
    Removing interrupt.o(i.IntPriorityGroupingGet), (36 bytes).
    Removing interrupt.o(i.IntPrioritySet), (36 bytes).
    Removing interrupt.o(i.IntPriorityGet), (28 bytes).
    Removing interrupt.o(i.IntDisable), (82 bytes).
    Removing interrupt.o(.constdata), (80 bytes).
    Removing interrupt.o(vtable), (184 bytes).
    Removing sysctl.o(i.SysCtlSRAMSizeGet), (20 bytes).
    Removing sysctl.o(i.SysCtlFlashSizeGet), (20 bytes).
    Removing sysctl.o(i.SysCtlPinPresent), (16 bytes).
    Removing sysctl.o(i.SysCtlPeripheralPresent), (24 bytes).
    Removing sysctl.o(i.SysCtlPeripheralReset), (48 bytes).
    Removing sysctl.o(i.SysCtlPeripheralDisable), (24 bytes).
    Removing sysctl.o(i.SysCtlPeripheralSleepEnable), (24 bytes).
    Removing sysctl.o(i.SysCtlPeripheralSleepDisable), (24 bytes).
    Removing sysctl.o(i.SysCtlPeripheralDeepSleepEnable), (24 bytes).
    Removing sysctl.o(i.SysCtlPeripheralDeepSleepDisable), (24 bytes).
    Removing sysctl.o(i.SysCtlPeripheralClockGating), (28 bytes).
    Removing sysctl.o(i.SysCtlIntRegister), (20 bytes).
    Removing sysctl.o(i.SysCtlIntUnregister), (18 bytes).
    Removing sysctl.o(i.SysCtlIntEnable), (16 bytes).
    Removing sysctl.o(i.SysCtlIntDisable), (16 bytes).
    Removing sysctl.o(i.SysCtlIntClear), (12 bytes).
    Removing sysctl.o(i.SysCtlIntStatus), (16 bytes).
    Removing sysctl.o(i.SysCtlLDOSet), (12 bytes).
    Removing sysctl.o(i.SysCtlLDOGet), (12 bytes).
    Removing sysctl.o(i.SysCtlLDOConfigSet), (12 bytes).
    Removing sysctl.o(i.SysCtlReset), (16 bytes).
    Removing sysctl.o(i.SysCtlSleep), (4 bytes).
    Removing sysctl.o(i.SysCtlDeepSleep), (32 bytes).
    Removing sysctl.o(i.SysCtlResetCauseGet), (12 bytes).
    Removing sysctl.o(i.SysCtlResetCauseClear), (16 bytes).
    Removing sysctl.o(i.SysCtlBrownOutConfigSet), (16 bytes).
    Removing sysctl.o(i.SysCtlPWMClockSet), (20 bytes).
    Removing sysctl.o(i.SysCtlPWMClockGet), (16 bytes).
    Removing sysctl.o(i.SysCtlADCSpeedSet), (40 bytes).
    Removing sysctl.o(i.SysCtlADCSpeedGet), (16 bytes).
    Removing sysctl.o(i.SysCtlIOSCVerificationSet), (28 bytes).
    Removing sysctl.o(i.SysCtlMOSCVerificationSet), (28 bytes).
    Removing sysctl.o(i.SysCtlPLLVerificationSet), (28 bytes).
    Removing sysctl.o(i.SysCtlClkVerificationClear), (16 bytes).
    Removing timer.o(i.TimerDisable), (16 bytes).
    Removing timer.o(i.TimerControlEvent), (24 bytes).
    Removing timer.o(i.TimerRTCEnable), (10 bytes).
    Removing timer.o(i.TimerRTCDisable), (10 bytes).
    Removing timer.o(i.TimerPrescaleSet), (18 bytes).
    Removing timer.o(i.TimerPrescaleGet), (12 bytes).
    Removing timer.o(i.TimerPrescaleMatchSet), (18 bytes).
    Removing timer.o(i.TimerPrescaleMatchGet), (12 bytes).
    Removing timer.o(i.TimerLoadGet), (12 bytes).
    Removing timer.o(i.TimerValueGet), (12 bytes).
    Removing timer.o(i.TimerMatchGet), (12 bytes).
    Removing timer.o(i.TimerIntRegister), (80 bytes).
    Removing timer.o(i.TimerIntUnregister), (72 bytes).
    Removing timer.o(i.TimerIntEnable), (8 bytes).
    Removing timer.o(i.TimerIntDisable), (10 bytes).
    Removing timer.o(i.TimerIntStatus), (10 bytes).
    Removing timer.o(i.TimerIntClear), (4 bytes).
    Removing timer.o(i.TimerQuiesce), (58 bytes).
    Removing cpu.o(.text), (12 bytes).

115 unused section(s) (total 2803 bytes) removed from the image.

================================================================================

Image Symbol Table

    Local Symbols

    Symbol Name                              Value     Ov Type        Size  Object(Section)

    ../../angel/boardlib.s                   0x00000000   Number         0  cpuinit.o ABSOLUTE
    ../../angel/boardlib.s                   0x00000000   Number         0  boardinit1.o ABSOLUTE
    ../../angel/boardlib.s                   0x00000000   Number         0  boardshut.o ABSOLUTE
    ../../angel/boardlib.s                   0x00000000   Number         0  boardinit3.o ABSOLUTE
    ../../angel/boardlib.s                   0x00000000   Number         0  boardinit2.o ABSOLUTE
    ../../angel/handlers.s                   0x00000000   Number         0  __scatter_zi.o ABSOLUTE
    ../../angel/handlers.s                   0x00000000   Number         0  __scatter_copy.o ABSOLUTE
    ../../angel/kernel.s                     0x00000000   Number         0  kernel.o ABSOLUTE
    ../../angel/rt.s                         0x00000000   Number         0  rt_stackheap_storage.o ABSOLUTE
    ../../angel/rt.s                         0x00000000   Number         0  rt_heap_descriptor_onelibspace.o ABSOLUTE
    ../../angel/rt.s                         0x00000000   Number         0  rt_stackheap_storage_onelibspace.o ABSOLUTE
    ../../angel/rt.s                         0x00000000   Number         0  rt_heap_descriptor_intlibspace.o ABSOLUTE
    ../../angel/rt.s                         0x00000000   Number         0  rt_stackheap_storage_intlibspace.o ABSOLUTE
    ../../angel/rt.s                         0x00000000   Number         0  rt_fp_status_addr_onelibspace.o ABSOLUTE
    ../../angel/rt.s                         0x00000000   Number         0  rt_heap_descriptor_twolibspace.o ABSOLUTE
    ../../angel/rt.s                         0x00000000   Number         0  rt_fp_status_addr_intlibspace.o ABSOLUTE
    ../../angel/rt.s                         0x00000000   Number         0  rt_stackheap_storage_twolibspace.o ABSOLUTE
    ../../angel/rt.s                         0x00000000   Number         0  rt_locale.o ABSOLUTE
    ../../angel/rt.s                         0x00000000   Number         0  rt_fp_status_addr_twolibspace.o ABSOLUTE
    ../../angel/rt.s                         0x00000000   Number         0  rt_locale_twolibspace.o ABSOLUTE
    ../../angel/rt.s                         0x00000000   Number         0  stack_cleanup.o ABSOLUTE
    ../../angel/rt.s                         0x00000000   Number         0  rt_heap_descriptor.o ABSOLUTE
    ../../angel/rt.s                         0x00000000   Number         0  rt_fp_status_addr.o ABSOLUTE
    ../../angel/rt.s                         0x00000000   Number         0  rt_raise.o ABSOLUTE
    ../../angel/rt.s                         0x00000000   Number         0  rt_locale_intlibspace.o ABSOLUTE
    ../../angel/rt.s                         0x00000000   Number         0  rt_locale_onelibspace.o ABSOLUTE
    ../../angel/scatter.s                    0x00000000   Number         0  __scatter.o ABSOLUTE
    ../../angel/startup.s                    0x00000000   Number         0  __main.o ABSOLUTE
    ../../angel/sys.s                        0x00000000   Number         0  libspace.o ABSOLUTE
    ../../angel/sys.s                        0x00000000   Number         0  sys_exit.o ABSOLUTE
    ../../angel/sys.s                        0x00000000   Number         0  sys_stackheap_outer.o ABSOLUTE
    ../../angel/sys.s                        0x00000000   Number         0  use_no_semi.o ABSOLUTE
    ../../angel/sys.s                        0x00000000   Number         0  mutex_init.o ABSOLUTE
    ../../angel/sysapp.c                     0x00000000   Number         0  sys_command.o ABSOLUTE
    ../../angel/sysapp.c                     0x00000000   Number         0  sys_wrch.o ABSOLUTE
    ../../armsys.c                           0x00000000   Number         0  lib_init.o ABSOLUTE
    ../../armsys.c                           0x00000000   Number         0  lib_init.o ABSOLUTE
    ../../armsys.c                           0x00000000   Number         0  no_argv.o ABSOLUTE
    ../../armsys.c                           0x00000000   Number         0  _get_argv.o ABSOLUTE
    ../../fpinit.s                           0x00000000   Number         0  fpinit.o ABSOLUTE
    ../../heap1.c                            0x00000000   Number         0  h1_alloc.o ABSOLUTE
    ../../heap1.c                            0x00000000   Number         0  h1_alloc_mt.o ABSOLUTE
    ../../heap1.c                            0x00000000   Number         0  h1_free.o ABSOLUTE
    ../../heap1.c                            0x00000000   Number         0  h1_free_mt.o ABSOLUTE
    ../../heap1.c                            0x00000000   Number         0  h1_extend.o ABSOLUTE
    ../../heap1.c                            0x00000000   Number         0  h1_extend_mt.o ABSOLUTE
    ../../heap2.c                            0x00000000   Number         0  heap2mt.o ABSOLUTE
    ../../heap2.c                            0x00000000   Number         0  heap2.o ABSOLUTE
    ../../heap2.c                            0x00000000   Number         0  fdtree.o ABSOLUTE
    ../../heapalloc.c                        0x00000000   Number         0  hguard.o ABSOLUTE
    ../../heapalloc.c                        0x00000000   Number         0  hrguard.o ABSOLUTE
    ../../heapalloc.c                        0x00000000   Number         0  heapstubs.o ABSOLUTE
    ../../heapalloc.c                        0x00000000   Number         0  free.o ABSOLUTE
    ../../heapalloc.c                        0x00000000   Number         0  malloc.o ABSOLUTE
    ../../heapalloc.c                        0x00000000   Number         0  init_alloc.o ABSOLUTE
    ../../memcpset.s                         0x00000000   Number         0  rt_memcpy_w.o ABSOLUTE
    ../../signal.c                           0x00000000   Number         0  defsig_general.o ABSOLUTE
    ../../signal.c                           0x00000000   Number         0  defsig_stak_formal.o ABSOLUTE
    ../../signal.c                           0x00000000   Number         0  defsig_rtmem_formal.o ABSOLUTE
    ../../signal.c                           0x00000000   Number         0  defsig_stak_outer.o ABSOLUTE
    ../../signal.c                           0x00000000   Number         0  defsig_stak_inner.o ABSOLUTE
    ../../signal.c                           0x00000000   Number         0  __raise.o ABSOLUTE
    ../../signal.c                           0x00000000   Number         0  defsig_exit.o ABSOLUTE
    ../../signal.c                           0x00000000   Number         0  defsig_rtmem_inner.o ABSOLUTE
    ../../signal.c                           0x00000000   Number         0  defsig_rtmem_outer.o ABSOLUTE
    ../../signal.s                           0x00000000   Number         0  defsig.o ABSOLUTE
    ../../stdlib.c                           0x00000000   Number         0  exit.o ABSOLUTE
    ../../stkheap.s                          0x00000000   Number         0  stkovf.o ABSOLUTE
    ../../stkheap.s                          0x00000000   Number         0  stacklimit.o ABSOLUTE
    ../../stkheap.s                          0x00000000   Number         0  heapext.o ABSOLUTE
    ../../stkheap1.s                         0x00000000   Number         0  stkheap1scss.o ABSOLUTE
    ../../stkheap1.s                         0x00000000   Number         0  stkheap1.o ABSOLUTE
    ../../stkheap1.s                         0x00000000   Number         0  stkheap1sc.o ABSOLUTE
    ../../stkheap2.s                         0x00000000   Number         0  stkheap2.o ABSOLUTE
    ../../stkheap2.s                         0x00000000   Number         0  stkheap2sc.o ABSOLUTE
    ../../stkheap2.s                         0x00000000   Number         0  stkheap2scss.o ABSOLUTE
    LM1770_main.c                            0x00000000   Number         0  lm1770_main.o ABSOLUTE
    SRC\adc.c                                0x00000000   Number         0  adc.o ABSOLUTE
    SRC\cpu.S                                0x00000000   Number         0  cpu.o ABSOLUTE
    SRC\gpio.c                               0x00000000   Number         0  gpio.o ABSOLUTE
    SRC\i2c.c                                0x00000000   Number         0  i2c.o ABSOLUTE
    SRC\interrupt.c                          0x00000000   Number         0  interrupt.o ABSOLUTE
    SRC\sysctl.c                             0x00000000   Number         0  sysctl.o ABSOLUTE
    SRC\timer.c                              0x00000000   Number         0  timer.o ABSOLUTE
    Startup.s                                0x00000000   Number         0  startup.o ABSOLUTE
    Support\\osram96x16.c                    0x00000000   Number         0  osram96x16.o ABSOLUTE
    Support\osram96x16.c                     0x00000000   Number         0  osram96x16.o ABSOLUTE
    dc.s                                     0x00000000   Number         0  dc.o ABSOLUTE
    random.c                                 0x00000000   Number         0  random.o ABSOLUTE
    RESET                                    0x00000000   Section      200  startup.o(RESET)
    NmiSR                                    0x000000bd   Thumb Code     0  startup.o(RESET)
    FaultISR                                 0x000000bf   Thumb Code     0  startup.o(RESET)
    IntDefaultHandler                        0x000000c1   Thumb Code     0  startup.o(RESET)
    !!!main                                  0x000000c8   Section        8  __main.o(!!!main)
    !!!scatter                               0x000000d0   Section       48  __scatter.o(!!!scatter)
    !!handler_copy                           0x00000100   Section       26  __scatter_copy.o(!!handler_copy)
    !!handler_zi                             0x0000011c   Section       36  __scatter_zi.o(!!handler_zi)
    .emb_text                                0x00000140   Section        6  osram96x16.o(.emb_text)
    .emb_text                                0x00000148   Section        4  lib_init.o(.emb_text)
    .text                                    0x0000014c   Section       28  startup.o(.text)
    .text                                    0x00000168   Section      480  random.o(.text)
    OSRAMWriteFirst                          0x00000349   Thumb Code    32  osram96x16.o(.text)
    .text                                    0x00000348   Section      820  osram96x16.o(.text)
    OSRAMWriteByte                           0x00000369   Thumb Code    44  osram96x16.o(.text)
    OSRAMWriteArray                          0x00000395   Thumb Code    56  osram96x16.o(.text)
    OSRAMWriteFinal                          0x000003cd   Thumb Code    66  osram96x16.o(.text)
    .text                                    0x0000067c   Section     1852  lm1770_main.o(.text)
    .text                                    0x00000db8   Section      114  h1_alloc.o(.text)
    .text                                    0x00000e2c   Section       64  stkheap2.o(.text)
    .text                                    0x00000e6c   Section       64  kernel.o(.text)
    .text                                    0x00000eac   Section       76  sys_stackheap_outer.o(.text)
    .text                                    0x00000ef8   Section       12  rt_heap_descriptor_intlibspace.o(.text)
    .text                                    0x00000f04   Section       12  rt_stackheap_storage_intlibspace.o(.text)
    .text                                    0x00000f10   Section      146  init_alloc.o(.text)
    .text                                    0x00000fa2   Section        4  hguard.o(.text)
    .text                                    0x00000fa6   Section       78  h1_free.o(.text)
    .text                                    0x00000ff4   Section       20  sys_exit.o(.text)
    .text                                    0x00001008   Section        8  libspace.o(.text)
    .text                                    0x00001010   Section       52  h1_extend.o(.text)
    .text                                    0x00001044   Section       22  exit.o(.text)
    .text                                    0x0000105a   Section       18  defsig_rtmem_outer.o(.text)
    .text                                    0x0000106c   Section        8  heapext.o(.text)
    .text                                    0x00001074   Section      200  lib_init.o(.text)
    .text                                    0x0000113c   Section        4  boardinit1.o(.text)
    .text                                    0x00001140   Section       12  boardinit2.o(.text)
    .text                                    0x0000114c   Section        8  boardinit3.o(.text)
    .text                                    0x00001154   Section        4  boardshut.o(.text)
    .text                                    0x00001158   Section        4  use_no_semi.o(.text)
    .text                                    0x0000115c   Section       12  rt_locale_intlibspace.o(.text)
    .text                                    0x00001168   Section       10  defsig_exit.o(.text)
    .text                                    0x00001174   Section       68  defsig_rtmem_inner.o(.text)
    .text                                    0x000011b8   Section        4  cpuinit.o(.text)
    .text                                    0x000011bc   Section        2  no_argv.o(.text)
    .text                                    0x000011c0   Section       12  rt_fp_status_addr_intlibspace.o(.text)
    .text                                    0x000011cc   Section       54  defsig_general.o(.text)
    .text                                    0x00001202   Section       12  sys_wrch.o(.text)
    i.ADCIntClear                            0x0000120e   Section       10  adc.o(i.ADCIntClear)
    i.ADCIntEnable                           0x00001218   Section       16  adc.o(i.ADCIntEnable)
    i.ADCSequenceConfigure                   0x00001228   Section       40  adc.o(i.ADCSequenceConfigure)
    i.ADCSequenceDataGet                     0x00001250   Section       30  adc.o(i.ADCSequenceDataGet)
    i.ADCSequenceEnable                      0x0000126e   Section       14  adc.o(i.ADCSequenceEnable)
    i.ADCSequenceStepConfigure               0x0000127c   Section       48  adc.o(i.ADCSequenceStepConfigure)
    i.GPIODirModeSet                         0x000012ac   Section       40  gpio.o(i.GPIODirModeSet)
    i.GPIOPadConfigSet                       0x000012d4   Section      150  gpio.o(i.GPIOPadConfigSet)
    i.GPIOPinRead                            0x0000136a   Section        6  gpio.o(i.GPIOPinRead)
    i.GPIOPinTypeI2C                         0x00001370   Section       28  gpio.o(i.GPIOPinTypeI2C)
    i.GPIOPinWrite                           0x0000138c   Section        6  gpio.o(i.GPIOPinWrite)
    i.I2CMasterControl                       0x00001392   Section        4  i2c.o(i.I2CMasterControl)
    i.I2CMasterDataPut                       0x00001396   Section        4  i2c.o(i.I2CMasterDataPut)
    i.I2CMasterInit                          0x0000139c   Section       60  i2c.o(i.I2CMasterInit)
    i.I2CMasterIntStatus                     0x000013d8   Section       16  i2c.o(i.I2CMasterIntStatus)
    i.I2CMasterSlaveAddrSet                  0x000013e8   Section        8  i2c.o(i.I2CMasterSlaveAddrSet)
    i.IntEnable                              0x000013f0   Section       82  interrupt.o(i.IntEnable)
    i.SysCtlClockGet                         0x00001444   Section      120  sysctl.o(i.SysCtlClockGet)
    i.SysCtlClockSet                         0x000014bc   Section      112  sysctl.o(i.SysCtlClockSet)
    i.SysCtlPeripheralEnable                 0x0000152c   Section       24  sysctl.o(i.SysCtlPeripheralEnable)
    i.TimerConfigure                         0x00001544   Section       26  timer.o(i.TimerConfigure)
    i.TimerControlLevel                      0x0000155e   Section       24  timer.o(i.TimerControlLevel)
    i.TimerControlStall                      0x00001576   Section       24  timer.o(i.TimerControlStall)
    i.TimerControlTrigger                    0x0000158e   Section       24  timer.o(i.TimerControlTrigger)
    i.TimerEnable                            0x000015a6   Section       14  timer.o(i.TimerEnable)
    i.TimerLoadSet                           0x000015b4   Section       18  timer.o(i.TimerLoadSet)
    i.TimerMatchSet                          0x000015c6   Section       18  timer.o(i.TimerMatchSet)
    x$fpl$fpinit                             0x000015d8   Section       16  fpinit.o(x$fpl$fpinit)
    .constdata$1                             0x000015e8   Data           0  osram96x16.o(.constdata)
    g_pucFont                                0x000015e8   Data         475  osram96x16.o(.constdata)
    .constdata                               0x000015e8   Section      562  osram96x16.o(.constdata)
    g_pucOSRAMInit                           0x000017c3   Data          75  osram96x16.o(.constdata)
    pucRow1@OSRAMClear_0                     0x0000180e   Data           6  osram96x16.o(.constdata)
    pucRow2@OSRAMClear_1                     0x00001814   Data           6  osram96x16.o(.constdata)
    .constdata$1                             0x0000181c   Data           0  sysctl.o(.constdata)
    .constdata                               0x0000181c   Section      112  sysctl.o(.constdata)
    .data$0                                  0x20000000   Data           0  random.o(.data)
    g_ulIndex                                0x20000000   Data           4  random.o(.data)
    .data                                    0x20000000   Section        4  random.o(.data)
    .data$0                                  0x20000004   Data           0  osram96x16.o(.data)
    g_ulDelay                                0x20000004   Data           4  osram96x16.o(.data)
    .data                                    0x20000004   Section        4  osram96x16.o(.data)
    .data$0                                  0x20000008   Data           0  lm1770_main.o(.data)
    .data                                    0x20000008   Section       24  lm1770_main.o(.data)
    .bss$5                                   0x20000020   Data           0  random.o(.bss)
    g_pulEntropy                             0x20000020   Data          64  random.o(.bss)
    .bss                                     0x20000020   Section       64  random.o(.bss)
    .bss$5                                   0x20000060   Data           0  lm1770_main.o(.bss)
    .bss                                     0x20000060   Section      192  lm1770_main.o(.bss)
    .bss                                     0x20000120   Section       96  libspace.o(.bss)
    HeapMem                                  0x20000180   Data           0  startup.o(HEAP)
    HEAP                                     0x20000180   Section     1536  startup.o(HEAP)
    StackMem                                 0x20000780   Data           0  startup.o(STACK)
    STACK                                    0x20000780   Section      512  startup.o(STACK)

    Global Symbols

    Symbol Name                              Value     Ov Type        Size  Object(Section)

    BuildAttributes$$THUMB_ISAv4$M$P$D$PE$A:L22UL41UL21$X:L11$S22US41US21$IEEE1$IW$~IW$USESV6$~STKCKD$USESV7$~SHL$OSPACE$EBA8$REQ8$PRES8$EABIv2 0x00000000   Number         0  anon$$obj.o ABSOLUTE
    __ARM_use_no_argv                        0x00000000   Number         0  lm1770_main.o ABSOLUTE
    __use_stack_checking                     0x00000000   Number         0  stkovf.o ABSOLUTE
    __ARM_exceptions_init                     - Undefined Weak Reference
    __ARM_stackcheck                          - Undefined Weak Reference
    __alloca_initialize                       - Undefined Weak Reference
    __cpp_initialize__aeabi_                  - Undefined Weak Reference
    __cxa_finalize                            - Undefined Weak Reference
    __rt_SIGABRT_inner                        - Undefined Weak Reference
    __rt_SIGCPPL_inner                        - Undefined Weak Reference
    __rt_SIGFPE_inner                         - Undefined Weak Reference
    __rt_SIGILL_inner                         - Undefined Weak Reference
    __rt_SIGINT_inner                         - Undefined Weak Reference
    __rt_SIGPVFN_inner                        - Undefined Weak Reference
    __rt_SIGRTRED_inner                       - Undefined Weak Reference
    __rt_SIGSEGV_inner                        - Undefined Weak Reference
    __rt_SIGTERM_inner                        - Undefined Weak Reference
    __rt_SIGUSR1_inner                        - Undefined Weak Reference
    __rt_SIGUSR2_inner                        - Undefined Weak Reference
    __rt_sigother_inner                       - Undefined Weak Reference
    __sigvec_lookup                           - Undefined Weak Reference
    __user_heap_extend                        - Undefined Weak Reference
    __user_heap_extent                        - Undefined Weak Reference
    __user_stack_slop                         - Undefined Weak Reference
    _atexit_init                              - Undefined Weak Reference
    _call_atexit_fns                          - Undefined Weak Reference
    _clock_init                               - Undefined Weak Reference
    _fp_trap_init                             - Undefined Weak Reference
    _get_lc_collate                           - Undefined Weak Reference
    _get_lc_ctype                             - Undefined Weak Reference
    _get_lc_monetary                          - Undefined Weak Reference
    _get_lc_numeric                           - Undefined Weak Reference
    _get_lc_time                              - Undefined Weak Reference
    _getenv_init                              - Undefined Weak Reference
    _handle_redirection                       - Undefined Weak Reference
    _initio                                   - Undefined Weak Reference
    _mutex_acquire                            - Undefined Weak Reference
    _mutex_release                            - Undefined Weak Reference
    _rand_init                                - Undefined Weak Reference
    _signal_init                              - Undefined Weak Reference
    _terminateio                              - Undefined Weak Reference
    Reset_Handler                            0x000000b9   Thumb Code     0  startup.o(RESET)
    __main                                   0x000000c9   Thumb Code     8  __main.o(!!!main)
    __scatterload                            0x000000d1   Thumb Code     0  __scatter.o(!!!scatter)
    __scatterload_rt2                        0x000000d1   Thumb Code    40  __scatter.o(!!!scatter)
    __scatterload_rt2_thumb_only             0x000000d1   Thumb Code     0  __scatter.o(!!!scatter)
    __scatterload_null                       0x000000dd   Thumb Code     0  __scatter.o(!!!scatter)
    __scatterload_copy                       0x00000101   Thumb Code    26  __scatter_copy.o(!!handler_copy)
    __scatterload_zeroinit                   0x0000011d   Thumb Code    36  __scatter_zi.o(!!handler_zi)
    OSRAMDelay                               0x00000141   Thumb Code     6  osram96x16.o(.emb_text)
    __ARM_argv_veneer                        0x00000149   Thumb Code     4  lib_init.o(.emb_text)
    __user_initial_stackheap                 0x0000014d   Thumb Code     0  startup.o(.text)
    RandomAddEntropy                         0x00000169   Thumb Code    24  random.o(.text)
    RandomNumber                             0x00000181   Thumb Code   432  random.o(.text)
    OSRAMClear                               0x0000040f   Thumb Code    78  osram96x16.o(.text)
    OSRAMStringDraw                          0x0000045d   Thumb Code   176  osram96x16.o(.text)
    OSRAMImageDraw                           0x0000050d   Thumb Code   112  osram96x16.o(.text)
    OSRAMInit                                0x0000057d   Thumb Code   152  osram96x16.o(.text)
    OSRAMDisplayOn                           0x00000615   Thumb Code    40  osram96x16.o(.text)
    OSRAMDisplayOff                          0x0000063d   Thumb Code    40  osram96x16.o(.text)
    wait_some                                0x0000067d   Thumb Code    46  lm1770_main.o(.text)
    ncount                                   0x000006ab   Thumb Code    34  lm1770_main.o(.text)
    count_garb                               0x000006cd   Thumb Code    30  lm1770_main.o(.text)
    count_tree                               0x000006eb   Thumb Code    20  lm1770_main.o(.text)
    plot_point                               0x000006ff   Thumb Code    36  lm1770_main.o(.text)
    plot_hline                               0x00000723   Thumb Code    46  lm1770_main.o(.text)
    getnodexy                                0x00000751   Thumb Code   124  lm1770_main.o(.text)
    plotnode                                 0x000007cd   Thumb Code    58  lm1770_main.o(.text)
    ndraw                                    0x00000807   Thumb Code    28  lm1770_main.o(.text)
    draw_tree                                0x00000823   Thumb Code   160  lm1770_main.o(.text)
    traverse                                 0x000008c3   Thumb Code    90  lm1770_main.o(.text)
    toss_me                                  0x0000091d   Thumb Code    12  lm1770_main.o(.text)
    randrange                                0x00000929   Thumb Code    46  lm1770_main.o(.text)
    destruct_node                            0x00000957   Thumb Code   100  lm1770_main.o(.text)
    gimme                                    0x000009bb   Thumb Code   344  lm1770_main.o(.text)
    construct_leaf                           0x00000b13   Thumb Code    90  lm1770_main.o(.text)
    garb_init                                0x00000b6d   Thumb Code    34  lm1770_main.o(.text)
    sys_init                                 0x00000b8f   Thumb Code   262  lm1770_main.o(.text)
    main                                     0x00000c95   Thumb Code    72  lm1770_main.o(.text)
    ADCIntHandler                            0x00000cdd   Thumb Code   146  lm1770_main.o(.text)
    __Heap_Initialize                        0x00000db9   Thumb Code    10  h1_alloc.o(.text)
    __Heap_DescSize                          0x00000dc3   Thumb Code     4  h1_alloc.o(.text)
    malloc                                   0x00000dc7   Thumb Code   100  h1_alloc.o(.text)
    __use_two_region_memory                  0x00000e2d   Thumb Code     4  stkheap2.o(.text)
    __rt_stackheap_init                      0x00000e31   Thumb Code    44  stkheap2.o(.text)
    __rt_heap_extend                         0x00000e5d   Thumb Code    16  stkheap2.o(.text)
    __rt_entry                               0x00000e6d   Thumb Code    36  kernel.o(.text)
    __rt_exit                                0x00000e91   Thumb Code    20  kernel.o(.text)
    __rt_abort                               0x00000ea5   Thumb Code     8  kernel.o(.text)
    __user_setup_stackheap                   0x00000ead   Thumb Code    76  sys_stackheap_outer.o(.text)
    __rt_heap_descriptor                     0x00000ef9   Thumb Code     8  rt_heap_descriptor_intlibspace.o(.text)
    __rt_stackheap_storage                   0x00000f05   Thumb Code     8  rt_stackheap_storage_intlibspace.o(.text)
    _terminate_user_alloc                    0x00000f11   Thumb Code     2  init_alloc.o(.text)
    _init_user_alloc                         0x00000f13   Thumb Code     2  init_alloc.o(.text)
    __Heap_Full                              0x00000f15   Thumb Code    36  init_alloc.o(.text)
    __Heap_Broken                            0x00000f39   Thumb Code     6  init_alloc.o(.text)
    _init_alloc                              0x00000f3f   Thumb Code   100  init_alloc.o(.text)
    __use_no_heap                            0x00000fa3   Thumb Code     2  hguard.o(.text)
    __heap_guard                             0x00000fa5   Thumb Code     2  hguard.o(.text)
    free                                     0x00000fa7   Thumb Code    78  h1_free.o(.text)
    _sys_exit                                0x00000ff5   Thumb Code    12  sys_exit.o(.text)
    __user_libspace                          0x00001009   Thumb Code     4  libspace.o(.text)
    __user_perproc_libspace                  0x00001009   Thumb Code     0  libspace.o(.text)
    __user_perthread_libspace                0x00001009   Thumb Code     0  libspace.o(.text)
    __Heap_ProvideMemory                     0x00001011   Thumb Code    52  h1_extend.o(.text)
    exit                                     0x00001045   Thumb Code    22  exit.o(.text)
    __rt_SIGRTMEM                            0x0000105b   Thumb Code    18  defsig_rtmem_outer.o(.text)
    __heap_extend                            0x0000106d   Thumb Code     8  heapext.o(.text)
    __rt_lib_init                            0x00001075   Thumb Code   178  lib_init.o(.text)
    __rt_lib_shutdown                        0x00001127   Thumb Code    22  lib_init.o(.text)
    _platform_pre_stackheap_init             0x0000113d   Thumb Code     4  boardinit1.o(.text)
    _platform_post_stackheap_init            0x00001141   Thumb Code    12  boardinit2.o(.text)
    _platform_post_lib_init                  0x0000114d   Thumb Code     8  boardinit3.o(.text)
    _platform_pre_lib_shutdown               0x00001155   Thumb Code     4  boardshut.o(.text)
    __I_use_semihosting                      0x00001159   Thumb Code     0  use_no_semi.o(.text)
    __use_no_semihosting_swi                 0x00001159   Thumb Code     4  use_no_semi.o(.text)
    __rt_locale                              0x0000115d   Thumb Code     8  rt_locale_intlibspace.o(.text)
    __sig_exit                               0x00001169   Thumb Code    10  defsig_exit.o(.text)
    __rt_SIGRTMEM_inner                      0x00001175   Thumb Code    24  defsig_rtmem_inner.o(.text)
    _cpu_pre_main                            0x000011b9   Thumb Code     4  cpuinit.o(.text)
    __ARM_get_argv                           0x000011bd   Thumb Code     2  no_argv.o(.text)
    __rt_fp_status_addr                      0x000011c1   Thumb Code     8  rt_fp_status_addr_intlibspace.o(.text)
    __default_signal_display                 0x000011cd   Thumb Code    54  defsig_general.o(.text)
    _ttywrch                                 0x00001203   Thumb Code    12  sys_wrch.o(.text)
    ADCIntClear                              0x0000120f   Thumb Code    10  adc.o(i.ADCIntClear)
    ADCIntEnable                             0x00001219   Thumb Code    16  adc.o(i.ADCIntEnable)
    ADCSequenceConfigure                     0x00001229   Thumb Code    40  adc.o(i.ADCSequenceConfigure)
    ADCSequenceDataGet                       0x00001251   Thumb Code    30  adc.o(i.ADCSequenceDataGet)
    ADCSequenceEnable                        0x0000126f   Thumb Code    14  adc.o(i.ADCSequenceEnable)
    ADCSequenceStepConfigure                 0x0000127d   Thumb Code    48  adc.o(i.ADCSequenceStepConfigure)
    GPIODirModeSet                           0x000012ad   Thumb Code    40  gpio.o(i.GPIODirModeSet)
    GPIOPadConfigSet                         0x000012d5   Thumb Code   150  gpio.o(i.GPIOPadConfigSet)
    GPIOPinRead                              0x0000136b   Thumb Code     6  gpio.o(i.GPIOPinRead)
    GPIOPinTypeI2C                           0x00001371   Thumb Code    28  gpio.o(i.GPIOPinTypeI2C)
    GPIOPinWrite                             0x0000138d   Thumb Code     6  gpio.o(i.GPIOPinWrite)
    I2CMasterControl                         0x00001393   Thumb Code     4  i2c.o(i.I2CMasterControl)
    I2CMasterDataPut                         0x00001397   Thumb Code     4  i2c.o(i.I2CMasterDataPut)
    I2CMasterInit                            0x0000139d   Thumb Code    52  i2c.o(i.I2CMasterInit)
    I2CMasterIntStatus                       0x000013d9   Thumb Code    16  i2c.o(i.I2CMasterIntStatus)
    I2CMasterSlaveAddrSet                    0x000013e9   Thumb Code     8  i2c.o(i.I2CMasterSlaveAddrSet)
    IntEnable                                0x000013f1   Thumb Code    82  interrupt.o(i.IntEnable)
    SysCtlClockGet                           0x00001445   Thumb Code   102  sysctl.o(i.SysCtlClockGet)
    SysCtlClockSet                           0x000014bd   Thumb Code   108  sysctl.o(i.SysCtlClockSet)
    SysCtlPeripheralEnable                   0x0000152d   Thumb Code    20  sysctl.o(i.SysCtlPeripheralEnable)
    TimerConfigure                           0x00001545   Thumb Code    26  timer.o(i.TimerConfigure)
    TimerControlLevel                        0x0000155f   Thumb Code    24  timer.o(i.TimerControlLevel)
    TimerControlStall                        0x00001577   Thumb Code    24  timer.o(i.TimerControlStall)
    TimerControlTrigger                      0x0000158f   Thumb Code    24  timer.o(i.TimerControlTrigger)
    TimerEnable                              0x000015a7   Thumb Code    14  timer.o(i.TimerEnable)
    TimerLoadSet                             0x000015b5   Thumb Code    18  timer.o(i.TimerLoadSet)
    TimerMatchSet                            0x000015c7   Thumb Code    18  timer.o(i.TimerMatchSet)
    _fp_init                                 0x000015d9   Thumb Code    16  fpinit.o(x$fpl$fpinit)
    __fplib_config_pureend_doubles           0x000015e5   Thumb Code     0  fpinit.o(x$fpl$fpinit)
    g_pulDCRegs                              0x0000181c   Data          16  sysctl.o(.constdata)
    g_pulSRCRRegs                            0x0000182c   Data          12  sysctl.o(.constdata)
    g_pulRCGCRegs                            0x00001838   Data          12  sysctl.o(.constdata)
    g_pulSCGCRegs                            0x00001844   Data          12  sysctl.o(.constdata)
    g_pulDCGCRegs                            0x00001850   Data          12  sysctl.o(.constdata)
    g_pulXtals                               0x0000185c   Data          48  sysctl.o(.constdata)
    Region$$Table$$Base                      0x0000188c   Number         0  anon$$obj.o(Region$$Table)
    Region$$Table$$Limit                     0x000018ac   Number         0  anon$$obj.o(Region$$Table)
    bpress                                   0x20000008   Data           1  lm1770_main.o(.data)
    bnow                                     0x20000009   Data           1  lm1770_main.o(.data)
    bcnt                                     0x2000000a   Data           1  lm1770_main.o(.data)
    systick                                  0x2000000b   Data           1  lm1770_main.o(.data)
    pwheel                                   0x2000000c   Data           4  lm1770_main.o(.data)
    ss                                       0x20000010   Data           3  lm1770_main.o(.data)
    node_grab                                0x20000014   Data           4  lm1770_main.o(.data)
    garb                                     0x20000018   Data           4  lm1770_main.o(.data)
    tptr                                     0x2000001c   Data           4  lm1770_main.o(.data)
    gbuf                                     0x20000060   Data         192  lm1770_main.o(.bss)
    __libspace_start                         0x20000120   Data          96  libspace.o(.bss)


================================================================================

Memory Map of the image

  Image Entry point : 0x000000b8

  Load Region LR_1 (Base: 0x00000000, Size: 0x000018cc, Max: 0xffffffff, ABSOLUTE)

    Execution Region ER_RO (Base: 0x00000000, Size: 0x000018ac, Max: 0xffffffff, ABSOLUTE)

    Base Addr    Size         Type   Attr      Idx    E Section Name        Object

    0x00000000   0x000000c8   Code   RO            3  * RESET               startup.o
    0x000000c8   0x00000008   Code   RO         1241  * !!!main             __main.o(c_w__un.l)
    0x000000d0   0x00000030   Code   RO         1390    !!!scatter          __scatter.o(c_w__un.l)
    0x00000100   0x0000001a   Code   RO         1392    !!handler_copy      __scatter_copy.o(c_w__un.l)
    0x0000011a   0x00000002   PAD
    0x0000011c   0x00000024   Code   RO         1394    !!handler_zi        __scatter_zi.o(c_w__un.l)
    0x00000140   0x00000006   Code   RO           32    .emb_text           osram96x16.o
    0x00000146   0x00000002   PAD
    0x00000148   0x00000004   Code   RO         1319    .emb_text           lib_init.o(c_w__un.l)
    0x0000014c   0x0000001c   Code   RO            4    .text               startup.o
    0x00000168   0x000001e0   Code   RO           11    .text               random.o
    0x00000348   0x00000334   Code   RO           33    .text               osram96x16.o
    0x0000067c   0x0000073c   Code   RO           79    .text               lm1770_main.o
    0x00000db8   0x00000072   Code   RO         1193    .text               h1_alloc.o(c_w__un.l)
    0x00000e2a   0x00000002   PAD
    0x00000e2c   0x00000040   Code   RO         1239    .text               stkheap2.o(c_w__un.l)
    0x00000e6c   0x00000040   Code   RO         1243    .text               kernel.o(c_w__un.l)
    0x00000eac   0x0000004c   Code   RO         1248    .text               sys_stackheap_outer.o(c_w__un.l)
    0x00000ef8   0x0000000c   Code   RO         1253    .text               rt_heap_descriptor_intlibspace.o(c_w__un.l)
    0x00000f04   0x0000000c   Code   RO         1262    .text               rt_stackheap_storage_intlibspace.o(c_w__un.l)
    0x00000f10   0x00000092   Code   RO         1268    .text               init_alloc.o(c_w__un.l)
    0x00000fa2   0x00000004   Code   RO         1272    .text               hguard.o(c_w__un.l)
    0x00000fa6   0x0000004e   Code   RO         1276    .text               h1_free.o(c_w__un.l)
    0x00000ff4   0x00000014   Code   RO         1292    .text               sys_exit.o(c_w__un.l)
    0x00001008   0x00000008   Code   RO         1294    .text               libspace.o(c_w__un.l)
    0x00001010   0x00000034   Code   RO         1297    .text               h1_extend.o(c_w__un.l)
    0x00001044   0x00000016   Code   RO         1301    .text               exit.o(c_w__un.l)
    0x0000105a   0x00000012   Code   RO         1303    .text               defsig_rtmem_outer.o(c_w__un.l)
    0x0000106c   0x00000008   Code   RO         1307    .text               heapext.o(c_w__un.l)
    0x00001074   0x000000c8   Code   RO         1320    .text               lib_init.o(c_w__un.l)
    0x0000113c   0x00000004   Code   RO         1323    .text               boardinit1.o(c_w__un.l)
    0x00001140   0x0000000c   Code   RO         1325    .text               boardinit2.o(c_w__un.l)
    0x0000114c   0x00000008   Code   RO         1327    .text               boardinit3.o(c_w__un.l)
    0x00001154   0x00000004   Code   RO         1329    .text               boardshut.o(c_w__un.l)
    0x00001158   0x00000004   Code   RO         1331    .text               use_no_semi.o(c_w__un.l)
    0x0000115c   0x0000000c   Code   RO         1340    .text               rt_locale_intlibspace.o(c_w__un.l)
    0x00001168   0x0000000a   Code   RO         1346    .text               defsig_exit.o(c_w__un.l)
    0x00001172   0x00000002   PAD
    0x00001174   0x00000044   Code   RO         1348    .text               defsig_rtmem_inner.o(c_w__un.l)
    0x000011b8   0x00000004   Code   RO         1356    .text               cpuinit.o(c_w__un.l)
    0x000011bc   0x00000002   Code   RO         1358    .text               no_argv.o(c_w__un.l)
    0x000011be   0x00000002   PAD
    0x000011c0   0x0000000c   Code   RO         1367    .text               rt_fp_status_addr_intlibspace.o(c_w__un.l)
    0x000011cc   0x00000036   Code   RO         1377    .text               defsig_general.o(c_w__un.l)
    0x00001202   0x0000000c   Code   RO         1383    .text               sys_wrch.o(c_w__un.l)
    0x0000120e   0x0000000a   Code   RO          140    i.ADCIntClear       adc.o(DriverLib.lib)
    0x00001218   0x00000010   Code   RO          138    i.ADCIntEnable      adc.o(DriverLib.lib)
    0x00001228   0x00000028   Code   RO          143    i.ADCSequenceConfigure  adc.o(DriverLib.lib)
    0x00001250   0x0000001e   Code   RO          147    i.ADCSequenceDataGet  adc.o(DriverLib.lib)
    0x0000126e   0x0000000e   Code   RO          141    i.ADCSequenceEnable  adc.o(DriverLib.lib)
    0x0000127c   0x00000030   Code   RO          144    i.ADCSequenceStepConfigure  adc.o(DriverLib.lib)
    0x000012ac   0x00000028   Code   RO          278    i.GPIODirModeSet    gpio.o(DriverLib.lib)
    0x000012d4   0x00000096   Code   RO          282    i.GPIOPadConfigSet  gpio.o(DriverLib.lib)
    0x0000136a   0x00000006   Code   RO          290    i.GPIOPinRead       gpio.o(DriverLib.lib)
    0x00001370   0x0000001c   Code   RO          293    i.GPIOPinTypeI2C    gpio.o(DriverLib.lib)
    0x0000138c   0x00000006   Code   RO          291    i.GPIOPinWrite      gpio.o(DriverLib.lib)
    0x00001392   0x00000004   Code   RO          472    i.I2CMasterControl  i2c.o(DriverLib.lib)
    0x00001396   0x00000004   Code   RO          474    i.I2CMasterDataPut  i2c.o(DriverLib.lib)
    0x0000139a   0x00000002   PAD
    0x0000139c   0x0000003c   Code   RO          454    i.I2CMasterInit     i2c.o(DriverLib.lib)
    0x000013d8   0x00000010   Code   RO          465    i.I2CMasterIntStatus  i2c.o(DriverLib.lib)
    0x000013e8   0x00000008   Code   RO          469    i.I2CMasterSlaveAddrSet  i2c.o(DriverLib.lib)
    0x000013f0   0x00000052   Code   RO          656    i.IntEnable         interrupt.o(DriverLib.lib)
    0x00001442   0x00000002   PAD
    0x00001444   0x00000078   Code   RO          775    i.SysCtlClockGet    sysctl.o(DriverLib.lib)
    0x000014bc   0x00000070   Code   RO          774    i.SysCtlClockSet    sysctl.o(DriverLib.lib)
    0x0000152c   0x00000018   Code   RO          752    i.SysCtlPeripheralEnable  sysctl.o(DriverLib.lib)
    0x00001544   0x0000001a   Code   RO         1015    i.TimerConfigure    timer.o(DriverLib.lib)
    0x0000155e   0x00000018   Code   RO         1016    i.TimerControlLevel  timer.o(DriverLib.lib)
    0x00001576   0x00000018   Code   RO         1019    i.TimerControlStall  timer.o(DriverLib.lib)
    0x0000158e   0x00000018   Code   RO         1017    i.TimerControlTrigger  timer.o(DriverLib.lib)
    0x000015a6   0x0000000e   Code   RO         1013    i.TimerEnable       timer.o(DriverLib.lib)
    0x000015b4   0x00000012   Code   RO         1026    i.TimerLoadSet      timer.o(DriverLib.lib)
    0x000015c6   0x00000012   Code   RO         1029    i.TimerMatchSet     timer.o(DriverLib.lib)
    0x000015d8   0x00000010   Code   RO         1360    x$fpl$fpinit        fpinit.o(fz_w_p.l)
    0x000015e8   0x00000232   Data   RO           35    .constdata          osram96x16.o
    0x0000181a   0x00000002   PAD
    0x0000181c   0x00000070   Data   RO          784    .constdata          sysctl.o(DriverLib.lib)
    0x0000188c   0x00000020   Data   RO         1389    Region$$Table       anon$$obj.o


    Execution Region ER_RW (Base: 0x20000000, Size: 0x00000020, Max: 0xffffffff, ABSOLUTE)

    Base Addr    Size         Type   Attr      Idx    E Section Name        Object

    0x20000000   0x00000004   Data   RW           12    .data               random.o
    0x20000004   0x00000004   Data   RW           34    .data               osram96x16.o
    0x20000008   0x00000018   Data   RW           80    .data               lm1770_main.o


    Execution Region ER_ZI (Base: 0x20000020, Size: 0x00000960, Max: 0xffffffff, ABSOLUTE)

    Base Addr    Size         Type   Attr      Idx    E Section Name        Object

    0x20000020   0x00000040   Zero   RW           13    .bss                random.o
    0x20000060   0x000000c0   Zero   RW           81    .bss                lm1770_main.o
    0x20000120   0x00000060   Zero   RW         1295    .bss                libspace.o(c_w__un.l)
    0x20000180   0x00000600   Zero   RW            2    HEAP                startup.o
    0x20000780   0x00000200   Zero   RW            1    STACK               startup.o


================================================================================

Image component sizes


      Code (inc. data)   RO Data    RW Data    ZI Data      Debug   Object Name

      1852        106          0         24        192       4988   lm1770_main.o
       826         24        562          4          0       3248   osram96x16.o
       480         24          0          4         64       5604   random.o
       228        208          0          0       2048        344   startup.o

    ------------------------------------------------------------------------
      3388        362        596         32       2304      14184   Object Totals
         0          0         32          0          0          0   (incl. Generated)
         2          0          2          0          0          0   (incl. Padding)

    ------------------------------------------------------------------------

      Code (inc. data)   RO Data    RW Data    ZI Data      Debug   Library Member Name

         8          0          0          0          0          0   __main.o
        48          8          0          0          0          0   __scatter.o
        26          0          0          0          0          0   __scatter_copy.o
        36          0          0          0          0          0   __scatter_zi.o
       158          0          0          0          0       2136   adc.o
         4          2          0          0          0          0   boardinit1.o
        12          2          0          0          0          0   boardinit2.o
         8          0          0          0          0          0   boardinit3.o
         4          2          0          0          0          0   boardshut.o
         4          2          0          0          0          0   cpuinit.o
        10          0          0          0          0          0   defsig_exit.o
        54          0          0          0          0          0   defsig_general.o
        68         44          0          0          0          0   defsig_rtmem_inner.o
        18          0          0          0          0          0   defsig_rtmem_outer.o
        22          0          0          0          0          0   exit.o
        16          2          0          0          0          0   fpinit.o
       230          0          0          0          0       2216   gpio.o
       114          0          0          0          0          0   h1_alloc.o
        52          0          0          0          0          0   h1_extend.o
        78          0          0          0          0          0   h1_free.o
         8          0          0          0          0          0   heapext.o
         4          0          0          0          0          0   hguard.o
        92          8          0          0          0       2972   i2c.o
       146          0          0          0          0          0   init_alloc.o
        82          0          0          0          0        500   interrupt.o
        64          2          0          0          0          0   kernel.o
       204          0          0          0          0          0   lib_init.o
         8          4          0          0         96          0   libspace.o
         2          0          0          0          0          0   no_argv.o
        12          6          0          0          0          0   rt_fp_status_addr_intlibspace.o
        12          6          0          0          0          0   rt_heap_descriptor_intlibspace.o
        12          6          0          0          0          0   rt_locale_intlibspace.o
        12          6          0          0          0          0   rt_stackheap_storage_intlibspace.o
        64          6          0          0          0          0   stkheap2.o
        20         12          0          0          0          0   sys_exit.o
        76          2          0          0          0          0   sys_stackheap_outer.o
        12          0          0          0          0          0   sys_wrch.o
       256         26        112          0          0       1864   sysctl.o
       148          0          0          0          0       2100   timer.o
         4          2          0          0          0          0   use_no_semi.o

    ------------------------------------------------------------------------
      2220        148        112          0         96      11788   Library Totals
        12          0          0          0          0          0   (incl. Padding)

    ------------------------------------------------------------------------

      Code (inc. data)   RO Data    RW Data    ZI Data      Debug   Library Name

       966         34        112          0          0      11788   DriverLib.lib
      1226        112          0          0         96          0   c_w__un.l
        16          2          0          0          0          0   fz_w_p.l

    ------------------------------------------------------------------------
      2220        148        112          0         96      11788   Library Totals

    ------------------------------------------------------------------------

================================================================================


      Code (inc. data)   RO Data    RW Data    ZI Data      Debug   

      5608        510        708         32       2400      25972   Grand Totals
      5608        510        708         32       2400      25972   Image Totals

================================================================================

    Total RO  Size (Code + RO Data)                 6316 (   6.17kB)
    Total RW  Size (RW Data + ZI Data)              2432 (   2.38kB)
    Total ROM Size (Code + RO Data + RW Data)       6348 (   6.20kB)

================================================================================

