Archive member included because of file (symbol)

/usr/lib/gcc/avr/4.3.4/avr4/libgcc.a(_mulsi3.o)
                              /part_d/archivio/sviluppo/firmware/avr/airon/obj/adc.o (__mulsi3)
/usr/lib/gcc/avr/4.3.4/avr4/libgcc.a(_udivmodqi4.o)
                              /part_d/archivio/sviluppo/firmware/avr/airon/obj/utils.o (__udivmodqi4)
/usr/lib/gcc/avr/4.3.4/avr4/libgcc.a(_udivmodhi4.o)
                              /part_d/archivio/sviluppo/firmware/avr/airon/obj/adc.o (__udivmodhi4)
/usr/lib/gcc/avr/4.3.4/avr4/libgcc.a(_divmodhi4.o)
                              /part_d/archivio/sviluppo/firmware/avr/airon/obj/lcd.o (__divmodhi4)
/usr/lib/gcc/avr/4.3.4/avr4/libgcc.a(_exit.o)
                              /usr/lib/gcc/avr/4.3.4/../../../avr/lib/avr4/crtm88p.o (exit)
/usr/lib/gcc/avr/4.3.4/avr4/libgcc.a(_copy_data.o)
                              /part_d/archivio/sviluppo/firmware/avr/airon/obj/adc.o (__do_copy_data)
/usr/lib/gcc/avr/4.3.4/avr4/libgcc.a(_clear_bss.o)
                              /part_d/archivio/sviluppo/firmware/avr/airon/obj/adc.o (__do_clear_bss)

Allocating common symbols
Common symbol       size              file

onsleep             0x1               /part_d/archivio/sviluppo/firmware/avr/airon/obj/io.o

Discarded input sections

 .data          0x00000000        0x0 /usr/lib/gcc/avr/4.3.4/../../../avr/lib/avr4/crtm88p.o
 .bss           0x00000000        0x0 /usr/lib/gcc/avr/4.3.4/../../../avr/lib/avr4/crtm88p.o
 .text          0x00000000        0x0 /part_d/archivio/sviluppo/firmware/avr/airon/obj/adc.o
 .data          0x00000000        0x0 /part_d/archivio/sviluppo/firmware/avr/airon/obj/adc.o
 .bss           0x00000000        0x0 /part_d/archivio/sviluppo/firmware/avr/airon/obj/adc.o
 .text.SingleConversion
                0x00000000       0x1e /part_d/archivio/sviluppo/firmware/avr/airon/obj/adc.o
 .text          0x00000000        0x0 /part_d/archivio/sviluppo/firmware/avr/airon/obj/init.o
 .data          0x00000000        0x0 /part_d/archivio/sviluppo/firmware/avr/airon/obj/init.o
 .bss           0x00000000        0x0 /part_d/archivio/sviluppo/firmware/avr/airon/obj/init.o
 .text          0x00000000        0x0 /part_d/archivio/sviluppo/firmware/avr/airon/obj/io.o
 .data          0x00000000        0x0 /part_d/archivio/sviluppo/firmware/avr/airon/obj/io.o
 .bss           0x00000000        0x0 /part_d/archivio/sviluppo/firmware/avr/airon/obj/io.o
 .text.IORefreshPower
                0x00000000       0x22 /part_d/archivio/sviluppo/firmware/avr/airon/obj/io.o
 .text.IOPowerOff
                0x00000000        0xa /part_d/archivio/sviluppo/firmware/avr/airon/obj/io.o
 COMMON         0x00000000        0x1 /part_d/archivio/sviluppo/firmware/avr/airon/obj/io.o
 .text          0x00000000        0x0 /part_d/archivio/sviluppo/firmware/avr/airon/obj/lcd.o
 .data          0x00000000        0x0 /part_d/archivio/sviluppo/firmware/avr/airon/obj/lcd.o
 .bss           0x00000000        0x0 /part_d/archivio/sviluppo/firmware/avr/airon/obj/lcd.o
 .text.__lcd_write
                0x00000000       0x1a /part_d/archivio/sviluppo/firmware/avr/airon/obj/lcd.o
 .text.__lcd_write_ram
                0x00000000       0x1a /part_d/archivio/sviluppo/firmware/avr/airon/obj/lcd.o
 .text.C8FunctionSet
                0x00000000       0x1a /part_d/archivio/sviluppo/firmware/avr/airon/obj/lcd.o
 .text.C4BackHome
                0x00000000       0x38 /part_d/archivio/sviluppo/firmware/avr/airon/obj/lcd.o
 .text.LcdWriteLine_P
                0x00000000       0x18 /part_d/archivio/sviluppo/firmware/avr/airon/obj/lcd.o
 .text.C4DisplayShift
                0x00000000       0x38 /part_d/archivio/sviluppo/firmware/avr/airon/obj/lcd.o
 .text          0x00000000        0x0 /part_d/archivio/sviluppo/firmware/avr/airon/obj/main.o
 .data          0x00000000        0x0 /part_d/archivio/sviluppo/firmware/avr/airon/obj/main.o
 .bss           0x00000000        0x0 /part_d/archivio/sviluppo/firmware/avr/airon/obj/main.o
 .text          0x00000000        0x0 /part_d/archivio/sviluppo/firmware/avr/airon/obj/rtc.o
 .data          0x00000000        0x0 /part_d/archivio/sviluppo/firmware/avr/airon/obj/rtc.o
 .bss           0x00000000        0x0 /part_d/archivio/sviluppo/firmware/avr/airon/obj/rtc.o
 .text          0x00000000        0x0 /part_d/archivio/sviluppo/firmware/avr/airon/obj/tasks.o
 .data          0x00000000        0x0 /part_d/archivio/sviluppo/firmware/avr/airon/obj/tasks.o
 .bss           0x00000000        0x0 /part_d/archivio/sviluppo/firmware/avr/airon/obj/tasks.o
 .text          0x00000000        0x0 /part_d/archivio/sviluppo/firmware/avr/airon/obj/timing.o
 .data          0x00000000        0x0 /part_d/archivio/sviluppo/firmware/avr/airon/obj/timing.o
 .bss           0x00000000        0x0 /part_d/archivio/sviluppo/firmware/avr/airon/obj/timing.o
 .text          0x00000000        0x0 /part_d/archivio/sviluppo/firmware/avr/airon/obj/utils.o
 .data          0x00000000        0x0 /part_d/archivio/sviluppo/firmware/avr/airon/obj/utils.o
 .bss           0x00000000        0x0 /part_d/archivio/sviluppo/firmware/avr/airon/obj/utils.o
 .text          0x00000000        0x0 /usr/lib/gcc/avr/4.3.4/avr4/libgcc.a(_mulsi3.o)
 .data          0x00000000        0x0 /usr/lib/gcc/avr/4.3.4/avr4/libgcc.a(_mulsi3.o)
 .bss           0x00000000        0x0 /usr/lib/gcc/avr/4.3.4/avr4/libgcc.a(_mulsi3.o)
 .text          0x00000000        0x0 /usr/lib/gcc/avr/4.3.4/avr4/libgcc.a(_udivmodqi4.o)
 .data          0x00000000        0x0 /usr/lib/gcc/avr/4.3.4/avr4/libgcc.a(_udivmodqi4.o)
 .bss           0x00000000        0x0 /usr/lib/gcc/avr/4.3.4/avr4/libgcc.a(_udivmodqi4.o)
 .text          0x00000000        0x0 /usr/lib/gcc/avr/4.3.4/avr4/libgcc.a(_udivmodhi4.o)
 .data          0x00000000        0x0 /usr/lib/gcc/avr/4.3.4/avr4/libgcc.a(_udivmodhi4.o)
 .bss           0x00000000        0x0 /usr/lib/gcc/avr/4.3.4/avr4/libgcc.a(_udivmodhi4.o)
 .text          0x00000000        0x0 /usr/lib/gcc/avr/4.3.4/avr4/libgcc.a(_divmodhi4.o)
 .data          0x00000000        0x0 /usr/lib/gcc/avr/4.3.4/avr4/libgcc.a(_divmodhi4.o)
 .bss           0x00000000        0x0 /usr/lib/gcc/avr/4.3.4/avr4/libgcc.a(_divmodhi4.o)
 .text          0x00000000        0x0 /usr/lib/gcc/avr/4.3.4/avr4/libgcc.a(_exit.o)
 .data          0x00000000        0x0 /usr/lib/gcc/avr/4.3.4/avr4/libgcc.a(_exit.o)
 .bss           0x00000000        0x0 /usr/lib/gcc/avr/4.3.4/avr4/libgcc.a(_exit.o)
 .text.libgcc   0x00000000        0x0 /usr/lib/gcc/avr/4.3.4/avr4/libgcc.a(_exit.o)
 .text          0x00000000        0x0 /usr/lib/gcc/avr/4.3.4/avr4/libgcc.a(_copy_data.o)
 .data          0x00000000        0x0 /usr/lib/gcc/avr/4.3.4/avr4/libgcc.a(_copy_data.o)
 .bss           0x00000000        0x0 /usr/lib/gcc/avr/4.3.4/avr4/libgcc.a(_copy_data.o)
 .text.libgcc   0x00000000        0x0 /usr/lib/gcc/avr/4.3.4/avr4/libgcc.a(_copy_data.o)
 .text          0x00000000        0x0 /usr/lib/gcc/avr/4.3.4/avr4/libgcc.a(_clear_bss.o)
 .data          0x00000000        0x0 /usr/lib/gcc/avr/4.3.4/avr4/libgcc.a(_clear_bss.o)
 .bss           0x00000000        0x0 /usr/lib/gcc/avr/4.3.4/avr4/libgcc.a(_clear_bss.o)
 .text.libgcc   0x00000000        0x0 /usr/lib/gcc/avr/4.3.4/avr4/libgcc.a(_clear_bss.o)

Memory Configuration

Name             Origin             Length             Attributes
text             0x00000000         0x00002000         xr
data             0x00800060         0x0000ffa0         rw !x
eeprom           0x00810000         0x00010000         rw !x
fuse             0x00820000         0x00000400         rw !x
lock             0x00830000         0x00000400         rw !x
signature        0x00840000         0x00000400         rw !x
*default*        0x00000000         0xffffffff

Linker script and memory map

Address of section .data set to 0x800100
LOAD /usr/lib/gcc/avr/4.3.4/../../../avr/lib/avr4/crtm88p.o
LOAD /part_d/archivio/sviluppo/firmware/avr/airon/obj/adc.o
LOAD /part_d/archivio/sviluppo/firmware/avr/airon/obj/init.o
LOAD /part_d/archivio/sviluppo/firmware/avr/airon/obj/io.o
LOAD /part_d/archivio/sviluppo/firmware/avr/airon/obj/lcd.o
LOAD /part_d/archivio/sviluppo/firmware/avr/airon/obj/main.o
LOAD /part_d/archivio/sviluppo/firmware/avr/airon/obj/rtc.o
LOAD /part_d/archivio/sviluppo/firmware/avr/airon/obj/tasks.o
LOAD /part_d/archivio/sviluppo/firmware/avr/airon/obj/timing.o
LOAD /part_d/archivio/sviluppo/firmware/avr/airon/obj/utils.o
LOAD /usr/lib/gcc/avr/4.3.4/avr4/libgcc.a
LOAD /usr/lib/gcc/avr/4.3.4/../../../avr/lib/avr4/libc.a
LOAD /usr/lib/gcc/avr/4.3.4/avr4/libgcc.a

.hash
 *(.hash)

.dynsym
 *(.dynsym)

.dynstr
 *(.dynstr)

.gnu.version
 *(.gnu.version)

.gnu.version_d
 *(.gnu.version_d)

.gnu.version_r
 *(.gnu.version_r)

.rel.init
 *(.rel.init)

.rela.init
 *(.rela.init)

.rel.text
 *(.rel.text)
 *(.rel.text.*)
 *(.rel.gnu.linkonce.t*)

.rela.text
 *(.rela.text)
 *(.rela.text.*)
 *(.rela.gnu.linkonce.t*)

.rel.fini
 *(.rel.fini)

.rela.fini
 *(.rela.fini)

.rel.rodata
 *(.rel.rodata)
 *(.rel.rodata.*)
 *(.rel.gnu.linkonce.r*)

.rela.rodata
 *(.rela.rodata)
 *(.rela.rodata.*)
 *(.rela.gnu.linkonce.r*)

.rel.data
 *(.rel.data)
 *(.rel.data.*)
 *(.rel.gnu.linkonce.d*)

.rela.data
 *(.rela.data)
 *(.rela.data.*)
 *(.rela.gnu.linkonce.d*)

.rel.ctors
 *(.rel.ctors)

.rela.ctors
 *(.rela.ctors)

.rel.dtors
 *(.rel.dtors)

.rela.dtors
 *(.rela.dtors)

.rel.got
 *(.rel.got)

.rela.got
 *(.rela.got)

.rel.bss
 *(.rel.bss)

.rela.bss
 *(.rela.bss)

.rel.plt
 *(.rel.plt)

.rela.plt
 *(.rela.plt)

.text           0x00000000     0x15e4
 *(.vectors)
 .vectors       0x00000000       0x34 /usr/lib/gcc/avr/4.3.4/../../../avr/lib/avr4/crtm88p.o
                0x00000000                __vectors
                0x00000000                __vector_default
 *(.vectors)
 *(.progmem.gcc*)
 *(.progmem*)
 .progmem.data  0x00000034       0x52 /part_d/archivio/sviluppo/firmware/avr/airon/obj/lcd.o
 .progmem.data  0x00000086       0x58 /part_d/archivio/sviluppo/firmware/avr/airon/obj/tasks.o
                0x000000de                . = ALIGN (0x2)
                0x000000de                __trampolines_start = .
 *(.trampolines)
 .trampolines   0x000000de        0x0 linker stubs
 *(.trampolines*)
                0x000000de                __trampolines_end = .
 *(.jumptables)
 *(.jumptables*)
 *(.lowtext)
 *(.lowtext*)
                0x000000de                __ctors_start = .
 *(.ctors)
                0x000000de                __ctors_end = .
                0x000000de                __dtors_start = .
 *(.dtors)
                0x000000de                __dtors_end = .
 SORT(*)(.ctors)
 SORT(*)(.dtors)
 *(.init0)
 .init0         0x000000de        0x0 /usr/lib/gcc/avr/4.3.4/../../../avr/lib/avr4/crtm88p.o
                0x000000de                __init
 *(.init0)
 *(.init1)
 *(.init1)
 *(.init2)
 .init2         0x000000de        0xc /usr/lib/gcc/avr/4.3.4/../../../avr/lib/avr4/crtm88p.o
 *(.init2)
 *(.init3)
 *(.init3)
 *(.init4)
 .init4         0x000000ea       0x16 /usr/lib/gcc/avr/4.3.4/avr4/libgcc.a(_copy_data.o)
                0x000000ea                __do_copy_data
 .init4         0x00000100       0x10 /usr/lib/gcc/avr/4.3.4/avr4/libgcc.a(_clear_bss.o)
                0x00000100                __do_clear_bss
 *(.init4)
 *(.init5)
 *(.init5)
 *(.init6)
 *(.init6)
 *(.init7)
 *(.init7)
 *(.init8)
 *(.init8)
 *(.init9)
 .init9         0x00000110        0x4 /usr/lib/gcc/avr/4.3.4/../../../avr/lib/avr4/crtm88p.o
 *(.init9)
 *(.text)
 .text          0x00000114        0x2 /usr/lib/gcc/avr/4.3.4/../../../avr/lib/avr4/crtm88p.o
                0x00000114                __vector_22
                0x00000114                __vector_1
                0x00000114                __vector_24
                0x00000114                __vector_12
                0x00000114                __bad_interrupt
                0x00000114                __vector_6
                0x00000114                __vector_3
                0x00000114                __vector_23
                0x00000114                __vector_25
                0x00000114                __vector_11
                0x00000114                __vector_13
                0x00000114                __vector_17
                0x00000114                __vector_19
                0x00000114                __vector_7
                0x00000114                __vector_5
                0x00000114                __vector_4
                0x00000114                __vector_2
                0x00000114                __vector_15
                0x00000114                __vector_8
                0x00000114                __vector_14
                0x00000114                __vector_10
                0x00000114                __vector_16
                0x00000114                __vector_18
                0x00000114                __vector_20
                0x00000116                . = ALIGN (0x2)
 *(.text.*)
 .text.__vector_21
                0x00000116      0x1d2 /part_d/archivio/sviluppo/firmware/avr/airon/obj/adc.o
                0x00000116                __vector_21
 .text.InitADC  0x000002e8       0x1e /part_d/archivio/sviluppo/firmware/avr/airon/obj/adc.o
                0x000002e8                InitADC
 .text.SystemInit
                0x00000306       0x10 /part_d/archivio/sviluppo/firmware/avr/airon/obj/init.o
                0x00000306                SystemInit
 .text.InitIO   0x00000316       0x2e /part_d/archivio/sviluppo/firmware/avr/airon/obj/io.o
                0x00000316                InitIO
 .text.GetKey   0x00000344       0x54 /part_d/archivio/sviluppo/firmware/avr/airon/obj/io.o
                0x00000344                GetKey
 .text.IOUpdate
                0x00000398       0x48 /part_d/archivio/sviluppo/firmware/avr/airon/obj/io.o
                0x00000398                IOUpdate
 .text.LcdWriteToCenter_P
                0x000003e0       0x5c /part_d/archivio/sviluppo/firmware/avr/airon/obj/lcd.o
                0x000003e0                LcdWriteToCenter_P
 .text.C4DisplayClear
                0x0000043c       0x38 /part_d/archivio/sviluppo/firmware/avr/airon/obj/lcd.o
                0x0000043c                C4DisplayClear
 .text.LcdClear
                0x00000474        0xa /part_d/archivio/sviluppo/firmware/avr/airon/obj/lcd.o
                0x00000474                LcdClear
 .text.C4WriteToRam
                0x0000047e       0x3c /part_d/archivio/sviluppo/firmware/avr/airon/obj/lcd.o
                0x0000047e                C4WriteToRam
 .text.LcdWrite_P
                0x000004ba       0x1a /part_d/archivio/sviluppo/firmware/avr/airon/obj/lcd.o
                0x000004ba                LcdWrite_P
 .text.LcdWrite
                0x000004d4       0x18 /part_d/archivio/sviluppo/firmware/avr/airon/obj/lcd.o
                0x000004d4                LcdWrite
 .text.LcdWriteAnimated_P
                0x000004ec       0x54 /part_d/archivio/sviluppo/firmware/avr/airon/obj/lcd.o
                0x000004ec                LcdWriteAnimated_P
 .text.WriteCustomChar
                0x00000540       0x2c /part_d/archivio/sviluppo/firmware/avr/airon/obj/lcd.o
                0x00000540                WriteCustomChar
 .text.C4SetDDRAMAddr
                0x0000056c       0x3e /part_d/archivio/sviluppo/firmware/avr/airon/obj/lcd.o
                0x0000056c                C4SetDDRAMAddr
 .text.LcdUpdateDateTime
                0x000005aa       0xfa /part_d/archivio/sviluppo/firmware/avr/airon/obj/lcd.o
                0x000005aa                LcdUpdateDateTime
 .text.LcdShowDateTime
                0x000006a4       0x70 /part_d/archivio/sviluppo/firmware/avr/airon/obj/lcd.o
                0x000006a4                LcdShowDateTime
 .text.LcdUpdateAnalogValue
                0x00000714       0x34 /part_d/archivio/sviluppo/firmware/avr/airon/obj/lcd.o
 .text.LcdUpdateTemp
                0x00000748        0xe /part_d/archivio/sviluppo/firmware/avr/airon/obj/lcd.o
                0x00000748                LcdUpdateTemp
 .text.LcdShowScreenTemperature
                0x00000756        0xe /part_d/archivio/sviluppo/firmware/avr/airon/obj/lcd.o
                0x00000756                LcdShowScreenTemperature
 .text.LcdUpdateAnalogBar
                0x00000764       0x56 /part_d/archivio/sviluppo/firmware/avr/airon/obj/lcd.o
 .text.LcdUpdateCurrent
                0x000007ba       0x18 /part_d/archivio/sviluppo/firmware/avr/airon/obj/lcd.o
                0x000007ba                LcdUpdateCurrent
 .text.LcdUpdateBattery
                0x000007d2       0x18 /part_d/archivio/sviluppo/firmware/avr/airon/obj/lcd.o
                0x000007d2                LcdUpdateBattery
 .text.LcdSetupAnalogBar
                0x000007ea       0x3c /part_d/archivio/sviluppo/firmware/avr/airon/obj/lcd.o
                0x000007ea                LcdSetupAnalogBar
 .text.LcdShowScreenCurrent
                0x00000826       0x18 /part_d/archivio/sviluppo/firmware/avr/airon/obj/lcd.o
                0x00000826                LcdShowScreenCurrent
 .text.LcdShowScreenBattery
                0x0000083e       0x18 /part_d/archivio/sviluppo/firmware/avr/airon/obj/lcd.o
                0x0000083e                LcdShowScreenBattery
 .text.LcdUpdate
                0x00000856      0x126 /part_d/archivio/sviluppo/firmware/avr/airon/obj/lcd.o
                0x00000856                LcdUpdate
 .text.LcdUpdateInput
                0x0000097c       0x3e /part_d/archivio/sviluppo/firmware/avr/airon/obj/lcd.o
                0x0000097c                LcdUpdateInput
 .text.LcdSetInput
                0x000009ba       0x1e /part_d/archivio/sviluppo/firmware/avr/airon/obj/lcd.o
                0x000009ba                LcdSetInput
 .text.LcdDisplaySplash
                0x000009d8       0x3c /part_d/archivio/sviluppo/firmware/avr/airon/obj/lcd.o
                0x000009d8                LcdDisplaySplash
 .text.LcdWriteAt
                0x00000a14       0x26 /part_d/archivio/sviluppo/firmware/avr/airon/obj/lcd.o
                0x00000a14                LcdWriteAt
 .text.C4SetCGRAMAddr
                0x00000a3a       0x3e /part_d/archivio/sviluppo/firmware/avr/airon/obj/lcd.o
                0x00000a3a                C4SetCGRAMAddr
 .text.C4FunctionSet
                0x00000a78       0x4c /part_d/archivio/sviluppo/firmware/avr/airon/obj/lcd.o
                0x00000a78                C4FunctionSet
 .text.C4DisplayOff
                0x00000ac4       0x38 /part_d/archivio/sviluppo/firmware/avr/airon/obj/lcd.o
                0x00000ac4                C4DisplayOff
 .text.C4DisplayOn
                0x00000afc       0x38 /part_d/archivio/sviluppo/firmware/avr/airon/obj/lcd.o
                0x00000afc                C4DisplayOn
 .text.C4EntryModeSet
                0x00000b34       0x38 /part_d/archivio/sviluppo/firmware/avr/airon/obj/lcd.o
                0x00000b34                C4EntryModeSet
 .text.InitLcd  0x00000b6c       0xc2 /part_d/archivio/sviluppo/firmware/avr/airon/obj/lcd.o
                0x00000b6c                InitLcd
 .text.main     0x00000c2e        0x4 /part_d/archivio/sviluppo/firmware/avr/airon/obj/main.o
                0x00000c2e                main
 .text.rtc_write_byte
                0x00000c32       0x50 /part_d/archivio/sviluppo/firmware/avr/airon/obj/rtc.o
                0x00000c32                rtc_write_byte
 .text.rtc_read_byte
                0x00000c82       0x8e /part_d/archivio/sviluppo/firmware/avr/airon/obj/rtc.o
                0x00000c82                rtc_read_byte
 .text.InitRTC  0x00000d10       0x1e /part_d/archivio/sviluppo/firmware/avr/airon/obj/rtc.o
                0x00000d10                InitRTC
 .text.RestoreTimeFromRTC
                0x00000d2e       0x82 /part_d/archivio/sviluppo/firmware/avr/airon/obj/rtc.o
                0x00000d2e                RestoreTimeFromRTC
 .text.SaveTimeToRTC
                0x00000db0       0x5e /part_d/archivio/sviluppo/firmware/avr/airon/obj/rtc.o
                0x00000db0                SaveTimeToRTC
 .text.Animation
                0x00000e0e       0xa6 /part_d/archivio/sviluppo/firmware/avr/airon/obj/tasks.o
                0x00000e0e                Animation
 .text.menu     0x00000eb4       0x72 /part_d/archivio/sviluppo/firmware/avr/airon/obj/tasks.o
                0x00000eb4                menu
 .text.SetupNextField
                0x00000f26      0x17e /part_d/archivio/sviluppo/firmware/avr/airon/obj/tasks.o
 .text.ScheduleTasks
                0x000010a4       0xd8 /part_d/archivio/sviluppo/firmware/avr/airon/obj/tasks.o
                0x000010a4                ScheduleTasks
 .text.Run      0x0000117c      0x102 /part_d/archivio/sviluppo/firmware/avr/airon/obj/tasks.o
                0x0000117c                Run
 .text.InitTimer2
                0x0000127e       0x26 /part_d/archivio/sviluppo/firmware/avr/airon/obj/timing.o
                0x0000127e                InitTimer2
 .text.__vector_9
                0x000012a4      0x14e /part_d/archivio/sviluppo/firmware/avr/airon/obj/timing.o
                0x000012a4                __vector_9
 .text.usleep   0x000013f2       0x1e /part_d/archivio/sviluppo/firmware/avr/airon/obj/timing.o
                0x000013f2                usleep
 .text.msleep   0x00001410       0x30 /part_d/archivio/sviluppo/firmware/avr/airon/obj/timing.o
                0x00001410                msleep
 .text.bcd2dec  0x00001440       0x26 /part_d/archivio/sviluppo/firmware/avr/airon/obj/utils.o
                0x00001440                bcd2dec
 .text.dec2bcd  0x00001466       0x14 /part_d/archivio/sviluppo/firmware/avr/airon/obj/utils.o
                0x00001466                dec2bcd
 .text.szlen    0x0000147a       0x16 /part_d/archivio/sviluppo/firmware/avr/airon/obj/utils.o
                0x0000147a                szlen
 .text.szlen_fmp
                0x00001490       0x1a /part_d/archivio/sviluppo/firmware/avr/airon/obj/utils.o
                0x00001490                szlen_fmp
 .text.mcopy    0x000014aa       0x16 /part_d/archivio/sviluppo/firmware/avr/airon/obj/utils.o
                0x000014aa                mcopy
 .text.mcopy_fpm
                0x000014c0       0x1a /part_d/archivio/sviluppo/firmware/avr/airon/obj/utils.o
                0x000014c0                mcopy_fpm
 .text.i2a      0x000014da       0x36 /part_d/archivio/sviluppo/firmware/avr/airon/obj/utils.o
                0x000014da                i2a
 .text.i2azp    0x00001510       0x2c /part_d/archivio/sviluppo/firmware/avr/airon/obj/utils.o
                0x00001510                i2azp
 .text.libgcc   0x0000153c       0x3e /usr/lib/gcc/avr/4.3.4/avr4/libgcc.a(_mulsi3.o)
                0x0000153c                __mulsi3
 .text.libgcc   0x0000157a       0x18 /usr/lib/gcc/avr/4.3.4/avr4/libgcc.a(_udivmodqi4.o)
                0x0000157a                __udivmodqi4
 .text.libgcc   0x00001592       0x28 /usr/lib/gcc/avr/4.3.4/avr4/libgcc.a(_udivmodhi4.o)
                0x00001592                __udivmodhi4
 .text.libgcc   0x000015ba       0x26 /usr/lib/gcc/avr/4.3.4/avr4/libgcc.a(_divmodhi4.o)
                0x000015ba                __divmodhi4
                0x000015ba                _div
                0x000015e0                . = ALIGN (0x2)
 *(.fini9)
 .fini9         0x000015e0        0x0 /usr/lib/gcc/avr/4.3.4/avr4/libgcc.a(_exit.o)
                0x000015e0                exit
                0x000015e0                _exit
 *(.fini9)
 *(.fini8)
 *(.fini8)
 *(.fini7)
 *(.fini7)
 *(.fini6)
 *(.fini6)
 *(.fini5)
 *(.fini5)
 *(.fini4)
 *(.fini4)
 *(.fini3)
 *(.fini3)
 *(.fini2)
 *(.fini2)
 *(.fini1)
 *(.fini1)
 *(.fini0)
 .fini0         0x000015e0        0x4 /usr/lib/gcc/avr/4.3.4/avr4/libgcc.a(_exit.o)
 *(.fini0)
                0x000015e4                _etext = .

.data           0x00800100       0x44 load address 0x000015e4
                0x00800100                PROVIDE (__data_start, .)
 *(.data)
 *(.data*)
 .data.t_old    0x00800100        0x7 /part_d/archivio/sviluppo/firmware/avr/airon/obj/lcd.o
                0x00800100                t_old
 .data.current  0x00800107        0x6 /part_d/archivio/sviluppo/firmware/avr/airon/obj/lcd.o
 .data.temp     0x0080010d        0x7 /part_d/archivio/sviluppo/firmware/avr/airon/obj/lcd.o
 .data.battery  0x00800114        0x6 /part_d/archivio/sviluppo/firmware/avr/airon/obj/lcd.o
 .data.ticks    0x0080011a        0x4 /part_d/archivio/sviluppo/firmware/avr/airon/obj/timing.o
                0x0080011a                ticks
 .data.t        0x0080011e        0x7 /part_d/archivio/sviluppo/firmware/avr/airon/obj/timing.o
                0x0080011e                t
 *(.rodata)
 *(.rodata*)
 .rodata.stp    0x00800125       0x1e /part_d/archivio/sviluppo/firmware/avr/airon/obj/tasks.o
 *(.gnu.linkonce.d*)
                0x00800144                . = ALIGN (0x2)
 *fill*         0x00800143        0x1 00
                0x00800144                _edata = .
                0x00800144                PROVIDE (__data_end, .)

.bss            0x00800144       0x99
                0x00800144                PROVIDE (__bss_start, .)
 *(.bss)
 *(.bss*)
 .bss.v_battery
                0x00800144        0x2 /part_d/archivio/sviluppo/firmware/avr/airon/obj/adc.o
                0x00800144                v_battery
 .bss.v_current
                0x00800146        0x2 /part_d/archivio/sviluppo/firmware/avr/airon/obj/adc.o
                0x00800146                v_current
 .bss.v_temperature
                0x00800148        0x2 /part_d/archivio/sviluppo/firmware/avr/airon/obj/adc.o
                0x00800148                v_temperature
 .bss.selector  0x0080014a        0x1 /part_d/archivio/sviluppo/firmware/avr/airon/obj/adc.o
                0x0080014a                selector
 .bss.counter   0x0080014b        0x2 /part_d/archivio/sviluppo/firmware/avr/airon/obj/adc.o
                0x0080014b                counter
 .bss.average   0x0080014d        0x2 /part_d/archivio/sviluppo/firmware/avr/airon/obj/adc.o
                0x0080014d                average
 .bss.skip_cicle
                0x0080014f        0x2 /part_d/archivio/sviluppo/firmware/avr/airon/obj/adc.o
 .bss.sample.1132
                0x00800151        0x2 /part_d/archivio/sviluppo/firmware/avr/airon/obj/adc.o
 .bss.ctl_power_start
                0x00800153        0x4 /part_d/archivio/sviluppo/firmware/avr/airon/obj/io.o
                0x00800153                ctl_power_start
 .bss.old_segments.1537
                0x00800157        0x1 /part_d/archivio/sviluppo/firmware/avr/airon/obj/lcd.o
 .bss.rs        0x00800158        0x2 /part_d/archivio/sviluppo/firmware/avr/airon/obj/lcd.o
 .bss.bon.1498  0x0080015a        0x1 /part_d/archivio/sviluppo/firmware/avr/airon/obj/lcd.o
 .bss.ll1       0x0080015b        0x1 /part_d/archivio/sviluppo/firmware/avr/airon/obj/lcd.o
 .bss.ll2       0x0080015c        0x1 /part_d/archivio/sviluppo/firmware/avr/airon/obj/lcd.o
 .bss.line1     0x0080015d       0x2a /part_d/archivio/sviluppo/firmware/avr/airon/obj/lcd.o
 .bss.line2     0x00800187       0x29 /part_d/archivio/sviluppo/firmware/avr/airon/obj/lcd.o
 .bss.cptr      0x008001b0        0x2 /part_d/archivio/sviluppo/firmware/avr/airon/obj/lcd.o
 .bss.cptl      0x008001b2        0x2 /part_d/archivio/sviluppo/firmware/avr/airon/obj/lcd.o
 .bss.lpos      0x008001b4        0x1 /part_d/archivio/sviluppo/firmware/avr/airon/obj/lcd.o
 .bss.rpos      0x008001b5        0x1 /part_d/archivio/sviluppo/firmware/avr/airon/obj/lcd.o
 .bss.lend      0x008001b6        0x1 /part_d/archivio/sviluppo/firmware/avr/airon/obj/lcd.o
 .bss.bl_pos    0x008001b7        0x1 /part_d/archivio/sviluppo/firmware/avr/airon/obj/lcd.o
 .bss.bl_len    0x008001b8        0x1 /part_d/archivio/sviluppo/firmware/avr/airon/obj/lcd.o
 .bss.input     0x008001b9        0x5 /part_d/archivio/sviluppo/firmware/avr/airon/obj/lcd.o
 .bss.state     0x008001be        0x1 /part_d/archivio/sviluppo/firmware/avr/airon/obj/tasks.o
                0x008001be                state
 .bss.pressed   0x008001bf        0x1 /part_d/archivio/sviluppo/firmware/avr/airon/obj/tasks.o
 .bss.tick_pressed
                0x008001c0        0x4 /part_d/archivio/sviluppo/firmware/avr/airon/obj/tasks.o
 .bss.oldtick.1453
                0x008001c4        0x4 /part_d/archivio/sviluppo/firmware/avr/airon/obj/tasks.o
 .bss.oldsec.1452
                0x008001c8        0x1 /part_d/archivio/sviluppo/firmware/avr/airon/obj/tasks.o
 .bss.last_ticks.1324
                0x008001c9        0x4 /part_d/archivio/sviluppo/firmware/avr/airon/obj/tasks.o
 .bss.astate.1323
                0x008001cd        0x1 /part_d/archivio/sviluppo/firmware/avr/airon/obj/tasks.o
 .bss.stp_value
                0x008001ce        0x2 /part_d/archivio/sviluppo/firmware/avr/airon/obj/tasks.o
 .bss.tt        0x008001d0        0x7 /part_d/archivio/sviluppo/firmware/avr/airon/obj/tasks.o
 .bss.i2a_buff  0x008001d7        0x6 /part_d/archivio/sviluppo/firmware/avr/airon/obj/utils.o
                0x008001d7                i2a_buff
 *(COMMON)
                0x008001dd                PROVIDE (__bss_end, .)
                0x000015e4                __data_load_start = LOADADDR (.data)
                0x00001628                __data_load_end = (__data_load_start + SIZEOF (.data))

.noinit         0x008001dd        0x0
                0x008001dd                PROVIDE (__noinit_start, .)
 *(.noinit*)
                0x008001dd                PROVIDE (__noinit_end, .)
                0x008001dd                _end = .
                0x008001dd                PROVIDE (__heap_start, .)

.eeprom         0x00810000        0x0
 *(.eeprom*)
                0x00810000                __eeprom_end = .

.fuse
 *(.fuse)
 *(.lfuse)
 *(.hfuse)
 *(.efuse)

.lock
 *(.lock*)

.signature
 *(.signature*)

.stab           0x00000000      0x6b4
 *(.stab)
 .stab          0x00000000      0x6b4 /usr/lib/gcc/avr/4.3.4/../../../avr/lib/avr4/crtm88p.o

.stabstr        0x00000000       0x54
 *(.stabstr)
 .stabstr       0x00000000       0x54 /usr/lib/gcc/avr/4.3.4/../../../avr/lib/avr4/crtm88p.o

.stab.excl
 *(.stab.excl)

.stab.exclstr
 *(.stab.exclstr)

.stab.index
 *(.stab.index)

.stab.indexstr
 *(.stab.indexstr)

.comment
 *(.comment)

.debug
 *(.debug)

.line
 *(.line)

.debug_srcinfo
 *(.debug_srcinfo)

.debug_sfnames
 *(.debug_sfnames)

.debug_aranges
 *(.debug_aranges)

.debug_pubnames
 *(.debug_pubnames)

.debug_info
 *(.debug_info)
 *(.gnu.linkonce.wi.*)

.debug_abbrev
 *(.debug_abbrev)

.debug_line
 *(.debug_line)

.debug_frame
 *(.debug_frame)

.debug_str
 *(.debug_str)

.debug_loc
 *(.debug_loc)

.debug_macinfo
 *(.debug_macinfo)
OUTPUT(/part_d/archivio/sviluppo/firmware/avr/airon/bin/airon elf32-avr)
LOAD linker stubs
