
nokia_6100.elf:     file format elf32-avr

Sections:
Idx Name          Size      VMA       LMA       File off  Algn
  0 .data         00000002  00800100  00001202  00001296  2**0
                  CONTENTS, ALLOC, LOAD, DATA
  1 .text         00001202  00000000  00000000  00000094  2**1
                  CONTENTS, ALLOC, LOAD, READONLY, CODE
  2 .bss          00000019  00800102  00800102  00001298  2**0
                  ALLOC
  3 .debug_aranges 00000020  00000000  00000000  00001298  2**0
                  CONTENTS, READONLY, DEBUGGING
  4 .debug_pubnames 00000201  00000000  00000000  000012b8  2**0
                  CONTENTS, READONLY, DEBUGGING
  5 .debug_info   00000f12  00000000  00000000  000014b9  2**0
                  CONTENTS, READONLY, DEBUGGING
  6 .debug_abbrev 000002f6  00000000  00000000  000023cb  2**0
                  CONTENTS, READONLY, DEBUGGING
  7 .debug_line   00000a58  00000000  00000000  000026c1  2**0
                  CONTENTS, READONLY, DEBUGGING
  8 .debug_frame  000001c0  00000000  00000000  0000311c  2**2
                  CONTENTS, READONLY, DEBUGGING
  9 .debug_str    000002b9  00000000  00000000  000032dc  2**0
                  CONTENTS, READONLY, DEBUGGING
 10 .debug_loc    00000da1  00000000  00000000  00003595  2**0
                  CONTENTS, READONLY, DEBUGGING
 11 .debug_ranges 00000030  00000000  00000000  00004336  2**0
                  CONTENTS, READONLY, DEBUGGING

Disassembly of section .text:

00000000 <__vectors>:
       0:	0c 94 cd 03 	jmp	0x79a	; 0x79a <__ctors_end>
       4:	0c 94 ed 03 	jmp	0x7da	; 0x7da <__bad_interrupt>
       8:	0c 94 ed 03 	jmp	0x7da	; 0x7da <__bad_interrupt>
       c:	0c 94 ed 03 	jmp	0x7da	; 0x7da <__bad_interrupt>
      10:	0c 94 ed 03 	jmp	0x7da	; 0x7da <__bad_interrupt>
      14:	0c 94 ed 03 	jmp	0x7da	; 0x7da <__bad_interrupt>
      18:	0c 94 ed 03 	jmp	0x7da	; 0x7da <__bad_interrupt>
      1c:	0c 94 ed 03 	jmp	0x7da	; 0x7da <__bad_interrupt>
      20:	0c 94 ed 03 	jmp	0x7da	; 0x7da <__bad_interrupt>
      24:	0c 94 ed 03 	jmp	0x7da	; 0x7da <__bad_interrupt>
      28:	0c 94 ed 03 	jmp	0x7da	; 0x7da <__bad_interrupt>
      2c:	0c 94 ed 03 	jmp	0x7da	; 0x7da <__bad_interrupt>
      30:	0c 94 ed 03 	jmp	0x7da	; 0x7da <__bad_interrupt>
      34:	0c 94 ed 03 	jmp	0x7da	; 0x7da <__bad_interrupt>
      38:	0c 94 ed 03 	jmp	0x7da	; 0x7da <__bad_interrupt>
      3c:	0c 94 ed 03 	jmp	0x7da	; 0x7da <__bad_interrupt>
      40:	0c 94 ed 03 	jmp	0x7da	; 0x7da <__bad_interrupt>
      44:	0c 94 ed 03 	jmp	0x7da	; 0x7da <__bad_interrupt>
      48:	0c 94 ed 03 	jmp	0x7da	; 0x7da <__bad_interrupt>
      4c:	0c 94 ed 03 	jmp	0x7da	; 0x7da <__bad_interrupt>
      50:	0c 94 ed 03 	jmp	0x7da	; 0x7da <__bad_interrupt>
      54:	0c 94 ed 03 	jmp	0x7da	; 0x7da <__bad_interrupt>
      58:	0c 94 ed 03 	jmp	0x7da	; 0x7da <__bad_interrupt>
      5c:	0c 94 ed 03 	jmp	0x7da	; 0x7da <__bad_interrupt>
      60:	0c 94 ed 03 	jmp	0x7da	; 0x7da <__bad_interrupt>
      64:	0c 94 ed 03 	jmp	0x7da	; 0x7da <__bad_interrupt>
      68:	0c 94 ed 03 	jmp	0x7da	; 0x7da <__bad_interrupt>
      6c:	0c 94 ed 03 	jmp	0x7da	; 0x7da <__bad_interrupt>
      70:	0c 94 ed 03 	jmp	0x7da	; 0x7da <__bad_interrupt>
      74:	0c 94 ed 03 	jmp	0x7da	; 0x7da <__bad_interrupt>
      78:	0c 94 ed 03 	jmp	0x7da	; 0x7da <__bad_interrupt>
      7c:	0c 94 ed 03 	jmp	0x7da	; 0x7da <__bad_interrupt>
      80:	0c 94 ed 03 	jmp	0x7da	; 0x7da <__bad_interrupt>
      84:	0c 94 ed 03 	jmp	0x7da	; 0x7da <__bad_interrupt>
      88:	0c 94 ed 03 	jmp	0x7da	; 0x7da <__bad_interrupt>

0000008c <hello>:
      8c:	20 c7 c0 cf d3 d1 ca 20 cf d0 ce d8 c5 cb 20 21      ...... ...... !
      9c:	21 21 20 00                                         !! .

000000a0 <s_palitra8bit>:
      a0:	00 80 14 90 02 82 11 da ba bb 44 64 84 a4 c4 e4     ..........Dd....
      b0:	08 28 48 68 88 a8 c8 e8 0c 2c 4c 6c 8c ac cc ec     .(Hh.....,Ll....
      c0:	10 30 50 70 90 b0 d0 f0 14 34 54 74 94 b4 d4 f4     .0Pp.....4Tt....
      d0:	18 38 58 78 98 b8 d8 f8 1c 3c 5c 7c 9c bc dc fc     .8Xx.....<\|....
      e0:	01 21 41 61 81 a1 c1 e1 05 25 45 65 85 a5 c5 e5     .!Aa.....%Ee....
      f0:	09 29 49 69 89 a9 c9 e9 0d 2d 4d 6d 8d ad cd ed     .)Ii.....-Mm....
     100:	11 31 51 71 91 b1 d1 f1 15 35 55 75 95 b5 d5 f5     .1Qq.....5Uu....
     110:	19 39 59 79 99 b9 d9 f9 1d 3d 5d 7d 9d bd dd fd     .9Yy.....=]}....
     120:	02 22 42 62 82 a2 c2 e2 06 26 46 66 86 a6 c6 e6     ."Bb.....&Ff....
     130:	0a 2a 4a 6a 8a aa ca ea 0e 2e 4e 6e 8e ae ce ee     .*Jj......Nn....
     140:	12 32 52 72 92 b2 d2 f2 16 36 56 76 96 b6 d6 f6     .2Rr.....6Vv....
     150:	1a 3a 5a 7a 9a ba da fa 1e 3e 5e 7e 9e be de fe     .:Zz.....>^~....
     160:	03 23 43 63 83 a3 c3 e3 07 27 47 67 87 a7 c7 e7     .#Cc.....'Gg....
     170:	0b 2b 4b 6b 8b ab cb eb 0f 2f 4f 6f 8f af cf ef     .+Kk...../Oo....
     180:	13 33 53 73 93 b3 d3 f3 17 37 57 77 97 b7 d7 f7     .3Ss.....7Ww....
     190:	1b 3b 5b 7b 9b bb ff b6 91 e0 1c fc 03 e3 1f ff     .;[{............

000001a0 <s_apxFont6x8>:
     1a0:	00 00 00 00 00 00 3e 0a 34 00 3e 0c 18 3e 00 3e     ......>.4.>..>.>
     1b0:	22 1c 00 3e 20 20 00 3e 22 1c 00 24 2a 12 00 08     "..>  .>"..$*...
     1c0:	38 38 08 08 1c 22 22 22 1c 00 00 38 38 44 82 fe     88..."""...88D..
     1d0:	00 1c 3e 62 62 32 3a 2e 26 23 23 3e 00 00 00 00     ..>bb2:.&##>....
     1e0:	00 00 00 1c 3e 36 22 36 3e 3e 36 36 36 3e 00 00     ....>6"6>>666>..
     1f0:	00 00 00 00 63 55 4d 55 6b 18 18 08 1c 22 22 1c     ....cUMUk...."".
     200:	00 3e 0a 04 78 40 00 3e 0a 04 78 40 00 38 44 5f     .>..x@.>..x@.8D_
     210:	4e 44 00 38 44 44 5f 4e 00 3c 3c 3c 3c 00 00 3e     ND.8DD_N.<<<<..>
     220:	0a 04 78 40 00 3e 0a 04 78 40 44 40 38 00 04 7e     ..x@.>..x@D@8..~
     230:	00 7f 3e 1c 08 00 08 08 2a 1c 08 00 08 1c 2a 08     ..>.....*.....*.
     240:	08 00 08 08 2a 08 08 00 00 3c 20 00 00 00 08 14     ....*....< .....
     250:	00 14 08 00 08 0c 0e 0c 08 00 08 18 38 18 08 00     ............8...
	...
     268:	5f 00 00 00 00 07 00 07 00 00 14 7f 14 7f 14 00     _...............
     278:	24 2a 7f 2a 12 00 23 13 08 64 62 00 36 49 55 22     $*.*..#..db.6IU"
     288:	50 00 00 05 03 00 00 00 00 1c 22 41 00 00 00 41     P........."A...A
     298:	22 1c 00 00 14 08 3e 08 14 00 08 08 3e 08 08 00     ".....>.....>...
     2a8:	00 50 30 00 00 00 08 08 08 08 08 00 00 60 60 00     .P0..........``.
     2b8:	00 00 20 10 08 04 02 00 3e 51 49 45 3e 00 00 42     .. .....>QIE>..B
     2c8:	7f 40 00 00 42 61 51 49 46 00 21 41 45 4b 31 00     .@..BaQIF.!AEK1.
     2d8:	18 14 12 7f 10 00 27 45 45 45 39 00 3c 4a 49 49     ......'EEE9.<JII
     2e8:	30 00 01 71 09 05 03 00 36 49 49 49 36 00 06 49     0..q....6III6..I
     2f8:	49 29 1e 00 00 36 36 00 00 00 00 56 36 00 00 00     I)...66....V6...
     308:	08 14 22 41 00 00 14 14 14 14 14 00 00 41 22 14     .."A.........A".
     318:	08 00 02 01 51 09 06 00 32 49 79 41 3e 00 7e 11     ....Q...2IyA>.~.
     328:	11 11 7e 00 7f 49 49 49 36 00 3e 41 41 41 22 00     ..~..III6.>AAA".
     338:	7f 41 41 22 1c 00 7f 49 49 49 41 00 7f 09 09 09     .AA"...IIIA.....
     348:	01 00 3e 41 49 49 7a 00 7f 08 08 08 7f 00 00 41     ..>AIIz........A
     358:	7f 41 00 00 20 40 41 3f 01 00 7f 08 14 22 41 00     .A.. @A?....."A.
     368:	7f 40 40 40 40 00 7f 02 0c 02 7f 00 7f 04 08 10     .@@@@...........
     378:	7f 00 3e 41 41 41 3e 00 7f 09 09 09 06 00 3e 41     ..>AAA>.......>A
     388:	51 21 5e 00 7f 09 19 29 46 00 46 49 49 49 31 00     Q!^....)F.FIII1.
     398:	01 01 7f 01 01 00 3f 40 40 40 3f 00 1f 20 40 20     ......?@@@?.. @ 
     3a8:	1f 00 3f 40 38 40 3f 00 63 14 08 14 63 00 07 08     ..?@8@?.c...c...
     3b8:	70 08 07 00 61 51 49 45 43 00 00 7f 41 41 00 00     p...aQIEC...AA..
     3c8:	02 04 08 10 20 00 00 41 41 7f 00 00 04 02 01 02     .... ..AA.......
     3d8:	04 00 40 40 40 40 40 00 00 01 02 04 00 00 20 54     ..@@@@@....... T
     3e8:	54 54 78 00 7f 48 44 44 38 00 38 44 44 44 20 00     TTx..HDD8.8DDD .
     3f8:	38 44 44 48 7f 00 38 54 54 54 18 00 08 7e 09 01     8DDH..8TTT...~..
     408:	02 00 0c 52 52 52 3e 00 7f 08 04 04 78 00 00 44     ...RRR>.....x..D
     418:	7d 40 00 00 20 40 44 3d 00 00 7f 10 28 44 00 00     }@.. @D=....(D..
     428:	00 41 7f 40 00 00 7c 04 18 04 78 00 7c 08 04 04     .A.@..|...x.|...
     438:	78 00 38 44 44 44 38 00 7c 14 14 14 08 00 08 14     x.8DDD8.|.......
     448:	14 18 7c 00 7c 08 04 04 08 00 48 54 54 54 20 00     ..|.|.....HTTT .
     458:	04 3f 44 40 20 00 3c 40 40 20 7c 00 1c 20 40 20     .?D@ .<@@ |.. @ 
     468:	1c 00 3c 40 30 40 3c 00 44 28 10 28 44 00 0c 50     ..<@0@<.D(.(D..P
     478:	50 50 3c 00 44 64 54 4c 44 00 00 08 36 41 00 00     PP<.DdTLD...6A..
     488:	00 00 7f 00 00 00 00 41 36 08 00 00 10 08 08 10     .......A6.......
     498:	08 00 78 46 41 46 78 00 78 14 12 11 7f 00 7f 45     ..xFAFx.x......E
     4a8:	45 45 38 00 7f 49 49 49 36 00 7f 01 01 01 01 00     EE8..III6.......
     4b8:	70 1f 11 1f 70 00 7f 49 49 49 41 00 77 08 7f 08     p...p..IIIA.w...
     4c8:	77 00 22 41 49 49 36 00 7f 10 08 04 7f 00 7f 10     w."AII6.........
     4d8:	09 04 7f 00 7f 08 14 22 41 00 40 3e 01 01 7f 00     ......."A.@>....
     4e8:	7f 02 0c 02 7f 00 7f 08 08 08 7f 00 3e 41 41 41     ............>AAA
     4f8:	3e 00 7f 01 01 01 7f 00 7f 11 11 11 0e 00 3e 41     >.............>A
     508:	41 41 22 00 01 01 7f 01 01 00 07 48 48 48 3f 00     AA"........HHH?.
     518:	1c 22 7f 22 1c 00 63 14 08 14 63 00 3f 20 20 20     ."."..c...c.?   
     528:	7f 00 07 08 08 08 7f 00 7f 40 7f 40 7f 00 3f 20     .........@.@..? 
     538:	3f 20 7f 00 01 7f 48 48 30 00 7f 48 30 00 7f 00     ? ....HH0..H0...
     548:	7f 48 30 00 00 00 22 49 49 49 3e 00 7f 08 3e 41     .H0..."III>...>A
     558:	3e 00 66 19 09 09 7f 00 20 54 54 54 78 00 28 54     >.f..... TTTx.(T
     568:	54 54 24 00 38 54 54 58 20 00 24 54 54 54 48 00     TT$.8TTX .$TTTH.
     578:	18 a4 a4 a4 78 00 38 54 54 54 08 00 44 28 7c 28     ....x.8TTT..D(|(
     588:	44 00 28 44 54 54 28 00 3c 40 40 40 7c 00 3c 40     D.(DTT(.<@@@|.<@
     598:	44 42 7c 00 7c 10 10 28 44 00 40 20 18 04 7c 00     DB|.|..(D.@ ..|.
     5a8:	7c 08 30 08 7c 00 7c 10 10 10 7c 00 38 44 44 44     |.0.|.|...|.8DDD
     5b8:	38 00 7c 04 04 04 78 00 fc 24 24 24 18 00 38 44     8.|...x..$$$..8D
     5c8:	44 44 28 00 7c 04 78 04 78 00 4c 90 90 90 7c 00     DD(.|.x.x.L...|.
     5d8:	10 28 7c 28 10 00 44 28 10 28 44 00 3c 40 40 40     .(|(..D(.(D.<@@@
     5e8:	7c 80 1c 20 20 20 7c 00 7c 40 7c 40 7c 00 7c 40     |..   |.|@|@|.|@
     5f8:	7c 40 fc 00 04 7c 50 20 00 00 7c 50 20 00 7c 00     |@...|P ..|P .|.
     608:	7c 50 20 00 00 00 44 54 54 54 38 00 7c 10 38 44     |P ...DTTT8.|.8D
     618:	38 00 58 24 24 24 7c 00 00 00 00 00 00 00 00 00     8.X$$$|.........
	...

0000079a <__ctors_end>:
     79a:	11 24       	eor	r1, r1
     79c:	1f be       	out	0x3f, r1	; 63
     79e:	cf ef       	ldi	r28, 0xFF	; 255
     7a0:	d0 e1       	ldi	r29, 0x10	; 16
     7a2:	de bf       	out	0x3e, r29	; 62
     7a4:	cd bf       	out	0x3d, r28	; 61

000007a6 <__do_copy_data>:
     7a6:	11 e0       	ldi	r17, 0x01	; 1
     7a8:	a0 e0       	ldi	r26, 0x00	; 0
     7aa:	b1 e0       	ldi	r27, 0x01	; 1
     7ac:	e2 e0       	ldi	r30, 0x02	; 2
     7ae:	f2 e1       	ldi	r31, 0x12	; 18
     7b0:	00 e0       	ldi	r16, 0x00	; 0
     7b2:	0b bf       	out	0x3b, r16	; 59
     7b4:	02 c0       	rjmp	.+4      	; 0x7ba <__do_copy_data+0x14>
     7b6:	07 90       	elpm	r0, Z+
     7b8:	0d 92       	st	X+, r0
     7ba:	a2 30       	cpi	r26, 0x02	; 2
     7bc:	b1 07       	cpc	r27, r17
     7be:	d9 f7       	brne	.-10     	; 0x7b6 <__do_copy_data+0x10>
     7c0:	1b be       	out	0x3b, r1	; 59

000007c2 <__do_clear_bss>:
     7c2:	11 e0       	ldi	r17, 0x01	; 1
     7c4:	a2 e0       	ldi	r26, 0x02	; 2
     7c6:	b1 e0       	ldi	r27, 0x01	; 1
     7c8:	01 c0       	rjmp	.+2      	; 0x7cc <.do_clear_bss_start>

000007ca <.do_clear_bss_loop>:
     7ca:	1d 92       	st	X+, r1

000007cc <.do_clear_bss_start>:
     7cc:	ab 31       	cpi	r26, 0x1B	; 27
     7ce:	b1 07       	cpc	r27, r17
     7d0:	e1 f7       	brne	.-8      	; 0x7ca <.do_clear_bss_loop>
     7d2:	0e 94 83 08 	call	0x1106	; 0x1106 <main>
     7d6:	0c 94 ff 08 	jmp	0x11fe	; 0x11fe <_exit>

000007da <__bad_interrupt>:
     7da:	0c 94 00 00 	jmp	0	; 0x0 <__vectors>

000007de <send_byte>:
send_byte  (data);

}

/////////////////////////////////////////////
void send_byte (uint8_t data){
     7de:	90 e0       	ldi	r25, 0x00	; 0
 byte i;

 for (i=0;i<8;i++)
  {
   CLK0
     7e0:	da 98       	cbi	0x1b, 2	; 27
   if  ((data&128)!=0) SDA1
     7e2:	87 ff       	sbrs	r24, 7
     7e4:	02 c0       	rjmp	.+4      	; 0x7ea <send_byte+0xc>
     7e6:	d9 9a       	sbi	0x1b, 1	; 27
     7e8:	01 c0       	rjmp	.+2      	; 0x7ec <send_byte+0xe>
               else SDA0
     7ea:	d9 98       	cbi	0x1b, 1	; 27
   data=data<<1; 
   CLK1 
     7ec:	da 9a       	sbi	0x1b, 2	; 27

/////////////////////////////////////////////
void send_byte (uint8_t data){
 byte i;

 for (i=0;i<8;i++)
     7ee:	9f 5f       	subi	r25, 0xFF	; 255
     7f0:	98 30       	cpi	r25, 0x08	; 8
     7f2:	11 f0       	breq	.+4      	; 0x7f8 <send_byte+0x1a>
  {
   CLK0
   if  ((data&128)!=0) SDA1
               else SDA0
   data=data<<1; 
     7f4:	88 0f       	add	r24, r24
     7f6:	f4 cf       	rjmp	.-24     	; 0x7e0 <send_byte+0x2>
     7f8:	08 95       	ret

000007fa <send_data>:
}
/////////////////////////////////////////////

void send_data(uint8_t data) {

	CLK0
     7fa:	da 98       	cbi	0x1b, 2	; 27
	SDA1
     7fc:	d9 9a       	sbi	0x1b, 1	; 27
	CLK1
     7fe:	da 9a       	sbi	0x1b, 2	; 27

send_byte  (data);
     800:	0e 94 ef 03 	call	0x7de	; 0x7de <send_byte>

}
     804:	08 95       	ret

00000806 <send_cmd>:
//////////////////////////////////////////////////////////
//////////         Send_Byte/Cmd                //////////
//////////////////////////////////////////////////////////
void send_cmd(uint8_t data) {

	CLK0
     806:	da 98       	cbi	0x1b, 2	; 27
	SDA0
     808:	d9 98       	cbi	0x1b, 1	; 27
	CLK1
     80a:	da 9a       	sbi	0x1b, 2	; 27
send_byte  (data);
     80c:	0e 94 ef 03 	call	0x7de	; 0x7de <send_byte>

}
     810:	08 95       	ret

00000812 <init_lcd>:
void init_lcd(void) {



  // reset the display
  DDRA |= (1 << RST_BIT);
     812:	d0 9a       	sbi	0x1a, 0	; 26
  PORTA &= ~(1 << RST_BIT);
     814:	d8 98       	cbi	0x1b, 0	; 27
     816:	80 e0       	ldi	r24, 0x00	; 0
     818:	90 e0       	ldi	r25, 0x00	; 0
    milliseconds can be achieved.
 */
void
_delay_loop_2(uint16_t __count)
{
	__asm__ volatile (
     81a:	26 e6       	ldi	r18, 0x66	; 102
     81c:	3e e0       	ldi	r19, 0x0E	; 14
     81e:	f9 01       	movw	r30, r18
     820:	31 97       	sbiw	r30, 0x01	; 1
     822:	f1 f7       	brne	.-4      	; 0x820 <init_lcd+0xe>
} 

/////////////////////////////////////////////
void waitms(int ms) {
  int i;
  for (i=0;i<ms;i++) _delay_ms(1);
     824:	01 96       	adiw	r24, 0x01	; 1
     826:	84 36       	cpi	r24, 0x64	; 100
     828:	91 05       	cpc	r25, r1
     82a:	c9 f7       	brne	.-14     	; 0x81e <init_lcd+0xc>
 waitms(100);
  PORTA |= (1 << RST_BIT);
     82c:	d8 9a       	sbi	0x1b, 0	; 27
     82e:	80 e0       	ldi	r24, 0x00	; 0
     830:	90 e0       	ldi	r25, 0x00	; 0
     832:	26 e6       	ldi	r18, 0x66	; 102
     834:	3e e0       	ldi	r19, 0x0E	; 14
     836:	f9 01       	movw	r30, r18
     838:	31 97       	sbiw	r30, 0x01	; 1
     83a:	f1 f7       	brne	.-4      	; 0x838 <init_lcd+0x26>
     83c:	01 96       	adiw	r24, 0x01	; 1
     83e:	84 36       	cpi	r24, 0x64	; 100
     840:	91 05       	cpc	r25, r1
     842:	c9 f7       	brne	.-14     	; 0x836 <init_lcd+0x24>
  waitms(100);


	send_cmd (0x01);  //Software Reset
     844:	81 e0       	ldi	r24, 0x01	; 1
     846:	0e 94 03 04 	call	0x806	; 0x806 <send_cmd>
	send_cmd(0x11);  //Sleep Out
     84a:	81 e1       	ldi	r24, 0x11	; 17
     84c:	0e 94 03 04 	call	0x806	; 0x806 <send_cmd>
 	send_cmd(0x03);  //Booster ON
     850:	83 e0       	ldi	r24, 0x03	; 3
     852:	0e 94 03 04 	call	0x806	; 0x806 <send_cmd>
     856:	80 e0       	ldi	r24, 0x00	; 0
     858:	90 e0       	ldi	r25, 0x00	; 0
     85a:	26 e6       	ldi	r18, 0x66	; 102
     85c:	3e e0       	ldi	r19, 0x0E	; 14
     85e:	f9 01       	movw	r30, r18
     860:	31 97       	sbiw	r30, 0x01	; 1
     862:	f1 f7       	brne	.-4      	; 0x860 <init_lcd+0x4e>
     864:	01 96       	adiw	r24, 0x01	; 1
     866:	8a 30       	cpi	r24, 0x0A	; 10
     868:	91 05       	cpc	r25, r1
     86a:	c9 f7       	brne	.-14     	; 0x85e <init_lcd+0x4c>
	waitms(10);
  send_cmd(0x29);  //Display On
     86c:	89 e2       	ldi	r24, 0x29	; 41
     86e:	0e 94 03 04 	call	0x806	; 0x806 <send_cmd>
  send_cmd(0x13);  //Normal display mode
     872:	83 e1       	ldi	r24, 0x13	; 19
     874:	0e 94 03 04 	call	0x806	; 0x806 <send_cmd>
  send_cmd(0x21);  //Display inversion on
     878:	81 e2       	ldi	r24, 0x21	; 33
     87a:	0e 94 03 04 	call	0x806	; 0x806 <send_cmd>
  send_cmd(0xBA);  //Data order
     87e:	8a eb       	ldi	r24, 0xBA	; 186
     880:	0e 94 03 04 	call	0x806	; 0x806 <send_cmd>
  send_cmd(0x36); //Memory data access control
     884:	86 e3       	ldi	r24, 0x36	; 54
     886:	0e 94 03 04 	call	0x806	; 0x806 <send_cmd>
 //send_data(8|64);   //rgb + MirrorX
 send_data(8|128);   //rgb + MirrorY
     88a:	88 e8       	ldi	r24, 0x88	; 136
     88c:	0e 94 fd 03 	call	0x7fa	; 0x7fa <send_data>
//	send_data(0x08);   //rgb 

	send_cmd(0x3A); 
     890:	8a e3       	ldi	r24, 0x3A	; 58
     892:	0e 94 03 04 	call	0x806	; 0x806 <send_cmd>
	send_data(2);   //8-Bit per Pixel (default)
     896:	82 e0       	ldi	r24, 0x02	; 2
     898:	0e 94 fd 03 	call	0x7fa	; 0x7fa <send_data>
//	send_cmd(0x3A); 
//	send_data(2);//8-bit/pixel

 // if 256-color mode, bytes represent RRRGGGBB; the following
 //    maps to 4-bit color for each value in range (0-7 R/G, 0-3 B) 
	send_cmd(RGBSET8);	// 256-color position set
     89c:	8d e2       	ldi	r24, 0x2D	; 45
     89e:	0e 94 03 04 	call	0x806	; 0x806 <send_cmd>
  send_data(0x00);	// 000 RED
     8a2:	80 e0       	ldi	r24, 0x00	; 0
     8a4:	0e 94 fd 03 	call	0x7fa	; 0x7fa <send_data>
  send_data(  0x02);	// 001  
     8a8:	82 e0       	ldi	r24, 0x02	; 2
     8aa:	0e 94 fd 03 	call	0x7fa	; 0x7fa <send_data>
  send_data(  0x04);	// 010
     8ae:	84 e0       	ldi	r24, 0x04	; 4
     8b0:	0e 94 fd 03 	call	0x7fa	; 0x7fa <send_data>
  send_data(  0x06);	// 011
     8b4:	86 e0       	ldi	r24, 0x06	; 6
     8b6:	0e 94 fd 03 	call	0x7fa	; 0x7fa <send_data>
  send_data(  0x08);	// 100
     8ba:	88 e0       	ldi	r24, 0x08	; 8
     8bc:	0e 94 fd 03 	call	0x7fa	; 0x7fa <send_data>
  send_data(  0x0a);	// 101
     8c0:	8a e0       	ldi	r24, 0x0A	; 10
     8c2:	0e 94 fd 03 	call	0x7fa	; 0x7fa <send_data>
  send_data(  0x0c);	// 110
     8c6:	8c e0       	ldi	r24, 0x0C	; 12
     8c8:	0e 94 fd 03 	call	0x7fa	; 0x7fa <send_data>
  send_data(  0x0f);	// 111
     8cc:	8f e0       	ldi	r24, 0x0F	; 15
     8ce:	0e 94 fd 03 	call	0x7fa	; 0x7fa <send_data>
  send_data(  0x00);	// 000 GREEN
     8d2:	80 e0       	ldi	r24, 0x00	; 0
     8d4:	0e 94 fd 03 	call	0x7fa	; 0x7fa <send_data>
  send_data(  0x02);	// 001  
     8d8:	82 e0       	ldi	r24, 0x02	; 2
     8da:	0e 94 fd 03 	call	0x7fa	; 0x7fa <send_data>
  send_data(  0x04);	// 010
     8de:	84 e0       	ldi	r24, 0x04	; 4
     8e0:	0e 94 fd 03 	call	0x7fa	; 0x7fa <send_data>
  send_data(  0x06);	// 011
     8e4:	86 e0       	ldi	r24, 0x06	; 6
     8e6:	0e 94 fd 03 	call	0x7fa	; 0x7fa <send_data>
  send_data(  0x08);	// 100
     8ea:	88 e0       	ldi	r24, 0x08	; 8
     8ec:	0e 94 fd 03 	call	0x7fa	; 0x7fa <send_data>
  send_data(  0x0a);	// 101
     8f0:	8a e0       	ldi	r24, 0x0A	; 10
     8f2:	0e 94 fd 03 	call	0x7fa	; 0x7fa <send_data>
  send_data(  0x0c);	// 110
     8f6:	8c e0       	ldi	r24, 0x0C	; 12
     8f8:	0e 94 fd 03 	call	0x7fa	; 0x7fa <send_data>
  send_data(  0x0f);	// 111
     8fc:	8f e0       	ldi	r24, 0x0F	; 15
     8fe:	0e 94 fd 03 	call	0x7fa	; 0x7fa <send_data>
  send_data(  0x00);	//  00 BLUE
     902:	80 e0       	ldi	r24, 0x00	; 0
     904:	0e 94 fd 03 	call	0x7fa	; 0x7fa <send_data>
  send_data(  0x06);	//  01
     908:	86 e0       	ldi	r24, 0x06	; 6
     90a:	0e 94 fd 03 	call	0x7fa	; 0x7fa <send_data>
  send_data(  0x09);	//  10
     90e:	89 e0       	ldi	r24, 0x09	; 9
     910:	0e 94 fd 03 	call	0x7fa	; 0x7fa <send_data>
  send_data(  0x0f);	//  11
     914:	8f e0       	ldi	r24, 0x0F	; 15
     916:	0e 94 fd 03 	call	0x7fa	; 0x7fa <send_data>

  //Set Constrast
  //send_cmd(0x25);
  //send_data(63);

  send_cmd(0x2C);  //Memory Write
     91a:	8c e2       	ldi	r24, 0x2C	; 44
     91c:	0e 94 03 04 	call	0x806	; 0x806 <send_cmd>
//	send_cmd (0x36);//  0x36  //;Memory data acces control
//	send_data(0x28);// 0x20-MADCTL_VERT

//	clrscr(0,0,132,132,31);

}
     920:	08 95       	ret

00000922 <window>:
*/


//////////////////////////////////////////////
void window(uint8_t x, uint8_t y, uint8_t dx, uint8_t dy)
{
     922:	ef 92       	push	r14
     924:	ff 92       	push	r15
     926:	0f 93       	push	r16
     928:	1f 93       	push	r17
     92a:	18 2f       	mov	r17, r24
     92c:	f6 2e       	mov	r15, r22
     92e:	04 2f       	mov	r16, r20
     930:	e2 2e       	mov	r14, r18

	send_cmd (CASET);
     932:	8a e2       	ldi	r24, 0x2A	; 42
     934:	0e 94 03 04 	call	0x806	; 0x806 <send_cmd>
	send_data(x);	
     938:	81 2f       	mov	r24, r17
     93a:	0e 94 fd 03 	call	0x7fa	; 0x7fa <send_data>
	send_data(dx);
     93e:	80 2f       	mov	r24, r16
     940:	0e 94 fd 03 	call	0x7fa	; 0x7fa <send_data>
		
	send_cmd (PASET);	
     944:	8b e2       	ldi	r24, 0x2B	; 43
     946:	0e 94 03 04 	call	0x806	; 0x806 <send_cmd>
	send_data(y);
     94a:	8f 2d       	mov	r24, r15
     94c:	0e 94 fd 03 	call	0x7fa	; 0x7fa <send_data>
	send_data(dy);
     950:	8e 2d       	mov	r24, r14
     952:	0e 94 fd 03 	call	0x7fa	; 0x7fa <send_data>
	send_cmd (RAMWR);	
     956:	8c e2       	ldi	r24, 0x2C	; 44
     958:	0e 94 03 04 	call	0x806	; 0x806 <send_cmd>
	
}
     95c:	1f 91       	pop	r17
     95e:	0f 91       	pop	r16
     960:	ff 90       	pop	r15
     962:	ef 90       	pop	r14
     964:	08 95       	ret

00000966 <putch>:


///////////////////////////////////////////////////////////////////////
//////////////  PRINT_CHAR   //////////////////////////////////////////
///////////////////////////////////////////////////////////////////////
uint8_t putch(uint8_t x, uint8_t y, char c, uint8_t fg, uint8_t bg) {
     966:	9f 92       	push	r9
     968:	af 92       	push	r10
     96a:	bf 92       	push	r11
     96c:	cf 92       	push	r12
     96e:	df 92       	push	r13
     970:	ef 92       	push	r14
     972:	ff 92       	push	r15
     974:	0f 93       	push	r16
     976:	1f 93       	push	r17
     978:	cf 93       	push	r28
     97a:	df 93       	push	r29
     97c:	b8 2e       	mov	r11, r24
     97e:	16 2f       	mov	r17, r22
     980:	f4 2e       	mov	r15, r20
     982:	92 2e       	mov	r9, r18
     984:	a0 2e       	mov	r10, r16

	send_cmd (0x36);//  0x36  //;Memory data acces control
     986:	86 e3       	ldi	r24, 0x36	; 54
     988:	0e 94 03 04 	call	0x806	; 0x806 <send_cmd>
	send_data(0x28);//MADCTL_VERT);// 0x20-MADCTL_VERT
     98c:	88 e2       	ldi	r24, 0x28	; 40
     98e:	0e 94 fd 03 	call	0x7fa	; 0x7fa <send_data>


window(x,y,x+5,y+7);
     992:	4b 2d       	mov	r20, r11
     994:	4b 5f       	subi	r20, 0xFB	; 251
     996:	8b 2d       	mov	r24, r11
     998:	61 2f       	mov	r22, r17
     99a:	19 5f       	subi	r17, 0xF9	; 249
     99c:	21 2f       	mov	r18, r17
     99e:	0e 94 91 04 	call	0x922	; 0x922 <window>


	if(c>127) c-=0x40; // TEST For RUS char
     9a2:	f7 fe       	sbrs	r15, 7
     9a4:	02 c0       	rjmp	.+4      	; 0x9aa <putch+0x44>
     9a6:	80 ec       	ldi	r24, 0xC0	; 192
     9a8:	f8 0e       	add	r15, r24
	uint8_t idx = c;
	unsigned char *p = s_apxFont6x8 + idx*6-1; // следующий байт символа
     9aa:	86 e0       	ldi	r24, 0x06	; 6
     9ac:	f8 9e       	mul	r15, r24
     9ae:	60 01       	movw	r12, r0
     9b0:	11 24       	eor	r1, r1
     9b2:	8f e9       	ldi	r24, 0x9F	; 159
     9b4:	91 e0       	ldi	r25, 0x01	; 1
     9b6:	c8 0e       	add	r12, r24
     9b8:	d9 1e       	adc	r13, r25
     9ba:	91 e0       	ldi	r25, 0x01	; 1
     9bc:	e9 2e       	mov	r14, r25
     9be:	f1 2c       	mov	r15, r1
	int a=0;

	for(int i=0; i<6; i++) {
	p++;
	a = pgm_read_byte(p);
     9c0:	f6 01       	movw	r30, r12
     9c2:	ee 0d       	add	r30, r14
     9c4:	ff 1d       	adc	r31, r15
     9c6:	e4 91       	lpm	r30, Z+
     9c8:	0e 2f       	mov	r16, r30
     9ca:	10 e0       	ldi	r17, 0x00	; 0
     9cc:	c0 e0       	ldi	r28, 0x00	; 0
     9ce:	d0 e0       	ldi	r29, 0x00	; 0

	uint8_t d; // - отправить на экран 1н байт из шести символа
	for(int j=0; j<8; j++) 
			{
	if((a&128)!=0) d=fg; else d=bg;
     9d0:	07 fd       	sbrc	r16, 7
     9d2:	02 c0       	rjmp	.+4      	; 0x9d8 <putch+0x72>
     9d4:	8a 2d       	mov	r24, r10
     9d6:	01 c0       	rjmp	.+2      	; 0x9da <putch+0x74>
     9d8:	89 2d       	mov	r24, r9
	send_data(d);
     9da:	0e 94 fd 03 	call	0x7fa	; 0x7fa <send_data>
	for(int i=0; i<6; i++) {
	p++;
	a = pgm_read_byte(p);

	uint8_t d; // - отправить на экран 1н байт из шести символа
	for(int j=0; j<8; j++) 
     9de:	21 96       	adiw	r28, 0x01	; 1
     9e0:	c8 30       	cpi	r28, 0x08	; 8
     9e2:	d1 05       	cpc	r29, r1
     9e4:	19 f0       	breq	.+6      	; 0x9ec <putch+0x86>
			{
	if((a&128)!=0) d=fg; else d=bg;
	send_data(d);
	a=a<<1;
     9e6:	00 0f       	add	r16, r16
     9e8:	11 1f       	adc	r17, r17
     9ea:	f2 cf       	rjmp	.-28     	; 0x9d0 <putch+0x6a>
     9ec:	08 94       	sec
     9ee:	e1 1c       	adc	r14, r1
     9f0:	f1 1c       	adc	r15, r1
	if(c>127) c-=0x40; // TEST For RUS char
	uint8_t idx = c;
	unsigned char *p = s_apxFont6x8 + idx*6-1; // следующий байт символа
	int a=0;

	for(int i=0; i<6; i++) {
     9f2:	97 e0       	ldi	r25, 0x07	; 7
     9f4:	e9 16       	cp	r14, r25
     9f6:	f1 04       	cpc	r15, r1
     9f8:	19 f7       	brne	.-58     	; 0x9c0 <putch+0x5a>
	
							}

	return x+=6;//update X position to next char

}
     9fa:	8b 2d       	mov	r24, r11
     9fc:	8a 5f       	subi	r24, 0xFA	; 250
     9fe:	df 91       	pop	r29
     a00:	cf 91       	pop	r28
     a02:	1f 91       	pop	r17
     a04:	0f 91       	pop	r16
     a06:	ff 90       	pop	r15
     a08:	ef 90       	pop	r14
     a0a:	df 90       	pop	r13
     a0c:	cf 90       	pop	r12
     a0e:	bf 90       	pop	r11
     a10:	af 90       	pop	r10
     a12:	9f 90       	pop	r9
     a14:	08 95       	ret

00000a16 <clrscr>:
/////////////////////////////////////////////////////////
///////////////    CLEAR SCREEN        //////////////////
/////////////////////////////////////////////////////////

void clrscr(uint8_t x, uint8_t y, uint8_t dx, uint8_t dy,uint8_t bg)
{
     a16:	df 92       	push	r13
     a18:	ef 92       	push	r14
     a1a:	ff 92       	push	r15
     a1c:	0f 93       	push	r16
     a1e:	1f 93       	push	r17
     a20:	cf 93       	push	r28
     a22:	df 93       	push	r29
     a24:	d8 2e       	mov	r13, r24
     a26:	f6 2e       	mov	r15, r22
     a28:	e4 2e       	mov	r14, r20
     a2a:	12 2f       	mov	r17, r18
	window(x,y,dx,dy); // clear screen
     a2c:	0e 94 91 04 	call	0x922	; 0x922 <window>

	uint8_t ddx = dx-x+1;
	uint8_t ddy = dy-y+1;
	uint16_t a = ddx*ddy;	
     a30:	81 e0       	ldi	r24, 0x01	; 1
     a32:	98 2f       	mov	r25, r24
     a34:	9f 19       	sub	r25, r15
     a36:	91 0f       	add	r25, r17
     a38:	8d 19       	sub	r24, r13
     a3a:	8e 0d       	add	r24, r14
     a3c:	98 9f       	mul	r25, r24
     a3e:	70 01       	movw	r14, r0
     a40:	11 24       	eor	r1, r1
     a42:	c0 e0       	ldi	r28, 0x00	; 0
     a44:	d0 e0       	ldi	r29, 0x00	; 0
     a46:	04 c0       	rjmp	.+8      	; 0xa50 <clrscr+0x3a>
	for(uint16_t i=0; i<a; i++){
	send_data(bg);
     a48:	80 2f       	mov	r24, r16
     a4a:	0e 94 fd 03 	call	0x7fa	; 0x7fa <send_data>
	window(x,y,dx,dy); // clear screen

	uint8_t ddx = dx-x+1;
	uint8_t ddy = dy-y+1;
	uint16_t a = ddx*ddy;	
	for(uint16_t i=0; i<a; i++){
     a4e:	21 96       	adiw	r28, 0x01	; 1
     a50:	ce 15       	cp	r28, r14
     a52:	df 05       	cpc	r29, r15
     a54:	c8 f3       	brcs	.-14     	; 0xa48 <clrscr+0x32>
	send_data(bg);
	}


}
     a56:	df 91       	pop	r29
     a58:	cf 91       	pop	r28
     a5a:	1f 91       	pop	r17
     a5c:	0f 91       	pop	r16
     a5e:	ff 90       	pop	r15
     a60:	ef 90       	pop	r14
     a62:	df 90       	pop	r13
     a64:	08 95       	ret

00000a66 <cpxSetAndValidateLCDRect>:
	send_data(dy);
	send_cmd (RAMWR);	
	
}

uint16_t cpxSetAndValidateLCDRect(uint8_t x, uint8_t y, uint8_t dx, uint8_t dy) {
     a66:	ef 92       	push	r14
     a68:	ff 92       	push	r15
     a6a:	0f 93       	push	r16
     a6c:	1f 93       	push	r17
     a6e:	08 2f       	mov	r16, r24
     a70:	16 2f       	mov	r17, r22
     a72:	e4 2e       	mov	r14, r20
     a74:	f2 2e       	mov	r15, r18
  uint8_t xlFirst, ylFirst, xlLast, ylLast;	// LCD coordinates

  /* check upper left corner */
  /* (x and y aren't too low since unsigned can't be < 0!) */
  if (x >= dxLCDScreen || y >= dyLCDScreen)	// completely off-screen
     a76:	84 38       	cpi	r24, 0x84	; 132
     a78:	98 f5       	brcc	.+102    	; 0xae0 <cpxSetAndValidateLCDRect+0x7a>
     a7a:	64 38       	cpi	r22, 0x84	; 132
     a7c:	88 f5       	brcc	.+98     	; 0xae0 <cpxSetAndValidateLCDRect+0x7a>
    return 0;
  
  /* check lower right corner */
  if (x + dx > dxLCDScreen)
     a7e:	90 e0       	ldi	r25, 0x00	; 0
     a80:	84 0f       	add	r24, r20
     a82:	91 1d       	adc	r25, r1
     a84:	85 38       	cpi	r24, 0x85	; 133
     a86:	91 05       	cpc	r25, r1
     a88:	1c f0       	brlt	.+6      	; 0xa90 <cpxSetAndValidateLCDRect+0x2a>
    dx = dxLCDScreen - x;
     a8a:	34 e8       	ldi	r19, 0x84	; 132
     a8c:	e3 2e       	mov	r14, r19
     a8e:	e0 1a       	sub	r14, r16
  if (y + dy > dyLCDScreen)
     a90:	81 2f       	mov	r24, r17
     a92:	90 e0       	ldi	r25, 0x00	; 0
     a94:	8f 0d       	add	r24, r15
     a96:	91 1d       	adc	r25, r1
     a98:	85 38       	cpi	r24, 0x85	; 133
     a9a:	91 05       	cpc	r25, r1
     a9c:	1c f0       	brlt	.+6      	; 0xaa4 <cpxSetAndValidateLCDRect+0x3e>
    dy = dyLCDScreen - y;
     a9e:	24 e8       	ldi	r18, 0x84	; 132
     aa0:	f2 2e       	mov	r15, r18
     aa2:	f1 1a       	sub	r15, r17

  /* convert to LCD coordinates */
  xlLast = (xlFirst = xlMin + x) + dx - 1;
  ylLast = (ylFirst = ylMin + y) + dy- 1;
     aa4:	1e 5f       	subi	r17, 0xFE	; 254

  /* note: for PASET/CASET, docs say that start must be < end,
     but <= appears to be OK; end is a "last" not "lim" value */
	send_cmd (PASET);	// Page Address Set
     aa6:	8b e2       	ldi	r24, 0x2B	; 43
     aa8:	0e 94 03 04 	call	0x806	; 0x806 <send_cmd>
	send_data(ylFirst);	// start page (line)
     aac:	81 2f       	mov	r24, r17
     aae:	0e 94 fd 03 	call	0x7fa	; 0x7fa <send_data>
	send_data(ylLast);	// end page
     ab2:	11 50       	subi	r17, 0x01	; 1
     ab4:	81 2f       	mov	r24, r17
     ab6:	8f 0d       	add	r24, r15
     ab8:	0e 94 fd 03 	call	0x7fa	; 0x7fa <send_data>
	send_cmd (CASET);	// Column Address Set
     abc:	8a e2       	ldi	r24, 0x2A	; 42
     abe:	0e 94 03 04 	call	0x806	; 0x806 <send_cmd>
	send_data(xlFirst);	// start address
     ac2:	80 2f       	mov	r24, r16
     ac4:	0e 94 fd 03 	call	0x7fa	; 0x7fa <send_data>
	send_data(xlLast);	// end address
     ac8:	01 50       	subi	r16, 0x01	; 1
     aca:	80 2f       	mov	r24, r16
     acc:	8e 0d       	add	r24, r14
     ace:	0e 94 fd 03 	call	0x7fa	; 0x7fa <send_data>
	send_cmd (RAMWR);	// Memory Write
     ad2:	8c e2       	ldi	r24, 0x2C	; 44
     ad4:	0e 94 03 04 	call	0x806	; 0x806 <send_cmd>
  
  return (uint16_t)dx * dy;
     ad8:	fe 9c       	mul	r15, r14
     ada:	90 01       	movw	r18, r0
     adc:	11 24       	eor	r1, r1
     ade:	02 c0       	rjmp	.+4      	; 0xae4 <cpxSetAndValidateLCDRect+0x7e>
     ae0:	20 e0       	ldi	r18, 0x00	; 0
     ae2:	30 e0       	ldi	r19, 0x00	; 0
}
     ae4:	c9 01       	movw	r24, r18
     ae6:	1f 91       	pop	r17
     ae8:	0f 91       	pop	r16
     aea:	ff 90       	pop	r15
     aec:	ef 90       	pop	r14
     aee:	08 95       	ret

00000af0 <lcd_set_brightness_parms>:
/////////////////////////////////////////////////////////


void lcd_set_brightness_parms(uint8_t a, uint8_t b) {
     af0:	0f 93       	push	r16
     af2:	1f 93       	push	r17
     af4:	18 2f       	mov	r17, r24
     af6:	06 2f       	mov	r16, r22
	send_cmd (VOLCTR);
     af8:	85 e2       	ldi	r24, 0x25	; 37
     afa:	0e 94 03 04 	call	0x806	; 0x806 <send_cmd>
	send_data(a);
     afe:	81 2f       	mov	r24, r17
     b00:	0e 94 fd 03 	call	0x7fa	; 0x7fa <send_data>
	send_data(b);
     b04:	80 2f       	mov	r24, r16
     b06:	0e 94 fd 03 	call	0x7fa	; 0x7fa <send_data>
}
     b0a:	1f 91       	pop	r17
     b0c:	0f 91       	pop	r16
     b0e:	08 95       	ret

00000b10 <fillrect>:
/////////////////////////////////////////////////////
void fillrect(uint8_t sx, uint8_t sy, uint8_t dx, uint8_t dy, uint8_t color) {
     b10:	0f 93       	push	r16
     b12:	cf 93       	push	r28
     b14:	df 93       	push	r29
	
  uint16_t cpx = cpxSetAndValidateLCDRect(sx, sy, dx, dy);
     b16:	0e 94 33 05 	call	0xa66	; 0xa66 <cpxSetAndValidateLCDRect>
     b1a:	ec 01       	movw	r28, r24
     b1c:	04 c0       	rjmp	.+8      	; 0xb26 <fillrect+0x16>
  while (cpx-- > 0)
	send_data(color);
     b1e:	80 2f       	mov	r24, r16
     b20:	0e 94 fd 03 	call	0x7fa	; 0x7fa <send_data>
     b24:	21 97       	sbiw	r28, 0x01	; 1
}
/////////////////////////////////////////////////////
void fillrect(uint8_t sx, uint8_t sy, uint8_t dx, uint8_t dy, uint8_t color) {
	
  uint16_t cpx = cpxSetAndValidateLCDRect(sx, sy, dx, dy);
  while (cpx-- > 0)
     b26:	20 97       	sbiw	r28, 0x00	; 0
     b28:	d1 f7       	brne	.-12     	; 0xb1e <fillrect+0xe>
	send_data(color);
}
     b2a:	df 91       	pop	r29
     b2c:	cf 91       	pop	r28
     b2e:	0f 91       	pop	r16
     b30:	08 95       	ret

00000b32 <setup_pix_blit>:
////////////////////////////////////////////////////////
void setup_pix_blit(uint8_t sx, uint8_t sy, uint8_t dx, uint8_t dy) {
  cpxSetAndValidateLCDRect(sx,sy,dx,dy);	
     b32:	0e 94 33 05 	call	0xa66	; 0xa66 <cpxSetAndValidateLCDRect>
}
     b36:	08 95       	ret

00000b38 <pix_blit>:
///////////////////////////////////////////////////
void pix_blit(uint8_t color){
	send_data(color);
     b38:	0e 94 fd 03 	call	0x7fa	; 0x7fa <send_data>
}
     b3c:	08 95       	ret

00000b3e <putstr_ram>:

////////////////////////////////////////////////////////
uint8_t putstr_ram(uint8_t x, uint8_t y, char * p, uint8_t fg, uint8_t bg) {
     b3e:	ef 92       	push	r14
     b40:	ff 92       	push	r15
     b42:	0f 93       	push	r16
     b44:	1f 93       	push	r17
     b46:	cf 93       	push	r28
     b48:	df 93       	push	r29
     b4a:	e6 2e       	mov	r14, r22
     b4c:	ea 01       	movw	r28, r20
     b4e:	f2 2e       	mov	r15, r18
     b50:	10 2f       	mov	r17, r16
     b52:	05 c0       	rjmp	.+10     	; 0xb5e <putstr_ram+0x20>
  
  uint8_t c;
  while ((c = *p++))
    x = putch(x, y, c, fg, bg);	
     b54:	6e 2d       	mov	r22, r14
     b56:	2f 2d       	mov	r18, r15
     b58:	01 2f       	mov	r16, r17
     b5a:	0e 94 b3 04 	call	0x966	; 0x966 <putch>

////////////////////////////////////////////////////////
uint8_t putstr_ram(uint8_t x, uint8_t y, char * p, uint8_t fg, uint8_t bg) {
  
  uint8_t c;
  while ((c = *p++))
     b5e:	49 91       	ld	r20, Y+
     b60:	44 23       	and	r20, r20
     b62:	c1 f7       	brne	.-16     	; 0xb54 <putstr_ram+0x16>
    x = putch(x, y, c, fg, bg);	
  return x;
}
     b64:	df 91       	pop	r29
     b66:	cf 91       	pop	r28
     b68:	1f 91       	pop	r17
     b6a:	0f 91       	pop	r16
     b6c:	ff 90       	pop	r15
     b6e:	ef 90       	pop	r14
     b70:	08 95       	ret

00000b72 <putstr_pgm>:




/////////////////////////////////////////////////////////////
uint8_t putstr_pgm(uint8_t x, uint8_t y, PGM_P p, uint8_t fg, uint8_t bg) {
     b72:	ef 92       	push	r14
     b74:	ff 92       	push	r15
     b76:	0f 93       	push	r16
     b78:	1f 93       	push	r17
     b7a:	cf 93       	push	r28
     b7c:	df 93       	push	r29
     b7e:	e6 2e       	mov	r14, r22
     b80:	ea 01       	movw	r28, r20
     b82:	f2 2e       	mov	r15, r18
     b84:	10 2f       	mov	r17, r16
     b86:	05 c0       	rjmp	.+10     	; 0xb92 <putstr_pgm+0x20>
	
  uint8_t c;
  while ((c = pgm_read_byte(p++)))
    x = putch(x, y, c, fg, bg);
     b88:	6e 2d       	mov	r22, r14
     b8a:	2f 2d       	mov	r18, r15
     b8c:	01 2f       	mov	r16, r17
     b8e:	0e 94 b3 04 	call	0x966	; 0x966 <putch>
     b92:	fe 01       	movw	r30, r28

/////////////////////////////////////////////////////////////
uint8_t putstr_pgm(uint8_t x, uint8_t y, PGM_P p, uint8_t fg, uint8_t bg) {
	
  uint8_t c;
  while ((c = pgm_read_byte(p++)))
     b94:	21 96       	adiw	r28, 0x01	; 1
     b96:	44 91       	lpm	r20, Z+
     b98:	44 23       	and	r20, r20
     b9a:	b1 f7       	brne	.-20     	; 0xb88 <putstr_pgm+0x16>
    x = putch(x, y, c, fg, bg);
	
  return x;
}
     b9c:	df 91       	pop	r29
     b9e:	cf 91       	pop	r28
     ba0:	1f 91       	pop	r17
     ba2:	0f 91       	pop	r16
     ba4:	ff 90       	pop	r15
     ba6:	ef 90       	pop	r14
     ba8:	08 95       	ret

00000baa <printDecimal>:
/////////////////////////////////////////////////////////////////

uint8_t printDecimal(uint8_t x, uint8_t y, uint32_t val, uint8_t fg, uint8_t bg) {
     baa:	8f 92       	push	r8
     bac:	9f 92       	push	r9
     bae:	af 92       	push	r10
     bb0:	bf 92       	push	r11
     bb2:	cf 92       	push	r12
     bb4:	df 92       	push	r13
     bb6:	ef 92       	push	r14
     bb8:	ff 92       	push	r15
     bba:	0f 93       	push	r16
     bbc:	1f 93       	push	r17
     bbe:	df 93       	push	r29
     bc0:	cf 93       	push	r28
     bc2:	cd b7       	in	r28, 0x3d	; 61
     bc4:	de b7       	in	r29, 0x3e	; 62
     bc6:	29 97       	sbiw	r28, 0x09	; 9
     bc8:	0f b6       	in	r0, 0x3f	; 63
     bca:	f8 94       	cli
     bcc:	de bf       	out	0x3e, r29	; 62
     bce:	0f be       	out	0x3f, r0	; 63
     bd0:	cd bf       	out	0x3d, r28	; 61
     bd2:	f8 2e       	mov	r15, r24
     bd4:	96 2e       	mov	r9, r22
     bd6:	59 01       	movw	r10, r18
     bd8:	6a 01       	movw	r12, r20
     bda:	80 2e       	mov	r8, r16
  char buf[9];
  buf[8] = 0;
     bdc:	19 86       	std	Y+9, r1	; 0x09
     bde:	8e 01       	movw	r16, r28
     be0:	07 5f       	subi	r16, 0xF7	; 247
     be2:	1f 4f       	sbci	r17, 0xFF	; 255
     be4:	18 c0       	rjmp	.+48     	; 0xc16 <printDecimal+0x6c>
  char * ptr = &buf[8];
	
  while(val > 0) {
    ptr--;
    *ptr = val%10 + '0';
     be6:	c6 01       	movw	r24, r12
     be8:	b5 01       	movw	r22, r10
     bea:	2a e0       	ldi	r18, 0x0A	; 10
     bec:	30 e0       	ldi	r19, 0x00	; 0
     bee:	40 e0       	ldi	r20, 0x00	; 0
     bf0:	50 e0       	ldi	r21, 0x00	; 0
     bf2:	0e 94 dd 08 	call	0x11ba	; 0x11ba <__udivmodsi4>
     bf6:	60 5d       	subi	r22, 0xD0	; 208
     bf8:	f8 01       	movw	r30, r16
     bfa:	62 93       	st	-Z, r22
     bfc:	8f 01       	movw	r16, r30
    val /= 10;
     bfe:	c6 01       	movw	r24, r12
     c00:	b5 01       	movw	r22, r10
     c02:	2a e0       	ldi	r18, 0x0A	; 10
     c04:	30 e0       	ldi	r19, 0x00	; 0
     c06:	40 e0       	ldi	r20, 0x00	; 0
     c08:	50 e0       	ldi	r21, 0x00	; 0
     c0a:	0e 94 dd 08 	call	0x11ba	; 0x11ba <__udivmodsi4>
     c0e:	c9 01       	movw	r24, r18
     c10:	da 01       	movw	r26, r20
     c12:	5c 01       	movw	r10, r24
     c14:	6d 01       	movw	r12, r26
uint8_t printDecimal(uint8_t x, uint8_t y, uint32_t val, uint8_t fg, uint8_t bg) {
  char buf[9];
  buf[8] = 0;
  char * ptr = &buf[8];
	
  while(val > 0) {
     c16:	a1 14       	cp	r10, r1
     c18:	b1 04       	cpc	r11, r1
     c1a:	c1 04       	cpc	r12, r1
     c1c:	d1 04       	cpc	r13, r1
     c1e:	19 f7       	brne	.-58     	; 0xbe6 <printDecimal+0x3c>
    val /= 10;
  }
//  if (ptr == &buf[8])
//    *(ptr = &buf[7]);// = '0';

  return putstr_ram(x,y,ptr,fg,bg);
     c20:	8f 2d       	mov	r24, r15
     c22:	69 2d       	mov	r22, r9
     c24:	a8 01       	movw	r20, r16
     c26:	28 2d       	mov	r18, r8
     c28:	0e 2d       	mov	r16, r14
     c2a:	0e 94 9f 05 	call	0xb3e	; 0xb3e <putstr_ram>

}
     c2e:	29 96       	adiw	r28, 0x09	; 9
     c30:	0f b6       	in	r0, 0x3f	; 63
     c32:	f8 94       	cli
     c34:	de bf       	out	0x3e, r29	; 62
     c36:	0f be       	out	0x3f, r0	; 63
     c38:	cd bf       	out	0x3d, r28	; 61
     c3a:	cf 91       	pop	r28
     c3c:	df 91       	pop	r29
     c3e:	1f 91       	pop	r17
     c40:	0f 91       	pop	r16
     c42:	ff 90       	pop	r15
     c44:	ef 90       	pop	r14
     c46:	df 90       	pop	r13
     c48:	cf 90       	pop	r12
     c4a:	bf 90       	pop	r11
     c4c:	af 90       	pop	r10
     c4e:	9f 90       	pop	r9
     c50:	8f 90       	pop	r8
     c52:	08 95       	ret

00000c54 <setPixel>:
	send_data(2);   //вернуть режим 8-Bit per Pixel (default)

}

//converts a 3*8Bit-RGB-Pixel to the 2-Byte-RGBRGB Format of the Display
void setPixel(byte r,byte g,byte b) {
     c54:	ff 92       	push	r15
     c56:	0f 93       	push	r16
     c58:	1f 93       	push	r17
     c5a:	08 2f       	mov	r16, r24
     c5c:	16 2f       	mov	r17, r22
     c5e:	f4 2e       	mov	r15, r20
	
  if (n==0) {
     c60:	80 91 02 01 	lds	r24, 0x0102
     c64:	88 23       	and	r24, r24
     c66:	71 f4       	brne	.+28     	; 0xc84 <setPixel+0x30>
    s1=(r & 240) | (g>>4);
     c68:	12 95       	swap	r17
     c6a:	1f 70       	andi	r17, 0x0F	; 15
     c6c:	00 7f       	andi	r16, 0xF0	; 240
     c6e:	10 2b       	or	r17, r16
     c70:	10 93 18 01 	sts	0x0118, r17
    s2=(b & 240);
     c74:	80 ef       	ldi	r24, 0xF0	; 240
     c76:	f8 22       	and	r15, r24
     c78:	f0 92 1a 01 	sts	0x011A, r15
    n=1;
     c7c:	81 e0       	ldi	r24, 0x01	; 1
     c7e:	80 93 02 01 	sts	0x0102, r24
     c82:	15 c0       	rjmp	.+42     	; 0xcae <setPixel+0x5a>
  } else {
    n=0;
     c84:	10 92 02 01 	sts	0x0102, r1
    send_data(s1);//  sendData(s1);
     c88:	80 91 18 01 	lds	r24, 0x0118
     c8c:	0e 94 fd 03 	call	0x7fa	; 0x7fa <send_data>
    send_data(s2|(r>>4));//    sendData(s2|(r>>4));
     c90:	02 95       	swap	r16
     c92:	0f 70       	andi	r16, 0x0F	; 15
     c94:	80 91 1a 01 	lds	r24, 0x011A
     c98:	80 2b       	or	r24, r16
     c9a:	0e 94 fd 03 	call	0x7fa	; 0x7fa <send_data>
    send_data((g&240) | (b>>4));// sendData((g&240) | (b>>4));
     c9e:	f2 94       	swap	r15
     ca0:	4f e0       	ldi	r20, 0x0F	; 15
     ca2:	f4 22       	and	r15, r20
     ca4:	10 7f       	andi	r17, 0xF0	; 240
     ca6:	8f 2d       	mov	r24, r15
     ca8:	81 2b       	or	r24, r17
     caa:	0e 94 fd 03 	call	0x7fa	; 0x7fa <send_data>
  }
}
     cae:	1f 91       	pop	r17
     cb0:	0f 91       	pop	r16
     cb2:	ff 90       	pop	r15
     cb4:	08 95       	ret

00000cb6 <test_12bit_color>:
}


//////////////////////////////////////////////////////////
/////////////////////////////////////////////////////////
void test_12bit_color(void){
     cb6:	cf 93       	push	r28
     cb8:	df 93       	push	r29

	window(0,0,131,131);
     cba:	80 e0       	ldi	r24, 0x00	; 0
     cbc:	60 e0       	ldi	r22, 0x00	; 0
     cbe:	43 e8       	ldi	r20, 0x83	; 131
     cc0:	23 e8       	ldi	r18, 0x83	; 131
     cc2:	0e 94 91 04 	call	0x922	; 0x922 <window>
	send_cmd(0x3A); 
     cc6:	8a e3       	ldi	r24, 0x3A	; 58
     cc8:	0e 94 03 04 	call	0x806	; 0x806 <send_cmd>
	send_data(3);   //12-Bit per Pixel (default)
     ccc:	83 e0       	ldi	r24, 0x03	; 3
     cce:	0e 94 fd 03 	call	0x7fa	; 0x7fa <send_data>
     cd2:	c0 e0       	ldi	r28, 0x00	; 0
     cd4:	d0 e0       	ldi	r29, 0x00	; 0


	int i;
  for (i=0;i<132*33;i++) {
    setPixel(255,0,0);
     cd6:	8f ef       	ldi	r24, 0xFF	; 255
     cd8:	60 e0       	ldi	r22, 0x00	; 0
     cda:	40 e0       	ldi	r20, 0x00	; 0
     cdc:	0e 94 2a 06 	call	0xc54	; 0xc54 <setPixel>
	send_cmd(0x3A); 
	send_data(3);   //12-Bit per Pixel (default)


	int i;
  for (i=0;i<132*33;i++) {
     ce0:	21 96       	adiw	r28, 0x01	; 1
     ce2:	81 e1       	ldi	r24, 0x11	; 17
     ce4:	c4 30       	cpi	r28, 0x04	; 4
     ce6:	d8 07       	cpc	r29, r24
     ce8:	b1 f7       	brne	.-20     	; 0xcd6 <test_12bit_color+0x20>
     cea:	c0 e0       	ldi	r28, 0x00	; 0
     cec:	d0 e0       	ldi	r29, 0x00	; 0
    setPixel(255,0,0);
  }

  //green bar
  for (i=0;i<132*33;i++) {
    setPixel(0,255,0);
     cee:	80 e0       	ldi	r24, 0x00	; 0
     cf0:	6f ef       	ldi	r22, 0xFF	; 255
     cf2:	40 e0       	ldi	r20, 0x00	; 0
     cf4:	0e 94 2a 06 	call	0xc54	; 0xc54 <setPixel>
  for (i=0;i<132*33;i++) {
    setPixel(255,0,0);
  }

  //green bar
  for (i=0;i<132*33;i++) {
     cf8:	21 96       	adiw	r28, 0x01	; 1
     cfa:	81 e1       	ldi	r24, 0x11	; 17
     cfc:	c4 30       	cpi	r28, 0x04	; 4
     cfe:	d8 07       	cpc	r29, r24
     d00:	b1 f7       	brne	.-20     	; 0xcee <test_12bit_color+0x38>
     d02:	c0 e0       	ldi	r28, 0x00	; 0
     d04:	d0 e0       	ldi	r29, 0x00	; 0
    setPixel(0,255,0);
  }

  //blue bar
  for (i=0;i<132*33;i++) {
    setPixel(0,0,255);
     d06:	80 e0       	ldi	r24, 0x00	; 0
     d08:	60 e0       	ldi	r22, 0x00	; 0
     d0a:	4f ef       	ldi	r20, 0xFF	; 255
     d0c:	0e 94 2a 06 	call	0xc54	; 0xc54 <setPixel>
  for (i=0;i<132*33;i++) {
    setPixel(0,255,0);
  }

  //blue bar
  for (i=0;i<132*33;i++) {
     d10:	21 96       	adiw	r28, 0x01	; 1
     d12:	81 e1       	ldi	r24, 0x11	; 17
     d14:	c4 30       	cpi	r28, 0x04	; 4
     d16:	d8 07       	cpc	r29, r24
     d18:	b1 f7       	brne	.-20     	; 0xd06 <test_12bit_color+0x50>
     d1a:	c0 e0       	ldi	r28, 0x00	; 0
     d1c:	d0 e0       	ldi	r29, 0x00	; 0
    setPixel(0,0,255);
  }

  //white bar
  for (i=0;i<132*33;i++) {
    setPixel(255,255,255);
     d1e:	8f ef       	ldi	r24, 0xFF	; 255
     d20:	6f ef       	ldi	r22, 0xFF	; 255
     d22:	4f ef       	ldi	r20, 0xFF	; 255
     d24:	0e 94 2a 06 	call	0xc54	; 0xc54 <setPixel>
  for (i=0;i<132*33;i++) {
    setPixel(0,0,255);
  }

  //white bar
  for (i=0;i<132*33;i++) {
     d28:	21 96       	adiw	r28, 0x01	; 1
     d2a:	81 e1       	ldi	r24, 0x11	; 17
     d2c:	c4 30       	cpi	r28, 0x04	; 4
     d2e:	d8 07       	cpc	r29, r24
     d30:	b1 f7       	brne	.-20     	; 0xd1e <test_12bit_color+0x68>


char get_data(void) 
{ 
 
	while ( !(UCSR1A & (1<<RXC1)) ); 
     d32:	80 91 9b 00 	lds	r24, 0x009B
     d36:	87 ff       	sbrs	r24, 7
     d38:	fc cf       	rjmp	.-8      	; 0xd32 <test_12bit_color+0x7c>
         return UDR1; 
     d3a:	90 91 9c 00 	lds	r25, 0x009C
  //wait for RGB-Data on serial line and display on lcd

  while(1==1) {


    r = get_data();
     d3e:	90 93 19 01 	sts	0x0119, r25


char get_data(void) 
{ 
 
	while ( !(UCSR1A & (1<<RXC1)) ); 
     d42:	80 91 9b 00 	lds	r24, 0x009B
     d46:	87 ff       	sbrs	r24, 7
     d48:	fc cf       	rjmp	.-8      	; 0xd42 <test_12bit_color+0x8c>
         return UDR1; 
     d4a:	60 91 9c 00 	lds	r22, 0x009C
    g = get_data();
     d4e:	60 93 07 01 	sts	0x0107, r22


char get_data(void) 
{ 
 
	while ( !(UCSR1A & (1<<RXC1)) ); 
     d52:	80 91 9b 00 	lds	r24, 0x009B
     d56:	87 ff       	sbrs	r24, 7
     d58:	fc cf       	rjmp	.-8      	; 0xd52 <test_12bit_color+0x9c>
         return UDR1; 
     d5a:	40 91 9c 00 	lds	r20, 0x009C
    b = get_data();
     d5e:	40 93 06 01 	sts	0x0106, r20
    setPixel(r,g,b);
     d62:	89 2f       	mov	r24, r25
     d64:	0e 94 2a 06 	call	0xc54	; 0xc54 <setPixel>
     d68:	e4 cf       	rjmp	.-56     	; 0xd32 <test_12bit_color+0x7c>

00000d6a <bmp_rcv_uart>:
////////////////////////////////////////////////////////////////////
////////////////////////////////////////////////////////////////////
//////////////////  ѕ–»Ќя“№ по UART - BMP //////////////////////////
////////////////////////////////////////////////////////////////////

void bmp_rcv_uart(void){
     d6a:	ef 92       	push	r14
     d6c:	ff 92       	push	r15
     d6e:	0f 93       	push	r16
     d70:	1f 93       	push	r17
     d72:	90 e0       	ldi	r25, 0x00	; 0
     d74:	60 e0       	ldi	r22, 0x00	; 0
     d76:	ee 24       	eor	r14, r14
     d78:	ff 24       	eor	r15, r15
     d7a:	20 e0       	ldi	r18, 0x00	; 0
     d7c:	30 e0       	ldi	r19, 0x00	; 0


char get_data(void) 
{ 
 
	while ( !(UCSR1A & (1<<RXC1)) ); 
     d7e:	80 91 9b 00 	lds	r24, 0x009B
     d82:	87 ff       	sbrs	r24, 7
     d84:	fc cf       	rjmp	.-8      	; 0xd7e <bmp_rcv_uart+0x14>
         return UDR1; 
     d86:	80 91 9c 00 	lds	r24, 0x009C


  for(int i = 0; i<23; i++){ // 1078 // 0x436
	uint8_t	t = get_data();

  switch (i){ // получить данные из заголовка BMP
     d8a:	2b 30       	cpi	r18, 0x0B	; 11
     d8c:	31 05       	cpc	r19, r1
     d8e:	71 f0       	breq	.+28     	; 0xdac <bmp_rcv_uart+0x42>
     d90:	2c 30       	cpi	r18, 0x0C	; 12
     d92:	31 05       	cpc	r19, r1
     d94:	24 f4       	brge	.+8      	; 0xd9e <bmp_rcv_uart+0x34>
     d96:	2a 30       	cpi	r18, 0x0A	; 10
     d98:	31 05       	cpc	r19, r1
     d9a:	a9 f4       	brne	.+42     	; 0xdc6 <bmp_rcv_uart+0x5c>
     d9c:	10 c0       	rjmp	.+32     	; 0xdbe <bmp_rcv_uart+0x54>
     d9e:	22 31       	cpi	r18, 0x12	; 18
     da0:	31 05       	cpc	r19, r1
     da2:	41 f0       	breq	.+16     	; 0xdb4 <bmp_rcv_uart+0x4a>
     da4:	26 31       	cpi	r18, 0x16	; 22
     da6:	31 05       	cpc	r19, r1
     da8:	71 f4       	brne	.+28     	; 0xdc6 <bmp_rcv_uart+0x5c>
     daa:	07 c0       	rjmp	.+14     	; 0xdba <bmp_rcv_uart+0x50>
     dac:	68 2f       	mov	r22, r24
     dae:	e8 2e       	mov	r14, r24
     db0:	f8 2e       	mov	r15, r24
     db2:	09 c0       	rjmp	.+18     	; 0xdc6 <bmp_rcv_uart+0x5c>
     db4:	e8 2e       	mov	r14, r24
     db6:	f8 2e       	mov	r15, r24
     db8:	06 c0       	rjmp	.+12     	; 0xdc6 <bmp_rcv_uart+0x5c>
     dba:	f8 2e       	mov	r15, r24
     dbc:	04 c0       	rjmp	.+8      	; 0xdc6 <bmp_rcv_uart+0x5c>
     dbe:	98 2f       	mov	r25, r24
     dc0:	68 2f       	mov	r22, r24
     dc2:	e8 2e       	mov	r14, r24
     dc4:	f8 2e       	mov	r15, r24
	uint8_t h =0;
	uint8_t x =0;
 	uint8_t y =0;


  for(int i = 0; i<23; i++){ // 1078 // 0x436
     dc6:	2f 5f       	subi	r18, 0xFF	; 255
     dc8:	3f 4f       	sbci	r19, 0xFF	; 255
     dca:	27 31       	cpi	r18, 0x17	; 23
     dcc:	31 05       	cpc	r19, r1
     dce:	b9 f6       	brne	.-82     	; 0xd7e <bmp_rcv_uart+0x14>
  case 22: { y = t; }
			}

	}

	uint16_t b = l + ((unsigned int)h << 8); //адрес  начала BMP
     dd0:	49 2f       	mov	r20, r25
     dd2:	50 e0       	ldi	r21, 0x00	; 0
     dd4:	47 51       	subi	r20, 0x17	; 23
     dd6:	50 40       	sbci	r21, 0x00	; 0
	b = b - 23; // начало BMP - данные которые уже получили 
     dd8:	96 2f       	mov	r25, r22
     dda:	80 e0       	ldi	r24, 0x00	; 0
     ddc:	48 0f       	add	r20, r24
     dde:	59 1f       	adc	r21, r25
     de0:	20 e0       	ldi	r18, 0x00	; 0
     de2:	30 e0       	ldi	r19, 0x00	; 0
     de4:	08 c0       	rjmp	.+16     	; 0xdf6 <bmp_rcv_uart+0x8c>


char get_data(void) 
{ 
 
	while ( !(UCSR1A & (1<<RXC1)) ); 
     de6:	80 91 9b 00 	lds	r24, 0x009B
     dea:	87 ff       	sbrs	r24, 7
     dec:	fc cf       	rjmp	.-8      	; 0xde6 <bmp_rcv_uart+0x7c>
         return UDR1; 
     dee:	80 91 9c 00 	lds	r24, 0x009C
//	printDecimal(40,60,y, 0, 255);




	for(uint16_t i = 0; i<b; i++){get_data();}
     df2:	2f 5f       	subi	r18, 0xFF	; 255
     df4:	3f 4f       	sbci	r19, 0xFF	; 255
     df6:	24 17       	cp	r18, r20
     df8:	35 07       	cpc	r19, r21
     dfa:	a8 f3       	brcs	.-22     	; 0xde6 <bmp_rcv_uart+0x7c>



	send_cmd (0x36);//  0x36  //;Memory data acces control
     dfc:	86 e3       	ldi	r24, 0x36	; 54
     dfe:	0e 94 03 04 	call	0x806	; 0x806 <send_cmd>
	send_data(0x08);// 0x20-MADCTL_VERT
     e02:	88 e0       	ldi	r24, 0x08	; 8
     e04:	0e 94 fd 03 	call	0x7fa	; 0x7fa <send_data>
	send_cmd (0x2c);
     e08:	8c e2       	ldi	r24, 0x2C	; 44
     e0a:	0e 94 03 04 	call	0x806	; 0x806 <send_cmd>


	 window(2,2,x+1,y+1);
     e0e:	4e 2d       	mov	r20, r14
     e10:	4f 5f       	subi	r20, 0xFF	; 255
     e12:	2f 2d       	mov	r18, r15
     e14:	2f 5f       	subi	r18, 0xFF	; 255
     e16:	82 e0       	ldi	r24, 0x02	; 2
     e18:	62 e0       	ldi	r22, 0x02	; 2
     e1a:	0e 94 91 04 	call	0x922	; 0x922 <window>
     e1e:	00 e0       	ldi	r16, 0x00	; 0
     e20:	11 c0       	rjmp	.+34     	; 0xe44 <bmp_rcv_uart+0xda>


char get_data(void) 
{ 
 
	while ( !(UCSR1A & (1<<RXC1)) ); 
     e22:	80 91 9b 00 	lds	r24, 0x009B
     e26:	87 ff       	sbrs	r24, 7
     e28:	fc cf       	rjmp	.-8      	; 0xe22 <bmp_rcv_uart+0xb8>
         return UDR1; 
     e2a:	e0 91 9c 00 	lds	r30, 0x009C
	
	for(uint8_t i = 0; i<y; i++){
	for(uint8_t h = 0; h<x; h++){
	uint8_t k=get_data();
	unsigned char *p = s_palitra8bit+k;
	int a = pgm_read_byte(p);
     e2e:	f0 e0       	ldi	r31, 0x00	; 0
     e30:	e0 56       	subi	r30, 0x60	; 96
     e32:	ff 4f       	sbci	r31, 0xFF	; 255
     e34:	e4 91       	lpm	r30, Z+
	send_data(a);
     e36:	8e 2f       	mov	r24, r30
     e38:	0e 94 fd 03 	call	0x7fa	; 0x7fa <send_data>
	 window(2,2,x+1,y+1);

//	uint8_t dy = 1;
	
	for(uint8_t i = 0; i<y; i++){
	for(uint8_t h = 0; h<x; h++){
     e3c:	1f 5f       	subi	r17, 0xFF	; 255
     e3e:	1e 15       	cp	r17, r14
     e40:	80 f3       	brcs	.-32     	; 0xe22 <bmp_rcv_uart+0xb8>

	 window(2,2,x+1,y+1);

//	uint8_t dy = 1;
	
	for(uint8_t i = 0; i<y; i++){
     e42:	0f 5f       	subi	r16, 0xFF	; 255
     e44:	0f 15       	cp	r16, r15
     e46:	10 f4       	brcc	.+4      	; 0xe4c <bmp_rcv_uart+0xe2>
     e48:	10 e0       	ldi	r17, 0x00	; 0
     e4a:	f9 cf       	rjmp	.-14     	; 0xe3e <bmp_rcv_uart+0xd4>
	int a = pgm_read_byte(p);
	send_data(a);
	}
*/

}
     e4c:	1f 91       	pop	r17
     e4e:	0f 91       	pop	r16
     e50:	ff 90       	pop	r15
     e52:	ef 90       	pop	r14
     e54:	08 95       	ret

00000e56 <test_all_char>:

////////////////////////////////////////////////////
//////////  ѕќ ј«ј“ь ¬≈—№ «Ќј ќ√≈Ќ≈–ј“ќ–   /////////
////////////////////////////////////////////////////
void test_all_char(void){
     e56:	8f 92       	push	r8
     e58:	9f 92       	push	r9
     e5a:	af 92       	push	r10
     e5c:	bf 92       	push	r11
     e5e:	cf 92       	push	r12
     e60:	df 92       	push	r13
     e62:	ef 92       	push	r14
     e64:	ff 92       	push	r15
     e66:	0f 93       	push	r16
     e68:	1f 93       	push	r17
     e6a:	99 24       	eor	r9, r9
     e6c:	ff 24       	eor	r15, r15
     e6e:	51 e0       	ldi	r21, 0x01	; 1
     e70:	a5 2e       	mov	r10, r21
     e72:	b1 2c       	mov	r11, r1
     e74:	c1 2c       	mov	r12, r1
     e76:	d1 2c       	mov	r13, r1
     e78:	22 c0       	rjmp	.+68     	; 0xebe <test_all_char+0x68>
     e7a:	48 2d       	mov	r20, r8
     e7c:	0e 2d       	mov	r16, r14
	char j = 1;
	char k =0;
	char l=0;
	for(int i=0; i<128; i+=8){
	for(int h=2; h<114; h+=7){
	putch(h, i, k++, 255, l++);// l++);
     e7e:	84 2e       	mov	r8, r20
     e80:	83 94       	inc	r8
     e82:	e0 2e       	mov	r14, r16
     e84:	e3 94       	inc	r14
     e86:	81 2f       	mov	r24, r17
     e88:	6f 2d       	mov	r22, r15
     e8a:	2f ef       	ldi	r18, 0xFF	; 255
     e8c:	0e 94 b3 04 	call	0x966	; 0x966 <putch>
     e90:	19 5f       	subi	r17, 0xF9	; 249
void test_all_char(void){
	char j = 1;
	char k =0;
	char l=0;
	for(int i=0; i<128; i+=8){
	for(int h=2; h<114; h+=7){
     e92:	12 37       	cpi	r17, 0x72	; 114
     e94:	91 f7       	brne	.-28     	; 0xe7a <test_all_char+0x24>
     e96:	80 e1       	ldi	r24, 0x10	; 16
     e98:	98 0e       	add	r9, r24
	putch(h, i, k++, 255, l++);// l++);
	}
	printDecimal(118,i,j++, 0xFE, 0x00);
     e9a:	86 e7       	ldi	r24, 0x76	; 118
     e9c:	6f 2d       	mov	r22, r15
     e9e:	a6 01       	movw	r20, r12
     ea0:	95 01       	movw	r18, r10
     ea2:	0e ef       	ldi	r16, 0xFE	; 254
     ea4:	ee 24       	eor	r14, r14
     ea6:	0e 94 d5 05 	call	0xbaa	; 0xbaa <printDecimal>
     eaa:	88 e0       	ldi	r24, 0x08	; 8
     eac:	f8 0e       	add	r15, r24
     eae:	08 94       	sec
     eb0:	a1 1c       	adc	r10, r1
     eb2:	b1 1c       	adc	r11, r1
     eb4:	c1 1c       	adc	r12, r1
     eb6:	d1 1c       	adc	r13, r1
////////////////////////////////////////////////////
void test_all_char(void){
	char j = 1;
	char k =0;
	char l=0;
	for(int i=0; i<128; i+=8){
     eb8:	80 e8       	ldi	r24, 0x80	; 128
     eba:	f8 16       	cp	r15, r24
     ebc:	21 f0       	breq	.+8      	; 0xec6 <test_all_char+0x70>
     ebe:	49 2d       	mov	r20, r9
     ec0:	09 2d       	mov	r16, r9
     ec2:	12 e0       	ldi	r17, 0x02	; 2
     ec4:	dc cf       	rjmp	.-72     	; 0xe7e <test_all_char+0x28>
	putch(h, i, k++, 255, l++);// l++);
	}
	printDecimal(118,i,j++, 0xFE, 0x00);

	}
}
     ec6:	1f 91       	pop	r17
     ec8:	0f 91       	pop	r16
     eca:	ff 90       	pop	r15
     ecc:	ef 90       	pop	r14
     ece:	df 90       	pop	r13
     ed0:	cf 90       	pop	r12
     ed2:	bf 90       	pop	r11
     ed4:	af 90       	pop	r10
     ed6:	9f 90       	pop	r9
     ed8:	8f 90       	pop	r8
     eda:	08 95       	ret

00000edc <set_Pixel>:
}



void set_Pixel(int x1,int y1,uint8_t fg, uint8_t l)
{
     edc:	ef 92       	push	r14
     ede:	ff 92       	push	r15
     ee0:	0f 93       	push	r16
     ee2:	1f 93       	push	r17
     ee4:	18 2f       	mov	r17, r24
     ee6:	f6 2e       	mov	r15, r22
     ee8:	e4 2e       	mov	r14, r20
     eea:	02 2f       	mov	r16, r18

	send_cmd (CASET);
     eec:	8a e2       	ldi	r24, 0x2A	; 42
     eee:	0e 94 03 04 	call	0x806	; 0x806 <send_cmd>
	send_data(x1);	
     ef2:	81 2f       	mov	r24, r17
     ef4:	0e 94 fd 03 	call	0x7fa	; 0x7fa <send_data>
	send_data(x1+l);
     ef8:	80 2f       	mov	r24, r16
     efa:	81 0f       	add	r24, r17
     efc:	0e 94 fd 03 	call	0x7fa	; 0x7fa <send_data>
		
	send_cmd (PASET);	
     f00:	8b e2       	ldi	r24, 0x2B	; 43
     f02:	0e 94 03 04 	call	0x806	; 0x806 <send_cmd>
	send_data(y1);
     f06:	8f 2d       	mov	r24, r15
     f08:	0e 94 fd 03 	call	0x7fa	; 0x7fa <send_data>
	send_data(y1+l);
     f0c:	80 2f       	mov	r24, r16
     f0e:	8f 0d       	add	r24, r15
     f10:	0e 94 fd 03 	call	0x7fa	; 0x7fa <send_data>
	send_cmd (RAMWR);
     f14:	8c e2       	ldi	r24, 0x2C	; 44
     f16:	0e 94 03 04 	call	0x806	; 0x806 <send_cmd>

	l *=l;
     f1a:	00 9f       	mul	r16, r16
     f1c:	00 2d       	mov	r16, r0
     f1e:	11 24       	eor	r1, r1
     f20:	10 e0       	ldi	r17, 0x00	; 0
     f22:	04 c0       	rjmp	.+8      	; 0xf2c <set_Pixel+0x50>
	for(uint8_t i=0; i<l; i++){
	send_data(fg);
     f24:	8e 2d       	mov	r24, r14
     f26:	0e 94 fd 03 	call	0x7fa	; 0x7fa <send_data>
	send_data(y1);
	send_data(y1+l);
	send_cmd (RAMWR);

	l *=l;
	for(uint8_t i=0; i<l; i++){
     f2a:	1f 5f       	subi	r17, 0xFF	; 255
     f2c:	10 17       	cp	r17, r16
     f2e:	d0 f3       	brcs	.-12     	; 0xf24 <set_Pixel+0x48>
	send_data(fg);
	}
  send_cmd(0x2C);  //Memory Write
     f30:	8c e2       	ldi	r24, 0x2C	; 44
     f32:	0e 94 03 04 	call	0x806	; 0x806 <send_cmd>

}
     f36:	1f 91       	pop	r17
     f38:	0f 91       	pop	r16
     f3a:	ff 90       	pop	r15
     f3c:	ef 90       	pop	r14
     f3e:	08 95       	ret

00000f40 <drawLine>:
}
///////////////////////////////
///////////////////////////////

void drawLine(int x1, int y1, int x2, int y2, uint8_t fg, uint8_t l)
{
     f40:	2f 92       	push	r2
     f42:	3f 92       	push	r3
     f44:	4f 92       	push	r4
     f46:	5f 92       	push	r5
     f48:	6f 92       	push	r6
     f4a:	7f 92       	push	r7
     f4c:	8f 92       	push	r8
     f4e:	9f 92       	push	r9
     f50:	af 92       	push	r10
     f52:	bf 92       	push	r11
     f54:	cf 92       	push	r12
     f56:	df 92       	push	r13
     f58:	ef 92       	push	r14
     f5a:	ff 92       	push	r15
     f5c:	0f 93       	push	r16
     f5e:	1f 93       	push	r17
     f60:	df 93       	push	r29
     f62:	cf 93       	push	r28
     f64:	00 d0       	rcall	.+0      	; 0xf66 <drawLine+0x26>
     f66:	00 d0       	rcall	.+0      	; 0xf68 <drawLine+0x28>
     f68:	00 d0       	rcall	.+0      	; 0xf6a <drawLine+0x2a>
     f6a:	cd b7       	in	r28, 0x3d	; 61
     f6c:	de b7       	in	r29, 0x3e	; 62
     f6e:	5c 01       	movw	r10, r24
     f70:	6b 01       	movw	r12, r22
     f72:	3a 01       	movw	r6, r20
     f74:	49 01       	movw	r8, r18
     f76:	09 83       	std	Y+1, r16	; 0x01
     f78:	ea 82       	std	Y+2, r14	; 0x02
    int deltaX =(x2 - x1);
     f7a:	7a 01       	movw	r14, r20
     f7c:	e8 1a       	sub	r14, r24
     f7e:	f9 0a       	sbc	r15, r25
    int deltaY =(y2 - y1);
     f80:	89 01       	movw	r16, r18
     f82:	06 1b       	sub	r16, r22
     f84:	17 0b       	sbc	r17, r23
    int signX = x1 < x2 ? 1 : -1;
     f86:	84 17       	cp	r24, r20
     f88:	95 07       	cpc	r25, r21
     f8a:	24 f0       	brlt	.+8      	; 0xf94 <drawLine+0x54>
     f8c:	22 24       	eor	r2, r2
     f8e:	2a 94       	dec	r2
     f90:	32 2c       	mov	r3, r2
     f92:	03 c0       	rjmp	.+6      	; 0xf9a <drawLine+0x5a>
     f94:	e1 e0       	ldi	r30, 0x01	; 1
     f96:	2e 2e       	mov	r2, r30
     f98:	31 2c       	mov	r3, r1
    int signY = y1 < y2 ? 1 : -1;
     f9a:	c8 14       	cp	r12, r8
     f9c:	d9 04       	cpc	r13, r9
     f9e:	24 f0       	brlt	.+8      	; 0xfa8 <drawLine+0x68>
     fa0:	44 24       	eor	r4, r4
     fa2:	4a 94       	dec	r4
     fa4:	54 2c       	mov	r5, r4
     fa6:	03 c0       	rjmp	.+6      	; 0xfae <drawLine+0x6e>
     fa8:	71 e0       	ldi	r23, 0x01	; 1
     faa:	47 2e       	mov	r4, r23
     fac:	51 2c       	mov	r5, r1
    int error = deltaX - deltaY;
     fae:	97 01       	movw	r18, r14
     fb0:	20 1b       	sub	r18, r16
     fb2:	31 0b       	sbc	r19, r17
     fb4:	3e 83       	std	Y+6, r19	; 0x06
     fb6:	2d 83       	std	Y+5, r18	; 0x05
        if(x1 == x2 && y1 == y2)
            break;
 
        int error2 = error * 2;
 
        if(error2 > -deltaY)
     fb8:	88 27       	eor	r24, r24
     fba:	99 27       	eor	r25, r25
     fbc:	80 1b       	sub	r24, r16
     fbe:	91 0b       	sbc	r25, r17
     fc0:	9c 83       	std	Y+4, r25	; 0x04
     fc2:	8b 83       	std	Y+3, r24	; 0x03
    int signY = y1 < y2 ? 1 : -1;
    int error = deltaX - deltaY;
 
    for (;;)
    {
        set_Pixel(x1, y1, fg, l);//uint8_t fg, uint8_t bg
     fc4:	c5 01       	movw	r24, r10
     fc6:	b6 01       	movw	r22, r12
     fc8:	49 81       	ldd	r20, Y+1	; 0x01
     fca:	2a 81       	ldd	r18, Y+2	; 0x02
     fcc:	0e 94 6e 07 	call	0xedc	; 0xedc <set_Pixel>
 
        if(x1 == x2 && y1 == y2)
     fd0:	a6 14       	cp	r10, r6
     fd2:	b7 04       	cpc	r11, r7
     fd4:	19 f4       	brne	.+6      	; 0xfdc <drawLine+0x9c>
     fd6:	c8 14       	cp	r12, r8
     fd8:	d9 04       	cpc	r13, r9
     fda:	e9 f0       	breq	.+58     	; 0x1016 <drawLine+0xd6>
            break;
 
        int error2 = error * 2;
     fdc:	8d 81       	ldd	r24, Y+5	; 0x05
     fde:	9e 81       	ldd	r25, Y+6	; 0x06
     fe0:	88 0f       	add	r24, r24
     fe2:	99 1f       	adc	r25, r25
 
        if(error2 > -deltaY)
     fe4:	eb 81       	ldd	r30, Y+3	; 0x03
     fe6:	fc 81       	ldd	r31, Y+4	; 0x04
     fe8:	e8 17       	cp	r30, r24
     fea:	f9 07       	cpc	r31, r25
     fec:	44 f4       	brge	.+16     	; 0xffe <drawLine+0xbe>
        {
            error -= deltaY;
     fee:	2d 81       	ldd	r18, Y+5	; 0x05
     ff0:	3e 81       	ldd	r19, Y+6	; 0x06
     ff2:	20 1b       	sub	r18, r16
     ff4:	31 0b       	sbc	r19, r17
     ff6:	3e 83       	std	Y+6, r19	; 0x06
     ff8:	2d 83       	std	Y+5, r18	; 0x05
            x1 += signX;
     ffa:	a2 0c       	add	r10, r2
     ffc:	b3 1c       	adc	r11, r3
        }
 
        if(error2 < deltaX)
     ffe:	8e 15       	cp	r24, r14
    1000:	9f 05       	cpc	r25, r15
    1002:	04 f7       	brge	.-64     	; 0xfc4 <drawLine+0x84>
        {
            error += deltaX;
    1004:	8d 81       	ldd	r24, Y+5	; 0x05
    1006:	9e 81       	ldd	r25, Y+6	; 0x06
    1008:	8e 0d       	add	r24, r14
    100a:	9f 1d       	adc	r25, r15
    100c:	9e 83       	std	Y+6, r25	; 0x06
    100e:	8d 83       	std	Y+5, r24	; 0x05
            y1 += signY;
    1010:	c4 0c       	add	r12, r4
    1012:	d5 1c       	adc	r13, r5
    1014:	d7 cf       	rjmp	.-82     	; 0xfc4 <drawLine+0x84>
        }
    }
}
    1016:	26 96       	adiw	r28, 0x06	; 6
    1018:	0f b6       	in	r0, 0x3f	; 63
    101a:	f8 94       	cli
    101c:	de bf       	out	0x3e, r29	; 62
    101e:	0f be       	out	0x3f, r0	; 63
    1020:	cd bf       	out	0x3d, r28	; 61
    1022:	cf 91       	pop	r28
    1024:	df 91       	pop	r29
    1026:	1f 91       	pop	r17
    1028:	0f 91       	pop	r16
    102a:	ff 90       	pop	r15
    102c:	ef 90       	pop	r14
    102e:	df 90       	pop	r13
    1030:	cf 90       	pop	r12
    1032:	bf 90       	pop	r11
    1034:	af 90       	pop	r10
    1036:	9f 90       	pop	r9
    1038:	8f 90       	pop	r8
    103a:	7f 90       	pop	r7
    103c:	6f 90       	pop	r6
    103e:	5f 90       	pop	r5
    1040:	4f 90       	pop	r4
    1042:	3f 90       	pop	r3
    1044:	2f 90       	pop	r2
    1046:	08 95       	ret

00001048 <get_data>:


char get_data(void) 
{ 
 
	while ( !(UCSR1A & (1<<RXC1)) ); 
    1048:	80 91 9b 00 	lds	r24, 0x009B
    104c:	87 ff       	sbrs	r24, 7
    104e:	fc cf       	rjmp	.-8      	; 0x1048 <get_data>
         return UDR1; 
    1050:	80 91 9c 00 	lds	r24, 0x009C
} 
    1054:	08 95       	ret

00001056 <put_data>:
//////////////////////////////

void put_data(char c) 
{ 
    1056:	98 2f       	mov	r25, r24

 while ( !( UCSR1A & (1<<UDRE1)) ); 
    1058:	80 91 9b 00 	lds	r24, 0x009B
    105c:	85 ff       	sbrs	r24, 5
    105e:	fc cf       	rjmp	.-8      	; 0x1058 <put_data+0x2>
    UDR1 =c; 
    1060:	90 93 9c 00 	sts	0x009C, r25

 //		UDR1 = 'O';


} 
    1064:	08 95       	ret

00001066 <waitms>:

/////////////////////////////////////////////
void waitms(int ms) {
    1066:	20 e0       	ldi	r18, 0x00	; 0
    1068:	30 e0       	ldi	r19, 0x00	; 0
    106a:	46 e6       	ldi	r20, 0x66	; 102
    106c:	5e e0       	ldi	r21, 0x0E	; 14
    106e:	05 c0       	rjmp	.+10     	; 0x107a <waitms+0x14>
    1070:	fa 01       	movw	r30, r20
    1072:	31 97       	sbiw	r30, 0x01	; 1
    1074:	f1 f7       	brne	.-4      	; 0x1072 <waitms+0xc>
  int i;
  for (i=0;i<ms;i++) _delay_ms(1);
    1076:	2f 5f       	subi	r18, 0xFF	; 255
    1078:	3f 4f       	sbci	r19, 0xFF	; 255
    107a:	28 17       	cp	r18, r24
    107c:	39 07       	cpc	r19, r25
    107e:	c4 f3       	brlt	.-16     	; 0x1070 <waitms+0xa>
}
    1080:	08 95       	ret

00001082 <test_palitra>:

/////////////////////////////////////////////////////////////
////////////////////// palitra //////////////////////////////
/////////////////////////////////////////////////////////////
void test_palitra(void){
    1082:	bf 92       	push	r11
    1084:	cf 92       	push	r12
    1086:	df 92       	push	r13
    1088:	ef 92       	push	r14
    108a:	ff 92       	push	r15
    108c:	0f 93       	push	r16
    108e:	1f 93       	push	r17
    1090:	cf 93       	push	r28
    1092:	df 93       	push	r29

	send_cmd (0x36);//  0x36  //;Memory data acces control
    1094:	86 e3       	ldi	r24, 0x36	; 54
    1096:	0e 94 03 04 	call	0x806	; 0x806 <send_cmd>
	send_data(0x28);//MADCTL_VERT);// 0x20-MADCTL_VERT
    109a:	88 e2       	ldi	r24, 0x28	; 40
    109c:	0e 94 fd 03 	call	0x7fa	; 0x7fa <send_data>
    10a0:	a0 ea       	ldi	r26, 0xA0	; 160
    10a2:	ea 2e       	mov	r14, r26
    10a4:	a0 e0       	ldi	r26, 0x00	; 0
    10a6:	fa 2e       	mov	r15, r26
    10a8:	cc 24       	eor	r12, r12
    10aa:	c3 94       	inc	r12
    10ac:	1c c0       	rjmp	.+56     	; 0x10e6 <test_palitra+0x64>
    10ae:	80 2f       	mov	r24, r16

	unsigned char *p = s_palitra8bit;
	for(uint8_t y=1; y<129; y+=8){
	for(uint8_t x=1; x<129; x+=8){

	uint8_t a = pgm_read_byte(p);
    10b0:	fe 01       	movw	r30, r28
    10b2:	b4 90       	lpm	r11, Z+

	window(x,y,x+8,y+8);
    10b4:	08 2f       	mov	r16, r24
    10b6:	08 5f       	subi	r16, 0xF8	; 248
    10b8:	6c 2d       	mov	r22, r12
    10ba:	40 2f       	mov	r20, r16
    10bc:	2d 2d       	mov	r18, r13
    10be:	0e 94 91 04 	call	0x922	; 0x922 <window>
    10c2:	10 e0       	ldi	r17, 0x00	; 0

	for(uint8_t i=0;i<128; i++)
	{send_data(a);}
    10c4:	8b 2d       	mov	r24, r11
    10c6:	0e 94 fd 03 	call	0x7fa	; 0x7fa <send_data>

	uint8_t a = pgm_read_byte(p);

	window(x,y,x+8,y+8);

	for(uint8_t i=0;i<128; i++)
    10ca:	1f 5f       	subi	r17, 0xFF	; 255
    10cc:	10 38       	cpi	r17, 0x80	; 128
    10ce:	d1 f7       	brne	.-12     	; 0x10c4 <test_palitra+0x42>
	{send_data(a);}


	p++;
    10d0:	21 96       	adiw	r28, 0x01	; 1
	send_cmd (0x36);//  0x36  //;Memory data acces control
	send_data(0x28);//MADCTL_VERT);// 0x20-MADCTL_VERT

	unsigned char *p = s_palitra8bit;
	for(uint8_t y=1; y<129; y+=8){
	for(uint8_t x=1; x<129; x+=8){
    10d2:	01 38       	cpi	r16, 0x81	; 129
    10d4:	61 f7       	brne	.-40     	; 0x10ae <test_palitra+0x2c>
    10d6:	80 e1       	ldi	r24, 0x10	; 16
    10d8:	90 e0       	ldi	r25, 0x00	; 0
    10da:	e8 0e       	add	r14, r24
    10dc:	f9 1e       	adc	r15, r25

	send_cmd (0x36);//  0x36  //;Memory data acces control
	send_data(0x28);//MADCTL_VERT);// 0x20-MADCTL_VERT

	unsigned char *p = s_palitra8bit;
	for(uint8_t y=1; y<129; y+=8){
    10de:	91 e8       	ldi	r25, 0x81	; 129
    10e0:	d9 16       	cp	r13, r25
    10e2:	39 f0       	breq	.+14     	; 0x10f2 <test_palitra+0x70>
    10e4:	cd 2c       	mov	r12, r13
    10e6:	e7 01       	movw	r28, r14
    10e8:	81 e0       	ldi	r24, 0x01	; 1
	for(uint8_t x=1; x<129; x+=8){

	uint8_t a = pgm_read_byte(p);

	window(x,y,x+8,y+8);
    10ea:	f8 e0       	ldi	r31, 0x08	; 8
    10ec:	df 2e       	mov	r13, r31
    10ee:	dc 0c       	add	r13, r12
    10f0:	df cf       	rjmp	.-66     	; 0x10b0 <test_palitra+0x2e>


	p++;
	}
	}
}
    10f2:	df 91       	pop	r29
    10f4:	cf 91       	pop	r28
    10f6:	1f 91       	pop	r17
    10f8:	0f 91       	pop	r16
    10fa:	ff 90       	pop	r15
    10fc:	ef 90       	pop	r14
    10fe:	df 90       	pop	r13
    1100:	cf 90       	pop	r12
    1102:	bf 90       	pop	r11
    1104:	08 95       	ret

00001106 <main>:

void test_palitra(void);
void ascii_test(void);

///////////////////////////////////////////////////////////
int main (void) {
    1106:	0f 93       	push	r16



	SPIDDR=(1<<SDA)|(1<<CLK)|(1<<CS)|(1<<RESET); //Port-Direction Setup
    1108:	8f e0       	ldi	r24, 0x0F	; 15
    110a:	8a bb       	out	0x1a, r24	; 26


	UCSR1B= ((1<<RXEN1)|(1<<TXEN1));
    110c:	88 e1       	ldi	r24, 0x18	; 24
    110e:	80 93 9a 00 	sts	0x009A, r24
    UBRR1L=(F_CPU/(16*baud)-1);
    1112:	86 e0       	ldi	r24, 0x06	; 6
    1114:	80 93 99 00 	sts	0x0099, r24



	init_lcd();
    1118:	0e 94 09 04 	call	0x812	; 0x812 <init_lcd>
	clrscr(0,0,132,132,0);
    111c:	80 e0       	ldi	r24, 0x00	; 0
    111e:	60 e0       	ldi	r22, 0x00	; 0
    1120:	44 e8       	ldi	r20, 0x84	; 132
    1122:	24 e8       	ldi	r18, 0x84	; 132
    1124:	00 e0       	ldi	r16, 0x00	; 0
    1126:	0e 94 0b 05 	call	0xa16	; 0xa16 <clrscr>

	test_palitra();
    112a:	0e 94 41 08 	call	0x1082	; 0x1082 <test_palitra>

//	printDecimal(40,40,0xFFFFFF, 0xFF, 0x00);


*/
} // MAIN!!!!!
    112e:	80 e0       	ldi	r24, 0x00	; 0
    1130:	90 e0       	ldi	r25, 0x00	; 0
    1132:	0f 91       	pop	r16
    1134:	08 95       	ret

00001136 <ascii_test>:
	}
}
//////////////////////////////////////////////////////
//////////////////// ASCII-TAB ///////////////////////
//////////////////////////////////////////////////////
void ascii_test(void){
    1136:	9f 92       	push	r9
    1138:	af 92       	push	r10
    113a:	bf 92       	push	r11
    113c:	cf 92       	push	r12
    113e:	df 92       	push	r13
    1140:	ef 92       	push	r14
    1142:	ff 92       	push	r15
    1144:	0f 93       	push	r16
    1146:	1f 93       	push	r17
    1148:	99 24       	eor	r9, r9
    114a:	12 e0       	ldi	r17, 0x02	; 2
    114c:	f1 2e       	mov	r15, r17
    114e:	b1 e0       	ldi	r27, 0x01	; 1
    1150:	ab 2e       	mov	r10, r27
    1152:	b1 2c       	mov	r11, r1
    1154:	c1 2c       	mov	r12, r1
    1156:	d1 2c       	mov	r13, r1
    1158:	23 c0       	rjmp	.+70     	; 0x11a0 <ascii_test+0x6a>

	uint8_t c=0,d=1;
	for(uint8_t y=2; y<130; y+=8){
	for(uint8_t x=2; x<98; x+=6){
	putch(x, y, c, fg, bg);
    115a:	81 2f       	mov	r24, r17
    115c:	6f 2d       	mov	r22, r15
    115e:	4e 2d       	mov	r20, r14
    1160:	20 91 03 01 	lds	r18, 0x0103
    1164:	00 91 00 01 	lds	r16, 0x0100
    1168:	0e 94 b3 04 	call	0x966	; 0x966 <putch>
	c++;
    116c:	e3 94       	inc	r14
//////////////////////////////////////////////////////
void ascii_test(void){

	uint8_t c=0,d=1;
	for(uint8_t y=2; y<130; y+=8){
	for(uint8_t x=2; x<98; x+=6){
    116e:	1a 5f       	subi	r17, 0xFA	; 250
    1170:	12 36       	cpi	r17, 0x62	; 98
    1172:	99 f7       	brne	.-26     	; 0x115a <ascii_test+0x24>
    1174:	80 e1       	ldi	r24, 0x10	; 16
    1176:	98 0e       	add	r9, r24
	putch(x, y, c, fg, bg);
	c++;
	}
	printDecimal(110,y, d, fg, bg);
    1178:	8e e6       	ldi	r24, 0x6E	; 110
    117a:	6f 2d       	mov	r22, r15
    117c:	a6 01       	movw	r20, r12
    117e:	95 01       	movw	r18, r10
    1180:	00 91 03 01 	lds	r16, 0x0103
    1184:	e0 90 00 01 	lds	r14, 0x0100
    1188:	0e 94 d5 05 	call	0xbaa	; 0xbaa <printDecimal>
//////////////////// ASCII-TAB ///////////////////////
//////////////////////////////////////////////////////
void ascii_test(void){

	uint8_t c=0,d=1;
	for(uint8_t y=2; y<130; y+=8){
    118c:	88 e0       	ldi	r24, 0x08	; 8
    118e:	f8 0e       	add	r15, r24
    1190:	08 94       	sec
    1192:	a1 1c       	adc	r10, r1
    1194:	b1 1c       	adc	r11, r1
    1196:	c1 1c       	adc	r12, r1
    1198:	d1 1c       	adc	r13, r1
    119a:	82 e8       	ldi	r24, 0x82	; 130
    119c:	f8 16       	cp	r15, r24
    119e:	19 f0       	breq	.+6      	; 0x11a6 <ascii_test+0x70>
    11a0:	e9 2c       	mov	r14, r9
    11a2:	12 e0       	ldi	r17, 0x02	; 2
    11a4:	da cf       	rjmp	.-76     	; 0x115a <ascii_test+0x24>
	c++;
	}
	printDecimal(110,y, d, fg, bg);
	d++;
	}
}
    11a6:	1f 91       	pop	r17
    11a8:	0f 91       	pop	r16
    11aa:	ff 90       	pop	r15
    11ac:	ef 90       	pop	r14
    11ae:	df 90       	pop	r13
    11b0:	cf 90       	pop	r12
    11b2:	bf 90       	pop	r11
    11b4:	af 90       	pop	r10
    11b6:	9f 90       	pop	r9
    11b8:	08 95       	ret

000011ba <__udivmodsi4>:
    11ba:	a1 e2       	ldi	r26, 0x21	; 33
    11bc:	1a 2e       	mov	r1, r26
    11be:	aa 1b       	sub	r26, r26
    11c0:	bb 1b       	sub	r27, r27
    11c2:	fd 01       	movw	r30, r26
    11c4:	0d c0       	rjmp	.+26     	; 0x11e0 <__udivmodsi4_ep>

000011c6 <__udivmodsi4_loop>:
    11c6:	aa 1f       	adc	r26, r26
    11c8:	bb 1f       	adc	r27, r27
    11ca:	ee 1f       	adc	r30, r30
    11cc:	ff 1f       	adc	r31, r31
    11ce:	a2 17       	cp	r26, r18
    11d0:	b3 07       	cpc	r27, r19
    11d2:	e4 07       	cpc	r30, r20
    11d4:	f5 07       	cpc	r31, r21
    11d6:	20 f0       	brcs	.+8      	; 0x11e0 <__udivmodsi4_ep>
    11d8:	a2 1b       	sub	r26, r18
    11da:	b3 0b       	sbc	r27, r19
    11dc:	e4 0b       	sbc	r30, r20
    11de:	f5 0b       	sbc	r31, r21

000011e0 <__udivmodsi4_ep>:
    11e0:	66 1f       	adc	r22, r22
    11e2:	77 1f       	adc	r23, r23
    11e4:	88 1f       	adc	r24, r24
    11e6:	99 1f       	adc	r25, r25
    11e8:	1a 94       	dec	r1
    11ea:	69 f7       	brne	.-38     	; 0x11c6 <__udivmodsi4_loop>
    11ec:	60 95       	com	r22
    11ee:	70 95       	com	r23
    11f0:	80 95       	com	r24
    11f2:	90 95       	com	r25
    11f4:	9b 01       	movw	r18, r22
    11f6:	ac 01       	movw	r20, r24
    11f8:	bd 01       	movw	r22, r26
    11fa:	cf 01       	movw	r24, r30
    11fc:	08 95       	ret

000011fe <_exit>:
    11fe:	f8 94       	cli

00001200 <__stop_program>:
    1200:	ff cf       	rjmp	.-2      	; 0x1200 <__stop_program>
