
Manipulator.elf:     file format elf32-avr

Sections:
Idx Name          Size      VMA       LMA       File off  Algn
  0 .text         00005ee2  00000000  00000000  00000094  2**1
                  CONTENTS, ALLOC, LOAD, READONLY, CODE
  1 .data         000000ec  00802000  00005ee2  00005f76  2**0
                  CONTENTS, ALLOC, LOAD, DATA
  2 .bss          00000548  008020ec  008020ec  00006062  2**0
                  ALLOC

Disassembly of section .text:

00000000 <__vectors>:
       0:	0c 94 fa 00 	jmp	0x1f4	; 0x1f4 <__ctors_end>
       4:	0c 94 20 01 	jmp	0x240	; 0x240 <__bad_interrupt>
       8:	0c 94 20 01 	jmp	0x240	; 0x240 <__bad_interrupt>
       c:	0c 94 20 01 	jmp	0x240	; 0x240 <__bad_interrupt>
      10:	0c 94 28 2b 	jmp	0x5650	; 0x5650 <__vector_4>
      14:	0c 94 20 01 	jmp	0x240	; 0x240 <__bad_interrupt>
      18:	0c 94 20 01 	jmp	0x240	; 0x240 <__bad_interrupt>
      1c:	0c 94 20 01 	jmp	0x240	; 0x240 <__bad_interrupt>
      20:	0c 94 20 01 	jmp	0x240	; 0x240 <__bad_interrupt>
      24:	0c 94 20 01 	jmp	0x240	; 0x240 <__bad_interrupt>
      28:	0c 94 20 01 	jmp	0x240	; 0x240 <__bad_interrupt>
      2c:	0c 94 20 01 	jmp	0x240	; 0x240 <__bad_interrupt>
      30:	0c 94 20 01 	jmp	0x240	; 0x240 <__bad_interrupt>
      34:	0c 94 20 01 	jmp	0x240	; 0x240 <__bad_interrupt>
      38:	0c 94 a5 2c 	jmp	0x594a	; 0x594a <__vector_14>
      3c:	0c 94 20 01 	jmp	0x240	; 0x240 <__bad_interrupt>
      40:	0c 94 20 01 	jmp	0x240	; 0x240 <__bad_interrupt>
      44:	0c 94 20 01 	jmp	0x240	; 0x240 <__bad_interrupt>
      48:	0c 94 20 01 	jmp	0x240	; 0x240 <__bad_interrupt>
      4c:	0c 94 20 01 	jmp	0x240	; 0x240 <__bad_interrupt>
      50:	0c 94 15 2d 	jmp	0x5a2a	; 0x5a2a <__vector_20>
      54:	0c 94 20 01 	jmp	0x240	; 0x240 <__bad_interrupt>
      58:	0c 94 20 01 	jmp	0x240	; 0x240 <__bad_interrupt>
      5c:	0c 94 20 01 	jmp	0x240	; 0x240 <__bad_interrupt>
      60:	0c 94 20 01 	jmp	0x240	; 0x240 <__bad_interrupt>
      64:	0c 94 20 01 	jmp	0x240	; 0x240 <__bad_interrupt>
      68:	0c 94 20 01 	jmp	0x240	; 0x240 <__bad_interrupt>
      6c:	0c 94 20 01 	jmp	0x240	; 0x240 <__bad_interrupt>
      70:	0c 94 e6 2b 	jmp	0x57cc	; 0x57cc <__vector_28>
      74:	0c 94 20 01 	jmp	0x240	; 0x240 <__bad_interrupt>
      78:	0c 94 20 01 	jmp	0x240	; 0x240 <__bad_interrupt>
      7c:	0c 94 20 01 	jmp	0x240	; 0x240 <__bad_interrupt>
      80:	0c 94 20 01 	jmp	0x240	; 0x240 <__bad_interrupt>
      84:	0c 94 20 01 	jmp	0x240	; 0x240 <__bad_interrupt>
      88:	0c 94 02 2b 	jmp	0x5604	; 0x5604 <__vector_34>
      8c:	0c 94 20 01 	jmp	0x240	; 0x240 <__bad_interrupt>
      90:	0c 94 20 01 	jmp	0x240	; 0x240 <__bad_interrupt>
      94:	0c 94 20 01 	jmp	0x240	; 0x240 <__bad_interrupt>
      98:	0c 94 20 01 	jmp	0x240	; 0x240 <__bad_interrupt>
      9c:	0c 94 20 01 	jmp	0x240	; 0x240 <__bad_interrupt>
      a0:	0c 94 20 01 	jmp	0x240	; 0x240 <__bad_interrupt>
      a4:	0c 94 20 01 	jmp	0x240	; 0x240 <__bad_interrupt>
      a8:	0c 94 20 01 	jmp	0x240	; 0x240 <__bad_interrupt>
      ac:	0c 94 20 01 	jmp	0x240	; 0x240 <__bad_interrupt>
      b0:	0c 94 20 01 	jmp	0x240	; 0x240 <__bad_interrupt>
      b4:	0c 94 20 01 	jmp	0x240	; 0x240 <__bad_interrupt>
      b8:	0c 94 20 01 	jmp	0x240	; 0x240 <__bad_interrupt>
      bc:	0c 94 20 01 	jmp	0x240	; 0x240 <__bad_interrupt>
      c0:	0c 94 20 01 	jmp	0x240	; 0x240 <__bad_interrupt>
      c4:	0c 94 20 01 	jmp	0x240	; 0x240 <__bad_interrupt>
      c8:	0c 94 20 01 	jmp	0x240	; 0x240 <__bad_interrupt>
      cc:	0c 94 20 01 	jmp	0x240	; 0x240 <__bad_interrupt>
      d0:	0c 94 20 01 	jmp	0x240	; 0x240 <__bad_interrupt>
      d4:	0c 94 20 01 	jmp	0x240	; 0x240 <__bad_interrupt>
      d8:	0c 94 20 01 	jmp	0x240	; 0x240 <__bad_interrupt>
      dc:	0c 94 20 01 	jmp	0x240	; 0x240 <__bad_interrupt>
      e0:	0c 94 20 01 	jmp	0x240	; 0x240 <__bad_interrupt>
      e4:	0c 94 20 01 	jmp	0x240	; 0x240 <__bad_interrupt>
      e8:	0c 94 20 01 	jmp	0x240	; 0x240 <__bad_interrupt>
      ec:	0c 94 20 01 	jmp	0x240	; 0x240 <__bad_interrupt>
      f0:	0c 94 20 01 	jmp	0x240	; 0x240 <__bad_interrupt>
      f4:	0c 94 20 01 	jmp	0x240	; 0x240 <__bad_interrupt>
      f8:	0c 94 20 01 	jmp	0x240	; 0x240 <__bad_interrupt>
      fc:	0c 94 20 01 	jmp	0x240	; 0x240 <__bad_interrupt>
     100:	0c 94 20 01 	jmp	0x240	; 0x240 <__bad_interrupt>
     104:	0c 94 20 01 	jmp	0x240	; 0x240 <__bad_interrupt>
     108:	0c 94 20 01 	jmp	0x240	; 0x240 <__bad_interrupt>
     10c:	0c 94 20 01 	jmp	0x240	; 0x240 <__bad_interrupt>
     110:	0c 94 20 01 	jmp	0x240	; 0x240 <__bad_interrupt>
     114:	0c 94 20 01 	jmp	0x240	; 0x240 <__bad_interrupt>
     118:	0c 94 20 01 	jmp	0x240	; 0x240 <__bad_interrupt>
     11c:	0c 94 20 01 	jmp	0x240	; 0x240 <__bad_interrupt>
     120:	0c 94 20 01 	jmp	0x240	; 0x240 <__bad_interrupt>
     124:	0c 94 20 01 	jmp	0x240	; 0x240 <__bad_interrupt>
     128:	0c 94 20 01 	jmp	0x240	; 0x240 <__bad_interrupt>
     12c:	0c 94 20 01 	jmp	0x240	; 0x240 <__bad_interrupt>
     130:	0c 94 20 01 	jmp	0x240	; 0x240 <__bad_interrupt>
     134:	0c 94 19 2c 	jmp	0x5832	; 0x5832 <__vector_77>
     138:	0c 94 20 01 	jmp	0x240	; 0x240 <__bad_interrupt>
     13c:	0c 94 20 01 	jmp	0x240	; 0x240 <__bad_interrupt>
     140:	0c 94 20 01 	jmp	0x240	; 0x240 <__bad_interrupt>
     144:	0c 94 20 01 	jmp	0x240	; 0x240 <__bad_interrupt>
     148:	0c 94 20 01 	jmp	0x240	; 0x240 <__bad_interrupt>
     14c:	0c 94 67 2c 	jmp	0x58ce	; 0x58ce <__vector_83>
     150:	0c 94 20 01 	jmp	0x240	; 0x240 <__bad_interrupt>
     154:	0c 94 20 01 	jmp	0x240	; 0x240 <__bad_interrupt>
     158:	0c 94 20 01 	jmp	0x240	; 0x240 <__bad_interrupt>
     15c:	0c 94 20 01 	jmp	0x240	; 0x240 <__bad_interrupt>
     160:	0c 94 20 01 	jmp	0x240	; 0x240 <__bad_interrupt>
     164:	0c 94 20 01 	jmp	0x240	; 0x240 <__bad_interrupt>
     168:	0c 94 20 01 	jmp	0x240	; 0x240 <__bad_interrupt>
     16c:	0c 94 20 01 	jmp	0x240	; 0x240 <__bad_interrupt>
     170:	0c 94 20 01 	jmp	0x240	; 0x240 <__bad_interrupt>
     174:	0c 94 20 01 	jmp	0x240	; 0x240 <__bad_interrupt>
     178:	0c 94 9a 2b 	jmp	0x5734	; 0x5734 <__vector_94>
     17c:	0c 94 20 01 	jmp	0x240	; 0x240 <__bad_interrupt>
     180:	0c 94 4e 2b 	jmp	0x569c	; 0x569c <__vector_96>
     184:	0c 94 20 01 	jmp	0x240	; 0x240 <__bad_interrupt>
     188:	0c 94 74 2b 	jmp	0x56e8	; 0x56e8 <__vector_98>
     18c:	0c 94 20 01 	jmp	0x240	; 0x240 <__bad_interrupt>
     190:	0c 94 c0 2b 	jmp	0x5780	; 0x5780 <__vector_100>
     194:	0c 94 20 01 	jmp	0x240	; 0x240 <__bad_interrupt>
     198:	0c 94 20 01 	jmp	0x240	; 0x240 <__bad_interrupt>
     19c:	0c 94 20 01 	jmp	0x240	; 0x240 <__bad_interrupt>
     1a0:	0c 94 20 01 	jmp	0x240	; 0x240 <__bad_interrupt>
     1a4:	0c 94 20 01 	jmp	0x240	; 0x240 <__bad_interrupt>
     1a8:	0c 94 20 01 	jmp	0x240	; 0x240 <__bad_interrupt>
     1ac:	0c 94 20 01 	jmp	0x240	; 0x240 <__bad_interrupt>
     1b0:	0c 94 20 01 	jmp	0x240	; 0x240 <__bad_interrupt>
     1b4:	0c 94 20 01 	jmp	0x240	; 0x240 <__bad_interrupt>
     1b8:	0c 94 20 01 	jmp	0x240	; 0x240 <__bad_interrupt>
     1bc:	0c 94 20 01 	jmp	0x240	; 0x240 <__bad_interrupt>
     1c0:	0c 94 20 01 	jmp	0x240	; 0x240 <__bad_interrupt>
     1c4:	0c 94 20 01 	jmp	0x240	; 0x240 <__bad_interrupt>
     1c8:	0c 94 20 01 	jmp	0x240	; 0x240 <__bad_interrupt>
     1cc:	0c 94 20 01 	jmp	0x240	; 0x240 <__bad_interrupt>
     1d0:	0c 94 20 01 	jmp	0x240	; 0x240 <__bad_interrupt>
     1d4:	0c 94 20 01 	jmp	0x240	; 0x240 <__bad_interrupt>
     1d8:	0c 94 20 01 	jmp	0x240	; 0x240 <__bad_interrupt>
     1dc:	0c 94 20 01 	jmp	0x240	; 0x240 <__bad_interrupt>
     1e0:	0c 94 20 01 	jmp	0x240	; 0x240 <__bad_interrupt>
     1e4:	0c 94 20 01 	jmp	0x240	; 0x240 <__bad_interrupt>
     1e8:	0c 94 20 01 	jmp	0x240	; 0x240 <__bad_interrupt>
     1ec:	0c 94 20 01 	jmp	0x240	; 0x240 <__bad_interrupt>
     1f0:	0c 94 20 01 	jmp	0x240	; 0x240 <__bad_interrupt>

000001f4 <__ctors_end>:
     1f4:	11 24       	eor	r1, r1
     1f6:	1f be       	out	0x3f, r1	; 63
     1f8:	cf ef       	ldi	r28, 0xFF	; 255
     1fa:	df e3       	ldi	r29, 0x3F	; 63
     1fc:	de bf       	out	0x3e, r29	; 62
     1fe:	cd bf       	out	0x3d, r28	; 61
     200:	00 e0       	ldi	r16, 0x00	; 0
     202:	0c bf       	out	0x3c, r16	; 60
     204:	18 be       	out	0x38, r1	; 56
     206:	19 be       	out	0x39, r1	; 57
     208:	1a be       	out	0x3a, r1	; 58
     20a:	1b be       	out	0x3b, r1	; 59

0000020c <__do_copy_data>:
     20c:	10 e2       	ldi	r17, 0x20	; 32
     20e:	a0 e0       	ldi	r26, 0x00	; 0
     210:	b0 e2       	ldi	r27, 0x20	; 32
     212:	e2 ee       	ldi	r30, 0xE2	; 226
     214:	fe e5       	ldi	r31, 0x5E	; 94
     216:	00 e0       	ldi	r16, 0x00	; 0
     218:	0b bf       	out	0x3b, r16	; 59
     21a:	02 c0       	rjmp	.+4      	; 0x220 <__do_copy_data+0x14>
     21c:	07 90       	elpm	r0, Z+
     21e:	0d 92       	st	X+, r0
     220:	ac 3e       	cpi	r26, 0xEC	; 236
     222:	b1 07       	cpc	r27, r17
     224:	d9 f7       	brne	.-10     	; 0x21c <__do_copy_data+0x10>
     226:	1b be       	out	0x3b, r1	; 59

00000228 <__do_clear_bss>:
     228:	16 e2       	ldi	r17, 0x26	; 38
     22a:	ac ee       	ldi	r26, 0xEC	; 236
     22c:	b0 e2       	ldi	r27, 0x20	; 32
     22e:	01 c0       	rjmp	.+2      	; 0x232 <.do_clear_bss_start>

00000230 <.do_clear_bss_loop>:
     230:	1d 92       	st	X+, r1

00000232 <.do_clear_bss_start>:
     232:	a4 33       	cpi	r26, 0x34	; 52
     234:	b1 07       	cpc	r27, r17
     236:	e1 f7       	brne	.-8      	; 0x230 <.do_clear_bss_loop>
     238:	0e 94 5b 2d 	call	0x5ab6	; 0x5ab6 <main>
     23c:	0c 94 6f 2f 	jmp	0x5ede	; 0x5ede <_exit>

00000240 <__bad_interrupt>:
     240:	0c 94 00 00 	jmp	0	; 0x0 <__vectors>

00000244 <AdcRead>:
     244:	80 91 20 02 	lds	r24, 0x0220
     248:	80 68       	ori	r24, 0x80	; 128
     24a:	e0 e0       	ldi	r30, 0x00	; 0
     24c:	f2 e0       	ldi	r31, 0x02	; 2
     24e:	80 a3       	std	Z+32, r24	; 0x20
     250:	80 91 23 02 	lds	r24, 0x0223
     254:	88 23       	and	r24, r24
     256:	e1 f3       	breq	.-8      	; 0x250 <AdcRead+0xc>
     258:	20 91 10 02 	lds	r18, 0x0210
     25c:	30 91 11 02 	lds	r19, 0x0211
     260:	c9 01       	movw	r24, r18
     262:	08 95       	ret

00000264 <ReadCalibrationByte>:
     264:	aa ec       	ldi	r26, 0xCA	; 202
     266:	b1 e0       	ldi	r27, 0x01	; 1
     268:	92 e0       	ldi	r25, 0x02	; 2
     26a:	9c 93       	st	X, r25
     26c:	e8 2f       	mov	r30, r24
     26e:	f0 e0       	ldi	r31, 0x00	; 0
     270:	e4 91       	lpm	r30, Z+
     272:	1c 92       	st	X, r1
     274:	8e 2f       	mov	r24, r30
     276:	08 95       	ret

00000278 <AdcBuffer>:
     278:	e0 e0       	ldi	r30, 0x00	; 0
     27a:	f2 e0       	ldi	r31, 0x02	; 2
     27c:	80 e3       	ldi	r24, 0x30	; 48
     27e:	81 a3       	std	Z+33, r24	; 0x21
     280:	80 91 20 02 	lds	r24, 0x0220
     284:	80 68       	ori	r24, 0x80	; 128
     286:	80 a3       	std	Z+32, r24	; 0x20
     288:	80 91 23 02 	lds	r24, 0x0223
     28c:	88 23       	and	r24, r24
     28e:	e1 f3       	breq	.-8      	; 0x288 <AdcBuffer+0x10>
     290:	60 91 10 02 	lds	r22, 0x0210
     294:	70 91 11 02 	lds	r23, 0x0211
     298:	60 93 f7 20 	sts	0x20F7, r22
     29c:	70 93 f8 20 	sts	0x20F8, r23
     2a0:	80 91 20 02 	lds	r24, 0x0220
     2a4:	80 68       	ori	r24, 0x80	; 128
     2a6:	e0 e0       	ldi	r30, 0x00	; 0
     2a8:	f2 e0       	ldi	r31, 0x02	; 2
     2aa:	80 a3       	std	Z+32, r24	; 0x20
     2ac:	80 91 23 02 	lds	r24, 0x0223
     2b0:	88 23       	and	r24, r24
     2b2:	e1 f3       	breq	.-8      	; 0x2ac <AdcBuffer+0x34>
     2b4:	20 91 10 02 	lds	r18, 0x0210
     2b8:	30 91 11 02 	lds	r19, 0x0211
     2bc:	20 93 f9 20 	sts	0x20F9, r18
     2c0:	30 93 fa 20 	sts	0x20FA, r19
     2c4:	80 91 20 02 	lds	r24, 0x0220
     2c8:	80 68       	ori	r24, 0x80	; 128
     2ca:	e0 e0       	ldi	r30, 0x00	; 0
     2cc:	f2 e0       	ldi	r31, 0x02	; 2
     2ce:	80 a3       	std	Z+32, r24	; 0x20
     2d0:	80 91 23 02 	lds	r24, 0x0223
     2d4:	88 23       	and	r24, r24
     2d6:	e1 f3       	breq	.-8      	; 0x2d0 <AdcBuffer+0x58>
     2d8:	40 91 10 02 	lds	r20, 0x0210
     2dc:	50 91 11 02 	lds	r21, 0x0211
     2e0:	40 93 fb 20 	sts	0x20FB, r20
     2e4:	50 93 fc 20 	sts	0x20FC, r21
     2e8:	80 91 20 02 	lds	r24, 0x0220
     2ec:	80 68       	ori	r24, 0x80	; 128
     2ee:	e0 e0       	ldi	r30, 0x00	; 0
     2f0:	f2 e0       	ldi	r31, 0x02	; 2
     2f2:	80 a3       	std	Z+32, r24	; 0x20
     2f4:	80 91 23 02 	lds	r24, 0x0223
     2f8:	88 23       	and	r24, r24
     2fa:	e1 f3       	breq	.-8      	; 0x2f4 <AdcBuffer+0x7c>
     2fc:	80 91 10 02 	lds	r24, 0x0210
     300:	90 91 11 02 	lds	r25, 0x0211
     304:	80 93 fd 20 	sts	0x20FD, r24
     308:	90 93 fe 20 	sts	0x20FE, r25
     30c:	26 0f       	add	r18, r22
     30e:	37 1f       	adc	r19, r23
     310:	24 0f       	add	r18, r20
     312:	35 1f       	adc	r19, r21
     314:	28 0f       	add	r18, r24
     316:	39 1f       	adc	r19, r25
     318:	36 95       	lsr	r19
     31a:	27 95       	ror	r18
     31c:	36 95       	lsr	r19
     31e:	27 95       	ror	r18
     320:	20 93 ec 20 	sts	0x20EC, r18
     324:	30 93 ed 20 	sts	0x20ED, r19
     328:	08 95       	ret

0000032a <setClockTo32MHz>:
     32a:	88 ed       	ldi	r24, 0xD8	; 216
     32c:	84 bf       	out	0x34, r24	; 52
     32e:	82 e0       	ldi	r24, 0x02	; 2
     330:	80 93 50 00 	sts	0x0050, r24
     334:	80 91 51 00 	lds	r24, 0x0051
     338:	81 ff       	sbrs	r24, 1
     33a:	fc cf       	rjmp	.-8      	; 0x334 <setClockTo32MHz+0xa>
     33c:	88 ed       	ldi	r24, 0xD8	; 216
     33e:	84 bf       	out	0x34, r24	; 52
     340:	81 e0       	ldi	r24, 0x01	; 1
     342:	80 93 40 00 	sts	0x0040, r24
     346:	08 95       	ret

00000348 <TimerConfing>:
     348:	e0 e0       	ldi	r30, 0x00	; 0
     34a:	fa e0       	ldi	r31, 0x0A	; 10
     34c:	24 e0       	ldi	r18, 0x04	; 4
     34e:	20 83       	st	Z, r18
     350:	83 ef       	ldi	r24, 0xF3	; 243
     352:	81 83       	std	Z+1, r24	; 0x01
     354:	4f ef       	ldi	r20, 0xFF	; 255
     356:	53 e0       	ldi	r21, 0x03	; 3
     358:	46 a3       	std	Z+38, r20	; 0x26
     35a:	57 a3       	std	Z+39, r21	; 0x27
     35c:	80 e0       	ldi	r24, 0x00	; 0
     35e:	92 e0       	ldi	r25, 0x02	; 2
     360:	80 af       	std	Z+56, r24	; 0x38
     362:	91 af       	std	Z+57, r25	; 0x39
     364:	82 af       	std	Z+58, r24	; 0x3a
     366:	93 af       	std	Z+59, r25	; 0x3b
     368:	84 af       	std	Z+60, r24	; 0x3c
     36a:	95 af       	std	Z+61, r25	; 0x3d
     36c:	80 93 3e 0a 	sts	0x0A3E, r24
     370:	90 93 3f 0a 	sts	0x0A3F, r25
     374:	e0 e0       	ldi	r30, 0x00	; 0
     376:	fb e0       	ldi	r31, 0x0B	; 11
     378:	20 83       	st	Z, r18
     37a:	23 e7       	ldi	r18, 0x73	; 115
     37c:	21 83       	std	Z+1, r18	; 0x01
     37e:	46 a3       	std	Z+38, r20	; 0x26
     380:	57 a3       	std	Z+39, r21	; 0x27
     382:	80 af       	std	Z+56, r24	; 0x38
     384:	91 af       	std	Z+57, r25	; 0x39
     386:	82 af       	std	Z+58, r24	; 0x3a
     388:	93 af       	std	Z+59, r25	; 0x3b
     38a:	88 ee       	ldi	r24, 0xE8	; 232
     38c:	93 e0       	ldi	r25, 0x03	; 3
     38e:	84 af       	std	Z+60, r24	; 0x3c
     390:	95 af       	std	Z+61, r25	; 0x3d
     392:	e0 e4       	ldi	r30, 0x40	; 64
     394:	f8 e0       	ldi	r31, 0x08	; 8
     396:	26 e0       	ldi	r18, 0x06	; 6
     398:	20 83       	st	Z, r18
     39a:	11 82       	std	Z+1, r1	; 0x01
     39c:	82 e0       	ldi	r24, 0x02	; 2
     39e:	86 83       	std	Z+6, r24	; 0x06
     3a0:	80 e3       	ldi	r24, 0x30	; 48
     3a2:	9f ef       	ldi	r25, 0xFF	; 255
     3a4:	80 a3       	std	Z+32, r24	; 0x20
     3a6:	91 a3       	std	Z+33, r25	; 0x21
     3a8:	e0 e0       	ldi	r30, 0x00	; 0
     3aa:	f9 e0       	ldi	r31, 0x09	; 9
     3ac:	20 83       	st	Z, r18
     3ae:	11 82       	std	Z+1, r1	; 0x01
     3b0:	23 e0       	ldi	r18, 0x03	; 3
     3b2:	26 83       	std	Z+6, r18	; 0x06
     3b4:	85 e9       	ldi	r24, 0x95	; 149
     3b6:	97 ee       	ldi	r25, 0xE7	; 231
     3b8:	80 a3       	std	Z+32, r24	; 0x20
     3ba:	91 a3       	std	Z+33, r25	; 0x21
     3bc:	e0 e0       	ldi	r30, 0x00	; 0
     3be:	f8 e0       	ldi	r31, 0x08	; 8
     3c0:	11 82       	std	Z+1, r1	; 0x01
     3c2:	81 e0       	ldi	r24, 0x01	; 1
     3c4:	86 83       	std	Z+6, r24	; 0x06
     3c6:	80 ec       	ldi	r24, 0xC0	; 192
     3c8:	93 ef       	ldi	r25, 0xF3	; 243
     3ca:	80 a3       	std	Z+32, r24	; 0x20
     3cc:	91 a3       	std	Z+33, r25	; 0x21
     3ce:	e0 e4       	ldi	r30, 0x40	; 64
     3d0:	f9 e0       	ldi	r31, 0x09	; 9
     3d2:	11 82       	std	Z+1, r1	; 0x01
     3d4:	26 83       	std	Z+6, r18	; 0x06
     3d6:	80 eb       	ldi	r24, 0xB0	; 176
     3d8:	9e ef       	ldi	r25, 0xFE	; 254
     3da:	80 a3       	std	Z+32, r24	; 0x20
     3dc:	91 a3       	std	Z+33, r25	; 0x21
     3de:	08 95       	ret

000003e0 <PortConfing>:
     3e0:	2f 92       	push	r2
     3e2:	3f 92       	push	r3
     3e4:	4f 92       	push	r4
     3e6:	5f 92       	push	r5
     3e8:	7f 92       	push	r7
     3ea:	8f 92       	push	r8
     3ec:	9f 92       	push	r9
     3ee:	af 92       	push	r10
     3f0:	bf 92       	push	r11
     3f2:	cf 92       	push	r12
     3f4:	df 92       	push	r13
     3f6:	ef 92       	push	r14
     3f8:	ff 92       	push	r15
     3fa:	0f 93       	push	r16
     3fc:	1f 93       	push	r17
     3fe:	21 2c       	mov	r2, r1
     400:	76 e0       	ldi	r23, 0x06	; 6
     402:	37 2e       	mov	r3, r23
     404:	f1 01       	movw	r30, r2
     406:	10 82       	st	Z, r1
     408:	bb 24       	eor	r11, r11
     40a:	ba 94       	dec	r11
     40c:	b0 92 60 06 	sts	0x0660, r11
     410:	b0 92 80 06 	sts	0x0680, r11
     414:	60 ea       	ldi	r22, 0xA0	; 160
     416:	e6 2e       	mov	r14, r22
     418:	66 e0       	ldi	r22, 0x06	; 6
     41a:	f6 2e       	mov	r15, r22
     41c:	5f e1       	ldi	r21, 0x1F	; 31
     41e:	75 2e       	mov	r7, r21
     420:	f7 01       	movw	r30, r14
     422:	70 82       	st	Z, r7
     424:	40 ee       	ldi	r20, 0xE0	; 224
     426:	c4 2e       	mov	r12, r20
     428:	46 e0       	ldi	r20, 0x06	; 6
     42a:	d4 2e       	mov	r13, r20
     42c:	82 e1       	ldi	r24, 0x12	; 18
     42e:	f6 01       	movw	r30, r12
     430:	80 83       	st	Z, r24
     432:	00 e0       	ldi	r16, 0x00	; 0
     434:	17 e0       	ldi	r17, 0x07	; 7
     436:	92 e0       	ldi	r25, 0x02	; 2
     438:	f8 01       	movw	r30, r16
     43a:	90 83       	st	Z, r25
     43c:	30 e2       	ldi	r19, 0x20	; 32
     43e:	43 2e       	mov	r4, r19
     440:	37 e0       	ldi	r19, 0x07	; 7
     442:	53 2e       	mov	r5, r19
     444:	8f e3       	ldi	r24, 0x3F	; 63
     446:	f2 01       	movw	r30, r4
     448:	80 83       	st	Z, r24
     44a:	90 93 e0 07 	sts	0x07E0, r25
     44e:	8f ed       	ldi	r24, 0xDF	; 223
     450:	80 93 20 06 	sts	0x0620, r24
     454:	8e e0       	ldi	r24, 0x0E	; 14
     456:	80 93 c0 07 	sts	0x07C0, r24
     45a:	80 e4       	ldi	r24, 0x40	; 64
     45c:	80 93 46 06 	sts	0x0646, r24
     460:	25 e4       	ldi	r18, 0x45	; 69
     462:	82 2e       	mov	r8, r18
     464:	26 e0       	ldi	r18, 0x06	; 6
     466:	92 2e       	mov	r9, r18
     468:	80 e8       	ldi	r24, 0x80	; 128
     46a:	f4 01       	movw	r30, r8
     46c:	80 83       	st	Z, r24
     46e:	e1 e4       	ldi	r30, 0x41	; 65
     470:	f6 e0       	ldi	r31, 0x06	; 6
     472:	80 83       	st	Z, r24
     474:	80 e2       	ldi	r24, 0x20	; 32
     476:	a8 2e       	mov	r10, r24
     478:	a0 82       	st	Z, r10
     47a:	64 ee       	ldi	r22, 0xE4	; 228
     47c:	77 e0       	ldi	r23, 0x07	; 7
     47e:	fb 01       	movw	r30, r22
     480:	10 82       	st	Z, r1
     482:	44 e6       	ldi	r20, 0x64	; 100
     484:	56 e0       	ldi	r21, 0x06	; 6
     486:	fa 01       	movw	r30, r20
     488:	b0 82       	st	Z, r11
     48a:	24 e8       	ldi	r18, 0x84	; 132
     48c:	36 e0       	ldi	r19, 0x06	; 6
     48e:	f9 01       	movw	r30, r18
     490:	b0 82       	st	Z, r11
     492:	a4 ea       	ldi	r26, 0xA4	; 164
     494:	b6 e0       	ldi	r27, 0x06	; 6
     496:	7c 92       	st	X, r7
     498:	e5 ec       	ldi	r30, 0xC5	; 197
     49a:	f7 e0       	ldi	r31, 0x07	; 7
     49c:	90 83       	st	Z, r25
     49e:	90 93 e5 06 	sts	0x06E5, r25
     4a2:	84 e0       	ldi	r24, 0x04	; 4
     4a4:	80 83       	st	Z, r24
     4a6:	f4 01       	movw	r30, r8
     4a8:	a0 82       	st	Z, r10
     4aa:	fb 01       	movw	r30, r22
     4ac:	10 82       	st	Z, r1
     4ae:	fa 01       	movw	r30, r20
     4b0:	b0 82       	st	Z, r11
     4b2:	f9 01       	movw	r30, r18
     4b4:	b0 82       	st	Z, r11
     4b6:	7c 92       	st	X, r7
     4b8:	90 e1       	ldi	r25, 0x10	; 16
     4ba:	f8 01       	movw	r30, r16
     4bc:	97 8b       	std	Z+23, r25	; 0x17
     4be:	96 8b       	std	Z+22, r25	; 0x16
     4c0:	88 e1       	ldi	r24, 0x18	; 24
     4c2:	f6 01       	movw	r30, r12
     4c4:	87 8b       	std	Z+23, r24	; 0x17
     4c6:	86 8b       	std	Z+22, r24	; 0x16
     4c8:	f1 01       	movw	r30, r2
     4ca:	97 8b       	std	Z+23, r25	; 0x17
     4cc:	f7 01       	movw	r30, r14
     4ce:	85 8b       	std	Z+21, r24	; 0x15
     4d0:	86 8b       	std	Z+22, r24	; 0x16
     4d2:	87 8b       	std	Z+23, r24	; 0x17
     4d4:	f8 01       	movw	r30, r16
     4d6:	82 8b       	std	Z+18, r24	; 0x12
     4d8:	f2 01       	movw	r30, r4
     4da:	86 8b       	std	Z+22, r24	; 0x16
     4dc:	1f 91       	pop	r17
     4de:	0f 91       	pop	r16
     4e0:	ff 90       	pop	r15
     4e2:	ef 90       	pop	r14
     4e4:	df 90       	pop	r13
     4e6:	cf 90       	pop	r12
     4e8:	bf 90       	pop	r11
     4ea:	af 90       	pop	r10
     4ec:	9f 90       	pop	r9
     4ee:	8f 90       	pop	r8
     4f0:	7f 90       	pop	r7
     4f2:	5f 90       	pop	r5
     4f4:	4f 90       	pop	r4
     4f6:	3f 90       	pop	r3
     4f8:	2f 90       	pop	r2
     4fa:	08 95       	ret

000004fc <InterruptConfing>:
     4fc:	91 e0       	ldi	r25, 0x01	; 1
     4fe:	90 93 35 06 	sts	0x0635, r25
     502:	90 93 f0 07 	sts	0x07F0, r25
     506:	90 93 f2 06 	sts	0x06F2, r25
     50a:	90 93 d0 07 	sts	0x07D0, r25
     50e:	90 93 37 07 	sts	0x0737, r25
     512:	90 93 15 07 	sts	0x0715, r25
     516:	84 e0       	ldi	r24, 0x04	; 4
     518:	80 93 ea 06 	sts	0x06EA, r24
     51c:	80 e2       	ldi	r24, 0x20	; 32
     51e:	80 93 0a 07 	sts	0x070A, r24
     522:	80 93 2a 06 	sts	0x062A, r24
     526:	80 e8       	ldi	r24, 0x80	; 128
     528:	80 93 2a 07 	sts	0x072A, r24
     52c:	90 93 ca 07 	sts	0x07CA, r25
     530:	90 93 ea 07 	sts	0x07EA, r25
     534:	83 e0       	ldi	r24, 0x03	; 3
     536:	80 93 29 06 	sts	0x0629, r24
     53a:	80 93 e9 06 	sts	0x06E9, r24
     53e:	80 93 09 07 	sts	0x0709, r24
     542:	80 93 29 07 	sts	0x0729, r24
     546:	80 93 c9 07 	sts	0x07C9, r24
     54a:	80 93 e9 07 	sts	0x07E9, r24
     54e:	87 e0       	ldi	r24, 0x07	; 7
     550:	e0 ea       	ldi	r30, 0xA0	; 160
     552:	f0 e0       	ldi	r31, 0x00	; 0
     554:	82 83       	std	Z+2, r24	; 0x02
     556:	08 95       	ret

00000558 <AdcConfig>:
     558:	0f 93       	push	r16
     55a:	1f 93       	push	r17
     55c:	80 e2       	ldi	r24, 0x20	; 32
     55e:	0e 94 32 01 	call	0x264	; 0x264 <ReadCalibrationByte>
     562:	00 e0       	ldi	r16, 0x00	; 0
     564:	12 e0       	ldi	r17, 0x02	; 2
     566:	f8 01       	movw	r30, r16
     568:	84 87       	std	Z+12, r24	; 0x0c
     56a:	81 e2       	ldi	r24, 0x21	; 33
     56c:	0e 94 32 01 	call	0x264	; 0x264 <ReadCalibrationByte>
     570:	f8 01       	movw	r30, r16
     572:	85 87       	std	Z+13, r24	; 0x0d
     574:	80 e6       	ldi	r24, 0x60	; 96
     576:	81 83       	std	Z+1, r24	; 0x01
     578:	80 e1       	ldi	r24, 0x10	; 16
     57a:	82 83       	std	Z+2, r24	; 0x02
     57c:	85 e0       	ldi	r24, 0x05	; 5
     57e:	84 83       	std	Z+4, r24	; 0x04
     580:	81 e0       	ldi	r24, 0x01	; 1
     582:	80 a3       	std	Z+32, r24	; 0x20
     584:	80 83       	st	Z, r24
     586:	1f 91       	pop	r17
     588:	0f 91       	pop	r16
     58a:	08 95       	ret

0000058c <UsartInit>:
     58c:	0f 93       	push	r16
     58e:	1f 93       	push	r17
     590:	e0 e4       	ldi	r30, 0x40	; 64
     592:	f6 e0       	ldi	r31, 0x06	; 6
     594:	80 e8       	ldi	r24, 0x80	; 128
     596:	85 83       	std	Z+5, r24	; 0x05
     598:	81 83       	std	Z+1, r24	; 0x01
     59a:	e0 eb       	ldi	r30, 0xB0	; 176
     59c:	f8 e0       	ldi	r31, 0x08	; 8
     59e:	80 e2       	ldi	r24, 0x20	; 32
     5a0:	83 83       	std	Z+3, r24	; 0x03
     5a2:	88 e1       	ldi	r24, 0x18	; 24
     5a4:	84 83       	std	Z+4, r24	; 0x04
     5a6:	83 e0       	ldi	r24, 0x03	; 3
     5a8:	85 83       	std	Z+5, r24	; 0x05
     5aa:	85 81       	ldd	r24, Z+5	; 0x05
     5ac:	88 60       	ori	r24, 0x08	; 8
     5ae:	85 83       	std	Z+5, r24	; 0x05
     5b0:	80 eb       	ldi	r24, 0xB0	; 176
     5b2:	98 e0       	ldi	r25, 0x08	; 8
     5b4:	40 e0       	ldi	r20, 0x00	; 0
     5b6:	5b e4       	ldi	r21, 0x4B	; 75
     5b8:	60 e0       	ldi	r22, 0x00	; 0
     5ba:	70 e0       	ldi	r23, 0x00	; 0
     5bc:	00 e0       	ldi	r16, 0x00	; 0
     5be:	18 e4       	ldi	r17, 0x48	; 72
     5c0:	28 ee       	ldi	r18, 0xE8	; 232
     5c2:	31 e0       	ldi	r19, 0x01	; 1
     5c4:	0e 94 a4 2d 	call	0x5b48	; 0x5b48 <usart_set_baudrate>
     5c8:	1f 91       	pop	r17
     5ca:	0f 91       	pop	r16
     5cc:	08 95       	ret

000005ce <LedLight>:
     5ce:	28 2f       	mov	r18, r24
     5d0:	80 ff       	sbrs	r24, 0
     5d2:	04 c0       	rjmp	.+8      	; 0x5dc <LedLight+0xe>
     5d4:	80 e2       	ldi	r24, 0x20	; 32
     5d6:	80 93 45 06 	sts	0x0645, r24
     5da:	03 c0       	rjmp	.+6      	; 0x5e2 <LedLight+0x14>
     5dc:	80 e2       	ldi	r24, 0x20	; 32
     5de:	80 93 46 06 	sts	0x0646, r24
     5e2:	21 ff       	sbrs	r18, 1
     5e4:	04 c0       	rjmp	.+8      	; 0x5ee <LedLight+0x20>
     5e6:	82 e0       	ldi	r24, 0x02	; 2
     5e8:	80 93 c5 07 	sts	0x07C5, r24
     5ec:	03 c0       	rjmp	.+6      	; 0x5f4 <LedLight+0x26>
     5ee:	82 e0       	ldi	r24, 0x02	; 2
     5f0:	80 93 c6 07 	sts	0x07C6, r24
     5f4:	22 ff       	sbrs	r18, 2
     5f6:	04 c0       	rjmp	.+8      	; 0x600 <LedLight+0x32>
     5f8:	84 e0       	ldi	r24, 0x04	; 4
     5fa:	80 93 c5 07 	sts	0x07C5, r24
     5fe:	03 c0       	rjmp	.+6      	; 0x606 <LedLight+0x38>
     600:	84 e0       	ldi	r24, 0x04	; 4
     602:	80 93 c6 07 	sts	0x07C6, r24
     606:	23 ff       	sbrs	r18, 3
     608:	04 c0       	rjmp	.+8      	; 0x612 <LedLight+0x44>
     60a:	82 e0       	ldi	r24, 0x02	; 2
     60c:	80 93 e5 06 	sts	0x06E5, r24
     610:	08 95       	ret
     612:	82 e0       	ldi	r24, 0x02	; 2
     614:	80 93 e6 06 	sts	0x06E6, r24
     618:	08 95       	ret

0000061a <LCDWelcomeTxt>:
     61a:	0e 94 41 2a 	call	0x5482	; 0x5482 <LcdClear>
     61e:	80 e0       	ldi	r24, 0x00	; 0
     620:	90 e2       	ldi	r25, 0x20	; 32
     622:	0e 94 1c 2a 	call	0x5438	; 0x5438 <LcdWrite>
     626:	82 e0       	ldi	r24, 0x02	; 2
     628:	61 e0       	ldi	r22, 0x01	; 1
     62a:	0e 94 37 2a 	call	0x546e	; 0x546e <LcdGoto>
     62e:	8c e0       	ldi	r24, 0x0C	; 12
     630:	90 e2       	ldi	r25, 0x20	; 32
     632:	0e 94 1c 2a 	call	0x5438	; 0x5438 <LcdWrite>
     636:	08 95       	ret

00000638 <LCDDisplay>:
     638:	bf 92       	push	r11
     63a:	cf 92       	push	r12
     63c:	df 92       	push	r13
     63e:	ef 92       	push	r14
     640:	ff 92       	push	r15
     642:	0f 93       	push	r16
     644:	1f 93       	push	r17
     646:	cf 93       	push	r28
     648:	df 93       	push	r29
     64a:	8c 01       	movw	r16, r24
     64c:	fc 01       	movw	r30, r24
     64e:	80 81       	ld	r24, Z
     650:	81 30       	cpi	r24, 0x01	; 1
     652:	09 f0       	breq	.+2      	; 0x656 <LCDDisplay+0x1e>
     654:	45 c0       	rjmp	.+138    	; 0x6e0 <LCDDisplay+0xa8>
     656:	81 81       	ldd	r24, Z+1	; 0x01
     658:	83 30       	cpi	r24, 0x03	; 3
     65a:	11 f1       	breq	.+68     	; 0x6a0 <LCDDisplay+0x68>
     65c:	84 30       	cpi	r24, 0x04	; 4
     65e:	28 f4       	brcc	.+10     	; 0x66a <LCDDisplay+0x32>
     660:	81 30       	cpi	r24, 0x01	; 1
     662:	a1 f0       	breq	.+40     	; 0x68c <LCDDisplay+0x54>
     664:	82 30       	cpi	r24, 0x02	; 2
     666:	b8 f4       	brcc	.+46     	; 0x696 <LCDDisplay+0x5e>
     668:	09 c0       	rjmp	.+18     	; 0x67c <LCDDisplay+0x44>
     66a:	85 30       	cpi	r24, 0x05	; 5
     66c:	19 f1       	breq	.+70     	; 0x6b4 <LCDDisplay+0x7c>
     66e:	85 30       	cpi	r24, 0x05	; 5
     670:	e0 f0       	brcs	.+56     	; 0x6aa <LCDDisplay+0x72>
     672:	86 30       	cpi	r24, 0x06	; 6
     674:	21 f1       	breq	.+72     	; 0x6be <LCDDisplay+0x86>
     676:	87 30       	cpi	r24, 0x07	; 7
     678:	99 f5       	brne	.+102    	; 0x6e0 <LCDDisplay+0xa8>
     67a:	29 c0       	rjmp	.+82     	; 0x6ce <LCDDisplay+0x96>
     67c:	0e 94 41 2a 	call	0x5482	; 0x5482 <LcdClear>
     680:	87 e1       	ldi	r24, 0x17	; 23
     682:	90 e2       	ldi	r25, 0x20	; 32
     684:	0e 94 1c 2a 	call	0x5438	; 0x5438 <LcdWrite>
     688:	86 e0       	ldi	r24, 0x06	; 6
     68a:	28 c0       	rjmp	.+80     	; 0x6dc <LCDDisplay+0xa4>
     68c:	0e 94 41 2a 	call	0x5482	; 0x5482 <LcdClear>
     690:	87 e2       	ldi	r24, 0x27	; 39
     692:	90 e2       	ldi	r25, 0x20	; 32
     694:	18 c0       	rjmp	.+48     	; 0x6c6 <LCDDisplay+0x8e>
     696:	0e 94 41 2a 	call	0x5482	; 0x5482 <LcdClear>
     69a:	86 e3       	ldi	r24, 0x36	; 54
     69c:	90 e2       	ldi	r25, 0x20	; 32
     69e:	13 c0       	rjmp	.+38     	; 0x6c6 <LCDDisplay+0x8e>
     6a0:	0e 94 41 2a 	call	0x5482	; 0x5482 <LcdClear>
     6a4:	85 e4       	ldi	r24, 0x45	; 69
     6a6:	90 e2       	ldi	r25, 0x20	; 32
     6a8:	0e c0       	rjmp	.+28     	; 0x6c6 <LCDDisplay+0x8e>
     6aa:	0e 94 41 2a 	call	0x5482	; 0x5482 <LcdClear>
     6ae:	84 e5       	ldi	r24, 0x54	; 84
     6b0:	90 e2       	ldi	r25, 0x20	; 32
     6b2:	09 c0       	rjmp	.+18     	; 0x6c6 <LCDDisplay+0x8e>
     6b4:	0e 94 41 2a 	call	0x5482	; 0x5482 <LcdClear>
     6b8:	83 e6       	ldi	r24, 0x63	; 99
     6ba:	90 e2       	ldi	r25, 0x20	; 32
     6bc:	04 c0       	rjmp	.+8      	; 0x6c6 <LCDDisplay+0x8e>
     6be:	0e 94 41 2a 	call	0x5482	; 0x5482 <LcdClear>
     6c2:	82 e7       	ldi	r24, 0x72	; 114
     6c4:	90 e2       	ldi	r25, 0x20	; 32
     6c6:	0e 94 1c 2a 	call	0x5438	; 0x5438 <LcdWrite>
     6ca:	87 e0       	ldi	r24, 0x07	; 7
     6cc:	07 c0       	rjmp	.+14     	; 0x6dc <LCDDisplay+0xa4>
     6ce:	0e 94 41 2a 	call	0x5482	; 0x5482 <LcdClear>
     6d2:	81 e8       	ldi	r24, 0x81	; 129
     6d4:	90 e2       	ldi	r25, 0x20	; 32
     6d6:	0e 94 1c 2a 	call	0x5438	; 0x5438 <LcdWrite>
     6da:	85 e0       	ldi	r24, 0x05	; 5
     6dc:	0e 94 e7 02 	call	0x5ce	; 0x5ce <LedLight>
     6e0:	f8 01       	movw	r30, r16
     6e2:	80 81       	ld	r24, Z
     6e4:	82 30       	cpi	r24, 0x02	; 2
     6e6:	f9 f4       	brne	.+62     	; 0x726 <LCDDisplay+0xee>
     6e8:	81 81       	ldd	r24, Z+1	; 0x01
     6ea:	88 23       	and	r24, r24
     6ec:	e1 f4       	brne	.+56     	; 0x726 <LCDDisplay+0xee>
     6ee:	0e 94 41 2a 	call	0x5482	; 0x5482 <LcdClear>
     6f2:	8d e8       	ldi	r24, 0x8D	; 141
     6f4:	90 e2       	ldi	r25, 0x20	; 32
     6f6:	0e 94 1c 2a 	call	0x5438	; 0x5438 <LcdWrite>
     6fa:	88 e0       	ldi	r24, 0x08	; 8
     6fc:	0e 94 e7 02 	call	0x5ce	; 0x5ce <LedLight>
     700:	0e 94 17 19 	call	0x322e	; 0x322e <ExecuteCommand>
     704:	80 91 28 07 	lds	r24, 0x0728
     708:	86 fd       	sbrc	r24, 6
     70a:	fa cf       	rjmp	.-12     	; 0x700 <LCDDisplay+0xc8>
     70c:	0e 94 41 2a 	call	0x5482	; 0x5482 <LcdClear>
     710:	87 e1       	ldi	r24, 0x17	; 23
     712:	90 e2       	ldi	r25, 0x20	; 32
     714:	0e 94 1c 2a 	call	0x5438	; 0x5438 <LcdWrite>
     718:	86 e0       	ldi	r24, 0x06	; 6
     71a:	0e 94 e7 02 	call	0x5ce	; 0x5ce <LedLight>
     71e:	f8 01       	movw	r30, r16
     720:	80 81       	ld	r24, Z
     722:	81 50       	subi	r24, 0x01	; 1
     724:	80 83       	st	Z, r24
     726:	f8 01       	movw	r30, r16
     728:	80 81       	ld	r24, Z
     72a:	82 30       	cpi	r24, 0x02	; 2
     72c:	c9 f4       	brne	.+50     	; 0x760 <LCDDisplay+0x128>
     72e:	81 81       	ldd	r24, Z+1	; 0x01
     730:	88 23       	and	r24, r24
     732:	b1 f0       	breq	.+44     	; 0x760 <LCDDisplay+0x128>
     734:	87 30       	cpi	r24, 0x07	; 7
     736:	a0 f4       	brcc	.+40     	; 0x760 <LCDDisplay+0x128>
     738:	82 81       	ldd	r24, Z+2	; 0x02
     73a:	88 23       	and	r24, r24
     73c:	19 f0       	breq	.+6      	; 0x744 <LCDDisplay+0x10c>
     73e:	81 30       	cpi	r24, 0x01	; 1
     740:	79 f4       	brne	.+30     	; 0x760 <LCDDisplay+0x128>
     742:	05 c0       	rjmp	.+10     	; 0x74e <LCDDisplay+0x116>
     744:	0e 94 41 2a 	call	0x5482	; 0x5482 <LcdClear>
     748:	8d e9       	ldi	r24, 0x9D	; 157
     74a:	90 e2       	ldi	r25, 0x20	; 32
     74c:	04 c0       	rjmp	.+8      	; 0x756 <LCDDisplay+0x11e>
     74e:	0e 94 41 2a 	call	0x5482	; 0x5482 <LcdClear>
     752:	8a ea       	ldi	r24, 0xAA	; 170
     754:	90 e2       	ldi	r25, 0x20	; 32
     756:	0e 94 1c 2a 	call	0x5438	; 0x5438 <LcdWrite>
     75a:	8f e0       	ldi	r24, 0x0F	; 15
     75c:	0e 94 e7 02 	call	0x5ce	; 0x5ce <LedLight>
     760:	f8 01       	movw	r30, r16
     762:	80 81       	ld	r24, Z
     764:	82 30       	cpi	r24, 0x02	; 2
     766:	d1 f4       	brne	.+52     	; 0x79c <LCDDisplay+0x164>
     768:	81 81       	ldd	r24, Z+1	; 0x01
     76a:	87 30       	cpi	r24, 0x07	; 7
     76c:	b9 f4       	brne	.+46     	; 0x79c <LCDDisplay+0x164>
     76e:	82 81       	ldd	r24, Z+2	; 0x02
     770:	88 23       	and	r24, r24
     772:	a1 f4       	brne	.+40     	; 0x79c <LCDDisplay+0x164>
     774:	0e 94 41 2a 	call	0x5482	; 0x5482 <LcdClear>
     778:	87 eb       	ldi	r24, 0xB7	; 183
     77a:	90 e2       	ldi	r25, 0x20	; 32
     77c:	0e 94 1c 2a 	call	0x5438	; 0x5438 <LcdWrite>
     780:	8f e0       	ldi	r24, 0x0F	; 15
     782:	0e 94 e7 02 	call	0x5ce	; 0x5ce <LedLight>
     786:	80 e0       	ldi	r24, 0x00	; 0
     788:	61 e0       	ldi	r22, 0x01	; 1
     78a:	0e 94 37 2a 	call	0x546e	; 0x546e <LcdGoto>
     78e:	85 ec       	ldi	r24, 0xC5	; 197
     790:	90 e2       	ldi	r25, 0x20	; 32
     792:	0e 94 1c 2a 	call	0x5438	; 0x5438 <LcdWrite>
     796:	8f e0       	ldi	r24, 0x0F	; 15
     798:	0e 94 e7 02 	call	0x5ce	; 0x5ce <LedLight>
     79c:	f8 01       	movw	r30, r16
     79e:	80 81       	ld	r24, Z
     7a0:	83 30       	cpi	r24, 0x03	; 3
     7a2:	09 f0       	breq	.+2      	; 0x7a6 <LCDDisplay+0x16e>
     7a4:	83 c2       	rjmp	.+1286   	; 0xcac <LCDDisplay+0x674>
     7a6:	e8 01       	movw	r28, r16
     7a8:	21 96       	adiw	r28, 0x01	; 1
     7aa:	81 81       	ldd	r24, Z+1	; 0x01
     7ac:	88 23       	and	r24, r24
     7ae:	09 f4       	brne	.+2      	; 0x7b2 <LCDDisplay+0x17a>
     7b0:	7d c2       	rjmp	.+1274   	; 0xcac <LCDDisplay+0x674>
     7b2:	87 30       	cpi	r24, 0x07	; 7
     7b4:	08 f0       	brcs	.+2      	; 0x7b8 <LCDDisplay+0x180>
     7b6:	7a c2       	rjmp	.+1268   	; 0xcac <LCDDisplay+0x674>
     7b8:	82 81       	ldd	r24, Z+2	; 0x02
     7ba:	81 30       	cpi	r24, 0x01	; 1
     7bc:	09 f0       	breq	.+2      	; 0x7c0 <LCDDisplay+0x188>
     7be:	76 c2       	rjmp	.+1260   	; 0xcac <LCDDisplay+0x674>
     7c0:	bb 24       	eor	r11, r11
     7c2:	b3 94       	inc	r11
     7c4:	92 e6       	ldi	r25, 0x62	; 98
     7c6:	c9 2e       	mov	r12, r25
     7c8:	d1 2c       	mov	r13, r1
     7ca:	80 e2       	ldi	r24, 0x20	; 32
     7cc:	e8 2e       	mov	r14, r24
     7ce:	83 e0       	ldi	r24, 0x03	; 3
     7d0:	f8 2e       	mov	r15, r24
     7d2:	b0 92 ee 20 	sts	0x20EE, r11
     7d6:	88 81       	ld	r24, Y
     7d8:	81 30       	cpi	r24, 0x01	; 1
     7da:	09 f0       	breq	.+2      	; 0x7de <LCDDisplay+0x1a6>
     7dc:	61 c0       	rjmp	.+194    	; 0x8a0 <LCDDisplay+0x268>
     7de:	0e 94 41 2a 	call	0x5482	; 0x5482 <LcdClear>
     7e2:	8a ea       	ldi	r24, 0xAA	; 170
     7e4:	90 e2       	ldi	r25, 0x20	; 32
     7e6:	0e 94 1c 2a 	call	0x5438	; 0x5438 <LcdWrite>
     7ea:	81 e0       	ldi	r24, 0x01	; 1
     7ec:	60 e0       	ldi	r22, 0x00	; 0
     7ee:	0e 94 37 2a 	call	0x546e	; 0x546e <LcdGoto>
     7f2:	83 ed       	ldi	r24, 0xD3	; 211
     7f4:	90 e2       	ldi	r25, 0x20	; 32
     7f6:	0e 94 1c 2a 	call	0x5438	; 0x5438 <LcdWrite>
     7fa:	8b e0       	ldi	r24, 0x0B	; 11
     7fc:	0e 94 e7 02 	call	0x5ce	; 0x5ce <LedLight>
     800:	88 81       	ld	r24, Y
     802:	90 e0       	ldi	r25, 0x00	; 0
     804:	01 97       	sbiw	r24, 0x01	; 1
     806:	8c 9d       	mul	r24, r12
     808:	f0 01       	movw	r30, r0
     80a:	8d 9d       	mul	r24, r13
     80c:	f0 0d       	add	r31, r0
     80e:	9c 9d       	mul	r25, r12
     810:	f0 0d       	add	r31, r0
     812:	11 24       	eor	r1, r1
     814:	ee 59       	subi	r30, 0x9E	; 158
     816:	fe 4d       	sbci	r31, 0xDE	; 222
     818:	60 81       	ld	r22, Z
     81a:	77 27       	eor	r23, r23
     81c:	67 fd       	sbrc	r22, 7
     81e:	70 95       	com	r23
     820:	87 2f       	mov	r24, r23
     822:	97 2f       	mov	r25, r23
     824:	0e 94 a1 2a 	call	0x5542	; 0x5542 <LcdDec>
     828:	80 e2       	ldi	r24, 0x20	; 32
     82a:	93 e0       	ldi	r25, 0x03	; 3
     82c:	f7 01       	movw	r30, r14
     82e:	31 97       	sbiw	r30, 0x01	; 1
     830:	f1 f7       	brne	.-4      	; 0x82e <LCDDisplay+0x1f6>
     832:	01 97       	sbiw	r24, 0x01	; 1
     834:	d9 f7       	brne	.-10     	; 0x82c <LCDDisplay+0x1f4>
     836:	80 91 a8 06 	lds	r24, 0x06A8
     83a:	87 fd       	sbrc	r24, 7
     83c:	16 c0       	rjmp	.+44     	; 0x86a <LCDDisplay+0x232>
     83e:	88 81       	ld	r24, Y
     840:	90 e0       	ldi	r25, 0x00	; 0
     842:	01 97       	sbiw	r24, 0x01	; 1
     844:	8c 9d       	mul	r24, r12
     846:	f0 01       	movw	r30, r0
     848:	8d 9d       	mul	r24, r13
     84a:	f0 0d       	add	r31, r0
     84c:	9c 9d       	mul	r25, r12
     84e:	f0 0d       	add	r31, r0
     850:	11 24       	eor	r1, r1
     852:	ee 59       	subi	r30, 0x9E	; 158
     854:	fe 4d       	sbci	r31, 0xDE	; 222
     856:	80 81       	ld	r24, Z
     858:	8f 5f       	subi	r24, 0xFF	; 255
     85a:	80 83       	st	Z, r24
     85c:	88 e7       	ldi	r24, 0x78	; 120
     85e:	95 e0       	ldi	r25, 0x05	; 5
     860:	f7 01       	movw	r30, r14
     862:	31 97       	sbiw	r30, 0x01	; 1
     864:	f1 f7       	brne	.-4      	; 0x862 <LCDDisplay+0x22a>
     866:	01 97       	sbiw	r24, 0x01	; 1
     868:	d9 f7       	brne	.-10     	; 0x860 <LCDDisplay+0x228>
     86a:	80 91 a8 06 	lds	r24, 0x06A8
     86e:	86 fd       	sbrc	r24, 6
     870:	0a c2       	rjmp	.+1044   	; 0xc86 <LCDDisplay+0x64e>
     872:	88 81       	ld	r24, Y
     874:	90 e0       	ldi	r25, 0x00	; 0
     876:	01 97       	sbiw	r24, 0x01	; 1
     878:	8c 9d       	mul	r24, r12
     87a:	f0 01       	movw	r30, r0
     87c:	8d 9d       	mul	r24, r13
     87e:	f0 0d       	add	r31, r0
     880:	9c 9d       	mul	r25, r12
     882:	f0 0d       	add	r31, r0
     884:	11 24       	eor	r1, r1
     886:	ee 59       	subi	r30, 0x9E	; 158
     888:	fe 4d       	sbci	r31, 0xDE	; 222
     88a:	80 81       	ld	r24, Z
     88c:	81 50       	subi	r24, 0x01	; 1
     88e:	80 83       	st	Z, r24
     890:	88 e7       	ldi	r24, 0x78	; 120
     892:	95 e0       	ldi	r25, 0x05	; 5
     894:	f7 01       	movw	r30, r14
     896:	31 97       	sbiw	r30, 0x01	; 1
     898:	f1 f7       	brne	.-4      	; 0x896 <LCDDisplay+0x25e>
     89a:	01 97       	sbiw	r24, 0x01	; 1
     89c:	d9 f7       	brne	.-10     	; 0x894 <LCDDisplay+0x25c>
     89e:	f3 c1       	rjmp	.+998    	; 0xc86 <LCDDisplay+0x64e>
     8a0:	82 30       	cpi	r24, 0x02	; 2
     8a2:	09 f0       	breq	.+2      	; 0x8a6 <LCDDisplay+0x26e>
     8a4:	61 c0       	rjmp	.+194    	; 0x968 <LCDDisplay+0x330>
     8a6:	0e 94 41 2a 	call	0x5482	; 0x5482 <LcdClear>
     8aa:	8a ea       	ldi	r24, 0xAA	; 170
     8ac:	90 e2       	ldi	r25, 0x20	; 32
     8ae:	0e 94 1c 2a 	call	0x5438	; 0x5438 <LcdWrite>
     8b2:	8b e0       	ldi	r24, 0x0B	; 11
     8b4:	0e 94 e7 02 	call	0x5ce	; 0x5ce <LedLight>
     8b8:	81 e0       	ldi	r24, 0x01	; 1
     8ba:	60 e0       	ldi	r22, 0x00	; 0
     8bc:	0e 94 37 2a 	call	0x546e	; 0x546e <LcdGoto>
     8c0:	83 ed       	ldi	r24, 0xD3	; 211
     8c2:	90 e2       	ldi	r25, 0x20	; 32
     8c4:	0e 94 1c 2a 	call	0x5438	; 0x5438 <LcdWrite>
     8c8:	88 81       	ld	r24, Y
     8ca:	90 e0       	ldi	r25, 0x00	; 0
     8cc:	01 97       	sbiw	r24, 0x01	; 1
     8ce:	8c 9d       	mul	r24, r12
     8d0:	f0 01       	movw	r30, r0
     8d2:	8d 9d       	mul	r24, r13
     8d4:	f0 0d       	add	r31, r0
     8d6:	9c 9d       	mul	r25, r12
     8d8:	f0 0d       	add	r31, r0
     8da:	11 24       	eor	r1, r1
     8dc:	ee 59       	subi	r30, 0x9E	; 158
     8de:	fe 4d       	sbci	r31, 0xDE	; 222
     8e0:	60 81       	ld	r22, Z
     8e2:	77 27       	eor	r23, r23
     8e4:	67 fd       	sbrc	r22, 7
     8e6:	70 95       	com	r23
     8e8:	87 2f       	mov	r24, r23
     8ea:	97 2f       	mov	r25, r23
     8ec:	0e 94 a1 2a 	call	0x5542	; 0x5542 <LcdDec>
     8f0:	80 e2       	ldi	r24, 0x20	; 32
     8f2:	93 e0       	ldi	r25, 0x03	; 3
     8f4:	f7 01       	movw	r30, r14
     8f6:	31 97       	sbiw	r30, 0x01	; 1
     8f8:	f1 f7       	brne	.-4      	; 0x8f6 <LCDDisplay+0x2be>
     8fa:	01 97       	sbiw	r24, 0x01	; 1
     8fc:	d9 f7       	brne	.-10     	; 0x8f4 <LCDDisplay+0x2bc>
     8fe:	80 91 a8 06 	lds	r24, 0x06A8
     902:	87 fd       	sbrc	r24, 7
     904:	16 c0       	rjmp	.+44     	; 0x932 <LCDDisplay+0x2fa>
     906:	88 81       	ld	r24, Y
     908:	90 e0       	ldi	r25, 0x00	; 0
     90a:	01 97       	sbiw	r24, 0x01	; 1
     90c:	8c 9d       	mul	r24, r12
     90e:	f0 01       	movw	r30, r0
     910:	8d 9d       	mul	r24, r13
     912:	f0 0d       	add	r31, r0
     914:	9c 9d       	mul	r25, r12
     916:	f0 0d       	add	r31, r0
     918:	11 24       	eor	r1, r1
     91a:	ee 59       	subi	r30, 0x9E	; 158
     91c:	fe 4d       	sbci	r31, 0xDE	; 222
     91e:	80 81       	ld	r24, Z
     920:	8f 5f       	subi	r24, 0xFF	; 255
     922:	80 83       	st	Z, r24
     924:	88 e7       	ldi	r24, 0x78	; 120
     926:	95 e0       	ldi	r25, 0x05	; 5
     928:	f7 01       	movw	r30, r14
     92a:	31 97       	sbiw	r30, 0x01	; 1
     92c:	f1 f7       	brne	.-4      	; 0x92a <LCDDisplay+0x2f2>
     92e:	01 97       	sbiw	r24, 0x01	; 1
     930:	d9 f7       	brne	.-10     	; 0x928 <LCDDisplay+0x2f0>
     932:	80 91 a8 06 	lds	r24, 0x06A8
     936:	86 fd       	sbrc	r24, 6
     938:	a6 c1       	rjmp	.+844    	; 0xc86 <LCDDisplay+0x64e>
     93a:	88 81       	ld	r24, Y
     93c:	90 e0       	ldi	r25, 0x00	; 0
     93e:	01 97       	sbiw	r24, 0x01	; 1
     940:	8c 9d       	mul	r24, r12
     942:	f0 01       	movw	r30, r0
     944:	8d 9d       	mul	r24, r13
     946:	f0 0d       	add	r31, r0
     948:	9c 9d       	mul	r25, r12
     94a:	f0 0d       	add	r31, r0
     94c:	11 24       	eor	r1, r1
     94e:	ee 59       	subi	r30, 0x9E	; 158
     950:	fe 4d       	sbci	r31, 0xDE	; 222
     952:	80 81       	ld	r24, Z
     954:	81 50       	subi	r24, 0x01	; 1
     956:	80 83       	st	Z, r24
     958:	88 e7       	ldi	r24, 0x78	; 120
     95a:	95 e0       	ldi	r25, 0x05	; 5
     95c:	f7 01       	movw	r30, r14
     95e:	31 97       	sbiw	r30, 0x01	; 1
     960:	f1 f7       	brne	.-4      	; 0x95e <LCDDisplay+0x326>
     962:	01 97       	sbiw	r24, 0x01	; 1
     964:	d9 f7       	brne	.-10     	; 0x95c <LCDDisplay+0x324>
     966:	8f c1       	rjmp	.+798    	; 0xc86 <LCDDisplay+0x64e>
     968:	83 30       	cpi	r24, 0x03	; 3
     96a:	09 f0       	breq	.+2      	; 0x96e <LCDDisplay+0x336>
     96c:	61 c0       	rjmp	.+194    	; 0xa30 <LCDDisplay+0x3f8>
     96e:	0e 94 41 2a 	call	0x5482	; 0x5482 <LcdClear>
     972:	8a ea       	ldi	r24, 0xAA	; 170
     974:	90 e2       	ldi	r25, 0x20	; 32
     976:	0e 94 1c 2a 	call	0x5438	; 0x5438 <LcdWrite>
     97a:	81 e0       	ldi	r24, 0x01	; 1
     97c:	60 e0       	ldi	r22, 0x00	; 0
     97e:	0e 94 37 2a 	call	0x546e	; 0x546e <LcdGoto>
     982:	83 ed       	ldi	r24, 0xD3	; 211
     984:	90 e2       	ldi	r25, 0x20	; 32
     986:	0e 94 1c 2a 	call	0x5438	; 0x5438 <LcdWrite>
     98a:	8b e0       	ldi	r24, 0x0B	; 11
     98c:	0e 94 e7 02 	call	0x5ce	; 0x5ce <LedLight>
     990:	88 81       	ld	r24, Y
     992:	90 e0       	ldi	r25, 0x00	; 0
     994:	01 97       	sbiw	r24, 0x01	; 1
     996:	8c 9d       	mul	r24, r12
     998:	f0 01       	movw	r30, r0
     99a:	8d 9d       	mul	r24, r13
     99c:	f0 0d       	add	r31, r0
     99e:	9c 9d       	mul	r25, r12
     9a0:	f0 0d       	add	r31, r0
     9a2:	11 24       	eor	r1, r1
     9a4:	ee 59       	subi	r30, 0x9E	; 158
     9a6:	fe 4d       	sbci	r31, 0xDE	; 222
     9a8:	60 81       	ld	r22, Z
     9aa:	77 27       	eor	r23, r23
     9ac:	67 fd       	sbrc	r22, 7
     9ae:	70 95       	com	r23
     9b0:	87 2f       	mov	r24, r23
     9b2:	97 2f       	mov	r25, r23
     9b4:	0e 94 a1 2a 	call	0x5542	; 0x5542 <LcdDec>
     9b8:	80 e2       	ldi	r24, 0x20	; 32
     9ba:	93 e0       	ldi	r25, 0x03	; 3
     9bc:	f7 01       	movw	r30, r14
     9be:	31 97       	sbiw	r30, 0x01	; 1
     9c0:	f1 f7       	brne	.-4      	; 0x9be <LCDDisplay+0x386>
     9c2:	01 97       	sbiw	r24, 0x01	; 1
     9c4:	d9 f7       	brne	.-10     	; 0x9bc <LCDDisplay+0x384>
     9c6:	80 91 a8 06 	lds	r24, 0x06A8
     9ca:	87 fd       	sbrc	r24, 7
     9cc:	16 c0       	rjmp	.+44     	; 0x9fa <LCDDisplay+0x3c2>
     9ce:	88 81       	ld	r24, Y
     9d0:	90 e0       	ldi	r25, 0x00	; 0
     9d2:	01 97       	sbiw	r24, 0x01	; 1
     9d4:	8c 9d       	mul	r24, r12
     9d6:	f0 01       	movw	r30, r0
     9d8:	8d 9d       	mul	r24, r13
     9da:	f0 0d       	add	r31, r0
     9dc:	9c 9d       	mul	r25, r12
     9de:	f0 0d       	add	r31, r0
     9e0:	11 24       	eor	r1, r1
     9e2:	ee 59       	subi	r30, 0x9E	; 158
     9e4:	fe 4d       	sbci	r31, 0xDE	; 222
     9e6:	80 81       	ld	r24, Z
     9e8:	8f 5f       	subi	r24, 0xFF	; 255
     9ea:	80 83       	st	Z, r24
     9ec:	88 e7       	ldi	r24, 0x78	; 120
     9ee:	95 e0       	ldi	r25, 0x05	; 5
     9f0:	f7 01       	movw	r30, r14
     9f2:	31 97       	sbiw	r30, 0x01	; 1
     9f4:	f1 f7       	brne	.-4      	; 0x9f2 <LCDDisplay+0x3ba>
     9f6:	01 97       	sbiw	r24, 0x01	; 1
     9f8:	d9 f7       	brne	.-10     	; 0x9f0 <LCDDisplay+0x3b8>
     9fa:	80 91 a8 06 	lds	r24, 0x06A8
     9fe:	86 fd       	sbrc	r24, 6
     a00:	42 c1       	rjmp	.+644    	; 0xc86 <LCDDisplay+0x64e>
     a02:	88 81       	ld	r24, Y
     a04:	90 e0       	ldi	r25, 0x00	; 0
     a06:	01 97       	sbiw	r24, 0x01	; 1
     a08:	8c 9d       	mul	r24, r12
     a0a:	f0 01       	movw	r30, r0
     a0c:	8d 9d       	mul	r24, r13
     a0e:	f0 0d       	add	r31, r0
     a10:	9c 9d       	mul	r25, r12
     a12:	f0 0d       	add	r31, r0
     a14:	11 24       	eor	r1, r1
     a16:	ee 59       	subi	r30, 0x9E	; 158
     a18:	fe 4d       	sbci	r31, 0xDE	; 222
     a1a:	80 81       	ld	r24, Z
     a1c:	81 50       	subi	r24, 0x01	; 1
     a1e:	80 83       	st	Z, r24
     a20:	88 e7       	ldi	r24, 0x78	; 120
     a22:	95 e0       	ldi	r25, 0x05	; 5
     a24:	f7 01       	movw	r30, r14
     a26:	31 97       	sbiw	r30, 0x01	; 1
     a28:	f1 f7       	brne	.-4      	; 0xa26 <LCDDisplay+0x3ee>
     a2a:	01 97       	sbiw	r24, 0x01	; 1
     a2c:	d9 f7       	brne	.-10     	; 0xa24 <LCDDisplay+0x3ec>
     a2e:	2b c1       	rjmp	.+598    	; 0xc86 <LCDDisplay+0x64e>
     a30:	84 30       	cpi	r24, 0x04	; 4
     a32:	09 f0       	breq	.+2      	; 0xa36 <LCDDisplay+0x3fe>
     a34:	61 c0       	rjmp	.+194    	; 0xaf8 <LCDDisplay+0x4c0>
     a36:	0e 94 41 2a 	call	0x5482	; 0x5482 <LcdClear>
     a3a:	8a ea       	ldi	r24, 0xAA	; 170
     a3c:	90 e2       	ldi	r25, 0x20	; 32
     a3e:	0e 94 1c 2a 	call	0x5438	; 0x5438 <LcdWrite>
     a42:	81 e0       	ldi	r24, 0x01	; 1
     a44:	60 e0       	ldi	r22, 0x00	; 0
     a46:	0e 94 37 2a 	call	0x546e	; 0x546e <LcdGoto>
     a4a:	83 ed       	ldi	r24, 0xD3	; 211
     a4c:	90 e2       	ldi	r25, 0x20	; 32
     a4e:	0e 94 1c 2a 	call	0x5438	; 0x5438 <LcdWrite>
     a52:	8b e0       	ldi	r24, 0x0B	; 11
     a54:	0e 94 e7 02 	call	0x5ce	; 0x5ce <LedLight>
     a58:	88 81       	ld	r24, Y
     a5a:	90 e0       	ldi	r25, 0x00	; 0
     a5c:	01 97       	sbiw	r24, 0x01	; 1
     a5e:	8c 9d       	mul	r24, r12
     a60:	f0 01       	movw	r30, r0
     a62:	8d 9d       	mul	r24, r13
     a64:	f0 0d       	add	r31, r0
     a66:	9c 9d       	mul	r25, r12
     a68:	f0 0d       	add	r31, r0
     a6a:	11 24       	eor	r1, r1
     a6c:	ee 59       	subi	r30, 0x9E	; 158
     a6e:	fe 4d       	sbci	r31, 0xDE	; 222
     a70:	60 81       	ld	r22, Z
     a72:	77 27       	eor	r23, r23
     a74:	67 fd       	sbrc	r22, 7
     a76:	70 95       	com	r23
     a78:	87 2f       	mov	r24, r23
     a7a:	97 2f       	mov	r25, r23
     a7c:	0e 94 a1 2a 	call	0x5542	; 0x5542 <LcdDec>
     a80:	80 e2       	ldi	r24, 0x20	; 32
     a82:	93 e0       	ldi	r25, 0x03	; 3
     a84:	f7 01       	movw	r30, r14
     a86:	31 97       	sbiw	r30, 0x01	; 1
     a88:	f1 f7       	brne	.-4      	; 0xa86 <LCDDisplay+0x44e>
     a8a:	01 97       	sbiw	r24, 0x01	; 1
     a8c:	d9 f7       	brne	.-10     	; 0xa84 <LCDDisplay+0x44c>
     a8e:	80 91 a8 06 	lds	r24, 0x06A8
     a92:	87 fd       	sbrc	r24, 7
     a94:	16 c0       	rjmp	.+44     	; 0xac2 <LCDDisplay+0x48a>
     a96:	88 81       	ld	r24, Y
     a98:	90 e0       	ldi	r25, 0x00	; 0
     a9a:	01 97       	sbiw	r24, 0x01	; 1
     a9c:	8c 9d       	mul	r24, r12
     a9e:	f0 01       	movw	r30, r0
     aa0:	8d 9d       	mul	r24, r13
     aa2:	f0 0d       	add	r31, r0
     aa4:	9c 9d       	mul	r25, r12
     aa6:	f0 0d       	add	r31, r0
     aa8:	11 24       	eor	r1, r1
     aaa:	ee 59       	subi	r30, 0x9E	; 158
     aac:	fe 4d       	sbci	r31, 0xDE	; 222
     aae:	80 81       	ld	r24, Z
     ab0:	8f 5f       	subi	r24, 0xFF	; 255
     ab2:	80 83       	st	Z, r24
     ab4:	88 e7       	ldi	r24, 0x78	; 120
     ab6:	95 e0       	ldi	r25, 0x05	; 5
     ab8:	f7 01       	movw	r30, r14
     aba:	31 97       	sbiw	r30, 0x01	; 1
     abc:	f1 f7       	brne	.-4      	; 0xaba <LCDDisplay+0x482>
     abe:	01 97       	sbiw	r24, 0x01	; 1
     ac0:	d9 f7       	brne	.-10     	; 0xab8 <LCDDisplay+0x480>
     ac2:	80 91 a8 06 	lds	r24, 0x06A8
     ac6:	86 fd       	sbrc	r24, 6
     ac8:	de c0       	rjmp	.+444    	; 0xc86 <LCDDisplay+0x64e>
     aca:	88 81       	ld	r24, Y
     acc:	90 e0       	ldi	r25, 0x00	; 0
     ace:	01 97       	sbiw	r24, 0x01	; 1
     ad0:	8c 9d       	mul	r24, r12
     ad2:	f0 01       	movw	r30, r0
     ad4:	8d 9d       	mul	r24, r13
     ad6:	f0 0d       	add	r31, r0
     ad8:	9c 9d       	mul	r25, r12
     ada:	f0 0d       	add	r31, r0
     adc:	11 24       	eor	r1, r1
     ade:	ee 59       	subi	r30, 0x9E	; 158
     ae0:	fe 4d       	sbci	r31, 0xDE	; 222
     ae2:	80 81       	ld	r24, Z
     ae4:	81 50       	subi	r24, 0x01	; 1
     ae6:	80 83       	st	Z, r24
     ae8:	88 e7       	ldi	r24, 0x78	; 120
     aea:	95 e0       	ldi	r25, 0x05	; 5
     aec:	f7 01       	movw	r30, r14
     aee:	31 97       	sbiw	r30, 0x01	; 1
     af0:	f1 f7       	brne	.-4      	; 0xaee <LCDDisplay+0x4b6>
     af2:	01 97       	sbiw	r24, 0x01	; 1
     af4:	d9 f7       	brne	.-10     	; 0xaec <LCDDisplay+0x4b4>
     af6:	c7 c0       	rjmp	.+398    	; 0xc86 <LCDDisplay+0x64e>
     af8:	85 30       	cpi	r24, 0x05	; 5
     afa:	09 f0       	breq	.+2      	; 0xafe <LCDDisplay+0x4c6>
     afc:	61 c0       	rjmp	.+194    	; 0xbc0 <LCDDisplay+0x588>
     afe:	0e 94 41 2a 	call	0x5482	; 0x5482 <LcdClear>
     b02:	8a ea       	ldi	r24, 0xAA	; 170
     b04:	90 e2       	ldi	r25, 0x20	; 32
     b06:	0e 94 1c 2a 	call	0x5438	; 0x5438 <LcdWrite>
     b0a:	81 e0       	ldi	r24, 0x01	; 1
     b0c:	60 e0       	ldi	r22, 0x00	; 0
     b0e:	0e 94 37 2a 	call	0x546e	; 0x546e <LcdGoto>
     b12:	83 ed       	ldi	r24, 0xD3	; 211
     b14:	90 e2       	ldi	r25, 0x20	; 32
     b16:	0e 94 1c 2a 	call	0x5438	; 0x5438 <LcdWrite>
     b1a:	8b e0       	ldi	r24, 0x0B	; 11
     b1c:	0e 94 e7 02 	call	0x5ce	; 0x5ce <LedLight>
     b20:	88 81       	ld	r24, Y
     b22:	90 e0       	ldi	r25, 0x00	; 0
     b24:	01 97       	sbiw	r24, 0x01	; 1
     b26:	8c 9d       	mul	r24, r12
     b28:	f0 01       	movw	r30, r0
     b2a:	8d 9d       	mul	r24, r13
     b2c:	f0 0d       	add	r31, r0
     b2e:	9c 9d       	mul	r25, r12
     b30:	f0 0d       	add	r31, r0
     b32:	11 24       	eor	r1, r1
     b34:	ee 59       	subi	r30, 0x9E	; 158
     b36:	fe 4d       	sbci	r31, 0xDE	; 222
     b38:	60 81       	ld	r22, Z
     b3a:	77 27       	eor	r23, r23
     b3c:	67 fd       	sbrc	r22, 7
     b3e:	70 95       	com	r23
     b40:	87 2f       	mov	r24, r23
     b42:	97 2f       	mov	r25, r23
     b44:	0e 94 a1 2a 	call	0x5542	; 0x5542 <LcdDec>
     b48:	80 e2       	ldi	r24, 0x20	; 32
     b4a:	93 e0       	ldi	r25, 0x03	; 3
     b4c:	f7 01       	movw	r30, r14
     b4e:	31 97       	sbiw	r30, 0x01	; 1
     b50:	f1 f7       	brne	.-4      	; 0xb4e <LCDDisplay+0x516>
     b52:	01 97       	sbiw	r24, 0x01	; 1
     b54:	d9 f7       	brne	.-10     	; 0xb4c <LCDDisplay+0x514>
     b56:	80 91 a8 06 	lds	r24, 0x06A8
     b5a:	87 fd       	sbrc	r24, 7
     b5c:	16 c0       	rjmp	.+44     	; 0xb8a <LCDDisplay+0x552>
     b5e:	88 81       	ld	r24, Y
     b60:	90 e0       	ldi	r25, 0x00	; 0
     b62:	01 97       	sbiw	r24, 0x01	; 1
     b64:	8c 9d       	mul	r24, r12
     b66:	f0 01       	movw	r30, r0
     b68:	8d 9d       	mul	r24, r13
     b6a:	f0 0d       	add	r31, r0
     b6c:	9c 9d       	mul	r25, r12
     b6e:	f0 0d       	add	r31, r0
     b70:	11 24       	eor	r1, r1
     b72:	ee 59       	subi	r30, 0x9E	; 158
     b74:	fe 4d       	sbci	r31, 0xDE	; 222
     b76:	80 81       	ld	r24, Z
     b78:	8f 5f       	subi	r24, 0xFF	; 255
     b7a:	80 83       	st	Z, r24
     b7c:	88 e7       	ldi	r24, 0x78	; 120
     b7e:	95 e0       	ldi	r25, 0x05	; 5
     b80:	f7 01       	movw	r30, r14
     b82:	31 97       	sbiw	r30, 0x01	; 1
     b84:	f1 f7       	brne	.-4      	; 0xb82 <LCDDisplay+0x54a>
     b86:	01 97       	sbiw	r24, 0x01	; 1
     b88:	d9 f7       	brne	.-10     	; 0xb80 <LCDDisplay+0x548>
     b8a:	80 91 a8 06 	lds	r24, 0x06A8
     b8e:	86 fd       	sbrc	r24, 6
     b90:	7a c0       	rjmp	.+244    	; 0xc86 <LCDDisplay+0x64e>
     b92:	88 81       	ld	r24, Y
     b94:	90 e0       	ldi	r25, 0x00	; 0
     b96:	01 97       	sbiw	r24, 0x01	; 1
     b98:	8c 9d       	mul	r24, r12
     b9a:	f0 01       	movw	r30, r0
     b9c:	8d 9d       	mul	r24, r13
     b9e:	f0 0d       	add	r31, r0
     ba0:	9c 9d       	mul	r25, r12
     ba2:	f0 0d       	add	r31, r0
     ba4:	11 24       	eor	r1, r1
     ba6:	ee 59       	subi	r30, 0x9E	; 158
     ba8:	fe 4d       	sbci	r31, 0xDE	; 222
     baa:	80 81       	ld	r24, Z
     bac:	81 50       	subi	r24, 0x01	; 1
     bae:	80 83       	st	Z, r24
     bb0:	88 e7       	ldi	r24, 0x78	; 120
     bb2:	95 e0       	ldi	r25, 0x05	; 5
     bb4:	f7 01       	movw	r30, r14
     bb6:	31 97       	sbiw	r30, 0x01	; 1
     bb8:	f1 f7       	brne	.-4      	; 0xbb6 <LCDDisplay+0x57e>
     bba:	01 97       	sbiw	r24, 0x01	; 1
     bbc:	d9 f7       	brne	.-10     	; 0xbb4 <LCDDisplay+0x57c>
     bbe:	63 c0       	rjmp	.+198    	; 0xc86 <LCDDisplay+0x64e>
     bc0:	86 30       	cpi	r24, 0x06	; 6
     bc2:	09 f0       	breq	.+2      	; 0xbc6 <LCDDisplay+0x58e>
     bc4:	60 c0       	rjmp	.+192    	; 0xc86 <LCDDisplay+0x64e>
     bc6:	0e 94 41 2a 	call	0x5482	; 0x5482 <LcdClear>
     bca:	8a ea       	ldi	r24, 0xAA	; 170
     bcc:	90 e2       	ldi	r25, 0x20	; 32
     bce:	0e 94 1c 2a 	call	0x5438	; 0x5438 <LcdWrite>
     bd2:	81 e0       	ldi	r24, 0x01	; 1
     bd4:	60 e0       	ldi	r22, 0x00	; 0
     bd6:	0e 94 37 2a 	call	0x546e	; 0x546e <LcdGoto>
     bda:	83 ed       	ldi	r24, 0xD3	; 211
     bdc:	90 e2       	ldi	r25, 0x20	; 32
     bde:	0e 94 1c 2a 	call	0x5438	; 0x5438 <LcdWrite>
     be2:	8b e0       	ldi	r24, 0x0B	; 11
     be4:	0e 94 e7 02 	call	0x5ce	; 0x5ce <LedLight>
     be8:	88 81       	ld	r24, Y
     bea:	90 e0       	ldi	r25, 0x00	; 0
     bec:	01 97       	sbiw	r24, 0x01	; 1
     bee:	8c 9d       	mul	r24, r12
     bf0:	f0 01       	movw	r30, r0
     bf2:	8d 9d       	mul	r24, r13
     bf4:	f0 0d       	add	r31, r0
     bf6:	9c 9d       	mul	r25, r12
     bf8:	f0 0d       	add	r31, r0
     bfa:	11 24       	eor	r1, r1
     bfc:	ee 59       	subi	r30, 0x9E	; 158
     bfe:	fe 4d       	sbci	r31, 0xDE	; 222
     c00:	60 81       	ld	r22, Z
     c02:	77 27       	eor	r23, r23
     c04:	67 fd       	sbrc	r22, 7
     c06:	70 95       	com	r23
     c08:	87 2f       	mov	r24, r23
     c0a:	97 2f       	mov	r25, r23
     c0c:	0e 94 a1 2a 	call	0x5542	; 0x5542 <LcdDec>
     c10:	80 e2       	ldi	r24, 0x20	; 32
     c12:	93 e0       	ldi	r25, 0x03	; 3
     c14:	f7 01       	movw	r30, r14
     c16:	31 97       	sbiw	r30, 0x01	; 1
     c18:	f1 f7       	brne	.-4      	; 0xc16 <LCDDisplay+0x5de>
     c1a:	01 97       	sbiw	r24, 0x01	; 1
     c1c:	d9 f7       	brne	.-10     	; 0xc14 <LCDDisplay+0x5dc>
     c1e:	80 91 a8 06 	lds	r24, 0x06A8
     c22:	87 fd       	sbrc	r24, 7
     c24:	16 c0       	rjmp	.+44     	; 0xc52 <LCDDisplay+0x61a>
     c26:	88 81       	ld	r24, Y
     c28:	90 e0       	ldi	r25, 0x00	; 0
     c2a:	01 97       	sbiw	r24, 0x01	; 1
     c2c:	8c 9d       	mul	r24, r12
     c2e:	f0 01       	movw	r30, r0
     c30:	8d 9d       	mul	r24, r13
     c32:	f0 0d       	add	r31, r0
     c34:	9c 9d       	mul	r25, r12
     c36:	f0 0d       	add	r31, r0
     c38:	11 24       	eor	r1, r1
     c3a:	ee 59       	subi	r30, 0x9E	; 158
     c3c:	fe 4d       	sbci	r31, 0xDE	; 222
     c3e:	80 81       	ld	r24, Z
     c40:	8f 5f       	subi	r24, 0xFF	; 255
     c42:	80 83       	st	Z, r24
     c44:	88 e7       	ldi	r24, 0x78	; 120
     c46:	95 e0       	ldi	r25, 0x05	; 5
     c48:	f7 01       	movw	r30, r14
     c4a:	31 97       	sbiw	r30, 0x01	; 1
     c4c:	f1 f7       	brne	.-4      	; 0xc4a <LCDDisplay+0x612>
     c4e:	01 97       	sbiw	r24, 0x01	; 1
     c50:	d9 f7       	brne	.-10     	; 0xc48 <LCDDisplay+0x610>
     c52:	80 91 a8 06 	lds	r24, 0x06A8
     c56:	86 fd       	sbrc	r24, 6
     c58:	16 c0       	rjmp	.+44     	; 0xc86 <LCDDisplay+0x64e>
     c5a:	88 81       	ld	r24, Y
     c5c:	90 e0       	ldi	r25, 0x00	; 0
     c5e:	01 97       	sbiw	r24, 0x01	; 1
     c60:	8c 9d       	mul	r24, r12
     c62:	f0 01       	movw	r30, r0
     c64:	8d 9d       	mul	r24, r13
     c66:	f0 0d       	add	r31, r0
     c68:	9c 9d       	mul	r25, r12
     c6a:	f0 0d       	add	r31, r0
     c6c:	11 24       	eor	r1, r1
     c6e:	ee 59       	subi	r30, 0x9E	; 158
     c70:	fe 4d       	sbci	r31, 0xDE	; 222
     c72:	80 81       	ld	r24, Z
     c74:	81 50       	subi	r24, 0x01	; 1
     c76:	80 83       	st	Z, r24
     c78:	88 e7       	ldi	r24, 0x78	; 120
     c7a:	95 e0       	ldi	r25, 0x05	; 5
     c7c:	f7 01       	movw	r30, r14
     c7e:	31 97       	sbiw	r30, 0x01	; 1
     c80:	f1 f7       	brne	.-4      	; 0xc7e <LCDDisplay+0x646>
     c82:	01 97       	sbiw	r24, 0x01	; 1
     c84:	d9 f7       	brne	.-10     	; 0xc7c <LCDDisplay+0x644>
     c86:	80 91 28 07 	lds	r24, 0x0728
     c8a:	86 fd       	sbrc	r24, 6
     c8c:	a2 cd       	rjmp	.-1212   	; 0x7d2 <LCDDisplay+0x19a>
     c8e:	f8 01       	movw	r30, r16
     c90:	80 81       	ld	r24, Z
     c92:	81 50       	subi	r24, 0x01	; 1
     c94:	80 83       	st	Z, r24
     c96:	0e 94 41 2a 	call	0x5482	; 0x5482 <LcdClear>
     c9a:	8a ea       	ldi	r24, 0xAA	; 170
     c9c:	90 e2       	ldi	r25, 0x20	; 32
     c9e:	0e 94 1c 2a 	call	0x5438	; 0x5438 <LcdWrite>
     ca2:	8f e0       	ldi	r24, 0x0F	; 15
     ca4:	0e 94 e7 02 	call	0x5ce	; 0x5ce <LedLight>
     ca8:	10 92 ee 20 	sts	0x20EE, r1
     cac:	f8 01       	movw	r30, r16
     cae:	80 81       	ld	r24, Z
     cb0:	83 30       	cpi	r24, 0x03	; 3
     cb2:	09 f0       	breq	.+2      	; 0xcb6 <LCDDisplay+0x67e>
     cb4:	f3 c0       	rjmp	.+486    	; 0xe9c <LCDDisplay+0x864>
     cb6:	e8 01       	movw	r28, r16
     cb8:	21 96       	adiw	r28, 0x01	; 1
     cba:	81 81       	ldd	r24, Z+1	; 0x01
     cbc:	88 23       	and	r24, r24
     cbe:	09 f4       	brne	.+2      	; 0xcc2 <LCDDisplay+0x68a>
     cc0:	ed c0       	rjmp	.+474    	; 0xe9c <LCDDisplay+0x864>
     cc2:	88 30       	cpi	r24, 0x08	; 8
     cc4:	08 f0       	brcs	.+2      	; 0xcc8 <LCDDisplay+0x690>
     cc6:	ea c0       	rjmp	.+468    	; 0xe9c <LCDDisplay+0x864>
     cc8:	82 81       	ldd	r24, Z+2	; 0x02
     cca:	88 23       	and	r24, r24
     ccc:	09 f0       	breq	.+2      	; 0xcd0 <LCDDisplay+0x698>
     cce:	e6 c0       	rjmp	.+460    	; 0xe9c <LCDDisplay+0x864>
     cd0:	0e 94 41 2a 	call	0x5482	; 0x5482 <LcdClear>
     cd4:	8d ed       	ldi	r24, 0xDD	; 221
     cd6:	90 e2       	ldi	r25, 0x20	; 32
     cd8:	0e 94 1c 2a 	call	0x5438	; 0x5438 <LcdWrite>
     cdc:	8b e0       	ldi	r24, 0x0B	; 11
     cde:	0e 94 e7 02 	call	0x5ce	; 0x5ce <LedLight>
     ce2:	ff 24       	eor	r15, r15
     ce4:	f3 94       	inc	r15
     ce6:	f0 92 ee 20 	sts	0x20EE, r15
     cea:	88 81       	ld	r24, Y
     cec:	81 30       	cpi	r24, 0x01	; 1
     cee:	d1 f4       	brne	.+52     	; 0xd24 <LCDDisplay+0x6ec>
     cf0:	80 91 a8 06 	lds	r24, 0x06A8
     cf4:	87 fd       	sbrc	r24, 7
     cf6:	04 c0       	rjmp	.+8      	; 0xd00 <LCDDisplay+0x6c8>
     cf8:	80 e0       	ldi	r24, 0x00	; 0
     cfa:	61 e0       	ldi	r22, 0x01	; 1
     cfc:	0e 94 43 0e 	call	0x1c86	; 0x1c86 <Onlinecontrol>
     d00:	80 91 a8 06 	lds	r24, 0x06A8
     d04:	86 fd       	sbrc	r24, 6
     d06:	04 c0       	rjmp	.+8      	; 0xd10 <LCDDisplay+0x6d8>
     d08:	80 e0       	ldi	r24, 0x00	; 0
     d0a:	62 e0       	ldi	r22, 0x02	; 2
     d0c:	0e 94 43 0e 	call	0x1c86	; 0x1c86 <Onlinecontrol>
     d10:	80 91 a8 06 	lds	r24, 0x06A8
     d14:	87 ff       	sbrs	r24, 7
     d16:	b0 c0       	rjmp	.+352    	; 0xe78 <LCDDisplay+0x840>
     d18:	80 91 a8 06 	lds	r24, 0x06A8
     d1c:	86 ff       	sbrs	r24, 6
     d1e:	ac c0       	rjmp	.+344    	; 0xe78 <LCDDisplay+0x840>
     d20:	80 e0       	ldi	r24, 0x00	; 0
     d22:	a7 c0       	rjmp	.+334    	; 0xe72 <LCDDisplay+0x83a>
     d24:	82 30       	cpi	r24, 0x02	; 2
     d26:	d1 f4       	brne	.+52     	; 0xd5c <LCDDisplay+0x724>
     d28:	80 91 a8 06 	lds	r24, 0x06A8
     d2c:	87 fd       	sbrc	r24, 7
     d2e:	04 c0       	rjmp	.+8      	; 0xd38 <LCDDisplay+0x700>
     d30:	81 e0       	ldi	r24, 0x01	; 1
     d32:	61 e0       	ldi	r22, 0x01	; 1
     d34:	0e 94 43 0e 	call	0x1c86	; 0x1c86 <Onlinecontrol>
     d38:	80 91 a8 06 	lds	r24, 0x06A8
     d3c:	86 fd       	sbrc	r24, 6
     d3e:	04 c0       	rjmp	.+8      	; 0xd48 <LCDDisplay+0x710>
     d40:	81 e0       	ldi	r24, 0x01	; 1
     d42:	62 e0       	ldi	r22, 0x02	; 2
     d44:	0e 94 43 0e 	call	0x1c86	; 0x1c86 <Onlinecontrol>
     d48:	80 91 a8 06 	lds	r24, 0x06A8
     d4c:	87 ff       	sbrs	r24, 7
     d4e:	94 c0       	rjmp	.+296    	; 0xe78 <LCDDisplay+0x840>
     d50:	80 91 a8 06 	lds	r24, 0x06A8
     d54:	86 ff       	sbrs	r24, 6
     d56:	90 c0       	rjmp	.+288    	; 0xe78 <LCDDisplay+0x840>
     d58:	81 e0       	ldi	r24, 0x01	; 1
     d5a:	8b c0       	rjmp	.+278    	; 0xe72 <LCDDisplay+0x83a>
     d5c:	83 30       	cpi	r24, 0x03	; 3
     d5e:	d1 f4       	brne	.+52     	; 0xd94 <LCDDisplay+0x75c>
     d60:	80 91 a8 06 	lds	r24, 0x06A8
     d64:	87 fd       	sbrc	r24, 7
     d66:	04 c0       	rjmp	.+8      	; 0xd70 <LCDDisplay+0x738>
     d68:	82 e0       	ldi	r24, 0x02	; 2
     d6a:	61 e0       	ldi	r22, 0x01	; 1
     d6c:	0e 94 43 0e 	call	0x1c86	; 0x1c86 <Onlinecontrol>
     d70:	80 91 a8 06 	lds	r24, 0x06A8
     d74:	86 fd       	sbrc	r24, 6
     d76:	04 c0       	rjmp	.+8      	; 0xd80 <LCDDisplay+0x748>
     d78:	82 e0       	ldi	r24, 0x02	; 2
     d7a:	62 e0       	ldi	r22, 0x02	; 2
     d7c:	0e 94 43 0e 	call	0x1c86	; 0x1c86 <Onlinecontrol>
     d80:	80 91 a8 06 	lds	r24, 0x06A8
     d84:	87 ff       	sbrs	r24, 7
     d86:	78 c0       	rjmp	.+240    	; 0xe78 <LCDDisplay+0x840>
     d88:	80 91 a8 06 	lds	r24, 0x06A8
     d8c:	86 ff       	sbrs	r24, 6
     d8e:	74 c0       	rjmp	.+232    	; 0xe78 <LCDDisplay+0x840>
     d90:	82 e0       	ldi	r24, 0x02	; 2
     d92:	6f c0       	rjmp	.+222    	; 0xe72 <LCDDisplay+0x83a>
     d94:	84 30       	cpi	r24, 0x04	; 4
     d96:	d1 f4       	brne	.+52     	; 0xdcc <LCDDisplay+0x794>
     d98:	80 91 a8 06 	lds	r24, 0x06A8
     d9c:	87 fd       	sbrc	r24, 7
     d9e:	04 c0       	rjmp	.+8      	; 0xda8 <LCDDisplay+0x770>
     da0:	83 e0       	ldi	r24, 0x03	; 3
     da2:	61 e0       	ldi	r22, 0x01	; 1
     da4:	0e 94 43 0e 	call	0x1c86	; 0x1c86 <Onlinecontrol>
     da8:	80 91 a8 06 	lds	r24, 0x06A8
     dac:	86 fd       	sbrc	r24, 6
     dae:	04 c0       	rjmp	.+8      	; 0xdb8 <LCDDisplay+0x780>
     db0:	83 e0       	ldi	r24, 0x03	; 3
     db2:	62 e0       	ldi	r22, 0x02	; 2
     db4:	0e 94 43 0e 	call	0x1c86	; 0x1c86 <Onlinecontrol>
     db8:	80 91 a8 06 	lds	r24, 0x06A8
     dbc:	87 ff       	sbrs	r24, 7
     dbe:	5c c0       	rjmp	.+184    	; 0xe78 <LCDDisplay+0x840>
     dc0:	80 91 a8 06 	lds	r24, 0x06A8
     dc4:	86 ff       	sbrs	r24, 6
     dc6:	58 c0       	rjmp	.+176    	; 0xe78 <LCDDisplay+0x840>
     dc8:	83 e0       	ldi	r24, 0x03	; 3
     dca:	53 c0       	rjmp	.+166    	; 0xe72 <LCDDisplay+0x83a>
     dcc:	85 30       	cpi	r24, 0x05	; 5
     dce:	d1 f4       	brne	.+52     	; 0xe04 <LCDDisplay+0x7cc>
     dd0:	80 91 a8 06 	lds	r24, 0x06A8
     dd4:	87 fd       	sbrc	r24, 7
     dd6:	04 c0       	rjmp	.+8      	; 0xde0 <LCDDisplay+0x7a8>
     dd8:	84 e0       	ldi	r24, 0x04	; 4
     dda:	61 e0       	ldi	r22, 0x01	; 1
     ddc:	0e 94 43 0e 	call	0x1c86	; 0x1c86 <Onlinecontrol>
     de0:	80 91 a8 06 	lds	r24, 0x06A8
     de4:	86 fd       	sbrc	r24, 6
     de6:	04 c0       	rjmp	.+8      	; 0xdf0 <LCDDisplay+0x7b8>
     de8:	84 e0       	ldi	r24, 0x04	; 4
     dea:	62 e0       	ldi	r22, 0x02	; 2
     dec:	0e 94 43 0e 	call	0x1c86	; 0x1c86 <Onlinecontrol>
     df0:	80 91 a8 06 	lds	r24, 0x06A8
     df4:	87 ff       	sbrs	r24, 7
     df6:	40 c0       	rjmp	.+128    	; 0xe78 <LCDDisplay+0x840>
     df8:	80 91 a8 06 	lds	r24, 0x06A8
     dfc:	86 ff       	sbrs	r24, 6
     dfe:	3c c0       	rjmp	.+120    	; 0xe78 <LCDDisplay+0x840>
     e00:	84 e0       	ldi	r24, 0x04	; 4
     e02:	37 c0       	rjmp	.+110    	; 0xe72 <LCDDisplay+0x83a>
     e04:	86 30       	cpi	r24, 0x06	; 6
     e06:	d1 f4       	brne	.+52     	; 0xe3c <LCDDisplay+0x804>
     e08:	80 91 a8 06 	lds	r24, 0x06A8
     e0c:	87 fd       	sbrc	r24, 7
     e0e:	04 c0       	rjmp	.+8      	; 0xe18 <LCDDisplay+0x7e0>
     e10:	85 e0       	ldi	r24, 0x05	; 5
     e12:	61 e0       	ldi	r22, 0x01	; 1
     e14:	0e 94 43 0e 	call	0x1c86	; 0x1c86 <Onlinecontrol>
     e18:	80 91 a8 06 	lds	r24, 0x06A8
     e1c:	86 fd       	sbrc	r24, 6
     e1e:	04 c0       	rjmp	.+8      	; 0xe28 <LCDDisplay+0x7f0>
     e20:	85 e0       	ldi	r24, 0x05	; 5
     e22:	62 e0       	ldi	r22, 0x02	; 2
     e24:	0e 94 43 0e 	call	0x1c86	; 0x1c86 <Onlinecontrol>
     e28:	80 91 a8 06 	lds	r24, 0x06A8
     e2c:	87 ff       	sbrs	r24, 7
     e2e:	24 c0       	rjmp	.+72     	; 0xe78 <LCDDisplay+0x840>
     e30:	80 91 a8 06 	lds	r24, 0x06A8
     e34:	86 ff       	sbrs	r24, 6
     e36:	20 c0       	rjmp	.+64     	; 0xe78 <LCDDisplay+0x840>
     e38:	85 e0       	ldi	r24, 0x05	; 5
     e3a:	1b c0       	rjmp	.+54     	; 0xe72 <LCDDisplay+0x83a>
     e3c:	87 30       	cpi	r24, 0x07	; 7
     e3e:	e1 f4       	brne	.+56     	; 0xe78 <LCDDisplay+0x840>
     e40:	80 91 a8 06 	lds	r24, 0x06A8
     e44:	87 fd       	sbrc	r24, 7
     e46:	04 c0       	rjmp	.+8      	; 0xe50 <LCDDisplay+0x818>
     e48:	86 e0       	ldi	r24, 0x06	; 6
     e4a:	61 e0       	ldi	r22, 0x01	; 1
     e4c:	0e 94 43 0e 	call	0x1c86	; 0x1c86 <Onlinecontrol>
     e50:	80 91 a8 06 	lds	r24, 0x06A8
     e54:	86 fd       	sbrc	r24, 6
     e56:	04 c0       	rjmp	.+8      	; 0xe60 <LCDDisplay+0x828>
     e58:	86 e0       	ldi	r24, 0x06	; 6
     e5a:	62 e0       	ldi	r22, 0x02	; 2
     e5c:	0e 94 43 0e 	call	0x1c86	; 0x1c86 <Onlinecontrol>
     e60:	80 91 a8 06 	lds	r24, 0x06A8
     e64:	87 ff       	sbrs	r24, 7
     e66:	08 c0       	rjmp	.+16     	; 0xe78 <LCDDisplay+0x840>
     e68:	80 91 a8 06 	lds	r24, 0x06A8
     e6c:	86 ff       	sbrs	r24, 6
     e6e:	04 c0       	rjmp	.+8      	; 0xe78 <LCDDisplay+0x840>
     e70:	86 e0       	ldi	r24, 0x06	; 6
     e72:	63 e0       	ldi	r22, 0x03	; 3
     e74:	0e 94 43 0e 	call	0x1c86	; 0x1c86 <Onlinecontrol>
     e78:	80 91 28 07 	lds	r24, 0x0728
     e7c:	86 fd       	sbrc	r24, 6
     e7e:	33 cf       	rjmp	.-410    	; 0xce6 <LCDDisplay+0x6ae>
     e80:	82 e0       	ldi	r24, 0x02	; 2
     e82:	f8 01       	movw	r30, r16
     e84:	80 83       	st	Z, r24
     e86:	10 92 ee 20 	sts	0x20EE, r1
     e8a:	0e 94 41 2a 	call	0x5482	; 0x5482 <LcdClear>
     e8e:	8d e9       	ldi	r24, 0x9D	; 157
     e90:	90 e2       	ldi	r25, 0x20	; 32
     e92:	0e 94 1c 2a 	call	0x5438	; 0x5438 <LcdWrite>
     e96:	8f e0       	ldi	r24, 0x0F	; 15
     e98:	0e 94 e7 02 	call	0x5ce	; 0x5ce <LedLight>
     e9c:	df 91       	pop	r29
     e9e:	cf 91       	pop	r28
     ea0:	1f 91       	pop	r17
     ea2:	0f 91       	pop	r16
     ea4:	ff 90       	pop	r15
     ea6:	ef 90       	pop	r14
     ea8:	df 90       	pop	r13
     eaa:	cf 90       	pop	r12
     eac:	bf 90       	pop	r11
     eae:	08 95       	ret

00000eb0 <ButtonState>:
     eb0:	80 91 ee 20 	lds	r24, 0x20EE
     eb4:	88 23       	and	r24, r24
     eb6:	09 f0       	breq	.+2      	; 0xeba <ButtonState+0xa>
     eb8:	8d c0       	rjmp	.+282    	; 0xfd4 <ButtonState+0x124>
     eba:	80 91 a8 06 	lds	r24, 0x06A8
     ebe:	87 fd       	sbrc	r24, 7
     ec0:	43 c0       	rjmp	.+134    	; 0xf48 <ButtonState+0x98>
     ec2:	80 e2       	ldi	r24, 0x20	; 32
     ec4:	93 e0       	ldi	r25, 0x03	; 3
     ec6:	20 e2       	ldi	r18, 0x20	; 32
     ec8:	33 e0       	ldi	r19, 0x03	; 3
     eca:	f9 01       	movw	r30, r18
     ecc:	31 97       	sbiw	r30, 0x01	; 1
     ece:	f1 f7       	brne	.-4      	; 0xecc <ButtonState+0x1c>
     ed0:	01 97       	sbiw	r24, 0x01	; 1
     ed2:	d9 f7       	brne	.-10     	; 0xeca <ButtonState+0x1a>
     ed4:	80 91 a8 06 	lds	r24, 0x06A8
     ed8:	87 fd       	sbrc	r24, 7
     eda:	7c c0       	rjmp	.+248    	; 0xfd4 <ButtonState+0x124>
     edc:	80 91 ef 20 	lds	r24, 0x20EF
     ee0:	81 30       	cpi	r24, 0x01	; 1
     ee2:	c1 f4       	brne	.+48     	; 0xf14 <ButtonState+0x64>
     ee4:	80 91 f0 20 	lds	r24, 0x20F0
     ee8:	8f 5f       	subi	r24, 0xFF	; 255
     eea:	80 93 f0 20 	sts	0x20F0, r24
     eee:	88 30       	cpi	r24, 0x08	; 8
     ef0:	19 f4       	brne	.+6      	; 0xef8 <ButtonState+0x48>
     ef2:	87 e0       	ldi	r24, 0x07	; 7
     ef4:	80 93 f0 20 	sts	0x20F0, r24
     ef8:	8f ee       	ldi	r24, 0xEF	; 239
     efa:	90 e2       	ldi	r25, 0x20	; 32
     efc:	0e 94 1c 03 	call	0x638	; 0x638 <LCDDisplay>
     f00:	80 ed       	ldi	r24, 0xD0	; 208
     f02:	97 e0       	ldi	r25, 0x07	; 7
     f04:	20 e2       	ldi	r18, 0x20	; 32
     f06:	33 e0       	ldi	r19, 0x03	; 3
     f08:	f9 01       	movw	r30, r18
     f0a:	31 97       	sbiw	r30, 0x01	; 1
     f0c:	f1 f7       	brne	.-4      	; 0xf0a <ButtonState+0x5a>
     f0e:	01 97       	sbiw	r24, 0x01	; 1
     f10:	d9 f7       	brne	.-10     	; 0xf08 <ButtonState+0x58>
     f12:	60 c0       	rjmp	.+192    	; 0xfd4 <ButtonState+0x124>
     f14:	82 30       	cpi	r24, 0x02	; 2
     f16:	09 f0       	breq	.+2      	; 0xf1a <ButtonState+0x6a>
     f18:	5d c0       	rjmp	.+186    	; 0xfd4 <ButtonState+0x124>
     f1a:	80 91 f1 20 	lds	r24, 0x20F1
     f1e:	8f 5f       	subi	r24, 0xFF	; 255
     f20:	80 93 f1 20 	sts	0x20F1, r24
     f24:	82 30       	cpi	r24, 0x02	; 2
     f26:	11 f4       	brne	.+4      	; 0xf2c <ButtonState+0x7c>
     f28:	10 92 f1 20 	sts	0x20F1, r1
     f2c:	8f ee       	ldi	r24, 0xEF	; 239
     f2e:	90 e2       	ldi	r25, 0x20	; 32
     f30:	0e 94 1c 03 	call	0x638	; 0x638 <LCDDisplay>
     f34:	80 ed       	ldi	r24, 0xD0	; 208
     f36:	97 e0       	ldi	r25, 0x07	; 7
     f38:	20 e2       	ldi	r18, 0x20	; 32
     f3a:	33 e0       	ldi	r19, 0x03	; 3
     f3c:	f9 01       	movw	r30, r18
     f3e:	31 97       	sbiw	r30, 0x01	; 1
     f40:	f1 f7       	brne	.-4      	; 0xf3e <ButtonState+0x8e>
     f42:	01 97       	sbiw	r24, 0x01	; 1
     f44:	d9 f7       	brne	.-10     	; 0xf3c <ButtonState+0x8c>
     f46:	46 c0       	rjmp	.+140    	; 0xfd4 <ButtonState+0x124>
     f48:	80 91 a8 06 	lds	r24, 0x06A8
     f4c:	86 fd       	sbrc	r24, 6
     f4e:	42 c0       	rjmp	.+132    	; 0xfd4 <ButtonState+0x124>
     f50:	80 e2       	ldi	r24, 0x20	; 32
     f52:	93 e0       	ldi	r25, 0x03	; 3
     f54:	20 e2       	ldi	r18, 0x20	; 32
     f56:	33 e0       	ldi	r19, 0x03	; 3
     f58:	f9 01       	movw	r30, r18
     f5a:	31 97       	sbiw	r30, 0x01	; 1
     f5c:	f1 f7       	brne	.-4      	; 0xf5a <ButtonState+0xaa>
     f5e:	01 97       	sbiw	r24, 0x01	; 1
     f60:	d9 f7       	brne	.-10     	; 0xf58 <ButtonState+0xa8>
     f62:	80 91 a8 06 	lds	r24, 0x06A8
     f66:	86 fd       	sbrc	r24, 6
     f68:	35 c0       	rjmp	.+106    	; 0xfd4 <ButtonState+0x124>
     f6a:	80 91 ef 20 	lds	r24, 0x20EF
     f6e:	81 30       	cpi	r24, 0x01	; 1
     f70:	b1 f4       	brne	.+44     	; 0xf9e <ButtonState+0xee>
     f72:	80 91 f0 20 	lds	r24, 0x20F0
     f76:	81 50       	subi	r24, 0x01	; 1
     f78:	80 93 f0 20 	sts	0x20F0, r24
     f7c:	8f 3f       	cpi	r24, 0xFF	; 255
     f7e:	11 f4       	brne	.+4      	; 0xf84 <ButtonState+0xd4>
     f80:	10 92 f0 20 	sts	0x20F0, r1
     f84:	8f ee       	ldi	r24, 0xEF	; 239
     f86:	90 e2       	ldi	r25, 0x20	; 32
     f88:	0e 94 1c 03 	call	0x638	; 0x638 <LCDDisplay>
     f8c:	80 ed       	ldi	r24, 0xD0	; 208
     f8e:	97 e0       	ldi	r25, 0x07	; 7
     f90:	20 e2       	ldi	r18, 0x20	; 32
     f92:	33 e0       	ldi	r19, 0x03	; 3
     f94:	f9 01       	movw	r30, r18
     f96:	31 97       	sbiw	r30, 0x01	; 1
     f98:	f1 f7       	brne	.-4      	; 0xf96 <ButtonState+0xe6>
     f9a:	01 97       	sbiw	r24, 0x01	; 1
     f9c:	d9 f7       	brne	.-10     	; 0xf94 <ButtonState+0xe4>
     f9e:	80 91 ef 20 	lds	r24, 0x20EF
     fa2:	82 30       	cpi	r24, 0x02	; 2
     fa4:	b9 f4       	brne	.+46     	; 0xfd4 <ButtonState+0x124>
     fa6:	80 91 f1 20 	lds	r24, 0x20F1
     faa:	81 50       	subi	r24, 0x01	; 1
     fac:	80 93 f1 20 	sts	0x20F1, r24
     fb0:	8f 3f       	cpi	r24, 0xFF	; 255
     fb2:	19 f4       	brne	.+6      	; 0xfba <ButtonState+0x10a>
     fb4:	81 e0       	ldi	r24, 0x01	; 1
     fb6:	80 93 f1 20 	sts	0x20F1, r24
     fba:	8f ee       	ldi	r24, 0xEF	; 239
     fbc:	90 e2       	ldi	r25, 0x20	; 32
     fbe:	0e 94 1c 03 	call	0x638	; 0x638 <LCDDisplay>
     fc2:	80 ed       	ldi	r24, 0xD0	; 208
     fc4:	97 e0       	ldi	r25, 0x07	; 7
     fc6:	20 e2       	ldi	r18, 0x20	; 32
     fc8:	33 e0       	ldi	r19, 0x03	; 3
     fca:	f9 01       	movw	r30, r18
     fcc:	31 97       	sbiw	r30, 0x01	; 1
     fce:	f1 f7       	brne	.-4      	; 0xfcc <ButtonState+0x11c>
     fd0:	01 97       	sbiw	r24, 0x01	; 1
     fd2:	d9 f7       	brne	.-10     	; 0xfca <ButtonState+0x11a>
     fd4:	80 91 08 07 	lds	r24, 0x0708
     fd8:	82 fd       	sbrc	r24, 2
     fda:	24 c0       	rjmp	.+72     	; 0x1024 <ButtonState+0x174>
     fdc:	80 e2       	ldi	r24, 0x20	; 32
     fde:	93 e0       	ldi	r25, 0x03	; 3
     fe0:	20 e2       	ldi	r18, 0x20	; 32
     fe2:	33 e0       	ldi	r19, 0x03	; 3
     fe4:	f9 01       	movw	r30, r18
     fe6:	31 97       	sbiw	r30, 0x01	; 1
     fe8:	f1 f7       	brne	.-4      	; 0xfe6 <ButtonState+0x136>
     fea:	01 97       	sbiw	r24, 0x01	; 1
     fec:	d9 f7       	brne	.-10     	; 0xfe4 <ButtonState+0x134>
     fee:	80 91 08 07 	lds	r24, 0x0708
     ff2:	82 fd       	sbrc	r24, 2
     ff4:	17 c0       	rjmp	.+46     	; 0x1024 <ButtonState+0x174>
     ff6:	80 91 ef 20 	lds	r24, 0x20EF
     ffa:	8f 5f       	subi	r24, 0xFF	; 255
     ffc:	80 93 ef 20 	sts	0x20EF, r24
    1000:	84 30       	cpi	r24, 0x04	; 4
    1002:	19 f4       	brne	.+6      	; 0x100a <ButtonState+0x15a>
    1004:	81 e0       	ldi	r24, 0x01	; 1
    1006:	80 93 ef 20 	sts	0x20EF, r24
    100a:	8f ee       	ldi	r24, 0xEF	; 239
    100c:	90 e2       	ldi	r25, 0x20	; 32
    100e:	0e 94 1c 03 	call	0x638	; 0x638 <LCDDisplay>
    1012:	80 ed       	ldi	r24, 0xD0	; 208
    1014:	97 e0       	ldi	r25, 0x07	; 7
    1016:	20 e2       	ldi	r18, 0x20	; 32
    1018:	33 e0       	ldi	r19, 0x03	; 3
    101a:	f9 01       	movw	r30, r18
    101c:	31 97       	sbiw	r30, 0x01	; 1
    101e:	f1 f7       	brne	.-4      	; 0x101c <ButtonState+0x16c>
    1020:	01 97       	sbiw	r24, 0x01	; 1
    1022:	d9 f7       	brne	.-10     	; 0x101a <ButtonState+0x16a>
    1024:	80 91 28 07 	lds	r24, 0x0728
    1028:	86 fd       	sbrc	r24, 6
    102a:	24 c0       	rjmp	.+72     	; 0x1074 <ButtonState+0x1c4>
    102c:	80 e2       	ldi	r24, 0x20	; 32
    102e:	93 e0       	ldi	r25, 0x03	; 3
    1030:	20 e2       	ldi	r18, 0x20	; 32
    1032:	33 e0       	ldi	r19, 0x03	; 3
    1034:	f9 01       	movw	r30, r18
    1036:	31 97       	sbiw	r30, 0x01	; 1
    1038:	f1 f7       	brne	.-4      	; 0x1036 <ButtonState+0x186>
    103a:	01 97       	sbiw	r24, 0x01	; 1
    103c:	d9 f7       	brne	.-10     	; 0x1034 <ButtonState+0x184>
    103e:	80 91 28 07 	lds	r24, 0x0728
    1042:	86 fd       	sbrc	r24, 6
    1044:	17 c0       	rjmp	.+46     	; 0x1074 <ButtonState+0x1c4>
    1046:	80 91 ef 20 	lds	r24, 0x20EF
    104a:	81 50       	subi	r24, 0x01	; 1
    104c:	80 93 ef 20 	sts	0x20EF, r24
    1050:	8f 3f       	cpi	r24, 0xFF	; 255
    1052:	19 f4       	brne	.+6      	; 0x105a <ButtonState+0x1aa>
    1054:	81 e0       	ldi	r24, 0x01	; 1
    1056:	80 93 ef 20 	sts	0x20EF, r24
    105a:	8f ee       	ldi	r24, 0xEF	; 239
    105c:	90 e2       	ldi	r25, 0x20	; 32
    105e:	0e 94 1c 03 	call	0x638	; 0x638 <LCDDisplay>
    1062:	80 ed       	ldi	r24, 0xD0	; 208
    1064:	97 e0       	ldi	r25, 0x07	; 7
    1066:	20 e2       	ldi	r18, 0x20	; 32
    1068:	33 e0       	ldi	r19, 0x03	; 3
    106a:	f9 01       	movw	r30, r18
    106c:	31 97       	sbiw	r30, 0x01	; 1
    106e:	f1 f7       	brne	.-4      	; 0x106c <ButtonState+0x1bc>
    1070:	01 97       	sbiw	r24, 0x01	; 1
    1072:	d9 f7       	brne	.-10     	; 0x106a <ButtonState+0x1ba>
    1074:	08 95       	ret

00001076 <ABS>:
    1076:	9c 01       	movw	r18, r24
    1078:	97 ff       	sbrs	r25, 7
    107a:	03 c0       	rjmp	.+6      	; 0x1082 <ABS+0xc>
    107c:	30 95       	com	r19
    107e:	21 95       	neg	r18
    1080:	3f 4f       	sbci	r19, 0xFF	; 255
    1082:	c9 01       	movw	r24, r18
    1084:	08 95       	ret

00001086 <PID>:
    1086:	af 92       	push	r10
    1088:	bf 92       	push	r11
    108a:	cf 92       	push	r12
    108c:	df 92       	push	r13
    108e:	ff 92       	push	r15
    1090:	0f 93       	push	r16
    1092:	1f 93       	push	r17
    1094:	cf 93       	push	r28
    1096:	df 93       	push	r29
    1098:	f8 2e       	mov	r15, r24
    109a:	88 23       	and	r24, r24
    109c:	79 f4       	brne	.+30     	; 0x10bc <PID+0x36>
    109e:	80 91 24 26 	lds	r24, 0x2624
    10a2:	90 91 25 26 	lds	r25, 0x2625
    10a6:	a0 e0       	ldi	r26, 0x00	; 0
    10a8:	b0 e0       	ldi	r27, 0x00	; 0
    10aa:	80 93 01 21 	sts	0x2101, r24
    10ae:	90 93 02 21 	sts	0x2102, r25
    10b2:	a0 93 03 21 	sts	0x2103, r26
    10b6:	b0 93 04 21 	sts	0x2104, r27
    10ba:	59 c0       	rjmp	.+178    	; 0x116e <PID+0xe8>
    10bc:	81 e0       	ldi	r24, 0x01	; 1
    10be:	f8 16       	cp	r15, r24
    10c0:	79 f4       	brne	.+30     	; 0x10e0 <PID+0x5a>
    10c2:	80 91 26 26 	lds	r24, 0x2626
    10c6:	90 91 27 26 	lds	r25, 0x2627
    10ca:	a0 e0       	ldi	r26, 0x00	; 0
    10cc:	b0 e0       	ldi	r27, 0x00	; 0
    10ce:	80 93 63 21 	sts	0x2163, r24
    10d2:	90 93 64 21 	sts	0x2164, r25
    10d6:	a0 93 65 21 	sts	0x2165, r26
    10da:	b0 93 66 21 	sts	0x2166, r27
    10de:	47 c0       	rjmp	.+142    	; 0x116e <PID+0xe8>
    10e0:	a2 e0       	ldi	r26, 0x02	; 2
    10e2:	fa 16       	cp	r15, r26
    10e4:	79 f4       	brne	.+30     	; 0x1104 <PID+0x7e>
    10e6:	80 91 28 26 	lds	r24, 0x2628
    10ea:	90 91 29 26 	lds	r25, 0x2629
    10ee:	a0 e0       	ldi	r26, 0x00	; 0
    10f0:	b0 e0       	ldi	r27, 0x00	; 0
    10f2:	80 93 c5 21 	sts	0x21C5, r24
    10f6:	90 93 c6 21 	sts	0x21C6, r25
    10fa:	a0 93 c7 21 	sts	0x21C7, r26
    10fe:	b0 93 c8 21 	sts	0x21C8, r27
    1102:	35 c0       	rjmp	.+106    	; 0x116e <PID+0xe8>
    1104:	b3 e0       	ldi	r27, 0x03	; 3
    1106:	fb 16       	cp	r15, r27
    1108:	79 f4       	brne	.+30     	; 0x1128 <PID+0xa2>
    110a:	80 91 22 26 	lds	r24, 0x2622
    110e:	90 91 23 26 	lds	r25, 0x2623
    1112:	a0 e0       	ldi	r26, 0x00	; 0
    1114:	b0 e0       	ldi	r27, 0x00	; 0
    1116:	80 93 27 22 	sts	0x2227, r24
    111a:	90 93 28 22 	sts	0x2228, r25
    111e:	a0 93 29 22 	sts	0x2229, r26
    1122:	b0 93 2a 22 	sts	0x222A, r27
    1126:	23 c0       	rjmp	.+70     	; 0x116e <PID+0xe8>
    1128:	84 e0       	ldi	r24, 0x04	; 4
    112a:	f8 16       	cp	r15, r24
    112c:	79 f4       	brne	.+30     	; 0x114c <PID+0xc6>
    112e:	80 91 2c 26 	lds	r24, 0x262C
    1132:	90 91 2d 26 	lds	r25, 0x262D
    1136:	a0 e0       	ldi	r26, 0x00	; 0
    1138:	b0 e0       	ldi	r27, 0x00	; 0
    113a:	80 93 89 22 	sts	0x2289, r24
    113e:	90 93 8a 22 	sts	0x228A, r25
    1142:	a0 93 8b 22 	sts	0x228B, r26
    1146:	b0 93 8c 22 	sts	0x228C, r27
    114a:	11 c0       	rjmp	.+34     	; 0x116e <PID+0xe8>
    114c:	a5 e0       	ldi	r26, 0x05	; 5
    114e:	fa 16       	cp	r15, r26
    1150:	71 f4       	brne	.+28     	; 0x116e <PID+0xe8>
    1152:	80 91 2e 26 	lds	r24, 0x262E
    1156:	90 91 2f 26 	lds	r25, 0x262F
    115a:	a0 e0       	ldi	r26, 0x00	; 0
    115c:	b0 e0       	ldi	r27, 0x00	; 0
    115e:	80 93 eb 22 	sts	0x22EB, r24
    1162:	90 93 ec 22 	sts	0x22EC, r25
    1166:	a0 93 ed 22 	sts	0x22ED, r26
    116a:	b0 93 ee 22 	sts	0x22EE, r27
    116e:	0f 2d       	mov	r16, r15
    1170:	11 27       	eor	r17, r17
    1172:	07 fd       	sbrc	r16, 7
    1174:	10 95       	com	r17
    1176:	82 e6       	ldi	r24, 0x62	; 98
    1178:	90 e0       	ldi	r25, 0x00	; 0
    117a:	08 9f       	mul	r16, r24
    117c:	f0 01       	movw	r30, r0
    117e:	09 9f       	mul	r16, r25
    1180:	f0 0d       	add	r31, r0
    1182:	18 9f       	mul	r17, r24
    1184:	f0 0d       	add	r31, r0
    1186:	11 24       	eor	r1, r1
    1188:	ef 5f       	subi	r30, 0xFF	; 255
    118a:	fe 4d       	sbci	r31, 0xDE	; 222
    118c:	80 85       	ldd	r24, Z+8	; 0x08
    118e:	91 85       	ldd	r25, Z+9	; 0x09
    1190:	a2 85       	ldd	r26, Z+10	; 0x0a
    1192:	b3 85       	ldd	r27, Z+11	; 0x0b
    1194:	20 81       	ld	r18, Z
    1196:	31 81       	ldd	r19, Z+1	; 0x01
    1198:	42 81       	ldd	r20, Z+2	; 0x02
    119a:	53 81       	ldd	r21, Z+3	; 0x03
    119c:	82 1b       	sub	r24, r18
    119e:	93 0b       	sbc	r25, r19
    11a0:	a4 0b       	sbc	r26, r20
    11a2:	b5 0b       	sbc	r27, r21
    11a4:	84 83       	std	Z+4, r24	; 0x04
    11a6:	95 83       	std	Z+5, r25	; 0x05
    11a8:	a6 83       	std	Z+6, r26	; 0x06
    11aa:	b7 83       	std	Z+7, r27	; 0x07
    11ac:	84 81       	ldd	r24, Z+4	; 0x04
    11ae:	95 81       	ldd	r25, Z+5	; 0x05
    11b0:	a6 81       	ldd	r26, Z+6	; 0x06
    11b2:	b7 81       	ldd	r27, Z+7	; 0x07
    11b4:	97 ff       	sbrs	r25, 7
    11b6:	03 c0       	rjmp	.+6      	; 0x11be <PID+0x138>
    11b8:	90 95       	com	r25
    11ba:	81 95       	neg	r24
    11bc:	9f 4f       	sbci	r25, 0xFF	; 255
    11be:	9c 01       	movw	r18, r24
    11c0:	44 27       	eor	r20, r20
    11c2:	37 fd       	sbrc	r19, 7
    11c4:	40 95       	com	r20
    11c6:	54 2f       	mov	r21, r20
    11c8:	82 e6       	ldi	r24, 0x62	; 98
    11ca:	90 e0       	ldi	r25, 0x00	; 0
    11cc:	08 9f       	mul	r16, r24
    11ce:	f0 01       	movw	r30, r0
    11d0:	09 9f       	mul	r16, r25
    11d2:	f0 0d       	add	r31, r0
    11d4:	18 9f       	mul	r17, r24
    11d6:	f0 0d       	add	r31, r0
    11d8:	11 24       	eor	r1, r1
    11da:	ef 5f       	subi	r30, 0xFF	; 255
    11dc:	fe 4d       	sbci	r31, 0xDE	; 222
    11de:	24 87       	std	Z+12, r18	; 0x0c
    11e0:	35 87       	std	Z+13, r19	; 0x0d
    11e2:	46 87       	std	Z+14, r20	; 0x0e
    11e4:	57 87       	std	Z+15, r21	; 0x0f
    11e6:	24 81       	ldd	r18, Z+4	; 0x04
    11e8:	35 81       	ldd	r19, Z+5	; 0x05
    11ea:	46 81       	ldd	r20, Z+6	; 0x06
    11ec:	57 81       	ldd	r21, Z+7	; 0x07
    11ee:	80 89       	ldd	r24, Z+16	; 0x10
    11f0:	91 89       	ldd	r25, Z+17	; 0x11
    11f2:	a2 89       	ldd	r26, Z+18	; 0x12
    11f4:	b3 89       	ldd	r27, Z+19	; 0x13
    11f6:	82 17       	cp	r24, r18
    11f8:	93 07       	cpc	r25, r19
    11fa:	a4 07       	cpc	r26, r20
    11fc:	b5 07       	cpc	r27, r21
    11fe:	2c f4       	brge	.+10     	; 0x120a <PID+0x184>
    1200:	8e e5       	ldi	r24, 0x5E	; 94
    1202:	91 e0       	ldi	r25, 0x01	; 1
    1204:	a0 e0       	ldi	r26, 0x00	; 0
    1206:	b0 e0       	ldi	r27, 0x00	; 0
    1208:	18 c0       	rjmp	.+48     	; 0x123a <PID+0x1b4>
    120a:	24 81       	ldd	r18, Z+4	; 0x04
    120c:	35 81       	ldd	r19, Z+5	; 0x05
    120e:	46 81       	ldd	r20, Z+6	; 0x06
    1210:	57 81       	ldd	r21, Z+7	; 0x07
    1212:	80 89       	ldd	r24, Z+16	; 0x10
    1214:	91 89       	ldd	r25, Z+17	; 0x11
    1216:	a2 89       	ldd	r26, Z+18	; 0x12
    1218:	b3 89       	ldd	r27, Z+19	; 0x13
    121a:	b0 95       	com	r27
    121c:	a0 95       	com	r26
    121e:	90 95       	com	r25
    1220:	81 95       	neg	r24
    1222:	9f 4f       	sbci	r25, 0xFF	; 255
    1224:	af 4f       	sbci	r26, 0xFF	; 255
    1226:	bf 4f       	sbci	r27, 0xFF	; 255
    1228:	28 17       	cp	r18, r24
    122a:	39 07       	cpc	r19, r25
    122c:	4a 07       	cpc	r20, r26
    122e:	5b 07       	cpc	r21, r27
    1230:	44 f4       	brge	.+16     	; 0x1242 <PID+0x1bc>
    1232:	82 ea       	ldi	r24, 0xA2	; 162
    1234:	9e ef       	ldi	r25, 0xFE	; 254
    1236:	af ef       	ldi	r26, 0xFF	; 255
    1238:	bf ef       	ldi	r27, 0xFF	; 255
    123a:	84 83       	std	Z+4, r24	; 0x04
    123c:	95 83       	std	Z+5, r25	; 0x05
    123e:	a6 83       	std	Z+6, r26	; 0x06
    1240:	b7 83       	std	Z+7, r27	; 0x07
    1242:	82 e6       	ldi	r24, 0x62	; 98
    1244:	90 e0       	ldi	r25, 0x00	; 0
    1246:	08 9f       	mul	r16, r24
    1248:	f0 01       	movw	r30, r0
    124a:	09 9f       	mul	r16, r25
    124c:	f0 0d       	add	r31, r0
    124e:	18 9f       	mul	r17, r24
    1250:	f0 0d       	add	r31, r0
    1252:	11 24       	eor	r1, r1
    1254:	ef 5f       	subi	r30, 0xFF	; 255
    1256:	fe 4d       	sbci	r31, 0xDE	; 222
    1258:	24 81       	ldd	r18, Z+4	; 0x04
    125a:	35 81       	ldd	r19, Z+5	; 0x05
    125c:	46 81       	ldd	r20, Z+6	; 0x06
    125e:	57 81       	ldd	r21, Z+7	; 0x07
    1260:	84 89       	ldd	r24, Z+20	; 0x14
    1262:	95 89       	ldd	r25, Z+21	; 0x15
    1264:	a6 89       	ldd	r26, Z+22	; 0x16
    1266:	b7 89       	ldd	r27, Z+23	; 0x17
    1268:	82 17       	cp	r24, r18
    126a:	93 07       	cpc	r25, r19
    126c:	a4 07       	cpc	r26, r20
    126e:	b5 07       	cpc	r27, r21
    1270:	6c f4       	brge	.+26     	; 0x128c <PID+0x206>
    1272:	84 81       	ldd	r24, Z+4	; 0x04
    1274:	95 81       	ldd	r25, Z+5	; 0x05
    1276:	a6 81       	ldd	r26, Z+6	; 0x06
    1278:	b7 81       	ldd	r27, Z+7	; 0x07
    127a:	24 89       	ldd	r18, Z+20	; 0x14
    127c:	35 89       	ldd	r19, Z+21	; 0x15
    127e:	46 89       	ldd	r20, Z+22	; 0x16
    1280:	57 89       	ldd	r21, Z+23	; 0x17
    1282:	82 1b       	sub	r24, r18
    1284:	93 0b       	sbc	r25, r19
    1286:	a4 0b       	sbc	r26, r20
    1288:	b5 0b       	sbc	r27, r21
    128a:	19 c0       	rjmp	.+50     	; 0x12be <PID+0x238>
    128c:	24 81       	ldd	r18, Z+4	; 0x04
    128e:	35 81       	ldd	r19, Z+5	; 0x05
    1290:	46 81       	ldd	r20, Z+6	; 0x06
    1292:	57 81       	ldd	r21, Z+7	; 0x07
    1294:	84 89       	ldd	r24, Z+20	; 0x14
    1296:	95 89       	ldd	r25, Z+21	; 0x15
    1298:	a6 89       	ldd	r26, Z+22	; 0x16
    129a:	b7 89       	ldd	r27, Z+23	; 0x17
    129c:	28 17       	cp	r18, r24
    129e:	39 07       	cpc	r19, r25
    12a0:	4a 07       	cpc	r20, r26
    12a2:	5b 07       	cpc	r21, r27
    12a4:	8c f4       	brge	.+34     	; 0x12c8 <PID+0x242>
    12a6:	24 81       	ldd	r18, Z+4	; 0x04
    12a8:	35 81       	ldd	r19, Z+5	; 0x05
    12aa:	46 81       	ldd	r20, Z+6	; 0x06
    12ac:	57 81       	ldd	r21, Z+7	; 0x07
    12ae:	84 89       	ldd	r24, Z+20	; 0x14
    12b0:	95 89       	ldd	r25, Z+21	; 0x15
    12b2:	a6 89       	ldd	r26, Z+22	; 0x16
    12b4:	b7 89       	ldd	r27, Z+23	; 0x17
    12b6:	82 0f       	add	r24, r18
    12b8:	93 1f       	adc	r25, r19
    12ba:	a4 1f       	adc	r26, r20
    12bc:	b5 1f       	adc	r27, r21
    12be:	84 83       	std	Z+4, r24	; 0x04
    12c0:	95 83       	std	Z+5, r25	; 0x05
    12c2:	a6 83       	std	Z+6, r26	; 0x06
    12c4:	b7 83       	std	Z+7, r27	; 0x07
    12c6:	04 c0       	rjmp	.+8      	; 0x12d0 <PID+0x24a>
    12c8:	14 82       	std	Z+4, r1	; 0x04
    12ca:	15 82       	std	Z+5, r1	; 0x05
    12cc:	16 82       	std	Z+6, r1	; 0x06
    12ce:	17 82       	std	Z+7, r1	; 0x07
    12d0:	82 e6       	ldi	r24, 0x62	; 98
    12d2:	90 e0       	ldi	r25, 0x00	; 0
    12d4:	08 9f       	mul	r16, r24
    12d6:	e0 01       	movw	r28, r0
    12d8:	09 9f       	mul	r16, r25
    12da:	d0 0d       	add	r29, r0
    12dc:	18 9f       	mul	r17, r24
    12de:	d0 0d       	add	r29, r0
    12e0:	11 24       	eor	r1, r1
    12e2:	cf 5f       	subi	r28, 0xFF	; 255
    12e4:	de 4d       	sbci	r29, 0xDE	; 222
    12e6:	2c 81       	ldd	r18, Y+4	; 0x04
    12e8:	3d 81       	ldd	r19, Y+5	; 0x05
    12ea:	4e 81       	ldd	r20, Y+6	; 0x06
    12ec:	5f 81       	ldd	r21, Y+7	; 0x07
    12ee:	6c 8d       	ldd	r22, Y+28	; 0x1c
    12f0:	7d 8d       	ldd	r23, Y+29	; 0x1d
    12f2:	8e 8d       	ldd	r24, Y+30	; 0x1e
    12f4:	9f 8d       	ldd	r25, Y+31	; 0x1f
    12f6:	0e 94 2e 2f 	call	0x5e5c	; 0x5e5c <__mulsi3>
    12fa:	68 8f       	std	Y+24, r22	; 0x18
    12fc:	79 8f       	std	Y+25, r23	; 0x19
    12fe:	8a 8f       	std	Y+26, r24	; 0x1a
    1300:	9b 8f       	std	Y+27, r25	; 0x1b
    1302:	88 a1       	ldd	r24, Y+32	; 0x20
    1304:	99 a1       	ldd	r25, Y+33	; 0x21
    1306:	aa a1       	ldd	r26, Y+34	; 0x22
    1308:	bb a1       	ldd	r27, Y+35	; 0x23
    130a:	18 16       	cp	r1, r24
    130c:	19 06       	cpc	r1, r25
    130e:	1a 06       	cpc	r1, r26
    1310:	1b 06       	cpc	r1, r27
    1312:	0c f0       	brlt	.+2      	; 0x1316 <PID+0x290>
    1314:	6c c0       	rjmp	.+216    	; 0x13ee <PID+0x368>
    1316:	fe 01       	movw	r30, r28
    1318:	e0 5a       	subi	r30, 0xA0	; 160
    131a:	ff 4f       	sbci	r31, 0xFF	; 255
    131c:	80 81       	ld	r24, Z
    131e:	88 23       	and	r24, r24
    1320:	09 f4       	brne	.+2      	; 0x1324 <PID+0x29e>
    1322:	65 c0       	rjmp	.+202    	; 0x13ee <PID+0x368>
    1324:	fe 01       	movw	r30, r28
    1326:	e0 5b       	subi	r30, 0xB0	; 176
    1328:	ff 4f       	sbci	r31, 0xFF	; 255
    132a:	80 81       	ld	r24, Z
    132c:	91 81       	ldd	r25, Z+1	; 0x01
    132e:	a2 81       	ldd	r26, Z+2	; 0x02
    1330:	b3 81       	ldd	r27, Z+3	; 0x03
    1332:	00 97       	sbiw	r24, 0x00	; 0
    1334:	a1 05       	cpc	r26, r1
    1336:	b1 05       	cpc	r27, r1
    1338:	81 f4       	brne	.+32     	; 0x135a <PID+0x2d4>
    133a:	2c a1       	ldd	r18, Y+36	; 0x24
    133c:	3d a1       	ldd	r19, Y+37	; 0x25
    133e:	4e a1       	ldd	r20, Y+38	; 0x26
    1340:	5f a1       	ldd	r21, Y+39	; 0x27
    1342:	8c 81       	ldd	r24, Y+4	; 0x04
    1344:	9d 81       	ldd	r25, Y+5	; 0x05
    1346:	ae 81       	ldd	r26, Y+6	; 0x06
    1348:	bf 81       	ldd	r27, Y+7	; 0x07
    134a:	82 0f       	add	r24, r18
    134c:	93 1f       	adc	r25, r19
    134e:	a4 1f       	adc	r26, r20
    1350:	b5 1f       	adc	r27, r21
    1352:	8c a3       	std	Y+36, r24	; 0x24
    1354:	9d a3       	std	Y+37, r25	; 0x25
    1356:	ae a3       	std	Y+38, r26	; 0x26
    1358:	bf a3       	std	Y+39, r27	; 0x27
    135a:	82 e6       	ldi	r24, 0x62	; 98
    135c:	90 e0       	ldi	r25, 0x00	; 0
    135e:	08 9f       	mul	r16, r24
    1360:	f0 01       	movw	r30, r0
    1362:	09 9f       	mul	r16, r25
    1364:	f0 0d       	add	r31, r0
    1366:	18 9f       	mul	r17, r24
    1368:	f0 0d       	add	r31, r0
    136a:	11 24       	eor	r1, r1
    136c:	ef 5f       	subi	r30, 0xFF	; 255
    136e:	fe 4d       	sbci	r31, 0xDE	; 222
    1370:	80 a5       	ldd	r24, Z+40	; 0x28
    1372:	91 a5       	ldd	r25, Z+41	; 0x29
    1374:	a2 a5       	ldd	r26, Z+42	; 0x2a
    1376:	b3 a5       	ldd	r27, Z+43	; 0x2b
    1378:	00 97       	sbiw	r24, 0x00	; 0
    137a:	a1 05       	cpc	r26, r1
    137c:	b1 05       	cpc	r27, r1
    137e:	09 f4       	brne	.+2      	; 0x1382 <PID+0x2fc>
    1380:	45 c0       	rjmp	.+138    	; 0x140c <PID+0x386>
    1382:	24 a1       	ldd	r18, Z+36	; 0x24
    1384:	35 a1       	ldd	r19, Z+37	; 0x25
    1386:	46 a1       	ldd	r20, Z+38	; 0x26
    1388:	57 a1       	ldd	r21, Z+39	; 0x27
    138a:	80 a5       	ldd	r24, Z+40	; 0x28
    138c:	91 a5       	ldd	r25, Z+41	; 0x29
    138e:	a2 a5       	ldd	r26, Z+42	; 0x2a
    1390:	b3 a5       	ldd	r27, Z+43	; 0x2b
    1392:	82 17       	cp	r24, r18
    1394:	93 07       	cpc	r25, r19
    1396:	a4 07       	cpc	r26, r20
    1398:	b5 07       	cpc	r27, r21
    139a:	2c f4       	brge	.+10     	; 0x13a6 <PID+0x320>
    139c:	80 a5       	ldd	r24, Z+40	; 0x28
    139e:	91 a5       	ldd	r25, Z+41	; 0x29
    13a0:	a2 a5       	ldd	r26, Z+42	; 0x2a
    13a2:	b3 a5       	ldd	r27, Z+43	; 0x2b
    13a4:	1f c0       	rjmp	.+62     	; 0x13e4 <PID+0x35e>
    13a6:	24 a1       	ldd	r18, Z+36	; 0x24
    13a8:	35 a1       	ldd	r19, Z+37	; 0x25
    13aa:	46 a1       	ldd	r20, Z+38	; 0x26
    13ac:	57 a1       	ldd	r21, Z+39	; 0x27
    13ae:	80 a5       	ldd	r24, Z+40	; 0x28
    13b0:	91 a5       	ldd	r25, Z+41	; 0x29
    13b2:	a2 a5       	ldd	r26, Z+42	; 0x2a
    13b4:	b3 a5       	ldd	r27, Z+43	; 0x2b
    13b6:	b0 95       	com	r27
    13b8:	a0 95       	com	r26
    13ba:	90 95       	com	r25
    13bc:	81 95       	neg	r24
    13be:	9f 4f       	sbci	r25, 0xFF	; 255
    13c0:	af 4f       	sbci	r26, 0xFF	; 255
    13c2:	bf 4f       	sbci	r27, 0xFF	; 255
    13c4:	28 17       	cp	r18, r24
    13c6:	39 07       	cpc	r19, r25
    13c8:	4a 07       	cpc	r20, r26
    13ca:	5b 07       	cpc	r21, r27
    13cc:	fc f4       	brge	.+62     	; 0x140c <PID+0x386>
    13ce:	80 a5       	ldd	r24, Z+40	; 0x28
    13d0:	91 a5       	ldd	r25, Z+41	; 0x29
    13d2:	a2 a5       	ldd	r26, Z+42	; 0x2a
    13d4:	b3 a5       	ldd	r27, Z+43	; 0x2b
    13d6:	b0 95       	com	r27
    13d8:	a0 95       	com	r26
    13da:	90 95       	com	r25
    13dc:	81 95       	neg	r24
    13de:	9f 4f       	sbci	r25, 0xFF	; 255
    13e0:	af 4f       	sbci	r26, 0xFF	; 255
    13e2:	bf 4f       	sbci	r27, 0xFF	; 255
    13e4:	84 a3       	std	Z+36, r24	; 0x24
    13e6:	95 a3       	std	Z+37, r25	; 0x25
    13e8:	a6 a3       	std	Z+38, r26	; 0x26
    13ea:	b7 a3       	std	Z+39, r27	; 0x27
    13ec:	0f c0       	rjmp	.+30     	; 0x140c <PID+0x386>
    13ee:	82 e6       	ldi	r24, 0x62	; 98
    13f0:	90 e0       	ldi	r25, 0x00	; 0
    13f2:	08 9f       	mul	r16, r24
    13f4:	f0 01       	movw	r30, r0
    13f6:	09 9f       	mul	r16, r25
    13f8:	f0 0d       	add	r31, r0
    13fa:	18 9f       	mul	r17, r24
    13fc:	f0 0d       	add	r31, r0
    13fe:	11 24       	eor	r1, r1
    1400:	ef 5f       	subi	r30, 0xFF	; 255
    1402:	fe 4d       	sbci	r31, 0xDE	; 222
    1404:	14 a2       	std	Z+36, r1	; 0x24
    1406:	15 a2       	std	Z+37, r1	; 0x25
    1408:	16 a2       	std	Z+38, r1	; 0x26
    140a:	17 a2       	std	Z+39, r1	; 0x27
    140c:	82 e6       	ldi	r24, 0x62	; 98
    140e:	90 e0       	ldi	r25, 0x00	; 0
    1410:	08 9f       	mul	r16, r24
    1412:	e0 01       	movw	r28, r0
    1414:	09 9f       	mul	r16, r25
    1416:	d0 0d       	add	r29, r0
    1418:	18 9f       	mul	r17, r24
    141a:	d0 0d       	add	r29, r0
    141c:	11 24       	eor	r1, r1
    141e:	cf 5f       	subi	r28, 0xFF	; 255
    1420:	de 4d       	sbci	r29, 0xDE	; 222
    1422:	2c a1       	ldd	r18, Y+36	; 0x24
    1424:	3d a1       	ldd	r19, Y+37	; 0x25
    1426:	4e a1       	ldd	r20, Y+38	; 0x26
    1428:	5f a1       	ldd	r21, Y+39	; 0x27
    142a:	68 a1       	ldd	r22, Y+32	; 0x20
    142c:	79 a1       	ldd	r23, Y+33	; 0x21
    142e:	8a a1       	ldd	r24, Y+34	; 0x22
    1430:	9b a1       	ldd	r25, Y+35	; 0x23
    1432:	0e 94 2e 2f 	call	0x5e5c	; 0x5e5c <__mulsi3>
    1436:	6c a7       	std	Y+44, r22	; 0x2c
    1438:	7d a7       	std	Y+45, r23	; 0x2d
    143a:	8e a7       	std	Y+46, r24	; 0x2e
    143c:	9f a7       	std	Y+47, r25	; 0x2f
    143e:	8c 81       	ldd	r24, Y+4	; 0x04
    1440:	9d 81       	ldd	r25, Y+5	; 0x05
    1442:	ae 81       	ldd	r26, Y+6	; 0x06
    1444:	bf 81       	ldd	r27, Y+7	; 0x07
    1446:	2c a9       	ldd	r18, Y+52	; 0x34
    1448:	3d a9       	ldd	r19, Y+53	; 0x35
    144a:	4e a9       	ldd	r20, Y+54	; 0x36
    144c:	5f a9       	ldd	r21, Y+55	; 0x37
    144e:	82 1b       	sub	r24, r18
    1450:	93 0b       	sbc	r25, r19
    1452:	a4 0b       	sbc	r26, r20
    1454:	b5 0b       	sbc	r27, r21
    1456:	88 ab       	std	Y+48, r24	; 0x30
    1458:	99 ab       	std	Y+49, r25	; 0x31
    145a:	aa ab       	std	Y+50, r26	; 0x32
    145c:	bb ab       	std	Y+51, r27	; 0x33
    145e:	8c 81       	ldd	r24, Y+4	; 0x04
    1460:	9d 81       	ldd	r25, Y+5	; 0x05
    1462:	ae 81       	ldd	r26, Y+6	; 0x06
    1464:	bf 81       	ldd	r27, Y+7	; 0x07
    1466:	8c ab       	std	Y+52, r24	; 0x34
    1468:	9d ab       	std	Y+53, r25	; 0x35
    146a:	ae ab       	std	Y+54, r26	; 0x36
    146c:	bf ab       	std	Y+55, r27	; 0x37
    146e:	88 ad       	ldd	r24, Y+56	; 0x38
    1470:	99 ad       	ldd	r25, Y+57	; 0x39
    1472:	aa ad       	ldd	r26, Y+58	; 0x3a
    1474:	bb ad       	ldd	r27, Y+59	; 0x3b
    1476:	00 97       	sbiw	r24, 0x00	; 0
    1478:	a1 05       	cpc	r26, r1
    147a:	b1 05       	cpc	r27, r1
    147c:	a9 f1       	breq	.+106    	; 0x14e8 <PID+0x462>
    147e:	28 a9       	ldd	r18, Y+48	; 0x30
    1480:	39 a9       	ldd	r19, Y+49	; 0x31
    1482:	4a a9       	ldd	r20, Y+50	; 0x32
    1484:	5b a9       	ldd	r21, Y+51	; 0x33
    1486:	88 ad       	ldd	r24, Y+56	; 0x38
    1488:	99 ad       	ldd	r25, Y+57	; 0x39
    148a:	aa ad       	ldd	r26, Y+58	; 0x3a
    148c:	bb ad       	ldd	r27, Y+59	; 0x3b
    148e:	82 17       	cp	r24, r18
    1490:	93 07       	cpc	r25, r19
    1492:	a4 07       	cpc	r26, r20
    1494:	b5 07       	cpc	r27, r21
    1496:	2c f4       	brge	.+10     	; 0x14a2 <PID+0x41c>
    1498:	88 ad       	ldd	r24, Y+56	; 0x38
    149a:	99 ad       	ldd	r25, Y+57	; 0x39
    149c:	aa ad       	ldd	r26, Y+58	; 0x3a
    149e:	bb ad       	ldd	r27, Y+59	; 0x3b
    14a0:	1f c0       	rjmp	.+62     	; 0x14e0 <PID+0x45a>
    14a2:	28 a9       	ldd	r18, Y+48	; 0x30
    14a4:	39 a9       	ldd	r19, Y+49	; 0x31
    14a6:	4a a9       	ldd	r20, Y+50	; 0x32
    14a8:	5b a9       	ldd	r21, Y+51	; 0x33
    14aa:	88 ad       	ldd	r24, Y+56	; 0x38
    14ac:	99 ad       	ldd	r25, Y+57	; 0x39
    14ae:	aa ad       	ldd	r26, Y+58	; 0x3a
    14b0:	bb ad       	ldd	r27, Y+59	; 0x3b
    14b2:	b0 95       	com	r27
    14b4:	a0 95       	com	r26
    14b6:	90 95       	com	r25
    14b8:	81 95       	neg	r24
    14ba:	9f 4f       	sbci	r25, 0xFF	; 255
    14bc:	af 4f       	sbci	r26, 0xFF	; 255
    14be:	bf 4f       	sbci	r27, 0xFF	; 255
    14c0:	28 17       	cp	r18, r24
    14c2:	39 07       	cpc	r19, r25
    14c4:	4a 07       	cpc	r20, r26
    14c6:	5b 07       	cpc	r21, r27
    14c8:	7c f4       	brge	.+30     	; 0x14e8 <PID+0x462>
    14ca:	88 ad       	ldd	r24, Y+56	; 0x38
    14cc:	99 ad       	ldd	r25, Y+57	; 0x39
    14ce:	aa ad       	ldd	r26, Y+58	; 0x3a
    14d0:	bb ad       	ldd	r27, Y+59	; 0x3b
    14d2:	b0 95       	com	r27
    14d4:	a0 95       	com	r26
    14d6:	90 95       	com	r25
    14d8:	81 95       	neg	r24
    14da:	9f 4f       	sbci	r25, 0xFF	; 255
    14dc:	af 4f       	sbci	r26, 0xFF	; 255
    14de:	bf 4f       	sbci	r27, 0xFF	; 255
    14e0:	88 ab       	std	Y+48, r24	; 0x30
    14e2:	99 ab       	std	Y+49, r25	; 0x31
    14e4:	aa ab       	std	Y+50, r26	; 0x32
    14e6:	bb ab       	std	Y+51, r27	; 0x33
    14e8:	82 e6       	ldi	r24, 0x62	; 98
    14ea:	90 e0       	ldi	r25, 0x00	; 0
    14ec:	08 9f       	mul	r16, r24
    14ee:	e0 01       	movw	r28, r0
    14f0:	09 9f       	mul	r16, r25
    14f2:	d0 0d       	add	r29, r0
    14f4:	18 9f       	mul	r17, r24
    14f6:	d0 0d       	add	r29, r0
    14f8:	11 24       	eor	r1, r1
    14fa:	cf 5f       	subi	r28, 0xFF	; 255
    14fc:	de 4d       	sbci	r29, 0xDE	; 222
    14fe:	28 a9       	ldd	r18, Y+48	; 0x30
    1500:	39 a9       	ldd	r19, Y+49	; 0x31
    1502:	4a a9       	ldd	r20, Y+50	; 0x32
    1504:	5b a9       	ldd	r21, Y+51	; 0x33
    1506:	c0 5c       	subi	r28, 0xC0	; 192
    1508:	df 4f       	sbci	r29, 0xFF	; 255
    150a:	68 81       	ld	r22, Y
    150c:	79 81       	ldd	r23, Y+1	; 0x01
    150e:	8a 81       	ldd	r24, Y+2	; 0x02
    1510:	9b 81       	ldd	r25, Y+3	; 0x03
    1512:	c0 54       	subi	r28, 0x40	; 64
    1514:	d0 40       	sbci	r29, 0x00	; 0
    1516:	0e 94 2e 2f 	call	0x5e5c	; 0x5e5c <__mulsi3>
    151a:	6c af       	std	Y+60, r22	; 0x3c
    151c:	7d af       	std	Y+61, r23	; 0x3d
    151e:	8e af       	std	Y+62, r24	; 0x3e
    1520:	9f af       	std	Y+63, r25	; 0x3f
    1522:	28 8d       	ldd	r18, Y+24	; 0x18
    1524:	39 8d       	ldd	r19, Y+25	; 0x19
    1526:	4a 8d       	ldd	r20, Y+26	; 0x1a
    1528:	5b 8d       	ldd	r21, Y+27	; 0x1b
    152a:	8c a5       	ldd	r24, Y+44	; 0x2c
    152c:	9d a5       	ldd	r25, Y+45	; 0x2d
    152e:	ae a5       	ldd	r26, Y+46	; 0x2e
    1530:	bf a5       	ldd	r27, Y+47	; 0x2f
    1532:	82 0f       	add	r24, r18
    1534:	93 1f       	adc	r25, r19
    1536:	a4 1f       	adc	r26, r20
    1538:	b5 1f       	adc	r27, r21
    153a:	fe 01       	movw	r30, r28
    153c:	ec 5b       	subi	r30, 0xBC	; 188
    153e:	ff 4f       	sbci	r31, 0xFF	; 255
    1540:	80 83       	st	Z, r24
    1542:	91 83       	std	Z+1, r25	; 0x01
    1544:	a2 83       	std	Z+2, r26	; 0x02
    1546:	b3 83       	std	Z+3, r27	; 0x03
    1548:	20 81       	ld	r18, Z
    154a:	31 81       	ldd	r19, Z+1	; 0x01
    154c:	42 81       	ldd	r20, Z+2	; 0x02
    154e:	53 81       	ldd	r21, Z+3	; 0x03
    1550:	8c ad       	ldd	r24, Y+60	; 0x3c
    1552:	9d ad       	ldd	r25, Y+61	; 0x3d
    1554:	ae ad       	ldd	r26, Y+62	; 0x3e
    1556:	bf ad       	ldd	r27, Y+63	; 0x3f
    1558:	82 0f       	add	r24, r18
    155a:	93 1f       	adc	r25, r19
    155c:	a4 1f       	adc	r26, r20
    155e:	b5 1f       	adc	r27, r21
    1560:	80 83       	st	Z, r24
    1562:	91 83       	std	Z+1, r25	; 0x01
    1564:	a2 83       	std	Z+2, r26	; 0x02
    1566:	b3 83       	std	Z+3, r27	; 0x03
    1568:	20 81       	ld	r18, Z
    156a:	31 81       	ldd	r19, Z+1	; 0x01
    156c:	42 81       	ldd	r20, Z+2	; 0x02
    156e:	53 81       	ldd	r21, Z+3	; 0x03
    1570:	be 01       	movw	r22, r28
    1572:	64 5b       	subi	r22, 0xB4	; 180
    1574:	7f 4f       	sbci	r23, 0xFF	; 255
    1576:	db 01       	movw	r26, r22
    1578:	ad 90       	ld	r10, X+
    157a:	bd 90       	ld	r11, X+
    157c:	cd 90       	ld	r12, X+
    157e:	dc 90       	ld	r13, X
    1580:	13 97       	sbiw	r26, 0x03	; 3
    1582:	a2 16       	cp	r10, r18
    1584:	b3 06       	cpc	r11, r19
    1586:	c4 06       	cpc	r12, r20
    1588:	d5 06       	cpc	r13, r21
    158a:	a4 f4       	brge	.+40     	; 0x15b4 <PID+0x52e>
    158c:	2d 91       	ld	r18, X+
    158e:	3d 91       	ld	r19, X+
    1590:	4d 91       	ld	r20, X+
    1592:	5c 91       	ld	r21, X
    1594:	20 83       	st	Z, r18
    1596:	31 83       	std	Z+1, r19	; 0x01
    1598:	42 83       	std	Z+2, r20	; 0x02
    159a:	53 83       	std	Z+3, r21	; 0x03
    159c:	fe 01       	movw	r30, r28
    159e:	e0 5b       	subi	r30, 0xB0	; 176
    15a0:	ff 4f       	sbci	r31, 0xFF	; 255
    15a2:	81 e0       	ldi	r24, 0x01	; 1
    15a4:	90 e0       	ldi	r25, 0x00	; 0
    15a6:	a0 e0       	ldi	r26, 0x00	; 0
    15a8:	b0 e0       	ldi	r27, 0x00	; 0
    15aa:	80 83       	st	Z, r24
    15ac:	91 83       	std	Z+1, r25	; 0x01
    15ae:	a2 83       	std	Z+2, r26	; 0x02
    15b0:	b3 83       	std	Z+3, r27	; 0x03
    15b2:	34 c0       	rjmp	.+104    	; 0x161c <PID+0x596>
    15b4:	20 81       	ld	r18, Z
    15b6:	31 81       	ldd	r19, Z+1	; 0x01
    15b8:	42 81       	ldd	r20, Z+2	; 0x02
    15ba:	53 81       	ldd	r21, Z+3	; 0x03
    15bc:	db 01       	movw	r26, r22
    15be:	ad 90       	ld	r10, X+
    15c0:	bd 90       	ld	r11, X+
    15c2:	cd 90       	ld	r12, X+
    15c4:	dc 90       	ld	r13, X
    15c6:	88 27       	eor	r24, r24
    15c8:	99 27       	eor	r25, r25
    15ca:	dc 01       	movw	r26, r24
    15cc:	8a 19       	sub	r24, r10
    15ce:	9b 09       	sbc	r25, r11
    15d0:	ac 09       	sbc	r26, r12
    15d2:	bd 09       	sbc	r27, r13
    15d4:	c0 5b       	subi	r28, 0xB0	; 176
    15d6:	df 4f       	sbci	r29, 0xFF	; 255
    15d8:	28 17       	cp	r18, r24
    15da:	39 07       	cpc	r19, r25
    15dc:	4a 07       	cpc	r20, r26
    15de:	5b 07       	cpc	r21, r27
    15e0:	cc f4       	brge	.+50     	; 0x1614 <PID+0x58e>
    15e2:	db 01       	movw	r26, r22
    15e4:	2d 91       	ld	r18, X+
    15e6:	3d 91       	ld	r19, X+
    15e8:	4d 91       	ld	r20, X+
    15ea:	5c 91       	ld	r21, X
    15ec:	88 27       	eor	r24, r24
    15ee:	99 27       	eor	r25, r25
    15f0:	dc 01       	movw	r26, r24
    15f2:	82 1b       	sub	r24, r18
    15f4:	93 0b       	sbc	r25, r19
    15f6:	a4 0b       	sbc	r26, r20
    15f8:	b5 0b       	sbc	r27, r21
    15fa:	80 83       	st	Z, r24
    15fc:	91 83       	std	Z+1, r25	; 0x01
    15fe:	a2 83       	std	Z+2, r26	; 0x02
    1600:	b3 83       	std	Z+3, r27	; 0x03
    1602:	81 e0       	ldi	r24, 0x01	; 1
    1604:	90 e0       	ldi	r25, 0x00	; 0
    1606:	a0 e0       	ldi	r26, 0x00	; 0
    1608:	b0 e0       	ldi	r27, 0x00	; 0
    160a:	88 83       	st	Y, r24
    160c:	99 83       	std	Y+1, r25	; 0x01
    160e:	aa 83       	std	Y+2, r26	; 0x02
    1610:	bb 83       	std	Y+3, r27	; 0x03
    1612:	04 c0       	rjmp	.+8      	; 0x161c <PID+0x596>
    1614:	18 82       	st	Y, r1
    1616:	19 82       	std	Y+1, r1	; 0x01
    1618:	1a 82       	std	Y+2, r1	; 0x02
    161a:	1b 82       	std	Y+3, r1	; 0x03
    161c:	82 e6       	ldi	r24, 0x62	; 98
    161e:	90 e0       	ldi	r25, 0x00	; 0
    1620:	08 9f       	mul	r16, r24
    1622:	f0 01       	movw	r30, r0
    1624:	09 9f       	mul	r16, r25
    1626:	f0 0d       	add	r31, r0
    1628:	18 9f       	mul	r17, r24
    162a:	f0 0d       	add	r31, r0
    162c:	11 24       	eor	r1, r1
    162e:	ef 59       	subi	r30, 0x9F	; 159
    1630:	fe 4d       	sbci	r31, 0xDE	; 222
    1632:	20 81       	ld	r18, Z
    1634:	21 30       	cpi	r18, 0x01	; 1
    1636:	09 f0       	breq	.+2      	; 0x163a <PID+0x5b4>
    1638:	1c c3       	rjmp	.+1592   	; 0x1c72 <PID+0xbec>
    163a:	ff 20       	and	r15, r15
    163c:	09 f0       	breq	.+2      	; 0x1640 <PID+0x5ba>
    163e:	7f c0       	rjmp	.+254    	; 0x173e <PID+0x6b8>
    1640:	80 91 45 21 	lds	r24, 0x2145
    1644:	90 91 46 21 	lds	r25, 0x2146
    1648:	a0 91 47 21 	lds	r26, 0x2147
    164c:	b0 91 48 21 	lds	r27, 0x2148
    1650:	b7 fd       	sbrc	r27, 7
    1652:	12 c0       	rjmp	.+36     	; 0x1678 <PID+0x5f2>
    1654:	81 e0       	ldi	r24, 0x01	; 1
    1656:	90 e0       	ldi	r25, 0x00	; 0
    1658:	a0 e0       	ldi	r26, 0x00	; 0
    165a:	b0 e0       	ldi	r27, 0x00	; 0
    165c:	80 93 55 21 	sts	0x2155, r24
    1660:	90 93 56 21 	sts	0x2156, r25
    1664:	a0 93 57 21 	sts	0x2157, r26
    1668:	b0 93 58 21 	sts	0x2158, r27
    166c:	e0 e6       	ldi	r30, 0x60	; 96
    166e:	f6 e0       	ldi	r31, 0x06	; 6
    1670:	82 e0       	ldi	r24, 0x02	; 2
    1672:	86 83       	std	Z+6, r24	; 0x06
    1674:	25 83       	std	Z+5, r18	; 0x05
    1676:	0d c0       	rjmp	.+26     	; 0x1692 <PID+0x60c>
    1678:	10 92 55 21 	sts	0x2155, r1
    167c:	10 92 56 21 	sts	0x2156, r1
    1680:	10 92 57 21 	sts	0x2157, r1
    1684:	10 92 58 21 	sts	0x2158, r1
    1688:	e0 e6       	ldi	r30, 0x60	; 96
    168a:	f6 e0       	ldi	r31, 0x06	; 6
    168c:	26 83       	std	Z+6, r18	; 0x06
    168e:	82 e0       	ldi	r24, 0x02	; 2
    1690:	85 83       	std	Z+5, r24	; 0x05
    1692:	20 91 0d 21 	lds	r18, 0x210D
    1696:	30 91 0e 21 	lds	r19, 0x210E
    169a:	40 91 0f 21 	lds	r20, 0x210F
    169e:	50 91 10 21 	lds	r21, 0x2110
    16a2:	80 91 15 21 	lds	r24, 0x2115
    16a6:	90 91 16 21 	lds	r25, 0x2116
    16aa:	a0 91 17 21 	lds	r26, 0x2117
    16ae:	b0 91 18 21 	lds	r27, 0x2118
    16b2:	82 17       	cp	r24, r18
    16b4:	93 07       	cpc	r25, r19
    16b6:	a4 07       	cpc	r26, r20
    16b8:	b5 07       	cpc	r27, r21
    16ba:	34 f0       	brlt	.+12     	; 0x16c8 <PID+0x642>
    16bc:	e0 e6       	ldi	r30, 0x60	; 96
    16be:	f6 e0       	ldi	r31, 0x06	; 6
    16c0:	82 e0       	ldi	r24, 0x02	; 2
    16c2:	85 83       	std	Z+5, r24	; 0x05
    16c4:	81 e0       	ldi	r24, 0x01	; 1
    16c6:	85 83       	std	Z+5, r24	; 0x05
    16c8:	20 91 55 21 	lds	r18, 0x2155
    16cc:	30 91 56 21 	lds	r19, 0x2156
    16d0:	40 91 57 21 	lds	r20, 0x2157
    16d4:	50 91 58 21 	lds	r21, 0x2158
    16d8:	80 91 59 21 	lds	r24, 0x2159
    16dc:	90 91 5a 21 	lds	r25, 0x215A
    16e0:	a0 91 5b 21 	lds	r26, 0x215B
    16e4:	b0 91 5c 21 	lds	r27, 0x215C
    16e8:	28 17       	cp	r18, r24
    16ea:	39 07       	cpc	r19, r25
    16ec:	4a 07       	cpc	r20, r26
    16ee:	5b 07       	cpc	r21, r27
    16f0:	91 f4       	brne	.+36     	; 0x1716 <PID+0x690>
    16f2:	80 91 45 21 	lds	r24, 0x2145
    16f6:	90 91 46 21 	lds	r25, 0x2146
    16fa:	a0 91 47 21 	lds	r26, 0x2147
    16fe:	b0 91 48 21 	lds	r27, 0x2148
    1702:	97 ff       	sbrs	r25, 7
    1704:	03 c0       	rjmp	.+6      	; 0x170c <PID+0x686>
    1706:	90 95       	com	r25
    1708:	81 95       	neg	r24
    170a:	9f 4f       	sbci	r25, 0xFF	; 255
    170c:	e0 e0       	ldi	r30, 0x00	; 0
    170e:	fa e0       	ldi	r31, 0x0A	; 10
    1710:	80 af       	std	Z+56, r24	; 0x38
    1712:	91 af       	std	Z+57, r25	; 0x39
    1714:	04 c0       	rjmp	.+8      	; 0x171e <PID+0x698>
    1716:	e0 e0       	ldi	r30, 0x00	; 0
    1718:	fa e0       	ldi	r31, 0x0A	; 10
    171a:	10 ae       	std	Z+56, r1	; 0x38
    171c:	11 ae       	std	Z+57, r1	; 0x39
    171e:	80 91 55 21 	lds	r24, 0x2155
    1722:	90 91 56 21 	lds	r25, 0x2156
    1726:	a0 91 57 21 	lds	r26, 0x2157
    172a:	b0 91 58 21 	lds	r27, 0x2158
    172e:	80 93 59 21 	sts	0x2159, r24
    1732:	90 93 5a 21 	sts	0x215A, r25
    1736:	a0 93 5b 21 	sts	0x215B, r26
    173a:	b0 93 5c 21 	sts	0x215C, r27
    173e:	82 e6       	ldi	r24, 0x62	; 98
    1740:	90 e0       	ldi	r25, 0x00	; 0
    1742:	08 9f       	mul	r16, r24
    1744:	e0 01       	movw	r28, r0
    1746:	09 9f       	mul	r16, r25
    1748:	d0 0d       	add	r29, r0
    174a:	18 9f       	mul	r17, r24
    174c:	d0 0d       	add	r29, r0
    174e:	11 24       	eor	r1, r1
    1750:	cf 5f       	subi	r28, 0xFF	; 255
    1752:	de 4d       	sbci	r29, 0xDE	; 222
    1754:	c0 5a       	subi	r28, 0xA0	; 160
    1756:	df 4f       	sbci	r29, 0xFF	; 255
    1758:	88 81       	ld	r24, Y
    175a:	c0 56       	subi	r28, 0x60	; 96
    175c:	d0 40       	sbci	r29, 0x00	; 0
    175e:	81 30       	cpi	r24, 0x01	; 1
    1760:	09 f0       	breq	.+2      	; 0x1764 <PID+0x6de>
    1762:	87 c2       	rjmp	.+1294   	; 0x1c72 <PID+0xbec>
    1764:	b1 e0       	ldi	r27, 0x01	; 1
    1766:	fb 16       	cp	r15, r27
    1768:	09 f0       	breq	.+2      	; 0x176c <PID+0x6e6>
    176a:	81 c0       	rjmp	.+258    	; 0x186e <PID+0x7e8>
    176c:	80 91 a7 21 	lds	r24, 0x21A7
    1770:	90 91 a8 21 	lds	r25, 0x21A8
    1774:	a0 91 a9 21 	lds	r26, 0x21A9
    1778:	b0 91 aa 21 	lds	r27, 0x21AA
    177c:	b7 fd       	sbrc	r27, 7
    177e:	12 c0       	rjmp	.+36     	; 0x17a4 <PID+0x71e>
    1780:	81 e0       	ldi	r24, 0x01	; 1
    1782:	90 e0       	ldi	r25, 0x00	; 0
    1784:	a0 e0       	ldi	r26, 0x00	; 0
    1786:	b0 e0       	ldi	r27, 0x00	; 0
    1788:	80 93 b7 21 	sts	0x21B7, r24
    178c:	90 93 b8 21 	sts	0x21B8, r25
    1790:	a0 93 b9 21 	sts	0x21B9, r26
    1794:	b0 93 ba 21 	sts	0x21BA, r27
    1798:	e0 e6       	ldi	r30, 0x60	; 96
    179a:	f6 e0       	ldi	r31, 0x06	; 6
    179c:	84 e0       	ldi	r24, 0x04	; 4
    179e:	86 83       	std	Z+6, r24	; 0x06
    17a0:	88 e0       	ldi	r24, 0x08	; 8
    17a2:	0d c0       	rjmp	.+26     	; 0x17be <PID+0x738>
    17a4:	10 92 b7 21 	sts	0x21B7, r1
    17a8:	10 92 b8 21 	sts	0x21B8, r1
    17ac:	10 92 b9 21 	sts	0x21B9, r1
    17b0:	10 92 ba 21 	sts	0x21BA, r1
    17b4:	e0 e6       	ldi	r30, 0x60	; 96
    17b6:	f6 e0       	ldi	r31, 0x06	; 6
    17b8:	88 e0       	ldi	r24, 0x08	; 8
    17ba:	86 83       	std	Z+6, r24	; 0x06
    17bc:	84 e0       	ldi	r24, 0x04	; 4
    17be:	85 83       	std	Z+5, r24	; 0x05
    17c0:	20 91 6f 21 	lds	r18, 0x216F
    17c4:	30 91 70 21 	lds	r19, 0x2170
    17c8:	40 91 71 21 	lds	r20, 0x2171
    17cc:	50 91 72 21 	lds	r21, 0x2172
    17d0:	80 91 77 21 	lds	r24, 0x2177
    17d4:	90 91 78 21 	lds	r25, 0x2178
    17d8:	a0 91 79 21 	lds	r26, 0x2179
    17dc:	b0 91 7a 21 	lds	r27, 0x217A
    17e0:	82 17       	cp	r24, r18
    17e2:	93 07       	cpc	r25, r19
    17e4:	a4 07       	cpc	r26, r20
    17e6:	b5 07       	cpc	r27, r21
    17e8:	34 f0       	brlt	.+12     	; 0x17f6 <PID+0x770>
    17ea:	e0 e6       	ldi	r30, 0x60	; 96
    17ec:	f6 e0       	ldi	r31, 0x06	; 6
    17ee:	88 e0       	ldi	r24, 0x08	; 8
    17f0:	85 83       	std	Z+5, r24	; 0x05
    17f2:	84 e0       	ldi	r24, 0x04	; 4
    17f4:	85 83       	std	Z+5, r24	; 0x05
    17f6:	20 91 b7 21 	lds	r18, 0x21B7
    17fa:	30 91 b8 21 	lds	r19, 0x21B8
    17fe:	40 91 b9 21 	lds	r20, 0x21B9
    1802:	50 91 ba 21 	lds	r21, 0x21BA
    1806:	80 91 bb 21 	lds	r24, 0x21BB
    180a:	90 91 bc 21 	lds	r25, 0x21BC
    180e:	a0 91 bd 21 	lds	r26, 0x21BD
    1812:	b0 91 be 21 	lds	r27, 0x21BE
    1816:	28 17       	cp	r18, r24
    1818:	39 07       	cpc	r19, r25
    181a:	4a 07       	cpc	r20, r26
    181c:	5b 07       	cpc	r21, r27
    181e:	91 f4       	brne	.+36     	; 0x1844 <PID+0x7be>
    1820:	80 91 a7 21 	lds	r24, 0x21A7
    1824:	90 91 a8 21 	lds	r25, 0x21A8
    1828:	a0 91 a9 21 	lds	r26, 0x21A9
    182c:	b0 91 aa 21 	lds	r27, 0x21AA
    1830:	97 ff       	sbrs	r25, 7
    1832:	03 c0       	rjmp	.+6      	; 0x183a <PID+0x7b4>
    1834:	90 95       	com	r25
    1836:	81 95       	neg	r24
    1838:	9f 4f       	sbci	r25, 0xFF	; 255
    183a:	e0 e0       	ldi	r30, 0x00	; 0
    183c:	fa e0       	ldi	r31, 0x0A	; 10
    183e:	82 af       	std	Z+58, r24	; 0x3a
    1840:	93 af       	std	Z+59, r25	; 0x3b
    1842:	04 c0       	rjmp	.+8      	; 0x184c <PID+0x7c6>
    1844:	e0 e0       	ldi	r30, 0x00	; 0
    1846:	fa e0       	ldi	r31, 0x0A	; 10
    1848:	12 ae       	std	Z+58, r1	; 0x3a
    184a:	13 ae       	std	Z+59, r1	; 0x3b
    184c:	80 91 b7 21 	lds	r24, 0x21B7
    1850:	90 91 b8 21 	lds	r25, 0x21B8
    1854:	a0 91 b9 21 	lds	r26, 0x21B9
    1858:	b0 91 ba 21 	lds	r27, 0x21BA
    185c:	80 93 bb 21 	sts	0x21BB, r24
    1860:	90 93 bc 21 	sts	0x21BC, r25
    1864:	a0 93 bd 21 	sts	0x21BD, r26
    1868:	b0 93 be 21 	sts	0x21BE, r27
    186c:	02 c2       	rjmp	.+1028   	; 0x1c72 <PID+0xbec>
    186e:	82 e0       	ldi	r24, 0x02	; 2
    1870:	f8 16       	cp	r15, r24
    1872:	09 f0       	breq	.+2      	; 0x1876 <PID+0x7f0>
    1874:	73 c0       	rjmp	.+230    	; 0x195c <PID+0x8d6>
    1876:	fe 01       	movw	r30, r28
    1878:	ec 5b       	subi	r30, 0xBC	; 188
    187a:	ff 4f       	sbci	r31, 0xFF	; 255
    187c:	80 81       	ld	r24, Z
    187e:	91 81       	ldd	r25, Z+1	; 0x01
    1880:	a2 81       	ldd	r26, Z+2	; 0x02
    1882:	b3 81       	ldd	r27, Z+3	; 0x03
    1884:	fe 01       	movw	r30, r28
    1886:	ec 5a       	subi	r30, 0xAC	; 172
    1888:	ff 4f       	sbci	r31, 0xFF	; 255
    188a:	b7 fd       	sbrc	r27, 7
    188c:	0e c0       	rjmp	.+28     	; 0x18aa <PID+0x824>
    188e:	81 e0       	ldi	r24, 0x01	; 1
    1890:	90 e0       	ldi	r25, 0x00	; 0
    1892:	a0 e0       	ldi	r26, 0x00	; 0
    1894:	b0 e0       	ldi	r27, 0x00	; 0
    1896:	80 83       	st	Z, r24
    1898:	91 83       	std	Z+1, r25	; 0x01
    189a:	a2 83       	std	Z+2, r26	; 0x02
    189c:	b3 83       	std	Z+3, r27	; 0x03
    189e:	e0 e6       	ldi	r30, 0x60	; 96
    18a0:	f6 e0       	ldi	r31, 0x06	; 6
    18a2:	80 e1       	ldi	r24, 0x10	; 16
    18a4:	86 83       	std	Z+6, r24	; 0x06
    18a6:	80 e2       	ldi	r24, 0x20	; 32
    18a8:	09 c0       	rjmp	.+18     	; 0x18bc <PID+0x836>
    18aa:	10 82       	st	Z, r1
    18ac:	11 82       	std	Z+1, r1	; 0x01
    18ae:	12 82       	std	Z+2, r1	; 0x02
    18b0:	13 82       	std	Z+3, r1	; 0x03
    18b2:	e0 e6       	ldi	r30, 0x60	; 96
    18b4:	f6 e0       	ldi	r31, 0x06	; 6
    18b6:	80 e2       	ldi	r24, 0x20	; 32
    18b8:	86 83       	std	Z+6, r24	; 0x06
    18ba:	80 e1       	ldi	r24, 0x10	; 16
    18bc:	85 83       	std	Z+5, r24	; 0x05
    18be:	82 e6       	ldi	r24, 0x62	; 98
    18c0:	90 e0       	ldi	r25, 0x00	; 0
    18c2:	08 9f       	mul	r16, r24
    18c4:	f0 01       	movw	r30, r0
    18c6:	09 9f       	mul	r16, r25
    18c8:	f0 0d       	add	r31, r0
    18ca:	18 9f       	mul	r17, r24
    18cc:	f0 0d       	add	r31, r0
    18ce:	11 24       	eor	r1, r1
    18d0:	ef 5f       	subi	r30, 0xFF	; 255
    18d2:	fe 4d       	sbci	r31, 0xDE	; 222
    18d4:	24 85       	ldd	r18, Z+12	; 0x0c
    18d6:	35 85       	ldd	r19, Z+13	; 0x0d
    18d8:	46 85       	ldd	r20, Z+14	; 0x0e
    18da:	57 85       	ldd	r21, Z+15	; 0x0f
    18dc:	84 89       	ldd	r24, Z+20	; 0x14
    18de:	95 89       	ldd	r25, Z+21	; 0x15
    18e0:	a6 89       	ldd	r26, Z+22	; 0x16
    18e2:	b7 89       	ldd	r27, Z+23	; 0x17
    18e4:	82 17       	cp	r24, r18
    18e6:	93 07       	cpc	r25, r19
    18e8:	a4 07       	cpc	r26, r20
    18ea:	b5 07       	cpc	r27, r21
    18ec:	34 f0       	brlt	.+12     	; 0x18fa <PID+0x874>
    18ee:	e0 e6       	ldi	r30, 0x60	; 96
    18f0:	f6 e0       	ldi	r31, 0x06	; 6
    18f2:	80 e1       	ldi	r24, 0x10	; 16
    18f4:	85 83       	std	Z+5, r24	; 0x05
    18f6:	80 e2       	ldi	r24, 0x20	; 32
    18f8:	85 83       	std	Z+5, r24	; 0x05
    18fa:	82 e6       	ldi	r24, 0x62	; 98
    18fc:	90 e0       	ldi	r25, 0x00	; 0
    18fe:	08 9f       	mul	r16, r24
    1900:	f0 01       	movw	r30, r0
    1902:	09 9f       	mul	r16, r25
    1904:	f0 0d       	add	r31, r0
    1906:	18 9f       	mul	r17, r24
    1908:	f0 0d       	add	r31, r0
    190a:	11 24       	eor	r1, r1
    190c:	ef 5f       	subi	r30, 0xFF	; 255
    190e:	fe 4d       	sbci	r31, 0xDE	; 222
    1910:	ec 5a       	subi	r30, 0xAC	; 172
    1912:	ff 4f       	sbci	r31, 0xFF	; 255
    1914:	21 91       	ld	r18, Z+
    1916:	31 91       	ld	r19, Z+
    1918:	41 91       	ld	r20, Z+
    191a:	51 91       	ld	r21, Z+
    191c:	80 81       	ld	r24, Z
    191e:	91 81       	ldd	r25, Z+1	; 0x01
    1920:	a2 81       	ldd	r26, Z+2	; 0x02
    1922:	b3 81       	ldd	r27, Z+3	; 0x03
    1924:	e8 55       	subi	r30, 0x58	; 88
    1926:	f0 40       	sbci	r31, 0x00	; 0
    1928:	28 17       	cp	r18, r24
    192a:	39 07       	cpc	r19, r25
    192c:	4a 07       	cpc	r20, r26
    192e:	5b 07       	cpc	r21, r27
    1930:	81 f4       	brne	.+32     	; 0x1952 <PID+0x8cc>
    1932:	ec 5b       	subi	r30, 0xBC	; 188
    1934:	ff 4f       	sbci	r31, 0xFF	; 255
    1936:	80 81       	ld	r24, Z
    1938:	91 81       	ldd	r25, Z+1	; 0x01
    193a:	a2 81       	ldd	r26, Z+2	; 0x02
    193c:	b3 81       	ldd	r27, Z+3	; 0x03
    193e:	97 ff       	sbrs	r25, 7
    1940:	03 c0       	rjmp	.+6      	; 0x1948 <PID+0x8c2>
    1942:	90 95       	com	r25
    1944:	81 95       	neg	r24
    1946:	9f 4f       	sbci	r25, 0xFF	; 255
    1948:	e0 e0       	ldi	r30, 0x00	; 0
    194a:	fa e0       	ldi	r31, 0x0A	; 10
    194c:	84 af       	std	Z+60, r24	; 0x3c
    194e:	95 af       	std	Z+61, r25	; 0x3d
    1950:	7b c1       	rjmp	.+758    	; 0x1c48 <PID+0xbc2>
    1952:	e0 e0       	ldi	r30, 0x00	; 0
    1954:	fa e0       	ldi	r31, 0x0A	; 10
    1956:	14 ae       	std	Z+60, r1	; 0x3c
    1958:	15 ae       	std	Z+61, r1	; 0x3d
    195a:	76 c1       	rjmp	.+748    	; 0x1c48 <PID+0xbc2>
    195c:	a3 e0       	ldi	r26, 0x03	; 3
    195e:	fa 16       	cp	r15, r26
    1960:	09 f0       	breq	.+2      	; 0x1964 <PID+0x8de>
    1962:	79 c0       	rjmp	.+242    	; 0x1a56 <PID+0x9d0>
    1964:	fe 01       	movw	r30, r28
    1966:	ec 5b       	subi	r30, 0xBC	; 188
    1968:	ff 4f       	sbci	r31, 0xFF	; 255
    196a:	80 81       	ld	r24, Z
    196c:	91 81       	ldd	r25, Z+1	; 0x01
    196e:	a2 81       	ldd	r26, Z+2	; 0x02
    1970:	b3 81       	ldd	r27, Z+3	; 0x03
    1972:	fe 01       	movw	r30, r28
    1974:	ec 5a       	subi	r30, 0xAC	; 172
    1976:	ff 4f       	sbci	r31, 0xFF	; 255
    1978:	b7 fd       	sbrc	r27, 7
    197a:	11 c0       	rjmp	.+34     	; 0x199e <PID+0x918>
    197c:	81 e0       	ldi	r24, 0x01	; 1
    197e:	90 e0       	ldi	r25, 0x00	; 0
    1980:	a0 e0       	ldi	r26, 0x00	; 0
    1982:	b0 e0       	ldi	r27, 0x00	; 0
    1984:	80 83       	st	Z, r24
    1986:	91 83       	std	Z+1, r25	; 0x01
    1988:	a2 83       	std	Z+2, r26	; 0x02
    198a:	b3 83       	std	Z+3, r27	; 0x03
    198c:	80 91 64 06 	lds	r24, 0x0664
    1990:	8f 7b       	andi	r24, 0xBF	; 191
    1992:	80 93 64 06 	sts	0x0664, r24
    1996:	80 91 64 06 	lds	r24, 0x0664
    199a:	80 68       	ori	r24, 0x80	; 128
    199c:	0c c0       	rjmp	.+24     	; 0x19b6 <PID+0x930>
    199e:	10 82       	st	Z, r1
    19a0:	11 82       	std	Z+1, r1	; 0x01
    19a2:	12 82       	std	Z+2, r1	; 0x02
    19a4:	13 82       	std	Z+3, r1	; 0x03
    19a6:	80 91 64 06 	lds	r24, 0x0664
    19aa:	8f 77       	andi	r24, 0x7F	; 127
    19ac:	80 93 64 06 	sts	0x0664, r24
    19b0:	80 91 64 06 	lds	r24, 0x0664
    19b4:	80 64       	ori	r24, 0x40	; 64
    19b6:	80 93 64 06 	sts	0x0664, r24
    19ba:	82 e6       	ldi	r24, 0x62	; 98
    19bc:	90 e0       	ldi	r25, 0x00	; 0
    19be:	08 9f       	mul	r16, r24
    19c0:	f0 01       	movw	r30, r0
    19c2:	09 9f       	mul	r16, r25
    19c4:	f0 0d       	add	r31, r0
    19c6:	18 9f       	mul	r17, r24
    19c8:	f0 0d       	add	r31, r0
    19ca:	11 24       	eor	r1, r1
    19cc:	ef 5f       	subi	r30, 0xFF	; 255
    19ce:	fe 4d       	sbci	r31, 0xDE	; 222
    19d0:	24 85       	ldd	r18, Z+12	; 0x0c
    19d2:	35 85       	ldd	r19, Z+13	; 0x0d
    19d4:	46 85       	ldd	r20, Z+14	; 0x0e
    19d6:	57 85       	ldd	r21, Z+15	; 0x0f
    19d8:	84 89       	ldd	r24, Z+20	; 0x14
    19da:	95 89       	ldd	r25, Z+21	; 0x15
    19dc:	a6 89       	ldd	r26, Z+22	; 0x16
    19de:	b7 89       	ldd	r27, Z+23	; 0x17
    19e0:	82 17       	cp	r24, r18
    19e2:	93 07       	cpc	r25, r19
    19e4:	a4 07       	cpc	r26, r20
    19e6:	b5 07       	cpc	r27, r21
    19e8:	2c f0       	brlt	.+10     	; 0x19f4 <PID+0x96e>
    19ea:	80 91 64 06 	lds	r24, 0x0664
    19ee:	80 6c       	ori	r24, 0xC0	; 192
    19f0:	80 93 64 06 	sts	0x0664, r24
    19f4:	82 e6       	ldi	r24, 0x62	; 98
    19f6:	90 e0       	ldi	r25, 0x00	; 0
    19f8:	08 9f       	mul	r16, r24
    19fa:	f0 01       	movw	r30, r0
    19fc:	09 9f       	mul	r16, r25
    19fe:	f0 0d       	add	r31, r0
    1a00:	18 9f       	mul	r17, r24
    1a02:	f0 0d       	add	r31, r0
    1a04:	11 24       	eor	r1, r1
    1a06:	ef 5f       	subi	r30, 0xFF	; 255
    1a08:	fe 4d       	sbci	r31, 0xDE	; 222
    1a0a:	ec 5a       	subi	r30, 0xAC	; 172
    1a0c:	ff 4f       	sbci	r31, 0xFF	; 255
    1a0e:	21 91       	ld	r18, Z+
    1a10:	31 91       	ld	r19, Z+
    1a12:	41 91       	ld	r20, Z+
    1a14:	51 91       	ld	r21, Z+
    1a16:	80 81       	ld	r24, Z
    1a18:	91 81       	ldd	r25, Z+1	; 0x01
    1a1a:	a2 81       	ldd	r26, Z+2	; 0x02
    1a1c:	b3 81       	ldd	r27, Z+3	; 0x03
    1a1e:	e8 55       	subi	r30, 0x58	; 88
    1a20:	f0 40       	sbci	r31, 0x00	; 0
    1a22:	28 17       	cp	r18, r24
    1a24:	39 07       	cpc	r19, r25
    1a26:	4a 07       	cpc	r20, r26
    1a28:	5b 07       	cpc	r21, r27
    1a2a:	81 f4       	brne	.+32     	; 0x1a4c <PID+0x9c6>
    1a2c:	ec 5b       	subi	r30, 0xBC	; 188
    1a2e:	ff 4f       	sbci	r31, 0xFF	; 255
    1a30:	80 81       	ld	r24, Z
    1a32:	91 81       	ldd	r25, Z+1	; 0x01
    1a34:	a2 81       	ldd	r26, Z+2	; 0x02
    1a36:	b3 81       	ldd	r27, Z+3	; 0x03
    1a38:	97 ff       	sbrs	r25, 7
    1a3a:	03 c0       	rjmp	.+6      	; 0x1a42 <PID+0x9bc>
    1a3c:	90 95       	com	r25
    1a3e:	81 95       	neg	r24
    1a40:	9f 4f       	sbci	r25, 0xFF	; 255
    1a42:	80 93 3e 0a 	sts	0x0A3E, r24
    1a46:	90 93 3f 0a 	sts	0x0A3F, r25
    1a4a:	fe c0       	rjmp	.+508    	; 0x1c48 <PID+0xbc2>
    1a4c:	10 92 3e 0a 	sts	0x0A3E, r1
    1a50:	10 92 3f 0a 	sts	0x0A3F, r1
    1a54:	f9 c0       	rjmp	.+498    	; 0x1c48 <PID+0xbc2>
    1a56:	b4 e0       	ldi	r27, 0x04	; 4
    1a58:	fb 16       	cp	r15, r27
    1a5a:	09 f0       	breq	.+2      	; 0x1a5e <PID+0x9d8>
    1a5c:	79 c0       	rjmp	.+242    	; 0x1b50 <PID+0xaca>
    1a5e:	fe 01       	movw	r30, r28
    1a60:	ec 5b       	subi	r30, 0xBC	; 188
    1a62:	ff 4f       	sbci	r31, 0xFF	; 255
    1a64:	80 81       	ld	r24, Z
    1a66:	91 81       	ldd	r25, Z+1	; 0x01
    1a68:	a2 81       	ldd	r26, Z+2	; 0x02
    1a6a:	b3 81       	ldd	r27, Z+3	; 0x03
    1a6c:	fe 01       	movw	r30, r28
    1a6e:	ec 5a       	subi	r30, 0xAC	; 172
    1a70:	ff 4f       	sbci	r31, 0xFF	; 255
    1a72:	b7 fd       	sbrc	r27, 7
    1a74:	11 c0       	rjmp	.+34     	; 0x1a98 <PID+0xa12>
    1a76:	81 e0       	ldi	r24, 0x01	; 1
    1a78:	90 e0       	ldi	r25, 0x00	; 0
    1a7a:	a0 e0       	ldi	r26, 0x00	; 0
    1a7c:	b0 e0       	ldi	r27, 0x00	; 0
    1a7e:	80 83       	st	Z, r24
    1a80:	91 83       	std	Z+1, r25	; 0x01
    1a82:	a2 83       	std	Z+2, r26	; 0x02
    1a84:	b3 83       	std	Z+3, r27	; 0x03
    1a86:	80 91 84 06 	lds	r24, 0x0684
    1a8a:	8f 7e       	andi	r24, 0xEF	; 239
    1a8c:	80 93 84 06 	sts	0x0684, r24
    1a90:	80 91 84 06 	lds	r24, 0x0684
    1a94:	80 62       	ori	r24, 0x20	; 32
    1a96:	0c c0       	rjmp	.+24     	; 0x1ab0 <PID+0xa2a>
    1a98:	10 82       	st	Z, r1
    1a9a:	11 82       	std	Z+1, r1	; 0x01
    1a9c:	12 82       	std	Z+2, r1	; 0x02
    1a9e:	13 82       	std	Z+3, r1	; 0x03
    1aa0:	80 91 84 06 	lds	r24, 0x0684
    1aa4:	8f 7d       	andi	r24, 0xDF	; 223
    1aa6:	80 93 84 06 	sts	0x0684, r24
    1aaa:	80 91 84 06 	lds	r24, 0x0684
    1aae:	80 61       	ori	r24, 0x10	; 16
    1ab0:	80 93 84 06 	sts	0x0684, r24
    1ab4:	82 e6       	ldi	r24, 0x62	; 98
    1ab6:	90 e0       	ldi	r25, 0x00	; 0
    1ab8:	08 9f       	mul	r16, r24
    1aba:	f0 01       	movw	r30, r0
    1abc:	09 9f       	mul	r16, r25
    1abe:	f0 0d       	add	r31, r0
    1ac0:	18 9f       	mul	r17, r24
    1ac2:	f0 0d       	add	r31, r0
    1ac4:	11 24       	eor	r1, r1
    1ac6:	ef 5f       	subi	r30, 0xFF	; 255
    1ac8:	fe 4d       	sbci	r31, 0xDE	; 222
    1aca:	24 85       	ldd	r18, Z+12	; 0x0c
    1acc:	35 85       	ldd	r19, Z+13	; 0x0d
    1ace:	46 85       	ldd	r20, Z+14	; 0x0e
    1ad0:	57 85       	ldd	r21, Z+15	; 0x0f
    1ad2:	84 89       	ldd	r24, Z+20	; 0x14
    1ad4:	95 89       	ldd	r25, Z+21	; 0x15
    1ad6:	a6 89       	ldd	r26, Z+22	; 0x16
    1ad8:	b7 89       	ldd	r27, Z+23	; 0x17
    1ada:	82 17       	cp	r24, r18
    1adc:	93 07       	cpc	r25, r19
    1ade:	a4 07       	cpc	r26, r20
    1ae0:	b5 07       	cpc	r27, r21
    1ae2:	2c f0       	brlt	.+10     	; 0x1aee <PID+0xa68>
    1ae4:	80 91 84 06 	lds	r24, 0x0684
    1ae8:	80 63       	ori	r24, 0x30	; 48
    1aea:	80 93 84 06 	sts	0x0684, r24
    1aee:	82 e6       	ldi	r24, 0x62	; 98
    1af0:	90 e0       	ldi	r25, 0x00	; 0
    1af2:	08 9f       	mul	r16, r24
    1af4:	f0 01       	movw	r30, r0
    1af6:	09 9f       	mul	r16, r25
    1af8:	f0 0d       	add	r31, r0
    1afa:	18 9f       	mul	r17, r24
    1afc:	f0 0d       	add	r31, r0
    1afe:	11 24       	eor	r1, r1
    1b00:	ef 5f       	subi	r30, 0xFF	; 255
    1b02:	fe 4d       	sbci	r31, 0xDE	; 222
    1b04:	ec 5a       	subi	r30, 0xAC	; 172
    1b06:	ff 4f       	sbci	r31, 0xFF	; 255
    1b08:	21 91       	ld	r18, Z+
    1b0a:	31 91       	ld	r19, Z+
    1b0c:	41 91       	ld	r20, Z+
    1b0e:	51 91       	ld	r21, Z+
    1b10:	80 81       	ld	r24, Z
    1b12:	91 81       	ldd	r25, Z+1	; 0x01
    1b14:	a2 81       	ldd	r26, Z+2	; 0x02
    1b16:	b3 81       	ldd	r27, Z+3	; 0x03
    1b18:	e8 55       	subi	r30, 0x58	; 88
    1b1a:	f0 40       	sbci	r31, 0x00	; 0
    1b1c:	28 17       	cp	r18, r24
    1b1e:	39 07       	cpc	r19, r25
    1b20:	4a 07       	cpc	r20, r26
    1b22:	5b 07       	cpc	r21, r27
    1b24:	81 f4       	brne	.+32     	; 0x1b46 <PID+0xac0>
    1b26:	ec 5b       	subi	r30, 0xBC	; 188
    1b28:	ff 4f       	sbci	r31, 0xFF	; 255
    1b2a:	80 81       	ld	r24, Z
    1b2c:	91 81       	ldd	r25, Z+1	; 0x01
    1b2e:	a2 81       	ldd	r26, Z+2	; 0x02
    1b30:	b3 81       	ldd	r27, Z+3	; 0x03
    1b32:	97 ff       	sbrs	r25, 7
    1b34:	03 c0       	rjmp	.+6      	; 0x1b3c <PID+0xab6>
    1b36:	90 95       	com	r25
    1b38:	81 95       	neg	r24
    1b3a:	9f 4f       	sbci	r25, 0xFF	; 255
    1b3c:	e0 e0       	ldi	r30, 0x00	; 0
    1b3e:	fb e0       	ldi	r31, 0x0B	; 11
    1b40:	80 af       	std	Z+56, r24	; 0x38
    1b42:	91 af       	std	Z+57, r25	; 0x39
    1b44:	81 c0       	rjmp	.+258    	; 0x1c48 <PID+0xbc2>
    1b46:	e0 e0       	ldi	r30, 0x00	; 0
    1b48:	fb e0       	ldi	r31, 0x0B	; 11
    1b4a:	10 ae       	std	Z+56, r1	; 0x38
    1b4c:	11 ae       	std	Z+57, r1	; 0x39
    1b4e:	7c c0       	rjmp	.+248    	; 0x1c48 <PID+0xbc2>
    1b50:	85 e0       	ldi	r24, 0x05	; 5
    1b52:	f8 16       	cp	r15, r24
    1b54:	09 f0       	breq	.+2      	; 0x1b58 <PID+0xad2>
    1b56:	8d c0       	rjmp	.+282    	; 0x1c72 <PID+0xbec>
    1b58:	fe 01       	movw	r30, r28
    1b5a:	ec 5b       	subi	r30, 0xBC	; 188
    1b5c:	ff 4f       	sbci	r31, 0xFF	; 255
    1b5e:	80 81       	ld	r24, Z
    1b60:	91 81       	ldd	r25, Z+1	; 0x01
    1b62:	a2 81       	ldd	r26, Z+2	; 0x02
    1b64:	b3 81       	ldd	r27, Z+3	; 0x03
    1b66:	fe 01       	movw	r30, r28
    1b68:	ec 5a       	subi	r30, 0xAC	; 172
    1b6a:	ff 4f       	sbci	r31, 0xFF	; 255
    1b6c:	b7 fd       	sbrc	r27, 7
    1b6e:	11 c0       	rjmp	.+34     	; 0x1b92 <PID+0xb0c>
    1b70:	81 e0       	ldi	r24, 0x01	; 1
    1b72:	90 e0       	ldi	r25, 0x00	; 0
    1b74:	a0 e0       	ldi	r26, 0x00	; 0
    1b76:	b0 e0       	ldi	r27, 0x00	; 0
    1b78:	80 83       	st	Z, r24
    1b7a:	91 83       	std	Z+1, r25	; 0x01
    1b7c:	a2 83       	std	Z+2, r26	; 0x02
    1b7e:	b3 83       	std	Z+3, r27	; 0x03
    1b80:	80 91 84 06 	lds	r24, 0x0684
    1b84:	8f 7b       	andi	r24, 0xBF	; 191
    1b86:	80 93 84 06 	sts	0x0684, r24
    1b8a:	80 91 84 06 	lds	r24, 0x0684
    1b8e:	80 68       	ori	r24, 0x80	; 128
    1b90:	0c c0       	rjmp	.+24     	; 0x1baa <PID+0xb24>
    1b92:	10 82       	st	Z, r1
    1b94:	11 82       	std	Z+1, r1	; 0x01
    1b96:	12 82       	std	Z+2, r1	; 0x02
    1b98:	13 82       	std	Z+3, r1	; 0x03
    1b9a:	80 91 84 06 	lds	r24, 0x0684
    1b9e:	8f 77       	andi	r24, 0x7F	; 127
    1ba0:	80 93 84 06 	sts	0x0684, r24
    1ba4:	80 91 84 06 	lds	r24, 0x0684
    1ba8:	80 64       	ori	r24, 0x40	; 64
    1baa:	80 93 84 06 	sts	0x0684, r24
    1bae:	82 e6       	ldi	r24, 0x62	; 98
    1bb0:	90 e0       	ldi	r25, 0x00	; 0
    1bb2:	08 9f       	mul	r16, r24
    1bb4:	f0 01       	movw	r30, r0
    1bb6:	09 9f       	mul	r16, r25
    1bb8:	f0 0d       	add	r31, r0
    1bba:	18 9f       	mul	r17, r24
    1bbc:	f0 0d       	add	r31, r0
    1bbe:	11 24       	eor	r1, r1
    1bc0:	ef 5f       	subi	r30, 0xFF	; 255
    1bc2:	fe 4d       	sbci	r31, 0xDE	; 222
    1bc4:	24 85       	ldd	r18, Z+12	; 0x0c
    1bc6:	35 85       	ldd	r19, Z+13	; 0x0d
    1bc8:	46 85       	ldd	r20, Z+14	; 0x0e
    1bca:	57 85       	ldd	r21, Z+15	; 0x0f
    1bcc:	84 89       	ldd	r24, Z+20	; 0x14
    1bce:	95 89       	ldd	r25, Z+21	; 0x15
    1bd0:	a6 89       	ldd	r26, Z+22	; 0x16
    1bd2:	b7 89       	ldd	r27, Z+23	; 0x17
    1bd4:	82 17       	cp	r24, r18
    1bd6:	93 07       	cpc	r25, r19
    1bd8:	a4 07       	cpc	r26, r20
    1bda:	b5 07       	cpc	r27, r21
    1bdc:	2c f0       	brlt	.+10     	; 0x1be8 <PID+0xb62>
    1bde:	80 91 84 06 	lds	r24, 0x0684
    1be2:	80 6c       	ori	r24, 0xC0	; 192
    1be4:	80 93 84 06 	sts	0x0684, r24
    1be8:	82 e6       	ldi	r24, 0x62	; 98
    1bea:	90 e0       	ldi	r25, 0x00	; 0
    1bec:	08 9f       	mul	r16, r24
    1bee:	f0 01       	movw	r30, r0
    1bf0:	09 9f       	mul	r16, r25
    1bf2:	f0 0d       	add	r31, r0
    1bf4:	18 9f       	mul	r17, r24
    1bf6:	f0 0d       	add	r31, r0
    1bf8:	11 24       	eor	r1, r1
    1bfa:	ef 5f       	subi	r30, 0xFF	; 255
    1bfc:	fe 4d       	sbci	r31, 0xDE	; 222
    1bfe:	ec 5a       	subi	r30, 0xAC	; 172
    1c00:	ff 4f       	sbci	r31, 0xFF	; 255
    1c02:	21 91       	ld	r18, Z+
    1c04:	31 91       	ld	r19, Z+
    1c06:	41 91       	ld	r20, Z+
    1c08:	51 91       	ld	r21, Z+
    1c0a:	80 81       	ld	r24, Z
    1c0c:	91 81       	ldd	r25, Z+1	; 0x01
    1c0e:	a2 81       	ldd	r26, Z+2	; 0x02
    1c10:	b3 81       	ldd	r27, Z+3	; 0x03
    1c12:	e8 55       	subi	r30, 0x58	; 88
    1c14:	f0 40       	sbci	r31, 0x00	; 0
    1c16:	28 17       	cp	r18, r24
    1c18:	39 07       	cpc	r19, r25
    1c1a:	4a 07       	cpc	r20, r26
    1c1c:	5b 07       	cpc	r21, r27
    1c1e:	81 f4       	brne	.+32     	; 0x1c40 <PID+0xbba>
    1c20:	ec 5b       	subi	r30, 0xBC	; 188
    1c22:	ff 4f       	sbci	r31, 0xFF	; 255
    1c24:	80 81       	ld	r24, Z
    1c26:	91 81       	ldd	r25, Z+1	; 0x01
    1c28:	a2 81       	ldd	r26, Z+2	; 0x02
    1c2a:	b3 81       	ldd	r27, Z+3	; 0x03
    1c2c:	97 ff       	sbrs	r25, 7
    1c2e:	03 c0       	rjmp	.+6      	; 0x1c36 <PID+0xbb0>
    1c30:	90 95       	com	r25
    1c32:	81 95       	neg	r24
    1c34:	9f 4f       	sbci	r25, 0xFF	; 255
    1c36:	e0 e0       	ldi	r30, 0x00	; 0
    1c38:	fb e0       	ldi	r31, 0x0B	; 11
    1c3a:	82 af       	std	Z+58, r24	; 0x3a
    1c3c:	93 af       	std	Z+59, r25	; 0x3b
    1c3e:	04 c0       	rjmp	.+8      	; 0x1c48 <PID+0xbc2>
    1c40:	e0 e0       	ldi	r30, 0x00	; 0
    1c42:	fb e0       	ldi	r31, 0x0B	; 11
    1c44:	12 ae       	std	Z+58, r1	; 0x3a
    1c46:	13 ae       	std	Z+59, r1	; 0x3b
    1c48:	82 e6       	ldi	r24, 0x62	; 98
    1c4a:	90 e0       	ldi	r25, 0x00	; 0
    1c4c:	08 9f       	mul	r16, r24
    1c4e:	f0 01       	movw	r30, r0
    1c50:	09 9f       	mul	r16, r25
    1c52:	f0 0d       	add	r31, r0
    1c54:	18 9f       	mul	r17, r24
    1c56:	f0 0d       	add	r31, r0
    1c58:	11 24       	eor	r1, r1
    1c5a:	ef 5f       	subi	r30, 0xFF	; 255
    1c5c:	fe 4d       	sbci	r31, 0xDE	; 222
    1c5e:	ec 5a       	subi	r30, 0xAC	; 172
    1c60:	ff 4f       	sbci	r31, 0xFF	; 255
    1c62:	81 91       	ld	r24, Z+
    1c64:	91 91       	ld	r25, Z+
    1c66:	a1 91       	ld	r26, Z+
    1c68:	b1 91       	ld	r27, Z+
    1c6a:	80 83       	st	Z, r24
    1c6c:	91 83       	std	Z+1, r25	; 0x01
    1c6e:	a2 83       	std	Z+2, r26	; 0x02
    1c70:	b3 83       	std	Z+3, r27	; 0x03
    1c72:	df 91       	pop	r29
    1c74:	cf 91       	pop	r28
    1c76:	1f 91       	pop	r17
    1c78:	0f 91       	pop	r16
    1c7a:	ff 90       	pop	r15
    1c7c:	df 90       	pop	r13
    1c7e:	cf 90       	pop	r12
    1c80:	bf 90       	pop	r11
    1c82:	af 90       	pop	r10
    1c84:	08 95       	ret

00001c86 <Onlinecontrol>:
    1c86:	88 23       	and	r24, r24
    1c88:	71 f5       	brne	.+92     	; 0x1ce6 <Onlinecontrol+0x60>
    1c8a:	61 30       	cpi	r22, 0x01	; 1
    1c8c:	61 f4       	brne	.+24     	; 0x1ca6 <Onlinecontrol+0x20>
    1c8e:	20 91 24 26 	lds	r18, 0x2624
    1c92:	30 91 25 26 	lds	r19, 0x2625
    1c96:	80 91 62 21 	lds	r24, 0x2162
    1c9a:	99 27       	eor	r25, r25
    1c9c:	87 fd       	sbrc	r24, 7
    1c9e:	90 95       	com	r25
    1ca0:	82 0f       	add	r24, r18
    1ca2:	93 1f       	adc	r25, r19
    1ca4:	0d c0       	rjmp	.+26     	; 0x1cc0 <Onlinecontrol+0x3a>
    1ca6:	62 30       	cpi	r22, 0x02	; 2
    1ca8:	b1 f4       	brne	.+44     	; 0x1cd6 <Onlinecontrol+0x50>
    1caa:	80 91 24 26 	lds	r24, 0x2624
    1cae:	90 91 25 26 	lds	r25, 0x2625
    1cb2:	20 91 62 21 	lds	r18, 0x2162
    1cb6:	33 27       	eor	r19, r19
    1cb8:	27 fd       	sbrc	r18, 7
    1cba:	30 95       	com	r19
    1cbc:	82 1b       	sub	r24, r18
    1cbe:	93 0b       	sbc	r25, r19
    1cc0:	a0 e0       	ldi	r26, 0x00	; 0
    1cc2:	b0 e0       	ldi	r27, 0x00	; 0
    1cc4:	80 93 09 21 	sts	0x2109, r24
    1cc8:	90 93 0a 21 	sts	0x210A, r25
    1ccc:	a0 93 0b 21 	sts	0x210B, r26
    1cd0:	b0 93 0c 21 	sts	0x210C, r27
    1cd4:	08 95       	ret
    1cd6:	63 30       	cpi	r22, 0x03	; 3
    1cd8:	09 f0       	breq	.+2      	; 0x1cdc <Onlinecontrol+0x56>
    1cda:	b3 c1       	rjmp	.+870    	; 0x2042 <Onlinecontrol+0x3bc>
    1cdc:	80 91 24 26 	lds	r24, 0x2624
    1ce0:	90 91 25 26 	lds	r25, 0x2625
    1ce4:	ed cf       	rjmp	.-38     	; 0x1cc0 <Onlinecontrol+0x3a>
    1ce6:	81 30       	cpi	r24, 0x01	; 1
    1ce8:	71 f5       	brne	.+92     	; 0x1d46 <Onlinecontrol+0xc0>
    1cea:	61 30       	cpi	r22, 0x01	; 1
    1cec:	61 f4       	brne	.+24     	; 0x1d06 <Onlinecontrol+0x80>
    1cee:	20 91 26 26 	lds	r18, 0x2626
    1cf2:	30 91 27 26 	lds	r19, 0x2627
    1cf6:	80 91 c4 21 	lds	r24, 0x21C4
    1cfa:	99 27       	eor	r25, r25
    1cfc:	87 fd       	sbrc	r24, 7
    1cfe:	90 95       	com	r25
    1d00:	82 0f       	add	r24, r18
    1d02:	93 1f       	adc	r25, r19
    1d04:	15 c0       	rjmp	.+42     	; 0x1d30 <Onlinecontrol+0xaa>
    1d06:	62 30       	cpi	r22, 0x02	; 2
    1d08:	61 f4       	brne	.+24     	; 0x1d22 <Onlinecontrol+0x9c>
    1d0a:	80 91 26 26 	lds	r24, 0x2626
    1d0e:	90 91 27 26 	lds	r25, 0x2627
    1d12:	20 91 c4 21 	lds	r18, 0x21C4
    1d16:	33 27       	eor	r19, r19
    1d18:	27 fd       	sbrc	r18, 7
    1d1a:	30 95       	com	r19
    1d1c:	82 1b       	sub	r24, r18
    1d1e:	93 0b       	sbc	r25, r19
    1d20:	07 c0       	rjmp	.+14     	; 0x1d30 <Onlinecontrol+0xaa>
    1d22:	63 30       	cpi	r22, 0x03	; 3
    1d24:	09 f0       	breq	.+2      	; 0x1d28 <Onlinecontrol+0xa2>
    1d26:	8d c1       	rjmp	.+794    	; 0x2042 <Onlinecontrol+0x3bc>
    1d28:	80 91 26 26 	lds	r24, 0x2626
    1d2c:	90 91 27 26 	lds	r25, 0x2627
    1d30:	a0 e0       	ldi	r26, 0x00	; 0
    1d32:	b0 e0       	ldi	r27, 0x00	; 0
    1d34:	80 93 6b 21 	sts	0x216B, r24
    1d38:	90 93 6c 21 	sts	0x216C, r25
    1d3c:	a0 93 6d 21 	sts	0x216D, r26
    1d40:	b0 93 6e 21 	sts	0x216E, r27
    1d44:	08 95       	ret
    1d46:	82 30       	cpi	r24, 0x02	; 2
    1d48:	09 f0       	breq	.+2      	; 0x1d4c <Onlinecontrol+0xc6>
    1d4a:	54 c0       	rjmp	.+168    	; 0x1df4 <Onlinecontrol+0x16e>
    1d4c:	61 30       	cpi	r22, 0x01	; 1
    1d4e:	b1 f4       	brne	.+44     	; 0x1d7c <Onlinecontrol+0xf6>
    1d50:	80 91 28 26 	lds	r24, 0x2628
    1d54:	90 91 29 26 	lds	r25, 0x2629
    1d58:	20 91 26 22 	lds	r18, 0x2226
    1d5c:	33 27       	eor	r19, r19
    1d5e:	27 fd       	sbrc	r18, 7
    1d60:	30 95       	com	r19
    1d62:	28 0f       	add	r18, r24
    1d64:	39 1f       	adc	r19, r25
    1d66:	40 e0       	ldi	r20, 0x00	; 0
    1d68:	50 e0       	ldi	r21, 0x00	; 0
    1d6a:	20 93 cd 21 	sts	0x21CD, r18
    1d6e:	30 93 ce 21 	sts	0x21CE, r19
    1d72:	40 93 cf 21 	sts	0x21CF, r20
    1d76:	50 93 d0 21 	sts	0x21D0, r21
    1d7a:	17 c0       	rjmp	.+46     	; 0x1daa <Onlinecontrol+0x124>
    1d7c:	62 30       	cpi	r22, 0x02	; 2
    1d7e:	31 f5       	brne	.+76     	; 0x1dcc <Onlinecontrol+0x146>
    1d80:	80 91 28 26 	lds	r24, 0x2628
    1d84:	90 91 29 26 	lds	r25, 0x2629
    1d88:	20 91 26 22 	lds	r18, 0x2226
    1d8c:	33 27       	eor	r19, r19
    1d8e:	27 fd       	sbrc	r18, 7
    1d90:	30 95       	com	r19
    1d92:	82 1b       	sub	r24, r18
    1d94:	93 0b       	sbc	r25, r19
    1d96:	a0 e0       	ldi	r26, 0x00	; 0
    1d98:	b0 e0       	ldi	r27, 0x00	; 0
    1d9a:	80 93 cd 21 	sts	0x21CD, r24
    1d9e:	90 93 ce 21 	sts	0x21CE, r25
    1da2:	a0 93 cf 21 	sts	0x21CF, r26
    1da6:	b0 93 d0 21 	sts	0x21D0, r27
    1daa:	80 91 c5 21 	lds	r24, 0x21C5
    1dae:	90 91 c6 21 	lds	r25, 0x21C6
    1db2:	a0 91 c7 21 	lds	r26, 0x21C7
    1db6:	b0 91 c8 21 	lds	r27, 0x21C8
    1dba:	80 93 21 22 	sts	0x2221, r24
    1dbe:	90 93 22 22 	sts	0x2222, r25
    1dc2:	a0 93 23 22 	sts	0x2223, r26
    1dc6:	b0 93 24 22 	sts	0x2224, r27
    1dca:	08 95       	ret
    1dcc:	63 30       	cpi	r22, 0x03	; 3
    1dce:	09 f0       	breq	.+2      	; 0x1dd2 <Onlinecontrol+0x14c>
    1dd0:	38 c1       	rjmp	.+624    	; 0x2042 <Onlinecontrol+0x3bc>
    1dd2:	80 91 21 22 	lds	r24, 0x2221
    1dd6:	90 91 22 22 	lds	r25, 0x2222
    1dda:	a0 91 23 22 	lds	r26, 0x2223
    1dde:	b0 91 24 22 	lds	r27, 0x2224
    1de2:	80 93 cd 21 	sts	0x21CD, r24
    1de6:	90 93 ce 21 	sts	0x21CE, r25
    1dea:	a0 93 cf 21 	sts	0x21CF, r26
    1dee:	b0 93 d0 21 	sts	0x21D0, r27
    1df2:	08 95       	ret
    1df4:	83 30       	cpi	r24, 0x03	; 3
    1df6:	09 f0       	breq	.+2      	; 0x1dfa <Onlinecontrol+0x174>
    1df8:	54 c0       	rjmp	.+168    	; 0x1ea2 <Onlinecontrol+0x21c>
    1dfa:	61 30       	cpi	r22, 0x01	; 1
    1dfc:	b1 f4       	brne	.+44     	; 0x1e2a <Onlinecontrol+0x1a4>
    1dfe:	80 91 22 26 	lds	r24, 0x2622
    1e02:	90 91 23 26 	lds	r25, 0x2623
    1e06:	20 91 88 22 	lds	r18, 0x2288
    1e0a:	33 27       	eor	r19, r19
    1e0c:	27 fd       	sbrc	r18, 7
    1e0e:	30 95       	com	r19
    1e10:	28 0f       	add	r18, r24
    1e12:	39 1f       	adc	r19, r25
    1e14:	40 e0       	ldi	r20, 0x00	; 0
    1e16:	50 e0       	ldi	r21, 0x00	; 0
    1e18:	20 93 2f 22 	sts	0x222F, r18
    1e1c:	30 93 30 22 	sts	0x2230, r19
    1e20:	40 93 31 22 	sts	0x2231, r20
    1e24:	50 93 32 22 	sts	0x2232, r21
    1e28:	17 c0       	rjmp	.+46     	; 0x1e58 <Onlinecontrol+0x1d2>
    1e2a:	62 30       	cpi	r22, 0x02	; 2
    1e2c:	31 f5       	brne	.+76     	; 0x1e7a <Onlinecontrol+0x1f4>
    1e2e:	80 91 22 26 	lds	r24, 0x2622
    1e32:	90 91 23 26 	lds	r25, 0x2623
    1e36:	20 91 88 22 	lds	r18, 0x2288
    1e3a:	33 27       	eor	r19, r19
    1e3c:	27 fd       	sbrc	r18, 7
    1e3e:	30 95       	com	r19
    1e40:	82 1b       	sub	r24, r18
    1e42:	93 0b       	sbc	r25, r19
    1e44:	a0 e0       	ldi	r26, 0x00	; 0
    1e46:	b0 e0       	ldi	r27, 0x00	; 0
    1e48:	80 93 2f 22 	sts	0x222F, r24
    1e4c:	90 93 30 22 	sts	0x2230, r25
    1e50:	a0 93 31 22 	sts	0x2231, r26
    1e54:	b0 93 32 22 	sts	0x2232, r27
    1e58:	80 91 27 22 	lds	r24, 0x2227
    1e5c:	90 91 28 22 	lds	r25, 0x2228
    1e60:	a0 91 29 22 	lds	r26, 0x2229
    1e64:	b0 91 2a 22 	lds	r27, 0x222A
    1e68:	80 93 83 22 	sts	0x2283, r24
    1e6c:	90 93 84 22 	sts	0x2284, r25
    1e70:	a0 93 85 22 	sts	0x2285, r26
    1e74:	b0 93 86 22 	sts	0x2286, r27
    1e78:	08 95       	ret
    1e7a:	63 30       	cpi	r22, 0x03	; 3
    1e7c:	09 f0       	breq	.+2      	; 0x1e80 <Onlinecontrol+0x1fa>
    1e7e:	e1 c0       	rjmp	.+450    	; 0x2042 <Onlinecontrol+0x3bc>
    1e80:	80 91 83 22 	lds	r24, 0x2283
    1e84:	90 91 84 22 	lds	r25, 0x2284
    1e88:	a0 91 85 22 	lds	r26, 0x2285
    1e8c:	b0 91 86 22 	lds	r27, 0x2286
    1e90:	80 93 2f 22 	sts	0x222F, r24
    1e94:	90 93 30 22 	sts	0x2230, r25
    1e98:	a0 93 31 22 	sts	0x2231, r26
    1e9c:	b0 93 32 22 	sts	0x2232, r27
    1ea0:	08 95       	ret
    1ea2:	84 30       	cpi	r24, 0x04	; 4
    1ea4:	09 f0       	breq	.+2      	; 0x1ea8 <Onlinecontrol+0x222>
    1ea6:	54 c0       	rjmp	.+168    	; 0x1f50 <Onlinecontrol+0x2ca>
    1ea8:	61 30       	cpi	r22, 0x01	; 1
    1eaa:	b1 f4       	brne	.+44     	; 0x1ed8 <Onlinecontrol+0x252>
    1eac:	80 91 2c 26 	lds	r24, 0x262C
    1eb0:	90 91 2d 26 	lds	r25, 0x262D
    1eb4:	20 91 ea 22 	lds	r18, 0x22EA
    1eb8:	33 27       	eor	r19, r19
    1eba:	27 fd       	sbrc	r18, 7
    1ebc:	30 95       	com	r19
    1ebe:	28 0f       	add	r18, r24
    1ec0:	39 1f       	adc	r19, r25
    1ec2:	40 e0       	ldi	r20, 0x00	; 0
    1ec4:	50 e0       	ldi	r21, 0x00	; 0
    1ec6:	20 93 91 22 	sts	0x2291, r18
    1eca:	30 93 92 22 	sts	0x2292, r19
    1ece:	40 93 93 22 	sts	0x2293, r20
    1ed2:	50 93 94 22 	sts	0x2294, r21
    1ed6:	17 c0       	rjmp	.+46     	; 0x1f06 <Onlinecontrol+0x280>
    1ed8:	62 30       	cpi	r22, 0x02	; 2
    1eda:	31 f5       	brne	.+76     	; 0x1f28 <Onlinecontrol+0x2a2>
    1edc:	80 91 2c 26 	lds	r24, 0x262C
    1ee0:	90 91 2d 26 	lds	r25, 0x262D
    1ee4:	20 91 ea 22 	lds	r18, 0x22EA
    1ee8:	33 27       	eor	r19, r19
    1eea:	27 fd       	sbrc	r18, 7
    1eec:	30 95       	com	r19
    1eee:	82 1b       	sub	r24, r18
    1ef0:	93 0b       	sbc	r25, r19
    1ef2:	a0 e0       	ldi	r26, 0x00	; 0
    1ef4:	b0 e0       	ldi	r27, 0x00	; 0
    1ef6:	80 93 91 22 	sts	0x2291, r24
    1efa:	90 93 92 22 	sts	0x2292, r25
    1efe:	a0 93 93 22 	sts	0x2293, r26
    1f02:	b0 93 94 22 	sts	0x2294, r27
    1f06:	80 91 89 22 	lds	r24, 0x2289
    1f0a:	90 91 8a 22 	lds	r25, 0x228A
    1f0e:	a0 91 8b 22 	lds	r26, 0x228B
    1f12:	b0 91 8c 22 	lds	r27, 0x228C
    1f16:	80 93 e5 22 	sts	0x22E5, r24
    1f1a:	90 93 e6 22 	sts	0x22E6, r25
    1f1e:	a0 93 e7 22 	sts	0x22E7, r26
    1f22:	b0 93 e8 22 	sts	0x22E8, r27
    1f26:	08 95       	ret
    1f28:	63 30       	cpi	r22, 0x03	; 3
    1f2a:	09 f0       	breq	.+2      	; 0x1f2e <Onlinecontrol+0x2a8>
    1f2c:	8a c0       	rjmp	.+276    	; 0x2042 <Onlinecontrol+0x3bc>
    1f2e:	80 91 e5 22 	lds	r24, 0x22E5
    1f32:	90 91 e6 22 	lds	r25, 0x22E6
    1f36:	a0 91 e7 22 	lds	r26, 0x22E7
    1f3a:	b0 91 e8 22 	lds	r27, 0x22E8
    1f3e:	80 93 91 22 	sts	0x2291, r24
    1f42:	90 93 92 22 	sts	0x2292, r25
    1f46:	a0 93 93 22 	sts	0x2293, r26
    1f4a:	b0 93 94 22 	sts	0x2294, r27
    1f4e:	08 95       	ret
    1f50:	85 30       	cpi	r24, 0x05	; 5
    1f52:	09 f0       	breq	.+2      	; 0x1f56 <Onlinecontrol+0x2d0>
    1f54:	53 c0       	rjmp	.+166    	; 0x1ffc <Onlinecontrol+0x376>
    1f56:	61 30       	cpi	r22, 0x01	; 1
    1f58:	b1 f4       	brne	.+44     	; 0x1f86 <Onlinecontrol+0x300>
    1f5a:	80 91 2e 26 	lds	r24, 0x262E
    1f5e:	90 91 2f 26 	lds	r25, 0x262F
    1f62:	20 91 4c 23 	lds	r18, 0x234C
    1f66:	33 27       	eor	r19, r19
    1f68:	27 fd       	sbrc	r18, 7
    1f6a:	30 95       	com	r19
    1f6c:	28 0f       	add	r18, r24
    1f6e:	39 1f       	adc	r19, r25
    1f70:	40 e0       	ldi	r20, 0x00	; 0
    1f72:	50 e0       	ldi	r21, 0x00	; 0
    1f74:	20 93 f3 22 	sts	0x22F3, r18
    1f78:	30 93 f4 22 	sts	0x22F4, r19
    1f7c:	40 93 f5 22 	sts	0x22F5, r20
    1f80:	50 93 f6 22 	sts	0x22F6, r21
    1f84:	17 c0       	rjmp	.+46     	; 0x1fb4 <Onlinecontrol+0x32e>
    1f86:	62 30       	cpi	r22, 0x02	; 2
    1f88:	31 f5       	brne	.+76     	; 0x1fd6 <Onlinecontrol+0x350>
    1f8a:	80 91 2e 26 	lds	r24, 0x262E
    1f8e:	90 91 2f 26 	lds	r25, 0x262F
    1f92:	20 91 4c 23 	lds	r18, 0x234C
    1f96:	33 27       	eor	r19, r19
    1f98:	27 fd       	sbrc	r18, 7
    1f9a:	30 95       	com	r19
    1f9c:	82 1b       	sub	r24, r18
    1f9e:	93 0b       	sbc	r25, r19
    1fa0:	a0 e0       	ldi	r26, 0x00	; 0
    1fa2:	b0 e0       	ldi	r27, 0x00	; 0
    1fa4:	80 93 f3 22 	sts	0x22F3, r24
    1fa8:	90 93 f4 22 	sts	0x22F4, r25
    1fac:	a0 93 f5 22 	sts	0x22F5, r26
    1fb0:	b0 93 f6 22 	sts	0x22F6, r27
    1fb4:	80 91 eb 22 	lds	r24, 0x22EB
    1fb8:	90 91 ec 22 	lds	r25, 0x22EC
    1fbc:	a0 91 ed 22 	lds	r26, 0x22ED
    1fc0:	b0 91 ee 22 	lds	r27, 0x22EE
    1fc4:	80 93 47 23 	sts	0x2347, r24
    1fc8:	90 93 48 23 	sts	0x2348, r25
    1fcc:	a0 93 49 23 	sts	0x2349, r26
    1fd0:	b0 93 4a 23 	sts	0x234A, r27
    1fd4:	08 95       	ret
    1fd6:	63 30       	cpi	r22, 0x03	; 3
    1fd8:	a1 f5       	brne	.+104    	; 0x2042 <Onlinecontrol+0x3bc>
    1fda:	80 91 47 23 	lds	r24, 0x2347
    1fde:	90 91 48 23 	lds	r25, 0x2348
    1fe2:	a0 91 49 23 	lds	r26, 0x2349
    1fe6:	b0 91 4a 23 	lds	r27, 0x234A
    1fea:	80 93 f3 22 	sts	0x22F3, r24
    1fee:	90 93 f4 22 	sts	0x22F4, r25
    1ff2:	a0 93 f5 22 	sts	0x22F5, r26
    1ff6:	b0 93 f6 22 	sts	0x22F6, r27
    1ffa:	08 95       	ret
    1ffc:	86 30       	cpi	r24, 0x06	; 6
    1ffe:	09 f5       	brne	.+66     	; 0x2042 <Onlinecontrol+0x3bc>
    2000:	61 30       	cpi	r22, 0x01	; 1
    2002:	59 f4       	brne	.+22     	; 0x201a <Onlinecontrol+0x394>
    2004:	80 91 a4 06 	lds	r24, 0x06A4
    2008:	8f 7e       	andi	r24, 0xEF	; 239
    200a:	80 93 a4 06 	sts	0x06A4, r24
    200e:	80 91 a4 06 	lds	r24, 0x06A4
    2012:	88 60       	ori	r24, 0x08	; 8
    2014:	80 93 a4 06 	sts	0x06A4, r24
    2018:	08 95       	ret
    201a:	62 30       	cpi	r22, 0x02	; 2
    201c:	59 f4       	brne	.+22     	; 0x2034 <Onlinecontrol+0x3ae>
    201e:	80 91 a4 06 	lds	r24, 0x06A4
    2022:	87 7f       	andi	r24, 0xF7	; 247
    2024:	80 93 a4 06 	sts	0x06A4, r24
    2028:	80 91 84 06 	lds	r24, 0x0684
    202c:	80 61       	ori	r24, 0x10	; 16
    202e:	80 93 84 06 	sts	0x0684, r24
    2032:	08 95       	ret
    2034:	63 30       	cpi	r22, 0x03	; 3
    2036:	29 f4       	brne	.+10     	; 0x2042 <Onlinecontrol+0x3bc>
    2038:	80 91 a4 06 	lds	r24, 0x06A4
    203c:	88 61       	ori	r24, 0x18	; 24
    203e:	80 93 a4 06 	sts	0x06A4, r24
    2042:	08 95       	ret

00002044 <PIDParameters>:
    2044:	4f 92       	push	r4
    2046:	5f 92       	push	r5
    2048:	6f 92       	push	r6
    204a:	7f 92       	push	r7
    204c:	8f 92       	push	r8
    204e:	9f 92       	push	r9
    2050:	af 92       	push	r10
    2052:	bf 92       	push	r11
    2054:	cf 92       	push	r12
    2056:	df 92       	push	r13
    2058:	ef 92       	push	r14
    205a:	ff 92       	push	r15
    205c:	0f 93       	push	r16
    205e:	1f 93       	push	r17
    2060:	df 93       	push	r29
    2062:	cf 93       	push	r28
    2064:	cd b7       	in	r28, 0x3d	; 61
    2066:	de b7       	in	r29, 0x3e	; 62
    2068:	46 2e       	mov	r4, r22
    206a:	99 27       	eor	r25, r25
    206c:	87 fd       	sbrc	r24, 7
    206e:	90 95       	com	r25
    2070:	55 24       	eor	r5, r5
    2072:	47 fc       	sbrc	r4, 7
    2074:	50 94       	com	r5
    2076:	65 2c       	mov	r6, r5
    2078:	75 2c       	mov	r7, r5
    207a:	e2 e6       	ldi	r30, 0x62	; 98
    207c:	f0 e0       	ldi	r31, 0x00	; 0
    207e:	bf 01       	movw	r22, r30
    2080:	86 9f       	mul	r24, r22
    2082:	f0 01       	movw	r30, r0
    2084:	87 9f       	mul	r24, r23
    2086:	f0 0d       	add	r31, r0
    2088:	96 9f       	mul	r25, r22
    208a:	f0 0d       	add	r31, r0
    208c:	11 24       	eor	r1, r1
    208e:	ef 5f       	subi	r30, 0xFF	; 255
    2090:	fe 4d       	sbci	r31, 0xDE	; 222
    2092:	44 8e       	std	Z+28, r4	; 0x1c
    2094:	55 8e       	std	Z+29, r5	; 0x1d
    2096:	66 8e       	std	Z+30, r6	; 0x1e
    2098:	77 8e       	std	Z+31, r7	; 0x1f
    209a:	55 27       	eor	r21, r21
    209c:	47 fd       	sbrc	r20, 7
    209e:	50 95       	com	r21
    20a0:	65 2f       	mov	r22, r21
    20a2:	75 2f       	mov	r23, r21
    20a4:	40 a3       	std	Z+32, r20	; 0x20
    20a6:	51 a3       	std	Z+33, r21	; 0x21
    20a8:	62 a3       	std	Z+34, r22	; 0x22
    20aa:	73 a3       	std	Z+35, r23	; 0x23
    20ac:	33 27       	eor	r19, r19
    20ae:	27 fd       	sbrc	r18, 7
    20b0:	30 95       	com	r19
    20b2:	43 2f       	mov	r20, r19
    20b4:	53 2f       	mov	r21, r19
    20b6:	e0 5c       	subi	r30, 0xC0	; 192
    20b8:	ff 4f       	sbci	r31, 0xFF	; 255
    20ba:	20 83       	st	Z, r18
    20bc:	31 83       	std	Z+1, r19	; 0x01
    20be:	42 83       	std	Z+2, r20	; 0x02
    20c0:	53 83       	std	Z+3, r21	; 0x03
    20c2:	e0 54       	subi	r30, 0x40	; 64
    20c4:	f0 40       	sbci	r31, 0x00	; 0
    20c6:	22 27       	eor	r18, r18
    20c8:	17 fd       	sbrc	r17, 7
    20ca:	20 95       	com	r18
    20cc:	32 2f       	mov	r19, r18
    20ce:	00 8b       	std	Z+16, r16	; 0x10
    20d0:	11 8b       	std	Z+17, r17	; 0x11
    20d2:	22 8b       	std	Z+18, r18	; 0x12
    20d4:	33 8b       	std	Z+19, r19	; 0x13
    20d6:	c7 01       	movw	r24, r14
    20d8:	aa 27       	eor	r26, r26
    20da:	97 fd       	sbrc	r25, 7
    20dc:	a0 95       	com	r26
    20de:	ba 2f       	mov	r27, r26
    20e0:	80 a7       	std	Z+40, r24	; 0x28
    20e2:	91 a7       	std	Z+41, r25	; 0x29
    20e4:	a2 a7       	std	Z+42, r26	; 0x2a
    20e6:	b3 a7       	std	Z+43, r27	; 0x2b
    20e8:	ee 24       	eor	r14, r14
    20ea:	d7 fc       	sbrc	r13, 7
    20ec:	e0 94       	com	r14
    20ee:	fe 2c       	mov	r15, r14
    20f0:	c0 ae       	std	Z+56, r12	; 0x38
    20f2:	d1 ae       	std	Z+57, r13	; 0x39
    20f4:	e2 ae       	std	Z+58, r14	; 0x3a
    20f6:	f3 ae       	std	Z+59, r15	; 0x3b
    20f8:	c5 01       	movw	r24, r10
    20fa:	aa 27       	eor	r26, r26
    20fc:	97 fd       	sbrc	r25, 7
    20fe:	a0 95       	com	r26
    2100:	ba 2f       	mov	r27, r26
    2102:	e4 5b       	subi	r30, 0xB4	; 180
    2104:	ff 4f       	sbci	r31, 0xFF	; 255
    2106:	80 83       	st	Z, r24
    2108:	91 83       	std	Z+1, r25	; 0x01
    210a:	a2 83       	std	Z+2, r26	; 0x02
    210c:	b3 83       	std	Z+3, r27	; 0x03
    210e:	ec 54       	subi	r30, 0x4C	; 76
    2110:	f0 40       	sbci	r31, 0x00	; 0
    2112:	aa 24       	eor	r10, r10
    2114:	97 fc       	sbrc	r9, 7
    2116:	a0 94       	com	r10
    2118:	ba 2c       	mov	r11, r10
    211a:	84 8a       	std	Z+20, r8	; 0x14
    211c:	95 8a       	std	Z+21, r9	; 0x15
    211e:	a6 8a       	std	Z+22, r10	; 0x16
    2120:	b7 8a       	std	Z+23, r11	; 0x17
    2122:	cf 91       	pop	r28
    2124:	df 91       	pop	r29
    2126:	1f 91       	pop	r17
    2128:	0f 91       	pop	r16
    212a:	ff 90       	pop	r15
    212c:	ef 90       	pop	r14
    212e:	df 90       	pop	r13
    2130:	cf 90       	pop	r12
    2132:	bf 90       	pop	r11
    2134:	af 90       	pop	r10
    2136:	9f 90       	pop	r9
    2138:	8f 90       	pop	r8
    213a:	7f 90       	pop	r7
    213c:	6f 90       	pop	r6
    213e:	5f 90       	pop	r5
    2140:	4f 90       	pop	r4
    2142:	08 95       	ret

00002144 <PIDDefParameters>:
    2144:	2f 92       	push	r2
    2146:	3f 92       	push	r3
    2148:	4f 92       	push	r4
    214a:	5f 92       	push	r5
    214c:	6f 92       	push	r6
    214e:	7f 92       	push	r7
    2150:	8f 92       	push	r8
    2152:	9f 92       	push	r9
    2154:	af 92       	push	r10
    2156:	bf 92       	push	r11
    2158:	cf 92       	push	r12
    215a:	df 92       	push	r13
    215c:	ef 92       	push	r14
    215e:	ff 92       	push	r15
    2160:	0f 93       	push	r16
    2162:	1f 93       	push	r17
    2164:	8f e5       	ldi	r24, 0x5F	; 95
    2166:	90 e0       	ldi	r25, 0x00	; 0
    2168:	a0 e0       	ldi	r26, 0x00	; 0
    216a:	b0 e0       	ldi	r27, 0x00	; 0
    216c:	80 93 1d 21 	sts	0x211D, r24
    2170:	90 93 1e 21 	sts	0x211E, r25
    2174:	a0 93 1f 21 	sts	0x211F, r26
    2178:	b0 93 20 21 	sts	0x2120, r27
    217c:	f5 e0       	ldi	r31, 0x05	; 5
    217e:	2f 2e       	mov	r2, r31
    2180:	31 2c       	mov	r3, r1
    2182:	41 2c       	mov	r4, r1
    2184:	51 2c       	mov	r5, r1
    2186:	20 92 21 21 	sts	0x2121, r2
    218a:	30 92 22 21 	sts	0x2122, r3
    218e:	40 92 23 21 	sts	0x2123, r4
    2192:	50 92 24 21 	sts	0x2124, r5
    2196:	24 e6       	ldi	r18, 0x64	; 100
    2198:	30 e0       	ldi	r19, 0x00	; 0
    219a:	40 e0       	ldi	r20, 0x00	; 0
    219c:	50 e0       	ldi	r21, 0x00	; 0
    219e:	20 93 41 21 	sts	0x2141, r18
    21a2:	30 93 42 21 	sts	0x2142, r19
    21a6:	40 93 43 21 	sts	0x2143, r20
    21aa:	50 93 44 21 	sts	0x2144, r21
    21ae:	61 e1       	ldi	r22, 0x11	; 17
    21b0:	71 e2       	ldi	r23, 0x21	; 33
    21b2:	fb 01       	movw	r30, r22
    21b4:	8e e5       	ldi	r24, 0x5E	; 94
    21b6:	91 e0       	ldi	r25, 0x01	; 1
    21b8:	a0 e0       	ldi	r26, 0x00	; 0
    21ba:	b0 e0       	ldi	r27, 0x00	; 0
    21bc:	81 93       	st	Z+, r24
    21be:	91 93       	st	Z+, r25
    21c0:	a1 93       	st	Z+, r26
    21c2:	b1 93       	st	Z+, r27
    21c4:	bf 01       	movw	r22, r30
    21c6:	e2 e3       	ldi	r30, 0x32	; 50
    21c8:	6e 2e       	mov	r6, r30
    21ca:	e2 e0       	ldi	r30, 0x02	; 2
    21cc:	7e 2e       	mov	r7, r30
    21ce:	81 2c       	mov	r8, r1
    21d0:	91 2c       	mov	r9, r1
    21d2:	60 92 29 21 	sts	0x2129, r6
    21d6:	70 92 2a 21 	sts	0x212A, r7
    21da:	80 92 2b 21 	sts	0x212B, r8
    21de:	90 92 2c 21 	sts	0x212C, r9
    21e2:	9c e2       	ldi	r25, 0x2C	; 44
    21e4:	a9 2e       	mov	r10, r25
    21e6:	91 e0       	ldi	r25, 0x01	; 1
    21e8:	b9 2e       	mov	r11, r25
    21ea:	c1 2c       	mov	r12, r1
    21ec:	d1 2c       	mov	r13, r1
    21ee:	a0 92 39 21 	sts	0x2139, r10
    21f2:	b0 92 3a 21 	sts	0x213A, r11
    21f6:	c0 92 3b 21 	sts	0x213B, r12
    21fa:	d0 92 3c 21 	sts	0x213C, r13
    21fe:	88 e5       	ldi	r24, 0x58	; 88
    2200:	e8 2e       	mov	r14, r24
    2202:	82 e0       	ldi	r24, 0x02	; 2
    2204:	f8 2e       	mov	r15, r24
    2206:	01 2d       	mov	r16, r1
    2208:	11 2d       	mov	r17, r1
    220a:	e0 92 4d 21 	sts	0x214D, r14
    220e:	f0 92 4e 21 	sts	0x214E, r15
    2212:	00 93 4f 21 	sts	0x214F, r16
    2216:	10 93 50 21 	sts	0x2150, r17
    221a:	db 01       	movw	r26, r22
    221c:	1d 92       	st	X+, r1
    221e:	1d 92       	st	X+, r1
    2220:	1d 92       	st	X+, r1
    2222:	1c 92       	st	X, r1
    2224:	13 97       	sbiw	r26, 0x03	; 3
    2226:	68 5f       	subi	r22, 0xF8	; 248
    2228:	7f 4f       	sbci	r23, 0xFF	; 255
    222a:	20 93 7f 21 	sts	0x217F, r18
    222e:	30 93 80 21 	sts	0x2180, r19
    2232:	40 93 81 21 	sts	0x2181, r20
    2236:	50 93 82 21 	sts	0x2182, r21
    223a:	82 e0       	ldi	r24, 0x02	; 2
    223c:	90 e0       	ldi	r25, 0x00	; 0
    223e:	a0 e0       	ldi	r26, 0x00	; 0
    2240:	b0 e0       	ldi	r27, 0x00	; 0
    2242:	80 93 83 21 	sts	0x2183, r24
    2246:	90 93 84 21 	sts	0x2184, r25
    224a:	a0 93 85 21 	sts	0x2185, r26
    224e:	b0 93 86 21 	sts	0x2186, r27
    2252:	20 93 a3 21 	sts	0x21A3, r18
    2256:	30 93 a4 21 	sts	0x21A4, r19
    225a:	40 93 a5 21 	sts	0x21A5, r20
    225e:	50 93 a6 21 	sts	0x21A6, r21
    2262:	84 ef       	ldi	r24, 0xF4	; 244
    2264:	91 e0       	ldi	r25, 0x01	; 1
    2266:	a0 e0       	ldi	r26, 0x00	; 0
    2268:	b0 e0       	ldi	r27, 0x00	; 0
    226a:	80 93 73 21 	sts	0x2173, r24
    226e:	90 93 74 21 	sts	0x2174, r25
    2272:	a0 93 75 21 	sts	0x2175, r26
    2276:	b0 93 76 21 	sts	0x2176, r27
    227a:	60 92 8b 21 	sts	0x218B, r6
    227e:	70 92 8c 21 	sts	0x218C, r7
    2282:	80 92 8d 21 	sts	0x218D, r8
    2286:	90 92 8e 21 	sts	0x218E, r9
    228a:	a0 92 9b 21 	sts	0x219B, r10
    228e:	b0 92 9c 21 	sts	0x219C, r11
    2292:	c0 92 9d 21 	sts	0x219D, r12
    2296:	d0 92 9e 21 	sts	0x219E, r13
    229a:	80 93 af 21 	sts	0x21AF, r24
    229e:	90 93 b0 21 	sts	0x21B0, r25
    22a2:	a0 93 b1 21 	sts	0x21B1, r26
    22a6:	b0 93 b2 21 	sts	0x21B2, r27
    22aa:	10 92 77 21 	sts	0x2177, r1
    22ae:	10 92 78 21 	sts	0x2178, r1
    22b2:	10 92 79 21 	sts	0x2179, r1
    22b6:	10 92 7a 21 	sts	0x217A, r1
    22ba:	20 93 e1 21 	sts	0x21E1, r18
    22be:	30 93 e2 21 	sts	0x21E2, r19
    22c2:	40 93 e3 21 	sts	0x21E3, r20
    22c6:	50 93 e4 21 	sts	0x21E4, r21
    22ca:	20 92 e5 21 	sts	0x21E5, r2
    22ce:	30 92 e6 21 	sts	0x21E6, r3
    22d2:	40 92 e7 21 	sts	0x21E7, r4
    22d6:	50 92 e8 21 	sts	0x21E8, r5
    22da:	20 93 05 22 	sts	0x2205, r18
    22de:	30 93 06 22 	sts	0x2206, r19
    22e2:	40 93 07 22 	sts	0x2207, r20
    22e6:	50 93 08 22 	sts	0x2208, r21
    22ea:	80 93 d5 21 	sts	0x21D5, r24
    22ee:	90 93 d6 21 	sts	0x21D6, r25
    22f2:	a0 93 d7 21 	sts	0x21D7, r26
    22f6:	b0 93 d8 21 	sts	0x21D8, r27
    22fa:	60 92 ed 21 	sts	0x21ED, r6
    22fe:	70 92 ee 21 	sts	0x21EE, r7
    2302:	80 92 ef 21 	sts	0x21EF, r8
    2306:	90 92 f0 21 	sts	0x21F0, r9
    230a:	a0 92 fd 21 	sts	0x21FD, r10
    230e:	b0 92 fe 21 	sts	0x21FE, r11
    2312:	c0 92 ff 21 	sts	0x21FF, r12
    2316:	d0 92 00 22 	sts	0x2200, r13
    231a:	e0 92 11 22 	sts	0x2211, r14
    231e:	f0 92 12 22 	sts	0x2212, r15
    2322:	00 93 13 22 	sts	0x2213, r16
    2326:	10 93 14 22 	sts	0x2214, r17
    232a:	10 92 d9 21 	sts	0x21D9, r1
    232e:	10 92 da 21 	sts	0x21DA, r1
    2332:	10 92 db 21 	sts	0x21DB, r1
    2336:	10 92 dc 21 	sts	0x21DC, r1
    233a:	20 93 43 22 	sts	0x2243, r18
    233e:	30 93 44 22 	sts	0x2244, r19
    2342:	40 93 45 22 	sts	0x2245, r20
    2346:	50 93 46 22 	sts	0x2246, r21
    234a:	20 92 47 22 	sts	0x2247, r2
    234e:	30 92 48 22 	sts	0x2248, r3
    2352:	40 92 49 22 	sts	0x2249, r4
    2356:	50 92 4a 22 	sts	0x224A, r5
    235a:	20 93 67 22 	sts	0x2267, r18
    235e:	30 93 68 22 	sts	0x2268, r19
    2362:	40 93 69 22 	sts	0x2269, r20
    2366:	50 93 6a 22 	sts	0x226A, r21
    236a:	80 93 37 22 	sts	0x2237, r24
    236e:	90 93 38 22 	sts	0x2238, r25
    2372:	a0 93 39 22 	sts	0x2239, r26
    2376:	b0 93 3a 22 	sts	0x223A, r27
    237a:	60 92 4f 22 	sts	0x224F, r6
    237e:	70 92 50 22 	sts	0x2250, r7
    2382:	80 92 51 22 	sts	0x2251, r8
    2386:	90 92 52 22 	sts	0x2252, r9
    238a:	a0 92 5f 22 	sts	0x225F, r10
    238e:	b0 92 60 22 	sts	0x2260, r11
    2392:	c0 92 61 22 	sts	0x2261, r12
    2396:	d0 92 62 22 	sts	0x2262, r13
    239a:	e0 92 73 22 	sts	0x2273, r14
    239e:	f0 92 74 22 	sts	0x2274, r15
    23a2:	00 93 75 22 	sts	0x2275, r16
    23a6:	10 93 76 22 	sts	0x2276, r17
    23aa:	10 92 3b 22 	sts	0x223B, r1
    23ae:	10 92 3c 22 	sts	0x223C, r1
    23b2:	10 92 3d 22 	sts	0x223D, r1
    23b6:	10 92 3e 22 	sts	0x223E, r1
    23ba:	80 e5       	ldi	r24, 0x50	; 80
    23bc:	90 e0       	ldi	r25, 0x00	; 0
    23be:	a0 e0       	ldi	r26, 0x00	; 0
    23c0:	b0 e0       	ldi	r27, 0x00	; 0
    23c2:	80 93 a5 22 	sts	0x22A5, r24
    23c6:	90 93 a6 22 	sts	0x22A6, r25
    23ca:	a0 93 a7 22 	sts	0x22A7, r26
    23ce:	b0 93 a8 22 	sts	0x22A8, r27
    23d2:	20 92 a9 22 	sts	0x22A9, r2
    23d6:	30 92 aa 22 	sts	0x22AA, r3
    23da:	40 92 ab 22 	sts	0x22AB, r4
    23de:	50 92 ac 22 	sts	0x22AC, r5
    23e2:	28 e7       	ldi	r18, 0x78	; 120
    23e4:	30 e0       	ldi	r19, 0x00	; 0
    23e6:	40 e0       	ldi	r20, 0x00	; 0
    23e8:	50 e0       	ldi	r21, 0x00	; 0
    23ea:	20 93 c9 22 	sts	0x22C9, r18
    23ee:	30 93 ca 22 	sts	0x22CA, r19
    23f2:	40 93 cb 22 	sts	0x22CB, r20
    23f6:	50 93 cc 22 	sts	0x22CC, r21
    23fa:	8e e5       	ldi	r24, 0x5E	; 94
    23fc:	91 e0       	ldi	r25, 0x01	; 1
    23fe:	a0 e0       	ldi	r26, 0x00	; 0
    2400:	b0 e0       	ldi	r27, 0x00	; 0
    2402:	80 93 99 22 	sts	0x2299, r24
    2406:	90 93 9a 22 	sts	0x229A, r25
    240a:	a0 93 9b 22 	sts	0x229B, r26
    240e:	b0 93 9c 22 	sts	0x229C, r27
    2412:	80 93 b1 22 	sts	0x22B1, r24
    2416:	90 93 b2 22 	sts	0x22B2, r25
    241a:	a0 93 b3 22 	sts	0x22B3, r26
    241e:	b0 93 b4 22 	sts	0x22B4, r27
    2422:	80 e9       	ldi	r24, 0x90	; 144
    2424:	91 e0       	ldi	r25, 0x01	; 1
    2426:	a0 e0       	ldi	r26, 0x00	; 0
    2428:	b0 e0       	ldi	r27, 0x00	; 0
    242a:	80 93 c1 22 	sts	0x22C1, r24
    242e:	90 93 c2 22 	sts	0x22C2, r25
    2432:	a0 93 c3 22 	sts	0x22C3, r26
    2436:	b0 93 c4 22 	sts	0x22C4, r27
    243a:	e0 92 d5 22 	sts	0x22D5, r14
    243e:	f0 92 d6 22 	sts	0x22D6, r15
    2442:	00 93 d7 22 	sts	0x22D7, r16
    2446:	10 93 d8 22 	sts	0x22D8, r17
    244a:	10 92 9d 22 	sts	0x229D, r1
    244e:	10 92 9e 22 	sts	0x229E, r1
    2452:	10 92 9f 22 	sts	0x229F, r1
    2456:	10 92 a0 22 	sts	0x22A0, r1
    245a:	8c e3       	ldi	r24, 0x3C	; 60
    245c:	90 e0       	ldi	r25, 0x00	; 0
    245e:	a0 e0       	ldi	r26, 0x00	; 0
    2460:	b0 e0       	ldi	r27, 0x00	; 0
    2462:	80 93 07 23 	sts	0x2307, r24
    2466:	90 93 08 23 	sts	0x2308, r25
    246a:	a0 93 09 23 	sts	0x2309, r26
    246e:	b0 93 0a 23 	sts	0x230A, r27
    2472:	20 92 0b 23 	sts	0x230B, r2
    2476:	30 92 0c 23 	sts	0x230C, r3
    247a:	40 92 0d 23 	sts	0x230D, r4
    247e:	50 92 0e 23 	sts	0x230E, r5
    2482:	20 93 2b 23 	sts	0x232B, r18
    2486:	30 93 2c 23 	sts	0x232C, r19
    248a:	40 93 2d 23 	sts	0x232D, r20
    248e:	50 93 2e 23 	sts	0x232E, r21
    2492:	8e e5       	ldi	r24, 0x5E	; 94
    2494:	91 e0       	ldi	r25, 0x01	; 1
    2496:	a0 e0       	ldi	r26, 0x00	; 0
    2498:	b0 e0       	ldi	r27, 0x00	; 0
    249a:	80 93 fb 22 	sts	0x22FB, r24
    249e:	90 93 fc 22 	sts	0x22FC, r25
    24a2:	a0 93 fd 22 	sts	0x22FD, r26
    24a6:	b0 93 fe 22 	sts	0x22FE, r27
    24aa:	60 92 13 23 	sts	0x2313, r6
    24ae:	70 92 14 23 	sts	0x2314, r7
    24b2:	80 92 15 23 	sts	0x2315, r8
    24b6:	90 92 16 23 	sts	0x2316, r9
    24ba:	a0 92 23 23 	sts	0x2323, r10
    24be:	b0 92 24 23 	sts	0x2324, r11
    24c2:	c0 92 25 23 	sts	0x2325, r12
    24c6:	d0 92 26 23 	sts	0x2326, r13
    24ca:	e0 92 37 23 	sts	0x2337, r14
    24ce:	f0 92 38 23 	sts	0x2338, r15
    24d2:	00 93 39 23 	sts	0x2339, r16
    24d6:	10 93 3a 23 	sts	0x233A, r17
    24da:	10 92 ff 22 	sts	0x22FF, r1
    24de:	10 92 00 23 	sts	0x2300, r1
    24e2:	10 92 01 23 	sts	0x2301, r1
    24e6:	10 92 02 23 	sts	0x2302, r1
    24ea:	08 e8       	ldi	r16, 0x88	; 136
    24ec:	13 e1       	ldi	r17, 0x13	; 19
    24ee:	00 93 24 26 	sts	0x2624, r16
    24f2:	10 93 25 26 	sts	0x2625, r17
    24f6:	28 e8       	ldi	r18, 0x88	; 136
    24f8:	33 e1       	ldi	r19, 0x13	; 19
    24fa:	40 e0       	ldi	r20, 0x00	; 0
    24fc:	50 e0       	ldi	r21, 0x00	; 0
    24fe:	20 93 5d 21 	sts	0x215D, r18
    2502:	30 93 5e 21 	sts	0x215E, r19
    2506:	40 93 5f 21 	sts	0x215F, r20
    250a:	50 93 60 21 	sts	0x2160, r21
    250e:	80 91 5d 21 	lds	r24, 0x215D
    2512:	90 91 5e 21 	lds	r25, 0x215E
    2516:	a0 91 5f 21 	lds	r26, 0x215F
    251a:	b0 91 60 21 	lds	r27, 0x2160
    251e:	fb 01       	movw	r30, r22
    2520:	7c 97       	sbiw	r30, 0x1c	; 28
    2522:	80 83       	st	Z, r24
    2524:	91 83       	std	Z+1, r25	; 0x01
    2526:	a2 83       	std	Z+2, r26	; 0x02
    2528:	b3 83       	std	Z+3, r27	; 0x03
    252a:	80 81       	ld	r24, Z
    252c:	91 81       	ldd	r25, Z+1	; 0x01
    252e:	a2 81       	ldd	r26, Z+2	; 0x02
    2530:	b3 81       	ldd	r27, Z+3	; 0x03
    2532:	64 51       	subi	r22, 0x14	; 20
    2534:	70 40       	sbci	r23, 0x00	; 0
    2536:	fb 01       	movw	r30, r22
    2538:	80 83       	st	Z, r24
    253a:	91 83       	std	Z+1, r25	; 0x01
    253c:	a2 83       	std	Z+2, r26	; 0x02
    253e:	b3 83       	std	Z+3, r27	; 0x03
    2540:	00 93 26 26 	sts	0x2626, r16
    2544:	10 93 27 26 	sts	0x2627, r17
    2548:	20 93 bf 21 	sts	0x21BF, r18
    254c:	30 93 c0 21 	sts	0x21C0, r19
    2550:	40 93 c1 21 	sts	0x21C1, r20
    2554:	50 93 c2 21 	sts	0x21C2, r21
    2558:	80 91 bf 21 	lds	r24, 0x21BF
    255c:	90 91 c0 21 	lds	r25, 0x21C0
    2560:	a0 91 c1 21 	lds	r26, 0x21C1
    2564:	b0 91 c2 21 	lds	r27, 0x21C2
    2568:	80 93 63 21 	sts	0x2163, r24
    256c:	90 93 64 21 	sts	0x2164, r25
    2570:	a0 93 65 21 	sts	0x2165, r26
    2574:	b0 93 66 21 	sts	0x2166, r27
    2578:	80 91 63 21 	lds	r24, 0x2163
    257c:	90 91 64 21 	lds	r25, 0x2164
    2580:	a0 91 65 21 	lds	r26, 0x2165
    2584:	b0 91 66 21 	lds	r27, 0x2166
    2588:	80 93 6b 21 	sts	0x216B, r24
    258c:	90 93 6c 21 	sts	0x216C, r25
    2590:	a0 93 6d 21 	sts	0x216D, r26
    2594:	b0 93 6e 21 	sts	0x216E, r27
    2598:	00 93 28 26 	sts	0x2628, r16
    259c:	10 93 29 26 	sts	0x2629, r17
    25a0:	20 93 21 22 	sts	0x2221, r18
    25a4:	30 93 22 22 	sts	0x2222, r19
    25a8:	40 93 23 22 	sts	0x2223, r20
    25ac:	50 93 24 22 	sts	0x2224, r21
    25b0:	80 91 21 22 	lds	r24, 0x2221
    25b4:	90 91 22 22 	lds	r25, 0x2222
    25b8:	a0 91 23 22 	lds	r26, 0x2223
    25bc:	b0 91 24 22 	lds	r27, 0x2224
    25c0:	80 93 c5 21 	sts	0x21C5, r24
    25c4:	90 93 c6 21 	sts	0x21C6, r25
    25c8:	a0 93 c7 21 	sts	0x21C7, r26
    25cc:	b0 93 c8 21 	sts	0x21C8, r27
    25d0:	80 91 c5 21 	lds	r24, 0x21C5
    25d4:	90 91 c6 21 	lds	r25, 0x21C6
    25d8:	a0 91 c7 21 	lds	r26, 0x21C7
    25dc:	b0 91 c8 21 	lds	r27, 0x21C8
    25e0:	80 93 cd 21 	sts	0x21CD, r24
    25e4:	90 93 ce 21 	sts	0x21CE, r25
    25e8:	a0 93 cf 21 	sts	0x21CF, r26
    25ec:	b0 93 d0 21 	sts	0x21D0, r27
    25f0:	00 93 22 26 	sts	0x2622, r16
    25f4:	10 93 23 26 	sts	0x2623, r17
    25f8:	20 93 83 22 	sts	0x2283, r18
    25fc:	30 93 84 22 	sts	0x2284, r19
    2600:	40 93 85 22 	sts	0x2285, r20
    2604:	50 93 86 22 	sts	0x2286, r21
    2608:	80 91 83 22 	lds	r24, 0x2283
    260c:	90 91 84 22 	lds	r25, 0x2284
    2610:	a0 91 85 22 	lds	r26, 0x2285
    2614:	b0 91 86 22 	lds	r27, 0x2286
    2618:	80 93 27 22 	sts	0x2227, r24
    261c:	90 93 28 22 	sts	0x2228, r25
    2620:	a0 93 29 22 	sts	0x2229, r26
    2624:	b0 93 2a 22 	sts	0x222A, r27
    2628:	80 91 27 22 	lds	r24, 0x2227
    262c:	90 91 28 22 	lds	r25, 0x2228
    2630:	a0 91 29 22 	lds	r26, 0x2229
    2634:	b0 91 2a 22 	lds	r27, 0x222A
    2638:	80 93 2f 22 	sts	0x222F, r24
    263c:	90 93 30 22 	sts	0x2230, r25
    2640:	a0 93 31 22 	sts	0x2231, r26
    2644:	b0 93 32 22 	sts	0x2232, r27
    2648:	00 93 2c 26 	sts	0x262C, r16
    264c:	10 93 2d 26 	sts	0x262D, r17
    2650:	20 93 e5 22 	sts	0x22E5, r18
    2654:	30 93 e6 22 	sts	0x22E6, r19
    2658:	40 93 e7 22 	sts	0x22E7, r20
    265c:	50 93 e8 22 	sts	0x22E8, r21
    2660:	80 91 e5 22 	lds	r24, 0x22E5
    2664:	90 91 e6 22 	lds	r25, 0x22E6
    2668:	a0 91 e7 22 	lds	r26, 0x22E7
    266c:	b0 91 e8 22 	lds	r27, 0x22E8
    2670:	80 93 89 22 	sts	0x2289, r24
    2674:	90 93 8a 22 	sts	0x228A, r25
    2678:	a0 93 8b 22 	sts	0x228B, r26
    267c:	b0 93 8c 22 	sts	0x228C, r27
    2680:	80 91 89 22 	lds	r24, 0x2289
    2684:	90 91 8a 22 	lds	r25, 0x228A
    2688:	a0 91 8b 22 	lds	r26, 0x228B
    268c:	b0 91 8c 22 	lds	r27, 0x228C
    2690:	80 93 91 22 	sts	0x2291, r24
    2694:	90 93 92 22 	sts	0x2292, r25
    2698:	a0 93 93 22 	sts	0x2293, r26
    269c:	b0 93 94 22 	sts	0x2294, r27
    26a0:	00 93 2e 26 	sts	0x262E, r16
    26a4:	10 93 2f 26 	sts	0x262F, r17
    26a8:	20 93 47 23 	sts	0x2347, r18
    26ac:	30 93 48 23 	sts	0x2348, r19
    26b0:	40 93 49 23 	sts	0x2349, r20
    26b4:	50 93 4a 23 	sts	0x234A, r21
    26b8:	80 91 47 23 	lds	r24, 0x2347
    26bc:	90 91 48 23 	lds	r25, 0x2348
    26c0:	a0 91 49 23 	lds	r26, 0x2349
    26c4:	b0 91 4a 23 	lds	r27, 0x234A
    26c8:	80 93 eb 22 	sts	0x22EB, r24
    26cc:	90 93 ec 22 	sts	0x22EC, r25
    26d0:	a0 93 ed 22 	sts	0x22ED, r26
    26d4:	b0 93 ee 22 	sts	0x22EE, r27
    26d8:	80 91 eb 22 	lds	r24, 0x22EB
    26dc:	90 91 ec 22 	lds	r25, 0x22EC
    26e0:	a0 91 ed 22 	lds	r26, 0x22ED
    26e4:	b0 91 ee 22 	lds	r27, 0x22EE
    26e8:	80 93 f3 22 	sts	0x22F3, r24
    26ec:	90 93 f4 22 	sts	0x22F4, r25
    26f0:	a0 93 f5 22 	sts	0x22F5, r26
    26f4:	b0 93 f6 22 	sts	0x22F6, r27
    26f8:	81 e0       	ldi	r24, 0x01	; 1
    26fa:	80 93 61 21 	sts	0x2161, r24
    26fe:	80 93 c3 21 	sts	0x21C3, r24
    2702:	80 93 25 22 	sts	0x2225, r24
    2706:	80 93 87 22 	sts	0x2287, r24
    270a:	80 93 e9 22 	sts	0x22E9, r24
    270e:	80 93 4b 23 	sts	0x234B, r24
    2712:	8a e0       	ldi	r24, 0x0A	; 10
    2714:	80 93 62 21 	sts	0x2162, r24
    2718:	80 93 c4 21 	sts	0x21C4, r24
    271c:	80 93 26 22 	sts	0x2226, r24
    2720:	80 93 88 22 	sts	0x2288, r24
    2724:	80 93 ea 22 	sts	0x22EA, r24
    2728:	80 93 4c 23 	sts	0x234C, r24
    272c:	1f 91       	pop	r17
    272e:	0f 91       	pop	r16
    2730:	ff 90       	pop	r15
    2732:	ef 90       	pop	r14
    2734:	df 90       	pop	r13
    2736:	cf 90       	pop	r12
    2738:	bf 90       	pop	r11
    273a:	af 90       	pop	r10
    273c:	9f 90       	pop	r9
    273e:	8f 90       	pop	r8
    2740:	7f 90       	pop	r7
    2742:	6f 90       	pop	r6
    2744:	5f 90       	pop	r5
    2746:	4f 90       	pop	r4
    2748:	3f 90       	pop	r3
    274a:	2f 90       	pop	r2
    274c:	08 95       	ret

0000274e <EngineStatus6>:
    274e:	2f 92       	push	r2
    2750:	3f 92       	push	r3
    2752:	4f 92       	push	r4
    2754:	5f 92       	push	r5
    2756:	6f 92       	push	r6
    2758:	7f 92       	push	r7
    275a:	8f 92       	push	r8
    275c:	9f 92       	push	r9
    275e:	af 92       	push	r10
    2760:	bf 92       	push	r11
    2762:	cf 92       	push	r12
    2764:	df 92       	push	r13
    2766:	ef 92       	push	r14
    2768:	ff 92       	push	r15
    276a:	0f 93       	push	r16
    276c:	1f 93       	push	r17
    276e:	df 93       	push	r29
    2770:	cf 93       	push	r28
    2772:	cd b7       	in	r28, 0x3d	; 61
    2774:	de b7       	in	r29, 0x3e	; 62
    2776:	68 97       	sbiw	r28, 0x18	; 24
    2778:	cd bf       	out	0x3d, r28	; 61
    277a:	de bf       	out	0x3e, r29	; 62
    277c:	e0 90 0d 21 	lds	r14, 0x210D
    2780:	f0 90 0e 21 	lds	r15, 0x210E
    2784:	00 91 0f 21 	lds	r16, 0x210F
    2788:	10 91 10 21 	lds	r17, 0x2110
    278c:	ed 8a       	std	Y+21, r14	; 0x15
    278e:	fe 8a       	std	Y+22, r15	; 0x16
    2790:	0f 8b       	std	Y+23, r16	; 0x17
    2792:	18 8f       	std	Y+24, r17	; 0x18
    2794:	00 91 15 21 	lds	r16, 0x2115
    2798:	10 91 16 21 	lds	r17, 0x2116
    279c:	20 91 17 21 	lds	r18, 0x2117
    27a0:	30 91 18 21 	lds	r19, 0x2118
    27a4:	09 8b       	std	Y+17, r16	; 0x11
    27a6:	1a 8b       	std	Y+18, r17	; 0x12
    27a8:	2b 8b       	std	Y+19, r18	; 0x13
    27aa:	3c 8b       	std	Y+20, r19	; 0x14
    27ac:	20 91 6f 21 	lds	r18, 0x216F
    27b0:	30 91 70 21 	lds	r19, 0x2170
    27b4:	40 91 71 21 	lds	r20, 0x2171
    27b8:	50 91 72 21 	lds	r21, 0x2172
    27bc:	2d 87       	std	Y+13, r18	; 0x0d
    27be:	3e 87       	std	Y+14, r19	; 0x0e
    27c0:	4f 87       	std	Y+15, r20	; 0x0f
    27c2:	58 8b       	std	Y+16, r21	; 0x10
    27c4:	80 91 77 21 	lds	r24, 0x2177
    27c8:	90 91 78 21 	lds	r25, 0x2178
    27cc:	a0 91 79 21 	lds	r26, 0x2179
    27d0:	b0 91 7a 21 	lds	r27, 0x217A
    27d4:	89 87       	std	Y+9, r24	; 0x09
    27d6:	9a 87       	std	Y+10, r25	; 0x0a
    27d8:	ab 87       	std	Y+11, r26	; 0x0b
    27da:	bc 87       	std	Y+12, r27	; 0x0c
    27dc:	e0 90 d1 21 	lds	r14, 0x21D1
    27e0:	f0 90 d2 21 	lds	r15, 0x21D2
    27e4:	00 91 d3 21 	lds	r16, 0x21D3
    27e8:	10 91 d4 21 	lds	r17, 0x21D4
    27ec:	ed 82       	std	Y+5, r14	; 0x05
    27ee:	fe 82       	std	Y+6, r15	; 0x06
    27f0:	0f 83       	std	Y+7, r16	; 0x07
    27f2:	18 87       	std	Y+8, r17	; 0x08
    27f4:	00 91 d9 21 	lds	r16, 0x21D9
    27f8:	10 91 da 21 	lds	r17, 0x21DA
    27fc:	20 91 db 21 	lds	r18, 0x21DB
    2800:	30 91 dc 21 	lds	r19, 0x21DC
    2804:	09 83       	std	Y+1, r16	; 0x01
    2806:	1a 83       	std	Y+2, r17	; 0x02
    2808:	2b 83       	std	Y+3, r18	; 0x03
    280a:	3c 83       	std	Y+4, r19	; 0x04
    280c:	20 90 33 22 	lds	r2, 0x2233
    2810:	30 90 34 22 	lds	r3, 0x2234
    2814:	40 90 35 22 	lds	r4, 0x2235
    2818:	50 90 36 22 	lds	r5, 0x2236
    281c:	60 90 3b 22 	lds	r6, 0x223B
    2820:	70 90 3c 22 	lds	r7, 0x223C
    2824:	80 90 3d 22 	lds	r8, 0x223D
    2828:	90 90 3e 22 	lds	r9, 0x223E
    282c:	20 91 95 22 	lds	r18, 0x2295
    2830:	30 91 96 22 	lds	r19, 0x2296
    2834:	40 91 97 22 	lds	r20, 0x2297
    2838:	50 91 98 22 	lds	r21, 0x2298
    283c:	80 91 9d 22 	lds	r24, 0x229D
    2840:	90 91 9e 22 	lds	r25, 0x229E
    2844:	a0 91 9f 22 	lds	r26, 0x229F
    2848:	b0 91 a0 22 	lds	r27, 0x22A0
    284c:	a0 90 f7 22 	lds	r10, 0x22F7
    2850:	b0 90 f8 22 	lds	r11, 0x22F8
    2854:	c0 90 f9 22 	lds	r12, 0x22F9
    2858:	d0 90 fa 22 	lds	r13, 0x22FA
    285c:	e0 90 ff 22 	lds	r14, 0x22FF
    2860:	f0 90 00 23 	lds	r15, 0x2300
    2864:	00 91 01 23 	lds	r16, 0x2301
    2868:	10 91 02 23 	lds	r17, 0x2302
    286c:	70 e0       	ldi	r23, 0x00	; 0
    286e:	60 e0       	ldi	r22, 0x00	; 0
    2870:	82 17       	cp	r24, r18
    2872:	93 07       	cpc	r25, r19
    2874:	a4 07       	cpc	r26, r20
    2876:	b5 07       	cpc	r27, r21
    2878:	0c f0       	brlt	.+2      	; 0x287c <EngineStatus6+0x12e>
    287a:	61 e0       	ldi	r22, 0x01	; 1
    287c:	80 e0       	ldi	r24, 0x00	; 0
    287e:	ea 14       	cp	r14, r10
    2880:	fb 04       	cpc	r15, r11
    2882:	0c 05       	cpc	r16, r12
    2884:	1d 05       	cpc	r17, r13
    2886:	0c f0       	brlt	.+2      	; 0x288a <EngineStatus6+0x13c>
    2888:	81 e0       	ldi	r24, 0x01	; 1
    288a:	96 2f       	mov	r25, r22
    288c:	98 0f       	add	r25, r24
    288e:	80 e0       	ldi	r24, 0x00	; 0
    2890:	62 14       	cp	r6, r2
    2892:	73 04       	cpc	r7, r3
    2894:	84 04       	cpc	r8, r4
    2896:	95 04       	cpc	r9, r5
    2898:	0c f0       	brlt	.+2      	; 0x289c <EngineStatus6+0x14e>
    289a:	81 e0       	ldi	r24, 0x01	; 1
    289c:	98 0f       	add	r25, r24
    289e:	80 e0       	ldi	r24, 0x00	; 0
    28a0:	2d 81       	ldd	r18, Y+5	; 0x05
    28a2:	3e 81       	ldd	r19, Y+6	; 0x06
    28a4:	4f 81       	ldd	r20, Y+7	; 0x07
    28a6:	58 85       	ldd	r21, Y+8	; 0x08
    28a8:	e9 80       	ldd	r14, Y+1	; 0x01
    28aa:	fa 80       	ldd	r15, Y+2	; 0x02
    28ac:	0b 81       	ldd	r16, Y+3	; 0x03
    28ae:	1c 81       	ldd	r17, Y+4	; 0x04
    28b0:	e2 16       	cp	r14, r18
    28b2:	f3 06       	cpc	r15, r19
    28b4:	04 07       	cpc	r16, r20
    28b6:	15 07       	cpc	r17, r21
    28b8:	0c f0       	brlt	.+2      	; 0x28bc <EngineStatus6+0x16e>
    28ba:	81 e0       	ldi	r24, 0x01	; 1
    28bc:	98 0f       	add	r25, r24
    28be:	80 e0       	ldi	r24, 0x00	; 0
    28c0:	2d 85       	ldd	r18, Y+13	; 0x0d
    28c2:	3e 85       	ldd	r19, Y+14	; 0x0e
    28c4:	4f 85       	ldd	r20, Y+15	; 0x0f
    28c6:	58 89       	ldd	r21, Y+16	; 0x10
    28c8:	e9 84       	ldd	r14, Y+9	; 0x09
    28ca:	fa 84       	ldd	r15, Y+10	; 0x0a
    28cc:	0b 85       	ldd	r16, Y+11	; 0x0b
    28ce:	1c 85       	ldd	r17, Y+12	; 0x0c
    28d0:	e2 16       	cp	r14, r18
    28d2:	f3 06       	cpc	r15, r19
    28d4:	04 07       	cpc	r16, r20
    28d6:	15 07       	cpc	r17, r21
    28d8:	0c f0       	brlt	.+2      	; 0x28dc <EngineStatus6+0x18e>
    28da:	81 e0       	ldi	r24, 0x01	; 1
    28dc:	89 0f       	add	r24, r25
    28de:	90 e0       	ldi	r25, 0x00	; 0
    28e0:	2d 89       	ldd	r18, Y+21	; 0x15
    28e2:	3e 89       	ldd	r19, Y+22	; 0x16
    28e4:	4f 89       	ldd	r20, Y+23	; 0x17
    28e6:	58 8d       	ldd	r21, Y+24	; 0x18
    28e8:	e9 88       	ldd	r14, Y+17	; 0x11
    28ea:	fa 88       	ldd	r15, Y+18	; 0x12
    28ec:	0b 89       	ldd	r16, Y+19	; 0x13
    28ee:	1c 89       	ldd	r17, Y+20	; 0x14
    28f0:	e2 16       	cp	r14, r18
    28f2:	f3 06       	cpc	r15, r19
    28f4:	04 07       	cpc	r16, r20
    28f6:	15 07       	cpc	r17, r21
    28f8:	0c f0       	brlt	.+2      	; 0x28fc <EngineStatus6+0x1ae>
    28fa:	91 e0       	ldi	r25, 0x01	; 1
    28fc:	89 0f       	add	r24, r25
    28fe:	86 30       	cpi	r24, 0x06	; 6
    2900:	09 f4       	brne	.+2      	; 0x2904 <EngineStatus6+0x1b6>
    2902:	71 e0       	ldi	r23, 0x01	; 1
    2904:	87 2f       	mov	r24, r23
    2906:	68 96       	adiw	r28, 0x18	; 24
    2908:	cd bf       	out	0x3d, r28	; 61
    290a:	de bf       	out	0x3e, r29	; 62
    290c:	cf 91       	pop	r28
    290e:	df 91       	pop	r29
    2910:	1f 91       	pop	r17
    2912:	0f 91       	pop	r16
    2914:	ff 90       	pop	r15
    2916:	ef 90       	pop	r14
    2918:	df 90       	pop	r13
    291a:	cf 90       	pop	r12
    291c:	bf 90       	pop	r11
    291e:	af 90       	pop	r10
    2920:	9f 90       	pop	r9
    2922:	8f 90       	pop	r8
    2924:	7f 90       	pop	r7
    2926:	6f 90       	pop	r6
    2928:	5f 90       	pop	r5
    292a:	4f 90       	pop	r4
    292c:	3f 90       	pop	r3
    292e:	2f 90       	pop	r2
    2930:	08 95       	ret

00002932 <EngineStatus5>:
    2932:	2f 92       	push	r2
    2934:	3f 92       	push	r3
    2936:	4f 92       	push	r4
    2938:	5f 92       	push	r5
    293a:	6f 92       	push	r6
    293c:	7f 92       	push	r7
    293e:	8f 92       	push	r8
    2940:	9f 92       	push	r9
    2942:	af 92       	push	r10
    2944:	bf 92       	push	r11
    2946:	cf 92       	push	r12
    2948:	df 92       	push	r13
    294a:	ef 92       	push	r14
    294c:	ff 92       	push	r15
    294e:	0f 93       	push	r16
    2950:	1f 93       	push	r17
    2952:	df 93       	push	r29
    2954:	cf 93       	push	r28
    2956:	cd b7       	in	r28, 0x3d	; 61
    2958:	de b7       	in	r29, 0x3e	; 62
    295a:	60 97       	sbiw	r28, 0x10	; 16
    295c:	cd bf       	out	0x3d, r28	; 61
    295e:	de bf       	out	0x3e, r29	; 62
    2960:	e0 90 0d 21 	lds	r14, 0x210D
    2964:	f0 90 0e 21 	lds	r15, 0x210E
    2968:	00 91 0f 21 	lds	r16, 0x210F
    296c:	10 91 10 21 	lds	r17, 0x2110
    2970:	ed 86       	std	Y+13, r14	; 0x0d
    2972:	fe 86       	std	Y+14, r15	; 0x0e
    2974:	0f 87       	std	Y+15, r16	; 0x0f
    2976:	18 8b       	std	Y+16, r17	; 0x10
    2978:	00 91 15 21 	lds	r16, 0x2115
    297c:	10 91 16 21 	lds	r17, 0x2116
    2980:	20 91 17 21 	lds	r18, 0x2117
    2984:	30 91 18 21 	lds	r19, 0x2118
    2988:	09 87       	std	Y+9, r16	; 0x09
    298a:	1a 87       	std	Y+10, r17	; 0x0a
    298c:	2b 87       	std	Y+11, r18	; 0x0b
    298e:	3c 87       	std	Y+12, r19	; 0x0c
    2990:	20 91 6f 21 	lds	r18, 0x216F
    2994:	30 91 70 21 	lds	r19, 0x2170
    2998:	40 91 71 21 	lds	r20, 0x2171
    299c:	50 91 72 21 	lds	r21, 0x2172
    29a0:	2d 83       	std	Y+5, r18	; 0x05
    29a2:	3e 83       	std	Y+6, r19	; 0x06
    29a4:	4f 83       	std	Y+7, r20	; 0x07
    29a6:	58 87       	std	Y+8, r21	; 0x08
    29a8:	80 91 77 21 	lds	r24, 0x2177
    29ac:	90 91 78 21 	lds	r25, 0x2178
    29b0:	a0 91 79 21 	lds	r26, 0x2179
    29b4:	b0 91 7a 21 	lds	r27, 0x217A
    29b8:	89 83       	std	Y+1, r24	; 0x01
    29ba:	9a 83       	std	Y+2, r25	; 0x02
    29bc:	ab 83       	std	Y+3, r26	; 0x03
    29be:	bc 83       	std	Y+4, r27	; 0x04
    29c0:	20 90 d1 21 	lds	r2, 0x21D1
    29c4:	30 90 d2 21 	lds	r3, 0x21D2
    29c8:	40 90 d3 21 	lds	r4, 0x21D3
    29cc:	50 90 d4 21 	lds	r5, 0x21D4
    29d0:	60 90 d9 21 	lds	r6, 0x21D9
    29d4:	70 90 da 21 	lds	r7, 0x21DA
    29d8:	80 90 db 21 	lds	r8, 0x21DB
    29dc:	90 90 dc 21 	lds	r9, 0x21DC
    29e0:	20 91 33 22 	lds	r18, 0x2233
    29e4:	30 91 34 22 	lds	r19, 0x2234
    29e8:	40 91 35 22 	lds	r20, 0x2235
    29ec:	50 91 36 22 	lds	r21, 0x2236
    29f0:	80 91 3b 22 	lds	r24, 0x223B
    29f4:	90 91 3c 22 	lds	r25, 0x223C
    29f8:	a0 91 3d 22 	lds	r26, 0x223D
    29fc:	b0 91 3e 22 	lds	r27, 0x223E
    2a00:	a0 90 95 22 	lds	r10, 0x2295
    2a04:	b0 90 96 22 	lds	r11, 0x2296
    2a08:	c0 90 97 22 	lds	r12, 0x2297
    2a0c:	d0 90 98 22 	lds	r13, 0x2298
    2a10:	e0 90 9d 22 	lds	r14, 0x229D
    2a14:	f0 90 9e 22 	lds	r15, 0x229E
    2a18:	00 91 9f 22 	lds	r16, 0x229F
    2a1c:	10 91 a0 22 	lds	r17, 0x22A0
    2a20:	70 e0       	ldi	r23, 0x00	; 0
    2a22:	60 e0       	ldi	r22, 0x00	; 0
    2a24:	82 17       	cp	r24, r18
    2a26:	93 07       	cpc	r25, r19
    2a28:	a4 07       	cpc	r26, r20
    2a2a:	b5 07       	cpc	r27, r21
    2a2c:	0c f0       	brlt	.+2      	; 0x2a30 <EngineStatus5+0xfe>
    2a2e:	61 e0       	ldi	r22, 0x01	; 1
    2a30:	80 e0       	ldi	r24, 0x00	; 0
    2a32:	ea 14       	cp	r14, r10
    2a34:	fb 04       	cpc	r15, r11
    2a36:	0c 05       	cpc	r16, r12
    2a38:	1d 05       	cpc	r17, r13
    2a3a:	0c f0       	brlt	.+2      	; 0x2a3e <EngineStatus5+0x10c>
    2a3c:	81 e0       	ldi	r24, 0x01	; 1
    2a3e:	96 2f       	mov	r25, r22
    2a40:	98 0f       	add	r25, r24
    2a42:	80 e0       	ldi	r24, 0x00	; 0
    2a44:	62 14       	cp	r6, r2
    2a46:	73 04       	cpc	r7, r3
    2a48:	84 04       	cpc	r8, r4
    2a4a:	95 04       	cpc	r9, r5
    2a4c:	0c f0       	brlt	.+2      	; 0x2a50 <EngineStatus5+0x11e>
    2a4e:	81 e0       	ldi	r24, 0x01	; 1
    2a50:	98 0f       	add	r25, r24
    2a52:	80 e0       	ldi	r24, 0x00	; 0
    2a54:	ed 80       	ldd	r14, Y+5	; 0x05
    2a56:	fe 80       	ldd	r15, Y+6	; 0x06
    2a58:	0f 81       	ldd	r16, Y+7	; 0x07
    2a5a:	18 85       	ldd	r17, Y+8	; 0x08
    2a5c:	29 81       	ldd	r18, Y+1	; 0x01
    2a5e:	3a 81       	ldd	r19, Y+2	; 0x02
    2a60:	4b 81       	ldd	r20, Y+3	; 0x03
    2a62:	5c 81       	ldd	r21, Y+4	; 0x04
    2a64:	2e 15       	cp	r18, r14
    2a66:	3f 05       	cpc	r19, r15
    2a68:	40 07       	cpc	r20, r16
    2a6a:	51 07       	cpc	r21, r17
    2a6c:	0c f0       	brlt	.+2      	; 0x2a70 <EngineStatus5+0x13e>
    2a6e:	81 e0       	ldi	r24, 0x01	; 1
    2a70:	89 0f       	add	r24, r25
    2a72:	90 e0       	ldi	r25, 0x00	; 0
    2a74:	ed 84       	ldd	r14, Y+13	; 0x0d
    2a76:	fe 84       	ldd	r15, Y+14	; 0x0e
    2a78:	0f 85       	ldd	r16, Y+15	; 0x0f
    2a7a:	18 89       	ldd	r17, Y+16	; 0x10
    2a7c:	29 85       	ldd	r18, Y+9	; 0x09
    2a7e:	3a 85       	ldd	r19, Y+10	; 0x0a
    2a80:	4b 85       	ldd	r20, Y+11	; 0x0b
    2a82:	5c 85       	ldd	r21, Y+12	; 0x0c
    2a84:	2e 15       	cp	r18, r14
    2a86:	3f 05       	cpc	r19, r15
    2a88:	40 07       	cpc	r20, r16
    2a8a:	51 07       	cpc	r21, r17
    2a8c:	0c f0       	brlt	.+2      	; 0x2a90 <EngineStatus5+0x15e>
    2a8e:	91 e0       	ldi	r25, 0x01	; 1
    2a90:	89 0f       	add	r24, r25
    2a92:	85 30       	cpi	r24, 0x05	; 5
    2a94:	09 f4       	brne	.+2      	; 0x2a98 <EngineStatus5+0x166>
    2a96:	71 e0       	ldi	r23, 0x01	; 1
    2a98:	87 2f       	mov	r24, r23
    2a9a:	60 96       	adiw	r28, 0x10	; 16
    2a9c:	cd bf       	out	0x3d, r28	; 61
    2a9e:	de bf       	out	0x3e, r29	; 62
    2aa0:	cf 91       	pop	r28
    2aa2:	df 91       	pop	r29
    2aa4:	1f 91       	pop	r17
    2aa6:	0f 91       	pop	r16
    2aa8:	ff 90       	pop	r15
    2aaa:	ef 90       	pop	r14
    2aac:	df 90       	pop	r13
    2aae:	cf 90       	pop	r12
    2ab0:	bf 90       	pop	r11
    2ab2:	af 90       	pop	r10
    2ab4:	9f 90       	pop	r9
    2ab6:	8f 90       	pop	r8
    2ab8:	7f 90       	pop	r7
    2aba:	6f 90       	pop	r6
    2abc:	5f 90       	pop	r5
    2abe:	4f 90       	pop	r4
    2ac0:	3f 90       	pop	r3
    2ac2:	2f 90       	pop	r2
    2ac4:	08 95       	ret

00002ac6 <Calibration>:
    2ac6:	7f 92       	push	r7
    2ac8:	8f 92       	push	r8
    2aca:	9f 92       	push	r9
    2acc:	af 92       	push	r10
    2ace:	bf 92       	push	r11
    2ad0:	cf 92       	push	r12
    2ad2:	df 92       	push	r13
    2ad4:	ef 92       	push	r14
    2ad6:	ff 92       	push	r15
    2ad8:	0f 93       	push	r16
    2ada:	1f 93       	push	r17
    2adc:	cf 93       	push	r28
    2ade:	df 93       	push	r29
    2ae0:	10 92 61 21 	sts	0x2161, r1
    2ae4:	10 92 c3 21 	sts	0x21C3, r1
    2ae8:	10 92 25 22 	sts	0x2225, r1
    2aec:	10 92 87 22 	sts	0x2287, r1
    2af0:	10 92 e9 22 	sts	0x22E9, r1
    2af4:	10 92 4b 23 	sts	0x234B, r1
    2af8:	e0 e6       	ldi	r30, 0x60	; 96
    2afa:	f6 e0       	ldi	r31, 0x06	; 6
    2afc:	81 e0       	ldi	r24, 0x01	; 1
    2afe:	86 83       	std	Z+6, r24	; 0x06
    2b00:	82 e0       	ldi	r24, 0x02	; 2
    2b02:	85 83       	std	Z+5, r24	; 0x05
    2b04:	88 e0       	ldi	r24, 0x08	; 8
    2b06:	86 83       	std	Z+6, r24	; 0x06
    2b08:	84 e0       	ldi	r24, 0x04	; 4
    2b0a:	85 83       	std	Z+5, r24	; 0x05
    2b0c:	80 e1       	ldi	r24, 0x10	; 16
    2b0e:	86 83       	std	Z+6, r24	; 0x06
    2b10:	80 e2       	ldi	r24, 0x20	; 32
    2b12:	85 83       	std	Z+5, r24	; 0x05
    2b14:	80 91 64 06 	lds	r24, 0x0664
    2b18:	8f 77       	andi	r24, 0x7F	; 127
    2b1a:	80 93 64 06 	sts	0x0664, r24
    2b1e:	80 91 64 06 	lds	r24, 0x0664
    2b22:	80 64       	ori	r24, 0x40	; 64
    2b24:	80 93 64 06 	sts	0x0664, r24
    2b28:	80 91 84 06 	lds	r24, 0x0684
    2b2c:	8f 7e       	andi	r24, 0xEF	; 239
    2b2e:	80 93 84 06 	sts	0x0684, r24
    2b32:	80 91 84 06 	lds	r24, 0x0684
    2b36:	80 62       	ori	r24, 0x20	; 32
    2b38:	80 93 84 06 	sts	0x0684, r24
    2b3c:	e0 e0       	ldi	r30, 0x00	; 0
    2b3e:	fa e0       	ldi	r31, 0x0A	; 10
    2b40:	80 e0       	ldi	r24, 0x00	; 0
    2b42:	92 e0       	ldi	r25, 0x02	; 2
    2b44:	80 af       	std	Z+56, r24	; 0x38
    2b46:	91 af       	std	Z+57, r25	; 0x39
    2b48:	82 af       	std	Z+58, r24	; 0x3a
    2b4a:	93 af       	std	Z+59, r25	; 0x3b
    2b4c:	84 af       	std	Z+60, r24	; 0x3c
    2b4e:	95 af       	std	Z+61, r25	; 0x3d
    2b50:	80 93 3e 0a 	sts	0x0A3E, r24
    2b54:	90 93 3f 0a 	sts	0x0A3F, r25
    2b58:	e0 e0       	ldi	r30, 0x00	; 0
    2b5a:	fb e0       	ldi	r31, 0x0B	; 11
    2b5c:	80 af       	std	Z+56, r24	; 0x38
    2b5e:	91 af       	std	Z+57, r25	; 0x39
    2b60:	84 e6       	ldi	r24, 0x64	; 100
    2b62:	90 e0       	ldi	r25, 0x00	; 0
    2b64:	82 af       	std	Z+58, r24	; 0x3a
    2b66:	93 af       	std	Z+59, r25	; 0x3b
    2b68:	10 e0       	ldi	r17, 0x00	; 0
    2b6a:	70 e0       	ldi	r23, 0x00	; 0
    2b6c:	60 e0       	ldi	r22, 0x00	; 0
    2b6e:	50 e0       	ldi	r21, 0x00	; 0
    2b70:	40 e0       	ldi	r20, 0x00	; 0
    2b72:	a0 e6       	ldi	r26, 0x60	; 96
    2b74:	b6 e0       	ldi	r27, 0x06	; 6
    2b76:	82 e0       	ldi	r24, 0x02	; 2
    2b78:	78 2e       	mov	r7, r24
    2b7a:	88 24       	eor	r8, r8
    2b7c:	83 94       	inc	r8
    2b7e:	24 e6       	ldi	r18, 0x64	; 100
    2b80:	30 e0       	ldi	r19, 0x00	; 0
    2b82:	08 e0       	ldi	r16, 0x08	; 8
    2b84:	90 2e       	mov	r9, r16
    2b86:	f4 e0       	ldi	r31, 0x04	; 4
    2b88:	af 2e       	mov	r10, r31
    2b8a:	e0 e1       	ldi	r30, 0x10	; 16
    2b8c:	be 2e       	mov	r11, r30
    2b8e:	00 e2       	ldi	r16, 0x20	; 32
    2b90:	98 e5       	ldi	r25, 0x58	; 88
    2b92:	c9 2e       	mov	r12, r25
    2b94:	92 e0       	ldi	r25, 0x02	; 2
    2b96:	d9 2e       	mov	r13, r25
    2b98:	82 ee       	ldi	r24, 0xE2	; 226
    2b9a:	e8 2e       	mov	r14, r24
    2b9c:	84 e0       	ldi	r24, 0x04	; 4
    2b9e:	f8 2e       	mov	r15, r24
    2ba0:	c0 e2       	ldi	r28, 0x20	; 32
    2ba2:	d3 e0       	ldi	r29, 0x03	; 3
    2ba4:	80 91 08 07 	lds	r24, 0x0708
    2ba8:	87 ff       	sbrs	r24, 7
    2baa:	0b c0       	rjmp	.+22     	; 0x2bc2 <Calibration+0xfc>
    2bac:	15 96       	adiw	r26, 0x05	; 5
    2bae:	7c 92       	st	X, r7
    2bb0:	15 97       	sbiw	r26, 0x05	; 5
    2bb2:	15 96       	adiw	r26, 0x05	; 5
    2bb4:	8c 92       	st	X, r8
    2bb6:	15 97       	sbiw	r26, 0x05	; 5
    2bb8:	20 93 24 26 	sts	0x2624, r18
    2bbc:	30 93 25 26 	sts	0x2625, r19
    2bc0:	11 e0       	ldi	r17, 0x01	; 1
    2bc2:	80 91 08 07 	lds	r24, 0x0708
    2bc6:	86 ff       	sbrs	r24, 6
    2bc8:	0b c0       	rjmp	.+22     	; 0x2be0 <Calibration+0x11a>
    2bca:	15 96       	adiw	r26, 0x05	; 5
    2bcc:	9c 92       	st	X, r9
    2bce:	15 97       	sbiw	r26, 0x05	; 5
    2bd0:	15 96       	adiw	r26, 0x05	; 5
    2bd2:	ac 92       	st	X, r10
    2bd4:	15 97       	sbiw	r26, 0x05	; 5
    2bd6:	20 93 26 26 	sts	0x2626, r18
    2bda:	30 93 27 26 	sts	0x2627, r19
    2bde:	71 e0       	ldi	r23, 0x01	; 1
    2be0:	80 91 e8 06 	lds	r24, 0x06E8
    2be4:	87 fd       	sbrc	r24, 7
    2be6:	0b c0       	rjmp	.+22     	; 0x2bfe <Calibration+0x138>
    2be8:	15 96       	adiw	r26, 0x05	; 5
    2bea:	bc 92       	st	X, r11
    2bec:	15 97       	sbiw	r26, 0x05	; 5
    2bee:	15 96       	adiw	r26, 0x05	; 5
    2bf0:	0c 93       	st	X, r16
    2bf2:	15 97       	sbiw	r26, 0x05	; 5
    2bf4:	c0 92 28 26 	sts	0x2628, r12
    2bf8:	d0 92 29 26 	sts	0x2629, r13
    2bfc:	61 e0       	ldi	r22, 0x01	; 1
    2bfe:	80 91 e8 06 	lds	r24, 0x06E8
    2c02:	86 fd       	sbrc	r24, 6
    2c04:	0a c0       	rjmp	.+20     	; 0x2c1a <Calibration+0x154>
    2c06:	80 91 64 06 	lds	r24, 0x0664
    2c0a:	80 6c       	ori	r24, 0xC0	; 192
    2c0c:	80 93 64 06 	sts	0x0664, r24
    2c10:	20 93 22 26 	sts	0x2622, r18
    2c14:	30 93 23 26 	sts	0x2623, r19
    2c18:	51 e0       	ldi	r21, 0x01	; 1
    2c1a:	80 91 08 06 	lds	r24, 0x0608
    2c1e:	87 ff       	sbrs	r24, 7
    2c20:	0a c0       	rjmp	.+20     	; 0x2c36 <Calibration+0x170>
    2c22:	80 91 84 06 	lds	r24, 0x0684
    2c26:	80 63       	ori	r24, 0x30	; 48
    2c28:	80 93 84 06 	sts	0x0684, r24
    2c2c:	e0 92 2c 26 	sts	0x262C, r14
    2c30:	f0 92 2d 26 	sts	0x262D, r15
    2c34:	41 e0       	ldi	r20, 0x01	; 1
    2c36:	84 e6       	ldi	r24, 0x64	; 100
    2c38:	90 e0       	ldi	r25, 0x00	; 0
    2c3a:	fe 01       	movw	r30, r28
    2c3c:	31 97       	sbiw	r30, 0x01	; 1
    2c3e:	f1 f7       	brne	.-4      	; 0x2c3c <Calibration+0x176>
    2c40:	01 97       	sbiw	r24, 0x01	; 1
    2c42:	d9 f7       	brne	.-10     	; 0x2c3a <Calibration+0x174>
    2c44:	87 2f       	mov	r24, r23
    2c46:	81 0f       	add	r24, r17
    2c48:	86 0f       	add	r24, r22
    2c4a:	85 0f       	add	r24, r21
    2c4c:	84 0f       	add	r24, r20
    2c4e:	85 30       	cpi	r24, 0x05	; 5
    2c50:	09 f0       	breq	.+2      	; 0x2c54 <Calibration+0x18e>
    2c52:	a8 cf       	rjmp	.-176    	; 0x2ba4 <Calibration+0xde>
    2c54:	80 91 24 26 	lds	r24, 0x2624
    2c58:	90 91 25 26 	lds	r25, 0x2625
    2c5c:	a0 e0       	ldi	r26, 0x00	; 0
    2c5e:	b0 e0       	ldi	r27, 0x00	; 0
    2c60:	80 93 5d 21 	sts	0x215D, r24
    2c64:	90 93 5e 21 	sts	0x215E, r25
    2c68:	a0 93 5f 21 	sts	0x215F, r26
    2c6c:	b0 93 60 21 	sts	0x2160, r27
    2c70:	80 91 5d 21 	lds	r24, 0x215D
    2c74:	90 91 5e 21 	lds	r25, 0x215E
    2c78:	a0 91 5f 21 	lds	r26, 0x215F
    2c7c:	b0 91 60 21 	lds	r27, 0x2160
    2c80:	80 93 01 21 	sts	0x2101, r24
    2c84:	90 93 02 21 	sts	0x2102, r25
    2c88:	a0 93 03 21 	sts	0x2103, r26
    2c8c:	b0 93 04 21 	sts	0x2104, r27
    2c90:	80 91 01 21 	lds	r24, 0x2101
    2c94:	90 91 02 21 	lds	r25, 0x2102
    2c98:	a0 91 03 21 	lds	r26, 0x2103
    2c9c:	b0 91 04 21 	lds	r27, 0x2104
    2ca0:	80 93 09 21 	sts	0x2109, r24
    2ca4:	90 93 0a 21 	sts	0x210A, r25
    2ca8:	a0 93 0b 21 	sts	0x210B, r26
    2cac:	b0 93 0c 21 	sts	0x210C, r27
    2cb0:	80 91 26 26 	lds	r24, 0x2626
    2cb4:	90 91 27 26 	lds	r25, 0x2627
    2cb8:	a0 e0       	ldi	r26, 0x00	; 0
    2cba:	b0 e0       	ldi	r27, 0x00	; 0
    2cbc:	80 93 bf 21 	sts	0x21BF, r24
    2cc0:	90 93 c0 21 	sts	0x21C0, r25
    2cc4:	a0 93 c1 21 	sts	0x21C1, r26
    2cc8:	b0 93 c2 21 	sts	0x21C2, r27
    2ccc:	80 91 bf 21 	lds	r24, 0x21BF
    2cd0:	90 91 c0 21 	lds	r25, 0x21C0
    2cd4:	a0 91 c1 21 	lds	r26, 0x21C1
    2cd8:	b0 91 c2 21 	lds	r27, 0x21C2
    2cdc:	80 93 63 21 	sts	0x2163, r24
    2ce0:	90 93 64 21 	sts	0x2164, r25
    2ce4:	a0 93 65 21 	sts	0x2165, r26
    2ce8:	b0 93 66 21 	sts	0x2166, r27
    2cec:	80 91 63 21 	lds	r24, 0x2163
    2cf0:	90 91 64 21 	lds	r25, 0x2164
    2cf4:	a0 91 65 21 	lds	r26, 0x2165
    2cf8:	b0 91 66 21 	lds	r27, 0x2166
    2cfc:	80 93 6b 21 	sts	0x216B, r24
    2d00:	90 93 6c 21 	sts	0x216C, r25
    2d04:	a0 93 6d 21 	sts	0x216D, r26
    2d08:	b0 93 6e 21 	sts	0x216E, r27
    2d0c:	80 91 28 26 	lds	r24, 0x2628
    2d10:	90 91 29 26 	lds	r25, 0x2629
    2d14:	a0 e0       	ldi	r26, 0x00	; 0
    2d16:	b0 e0       	ldi	r27, 0x00	; 0
    2d18:	80 93 21 22 	sts	0x2221, r24
    2d1c:	90 93 22 22 	sts	0x2222, r25
    2d20:	a0 93 23 22 	sts	0x2223, r26
    2d24:	b0 93 24 22 	sts	0x2224, r27
    2d28:	80 91 21 22 	lds	r24, 0x2221
    2d2c:	90 91 22 22 	lds	r25, 0x2222
    2d30:	a0 91 23 22 	lds	r26, 0x2223
    2d34:	b0 91 24 22 	lds	r27, 0x2224
    2d38:	80 93 c5 21 	sts	0x21C5, r24
    2d3c:	90 93 c6 21 	sts	0x21C6, r25
    2d40:	a0 93 c7 21 	sts	0x21C7, r26
    2d44:	b0 93 c8 21 	sts	0x21C8, r27
    2d48:	80 91 c5 21 	lds	r24, 0x21C5
    2d4c:	90 91 c6 21 	lds	r25, 0x21C6
    2d50:	a0 91 c7 21 	lds	r26, 0x21C7
    2d54:	b0 91 c8 21 	lds	r27, 0x21C8
    2d58:	80 93 cd 21 	sts	0x21CD, r24
    2d5c:	90 93 ce 21 	sts	0x21CE, r25
    2d60:	a0 93 cf 21 	sts	0x21CF, r26
    2d64:	b0 93 d0 21 	sts	0x21D0, r27
    2d68:	80 91 22 26 	lds	r24, 0x2622
    2d6c:	90 91 23 26 	lds	r25, 0x2623
    2d70:	a0 e0       	ldi	r26, 0x00	; 0
    2d72:	b0 e0       	ldi	r27, 0x00	; 0
    2d74:	80 93 83 22 	sts	0x2283, r24
    2d78:	90 93 84 22 	sts	0x2284, r25
    2d7c:	a0 93 85 22 	sts	0x2285, r26
    2d80:	b0 93 86 22 	sts	0x2286, r27
    2d84:	80 91 83 22 	lds	r24, 0x2283
    2d88:	90 91 84 22 	lds	r25, 0x2284
    2d8c:	a0 91 85 22 	lds	r26, 0x2285
    2d90:	b0 91 86 22 	lds	r27, 0x2286
    2d94:	80 93 27 22 	sts	0x2227, r24
    2d98:	90 93 28 22 	sts	0x2228, r25
    2d9c:	a0 93 29 22 	sts	0x2229, r26
    2da0:	b0 93 2a 22 	sts	0x222A, r27
    2da4:	80 91 27 22 	lds	r24, 0x2227
    2da8:	90 91 28 22 	lds	r25, 0x2228
    2dac:	a0 91 29 22 	lds	r26, 0x2229
    2db0:	b0 91 2a 22 	lds	r27, 0x222A
    2db4:	80 93 2f 22 	sts	0x222F, r24
    2db8:	90 93 30 22 	sts	0x2230, r25
    2dbc:	a0 93 31 22 	sts	0x2231, r26
    2dc0:	b0 93 32 22 	sts	0x2232, r27
    2dc4:	80 91 2c 26 	lds	r24, 0x262C
    2dc8:	90 91 2d 26 	lds	r25, 0x262D
    2dcc:	a0 e0       	ldi	r26, 0x00	; 0
    2dce:	b0 e0       	ldi	r27, 0x00	; 0
    2dd0:	80 93 e5 22 	sts	0x22E5, r24
    2dd4:	90 93 e6 22 	sts	0x22E6, r25
    2dd8:	a0 93 e7 22 	sts	0x22E7, r26
    2ddc:	b0 93 e8 22 	sts	0x22E8, r27
    2de0:	80 91 e5 22 	lds	r24, 0x22E5
    2de4:	90 91 e6 22 	lds	r25, 0x22E6
    2de8:	a0 91 e7 22 	lds	r26, 0x22E7
    2dec:	b0 91 e8 22 	lds	r27, 0x22E8
    2df0:	80 93 89 22 	sts	0x2289, r24
    2df4:	90 93 8a 22 	sts	0x228A, r25
    2df8:	a0 93 8b 22 	sts	0x228B, r26
    2dfc:	b0 93 8c 22 	sts	0x228C, r27
    2e00:	80 91 89 22 	lds	r24, 0x2289
    2e04:	90 91 8a 22 	lds	r25, 0x228A
    2e08:	a0 91 8b 22 	lds	r26, 0x228B
    2e0c:	b0 91 8c 22 	lds	r27, 0x228C
    2e10:	80 93 91 22 	sts	0x2291, r24
    2e14:	90 93 92 22 	sts	0x2292, r25
    2e18:	a0 93 93 22 	sts	0x2293, r26
    2e1c:	b0 93 94 22 	sts	0x2294, r27
    2e20:	84 e6       	ldi	r24, 0x64	; 100
    2e22:	90 e0       	ldi	r25, 0x00	; 0
    2e24:	20 e2       	ldi	r18, 0x20	; 32
    2e26:	33 e0       	ldi	r19, 0x03	; 3
    2e28:	f9 01       	movw	r30, r18
    2e2a:	31 97       	sbiw	r30, 0x01	; 1
    2e2c:	f1 f7       	brne	.-4      	; 0x2e2a <Calibration+0x364>
    2e2e:	01 97       	sbiw	r24, 0x01	; 1
    2e30:	d9 f7       	brne	.-10     	; 0x2e28 <Calibration+0x362>
    2e32:	81 e0       	ldi	r24, 0x01	; 1
    2e34:	80 93 61 21 	sts	0x2161, r24
    2e38:	80 93 c3 21 	sts	0x21C3, r24
    2e3c:	80 93 25 22 	sts	0x2225, r24
    2e40:	80 93 87 22 	sts	0x2287, r24
    2e44:	80 93 e9 22 	sts	0x22E9, r24
    2e48:	84 e6       	ldi	r24, 0x64	; 100
    2e4a:	90 e0       	ldi	r25, 0x00	; 0
    2e4c:	20 e2       	ldi	r18, 0x20	; 32
    2e4e:	33 e0       	ldi	r19, 0x03	; 3
    2e50:	f9 01       	movw	r30, r18
    2e52:	31 97       	sbiw	r30, 0x01	; 1
    2e54:	f1 f7       	brne	.-4      	; 0x2e52 <Calibration+0x38c>
    2e56:	01 97       	sbiw	r24, 0x01	; 1
    2e58:	d9 f7       	brne	.-10     	; 0x2e50 <Calibration+0x38a>
    2e5a:	8a ef       	ldi	r24, 0xFA	; 250
    2e5c:	90 e0       	ldi	r25, 0x00	; 0
    2e5e:	a0 e0       	ldi	r26, 0x00	; 0
    2e60:	b0 e0       	ldi	r27, 0x00	; 0
    2e62:	80 93 09 21 	sts	0x2109, r24
    2e66:	90 93 0a 21 	sts	0x210A, r25
    2e6a:	a0 93 0b 21 	sts	0x210B, r26
    2e6e:	b0 93 0c 21 	sts	0x210C, r27
    2e72:	82 ec       	ldi	r24, 0xC2	; 194
    2e74:	91 e0       	ldi	r25, 0x01	; 1
    2e76:	a0 e0       	ldi	r26, 0x00	; 0
    2e78:	b0 e0       	ldi	r27, 0x00	; 0
    2e7a:	80 93 6b 21 	sts	0x216B, r24
    2e7e:	90 93 6c 21 	sts	0x216C, r25
    2e82:	a0 93 6d 21 	sts	0x216D, r26
    2e86:	b0 93 6e 21 	sts	0x216E, r27
    2e8a:	26 e9       	ldi	r18, 0x96	; 150
    2e8c:	30 e0       	ldi	r19, 0x00	; 0
    2e8e:	40 e0       	ldi	r20, 0x00	; 0
    2e90:	50 e0       	ldi	r21, 0x00	; 0
    2e92:	20 93 cd 21 	sts	0x21CD, r18
    2e96:	30 93 ce 21 	sts	0x21CE, r19
    2e9a:	40 93 cf 21 	sts	0x21CF, r20
    2e9e:	50 93 d0 21 	sts	0x21D0, r21
    2ea2:	8c e2       	ldi	r24, 0x2C	; 44
    2ea4:	91 e0       	ldi	r25, 0x01	; 1
    2ea6:	a0 e0       	ldi	r26, 0x00	; 0
    2ea8:	b0 e0       	ldi	r27, 0x00	; 0
    2eaa:	80 93 2f 22 	sts	0x222F, r24
    2eae:	90 93 30 22 	sts	0x2230, r25
    2eb2:	a0 93 31 22 	sts	0x2231, r26
    2eb6:	b0 93 32 22 	sts	0x2232, r27
    2eba:	20 93 91 22 	sts	0x2291, r18
    2ebe:	30 93 92 22 	sts	0x2292, r19
    2ec2:	40 93 93 22 	sts	0x2293, r20
    2ec6:	50 93 94 22 	sts	0x2294, r21
    2eca:	0e 94 99 14 	call	0x2932	; 0x2932 <EngineStatus5>
    2ece:	88 23       	and	r24, r24
    2ed0:	e1 f3       	breq	.-8      	; 0x2eca <Calibration+0x404>
    2ed2:	80 91 84 06 	lds	r24, 0x0684
    2ed6:	8f 7b       	andi	r24, 0xBF	; 191
    2ed8:	80 93 84 06 	sts	0x0684, r24
    2edc:	80 91 84 06 	lds	r24, 0x0684
    2ee0:	80 68       	ori	r24, 0x80	; 128
    2ee2:	80 93 84 06 	sts	0x0684, r24
    2ee6:	80 91 08 06 	lds	r24, 0x0608
    2eea:	87 ff       	sbrs	r24, 7
    2eec:	fc cf       	rjmp	.-8      	; 0x2ee6 <Calibration+0x420>
    2eee:	80 91 84 06 	lds	r24, 0x0684
    2ef2:	80 6c       	ori	r24, 0xC0	; 192
    2ef4:	80 93 84 06 	sts	0x0684, r24
    2ef8:	88 eb       	ldi	r24, 0xB8	; 184
    2efa:	9b e0       	ldi	r25, 0x0B	; 11
    2efc:	80 93 2e 26 	sts	0x262E, r24
    2f00:	90 93 2f 26 	sts	0x262F, r25
    2f04:	80 91 2e 26 	lds	r24, 0x262E
    2f08:	90 91 2f 26 	lds	r25, 0x262F
    2f0c:	a0 e0       	ldi	r26, 0x00	; 0
    2f0e:	b0 e0       	ldi	r27, 0x00	; 0
    2f10:	80 93 47 23 	sts	0x2347, r24
    2f14:	90 93 48 23 	sts	0x2348, r25
    2f18:	a0 93 49 23 	sts	0x2349, r26
    2f1c:	b0 93 4a 23 	sts	0x234A, r27
    2f20:	80 91 47 23 	lds	r24, 0x2347
    2f24:	90 91 48 23 	lds	r25, 0x2348
    2f28:	a0 91 49 23 	lds	r26, 0x2349
    2f2c:	b0 91 4a 23 	lds	r27, 0x234A
    2f30:	80 93 eb 22 	sts	0x22EB, r24
    2f34:	90 93 ec 22 	sts	0x22EC, r25
    2f38:	a0 93 ed 22 	sts	0x22ED, r26
    2f3c:	b0 93 ee 22 	sts	0x22EE, r27
    2f40:	80 91 eb 22 	lds	r24, 0x22EB
    2f44:	90 91 ec 22 	lds	r25, 0x22EC
    2f48:	a0 91 ed 22 	lds	r26, 0x22ED
    2f4c:	b0 91 ee 22 	lds	r27, 0x22EE
    2f50:	80 93 f3 22 	sts	0x22F3, r24
    2f54:	90 93 f4 22 	sts	0x22F4, r25
    2f58:	a0 93 f5 22 	sts	0x22F5, r26
    2f5c:	b0 93 f6 22 	sts	0x22F6, r27
    2f60:	84 e6       	ldi	r24, 0x64	; 100
    2f62:	90 e0       	ldi	r25, 0x00	; 0
    2f64:	20 e2       	ldi	r18, 0x20	; 32
    2f66:	33 e0       	ldi	r19, 0x03	; 3
    2f68:	f9 01       	movw	r30, r18
    2f6a:	31 97       	sbiw	r30, 0x01	; 1
    2f6c:	f1 f7       	brne	.-4      	; 0x2f6a <Calibration+0x4a4>
    2f6e:	01 97       	sbiw	r24, 0x01	; 1
    2f70:	d9 f7       	brne	.-10     	; 0x2f68 <Calibration+0x4a2>
    2f72:	81 e0       	ldi	r24, 0x01	; 1
    2f74:	80 93 4b 23 	sts	0x234B, r24
    2f78:	8e e9       	ldi	r24, 0x9E	; 158
    2f7a:	97 e0       	ldi	r25, 0x07	; 7
    2f7c:	a0 e0       	ldi	r26, 0x00	; 0
    2f7e:	b0 e0       	ldi	r27, 0x00	; 0
    2f80:	80 93 f3 22 	sts	0x22F3, r24
    2f84:	90 93 f4 22 	sts	0x22F4, r25
    2f88:	a0 93 f5 22 	sts	0x22F5, r26
    2f8c:	b0 93 f6 22 	sts	0x22F6, r27
    2f90:	0e 94 a7 13 	call	0x274e	; 0x274e <EngineStatus6>
    2f94:	88 23       	and	r24, r24
    2f96:	e1 f3       	breq	.-8      	; 0x2f90 <Calibration+0x4ca>
    2f98:	6c ea       	ldi	r22, 0xAC	; 172
    2f9a:	7d e0       	ldi	r23, 0x0D	; 13
    2f9c:	60 93 24 26 	sts	0x2624, r22
    2fa0:	70 93 25 26 	sts	0x2625, r23
    2fa4:	2c ea       	ldi	r18, 0xAC	; 172
    2fa6:	3d e0       	ldi	r19, 0x0D	; 13
    2fa8:	40 e0       	ldi	r20, 0x00	; 0
    2faa:	50 e0       	ldi	r21, 0x00	; 0
    2fac:	20 93 5d 21 	sts	0x215D, r18
    2fb0:	30 93 5e 21 	sts	0x215E, r19
    2fb4:	40 93 5f 21 	sts	0x215F, r20
    2fb8:	50 93 60 21 	sts	0x2160, r21
    2fbc:	80 91 5d 21 	lds	r24, 0x215D
    2fc0:	90 91 5e 21 	lds	r25, 0x215E
    2fc4:	a0 91 5f 21 	lds	r26, 0x215F
    2fc8:	b0 91 60 21 	lds	r27, 0x2160
    2fcc:	80 93 01 21 	sts	0x2101, r24
    2fd0:	90 93 02 21 	sts	0x2102, r25
    2fd4:	a0 93 03 21 	sts	0x2103, r26
    2fd8:	b0 93 04 21 	sts	0x2104, r27
    2fdc:	80 91 01 21 	lds	r24, 0x2101
    2fe0:	90 91 02 21 	lds	r25, 0x2102
    2fe4:	a0 91 03 21 	lds	r26, 0x2103
    2fe8:	b0 91 04 21 	lds	r27, 0x2104
    2fec:	80 93 09 21 	sts	0x2109, r24
    2ff0:	90 93 0a 21 	sts	0x210A, r25
    2ff4:	a0 93 0b 21 	sts	0x210B, r26
    2ff8:	b0 93 0c 21 	sts	0x210C, r27
    2ffc:	86 ed       	ldi	r24, 0xD6	; 214
    2ffe:	96 e0       	ldi	r25, 0x06	; 6
    3000:	80 93 26 26 	sts	0x2626, r24
    3004:	90 93 27 26 	sts	0x2627, r25
    3008:	86 ed       	ldi	r24, 0xD6	; 214
    300a:	96 e0       	ldi	r25, 0x06	; 6
    300c:	a0 e0       	ldi	r26, 0x00	; 0
    300e:	b0 e0       	ldi	r27, 0x00	; 0
    3010:	80 93 bf 21 	sts	0x21BF, r24
    3014:	90 93 c0 21 	sts	0x21C0, r25
    3018:	a0 93 c1 21 	sts	0x21C1, r26
    301c:	b0 93 c2 21 	sts	0x21C2, r27
    3020:	80 91 bf 21 	lds	r24, 0x21BF
    3024:	90 91 c0 21 	lds	r25, 0x21C0
    3028:	a0 91 c1 21 	lds	r26, 0x21C1
    302c:	b0 91 c2 21 	lds	r27, 0x21C2
    3030:	80 93 63 21 	sts	0x2163, r24
    3034:	90 93 64 21 	sts	0x2164, r25
    3038:	a0 93 65 21 	sts	0x2165, r26
    303c:	b0 93 66 21 	sts	0x2166, r27
    3040:	80 91 63 21 	lds	r24, 0x2163
    3044:	90 91 64 21 	lds	r25, 0x2164
    3048:	a0 91 65 21 	lds	r26, 0x2165
    304c:	b0 91 66 21 	lds	r27, 0x2166
    3050:	80 93 6b 21 	sts	0x216B, r24
    3054:	90 93 6c 21 	sts	0x216C, r25
    3058:	a0 93 6d 21 	sts	0x216D, r26
    305c:	b0 93 6e 21 	sts	0x216E, r27
    3060:	80 ed       	ldi	r24, 0xD0	; 208
    3062:	97 e0       	ldi	r25, 0x07	; 7
    3064:	80 93 28 26 	sts	0x2628, r24
    3068:	90 93 29 26 	sts	0x2629, r25
    306c:	80 ed       	ldi	r24, 0xD0	; 208
    306e:	97 e0       	ldi	r25, 0x07	; 7
    3070:	a0 e0       	ldi	r26, 0x00	; 0
    3072:	b0 e0       	ldi	r27, 0x00	; 0
    3074:	80 93 21 22 	sts	0x2221, r24
    3078:	90 93 22 22 	sts	0x2222, r25
    307c:	a0 93 23 22 	sts	0x2223, r26
    3080:	b0 93 24 22 	sts	0x2224, r27
    3084:	80 91 21 22 	lds	r24, 0x2221
    3088:	90 91 22 22 	lds	r25, 0x2222
    308c:	a0 91 23 22 	lds	r26, 0x2223
    3090:	b0 91 24 22 	lds	r27, 0x2224
    3094:	80 93 c5 21 	sts	0x21C5, r24
    3098:	90 93 c6 21 	sts	0x21C6, r25
    309c:	a0 93 c7 21 	sts	0x21C7, r26
    30a0:	b0 93 c8 21 	sts	0x21C8, r27
    30a4:	80 91 c5 21 	lds	r24, 0x21C5
    30a8:	90 91 c6 21 	lds	r25, 0x21C6
    30ac:	a0 91 c7 21 	lds	r26, 0x21C7
    30b0:	b0 91 c8 21 	lds	r27, 0x21C8
    30b4:	80 93 cd 21 	sts	0x21CD, r24
    30b8:	90 93 ce 21 	sts	0x21CE, r25
    30bc:	a0 93 cf 21 	sts	0x21CF, r26
    30c0:	b0 93 d0 21 	sts	0x21D0, r27
    30c4:	60 93 22 26 	sts	0x2622, r22
    30c8:	70 93 23 26 	sts	0x2623, r23
    30cc:	20 93 83 22 	sts	0x2283, r18
    30d0:	30 93 84 22 	sts	0x2284, r19
    30d4:	40 93 85 22 	sts	0x2285, r20
    30d8:	50 93 86 22 	sts	0x2286, r21
    30dc:	80 91 83 22 	lds	r24, 0x2283
    30e0:	90 91 84 22 	lds	r25, 0x2284
    30e4:	a0 91 85 22 	lds	r26, 0x2285
    30e8:	b0 91 86 22 	lds	r27, 0x2286
    30ec:	80 93 27 22 	sts	0x2227, r24
    30f0:	90 93 28 22 	sts	0x2228, r25
    30f4:	a0 93 29 22 	sts	0x2229, r26
    30f8:	b0 93 2a 22 	sts	0x222A, r27
    30fc:	80 91 27 22 	lds	r24, 0x2227
    3100:	90 91 28 22 	lds	r25, 0x2228
    3104:	a0 91 29 22 	lds	r26, 0x2229
    3108:	b0 91 2a 22 	lds	r27, 0x222A
    310c:	80 93 2f 22 	sts	0x222F, r24
    3110:	90 93 30 22 	sts	0x2230, r25
    3114:	a0 93 31 22 	sts	0x2231, r26
    3118:	b0 93 32 22 	sts	0x2232, r27
    311c:	60 93 2c 26 	sts	0x262C, r22
    3120:	70 93 2d 26 	sts	0x262D, r23
    3124:	20 93 e5 22 	sts	0x22E5, r18
    3128:	30 93 e6 22 	sts	0x22E6, r19
    312c:	40 93 e7 22 	sts	0x22E7, r20
    3130:	50 93 e8 22 	sts	0x22E8, r21
    3134:	80 91 e5 22 	lds	r24, 0x22E5
    3138:	90 91 e6 22 	lds	r25, 0x22E6
    313c:	a0 91 e7 22 	lds	r26, 0x22E7
    3140:	b0 91 e8 22 	lds	r27, 0x22E8
    3144:	80 93 89 22 	sts	0x2289, r24
    3148:	90 93 8a 22 	sts	0x228A, r25
    314c:	a0 93 8b 22 	sts	0x228B, r26
    3150:	b0 93 8c 22 	sts	0x228C, r27
    3154:	80 91 89 22 	lds	r24, 0x2289
    3158:	90 91 8a 22 	lds	r25, 0x228A
    315c:	a0 91 8b 22 	lds	r26, 0x228B
    3160:	b0 91 8c 22 	lds	r27, 0x228C
    3164:	80 93 91 22 	sts	0x2291, r24
    3168:	90 93 92 22 	sts	0x2292, r25
    316c:	a0 93 93 22 	sts	0x2293, r26
    3170:	b0 93 94 22 	sts	0x2294, r27
    3174:	84 ec       	ldi	r24, 0xC4	; 196
    3176:	99 e0       	ldi	r25, 0x09	; 9
    3178:	80 93 2e 26 	sts	0x262E, r24
    317c:	90 93 2f 26 	sts	0x262F, r25
    3180:	84 ec       	ldi	r24, 0xC4	; 196
    3182:	99 e0       	ldi	r25, 0x09	; 9
    3184:	a0 e0       	ldi	r26, 0x00	; 0
    3186:	b0 e0       	ldi	r27, 0x00	; 0
    3188:	80 93 47 23 	sts	0x2347, r24
    318c:	90 93 48 23 	sts	0x2348, r25
    3190:	a0 93 49 23 	sts	0x2349, r26
    3194:	b0 93 4a 23 	sts	0x234A, r27
    3198:	80 91 47 23 	lds	r24, 0x2347
    319c:	90 91 48 23 	lds	r25, 0x2348
    31a0:	a0 91 49 23 	lds	r26, 0x2349
    31a4:	b0 91 4a 23 	lds	r27, 0x234A
    31a8:	80 93 eb 22 	sts	0x22EB, r24
    31ac:	90 93 ec 22 	sts	0x22EC, r25
    31b0:	a0 93 ed 22 	sts	0x22ED, r26
    31b4:	b0 93 ee 22 	sts	0x22EE, r27
    31b8:	80 91 eb 22 	lds	r24, 0x22EB
    31bc:	90 91 ec 22 	lds	r25, 0x22EC
    31c0:	a0 91 ed 22 	lds	r26, 0x22ED
    31c4:	b0 91 ee 22 	lds	r27, 0x22EE
    31c8:	80 93 f3 22 	sts	0x22F3, r24
    31cc:	90 93 f4 22 	sts	0x22F4, r25
    31d0:	a0 93 f5 22 	sts	0x22F5, r26
    31d4:	b0 93 f6 22 	sts	0x22F6, r27
    31d8:	df 91       	pop	r29
    31da:	cf 91       	pop	r28
    31dc:	1f 91       	pop	r17
    31de:	0f 91       	pop	r16
    31e0:	ff 90       	pop	r15
    31e2:	ef 90       	pop	r14
    31e4:	df 90       	pop	r13
    31e6:	cf 90       	pop	r12
    31e8:	bf 90       	pop	r11
    31ea:	af 90       	pop	r10
    31ec:	9f 90       	pop	r9
    31ee:	8f 90       	pop	r8
    31f0:	7f 90       	pop	r7
    31f2:	08 95       	ret

000031f4 <GetCommand>:
    31f4:	90 91 f4 20 	lds	r25, 0x20F4
    31f8:	80 91 f6 20 	lds	r24, 0x20F6
    31fc:	98 17       	cp	r25, r24
    31fe:	19 f4       	brne	.+6      	; 0x3206 <GetCommand+0x12>
    3200:	e0 e0       	ldi	r30, 0x00	; 0
    3202:	f0 e0       	ldi	r31, 0x00	; 0
    3204:	12 c0       	rjmp	.+36     	; 0x322a <GetCommand+0x36>
    3206:	98 32       	cpi	r25, 0x28	; 40
    3208:	11 f4       	brne	.+4      	; 0x320e <GetCommand+0x1a>
    320a:	10 92 f4 20 	sts	0x20F4, r1
    320e:	80 91 f4 20 	lds	r24, 0x20F4
    3212:	e8 2f       	mov	r30, r24
    3214:	f0 e0       	ldi	r31, 0x00	; 0
    3216:	ee 0f       	add	r30, r30
    3218:	ff 1f       	adc	r31, r31
    321a:	e0 53       	subi	r30, 0x30	; 48
    321c:	fa 4d       	sbci	r31, 0xDA	; 218
    321e:	01 90       	ld	r0, Z+
    3220:	f0 81       	ld	r31, Z
    3222:	e0 2d       	mov	r30, r0
    3224:	8f 5f       	subi	r24, 0xFF	; 255
    3226:	80 93 f4 20 	sts	0x20F4, r24
    322a:	cf 01       	movw	r24, r30
    322c:	08 95       	ret

0000322e <ExecuteCommand>:
    322e:	5f 92       	push	r5
    3230:	6f 92       	push	r6
    3232:	7f 92       	push	r7
    3234:	8f 92       	push	r8
    3236:	9f 92       	push	r9
    3238:	af 92       	push	r10
    323a:	bf 92       	push	r11
    323c:	cf 92       	push	r12
    323e:	df 92       	push	r13
    3240:	ef 92       	push	r14
    3242:	ff 92       	push	r15
    3244:	0f 93       	push	r16
    3246:	1f 93       	push	r17
    3248:	cf 93       	push	r28
    324a:	df 93       	push	r29
    324c:	0e 94 fa 18 	call	0x31f4	; 0x31f4 <GetCommand>
    3250:	00 97       	sbiw	r24, 0x00	; 0
    3252:	21 f0       	breq	.+8      	; 0x325c <ExecuteCommand+0x2e>
    3254:	80 93 f2 20 	sts	0x20F2, r24
    3258:	90 93 f3 20 	sts	0x20F3, r25
    325c:	80 91 f2 20 	lds	r24, 0x20F2
    3260:	90 91 f3 20 	lds	r25, 0x20F3
    3264:	01 97       	sbiw	r24, 0x01	; 1
    3266:	21 f4       	brne	.+8      	; 0x3270 <ExecuteCommand+0x42>
    3268:	80 e0       	ldi	r24, 0x00	; 0
    326a:	61 e0       	ldi	r22, 0x01	; 1
    326c:	0e 94 43 0e 	call	0x1c86	; 0x1c86 <Onlinecontrol>
    3270:	80 91 f2 20 	lds	r24, 0x20F2
    3274:	90 91 f3 20 	lds	r25, 0x20F3
    3278:	02 97       	sbiw	r24, 0x02	; 2
    327a:	41 f4       	brne	.+16     	; 0x328c <ExecuteCommand+0x5e>
    327c:	80 e0       	ldi	r24, 0x00	; 0
    327e:	63 e0       	ldi	r22, 0x03	; 3
    3280:	0e 94 43 0e 	call	0x1c86	; 0x1c86 <Onlinecontrol>
    3284:	10 92 f2 20 	sts	0x20F2, r1
    3288:	10 92 f3 20 	sts	0x20F3, r1
    328c:	80 91 f2 20 	lds	r24, 0x20F2
    3290:	90 91 f3 20 	lds	r25, 0x20F3
    3294:	03 97       	sbiw	r24, 0x03	; 3
    3296:	21 f4       	brne	.+8      	; 0x32a0 <ExecuteCommand+0x72>
    3298:	80 e0       	ldi	r24, 0x00	; 0
    329a:	62 e0       	ldi	r22, 0x02	; 2
    329c:	0e 94 43 0e 	call	0x1c86	; 0x1c86 <Onlinecontrol>
    32a0:	80 91 f2 20 	lds	r24, 0x20F2
    32a4:	90 91 f3 20 	lds	r25, 0x20F3
    32a8:	89 55       	subi	r24, 0x59	; 89
    32aa:	9b 41       	sbci	r25, 0x1B	; 27
    32ac:	21 f4       	brne	.+8      	; 0x32b6 <ExecuteCommand+0x88>
    32ae:	81 e0       	ldi	r24, 0x01	; 1
    32b0:	61 e0       	ldi	r22, 0x01	; 1
    32b2:	0e 94 43 0e 	call	0x1c86	; 0x1c86 <Onlinecontrol>
    32b6:	80 91 f2 20 	lds	r24, 0x20F2
    32ba:	90 91 f3 20 	lds	r25, 0x20F3
    32be:	8a 55       	subi	r24, 0x5A	; 90
    32c0:	9b 41       	sbci	r25, 0x1B	; 27
    32c2:	41 f4       	brne	.+16     	; 0x32d4 <ExecuteCommand+0xa6>
    32c4:	81 e0       	ldi	r24, 0x01	; 1
    32c6:	63 e0       	ldi	r22, 0x03	; 3
    32c8:	0e 94 43 0e 	call	0x1c86	; 0x1c86 <Onlinecontrol>
    32cc:	10 92 f2 20 	sts	0x20F2, r1
    32d0:	10 92 f3 20 	sts	0x20F3, r1
    32d4:	80 91 f2 20 	lds	r24, 0x20F2
    32d8:	90 91 f3 20 	lds	r25, 0x20F3
    32dc:	8b 55       	subi	r24, 0x5B	; 91
    32de:	9b 41       	sbci	r25, 0x1B	; 27
    32e0:	21 f4       	brne	.+8      	; 0x32ea <ExecuteCommand+0xbc>
    32e2:	81 e0       	ldi	r24, 0x01	; 1
    32e4:	62 e0       	ldi	r22, 0x02	; 2
    32e6:	0e 94 43 0e 	call	0x1c86	; 0x1c86 <Onlinecontrol>
    32ea:	80 91 f2 20 	lds	r24, 0x20F2
    32ee:	90 91 f3 20 	lds	r25, 0x20F3
    32f2:	81 5b       	subi	r24, 0xB1	; 177
    32f4:	96 43       	sbci	r25, 0x36	; 54
    32f6:	21 f4       	brne	.+8      	; 0x3300 <ExecuteCommand+0xd2>
    32f8:	82 e0       	ldi	r24, 0x02	; 2
    32fa:	61 e0       	ldi	r22, 0x01	; 1
    32fc:	0e 94 43 0e 	call	0x1c86	; 0x1c86 <Onlinecontrol>
    3300:	80 91 f2 20 	lds	r24, 0x20F2
    3304:	90 91 f3 20 	lds	r25, 0x20F3
    3308:	82 5b       	subi	r24, 0xB2	; 178
    330a:	96 43       	sbci	r25, 0x36	; 54
    330c:	41 f4       	brne	.+16     	; 0x331e <ExecuteCommand+0xf0>
    330e:	82 e0       	ldi	r24, 0x02	; 2
    3310:	63 e0       	ldi	r22, 0x03	; 3
    3312:	0e 94 43 0e 	call	0x1c86	; 0x1c86 <Onlinecontrol>
    3316:	10 92 f2 20 	sts	0x20F2, r1
    331a:	10 92 f3 20 	sts	0x20F3, r1
    331e:	80 91 f2 20 	lds	r24, 0x20F2
    3322:	90 91 f3 20 	lds	r25, 0x20F3
    3326:	83 5b       	subi	r24, 0xB3	; 179
    3328:	96 43       	sbci	r25, 0x36	; 54
    332a:	21 f4       	brne	.+8      	; 0x3334 <ExecuteCommand+0x106>
    332c:	82 e0       	ldi	r24, 0x02	; 2
    332e:	62 e0       	ldi	r22, 0x02	; 2
    3330:	0e 94 43 0e 	call	0x1c86	; 0x1c86 <Onlinecontrol>
    3334:	80 91 f2 20 	lds	r24, 0x20F2
    3338:	90 91 f3 20 	lds	r25, 0x20F3
    333c:	89 50       	subi	r24, 0x09	; 9
    333e:	92 45       	sbci	r25, 0x52	; 82
    3340:	21 f4       	brne	.+8      	; 0x334a <ExecuteCommand+0x11c>
    3342:	83 e0       	ldi	r24, 0x03	; 3
    3344:	61 e0       	ldi	r22, 0x01	; 1
    3346:	0e 94 43 0e 	call	0x1c86	; 0x1c86 <Onlinecontrol>
    334a:	80 91 f2 20 	lds	r24, 0x20F2
    334e:	90 91 f3 20 	lds	r25, 0x20F3
    3352:	8a 50       	subi	r24, 0x0A	; 10
    3354:	92 45       	sbci	r25, 0x52	; 82
    3356:	41 f4       	brne	.+16     	; 0x3368 <ExecuteCommand+0x13a>
    3358:	83 e0       	ldi	r24, 0x03	; 3
    335a:	63 e0       	ldi	r22, 0x03	; 3
    335c:	0e 94 43 0e 	call	0x1c86	; 0x1c86 <Onlinecontrol>
    3360:	10 92 f2 20 	sts	0x20F2, r1
    3364:	10 92 f3 20 	sts	0x20F3, r1
    3368:	80 91 f2 20 	lds	r24, 0x20F2
    336c:	90 91 f3 20 	lds	r25, 0x20F3
    3370:	8b 50       	subi	r24, 0x0B	; 11
    3372:	92 45       	sbci	r25, 0x52	; 82
    3374:	21 f4       	brne	.+8      	; 0x337e <ExecuteCommand+0x150>
    3376:	83 e0       	ldi	r24, 0x03	; 3
    3378:	62 e0       	ldi	r22, 0x02	; 2
    337a:	0e 94 43 0e 	call	0x1c86	; 0x1c86 <Onlinecontrol>
    337e:	80 91 f2 20 	lds	r24, 0x20F2
    3382:	90 91 f3 20 	lds	r25, 0x20F3
    3386:	81 56       	subi	r24, 0x61	; 97
    3388:	9d 46       	sbci	r25, 0x6D	; 109
    338a:	21 f4       	brne	.+8      	; 0x3394 <ExecuteCommand+0x166>
    338c:	84 e0       	ldi	r24, 0x04	; 4
    338e:	61 e0       	ldi	r22, 0x01	; 1
    3390:	0e 94 43 0e 	call	0x1c86	; 0x1c86 <Onlinecontrol>
    3394:	80 91 f2 20 	lds	r24, 0x20F2
    3398:	90 91 f3 20 	lds	r25, 0x20F3
    339c:	82 56       	subi	r24, 0x62	; 98
    339e:	9d 46       	sbci	r25, 0x6D	; 109
    33a0:	41 f4       	brne	.+16     	; 0x33b2 <ExecuteCommand+0x184>
    33a2:	84 e0       	ldi	r24, 0x04	; 4
    33a4:	63 e0       	ldi	r22, 0x03	; 3
    33a6:	0e 94 43 0e 	call	0x1c86	; 0x1c86 <Onlinecontrol>
    33aa:	10 92 f2 20 	sts	0x20F2, r1
    33ae:	10 92 f3 20 	sts	0x20F3, r1
    33b2:	80 91 f2 20 	lds	r24, 0x20F2
    33b6:	90 91 f3 20 	lds	r25, 0x20F3
    33ba:	83 56       	subi	r24, 0x63	; 99
    33bc:	9d 46       	sbci	r25, 0x6D	; 109
    33be:	21 f4       	brne	.+8      	; 0x33c8 <ExecuteCommand+0x19a>
    33c0:	84 e0       	ldi	r24, 0x04	; 4
    33c2:	62 e0       	ldi	r22, 0x02	; 2
    33c4:	0e 94 43 0e 	call	0x1c86	; 0x1c86 <Onlinecontrol>
    33c8:	80 91 f2 20 	lds	r24, 0x20F2
    33cc:	90 91 f3 20 	lds	r25, 0x20F3
    33d0:	89 5b       	subi	r24, 0xB9	; 185
    33d2:	98 48       	sbci	r25, 0x88	; 136
    33d4:	21 f4       	brne	.+8      	; 0x33de <ExecuteCommand+0x1b0>
    33d6:	85 e0       	ldi	r24, 0x05	; 5
    33d8:	61 e0       	ldi	r22, 0x01	; 1
    33da:	0e 94 43 0e 	call	0x1c86	; 0x1c86 <Onlinecontrol>
    33de:	80 91 f2 20 	lds	r24, 0x20F2
    33e2:	90 91 f3 20 	lds	r25, 0x20F3
    33e6:	8a 5b       	subi	r24, 0xBA	; 186
    33e8:	98 48       	sbci	r25, 0x88	; 136
    33ea:	41 f4       	brne	.+16     	; 0x33fc <ExecuteCommand+0x1ce>
    33ec:	85 e0       	ldi	r24, 0x05	; 5
    33ee:	63 e0       	ldi	r22, 0x03	; 3
    33f0:	0e 94 43 0e 	call	0x1c86	; 0x1c86 <Onlinecontrol>
    33f4:	10 92 f2 20 	sts	0x20F2, r1
    33f8:	10 92 f3 20 	sts	0x20F3, r1
    33fc:	80 91 f2 20 	lds	r24, 0x20F2
    3400:	90 91 f3 20 	lds	r25, 0x20F3
    3404:	8b 5b       	subi	r24, 0xBB	; 187
    3406:	98 48       	sbci	r25, 0x88	; 136
    3408:	21 f4       	brne	.+8      	; 0x3412 <ExecuteCommand+0x1e4>
    340a:	85 e0       	ldi	r24, 0x05	; 5
    340c:	62 e0       	ldi	r22, 0x02	; 2
    340e:	0e 94 43 0e 	call	0x1c86	; 0x1c86 <Onlinecontrol>
    3412:	80 91 a8 06 	lds	r24, 0x06A8
    3416:	85 fd       	sbrc	r24, 5
    3418:	19 c0       	rjmp	.+50     	; 0x344c <ExecuteCommand+0x21e>
    341a:	80 91 f2 20 	lds	r24, 0x20F2
    341e:	90 91 f3 20 	lds	r25, 0x20F3
    3422:	81 58       	subi	r24, 0x81	; 129
    3424:	9b 4b       	sbci	r25, 0xBB	; 187
    3426:	91 f4       	brne	.+36     	; 0x344c <ExecuteCommand+0x21e>
    3428:	80 91 20 26 	lds	r24, 0x2620
    342c:	81 30       	cpi	r24, 0x01	; 1
    342e:	71 f4       	brne	.+28     	; 0x344c <ExecuteCommand+0x21e>
    3430:	10 92 f2 20 	sts	0x20F2, r1
    3434:	10 92 f3 20 	sts	0x20F3, r1
    3438:	86 e0       	ldi	r24, 0x06	; 6
    343a:	63 e0       	ldi	r22, 0x03	; 3
    343c:	0e 94 43 0e 	call	0x1c86	; 0x1c86 <Onlinecontrol>
    3440:	80 eb       	ldi	r24, 0xB0	; 176
    3442:	98 e0       	ldi	r25, 0x08	; 8
    3444:	6b e7       	ldi	r22, 0x7B	; 123
    3446:	70 e0       	ldi	r23, 0x00	; 0
    3448:	0e 94 d8 2e 	call	0x5db0	; 0x5db0 <USART_send_int>
    344c:	80 91 a8 06 	lds	r24, 0x06A8
    3450:	85 fd       	sbrc	r24, 5
    3452:	19 c0       	rjmp	.+50     	; 0x3486 <ExecuteCommand+0x258>
    3454:	80 91 f2 20 	lds	r24, 0x20F2
    3458:	90 91 f3 20 	lds	r25, 0x20F3
    345c:	83 58       	subi	r24, 0x83	; 131
    345e:	9b 4b       	sbci	r25, 0xBB	; 187
    3460:	91 f4       	brne	.+36     	; 0x3486 <ExecuteCommand+0x258>
    3462:	80 91 20 26 	lds	r24, 0x2620
    3466:	82 30       	cpi	r24, 0x02	; 2
    3468:	71 f4       	brne	.+28     	; 0x3486 <ExecuteCommand+0x258>
    346a:	10 92 f2 20 	sts	0x20F2, r1
    346e:	10 92 f3 20 	sts	0x20F3, r1
    3472:	86 e0       	ldi	r24, 0x06	; 6
    3474:	63 e0       	ldi	r22, 0x03	; 3
    3476:	0e 94 43 0e 	call	0x1c86	; 0x1c86 <Onlinecontrol>
    347a:	80 eb       	ldi	r24, 0xB0	; 176
    347c:	98 e0       	ldi	r25, 0x08	; 8
    347e:	6a e9       	ldi	r22, 0x9A	; 154
    3480:	70 e0       	ldi	r23, 0x00	; 0
    3482:	0e 94 d8 2e 	call	0x5db0	; 0x5db0 <USART_send_int>
    3486:	80 91 f2 20 	lds	r24, 0x20F2
    348a:	90 91 f3 20 	lds	r25, 0x20F3
    348e:	81 58       	subi	r24, 0x81	; 129
    3490:	9b 4b       	sbci	r25, 0xBB	; 187
    3492:	69 f4       	brne	.+26     	; 0x34ae <ExecuteCommand+0x280>
    3494:	86 e0       	ldi	r24, 0x06	; 6
    3496:	61 e0       	ldi	r22, 0x01	; 1
    3498:	0e 94 43 0e 	call	0x1c86	; 0x1c86 <Onlinecontrol>
    349c:	80 91 a8 06 	lds	r24, 0x06A8
    34a0:	85 ff       	sbrs	r24, 5
    34a2:	05 c0       	rjmp	.+10     	; 0x34ae <ExecuteCommand+0x280>
    34a4:	81 e0       	ldi	r24, 0x01	; 1
    34a6:	80 93 20 26 	sts	0x2620, r24
    34aa:	10 92 eb 20 	sts	0x20EB, r1
    34ae:	80 91 f2 20 	lds	r24, 0x20F2
    34b2:	90 91 f3 20 	lds	r25, 0x20F3
    34b6:	82 58       	subi	r24, 0x82	; 130
    34b8:	9b 4b       	sbci	r25, 0xBB	; 187
    34ba:	41 f4       	brne	.+16     	; 0x34cc <ExecuteCommand+0x29e>
    34bc:	86 e0       	ldi	r24, 0x06	; 6
    34be:	63 e0       	ldi	r22, 0x03	; 3
    34c0:	0e 94 43 0e 	call	0x1c86	; 0x1c86 <Onlinecontrol>
    34c4:	10 92 f2 20 	sts	0x20F2, r1
    34c8:	10 92 f3 20 	sts	0x20F3, r1
    34cc:	80 91 f2 20 	lds	r24, 0x20F2
    34d0:	90 91 f3 20 	lds	r25, 0x20F3
    34d4:	83 58       	subi	r24, 0x83	; 131
    34d6:	9b 4b       	sbci	r25, 0xBB	; 187
    34d8:	69 f4       	brne	.+26     	; 0x34f4 <ExecuteCommand+0x2c6>
    34da:	86 e0       	ldi	r24, 0x06	; 6
    34dc:	62 e0       	ldi	r22, 0x02	; 2
    34de:	0e 94 43 0e 	call	0x1c86	; 0x1c86 <Onlinecontrol>
    34e2:	80 91 a8 06 	lds	r24, 0x06A8
    34e6:	85 ff       	sbrs	r24, 5
    34e8:	05 c0       	rjmp	.+10     	; 0x34f4 <ExecuteCommand+0x2c6>
    34ea:	82 e0       	ldi	r24, 0x02	; 2
    34ec:	80 93 20 26 	sts	0x2620, r24
    34f0:	10 92 eb 20 	sts	0x20EB, r1
    34f4:	20 91 f2 20 	lds	r18, 0x20F2
    34f8:	30 91 f3 20 	lds	r19, 0x20F3
    34fc:	c9 01       	movw	r24, r18
    34fe:	04 97       	sbiw	r24, 0x04	; 4
    3500:	84 55       	subi	r24, 0x54	; 84
    3502:	9b 41       	sbci	r25, 0x1B	; 27
    3504:	78 f4       	brcc	.+30     	; 0x3524 <ExecuteCommand+0x2f6>
    3506:	c9 01       	movw	r24, r18
    3508:	a0 e0       	ldi	r26, 0x00	; 0
    350a:	b0 e0       	ldi	r27, 0x00	; 0
    350c:	80 93 09 21 	sts	0x2109, r24
    3510:	90 93 0a 21 	sts	0x210A, r25
    3514:	a0 93 0b 21 	sts	0x210B, r26
    3518:	b0 93 0c 21 	sts	0x210C, r27
    351c:	10 92 f2 20 	sts	0x20F2, r1
    3520:	10 92 f3 20 	sts	0x20F3, r1
    3524:	20 91 f2 20 	lds	r18, 0x20F2
    3528:	30 91 f3 20 	lds	r19, 0x20F3
    352c:	c9 01       	movw	r24, r18
    352e:	8c 55       	subi	r24, 0x5C	; 92
    3530:	9b 41       	sbci	r25, 0x1B	; 27
    3532:	84 55       	subi	r24, 0x54	; 84
    3534:	9b 41       	sbci	r25, 0x1B	; 27
    3536:	88 f4       	brcc	.+34     	; 0x355a <ExecuteCommand+0x32c>
    3538:	28 55       	subi	r18, 0x58	; 88
    353a:	3b 41       	sbci	r19, 0x1B	; 27
    353c:	c9 01       	movw	r24, r18
    353e:	a0 e0       	ldi	r26, 0x00	; 0
    3540:	b0 e0       	ldi	r27, 0x00	; 0
    3542:	80 93 6b 21 	sts	0x216B, r24
    3546:	90 93 6c 21 	sts	0x216C, r25
    354a:	a0 93 6d 21 	sts	0x216D, r26
    354e:	b0 93 6e 21 	sts	0x216E, r27
    3552:	10 92 f2 20 	sts	0x20F2, r1
    3556:	10 92 f3 20 	sts	0x20F3, r1
    355a:	20 91 f2 20 	lds	r18, 0x20F2
    355e:	30 91 f3 20 	lds	r19, 0x20F3
    3562:	c9 01       	movw	r24, r18
    3564:	84 5b       	subi	r24, 0xB4	; 180
    3566:	96 43       	sbci	r25, 0x36	; 54
    3568:	84 55       	subi	r24, 0x54	; 84
    356a:	9b 41       	sbci	r25, 0x1B	; 27
    356c:	88 f4       	brcc	.+34     	; 0x3590 <ExecuteCommand+0x362>
    356e:	20 5b       	subi	r18, 0xB0	; 176
    3570:	36 43       	sbci	r19, 0x36	; 54
    3572:	c9 01       	movw	r24, r18
    3574:	a0 e0       	ldi	r26, 0x00	; 0
    3576:	b0 e0       	ldi	r27, 0x00	; 0
    3578:	80 93 cd 21 	sts	0x21CD, r24
    357c:	90 93 ce 21 	sts	0x21CE, r25
    3580:	a0 93 cf 21 	sts	0x21CF, r26
    3584:	b0 93 d0 21 	sts	0x21D0, r27
    3588:	10 92 f2 20 	sts	0x20F2, r1
    358c:	10 92 f3 20 	sts	0x20F3, r1
    3590:	20 91 f2 20 	lds	r18, 0x20F2
    3594:	30 91 f3 20 	lds	r19, 0x20F3
    3598:	c9 01       	movw	r24, r18
    359a:	8c 50       	subi	r24, 0x0C	; 12
    359c:	92 45       	sbci	r25, 0x52	; 82
    359e:	84 55       	subi	r24, 0x54	; 84
    35a0:	9b 41       	sbci	r25, 0x1B	; 27
    35a2:	88 f4       	brcc	.+34     	; 0x35c6 <ExecuteCommand+0x398>
    35a4:	28 50       	subi	r18, 0x08	; 8
    35a6:	32 45       	sbci	r19, 0x52	; 82
    35a8:	c9 01       	movw	r24, r18
    35aa:	a0 e0       	ldi	r26, 0x00	; 0
    35ac:	b0 e0       	ldi	r27, 0x00	; 0
    35ae:	80 93 2f 22 	sts	0x222F, r24
    35b2:	90 93 30 22 	sts	0x2230, r25
    35b6:	a0 93 31 22 	sts	0x2231, r26
    35ba:	b0 93 32 22 	sts	0x2232, r27
    35be:	10 92 f2 20 	sts	0x20F2, r1
    35c2:	10 92 f3 20 	sts	0x20F3, r1
    35c6:	20 91 f2 20 	lds	r18, 0x20F2
    35ca:	30 91 f3 20 	lds	r19, 0x20F3
    35ce:	c9 01       	movw	r24, r18
    35d0:	84 56       	subi	r24, 0x64	; 100
    35d2:	9d 46       	sbci	r25, 0x6D	; 109
    35d4:	84 55       	subi	r24, 0x54	; 84
    35d6:	9b 41       	sbci	r25, 0x1B	; 27
    35d8:	88 f4       	brcc	.+34     	; 0x35fc <ExecuteCommand+0x3ce>
    35da:	20 56       	subi	r18, 0x60	; 96
    35dc:	3d 46       	sbci	r19, 0x6D	; 109
    35de:	c9 01       	movw	r24, r18
    35e0:	a0 e0       	ldi	r26, 0x00	; 0
    35e2:	b0 e0       	ldi	r27, 0x00	; 0
    35e4:	80 93 91 22 	sts	0x2291, r24
    35e8:	90 93 92 22 	sts	0x2292, r25
    35ec:	a0 93 93 22 	sts	0x2293, r26
    35f0:	b0 93 94 22 	sts	0x2294, r27
    35f4:	10 92 f2 20 	sts	0x20F2, r1
    35f8:	10 92 f3 20 	sts	0x20F3, r1
    35fc:	20 91 f2 20 	lds	r18, 0x20F2
    3600:	30 91 f3 20 	lds	r19, 0x20F3
    3604:	c9 01       	movw	r24, r18
    3606:	8c 5b       	subi	r24, 0xBC	; 188
    3608:	98 48       	sbci	r25, 0x88	; 136
    360a:	84 55       	subi	r24, 0x54	; 84
    360c:	9b 41       	sbci	r25, 0x1B	; 27
    360e:	98 f4       	brcc	.+38     	; 0x3636 <ExecuteCommand+0x408>
    3610:	c9 01       	movw	r24, r18
    3612:	a0 e0       	ldi	r26, 0x00	; 0
    3614:	b0 e0       	ldi	r27, 0x00	; 0
    3616:	88 5b       	subi	r24, 0xB8	; 184
    3618:	98 48       	sbci	r25, 0x88	; 136
    361a:	a0 40       	sbci	r26, 0x00	; 0
    361c:	b0 40       	sbci	r27, 0x00	; 0
    361e:	80 93 f3 22 	sts	0x22F3, r24
    3622:	90 93 f4 22 	sts	0x22F4, r25
    3626:	a0 93 f5 22 	sts	0x22F5, r26
    362a:	b0 93 f6 22 	sts	0x22F6, r27
    362e:	10 92 f2 20 	sts	0x20F2, r1
    3632:	10 92 f3 20 	sts	0x20F3, r1
    3636:	20 91 f2 20 	lds	r18, 0x20F2
    363a:	30 91 f3 20 	lds	r19, 0x20F3
    363e:	c9 01       	movw	r24, r18
    3640:	82 51       	subi	r24, 0x12	; 18
    3642:	94 4a       	sbci	r25, 0xA4	; 164
    3644:	86 5e       	subi	r24, 0xE6	; 230
    3646:	93 40       	sbci	r25, 0x03	; 3
    3648:	98 f4       	brcc	.+38     	; 0x3670 <ExecuteCommand+0x442>
    364a:	c9 01       	movw	r24, r18
    364c:	a0 e0       	ldi	r26, 0x00	; 0
    364e:	b0 e0       	ldi	r27, 0x00	; 0
    3650:	80 51       	subi	r24, 0x10	; 16
    3652:	94 4a       	sbci	r25, 0xA4	; 164
    3654:	a0 40       	sbci	r26, 0x00	; 0
    3656:	b0 40       	sbci	r27, 0x00	; 0
    3658:	80 93 4d 21 	sts	0x214D, r24
    365c:	90 93 4e 21 	sts	0x214E, r25
    3660:	a0 93 4f 21 	sts	0x214F, r26
    3664:	b0 93 50 21 	sts	0x2150, r27
    3668:	10 92 f2 20 	sts	0x20F2, r1
    366c:	10 92 f3 20 	sts	0x20F3, r1
    3670:	20 91 f2 20 	lds	r18, 0x20F2
    3674:	30 91 f3 20 	lds	r19, 0x20F3
    3678:	c9 01       	movw	r24, r18
    367a:	8a 5f       	subi	r24, 0xFA	; 250
    367c:	97 4a       	sbci	r25, 0xA7	; 167
    367e:	86 5e       	subi	r24, 0xE6	; 230
    3680:	93 40       	sbci	r25, 0x03	; 3
    3682:	98 f4       	brcc	.+38     	; 0x36aa <ExecuteCommand+0x47c>
    3684:	c9 01       	movw	r24, r18
    3686:	a0 e0       	ldi	r26, 0x00	; 0
    3688:	b0 e0       	ldi	r27, 0x00	; 0
    368a:	88 5f       	subi	r24, 0xF8	; 248
    368c:	97 4a       	sbci	r25, 0xA7	; 167
    368e:	a0 40       	sbci	r26, 0x00	; 0
    3690:	b0 40       	sbci	r27, 0x00	; 0
    3692:	80 93 af 21 	sts	0x21AF, r24
    3696:	90 93 b0 21 	sts	0x21B0, r25
    369a:	a0 93 b1 21 	sts	0x21B1, r26
    369e:	b0 93 b2 21 	sts	0x21B2, r27
    36a2:	10 92 f2 20 	sts	0x20F2, r1
    36a6:	10 92 f3 20 	sts	0x20F3, r1
    36aa:	20 91 f2 20 	lds	r18, 0x20F2
    36ae:	30 91 f3 20 	lds	r19, 0x20F3
    36b2:	c9 01       	movw	r24, r18
    36b4:	82 5e       	subi	r24, 0xE2	; 226
    36b6:	9b 4a       	sbci	r25, 0xAB	; 171
    36b8:	86 5e       	subi	r24, 0xE6	; 230
    36ba:	93 40       	sbci	r25, 0x03	; 3
    36bc:	98 f4       	brcc	.+38     	; 0x36e4 <ExecuteCommand+0x4b6>
    36be:	c9 01       	movw	r24, r18
    36c0:	a0 e0       	ldi	r26, 0x00	; 0
    36c2:	b0 e0       	ldi	r27, 0x00	; 0
    36c4:	80 5e       	subi	r24, 0xE0	; 224
    36c6:	9b 4a       	sbci	r25, 0xAB	; 171
    36c8:	a0 40       	sbci	r26, 0x00	; 0
    36ca:	b0 40       	sbci	r27, 0x00	; 0
    36cc:	80 93 11 22 	sts	0x2211, r24
    36d0:	90 93 12 22 	sts	0x2212, r25
    36d4:	a0 93 13 22 	sts	0x2213, r26
    36d8:	b0 93 14 22 	sts	0x2214, r27
    36dc:	10 92 f2 20 	sts	0x20F2, r1
    36e0:	10 92 f3 20 	sts	0x20F3, r1
    36e4:	20 91 f2 20 	lds	r18, 0x20F2
    36e8:	30 91 f3 20 	lds	r19, 0x20F3
    36ec:	c9 01       	movw	r24, r18
    36ee:	8a 5c       	subi	r24, 0xCA	; 202
    36f0:	9f 4a       	sbci	r25, 0xAF	; 175
    36f2:	86 5e       	subi	r24, 0xE6	; 230
    36f4:	93 40       	sbci	r25, 0x03	; 3
    36f6:	98 f4       	brcc	.+38     	; 0x371e <ExecuteCommand+0x4f0>
    36f8:	c9 01       	movw	r24, r18
    36fa:	a0 e0       	ldi	r26, 0x00	; 0
    36fc:	b0 e0       	ldi	r27, 0x00	; 0
    36fe:	88 5c       	subi	r24, 0xC8	; 200
    3700:	9f 4a       	sbci	r25, 0xAF	; 175
    3702:	a0 40       	sbci	r26, 0x00	; 0
    3704:	b0 40       	sbci	r27, 0x00	; 0
    3706:	80 93 73 22 	sts	0x2273, r24
    370a:	90 93 74 22 	sts	0x2274, r25
    370e:	a0 93 75 22 	sts	0x2275, r26
    3712:	b0 93 76 22 	sts	0x2276, r27
    3716:	10 92 f2 20 	sts	0x20F2, r1
    371a:	10 92 f3 20 	sts	0x20F3, r1
    371e:	20 91 f2 20 	lds	r18, 0x20F2
    3722:	30 91 f3 20 	lds	r19, 0x20F3
    3726:	c9 01       	movw	r24, r18
    3728:	82 5b       	subi	r24, 0xB2	; 178
    372a:	93 4b       	sbci	r25, 0xB3	; 179
    372c:	86 5e       	subi	r24, 0xE6	; 230
    372e:	93 40       	sbci	r25, 0x03	; 3
    3730:	98 f4       	brcc	.+38     	; 0x3758 <ExecuteCommand+0x52a>
    3732:	c9 01       	movw	r24, r18
    3734:	a0 e0       	ldi	r26, 0x00	; 0
    3736:	b0 e0       	ldi	r27, 0x00	; 0
    3738:	80 5b       	subi	r24, 0xB0	; 176
    373a:	93 4b       	sbci	r25, 0xB3	; 179
    373c:	a0 40       	sbci	r26, 0x00	; 0
    373e:	b0 40       	sbci	r27, 0x00	; 0
    3740:	80 93 d5 22 	sts	0x22D5, r24
    3744:	90 93 d6 22 	sts	0x22D6, r25
    3748:	a0 93 d7 22 	sts	0x22D7, r26
    374c:	b0 93 d8 22 	sts	0x22D8, r27
    3750:	10 92 f2 20 	sts	0x20F2, r1
    3754:	10 92 f3 20 	sts	0x20F3, r1
    3758:	20 91 f2 20 	lds	r18, 0x20F2
    375c:	30 91 f3 20 	lds	r19, 0x20F3
    3760:	c9 01       	movw	r24, r18
    3762:	8a 59       	subi	r24, 0x9A	; 154
    3764:	97 4b       	sbci	r25, 0xB7	; 183
    3766:	86 5e       	subi	r24, 0xE6	; 230
    3768:	93 40       	sbci	r25, 0x03	; 3
    376a:	98 f4       	brcc	.+38     	; 0x3792 <ExecuteCommand+0x564>
    376c:	c9 01       	movw	r24, r18
    376e:	a0 e0       	ldi	r26, 0x00	; 0
    3770:	b0 e0       	ldi	r27, 0x00	; 0
    3772:	88 59       	subi	r24, 0x98	; 152
    3774:	97 4b       	sbci	r25, 0xB7	; 183
    3776:	a0 40       	sbci	r26, 0x00	; 0
    3778:	b0 40       	sbci	r27, 0x00	; 0
    377a:	80 93 37 23 	sts	0x2337, r24
    377e:	90 93 38 23 	sts	0x2338, r25
    3782:	a0 93 39 23 	sts	0x2339, r26
    3786:	b0 93 3a 23 	sts	0x233A, r27
    378a:	10 92 f2 20 	sts	0x20F2, r1
    378e:	10 92 f3 20 	sts	0x20F3, r1
    3792:	20 91 f2 20 	lds	r18, 0x20F2
    3796:	30 91 f3 20 	lds	r19, 0x20F3
    379a:	c9 01       	movw	r24, r18
    379c:	84 58       	subi	r24, 0x84	; 132
    379e:	9b 4b       	sbci	r25, 0xBB	; 187
    37a0:	84 5e       	subi	r24, 0xE4	; 228
    37a2:	93 40       	sbci	r25, 0x03	; 3
    37a4:	50 f4       	brcc	.+20     	; 0x37ba <ExecuteCommand+0x58c>
    37a6:	20 58       	subi	r18, 0x80	; 128
    37a8:	3b 4b       	sbci	r19, 0xBB	; 187
    37aa:	e0 e0       	ldi	r30, 0x00	; 0
    37ac:	fb e0       	ldi	r31, 0x0B	; 11
    37ae:	24 af       	std	Z+60, r18	; 0x3c
    37b0:	35 af       	std	Z+61, r19	; 0x3d
    37b2:	10 92 f2 20 	sts	0x20F2, r1
    37b6:	10 92 f3 20 	sts	0x20F3, r1
    37ba:	80 91 f2 20 	lds	r24, 0x20F2
    37be:	90 91 f3 20 	lds	r25, 0x20F3
    37c2:	8e 56       	subi	r24, 0x6E	; 110
    37c4:	9f 4b       	sbci	r25, 0xBF	; 191
    37c6:	09 f0       	breq	.+2      	; 0x37ca <ExecuteCommand+0x59c>
    37c8:	88 c0       	rjmp	.+272    	; 0x38da <ExecuteCommand+0x6ac>
    37ca:	10 92 4d 23 	sts	0x234D, r1
    37ce:	10 92 f2 20 	sts	0x20F2, r1
    37d2:	10 92 f3 20 	sts	0x20F3, r1
    37d6:	10 e0       	ldi	r17, 0x00	; 0
    37d8:	55 24       	eor	r5, r5
    37da:	66 24       	eor	r6, r6
    37dc:	77 24       	eor	r7, r7
    37de:	00 e0       	ldi	r16, 0x00	; 0
    37e0:	aa 24       	eor	r10, r10
    37e2:	bb 24       	eor	r11, r11
    37e4:	ee 24       	eor	r14, r14
    37e6:	ff 24       	eor	r15, r15
    37e8:	cc 24       	eor	r12, r12
    37ea:	dd 24       	eor	r13, r13
    37ec:	c0 e0       	ldi	r28, 0x00	; 0
    37ee:	d0 e0       	ldi	r29, 0x00	; 0
    37f0:	0e 94 fa 18 	call	0x31f4	; 0x31f4 <GetCommand>
    37f4:	80 93 f2 20 	sts	0x20F2, r24
    37f8:	90 93 f3 20 	sts	0x20F3, r25
    37fc:	00 97       	sbiw	r24, 0x00	; 0
    37fe:	09 f4       	brne	.+2      	; 0x3802 <ExecuteCommand+0x5d4>
    3800:	69 c0       	rjmp	.+210    	; 0x38d4 <ExecuteCommand+0x6a6>
    3802:	11 23       	and	r17, r17
    3804:	49 f4       	brne	.+18     	; 0x3818 <ExecuteCommand+0x5ea>
    3806:	58 2e       	mov	r5, r24
    3808:	5a 94       	dec	r5
    380a:	10 92 f2 20 	sts	0x20F2, r1
    380e:	10 92 f3 20 	sts	0x20F3, r1
    3812:	ce 01       	movw	r24, r28
    3814:	11 e0       	ldi	r17, 0x01	; 1
    3816:	5f c0       	rjmp	.+190    	; 0x38d6 <ExecuteCommand+0x6a8>
    3818:	11 30       	cpi	r17, 0x01	; 1
    381a:	41 f4       	brne	.+16     	; 0x382c <ExecuteCommand+0x5fe>
    381c:	68 2e       	mov	r6, r24
    381e:	10 92 f2 20 	sts	0x20F2, r1
    3822:	10 92 f3 20 	sts	0x20F3, r1
    3826:	ce 01       	movw	r24, r28
    3828:	12 e0       	ldi	r17, 0x02	; 2
    382a:	55 c0       	rjmp	.+170    	; 0x38d6 <ExecuteCommand+0x6a8>
    382c:	12 30       	cpi	r17, 0x02	; 2
    382e:	41 f4       	brne	.+16     	; 0x3840 <ExecuteCommand+0x612>
    3830:	78 2e       	mov	r7, r24
    3832:	10 92 f2 20 	sts	0x20F2, r1
    3836:	10 92 f3 20 	sts	0x20F3, r1
    383a:	ce 01       	movw	r24, r28
    383c:	13 e0       	ldi	r17, 0x03	; 3
    383e:	4b c0       	rjmp	.+150    	; 0x38d6 <ExecuteCommand+0x6a8>
    3840:	13 30       	cpi	r17, 0x03	; 3
    3842:	41 f4       	brne	.+16     	; 0x3854 <ExecuteCommand+0x626>
    3844:	08 2f       	mov	r16, r24
    3846:	10 92 f2 20 	sts	0x20F2, r1
    384a:	10 92 f3 20 	sts	0x20F3, r1
    384e:	ce 01       	movw	r24, r28
    3850:	14 e0       	ldi	r17, 0x04	; 4
    3852:	41 c0       	rjmp	.+130    	; 0x38d6 <ExecuteCommand+0x6a8>
    3854:	14 30       	cpi	r17, 0x04	; 4
    3856:	41 f4       	brne	.+16     	; 0x3868 <ExecuteCommand+0x63a>
    3858:	10 92 f2 20 	sts	0x20F2, r1
    385c:	10 92 f3 20 	sts	0x20F3, r1
    3860:	5c 01       	movw	r10, r24
    3862:	ce 01       	movw	r24, r28
    3864:	15 e0       	ldi	r17, 0x05	; 5
    3866:	37 c0       	rjmp	.+110    	; 0x38d6 <ExecuteCommand+0x6a8>
    3868:	15 30       	cpi	r17, 0x05	; 5
    386a:	41 f4       	brne	.+16     	; 0x387c <ExecuteCommand+0x64e>
    386c:	10 92 f2 20 	sts	0x20F2, r1
    3870:	10 92 f3 20 	sts	0x20F3, r1
    3874:	7c 01       	movw	r14, r24
    3876:	ce 01       	movw	r24, r28
    3878:	16 e0       	ldi	r17, 0x06	; 6
    387a:	2d c0       	rjmp	.+90     	; 0x38d6 <ExecuteCommand+0x6a8>
    387c:	16 30       	cpi	r17, 0x06	; 6
    387e:	41 f4       	brne	.+16     	; 0x3890 <ExecuteCommand+0x662>
    3880:	10 92 f2 20 	sts	0x20F2, r1
    3884:	10 92 f3 20 	sts	0x20F3, r1
    3888:	6c 01       	movw	r12, r24
    388a:	ce 01       	movw	r24, r28
    388c:	17 e0       	ldi	r17, 0x07	; 7
    388e:	23 c0       	rjmp	.+70     	; 0x38d6 <ExecuteCommand+0x6a8>
    3890:	17 30       	cpi	r17, 0x07	; 7
    3892:	31 f4       	brne	.+12     	; 0x38a0 <ExecuteCommand+0x672>
    3894:	10 92 f2 20 	sts	0x20F2, r1
    3898:	10 92 f3 20 	sts	0x20F3, r1
    389c:	18 e0       	ldi	r17, 0x08	; 8
    389e:	1b c0       	rjmp	.+54     	; 0x38d6 <ExecuteCommand+0x6a8>
    38a0:	18 30       	cpi	r17, 0x08	; 8
    38a2:	c1 f4       	brne	.+48     	; 0x38d4 <ExecuteCommand+0x6a6>
    38a4:	4c 01       	movw	r8, r24
    38a6:	08 94       	sec
    38a8:	81 08       	sbc	r8, r1
    38aa:	91 08       	sbc	r9, r1
    38ac:	10 92 f2 20 	sts	0x20F2, r1
    38b0:	10 92 f3 20 	sts	0x20F3, r1
    38b4:	0e 94 41 2a 	call	0x5482	; 0x5482 <LcdClear>
    38b8:	b4 01       	movw	r22, r8
    38ba:	80 e0       	ldi	r24, 0x00	; 0
    38bc:	90 e0       	ldi	r25, 0x00	; 0
    38be:	0e 94 a1 2a 	call	0x5542	; 0x5542 <LcdDec>
    38c2:	85 2d       	mov	r24, r5
    38c4:	66 2d       	mov	r22, r6
    38c6:	47 2d       	mov	r20, r7
    38c8:	20 2f       	mov	r18, r16
    38ca:	85 01       	movw	r16, r10
    38cc:	5e 01       	movw	r10, r28
    38ce:	0e 94 22 10 	call	0x2044	; 0x2044 <PIDParameters>
    38d2:	03 c0       	rjmp	.+6      	; 0x38da <ExecuteCommand+0x6ac>
    38d4:	ce 01       	movw	r24, r28
    38d6:	ec 01       	movw	r28, r24
    38d8:	8b cf       	rjmp	.-234    	; 0x37f0 <ExecuteCommand+0x5c2>
    38da:	80 91 f2 20 	lds	r24, 0x20F2
    38de:	90 91 f3 20 	lds	r25, 0x20F3
    38e2:	8d 56       	subi	r24, 0x6D	; 109
    38e4:	9f 4b       	sbci	r25, 0xBF	; 191
    38e6:	31 f4       	brne	.+12     	; 0x38f4 <ExecuteCommand+0x6c6>
    38e8:	0e 94 63 15 	call	0x2ac6	; 0x2ac6 <Calibration>
    38ec:	10 92 f2 20 	sts	0x20F2, r1
    38f0:	10 92 f3 20 	sts	0x20F3, r1
    38f4:	80 91 f2 20 	lds	r24, 0x20F2
    38f8:	90 91 f3 20 	lds	r25, 0x20F3
    38fc:	8f 56       	subi	r24, 0x6F	; 111
    38fe:	9f 4b       	sbci	r25, 0xBF	; 191
    3900:	61 f4       	brne	.+24     	; 0x391a <ExecuteCommand+0x6ec>
    3902:	60 91 24 26 	lds	r22, 0x2624
    3906:	70 91 25 26 	lds	r23, 0x2625
    390a:	80 eb       	ldi	r24, 0xB0	; 176
    390c:	98 e0       	ldi	r25, 0x08	; 8
    390e:	0e 94 d8 2e 	call	0x5db0	; 0x5db0 <USART_send_int>
    3912:	10 92 f2 20 	sts	0x20F2, r1
    3916:	10 92 f3 20 	sts	0x20F3, r1
    391a:	80 91 f2 20 	lds	r24, 0x20F2
    391e:	90 91 f3 20 	lds	r25, 0x20F3
    3922:	80 57       	subi	r24, 0x70	; 112
    3924:	9f 4b       	sbci	r25, 0xBF	; 191
    3926:	61 f4       	brne	.+24     	; 0x3940 <ExecuteCommand+0x712>
    3928:	60 91 26 26 	lds	r22, 0x2626
    392c:	70 91 27 26 	lds	r23, 0x2627
    3930:	80 eb       	ldi	r24, 0xB0	; 176
    3932:	98 e0       	ldi	r25, 0x08	; 8
    3934:	0e 94 d8 2e 	call	0x5db0	; 0x5db0 <USART_send_int>
    3938:	10 92 f2 20 	sts	0x20F2, r1
    393c:	10 92 f3 20 	sts	0x20F3, r1
    3940:	80 91 f2 20 	lds	r24, 0x20F2
    3944:	90 91 f3 20 	lds	r25, 0x20F3
    3948:	81 57       	subi	r24, 0x71	; 113
    394a:	9f 4b       	sbci	r25, 0xBF	; 191
    394c:	61 f4       	brne	.+24     	; 0x3966 <ExecuteCommand+0x738>
    394e:	60 91 28 26 	lds	r22, 0x2628
    3952:	70 91 29 26 	lds	r23, 0x2629
    3956:	80 eb       	ldi	r24, 0xB0	; 176
    3958:	98 e0       	ldi	r25, 0x08	; 8
    395a:	0e 94 d8 2e 	call	0x5db0	; 0x5db0 <USART_send_int>
    395e:	10 92 f2 20 	sts	0x20F2, r1
    3962:	10 92 f3 20 	sts	0x20F3, r1
    3966:	80 91 f2 20 	lds	r24, 0x20F2
    396a:	90 91 f3 20 	lds	r25, 0x20F3
    396e:	82 57       	subi	r24, 0x72	; 114
    3970:	9f 4b       	sbci	r25, 0xBF	; 191
    3972:	61 f4       	brne	.+24     	; 0x398c <ExecuteCommand+0x75e>
    3974:	60 91 22 26 	lds	r22, 0x2622
    3978:	70 91 23 26 	lds	r23, 0x2623
    397c:	80 eb       	ldi	r24, 0xB0	; 176
    397e:	98 e0       	ldi	r25, 0x08	; 8
    3980:	0e 94 d8 2e 	call	0x5db0	; 0x5db0 <USART_send_int>
    3984:	10 92 f2 20 	sts	0x20F2, r1
    3988:	10 92 f3 20 	sts	0x20F3, r1
    398c:	80 91 f2 20 	lds	r24, 0x20F2
    3990:	90 91 f3 20 	lds	r25, 0x20F3
    3994:	83 57       	subi	r24, 0x73	; 115
    3996:	9f 4b       	sbci	r25, 0xBF	; 191
    3998:	61 f4       	brne	.+24     	; 0x39b2 <ExecuteCommand+0x784>
    399a:	60 91 2c 26 	lds	r22, 0x262C
    399e:	70 91 2d 26 	lds	r23, 0x262D
    39a2:	80 eb       	ldi	r24, 0xB0	; 176
    39a4:	98 e0       	ldi	r25, 0x08	; 8
    39a6:	0e 94 d8 2e 	call	0x5db0	; 0x5db0 <USART_send_int>
    39aa:	10 92 f2 20 	sts	0x20F2, r1
    39ae:	10 92 f3 20 	sts	0x20F3, r1
    39b2:	80 91 f2 20 	lds	r24, 0x20F2
    39b6:	90 91 f3 20 	lds	r25, 0x20F3
    39ba:	84 57       	subi	r24, 0x74	; 116
    39bc:	9f 4b       	sbci	r25, 0xBF	; 191
    39be:	61 f4       	brne	.+24     	; 0x39d8 <ExecuteCommand+0x7aa>
    39c0:	60 91 2e 26 	lds	r22, 0x262E
    39c4:	70 91 2f 26 	lds	r23, 0x262F
    39c8:	80 eb       	ldi	r24, 0xB0	; 176
    39ca:	98 e0       	ldi	r25, 0x08	; 8
    39cc:	0e 94 d8 2e 	call	0x5db0	; 0x5db0 <USART_send_int>
    39d0:	10 92 f2 20 	sts	0x20F2, r1
    39d4:	10 92 f3 20 	sts	0x20F3, r1
    39d8:	80 91 f2 20 	lds	r24, 0x20F2
    39dc:	90 91 f3 20 	lds	r25, 0x20F3
    39e0:	8e 57       	subi	r24, 0x7E	; 126
    39e2:	9f 4b       	sbci	r25, 0xBF	; 191
    39e4:	09 f0       	breq	.+2      	; 0x39e8 <ExecuteCommand+0x7ba>
    39e6:	9c c0       	rjmp	.+312    	; 0x3b20 <ExecuteCommand+0x8f2>
    39e8:	60 91 24 26 	lds	r22, 0x2624
    39ec:	70 91 25 26 	lds	r23, 0x2625
    39f0:	80 eb       	ldi	r24, 0xB0	; 176
    39f2:	98 e0       	ldi	r25, 0x08	; 8
    39f4:	0e 94 d8 2e 	call	0x5db0	; 0x5db0 <USART_send_int>
    39f8:	20 91 4d 21 	lds	r18, 0x214D
    39fc:	30 91 4e 21 	lds	r19, 0x214E
    3a00:	40 91 4f 21 	lds	r20, 0x214F
    3a04:	50 91 50 21 	lds	r21, 0x2150
    3a08:	80 eb       	ldi	r24, 0xB0	; 176
    3a0a:	98 e0       	ldi	r25, 0x08	; 8
    3a0c:	b9 01       	movw	r22, r18
    3a0e:	0e 94 d8 2e 	call	0x5db0	; 0x5db0 <USART_send_int>
    3a12:	60 91 26 26 	lds	r22, 0x2626
    3a16:	70 91 27 26 	lds	r23, 0x2627
    3a1a:	80 eb       	ldi	r24, 0xB0	; 176
    3a1c:	98 e0       	ldi	r25, 0x08	; 8
    3a1e:	0e 94 d8 2e 	call	0x5db0	; 0x5db0 <USART_send_int>
    3a22:	20 91 af 21 	lds	r18, 0x21AF
    3a26:	30 91 b0 21 	lds	r19, 0x21B0
    3a2a:	40 91 b1 21 	lds	r20, 0x21B1
    3a2e:	50 91 b2 21 	lds	r21, 0x21B2
    3a32:	80 eb       	ldi	r24, 0xB0	; 176
    3a34:	98 e0       	ldi	r25, 0x08	; 8
    3a36:	b9 01       	movw	r22, r18
    3a38:	0e 94 d8 2e 	call	0x5db0	; 0x5db0 <USART_send_int>
    3a3c:	60 91 28 26 	lds	r22, 0x2628
    3a40:	70 91 29 26 	lds	r23, 0x2629
    3a44:	80 eb       	ldi	r24, 0xB0	; 176
    3a46:	98 e0       	ldi	r25, 0x08	; 8
    3a48:	0e 94 d8 2e 	call	0x5db0	; 0x5db0 <USART_send_int>
    3a4c:	20 91 11 22 	lds	r18, 0x2211
    3a50:	30 91 12 22 	lds	r19, 0x2212
    3a54:	40 91 13 22 	lds	r20, 0x2213
    3a58:	50 91 14 22 	lds	r21, 0x2214
    3a5c:	80 eb       	ldi	r24, 0xB0	; 176
    3a5e:	98 e0       	ldi	r25, 0x08	; 8
    3a60:	b9 01       	movw	r22, r18
    3a62:	0e 94 d8 2e 	call	0x5db0	; 0x5db0 <USART_send_int>
    3a66:	60 91 22 26 	lds	r22, 0x2622
    3a6a:	70 91 23 26 	lds	r23, 0x2623
    3a6e:	80 eb       	ldi	r24, 0xB0	; 176
    3a70:	98 e0       	ldi	r25, 0x08	; 8
    3a72:	0e 94 d8 2e 	call	0x5db0	; 0x5db0 <USART_send_int>
    3a76:	20 91 73 22 	lds	r18, 0x2273
    3a7a:	30 91 74 22 	lds	r19, 0x2274
    3a7e:	40 91 75 22 	lds	r20, 0x2275
    3a82:	50 91 76 22 	lds	r21, 0x2276
    3a86:	80 eb       	ldi	r24, 0xB0	; 176
    3a88:	98 e0       	ldi	r25, 0x08	; 8
    3a8a:	b9 01       	movw	r22, r18
    3a8c:	0e 94 d8 2e 	call	0x5db0	; 0x5db0 <USART_send_int>
    3a90:	60 91 2c 26 	lds	r22, 0x262C
    3a94:	70 91 2d 26 	lds	r23, 0x262D
    3a98:	80 eb       	ldi	r24, 0xB0	; 176
    3a9a:	98 e0       	ldi	r25, 0x08	; 8
    3a9c:	0e 94 d8 2e 	call	0x5db0	; 0x5db0 <USART_send_int>
    3aa0:	20 91 d5 22 	lds	r18, 0x22D5
    3aa4:	30 91 d6 22 	lds	r19, 0x22D6
    3aa8:	40 91 d7 22 	lds	r20, 0x22D7
    3aac:	50 91 d8 22 	lds	r21, 0x22D8
    3ab0:	80 eb       	ldi	r24, 0xB0	; 176
    3ab2:	98 e0       	ldi	r25, 0x08	; 8
    3ab4:	b9 01       	movw	r22, r18
    3ab6:	0e 94 d8 2e 	call	0x5db0	; 0x5db0 <USART_send_int>
    3aba:	60 91 2e 26 	lds	r22, 0x262E
    3abe:	70 91 2f 26 	lds	r23, 0x262F
    3ac2:	80 eb       	ldi	r24, 0xB0	; 176
    3ac4:	98 e0       	ldi	r25, 0x08	; 8
    3ac6:	0e 94 d8 2e 	call	0x5db0	; 0x5db0 <USART_send_int>
    3aca:	20 91 37 23 	lds	r18, 0x2337
    3ace:	30 91 38 23 	lds	r19, 0x2338
    3ad2:	40 91 39 23 	lds	r20, 0x2339
    3ad6:	50 91 3a 23 	lds	r21, 0x233A
    3ada:	80 eb       	ldi	r24, 0xB0	; 176
    3adc:	98 e0       	ldi	r25, 0x08	; 8
    3ade:	b9 01       	movw	r22, r18
    3ae0:	0e 94 d8 2e 	call	0x5db0	; 0x5db0 <USART_send_int>
    3ae4:	80 eb       	ldi	r24, 0xB0	; 176
    3ae6:	98 e0       	ldi	r25, 0x08	; 8
    3ae8:	61 e0       	ldi	r22, 0x01	; 1
    3aea:	70 e0       	ldi	r23, 0x00	; 0
    3aec:	0e 94 d8 2e 	call	0x5db0	; 0x5db0 <USART_send_int>
    3af0:	60 91 3c 0b 	lds	r22, 0x0B3C
    3af4:	70 91 3d 0b 	lds	r23, 0x0B3D
    3af8:	80 eb       	ldi	r24, 0xB0	; 176
    3afa:	98 e0       	ldi	r25, 0x08	; 8
    3afc:	0e 94 d8 2e 	call	0x5db0	; 0x5db0 <USART_send_int>
    3b00:	80 eb       	ldi	r24, 0xB0	; 176
    3b02:	98 e0       	ldi	r25, 0x08	; 8
    3b04:	62 e0       	ldi	r22, 0x02	; 2
    3b06:	70 e0       	ldi	r23, 0x00	; 0
    3b08:	0e 94 d8 2e 	call	0x5db0	; 0x5db0 <USART_send_int>
    3b0c:	80 eb       	ldi	r24, 0xB0	; 176
    3b0e:	98 e0       	ldi	r25, 0x08	; 8
    3b10:	6b e0       	ldi	r22, 0x0B	; 11
    3b12:	70 e0       	ldi	r23, 0x00	; 0
    3b14:	0e 94 d8 2e 	call	0x5db0	; 0x5db0 <USART_send_int>
    3b18:	10 92 f2 20 	sts	0x20F2, r1
    3b1c:	10 92 f3 20 	sts	0x20F3, r1
    3b20:	80 91 f2 20 	lds	r24, 0x20F2
    3b24:	90 91 f3 20 	lds	r25, 0x20F3
    3b28:	85 57       	subi	r24, 0x75	; 117
    3b2a:	9f 4b       	sbci	r25, 0xBF	; 191
    3b2c:	09 f0       	breq	.+2      	; 0x3b30 <ExecuteCommand+0x902>
    3b2e:	4f c2       	rjmp	.+1182   	; 0x3fce <ExecuteCommand+0xda0>
    3b30:	10 92 4d 23 	sts	0x234D, r1
    3b34:	10 92 4f 23 	sts	0x234F, r1
    3b38:	10 92 f2 20 	sts	0x20F2, r1
    3b3c:	10 92 f3 20 	sts	0x20F3, r1
    3b40:	68 e0       	ldi	r22, 0x08	; 8
    3b42:	a6 2e       	mov	r10, r22
    3b44:	57 e0       	ldi	r21, 0x07	; 7
    3b46:	e5 2e       	mov	r14, r21
    3b48:	46 e0       	ldi	r20, 0x06	; 6
    3b4a:	d4 2e       	mov	r13, r20
    3b4c:	35 e0       	ldi	r19, 0x05	; 5
    3b4e:	c3 2e       	mov	r12, r19
    3b50:	24 e0       	ldi	r18, 0x04	; 4
    3b52:	b2 2e       	mov	r11, r18
    3b54:	13 e0       	ldi	r17, 0x03	; 3
    3b56:	02 e0       	ldi	r16, 0x02	; 2
    3b58:	ff 24       	eor	r15, r15
    3b5a:	f3 94       	inc	r15
    3b5c:	20 91 f2 20 	lds	r18, 0x20F2
    3b60:	30 91 f3 20 	lds	r19, 0x20F3
    3b64:	21 15       	cp	r18, r1
    3b66:	31 05       	cpc	r19, r1
    3b68:	09 f4       	brne	.+2      	; 0x3b6c <ExecuteCommand+0x93e>
    3b6a:	12 c1       	rjmp	.+548    	; 0x3d90 <ExecuteCommand+0xb62>
    3b6c:	80 91 4d 23 	lds	r24, 0x234D
    3b70:	88 23       	and	r24, r24
    3b72:	79 f4       	brne	.+30     	; 0x3b92 <ExecuteCommand+0x964>
    3b74:	e0 91 4f 23 	lds	r30, 0x234F
    3b78:	f0 e0       	ldi	r31, 0x00	; 0
    3b7a:	95 e0       	ldi	r25, 0x05	; 5
    3b7c:	ee 0f       	add	r30, r30
    3b7e:	ff 1f       	adc	r31, r31
    3b80:	9a 95       	dec	r25
    3b82:	e1 f7       	brne	.-8      	; 0x3b7c <ExecuteCommand+0x94e>
    3b84:	e0 5b       	subi	r30, 0xB0	; 176
    3b86:	fc 4d       	sbci	r31, 0xDC	; 220
    3b88:	20 83       	st	Z, r18
    3b8a:	31 83       	std	Z+1, r19	; 0x01
    3b8c:	f0 92 4d 23 	sts	0x234D, r15
    3b90:	fb c0       	rjmp	.+502    	; 0x3d88 <ExecuteCommand+0xb5a>
    3b92:	81 30       	cpi	r24, 0x01	; 1
    3b94:	79 f4       	brne	.+30     	; 0x3bb4 <ExecuteCommand+0x986>
    3b96:	e0 91 4f 23 	lds	r30, 0x234F
    3b9a:	f0 e0       	ldi	r31, 0x00	; 0
    3b9c:	85 e0       	ldi	r24, 0x05	; 5
    3b9e:	ee 0f       	add	r30, r30
    3ba0:	ff 1f       	adc	r31, r31
    3ba2:	8a 95       	dec	r24
    3ba4:	e1 f7       	brne	.-8      	; 0x3b9e <ExecuteCommand+0x970>
    3ba6:	ee 5a       	subi	r30, 0xAE	; 174
    3ba8:	fc 4d       	sbci	r31, 0xDC	; 220
    3baa:	20 83       	st	Z, r18
    3bac:	31 83       	std	Z+1, r19	; 0x01
    3bae:	00 93 4d 23 	sts	0x234D, r16
    3bb2:	ea c0       	rjmp	.+468    	; 0x3d88 <ExecuteCommand+0xb5a>
    3bb4:	82 30       	cpi	r24, 0x02	; 2
    3bb6:	79 f4       	brne	.+30     	; 0x3bd6 <ExecuteCommand+0x9a8>
    3bb8:	e0 91 4f 23 	lds	r30, 0x234F
    3bbc:	f0 e0       	ldi	r31, 0x00	; 0
    3bbe:	b5 e0       	ldi	r27, 0x05	; 5
    3bc0:	ee 0f       	add	r30, r30
    3bc2:	ff 1f       	adc	r31, r31
    3bc4:	ba 95       	dec	r27
    3bc6:	e1 f7       	brne	.-8      	; 0x3bc0 <ExecuteCommand+0x992>
    3bc8:	ec 5a       	subi	r30, 0xAC	; 172
    3bca:	fc 4d       	sbci	r31, 0xDC	; 220
    3bcc:	20 83       	st	Z, r18
    3bce:	31 83       	std	Z+1, r19	; 0x01
    3bd0:	10 93 4d 23 	sts	0x234D, r17
    3bd4:	d9 c0       	rjmp	.+434    	; 0x3d88 <ExecuteCommand+0xb5a>
    3bd6:	83 30       	cpi	r24, 0x03	; 3
    3bd8:	79 f4       	brne	.+30     	; 0x3bf8 <ExecuteCommand+0x9ca>
    3bda:	e0 91 4f 23 	lds	r30, 0x234F
    3bde:	f0 e0       	ldi	r31, 0x00	; 0
    3be0:	a5 e0       	ldi	r26, 0x05	; 5
    3be2:	ee 0f       	add	r30, r30
    3be4:	ff 1f       	adc	r31, r31
    3be6:	aa 95       	dec	r26
    3be8:	e1 f7       	brne	.-8      	; 0x3be2 <ExecuteCommand+0x9b4>
    3bea:	e0 5b       	subi	r30, 0xB0	; 176
    3bec:	fc 4d       	sbci	r31, 0xDC	; 220
    3bee:	26 83       	std	Z+6, r18	; 0x06
    3bf0:	37 83       	std	Z+7, r19	; 0x07
    3bf2:	b0 92 4d 23 	sts	0x234D, r11
    3bf6:	c8 c0       	rjmp	.+400    	; 0x3d88 <ExecuteCommand+0xb5a>
    3bf8:	84 30       	cpi	r24, 0x04	; 4
    3bfa:	79 f4       	brne	.+30     	; 0x3c1a <ExecuteCommand+0x9ec>
    3bfc:	e0 91 4f 23 	lds	r30, 0x234F
    3c00:	f0 e0       	ldi	r31, 0x00	; 0
    3c02:	75 e0       	ldi	r23, 0x05	; 5
    3c04:	ee 0f       	add	r30, r30
    3c06:	ff 1f       	adc	r31, r31
    3c08:	7a 95       	dec	r23
    3c0a:	e1 f7       	brne	.-8      	; 0x3c04 <ExecuteCommand+0x9d6>
    3c0c:	e8 5a       	subi	r30, 0xA8	; 168
    3c0e:	fc 4d       	sbci	r31, 0xDC	; 220
    3c10:	20 83       	st	Z, r18
    3c12:	31 83       	std	Z+1, r19	; 0x01
    3c14:	c0 92 4d 23 	sts	0x234D, r12
    3c18:	b7 c0       	rjmp	.+366    	; 0x3d88 <ExecuteCommand+0xb5a>
    3c1a:	85 30       	cpi	r24, 0x05	; 5
    3c1c:	79 f4       	brne	.+30     	; 0x3c3c <ExecuteCommand+0xa0e>
    3c1e:	e0 91 4f 23 	lds	r30, 0x234F
    3c22:	f0 e0       	ldi	r31, 0x00	; 0
    3c24:	65 e0       	ldi	r22, 0x05	; 5
    3c26:	ee 0f       	add	r30, r30
    3c28:	ff 1f       	adc	r31, r31
    3c2a:	6a 95       	dec	r22
    3c2c:	e1 f7       	brne	.-8      	; 0x3c26 <ExecuteCommand+0x9f8>
    3c2e:	e0 5b       	subi	r30, 0xB0	; 176
    3c30:	fc 4d       	sbci	r31, 0xDC	; 220
    3c32:	22 87       	std	Z+10, r18	; 0x0a
    3c34:	33 87       	std	Z+11, r19	; 0x0b
    3c36:	d0 92 4d 23 	sts	0x234D, r13
    3c3a:	a6 c0       	rjmp	.+332    	; 0x3d88 <ExecuteCommand+0xb5a>
    3c3c:	86 30       	cpi	r24, 0x06	; 6
    3c3e:	79 f4       	brne	.+30     	; 0x3c5e <ExecuteCommand+0xa30>
    3c40:	e0 91 4f 23 	lds	r30, 0x234F
    3c44:	f0 e0       	ldi	r31, 0x00	; 0
    3c46:	55 e0       	ldi	r21, 0x05	; 5
    3c48:	ee 0f       	add	r30, r30
    3c4a:	ff 1f       	adc	r31, r31
    3c4c:	5a 95       	dec	r21
    3c4e:	e1 f7       	brne	.-8      	; 0x3c48 <ExecuteCommand+0xa1a>
    3c50:	e0 5b       	subi	r30, 0xB0	; 176
    3c52:	fc 4d       	sbci	r31, 0xDC	; 220
    3c54:	24 87       	std	Z+12, r18	; 0x0c
    3c56:	35 87       	std	Z+13, r19	; 0x0d
    3c58:	e0 92 4d 23 	sts	0x234D, r14
    3c5c:	95 c0       	rjmp	.+298    	; 0x3d88 <ExecuteCommand+0xb5a>
    3c5e:	87 30       	cpi	r24, 0x07	; 7
    3c60:	79 f4       	brne	.+30     	; 0x3c80 <ExecuteCommand+0xa52>
    3c62:	e0 91 4f 23 	lds	r30, 0x234F
    3c66:	f0 e0       	ldi	r31, 0x00	; 0
    3c68:	45 e0       	ldi	r20, 0x05	; 5
    3c6a:	ee 0f       	add	r30, r30
    3c6c:	ff 1f       	adc	r31, r31
    3c6e:	4a 95       	dec	r20
    3c70:	e1 f7       	brne	.-8      	; 0x3c6a <ExecuteCommand+0xa3c>
    3c72:	e0 5b       	subi	r30, 0xB0	; 176
    3c74:	fc 4d       	sbci	r31, 0xDC	; 220
    3c76:	26 87       	std	Z+14, r18	; 0x0e
    3c78:	37 87       	std	Z+15, r19	; 0x0f
    3c7a:	a0 92 4d 23 	sts	0x234D, r10
    3c7e:	84 c0       	rjmp	.+264    	; 0x3d88 <ExecuteCommand+0xb5a>
    3c80:	88 30       	cpi	r24, 0x08	; 8
    3c82:	69 f4       	brne	.+26     	; 0x3c9e <ExecuteCommand+0xa70>
    3c84:	e0 91 4f 23 	lds	r30, 0x234F
    3c88:	f0 e0       	ldi	r31, 0x00	; 0
    3c8a:	95 e0       	ldi	r25, 0x05	; 5
    3c8c:	ee 0f       	add	r30, r30
    3c8e:	ff 1f       	adc	r31, r31
    3c90:	9a 95       	dec	r25
    3c92:	e1 f7       	brne	.-8      	; 0x3c8c <ExecuteCommand+0xa5e>
    3c94:	e0 5a       	subi	r30, 0xA0	; 160
    3c96:	fc 4d       	sbci	r31, 0xDC	; 220
    3c98:	20 83       	st	Z, r18
    3c9a:	31 83       	std	Z+1, r19	; 0x01
    3c9c:	59 c0       	rjmp	.+178    	; 0x3d50 <ExecuteCommand+0xb22>
    3c9e:	89 30       	cpi	r24, 0x09	; 9
    3ca0:	69 f4       	brne	.+26     	; 0x3cbc <ExecuteCommand+0xa8e>
    3ca2:	e0 91 4f 23 	lds	r30, 0x234F
    3ca6:	f0 e0       	ldi	r31, 0x00	; 0
    3ca8:	85 e0       	ldi	r24, 0x05	; 5
    3caa:	ee 0f       	add	r30, r30
    3cac:	ff 1f       	adc	r31, r31
    3cae:	8a 95       	dec	r24
    3cb0:	e1 f7       	brne	.-8      	; 0x3caa <ExecuteCommand+0xa7c>
    3cb2:	e0 5b       	subi	r30, 0xB0	; 176
    3cb4:	fc 4d       	sbci	r31, 0xDC	; 220
    3cb6:	22 8b       	std	Z+18, r18	; 0x12
    3cb8:	33 8b       	std	Z+19, r19	; 0x13
    3cba:	4a c0       	rjmp	.+148    	; 0x3d50 <ExecuteCommand+0xb22>
    3cbc:	8a 30       	cpi	r24, 0x0A	; 10
    3cbe:	69 f4       	brne	.+26     	; 0x3cda <ExecuteCommand+0xaac>
    3cc0:	e0 91 4f 23 	lds	r30, 0x234F
    3cc4:	f0 e0       	ldi	r31, 0x00	; 0
    3cc6:	b5 e0       	ldi	r27, 0x05	; 5
    3cc8:	ee 0f       	add	r30, r30
    3cca:	ff 1f       	adc	r31, r31
    3ccc:	ba 95       	dec	r27
    3cce:	e1 f7       	brne	.-8      	; 0x3cc8 <ExecuteCommand+0xa9a>
    3cd0:	e0 5b       	subi	r30, 0xB0	; 176
    3cd2:	fc 4d       	sbci	r31, 0xDC	; 220
    3cd4:	24 8b       	std	Z+20, r18	; 0x14
    3cd6:	35 8b       	std	Z+21, r19	; 0x15
    3cd8:	3b c0       	rjmp	.+118    	; 0x3d50 <ExecuteCommand+0xb22>
    3cda:	8b 30       	cpi	r24, 0x0B	; 11
    3cdc:	69 f4       	brne	.+26     	; 0x3cf8 <ExecuteCommand+0xaca>
    3cde:	e0 91 4f 23 	lds	r30, 0x234F
    3ce2:	f0 e0       	ldi	r31, 0x00	; 0
    3ce4:	a5 e0       	ldi	r26, 0x05	; 5
    3ce6:	ee 0f       	add	r30, r30
    3ce8:	ff 1f       	adc	r31, r31
    3cea:	aa 95       	dec	r26
    3cec:	e1 f7       	brne	.-8      	; 0x3ce6 <ExecuteCommand+0xab8>
    3cee:	e0 5b       	subi	r30, 0xB0	; 176
    3cf0:	fc 4d       	sbci	r31, 0xDC	; 220
    3cf2:	26 8b       	std	Z+22, r18	; 0x16
    3cf4:	37 8b       	std	Z+23, r19	; 0x17
    3cf6:	2c c0       	rjmp	.+88     	; 0x3d50 <ExecuteCommand+0xb22>
    3cf8:	8c 30       	cpi	r24, 0x0C	; 12
    3cfa:	69 f4       	brne	.+26     	; 0x3d16 <ExecuteCommand+0xae8>
    3cfc:	e0 91 4f 23 	lds	r30, 0x234F
    3d00:	f0 e0       	ldi	r31, 0x00	; 0
    3d02:	75 e0       	ldi	r23, 0x05	; 5
    3d04:	ee 0f       	add	r30, r30
    3d06:	ff 1f       	adc	r31, r31
    3d08:	7a 95       	dec	r23
    3d0a:	e1 f7       	brne	.-8      	; 0x3d04 <ExecuteCommand+0xad6>
    3d0c:	e0 5b       	subi	r30, 0xB0	; 176
    3d0e:	fc 4d       	sbci	r31, 0xDC	; 220
    3d10:	20 8f       	std	Z+24, r18	; 0x18
    3d12:	31 8f       	std	Z+25, r19	; 0x19
    3d14:	1d c0       	rjmp	.+58     	; 0x3d50 <ExecuteCommand+0xb22>
    3d16:	8d 30       	cpi	r24, 0x0D	; 13
    3d18:	69 f4       	brne	.+26     	; 0x3d34 <ExecuteCommand+0xb06>
    3d1a:	e0 91 4f 23 	lds	r30, 0x234F
    3d1e:	f0 e0       	ldi	r31, 0x00	; 0
    3d20:	65 e0       	ldi	r22, 0x05	; 5
    3d22:	ee 0f       	add	r30, r30
    3d24:	ff 1f       	adc	r31, r31
    3d26:	6a 95       	dec	r22
    3d28:	e1 f7       	brne	.-8      	; 0x3d22 <ExecuteCommand+0xaf4>
    3d2a:	e0 5b       	subi	r30, 0xB0	; 176
    3d2c:	fc 4d       	sbci	r31, 0xDC	; 220
    3d2e:	22 8f       	std	Z+26, r18	; 0x1a
    3d30:	33 8f       	std	Z+27, r19	; 0x1b
    3d32:	0e c0       	rjmp	.+28     	; 0x3d50 <ExecuteCommand+0xb22>
    3d34:	8e 30       	cpi	r24, 0x0E	; 14
    3d36:	91 f4       	brne	.+36     	; 0x3d5c <ExecuteCommand+0xb2e>
    3d38:	e0 91 4f 23 	lds	r30, 0x234F
    3d3c:	f0 e0       	ldi	r31, 0x00	; 0
    3d3e:	55 e0       	ldi	r21, 0x05	; 5
    3d40:	ee 0f       	add	r30, r30
    3d42:	ff 1f       	adc	r31, r31
    3d44:	5a 95       	dec	r21
    3d46:	e1 f7       	brne	.-8      	; 0x3d40 <ExecuteCommand+0xb12>
    3d48:	e0 5b       	subi	r30, 0xB0	; 176
    3d4a:	fc 4d       	sbci	r31, 0xDC	; 220
    3d4c:	24 8f       	std	Z+28, r18	; 0x1c
    3d4e:	35 8f       	std	Z+29, r19	; 0x1d
    3d50:	80 91 4d 23 	lds	r24, 0x234D
    3d54:	8f 5f       	subi	r24, 0xFF	; 255
    3d56:	80 93 4d 23 	sts	0x234D, r24
    3d5a:	16 c0       	rjmp	.+44     	; 0x3d88 <ExecuteCommand+0xb5a>
    3d5c:	8f 30       	cpi	r24, 0x0F	; 15
    3d5e:	c1 f4       	brne	.+48     	; 0x3d90 <ExecuteCommand+0xb62>
    3d60:	80 91 4f 23 	lds	r24, 0x234F
    3d64:	e8 2f       	mov	r30, r24
    3d66:	f0 e0       	ldi	r31, 0x00	; 0
    3d68:	45 e0       	ldi	r20, 0x05	; 5
    3d6a:	ee 0f       	add	r30, r30
    3d6c:	ff 1f       	adc	r31, r31
    3d6e:	4a 95       	dec	r20
    3d70:	e1 f7       	brne	.-8      	; 0x3d6a <ExecuteCommand+0xb3c>
    3d72:	e0 5b       	subi	r30, 0xB0	; 176
    3d74:	fc 4d       	sbci	r31, 0xDC	; 220
    3d76:	26 8f       	std	Z+30, r18	; 0x1e
    3d78:	37 8f       	std	Z+31, r19	; 0x1f
    3d7a:	10 92 4d 23 	sts	0x234D, r1
    3d7e:	8f 5f       	subi	r24, 0xFF	; 255
    3d80:	80 93 4f 23 	sts	0x234F, r24
    3d84:	80 93 21 26 	sts	0x2621, r24
    3d88:	10 92 f2 20 	sts	0x20F2, r1
    3d8c:	10 92 f3 20 	sts	0x20F3, r1
    3d90:	0e 94 fa 18 	call	0x31f4	; 0x31f4 <GetCommand>
    3d94:	80 93 f2 20 	sts	0x20F2, r24
    3d98:	90 93 f3 20 	sts	0x20F3, r25
    3d9c:	86 57       	subi	r24, 0x76	; 118
    3d9e:	9f 4b       	sbci	r25, 0xBF	; 191
    3da0:	09 f0       	breq	.+2      	; 0x3da4 <ExecuteCommand+0xb76>
    3da2:	dc ce       	rjmp	.-584    	; 0x3b5c <ExecuteCommand+0x92e>
    3da4:	10 92 4d 23 	sts	0x234D, r1
    3da8:	0b c1       	rjmp	.+534    	; 0x3fc0 <ExecuteCommand+0xd92>
    3daa:	80 eb       	ldi	r24, 0xB0	; 176
    3dac:	98 e0       	ldi	r25, 0x08	; 8
    3dae:	67 e6       	ldi	r22, 0x67	; 103
    3db0:	7b e2       	ldi	r23, 0x2B	; 43
    3db2:	0e 94 d8 2e 	call	0x5db0	; 0x5db0 <USART_send_int>
    3db6:	e0 91 4d 23 	lds	r30, 0x234D
    3dba:	f0 e0       	ldi	r31, 0x00	; 0
    3dbc:	25 e0       	ldi	r18, 0x05	; 5
    3dbe:	ee 0f       	add	r30, r30
    3dc0:	ff 1f       	adc	r31, r31
    3dc2:	2a 95       	dec	r18
    3dc4:	e1 f7       	brne	.-8      	; 0x3dbe <ExecuteCommand+0xb90>
    3dc6:	e0 5b       	subi	r30, 0xB0	; 176
    3dc8:	fc 4d       	sbci	r31, 0xDC	; 220
    3dca:	60 81       	ld	r22, Z
    3dcc:	71 81       	ldd	r23, Z+1	; 0x01
    3dce:	80 eb       	ldi	r24, 0xB0	; 176
    3dd0:	98 e0       	ldi	r25, 0x08	; 8
    3dd2:	0e 94 d8 2e 	call	0x5db0	; 0x5db0 <USART_send_int>
    3dd6:	e0 91 4d 23 	lds	r30, 0x234D
    3dda:	f0 e0       	ldi	r31, 0x00	; 0
    3ddc:	95 e0       	ldi	r25, 0x05	; 5
    3dde:	ee 0f       	add	r30, r30
    3de0:	ff 1f       	adc	r31, r31
    3de2:	9a 95       	dec	r25
    3de4:	e1 f7       	brne	.-8      	; 0x3dde <ExecuteCommand+0xbb0>
    3de6:	ee 5a       	subi	r30, 0xAE	; 174
    3de8:	fc 4d       	sbci	r31, 0xDC	; 220
    3dea:	60 81       	ld	r22, Z
    3dec:	71 81       	ldd	r23, Z+1	; 0x01
    3dee:	80 eb       	ldi	r24, 0xB0	; 176
    3df0:	98 e0       	ldi	r25, 0x08	; 8
    3df2:	0e 94 d8 2e 	call	0x5db0	; 0x5db0 <USART_send_int>
    3df6:	e0 91 4d 23 	lds	r30, 0x234D
    3dfa:	f0 e0       	ldi	r31, 0x00	; 0
    3dfc:	85 e0       	ldi	r24, 0x05	; 5
    3dfe:	ee 0f       	add	r30, r30
    3e00:	ff 1f       	adc	r31, r31
    3e02:	8a 95       	dec	r24
    3e04:	e1 f7       	brne	.-8      	; 0x3dfe <ExecuteCommand+0xbd0>
    3e06:	ec 5a       	subi	r30, 0xAC	; 172
    3e08:	fc 4d       	sbci	r31, 0xDC	; 220
    3e0a:	60 81       	ld	r22, Z
    3e0c:	71 81       	ldd	r23, Z+1	; 0x01
    3e0e:	80 eb       	ldi	r24, 0xB0	; 176
    3e10:	98 e0       	ldi	r25, 0x08	; 8
    3e12:	0e 94 d8 2e 	call	0x5db0	; 0x5db0 <USART_send_int>
    3e16:	e0 91 4d 23 	lds	r30, 0x234D
    3e1a:	f0 e0       	ldi	r31, 0x00	; 0
    3e1c:	05 e0       	ldi	r16, 0x05	; 5
    3e1e:	ee 0f       	add	r30, r30
    3e20:	ff 1f       	adc	r31, r31
    3e22:	0a 95       	dec	r16
    3e24:	e1 f7       	brne	.-8      	; 0x3e1e <ExecuteCommand+0xbf0>
    3e26:	e0 5b       	subi	r30, 0xB0	; 176
    3e28:	fc 4d       	sbci	r31, 0xDC	; 220
    3e2a:	66 81       	ldd	r22, Z+6	; 0x06
    3e2c:	77 81       	ldd	r23, Z+7	; 0x07
    3e2e:	80 eb       	ldi	r24, 0xB0	; 176
    3e30:	98 e0       	ldi	r25, 0x08	; 8
    3e32:	0e 94 d8 2e 	call	0x5db0	; 0x5db0 <USART_send_int>
    3e36:	e0 91 4d 23 	lds	r30, 0x234D
    3e3a:	f0 e0       	ldi	r31, 0x00	; 0
    3e3c:	15 e0       	ldi	r17, 0x05	; 5
    3e3e:	ee 0f       	add	r30, r30
    3e40:	ff 1f       	adc	r31, r31
    3e42:	1a 95       	dec	r17
    3e44:	e1 f7       	brne	.-8      	; 0x3e3e <ExecuteCommand+0xc10>
    3e46:	e8 5a       	subi	r30, 0xA8	; 168
    3e48:	fc 4d       	sbci	r31, 0xDC	; 220
    3e4a:	60 81       	ld	r22, Z
    3e4c:	71 81       	ldd	r23, Z+1	; 0x01
    3e4e:	80 eb       	ldi	r24, 0xB0	; 176
    3e50:	98 e0       	ldi	r25, 0x08	; 8
    3e52:	0e 94 d8 2e 	call	0x5db0	; 0x5db0 <USART_send_int>
    3e56:	e0 91 4d 23 	lds	r30, 0x234D
    3e5a:	f0 e0       	ldi	r31, 0x00	; 0
    3e5c:	b5 e0       	ldi	r27, 0x05	; 5
    3e5e:	ee 0f       	add	r30, r30
    3e60:	ff 1f       	adc	r31, r31
    3e62:	ba 95       	dec	r27
    3e64:	e1 f7       	brne	.-8      	; 0x3e5e <ExecuteCommand+0xc30>
    3e66:	e0 5b       	subi	r30, 0xB0	; 176
    3e68:	fc 4d       	sbci	r31, 0xDC	; 220
    3e6a:	62 85       	ldd	r22, Z+10	; 0x0a
    3e6c:	73 85       	ldd	r23, Z+11	; 0x0b
    3e6e:	80 eb       	ldi	r24, 0xB0	; 176
    3e70:	98 e0       	ldi	r25, 0x08	; 8
    3e72:	0e 94 d8 2e 	call	0x5db0	; 0x5db0 <USART_send_int>
    3e76:	e0 91 4d 23 	lds	r30, 0x234D
    3e7a:	f0 e0       	ldi	r31, 0x00	; 0
    3e7c:	a5 e0       	ldi	r26, 0x05	; 5
    3e7e:	ee 0f       	add	r30, r30
    3e80:	ff 1f       	adc	r31, r31
    3e82:	aa 95       	dec	r26
    3e84:	e1 f7       	brne	.-8      	; 0x3e7e <ExecuteCommand+0xc50>
    3e86:	e0 5b       	subi	r30, 0xB0	; 176
    3e88:	fc 4d       	sbci	r31, 0xDC	; 220
    3e8a:	64 85       	ldd	r22, Z+12	; 0x0c
    3e8c:	75 85       	ldd	r23, Z+13	; 0x0d
    3e8e:	80 eb       	ldi	r24, 0xB0	; 176
    3e90:	98 e0       	ldi	r25, 0x08	; 8
    3e92:	0e 94 d8 2e 	call	0x5db0	; 0x5db0 <USART_send_int>
    3e96:	e0 91 4d 23 	lds	r30, 0x234D
    3e9a:	f0 e0       	ldi	r31, 0x00	; 0
    3e9c:	75 e0       	ldi	r23, 0x05	; 5
    3e9e:	ee 0f       	add	r30, r30
    3ea0:	ff 1f       	adc	r31, r31
    3ea2:	7a 95       	dec	r23
    3ea4:	e1 f7       	brne	.-8      	; 0x3e9e <ExecuteCommand+0xc70>
    3ea6:	e0 5b       	subi	r30, 0xB0	; 176
    3ea8:	fc 4d       	sbci	r31, 0xDC	; 220
    3eaa:	66 85       	ldd	r22, Z+14	; 0x0e
    3eac:	77 85       	ldd	r23, Z+15	; 0x0f
    3eae:	80 eb       	ldi	r24, 0xB0	; 176
    3eb0:	98 e0       	ldi	r25, 0x08	; 8
    3eb2:	0e 94 d8 2e 	call	0x5db0	; 0x5db0 <USART_send_int>
    3eb6:	e0 91 4d 23 	lds	r30, 0x234D
    3eba:	f0 e0       	ldi	r31, 0x00	; 0
    3ebc:	65 e0       	ldi	r22, 0x05	; 5
    3ebe:	ee 0f       	add	r30, r30
    3ec0:	ff 1f       	adc	r31, r31
    3ec2:	6a 95       	dec	r22
    3ec4:	e1 f7       	brne	.-8      	; 0x3ebe <ExecuteCommand+0xc90>
    3ec6:	e0 5a       	subi	r30, 0xA0	; 160
    3ec8:	fc 4d       	sbci	r31, 0xDC	; 220
    3eca:	60 81       	ld	r22, Z
    3ecc:	71 81       	ldd	r23, Z+1	; 0x01
    3ece:	80 eb       	ldi	r24, 0xB0	; 176
    3ed0:	98 e0       	ldi	r25, 0x08	; 8
    3ed2:	0e 94 d8 2e 	call	0x5db0	; 0x5db0 <USART_send_int>
    3ed6:	e0 91 4d 23 	lds	r30, 0x234D
    3eda:	f0 e0       	ldi	r31, 0x00	; 0
    3edc:	55 e0       	ldi	r21, 0x05	; 5
    3ede:	ee 0f       	add	r30, r30
    3ee0:	ff 1f       	adc	r31, r31
    3ee2:	5a 95       	dec	r21
    3ee4:	e1 f7       	brne	.-8      	; 0x3ede <ExecuteCommand+0xcb0>
    3ee6:	e0 5b       	subi	r30, 0xB0	; 176
    3ee8:	fc 4d       	sbci	r31, 0xDC	; 220
    3eea:	62 89       	ldd	r22, Z+18	; 0x12
    3eec:	73 89       	ldd	r23, Z+19	; 0x13
    3eee:	80 eb       	ldi	r24, 0xB0	; 176
    3ef0:	98 e0       	ldi	r25, 0x08	; 8
    3ef2:	0e 94 d8 2e 	call	0x5db0	; 0x5db0 <USART_send_int>
    3ef6:	e0 91 4d 23 	lds	r30, 0x234D
    3efa:	f0 e0       	ldi	r31, 0x00	; 0
    3efc:	45 e0       	ldi	r20, 0x05	; 5
    3efe:	ee 0f       	add	r30, r30
    3f00:	ff 1f       	adc	r31, r31
    3f02:	4a 95       	dec	r20
    3f04:	e1 f7       	brne	.-8      	; 0x3efe <ExecuteCommand+0xcd0>
    3f06:	e0 5b       	subi	r30, 0xB0	; 176
    3f08:	fc 4d       	sbci	r31, 0xDC	; 220
    3f0a:	64 89       	ldd	r22, Z+20	; 0x14
    3f0c:	75 89       	ldd	r23, Z+21	; 0x15
    3f0e:	80 eb       	ldi	r24, 0xB0	; 176
    3f10:	98 e0       	ldi	r25, 0x08	; 8
    3f12:	0e 94 d8 2e 	call	0x5db0	; 0x5db0 <USART_send_int>
    3f16:	e0 91 4d 23 	lds	r30, 0x234D
    3f1a:	f0 e0       	ldi	r31, 0x00	; 0
    3f1c:	35 e0       	ldi	r19, 0x05	; 5
    3f1e:	ee 0f       	add	r30, r30
    3f20:	ff 1f       	adc	r31, r31
    3f22:	3a 95       	dec	r19
    3f24:	e1 f7       	brne	.-8      	; 0x3f1e <ExecuteCommand+0xcf0>
    3f26:	e0 5b       	subi	r30, 0xB0	; 176
    3f28:	fc 4d       	sbci	r31, 0xDC	; 220
    3f2a:	66 89       	ldd	r22, Z+22	; 0x16
    3f2c:	77 89       	ldd	r23, Z+23	; 0x17
    3f2e:	80 eb       	ldi	r24, 0xB0	; 176
    3f30:	98 e0       	ldi	r25, 0x08	; 8
    3f32:	0e 94 d8 2e 	call	0x5db0	; 0x5db0 <USART_send_int>
    3f36:	e0 91 4d 23 	lds	r30, 0x234D
    3f3a:	f0 e0       	ldi	r31, 0x00	; 0
    3f3c:	25 e0       	ldi	r18, 0x05	; 5
    3f3e:	ee 0f       	add	r30, r30
    3f40:	ff 1f       	adc	r31, r31
    3f42:	2a 95       	dec	r18
    3f44:	e1 f7       	brne	.-8      	; 0x3f3e <ExecuteCommand+0xd10>
    3f46:	e0 5b       	subi	r30, 0xB0	; 176
    3f48:	fc 4d       	sbci	r31, 0xDC	; 220
    3f4a:	60 8d       	ldd	r22, Z+24	; 0x18
    3f4c:	71 8d       	ldd	r23, Z+25	; 0x19
    3f4e:	80 eb       	ldi	r24, 0xB0	; 176
    3f50:	98 e0       	ldi	r25, 0x08	; 8
    3f52:	0e 94 d8 2e 	call	0x5db0	; 0x5db0 <USART_send_int>
    3f56:	e0 91 4d 23 	lds	r30, 0x234D
    3f5a:	f0 e0       	ldi	r31, 0x00	; 0
    3f5c:	95 e0       	ldi	r25, 0x05	; 5
    3f5e:	ee 0f       	add	r30, r30
    3f60:	ff 1f       	adc	r31, r31
    3f62:	9a 95       	dec	r25
    3f64:	e1 f7       	brne	.-8      	; 0x3f5e <ExecuteCommand+0xd30>
    3f66:	e0 5b       	subi	r30, 0xB0	; 176
    3f68:	fc 4d       	sbci	r31, 0xDC	; 220
    3f6a:	62 8d       	ldd	r22, Z+26	; 0x1a
    3f6c:	73 8d       	ldd	r23, Z+27	; 0x1b
    3f6e:	80 eb       	ldi	r24, 0xB0	; 176
    3f70:	98 e0       	ldi	r25, 0x08	; 8
    3f72:	0e 94 d8 2e 	call	0x5db0	; 0x5db0 <USART_send_int>
    3f76:	e0 91 4d 23 	lds	r30, 0x234D
    3f7a:	f0 e0       	ldi	r31, 0x00	; 0
    3f7c:	85 e0       	ldi	r24, 0x05	; 5
    3f7e:	ee 0f       	add	r30, r30
    3f80:	ff 1f       	adc	r31, r31
    3f82:	8a 95       	dec	r24
    3f84:	e1 f7       	brne	.-8      	; 0x3f7e <ExecuteCommand+0xd50>
    3f86:	e0 5b       	subi	r30, 0xB0	; 176
    3f88:	fc 4d       	sbci	r31, 0xDC	; 220
    3f8a:	64 8d       	ldd	r22, Z+28	; 0x1c
    3f8c:	75 8d       	ldd	r23, Z+29	; 0x1d
    3f8e:	80 eb       	ldi	r24, 0xB0	; 176
    3f90:	98 e0       	ldi	r25, 0x08	; 8
    3f92:	0e 94 d8 2e 	call	0x5db0	; 0x5db0 <USART_send_int>
    3f96:	e0 91 4d 23 	lds	r30, 0x234D
    3f9a:	f0 e0       	ldi	r31, 0x00	; 0
    3f9c:	05 e0       	ldi	r16, 0x05	; 5
    3f9e:	ee 0f       	add	r30, r30
    3fa0:	ff 1f       	adc	r31, r31
    3fa2:	0a 95       	dec	r16
    3fa4:	e1 f7       	brne	.-8      	; 0x3f9e <ExecuteCommand+0xd70>
    3fa6:	e0 5b       	subi	r30, 0xB0	; 176
    3fa8:	fc 4d       	sbci	r31, 0xDC	; 220
    3faa:	66 8d       	ldd	r22, Z+30	; 0x1e
    3fac:	77 8d       	ldd	r23, Z+31	; 0x1f
    3fae:	80 eb       	ldi	r24, 0xB0	; 176
    3fb0:	98 e0       	ldi	r25, 0x08	; 8
    3fb2:	0e 94 d8 2e 	call	0x5db0	; 0x5db0 <USART_send_int>
    3fb6:	80 91 4d 23 	lds	r24, 0x234D
    3fba:	8f 5f       	subi	r24, 0xFF	; 255
    3fbc:	80 93 4d 23 	sts	0x234D, r24
    3fc0:	90 91 4d 23 	lds	r25, 0x234D
    3fc4:	80 91 4f 23 	lds	r24, 0x234F
    3fc8:	98 17       	cp	r25, r24
    3fca:	08 f4       	brcc	.+2      	; 0x3fce <ExecuteCommand+0xda0>
    3fcc:	ee ce       	rjmp	.-548    	; 0x3daa <ExecuteCommand+0xb7c>
    3fce:	80 91 f2 20 	lds	r24, 0x20F2
    3fd2:	90 91 f3 20 	lds	r25, 0x20F3
    3fd6:	87 57       	subi	r24, 0x77	; 119
    3fd8:	9f 4b       	sbci	r25, 0xBF	; 191
    3fda:	09 f0       	breq	.+2      	; 0x3fde <ExecuteCommand+0xdb0>
    3fdc:	0c c1       	rjmp	.+536    	; 0x41f6 <__stack+0x1f7>
    3fde:	10 92 4e 23 	sts	0x234E, r1
    3fe2:	dd 24       	eor	r13, r13
    3fe4:	d3 94       	inc	r13
    3fe6:	e1 2c       	mov	r14, r1
    3fe8:	1b e0       	ldi	r17, 0x0B	; 11
    3fea:	f1 2e       	mov	r15, r17
    3fec:	00 e2       	ldi	r16, 0x20	; 32
    3fee:	13 e0       	ldi	r17, 0x03	; 3
    3ff0:	f7 c0       	rjmp	.+494    	; 0x41e0 <__stack+0x1e1>
    3ff2:	d0 92 2b 26 	sts	0x262B, r13
    3ff6:	30 e0       	ldi	r19, 0x00	; 0
    3ff8:	e9 01       	movw	r28, r18
    3ffa:	b5 e0       	ldi	r27, 0x05	; 5
    3ffc:	cc 0f       	add	r28, r28
    3ffe:	dd 1f       	adc	r29, r29
    4000:	ba 95       	dec	r27
    4002:	e1 f7       	brne	.-8      	; 0x3ffc <ExecuteCommand+0xdce>
    4004:	c0 5b       	subi	r28, 0xB0	; 176
    4006:	dc 4d       	sbci	r29, 0xDC	; 220
    4008:	88 81       	ld	r24, Y
    400a:	99 81       	ldd	r25, Y+1	; 0x01
    400c:	a0 e0       	ldi	r26, 0x00	; 0
    400e:	b0 e0       	ldi	r27, 0x00	; 0
    4010:	80 93 09 21 	sts	0x2109, r24
    4014:	90 93 0a 21 	sts	0x210A, r25
    4018:	a0 93 0b 21 	sts	0x210B, r26
    401c:	b0 93 0c 21 	sts	0x210C, r27
    4020:	f9 01       	movw	r30, r18
    4022:	a5 e0       	ldi	r26, 0x05	; 5
    4024:	ee 0f       	add	r30, r30
    4026:	ff 1f       	adc	r31, r31
    4028:	aa 95       	dec	r26
    402a:	e1 f7       	brne	.-8      	; 0x4024 <__stack+0x25>
    402c:	ee 5a       	subi	r30, 0xAE	; 174
    402e:	fc 4d       	sbci	r31, 0xDC	; 220
    4030:	80 81       	ld	r24, Z
    4032:	91 81       	ldd	r25, Z+1	; 0x01
    4034:	a0 e0       	ldi	r26, 0x00	; 0
    4036:	b0 e0       	ldi	r27, 0x00	; 0
    4038:	80 93 4d 21 	sts	0x214D, r24
    403c:	90 93 4e 21 	sts	0x214E, r25
    4040:	a0 93 4f 21 	sts	0x214F, r26
    4044:	b0 93 50 21 	sts	0x2150, r27
    4048:	f9 01       	movw	r30, r18
    404a:	75 e0       	ldi	r23, 0x05	; 5
    404c:	ee 0f       	add	r30, r30
    404e:	ff 1f       	adc	r31, r31
    4050:	7a 95       	dec	r23
    4052:	e1 f7       	brne	.-8      	; 0x404c <__stack+0x4d>
    4054:	ec 5a       	subi	r30, 0xAC	; 172
    4056:	fc 4d       	sbci	r31, 0xDC	; 220
    4058:	80 81       	ld	r24, Z
    405a:	91 81       	ldd	r25, Z+1	; 0x01
    405c:	a0 e0       	ldi	r26, 0x00	; 0
    405e:	b0 e0       	ldi	r27, 0x00	; 0
    4060:	80 93 6b 21 	sts	0x216B, r24
    4064:	90 93 6c 21 	sts	0x216C, r25
    4068:	a0 93 6d 21 	sts	0x216D, r26
    406c:	b0 93 6e 21 	sts	0x216E, r27
    4070:	8e 81       	ldd	r24, Y+6	; 0x06
    4072:	9f 81       	ldd	r25, Y+7	; 0x07
    4074:	a0 e0       	ldi	r26, 0x00	; 0
    4076:	b0 e0       	ldi	r27, 0x00	; 0
    4078:	80 93 af 21 	sts	0x21AF, r24
    407c:	90 93 b0 21 	sts	0x21B0, r25
    4080:	a0 93 b1 21 	sts	0x21B1, r26
    4084:	b0 93 b2 21 	sts	0x21B2, r27
    4088:	65 e0       	ldi	r22, 0x05	; 5
    408a:	22 0f       	add	r18, r18
    408c:	33 1f       	adc	r19, r19
    408e:	6a 95       	dec	r22
    4090:	e1 f7       	brne	.-8      	; 0x408a <__stack+0x8b>
    4092:	f9 01       	movw	r30, r18
    4094:	e8 5a       	subi	r30, 0xA8	; 168
    4096:	fc 4d       	sbci	r31, 0xDC	; 220
    4098:	80 81       	ld	r24, Z
    409a:	91 81       	ldd	r25, Z+1	; 0x01
    409c:	a0 e0       	ldi	r26, 0x00	; 0
    409e:	b0 e0       	ldi	r27, 0x00	; 0
    40a0:	80 93 cd 21 	sts	0x21CD, r24
    40a4:	90 93 ce 21 	sts	0x21CE, r25
    40a8:	a0 93 cf 21 	sts	0x21CF, r26
    40ac:	b0 93 d0 21 	sts	0x21D0, r27
    40b0:	8a 85       	ldd	r24, Y+10	; 0x0a
    40b2:	9b 85       	ldd	r25, Y+11	; 0x0b
    40b4:	a0 e0       	ldi	r26, 0x00	; 0
    40b6:	b0 e0       	ldi	r27, 0x00	; 0
    40b8:	80 93 11 22 	sts	0x2211, r24
    40bc:	90 93 12 22 	sts	0x2212, r25
    40c0:	a0 93 13 22 	sts	0x2213, r26
    40c4:	b0 93 14 22 	sts	0x2214, r27
    40c8:	8c 85       	ldd	r24, Y+12	; 0x0c
    40ca:	9d 85       	ldd	r25, Y+13	; 0x0d
    40cc:	a0 e0       	ldi	r26, 0x00	; 0
    40ce:	b0 e0       	ldi	r27, 0x00	; 0
    40d0:	80 93 2f 22 	sts	0x222F, r24
    40d4:	90 93 30 22 	sts	0x2230, r25
    40d8:	a0 93 31 22 	sts	0x2231, r26
    40dc:	b0 93 32 22 	sts	0x2232, r27
    40e0:	8e 85       	ldd	r24, Y+14	; 0x0e
    40e2:	9f 85       	ldd	r25, Y+15	; 0x0f
    40e4:	a0 e0       	ldi	r26, 0x00	; 0
    40e6:	b0 e0       	ldi	r27, 0x00	; 0
    40e8:	80 93 73 22 	sts	0x2273, r24
    40ec:	90 93 74 22 	sts	0x2274, r25
    40f0:	a0 93 75 22 	sts	0x2275, r26
    40f4:	b0 93 76 22 	sts	0x2276, r27
    40f8:	20 5a       	subi	r18, 0xA0	; 160
    40fa:	3c 4d       	sbci	r19, 0xDC	; 220
    40fc:	f9 01       	movw	r30, r18
    40fe:	80 81       	ld	r24, Z
    4100:	91 81       	ldd	r25, Z+1	; 0x01
    4102:	a0 e0       	ldi	r26, 0x00	; 0
    4104:	b0 e0       	ldi	r27, 0x00	; 0
    4106:	80 93 91 22 	sts	0x2291, r24
    410a:	90 93 92 22 	sts	0x2292, r25
    410e:	a0 93 93 22 	sts	0x2293, r26
    4112:	b0 93 94 22 	sts	0x2294, r27
    4116:	8a 89       	ldd	r24, Y+18	; 0x12
    4118:	9b 89       	ldd	r25, Y+19	; 0x13
    411a:	a0 e0       	ldi	r26, 0x00	; 0
    411c:	b0 e0       	ldi	r27, 0x00	; 0
    411e:	80 93 d5 22 	sts	0x22D5, r24
    4122:	90 93 d6 22 	sts	0x22D6, r25
    4126:	a0 93 d7 22 	sts	0x22D7, r26
    412a:	b0 93 d8 22 	sts	0x22D8, r27
    412e:	8c 89       	ldd	r24, Y+20	; 0x14
    4130:	9d 89       	ldd	r25, Y+21	; 0x15
    4132:	a0 e0       	ldi	r26, 0x00	; 0
    4134:	b0 e0       	ldi	r27, 0x00	; 0
    4136:	80 93 f3 22 	sts	0x22F3, r24
    413a:	90 93 f4 22 	sts	0x22F4, r25
    413e:	a0 93 f5 22 	sts	0x22F5, r26
    4142:	b0 93 f6 22 	sts	0x22F6, r27
    4146:	8e 89       	ldd	r24, Y+22	; 0x16
    4148:	9f 89       	ldd	r25, Y+23	; 0x17
    414a:	a0 e0       	ldi	r26, 0x00	; 0
    414c:	b0 e0       	ldi	r27, 0x00	; 0
    414e:	80 93 37 23 	sts	0x2337, r24
    4152:	90 93 38 23 	sts	0x2338, r25
    4156:	a0 93 39 23 	sts	0x2339, r26
    415a:	b0 93 3a 23 	sts	0x233A, r27
    415e:	28 8d       	ldd	r18, Y+24	; 0x18
    4160:	20 93 e9 20 	sts	0x20E9, r18
    4164:	8a 8d       	ldd	r24, Y+26	; 0x1a
    4166:	9b 8d       	ldd	r25, Y+27	; 0x1b
    4168:	f7 01       	movw	r30, r14
    416a:	84 af       	std	Z+60, r24	; 0x3c
    416c:	95 af       	std	Z+61, r25	; 0x3d
    416e:	22 30       	cpi	r18, 0x02	; 2
    4170:	89 f4       	brne	.+34     	; 0x4194 <__stack+0x195>
    4172:	86 e0       	ldi	r24, 0x06	; 6
    4174:	61 e0       	ldi	r22, 0x01	; 1
    4176:	0e 94 43 0e 	call	0x1c86	; 0x1c86 <Onlinecontrol>
    417a:	10 92 eb 20 	sts	0x20EB, r1
    417e:	d0 92 20 26 	sts	0x2620, r13
    4182:	80 91 a8 06 	lds	r24, 0x06A8
    4186:	85 fd       	sbrc	r24, 5
    4188:	fc cf       	rjmp	.-8      	; 0x4182 <__stack+0x183>
    418a:	86 e0       	ldi	r24, 0x06	; 6
    418c:	63 e0       	ldi	r22, 0x03	; 3
    418e:	0e 94 43 0e 	call	0x1c86	; 0x1c86 <Onlinecontrol>
    4192:	0d c0       	rjmp	.+26     	; 0x41ae <__stack+0x1af>
    4194:	23 30       	cpi	r18, 0x03	; 3
    4196:	59 f4       	brne	.+22     	; 0x41ae <__stack+0x1af>
    4198:	8c 8d       	ldd	r24, Y+28	; 0x1c
    419a:	80 93 eb 20 	sts	0x20EB, r24
    419e:	86 e0       	ldi	r24, 0x06	; 6
    41a0:	62 e0       	ldi	r22, 0x02	; 2
    41a2:	0e 94 43 0e 	call	0x1c86	; 0x1c86 <Onlinecontrol>
    41a6:	80 91 2b 26 	lds	r24, 0x262B
    41aa:	88 23       	and	r24, r24
    41ac:	e1 f3       	breq	.-8      	; 0x41a6 <__stack+0x1a7>
    41ae:	60 91 4e 23 	lds	r22, 0x234E
    41b2:	70 e0       	ldi	r23, 0x00	; 0
    41b4:	6f 5f       	subi	r22, 0xFF	; 255
    41b6:	7f 4f       	sbci	r23, 0xFF	; 255
    41b8:	80 eb       	ldi	r24, 0xB0	; 176
    41ba:	98 e0       	ldi	r25, 0x08	; 8
    41bc:	0e 94 d8 2e 	call	0x5db0	; 0x5db0 <USART_send_int>
    41c0:	84 e6       	ldi	r24, 0x64	; 100
    41c2:	90 e0       	ldi	r25, 0x00	; 0
    41c4:	f8 01       	movw	r30, r16
    41c6:	31 97       	sbiw	r30, 0x01	; 1
    41c8:	f1 f7       	brne	.-4      	; 0x41c6 <__stack+0x1c7>
    41ca:	01 97       	sbiw	r24, 0x01	; 1
    41cc:	d9 f7       	brne	.-10     	; 0x41c4 <__stack+0x1c5>
    41ce:	0e 94 a7 13 	call	0x274e	; 0x274e <EngineStatus6>
    41d2:	88 23       	and	r24, r24
    41d4:	e1 f3       	breq	.-8      	; 0x41ce <__stack+0x1cf>
    41d6:	80 91 4e 23 	lds	r24, 0x234E
    41da:	8f 5f       	subi	r24, 0xFF	; 255
    41dc:	80 93 4e 23 	sts	0x234E, r24
    41e0:	20 91 4e 23 	lds	r18, 0x234E
    41e4:	80 91 21 26 	lds	r24, 0x2621
    41e8:	28 17       	cp	r18, r24
    41ea:	08 f4       	brcc	.+2      	; 0x41ee <__stack+0x1ef>
    41ec:	02 cf       	rjmp	.-508    	; 0x3ff2 <ExecuteCommand+0xdc4>
    41ee:	10 92 f2 20 	sts	0x20F2, r1
    41f2:	10 92 f3 20 	sts	0x20F3, r1
    41f6:	20 91 f2 20 	lds	r18, 0x20F2
    41fa:	30 91 f3 20 	lds	r19, 0x20F3
    41fe:	c9 01       	movw	r24, r18
    4200:	88 57       	subi	r24, 0x78	; 120
    4202:	9f 4b       	sbci	r25, 0xBF	; 191
    4204:	06 97       	sbiw	r24, 0x06	; 6
    4206:	08 f0       	brcs	.+2      	; 0x420a <__stack+0x20b>
    4208:	e3 c0       	rjmp	.+454    	; 0x43d0 <__stack+0x3d1>
    420a:	c9 01       	movw	r24, r18
    420c:	a0 e0       	ldi	r26, 0x00	; 0
    420e:	b0 e0       	ldi	r27, 0x00	; 0
    4210:	88 57       	subi	r24, 0x78	; 120
    4212:	9f 4b       	sbci	r25, 0xBF	; 191
    4214:	a0 40       	sbci	r26, 0x00	; 0
    4216:	b0 40       	sbci	r27, 0x00	; 0
    4218:	02 e6       	ldi	r16, 0x62	; 98
    421a:	10 e0       	ldi	r17, 0x00	; 0
    421c:	80 9f       	mul	r24, r16
    421e:	f0 01       	movw	r30, r0
    4220:	81 9f       	mul	r24, r17
    4222:	f0 0d       	add	r31, r0
    4224:	90 9f       	mul	r25, r16
    4226:	f0 0d       	add	r31, r0
    4228:	11 24       	eor	r1, r1
    422a:	ef 5f       	subi	r30, 0xFF	; 255
    422c:	fe 4d       	sbci	r31, 0xDE	; 222
    422e:	24 8d       	ldd	r18, Z+28	; 0x1c
    4230:	35 8d       	ldd	r19, Z+29	; 0x1d
    4232:	46 8d       	ldd	r20, Z+30	; 0x1e
    4234:	57 8d       	ldd	r21, Z+31	; 0x1f
    4236:	80 eb       	ldi	r24, 0xB0	; 176
    4238:	98 e0       	ldi	r25, 0x08	; 8
    423a:	b9 01       	movw	r22, r18
    423c:	0e 94 d8 2e 	call	0x5db0	; 0x5db0 <USART_send_int>
    4240:	80 91 f2 20 	lds	r24, 0x20F2
    4244:	90 91 f3 20 	lds	r25, 0x20F3
    4248:	a0 e0       	ldi	r26, 0x00	; 0
    424a:	b0 e0       	ldi	r27, 0x00	; 0
    424c:	88 57       	subi	r24, 0x78	; 120
    424e:	9f 4b       	sbci	r25, 0xBF	; 191
    4250:	a0 40       	sbci	r26, 0x00	; 0
    4252:	b0 40       	sbci	r27, 0x00	; 0
    4254:	80 9f       	mul	r24, r16
    4256:	f0 01       	movw	r30, r0
    4258:	81 9f       	mul	r24, r17
    425a:	f0 0d       	add	r31, r0
    425c:	90 9f       	mul	r25, r16
    425e:	f0 0d       	add	r31, r0
    4260:	11 24       	eor	r1, r1
    4262:	ef 5f       	subi	r30, 0xFF	; 255
    4264:	fe 4d       	sbci	r31, 0xDE	; 222
    4266:	20 a1       	ldd	r18, Z+32	; 0x20
    4268:	31 a1       	ldd	r19, Z+33	; 0x21
    426a:	42 a1       	ldd	r20, Z+34	; 0x22
    426c:	53 a1       	ldd	r21, Z+35	; 0x23
    426e:	80 eb       	ldi	r24, 0xB0	; 176
    4270:	98 e0       	ldi	r25, 0x08	; 8
    4272:	b9 01       	movw	r22, r18
    4274:	0e 94 d8 2e 	call	0x5db0	; 0x5db0 <USART_send_int>
    4278:	80 91 f2 20 	lds	r24, 0x20F2
    427c:	90 91 f3 20 	lds	r25, 0x20F3
    4280:	a0 e0       	ldi	r26, 0x00	; 0
    4282:	b0 e0       	ldi	r27, 0x00	; 0
    4284:	88 57       	subi	r24, 0x78	; 120
    4286:	9f 4b       	sbci	r25, 0xBF	; 191
    4288:	a0 40       	sbci	r26, 0x00	; 0
    428a:	b0 40       	sbci	r27, 0x00	; 0
    428c:	80 9f       	mul	r24, r16
    428e:	f0 01       	movw	r30, r0
    4290:	81 9f       	mul	r24, r17
    4292:	f0 0d       	add	r31, r0
    4294:	90 9f       	mul	r25, r16
    4296:	f0 0d       	add	r31, r0
    4298:	11 24       	eor	r1, r1
    429a:	ef 5b       	subi	r30, 0xBF	; 191
    429c:	fe 4d       	sbci	r31, 0xDE	; 222
    429e:	20 81       	ld	r18, Z
    42a0:	31 81       	ldd	r19, Z+1	; 0x01
    42a2:	42 81       	ldd	r20, Z+2	; 0x02
    42a4:	53 81       	ldd	r21, Z+3	; 0x03
    42a6:	80 eb       	ldi	r24, 0xB0	; 176
    42a8:	98 e0       	ldi	r25, 0x08	; 8
    42aa:	b9 01       	movw	r22, r18
    42ac:	0e 94 d8 2e 	call	0x5db0	; 0x5db0 <USART_send_int>
    42b0:	80 91 f2 20 	lds	r24, 0x20F2
    42b4:	90 91 f3 20 	lds	r25, 0x20F3
    42b8:	a0 e0       	ldi	r26, 0x00	; 0
    42ba:	b0 e0       	ldi	r27, 0x00	; 0
    42bc:	88 57       	subi	r24, 0x78	; 120
    42be:	9f 4b       	sbci	r25, 0xBF	; 191
    42c0:	a0 40       	sbci	r26, 0x00	; 0
    42c2:	b0 40       	sbci	r27, 0x00	; 0
    42c4:	80 9f       	mul	r24, r16
    42c6:	f0 01       	movw	r30, r0
    42c8:	81 9f       	mul	r24, r17
    42ca:	f0 0d       	add	r31, r0
    42cc:	90 9f       	mul	r25, r16
    42ce:	f0 0d       	add	r31, r0
    42d0:	11 24       	eor	r1, r1
    42d2:	ef 5f       	subi	r30, 0xFF	; 255
    42d4:	fe 4d       	sbci	r31, 0xDE	; 222
    42d6:	20 89       	ldd	r18, Z+16	; 0x10
    42d8:	31 89       	ldd	r19, Z+17	; 0x11
    42da:	42 89       	ldd	r20, Z+18	; 0x12
    42dc:	53 89       	ldd	r21, Z+19	; 0x13
    42de:	80 eb       	ldi	r24, 0xB0	; 176
    42e0:	98 e0       	ldi	r25, 0x08	; 8
    42e2:	b9 01       	movw	r22, r18
    42e4:	0e 94 d8 2e 	call	0x5db0	; 0x5db0 <USART_send_int>
    42e8:	80 91 f2 20 	lds	r24, 0x20F2
    42ec:	90 91 f3 20 	lds	r25, 0x20F3
    42f0:	a0 e0       	ldi	r26, 0x00	; 0
    42f2:	b0 e0       	ldi	r27, 0x00	; 0
    42f4:	88 57       	subi	r24, 0x78	; 120
    42f6:	9f 4b       	sbci	r25, 0xBF	; 191
    42f8:	a0 40       	sbci	r26, 0x00	; 0
    42fa:	b0 40       	sbci	r27, 0x00	; 0
    42fc:	80 9f       	mul	r24, r16
    42fe:	f0 01       	movw	r30, r0
    4300:	81 9f       	mul	r24, r17
    4302:	f0 0d       	add	r31, r0
    4304:	90 9f       	mul	r25, r16
    4306:	f0 0d       	add	r31, r0
    4308:	11 24       	eor	r1, r1
    430a:	ef 5f       	subi	r30, 0xFF	; 255
    430c:	fe 4d       	sbci	r31, 0xDE	; 222
    430e:	20 a5       	ldd	r18, Z+40	; 0x28
    4310:	31 a5       	ldd	r19, Z+41	; 0x29
    4312:	42 a5       	ldd	r20, Z+42	; 0x2a
    4314:	53 a5       	ldd	r21, Z+43	; 0x2b
    4316:	80 eb       	ldi	r24, 0xB0	; 176
    4318:	98 e0       	ldi	r25, 0x08	; 8
    431a:	b9 01       	movw	r22, r18
    431c:	0e 94 d8 2e 	call	0x5db0	; 0x5db0 <USART_send_int>
    4320:	80 91 f2 20 	lds	r24, 0x20F2
    4324:	90 91 f3 20 	lds	r25, 0x20F3
    4328:	a0 e0       	ldi	r26, 0x00	; 0
    432a:	b0 e0       	ldi	r27, 0x00	; 0
    432c:	88 57       	subi	r24, 0x78	; 120
    432e:	9f 4b       	sbci	r25, 0xBF	; 191
    4330:	a0 40       	sbci	r26, 0x00	; 0
    4332:	b0 40       	sbci	r27, 0x00	; 0
    4334:	80 9f       	mul	r24, r16
    4336:	f0 01       	movw	r30, r0
    4338:	81 9f       	mul	r24, r17
    433a:	f0 0d       	add	r31, r0
    433c:	90 9f       	mul	r25, r16
    433e:	f0 0d       	add	r31, r0
    4340:	11 24       	eor	r1, r1
    4342:	ef 5f       	subi	r30, 0xFF	; 255
    4344:	fe 4d       	sbci	r31, 0xDE	; 222
    4346:	20 ad       	ldd	r18, Z+56	; 0x38
    4348:	31 ad       	ldd	r19, Z+57	; 0x39
    434a:	42 ad       	ldd	r20, Z+58	; 0x3a
    434c:	53 ad       	ldd	r21, Z+59	; 0x3b
    434e:	80 eb       	ldi	r24, 0xB0	; 176
    4350:	98 e0       	ldi	r25, 0x08	; 8
    4352:	b9 01       	movw	r22, r18
    4354:	0e 94 d8 2e 	call	0x5db0	; 0x5db0 <USART_send_int>
    4358:	80 91 f2 20 	lds	r24, 0x20F2
    435c:	90 91 f3 20 	lds	r25, 0x20F3
    4360:	a0 e0       	ldi	r26, 0x00	; 0
    4362:	b0 e0       	ldi	r27, 0x00	; 0
    4364:	88 57       	subi	r24, 0x78	; 120
    4366:	9f 4b       	sbci	r25, 0xBF	; 191
    4368:	a0 40       	sbci	r26, 0x00	; 0
    436a:	b0 40       	sbci	r27, 0x00	; 0
    436c:	80 9f       	mul	r24, r16
    436e:	f0 01       	movw	r30, r0
    4370:	81 9f       	mul	r24, r17
    4372:	f0 0d       	add	r31, r0
    4374:	90 9f       	mul	r25, r16
    4376:	f0 0d       	add	r31, r0
    4378:	11 24       	eor	r1, r1
    437a:	e3 5b       	subi	r30, 0xB3	; 179
    437c:	fe 4d       	sbci	r31, 0xDE	; 222
    437e:	20 81       	ld	r18, Z
    4380:	31 81       	ldd	r19, Z+1	; 0x01
    4382:	42 81       	ldd	r20, Z+2	; 0x02
    4384:	53 81       	ldd	r21, Z+3	; 0x03
    4386:	80 eb       	ldi	r24, 0xB0	; 176
    4388:	98 e0       	ldi	r25, 0x08	; 8
    438a:	b9 01       	movw	r22, r18
    438c:	0e 94 d8 2e 	call	0x5db0	; 0x5db0 <USART_send_int>
    4390:	80 91 f2 20 	lds	r24, 0x20F2
    4394:	90 91 f3 20 	lds	r25, 0x20F3
    4398:	a0 e0       	ldi	r26, 0x00	; 0
    439a:	b0 e0       	ldi	r27, 0x00	; 0
    439c:	88 57       	subi	r24, 0x78	; 120
    439e:	9f 4b       	sbci	r25, 0xBF	; 191
    43a0:	a0 40       	sbci	r26, 0x00	; 0
    43a2:	b0 40       	sbci	r27, 0x00	; 0
    43a4:	80 9f       	mul	r24, r16
    43a6:	f0 01       	movw	r30, r0
    43a8:	81 9f       	mul	r24, r17
    43aa:	f0 0d       	add	r31, r0
    43ac:	90 9f       	mul	r25, r16
    43ae:	f0 0d       	add	r31, r0
    43b0:	11 24       	eor	r1, r1
    43b2:	ef 5f       	subi	r30, 0xFF	; 255
    43b4:	fe 4d       	sbci	r31, 0xDE	; 222
    43b6:	24 89       	ldd	r18, Z+20	; 0x14
    43b8:	35 89       	ldd	r19, Z+21	; 0x15
    43ba:	46 89       	ldd	r20, Z+22	; 0x16
    43bc:	57 89       	ldd	r21, Z+23	; 0x17
    43be:	80 eb       	ldi	r24, 0xB0	; 176
    43c0:	98 e0       	ldi	r25, 0x08	; 8
    43c2:	b9 01       	movw	r22, r18
    43c4:	0e 94 d8 2e 	call	0x5db0	; 0x5db0 <USART_send_int>
    43c8:	10 92 f2 20 	sts	0x20F2, r1
    43cc:	10 92 f3 20 	sts	0x20F3, r1
    43d0:	80 91 f2 20 	lds	r24, 0x20F2
    43d4:	90 91 f3 20 	lds	r25, 0x20F3
    43d8:	80 55       	subi	r24, 0x50	; 80
    43da:	93 4c       	sbci	r25, 0xC3	; 195
    43dc:	19 f4       	brne	.+6      	; 0x43e4 <__stack+0x3e5>
    43de:	82 e0       	ldi	r24, 0x02	; 2
    43e0:	80 93 eb 20 	sts	0x20EB, r24
    43e4:	80 91 f2 20 	lds	r24, 0x20F2
    43e8:	90 91 f3 20 	lds	r25, 0x20F3
    43ec:	88 53       	subi	r24, 0x38	; 56
    43ee:	97 4c       	sbci	r25, 0xC7	; 199
    43f0:	11 f4       	brne	.+4      	; 0x43f6 <__stack+0x3f7>
    43f2:	10 92 eb 20 	sts	0x20EB, r1
    43f6:	80 91 f2 20 	lds	r24, 0x20F2
    43fa:	90 91 f3 20 	lds	r25, 0x20F3
    43fe:	8f 57       	subi	r24, 0x7F	; 127
    4400:	9f 4b       	sbci	r25, 0xBF	; 191
    4402:	09 f0       	breq	.+2      	; 0x4406 <__stack+0x407>
    4404:	85 c0       	rjmp	.+266    	; 0x4510 <__stack+0x511>
    4406:	81 e0       	ldi	r24, 0x01	; 1
    4408:	80 93 2b 26 	sts	0x262B, r24
    440c:	4c ea       	ldi	r20, 0xAC	; 172
    440e:	e4 2e       	mov	r14, r20
    4410:	4d e0       	ldi	r20, 0x0D	; 13
    4412:	f4 2e       	mov	r15, r20
    4414:	01 2d       	mov	r16, r1
    4416:	11 2d       	mov	r17, r1
    4418:	e0 92 09 21 	sts	0x2109, r14
    441c:	f0 92 0a 21 	sts	0x210A, r15
    4420:	00 93 0b 21 	sts	0x210B, r16
    4424:	10 93 0c 21 	sts	0x210C, r17
    4428:	28 e5       	ldi	r18, 0x58	; 88
    442a:	32 e0       	ldi	r19, 0x02	; 2
    442c:	40 e0       	ldi	r20, 0x00	; 0
    442e:	50 e0       	ldi	r21, 0x00	; 0
    4430:	20 93 4d 21 	sts	0x214D, r18
    4434:	30 93 4e 21 	sts	0x214E, r19
    4438:	40 93 4f 21 	sts	0x214F, r20
    443c:	50 93 50 21 	sts	0x2150, r21
    4440:	86 ed       	ldi	r24, 0xD6	; 214
    4442:	96 e0       	ldi	r25, 0x06	; 6
    4444:	a0 e0       	ldi	r26, 0x00	; 0
    4446:	b0 e0       	ldi	r27, 0x00	; 0
    4448:	80 93 6b 21 	sts	0x216B, r24
    444c:	90 93 6c 21 	sts	0x216C, r25
    4450:	a0 93 6d 21 	sts	0x216D, r26
    4454:	b0 93 6e 21 	sts	0x216E, r27
    4458:	84 ef       	ldi	r24, 0xF4	; 244
    445a:	91 e0       	ldi	r25, 0x01	; 1
    445c:	a0 e0       	ldi	r26, 0x00	; 0
    445e:	b0 e0       	ldi	r27, 0x00	; 0
    4460:	80 93 af 21 	sts	0x21AF, r24
    4464:	90 93 b0 21 	sts	0x21B0, r25
    4468:	a0 93 b1 21 	sts	0x21B1, r26
    446c:	b0 93 b2 21 	sts	0x21B2, r27
    4470:	80 ed       	ldi	r24, 0xD0	; 208
    4472:	97 e0       	ldi	r25, 0x07	; 7
    4474:	a0 e0       	ldi	r26, 0x00	; 0
    4476:	b0 e0       	ldi	r27, 0x00	; 0
    4478:	80 93 cd 21 	sts	0x21CD, r24
    447c:	90 93 ce 21 	sts	0x21CE, r25
    4480:	a0 93 cf 21 	sts	0x21CF, r26
    4484:	b0 93 d0 21 	sts	0x21D0, r27
    4488:	20 93 11 22 	sts	0x2211, r18
    448c:	30 93 12 22 	sts	0x2212, r19
    4490:	40 93 13 22 	sts	0x2213, r20
    4494:	50 93 14 22 	sts	0x2214, r21
    4498:	e0 92 2f 22 	sts	0x222F, r14
    449c:	f0 92 30 22 	sts	0x2230, r15
    44a0:	00 93 31 22 	sts	0x2231, r16
    44a4:	10 93 32 22 	sts	0x2232, r17
    44a8:	20 93 73 22 	sts	0x2273, r18
    44ac:	30 93 74 22 	sts	0x2274, r19
    44b0:	40 93 75 22 	sts	0x2275, r20
    44b4:	50 93 76 22 	sts	0x2276, r21
    44b8:	e0 92 91 22 	sts	0x2291, r14
    44bc:	f0 92 92 22 	sts	0x2292, r15
    44c0:	00 93 93 22 	sts	0x2293, r16
    44c4:	10 93 94 22 	sts	0x2294, r17
    44c8:	80 e9       	ldi	r24, 0x90	; 144
    44ca:	91 e0       	ldi	r25, 0x01	; 1
    44cc:	a0 e0       	ldi	r26, 0x00	; 0
    44ce:	b0 e0       	ldi	r27, 0x00	; 0
    44d0:	80 93 d5 22 	sts	0x22D5, r24
    44d4:	90 93 d6 22 	sts	0x22D6, r25
    44d8:	a0 93 d7 22 	sts	0x22D7, r26
    44dc:	b0 93 d8 22 	sts	0x22D8, r27
    44e0:	84 ec       	ldi	r24, 0xC4	; 196
    44e2:	99 e0       	ldi	r25, 0x09	; 9
    44e4:	a0 e0       	ldi	r26, 0x00	; 0
    44e6:	b0 e0       	ldi	r27, 0x00	; 0
    44e8:	80 93 f3 22 	sts	0x22F3, r24
    44ec:	90 93 f4 22 	sts	0x22F4, r25
    44f0:	a0 93 f5 22 	sts	0x22F5, r26
    44f4:	b0 93 f6 22 	sts	0x22F6, r27
    44f8:	20 93 37 23 	sts	0x2337, r18
    44fc:	30 93 38 23 	sts	0x2338, r19
    4500:	40 93 39 23 	sts	0x2339, r20
    4504:	50 93 3a 23 	sts	0x233A, r21
    4508:	10 92 f2 20 	sts	0x20F2, r1
    450c:	10 92 f3 20 	sts	0x20F3, r1
    4510:	80 91 f2 20 	lds	r24, 0x20F2
    4514:	90 91 f3 20 	lds	r25, 0x20F3
    4518:	80 58       	subi	r24, 0x80	; 128
    451a:	9f 4b       	sbci	r25, 0xBF	; 191
    451c:	09 f0       	breq	.+2      	; 0x4520 <__stack+0x521>
    451e:	a4 c0       	rjmp	.+328    	; 0x4668 <__stack+0x669>
    4520:	81 e0       	ldi	r24, 0x01	; 1
    4522:	80 93 2b 26 	sts	0x262B, r24
    4526:	87 e4       	ldi	r24, 0x47	; 71
    4528:	93 e1       	ldi	r25, 0x13	; 19
    452a:	a0 e0       	ldi	r26, 0x00	; 0
    452c:	b0 e0       	ldi	r27, 0x00	; 0
    452e:	80 93 09 21 	sts	0x2109, r24
    4532:	90 93 0a 21 	sts	0x210A, r25
    4536:	a0 93 0b 21 	sts	0x210B, r26
    453a:	b0 93 0c 21 	sts	0x210C, r27
    453e:	28 e5       	ldi	r18, 0x58	; 88
    4540:	32 e0       	ldi	r19, 0x02	; 2
    4542:	40 e0       	ldi	r20, 0x00	; 0
    4544:	50 e0       	ldi	r21, 0x00	; 0
    4546:	20 93 4d 21 	sts	0x214D, r18
    454a:	30 93 4e 21 	sts	0x214E, r19
    454e:	40 93 4f 21 	sts	0x214F, r20
    4552:	50 93 50 21 	sts	0x2150, r21
    4556:	86 eb       	ldi	r24, 0xB6	; 182
    4558:	98 e0       	ldi	r25, 0x08	; 8
    455a:	a0 e0       	ldi	r26, 0x00	; 0
    455c:	b0 e0       	ldi	r27, 0x00	; 0
    455e:	80 93 6b 21 	sts	0x216B, r24
    4562:	90 93 6c 21 	sts	0x216C, r25
    4566:	a0 93 6d 21 	sts	0x216D, r26
    456a:	b0 93 6e 21 	sts	0x216E, r27
    456e:	20 93 af 21 	sts	0x21AF, r18
    4572:	30 93 b0 21 	sts	0x21B0, r19
    4576:	40 93 b1 21 	sts	0x21B1, r20
    457a:	50 93 b2 21 	sts	0x21B2, r21
    457e:	80 e4       	ldi	r24, 0x40	; 64
    4580:	9b e0       	ldi	r25, 0x0B	; 11
    4582:	a0 e0       	ldi	r26, 0x00	; 0
    4584:	b0 e0       	ldi	r27, 0x00	; 0
    4586:	80 93 cd 21 	sts	0x21CD, r24
    458a:	90 93 ce 21 	sts	0x21CE, r25
    458e:	a0 93 cf 21 	sts	0x21CF, r26
    4592:	b0 93 d0 21 	sts	0x21D0, r27
    4596:	20 93 11 22 	sts	0x2211, r18
    459a:	30 93 12 22 	sts	0x2212, r19
    459e:	40 93 13 22 	sts	0x2213, r20
    45a2:	50 93 14 22 	sts	0x2214, r21
    45a6:	8c ea       	ldi	r24, 0xAC	; 172
    45a8:	9d e0       	ldi	r25, 0x0D	; 13
    45aa:	a0 e0       	ldi	r26, 0x00	; 0
    45ac:	b0 e0       	ldi	r27, 0x00	; 0
    45ae:	80 93 2f 22 	sts	0x222F, r24
    45b2:	90 93 30 22 	sts	0x2230, r25
    45b6:	a0 93 31 22 	sts	0x2231, r26
    45ba:	b0 93 32 22 	sts	0x2232, r27
    45be:	20 93 73 22 	sts	0x2273, r18
    45c2:	30 93 74 22 	sts	0x2274, r19
    45c6:	40 93 75 22 	sts	0x2275, r20
    45ca:	50 93 76 22 	sts	0x2276, r21
    45ce:	80 93 91 22 	sts	0x2291, r24
    45d2:	90 93 92 22 	sts	0x2292, r25
    45d6:	a0 93 93 22 	sts	0x2293, r26
    45da:	b0 93 94 22 	sts	0x2294, r27
    45de:	20 93 d5 22 	sts	0x22D5, r18
    45e2:	30 93 d6 22 	sts	0x22D6, r19
    45e6:	40 93 d7 22 	sts	0x22D7, r20
    45ea:	50 93 d8 22 	sts	0x22D8, r21
    45ee:	84 ec       	ldi	r24, 0xC4	; 196
    45f0:	99 e0       	ldi	r25, 0x09	; 9
    45f2:	a0 e0       	ldi	r26, 0x00	; 0
    45f4:	b0 e0       	ldi	r27, 0x00	; 0
    45f6:	80 93 f3 22 	sts	0x22F3, r24
    45fa:	90 93 f4 22 	sts	0x22F4, r25
    45fe:	a0 93 f5 22 	sts	0x22F5, r26
    4602:	b0 93 f6 22 	sts	0x22F6, r27
    4606:	20 93 37 23 	sts	0x2337, r18
    460a:	30 93 38 23 	sts	0x2338, r19
    460e:	40 93 39 23 	sts	0x2339, r20
    4612:	50 93 3a 23 	sts	0x233A, r21
    4616:	84 e6       	ldi	r24, 0x64	; 100
    4618:	90 e0       	ldi	r25, 0x00	; 0
    461a:	20 e2       	ldi	r18, 0x20	; 32
    461c:	33 e0       	ldi	r19, 0x03	; 3
    461e:	f9 01       	movw	r30, r18
    4620:	31 97       	sbiw	r30, 0x01	; 1
    4622:	f1 f7       	brne	.-4      	; 0x4620 <__stack+0x621>
    4624:	01 97       	sbiw	r24, 0x01	; 1
    4626:	d9 f7       	brne	.-10     	; 0x461e <__stack+0x61f>
    4628:	0e 94 a7 13 	call	0x274e	; 0x274e <EngineStatus6>
    462c:	88 23       	and	r24, r24
    462e:	e1 f3       	breq	.-8      	; 0x4628 <__stack+0x629>
    4630:	8b e3       	ldi	r24, 0x3B	; 59
    4632:	9b e0       	ldi	r25, 0x0B	; 11
    4634:	a0 e0       	ldi	r26, 0x00	; 0
    4636:	b0 e0       	ldi	r27, 0x00	; 0
    4638:	80 93 6b 21 	sts	0x216B, r24
    463c:	90 93 6c 21 	sts	0x216C, r25
    4640:	a0 93 6d 21 	sts	0x216D, r26
    4644:	b0 93 6e 21 	sts	0x216E, r27
    4648:	84 ef       	ldi	r24, 0xF4	; 244
    464a:	91 e0       	ldi	r25, 0x01	; 1
    464c:	a0 e0       	ldi	r26, 0x00	; 0
    464e:	b0 e0       	ldi	r27, 0x00	; 0
    4650:	80 93 af 21 	sts	0x21AF, r24
    4654:	90 93 b0 21 	sts	0x21B0, r25
    4658:	a0 93 b1 21 	sts	0x21B1, r26
    465c:	b0 93 b2 21 	sts	0x21B2, r27
    4660:	10 92 f2 20 	sts	0x20F2, r1
    4664:	10 92 f3 20 	sts	0x20F3, r1
    4668:	80 91 f2 20 	lds	r24, 0x20F2
    466c:	90 91 f3 20 	lds	r25, 0x20F3
    4670:	81 58       	subi	r24, 0x81	; 129
    4672:	9f 4b       	sbci	r25, 0xBF	; 191
    4674:	09 f0       	breq	.+2      	; 0x4678 <__stack+0x679>
    4676:	40 c1       	rjmp	.+640    	; 0x48f8 <__stack+0x8f9>
    4678:	81 e0       	ldi	r24, 0x01	; 1
    467a:	80 93 2b 26 	sts	0x262B, r24
    467e:	87 e4       	ldi	r24, 0x47	; 71
    4680:	93 e1       	ldi	r25, 0x13	; 19
    4682:	80 93 24 26 	sts	0x2624, r24
    4686:	90 93 25 26 	sts	0x2625, r25
    468a:	87 e4       	ldi	r24, 0x47	; 71
    468c:	93 e1       	ldi	r25, 0x13	; 19
    468e:	a0 e0       	ldi	r26, 0x00	; 0
    4690:	b0 e0       	ldi	r27, 0x00	; 0
    4692:	80 93 09 21 	sts	0x2109, r24
    4696:	90 93 0a 21 	sts	0x210A, r25
    469a:	a0 93 0b 21 	sts	0x210B, r26
    469e:	b0 93 0c 21 	sts	0x210C, r27
    46a2:	28 e5       	ldi	r18, 0x58	; 88
    46a4:	32 e0       	ldi	r19, 0x02	; 2
    46a6:	40 e0       	ldi	r20, 0x00	; 0
    46a8:	50 e0       	ldi	r21, 0x00	; 0
    46aa:	20 93 4d 21 	sts	0x214D, r18
    46ae:	30 93 4e 21 	sts	0x214E, r19
    46b2:	40 93 4f 21 	sts	0x214F, r20
    46b6:	50 93 50 21 	sts	0x2150, r21
    46ba:	8b e3       	ldi	r24, 0x3B	; 59
    46bc:	9b e0       	ldi	r25, 0x0B	; 11
    46be:	80 93 26 26 	sts	0x2626, r24
    46c2:	90 93 27 26 	sts	0x2627, r25
    46c6:	8b e3       	ldi	r24, 0x3B	; 59
    46c8:	9b e0       	ldi	r25, 0x0B	; 11
    46ca:	a0 e0       	ldi	r26, 0x00	; 0
    46cc:	b0 e0       	ldi	r27, 0x00	; 0
    46ce:	80 93 6b 21 	sts	0x216B, r24
    46d2:	90 93 6c 21 	sts	0x216C, r25
    46d6:	a0 93 6d 21 	sts	0x216D, r26
    46da:	b0 93 6e 21 	sts	0x216E, r27
    46de:	84 ef       	ldi	r24, 0xF4	; 244
    46e0:	91 e0       	ldi	r25, 0x01	; 1
    46e2:	a0 e0       	ldi	r26, 0x00	; 0
    46e4:	b0 e0       	ldi	r27, 0x00	; 0
    46e6:	80 93 af 21 	sts	0x21AF, r24
    46ea:	90 93 b0 21 	sts	0x21B0, r25
    46ee:	a0 93 b1 21 	sts	0x21B1, r26
    46f2:	b0 93 b2 21 	sts	0x21B2, r27
    46f6:	80 e4       	ldi	r24, 0x40	; 64
    46f8:	9b e0       	ldi	r25, 0x0B	; 11
    46fa:	80 93 28 26 	sts	0x2628, r24
    46fe:	90 93 29 26 	sts	0x2629, r25
    4702:	80 e4       	ldi	r24, 0x40	; 64
    4704:	9b e0       	ldi	r25, 0x0B	; 11
    4706:	a0 e0       	ldi	r26, 0x00	; 0
    4708:	b0 e0       	ldi	r27, 0x00	; 0
    470a:	80 93 cd 21 	sts	0x21CD, r24
    470e:	90 93 ce 21 	sts	0x21CE, r25
    4712:	a0 93 cf 21 	sts	0x21CF, r26
    4716:	b0 93 d0 21 	sts	0x21D0, r27
    471a:	20 93 11 22 	sts	0x2211, r18
    471e:	30 93 12 22 	sts	0x2212, r19
    4722:	40 93 13 22 	sts	0x2213, r20
    4726:	50 93 14 22 	sts	0x2214, r21
    472a:	6c ea       	ldi	r22, 0xAC	; 172
    472c:	7d e0       	ldi	r23, 0x0D	; 13
    472e:	60 93 22 26 	sts	0x2622, r22
    4732:	70 93 23 26 	sts	0x2623, r23
    4736:	8c ea       	ldi	r24, 0xAC	; 172
    4738:	9d e0       	ldi	r25, 0x0D	; 13
    473a:	a0 e0       	ldi	r26, 0x00	; 0
    473c:	b0 e0       	ldi	r27, 0x00	; 0
    473e:	80 93 2f 22 	sts	0x222F, r24
    4742:	90 93 30 22 	sts	0x2230, r25
    4746:	a0 93 31 22 	sts	0x2231, r26
    474a:	b0 93 32 22 	sts	0x2232, r27
    474e:	20 93 73 22 	sts	0x2273, r18
    4752:	30 93 74 22 	sts	0x2274, r19
    4756:	40 93 75 22 	sts	0x2275, r20
    475a:	50 93 76 22 	sts	0x2276, r21
    475e:	60 93 2c 26 	sts	0x262C, r22
    4762:	70 93 2d 26 	sts	0x262D, r23
    4766:	80 93 91 22 	sts	0x2291, r24
    476a:	90 93 92 22 	sts	0x2292, r25
    476e:	a0 93 93 22 	sts	0x2293, r26
    4772:	b0 93 94 22 	sts	0x2294, r27
    4776:	20 93 d5 22 	sts	0x22D5, r18
    477a:	30 93 d6 22 	sts	0x22D6, r19
    477e:	40 93 d7 22 	sts	0x22D7, r20
    4782:	50 93 d8 22 	sts	0x22D8, r21
    4786:	84 ec       	ldi	r24, 0xC4	; 196
    4788:	99 e0       	ldi	r25, 0x09	; 9
    478a:	80 93 2e 26 	sts	0x262E, r24
    478e:	90 93 2f 26 	sts	0x262F, r25
    4792:	84 ec       	ldi	r24, 0xC4	; 196
    4794:	99 e0       	ldi	r25, 0x09	; 9
    4796:	a0 e0       	ldi	r26, 0x00	; 0
    4798:	b0 e0       	ldi	r27, 0x00	; 0
    479a:	80 93 f3 22 	sts	0x22F3, r24
    479e:	90 93 f4 22 	sts	0x22F4, r25
    47a2:	a0 93 f5 22 	sts	0x22F5, r26
    47a6:	b0 93 f6 22 	sts	0x22F6, r27
    47aa:	20 93 37 23 	sts	0x2337, r18
    47ae:	30 93 38 23 	sts	0x2338, r19
    47b2:	40 93 39 23 	sts	0x2339, r20
    47b6:	50 93 3a 23 	sts	0x233A, r21
    47ba:	86 eb       	ldi	r24, 0xB6	; 182
    47bc:	98 e0       	ldi	r25, 0x08	; 8
    47be:	a0 e0       	ldi	r26, 0x00	; 0
    47c0:	b0 e0       	ldi	r27, 0x00	; 0
    47c2:	80 93 6b 21 	sts	0x216B, r24
    47c6:	90 93 6c 21 	sts	0x216C, r25
    47ca:	a0 93 6d 21 	sts	0x216D, r26
    47ce:	b0 93 6e 21 	sts	0x216E, r27
    47d2:	20 93 af 21 	sts	0x21AF, r18
    47d6:	30 93 b0 21 	sts	0x21B0, r19
    47da:	40 93 b1 21 	sts	0x21B1, r20
    47de:	50 93 b2 21 	sts	0x21B2, r21
    47e2:	84 e6       	ldi	r24, 0x64	; 100
    47e4:	90 e0       	ldi	r25, 0x00	; 0
    47e6:	20 e2       	ldi	r18, 0x20	; 32
    47e8:	33 e0       	ldi	r19, 0x03	; 3
    47ea:	f9 01       	movw	r30, r18
    47ec:	31 97       	sbiw	r30, 0x01	; 1
    47ee:	f1 f7       	brne	.-4      	; 0x47ec <__stack+0x7ed>
    47f0:	01 97       	sbiw	r24, 0x01	; 1
    47f2:	d9 f7       	brne	.-10     	; 0x47ea <__stack+0x7eb>
    47f4:	0e 94 a7 13 	call	0x274e	; 0x274e <EngineStatus6>
    47f8:	88 23       	and	r24, r24
    47fa:	e1 f3       	breq	.-8      	; 0x47f4 <__stack+0x7f5>
    47fc:	3c ea       	ldi	r19, 0xAC	; 172
    47fe:	e3 2e       	mov	r14, r19
    4800:	3d e0       	ldi	r19, 0x0D	; 13
    4802:	f3 2e       	mov	r15, r19
    4804:	01 2d       	mov	r16, r1
    4806:	11 2d       	mov	r17, r1
    4808:	e0 92 09 21 	sts	0x2109, r14
    480c:	f0 92 0a 21 	sts	0x210A, r15
    4810:	00 93 0b 21 	sts	0x210B, r16
    4814:	10 93 0c 21 	sts	0x210C, r17
    4818:	28 e5       	ldi	r18, 0x58	; 88
    481a:	32 e0       	ldi	r19, 0x02	; 2
    481c:	40 e0       	ldi	r20, 0x00	; 0
    481e:	50 e0       	ldi	r21, 0x00	; 0
    4820:	20 93 4d 21 	sts	0x214D, r18
    4824:	30 93 4e 21 	sts	0x214E, r19
    4828:	40 93 4f 21 	sts	0x214F, r20
    482c:	50 93 50 21 	sts	0x2150, r21
    4830:	86 ed       	ldi	r24, 0xD6	; 214
    4832:	96 e0       	ldi	r25, 0x06	; 6
    4834:	a0 e0       	ldi	r26, 0x00	; 0
    4836:	b0 e0       	ldi	r27, 0x00	; 0
    4838:	80 93 6b 21 	sts	0x216B, r24
    483c:	90 93 6c 21 	sts	0x216C, r25
    4840:	a0 93 6d 21 	sts	0x216D, r26
    4844:	b0 93 6e 21 	sts	0x216E, r27
    4848:	84 ef       	ldi	r24, 0xF4	; 244
    484a:	91 e0       	ldi	r25, 0x01	; 1
    484c:	a0 e0       	ldi	r26, 0x00	; 0
    484e:	b0 e0       	ldi	r27, 0x00	; 0
    4850:	80 93 af 21 	sts	0x21AF, r24
    4854:	90 93 b0 21 	sts	0x21B0, r25
    4858:	a0 93 b1 21 	sts	0x21B1, r26
    485c:	b0 93 b2 21 	sts	0x21B2, r27
    4860:	80 ed       	ldi	r24, 0xD0	; 208
    4862:	97 e0       	ldi	r25, 0x07	; 7
    4864:	a0 e0       	ldi	r26, 0x00	; 0
    4866:	b0 e0       	ldi	r27, 0x00	; 0
    4868:	80 93 cd 21 	sts	0x21CD, r24
    486c:	90 93 ce 21 	sts	0x21CE, r25
    4870:	a0 93 cf 21 	sts	0x21CF, r26
    4874:	b0 93 d0 21 	sts	0x21D0, r27
    4878:	20 93 11 22 	sts	0x2211, r18
    487c:	30 93 12 22 	sts	0x2212, r19
    4880:	40 93 13 22 	sts	0x2213, r20
    4884:	50 93 14 22 	sts	0x2214, r21
    4888:	e0 92 2f 22 	sts	0x222F, r14
    488c:	f0 92 30 22 	sts	0x2230, r15
    4890:	00 93 31 22 	sts	0x2231, r16
    4894:	10 93 32 22 	sts	0x2232, r17
    4898:	20 93 73 22 	sts	0x2273, r18
    489c:	30 93 74 22 	sts	0x2274, r19
    48a0:	40 93 75 22 	sts	0x2275, r20
    48a4:	50 93 76 22 	sts	0x2276, r21
    48a8:	e0 92 91 22 	sts	0x2291, r14
    48ac:	f0 92 92 22 	sts	0x2292, r15
    48b0:	00 93 93 22 	sts	0x2293, r16
    48b4:	10 93 94 22 	sts	0x2294, r17
    48b8:	20 93 d5 22 	sts	0x22D5, r18
    48bc:	30 93 d6 22 	sts	0x22D6, r19
    48c0:	40 93 d7 22 	sts	0x22D7, r20
    48c4:	50 93 d8 22 	sts	0x22D8, r21
    48c8:	84 ec       	ldi	r24, 0xC4	; 196
    48ca:	99 e0       	ldi	r25, 0x09	; 9
    48cc:	a0 e0       	ldi	r26, 0x00	; 0
    48ce:	b0 e0       	ldi	r27, 0x00	; 0
    48d0:	80 93 f3 22 	sts	0x22F3, r24
    48d4:	90 93 f4 22 	sts	0x22F4, r25
    48d8:	a0 93 f5 22 	sts	0x22F5, r26
    48dc:	b0 93 f6 22 	sts	0x22F6, r27
    48e0:	20 93 37 23 	sts	0x2337, r18
    48e4:	30 93 38 23 	sts	0x2338, r19
    48e8:	40 93 39 23 	sts	0x2339, r20
    48ec:	50 93 3a 23 	sts	0x233A, r21
    48f0:	10 92 f2 20 	sts	0x20F2, r1
    48f4:	10 92 f3 20 	sts	0x20F3, r1
    48f8:	80 91 f2 20 	lds	r24, 0x20F2
    48fc:	90 91 f3 20 	lds	r25, 0x20F3
    4900:	82 58       	subi	r24, 0x82	; 130
    4902:	9f 4b       	sbci	r25, 0xBF	; 191
    4904:	09 f0       	breq	.+2      	; 0x4908 <__stack+0x909>
    4906:	9d c0       	rjmp	.+314    	; 0x4a42 <__stack+0xa43>
    4908:	82 e4       	ldi	r24, 0x42	; 66
    490a:	93 e1       	ldi	r25, 0x13	; 19
    490c:	a0 e0       	ldi	r26, 0x00	; 0
    490e:	b0 e0       	ldi	r27, 0x00	; 0
    4910:	80 93 09 21 	sts	0x2109, r24
    4914:	90 93 0a 21 	sts	0x210A, r25
    4918:	a0 93 0b 21 	sts	0x210B, r26
    491c:	b0 93 0c 21 	sts	0x210C, r27
    4920:	84 e8       	ldi	r24, 0x84	; 132
    4922:	93 e0       	ldi	r25, 0x03	; 3
    4924:	a0 e0       	ldi	r26, 0x00	; 0
    4926:	b0 e0       	ldi	r27, 0x00	; 0
    4928:	80 93 4d 21 	sts	0x214D, r24
    492c:	90 93 4e 21 	sts	0x214E, r25
    4930:	a0 93 4f 21 	sts	0x214F, r26
    4934:	b0 93 50 21 	sts	0x2150, r27
    4938:	84 e6       	ldi	r24, 0x64	; 100
    493a:	90 e0       	ldi	r25, 0x00	; 0
    493c:	20 e2       	ldi	r18, 0x20	; 32
    493e:	33 e0       	ldi	r19, 0x03	; 3
    4940:	f9 01       	movw	r30, r18
    4942:	31 97       	sbiw	r30, 0x01	; 1
    4944:	f1 f7       	brne	.-4      	; 0x4942 <__stack+0x943>
    4946:	01 97       	sbiw	r24, 0x01	; 1
    4948:	d9 f7       	brne	.-10     	; 0x4940 <__stack+0x941>
    494a:	0e 94 a7 13 	call	0x274e	; 0x274e <EngineStatus6>
    494e:	88 23       	and	r24, r24
    4950:	e1 f3       	breq	.-8      	; 0x494a <__stack+0x94b>
    4952:	8a ea       	ldi	r24, 0xAA	; 170
    4954:	9a e0       	ldi	r25, 0x0A	; 10
    4956:	a0 e0       	ldi	r26, 0x00	; 0
    4958:	b0 e0       	ldi	r27, 0x00	; 0
    495a:	80 93 6b 21 	sts	0x216B, r24
    495e:	90 93 6c 21 	sts	0x216C, r25
    4962:	a0 93 6d 21 	sts	0x216D, r26
    4966:	b0 93 6e 21 	sts	0x216E, r27
    496a:	8e e5       	ldi	r24, 0x5E	; 94
    496c:	91 e0       	ldi	r25, 0x01	; 1
    496e:	a0 e0       	ldi	r26, 0x00	; 0
    4970:	b0 e0       	ldi	r27, 0x00	; 0
    4972:	80 93 af 21 	sts	0x21AF, r24
    4976:	90 93 b0 21 	sts	0x21B0, r25
    497a:	a0 93 b1 21 	sts	0x21B1, r26
    497e:	b0 93 b2 21 	sts	0x21B2, r27
    4982:	82 e6       	ldi	r24, 0x62	; 98
    4984:	99 e0       	ldi	r25, 0x09	; 9
    4986:	a0 e0       	ldi	r26, 0x00	; 0
    4988:	b0 e0       	ldi	r27, 0x00	; 0
    498a:	80 93 cd 21 	sts	0x21CD, r24
    498e:	90 93 ce 21 	sts	0x21CE, r25
    4992:	a0 93 cf 21 	sts	0x21CF, r26
    4996:	b0 93 d0 21 	sts	0x21D0, r27
    499a:	80 e9       	ldi	r24, 0x90	; 144
    499c:	91 e0       	ldi	r25, 0x01	; 1
    499e:	a0 e0       	ldi	r26, 0x00	; 0
    49a0:	b0 e0       	ldi	r27, 0x00	; 0
    49a2:	80 93 11 22 	sts	0x2211, r24
    49a6:	90 93 12 22 	sts	0x2212, r25
    49aa:	a0 93 13 22 	sts	0x2213, r26
    49ae:	b0 93 14 22 	sts	0x2214, r27
    49b2:	8c ea       	ldi	r24, 0xAC	; 172
    49b4:	9d e0       	ldi	r25, 0x0D	; 13
    49b6:	a0 e0       	ldi	r26, 0x00	; 0
    49b8:	b0 e0       	ldi	r27, 0x00	; 0
    49ba:	80 93 2f 22 	sts	0x222F, r24
    49be:	90 93 30 22 	sts	0x2230, r25
    49c2:	a0 93 31 22 	sts	0x2231, r26
    49c6:	b0 93 32 22 	sts	0x2232, r27
    49ca:	28 e5       	ldi	r18, 0x58	; 88
    49cc:	32 e0       	ldi	r19, 0x02	; 2
    49ce:	40 e0       	ldi	r20, 0x00	; 0
    49d0:	50 e0       	ldi	r21, 0x00	; 0
    49d2:	20 93 73 22 	sts	0x2273, r18
    49d6:	30 93 74 22 	sts	0x2274, r19
    49da:	40 93 75 22 	sts	0x2275, r20
    49de:	50 93 76 22 	sts	0x2276, r21
    49e2:	86 ea       	ldi	r24, 0xA6	; 166
    49e4:	9e e0       	ldi	r25, 0x0E	; 14
    49e6:	a0 e0       	ldi	r26, 0x00	; 0
    49e8:	b0 e0       	ldi	r27, 0x00	; 0
    49ea:	80 93 91 22 	sts	0x2291, r24
    49ee:	90 93 92 22 	sts	0x2292, r25
    49f2:	a0 93 93 22 	sts	0x2293, r26
    49f6:	b0 93 94 22 	sts	0x2294, r27
    49fa:	8c e2       	ldi	r24, 0x2C	; 44
    49fc:	91 e0       	ldi	r25, 0x01	; 1
    49fe:	a0 e0       	ldi	r26, 0x00	; 0
    4a00:	b0 e0       	ldi	r27, 0x00	; 0
    4a02:	80 93 d5 22 	sts	0x22D5, r24
    4a06:	90 93 d6 22 	sts	0x22D6, r25
    4a0a:	a0 93 d7 22 	sts	0x22D7, r26
    4a0e:	b0 93 d8 22 	sts	0x22D8, r27
    4a12:	84 ec       	ldi	r24, 0xC4	; 196
    4a14:	99 e0       	ldi	r25, 0x09	; 9
    4a16:	a0 e0       	ldi	r26, 0x00	; 0
    4a18:	b0 e0       	ldi	r27, 0x00	; 0
    4a1a:	80 93 f3 22 	sts	0x22F3, r24
    4a1e:	90 93 f4 22 	sts	0x22F4, r25
    4a22:	a0 93 f5 22 	sts	0x22F5, r26
    4a26:	b0 93 f6 22 	sts	0x22F6, r27
    4a2a:	20 93 37 23 	sts	0x2337, r18
    4a2e:	30 93 38 23 	sts	0x2338, r19
    4a32:	40 93 39 23 	sts	0x2339, r20
    4a36:	50 93 3a 23 	sts	0x233A, r21
    4a3a:	10 92 f2 20 	sts	0x20F2, r1
    4a3e:	10 92 f3 20 	sts	0x20F3, r1
    4a42:	80 91 f2 20 	lds	r24, 0x20F2
    4a46:	90 91 f3 20 	lds	r25, 0x20F3
    4a4a:	83 58       	subi	r24, 0x83	; 131
    4a4c:	9f 4b       	sbci	r25, 0xBF	; 191
    4a4e:	09 f0       	breq	.+2      	; 0x4a52 <__stack+0xa53>
    4a50:	30 c1       	rjmp	.+608    	; 0x4cb2 <__stack+0xcb3>
    4a52:	8c ea       	ldi	r24, 0xAC	; 172
    4a54:	9d e0       	ldi	r25, 0x0D	; 13
    4a56:	a0 e0       	ldi	r26, 0x00	; 0
    4a58:	b0 e0       	ldi	r27, 0x00	; 0
    4a5a:	80 93 91 22 	sts	0x2291, r24
    4a5e:	90 93 92 22 	sts	0x2292, r25
    4a62:	a0 93 93 22 	sts	0x2293, r26
    4a66:	b0 93 94 22 	sts	0x2294, r27
    4a6a:	88 ec       	ldi	r24, 0xC8	; 200
    4a6c:	90 e0       	ldi	r25, 0x00	; 0
    4a6e:	a0 e0       	ldi	r26, 0x00	; 0
    4a70:	b0 e0       	ldi	r27, 0x00	; 0
    4a72:	80 93 d5 22 	sts	0x22D5, r24
    4a76:	90 93 d6 22 	sts	0x22D6, r25
    4a7a:	a0 93 d7 22 	sts	0x22D7, r26
    4a7e:	b0 93 d8 22 	sts	0x22D8, r27
    4a82:	86 ed       	ldi	r24, 0xD6	; 214
    4a84:	96 e0       	ldi	r25, 0x06	; 6
    4a86:	a0 e0       	ldi	r26, 0x00	; 0
    4a88:	b0 e0       	ldi	r27, 0x00	; 0
    4a8a:	80 93 6b 21 	sts	0x216B, r24
    4a8e:	90 93 6c 21 	sts	0x216C, r25
    4a92:	a0 93 6d 21 	sts	0x216D, r26
    4a96:	b0 93 6e 21 	sts	0x216E, r27
    4a9a:	84 ef       	ldi	r24, 0xF4	; 244
    4a9c:	91 e0       	ldi	r25, 0x01	; 1
    4a9e:	a0 e0       	ldi	r26, 0x00	; 0
    4aa0:	b0 e0       	ldi	r27, 0x00	; 0
    4aa2:	80 93 af 21 	sts	0x21AF, r24
    4aa6:	90 93 b0 21 	sts	0x21B0, r25
    4aaa:	a0 93 b1 21 	sts	0x21B1, r26
    4aae:	b0 93 b2 21 	sts	0x21B2, r27
    4ab2:	84 e6       	ldi	r24, 0x64	; 100
    4ab4:	90 e0       	ldi	r25, 0x00	; 0
    4ab6:	20 e2       	ldi	r18, 0x20	; 32
    4ab8:	33 e0       	ldi	r19, 0x03	; 3
    4aba:	f9 01       	movw	r30, r18
    4abc:	31 97       	sbiw	r30, 0x01	; 1
    4abe:	f1 f7       	brne	.-4      	; 0x4abc <__stack+0xabd>
    4ac0:	01 97       	sbiw	r24, 0x01	; 1
    4ac2:	d9 f7       	brne	.-10     	; 0x4aba <__stack+0xabb>
    4ac4:	0e 94 a7 13 	call	0x274e	; 0x274e <EngineStatus6>
    4ac8:	88 23       	and	r24, r24
    4aca:	e1 f3       	breq	.-8      	; 0x4ac4 <__stack+0xac5>
    4acc:	2c ea       	ldi	r18, 0xAC	; 172
    4ace:	3d e0       	ldi	r19, 0x0D	; 13
    4ad0:	40 e0       	ldi	r20, 0x00	; 0
    4ad2:	50 e0       	ldi	r21, 0x00	; 0
    4ad4:	20 93 09 21 	sts	0x2109, r18
    4ad8:	30 93 0a 21 	sts	0x210A, r19
    4adc:	40 93 0b 21 	sts	0x210B, r20
    4ae0:	50 93 0c 21 	sts	0x210C, r21
    4ae4:	88 ee       	ldi	r24, 0xE8	; 232
    4ae6:	93 e0       	ldi	r25, 0x03	; 3
    4ae8:	a0 e0       	ldi	r26, 0x00	; 0
    4aea:	b0 e0       	ldi	r27, 0x00	; 0
    4aec:	80 93 4d 21 	sts	0x214D, r24
    4af0:	90 93 4e 21 	sts	0x214E, r25
    4af4:	a0 93 4f 21 	sts	0x214F, r26
    4af8:	b0 93 50 21 	sts	0x2150, r27
    4afc:	80 ed       	ldi	r24, 0xD0	; 208
    4afe:	97 e0       	ldi	r25, 0x07	; 7
    4b00:	a0 e0       	ldi	r26, 0x00	; 0
    4b02:	b0 e0       	ldi	r27, 0x00	; 0
    4b04:	80 93 cd 21 	sts	0x21CD, r24
    4b08:	90 93 ce 21 	sts	0x21CE, r25
    4b0c:	a0 93 cf 21 	sts	0x21CF, r26
    4b10:	b0 93 d0 21 	sts	0x21D0, r27
    4b14:	84 ef       	ldi	r24, 0xF4	; 244
    4b16:	91 e0       	ldi	r25, 0x01	; 1
    4b18:	a0 e0       	ldi	r26, 0x00	; 0
    4b1a:	b0 e0       	ldi	r27, 0x00	; 0
    4b1c:	80 93 11 22 	sts	0x2211, r24
    4b20:	90 93 12 22 	sts	0x2212, r25
    4b24:	a0 93 13 22 	sts	0x2213, r26
    4b28:	b0 93 14 22 	sts	0x2214, r27
    4b2c:	20 93 2f 22 	sts	0x222F, r18
    4b30:	30 93 30 22 	sts	0x2230, r19
    4b34:	40 93 31 22 	sts	0x2231, r20
    4b38:	50 93 32 22 	sts	0x2232, r21
    4b3c:	88 e5       	ldi	r24, 0x58	; 88
    4b3e:	92 e0       	ldi	r25, 0x02	; 2
    4b40:	a0 e0       	ldi	r26, 0x00	; 0
    4b42:	b0 e0       	ldi	r27, 0x00	; 0
    4b44:	80 93 73 22 	sts	0x2273, r24
    4b48:	90 93 74 22 	sts	0x2274, r25
    4b4c:	a0 93 75 22 	sts	0x2275, r26
    4b50:	b0 93 76 22 	sts	0x2276, r27
    4b54:	84 ec       	ldi	r24, 0xC4	; 196
    4b56:	99 e0       	ldi	r25, 0x09	; 9
    4b58:	a0 e0       	ldi	r26, 0x00	; 0
    4b5a:	b0 e0       	ldi	r27, 0x00	; 0
    4b5c:	80 93 f3 22 	sts	0x22F3, r24
    4b60:	90 93 f4 22 	sts	0x22F4, r25
    4b64:	a0 93 f5 22 	sts	0x22F5, r26
    4b68:	b0 93 f6 22 	sts	0x22F6, r27
    4b6c:	8c e2       	ldi	r24, 0x2C	; 44
    4b6e:	91 e0       	ldi	r25, 0x01	; 1
    4b70:	a0 e0       	ldi	r26, 0x00	; 0
    4b72:	b0 e0       	ldi	r27, 0x00	; 0
    4b74:	80 93 37 23 	sts	0x2337, r24
    4b78:	90 93 38 23 	sts	0x2338, r25
    4b7c:	a0 93 39 23 	sts	0x2339, r26
    4b80:	b0 93 3a 23 	sts	0x233A, r27
    4b84:	84 e6       	ldi	r24, 0x64	; 100
    4b86:	90 e0       	ldi	r25, 0x00	; 0
    4b88:	20 e2       	ldi	r18, 0x20	; 32
    4b8a:	33 e0       	ldi	r19, 0x03	; 3
    4b8c:	f9 01       	movw	r30, r18
    4b8e:	31 97       	sbiw	r30, 0x01	; 1
    4b90:	f1 f7       	brne	.-4      	; 0x4b8e <__stack+0xb8f>
    4b92:	01 97       	sbiw	r24, 0x01	; 1
    4b94:	d9 f7       	brne	.-10     	; 0x4b8c <__stack+0xb8d>
    4b96:	0e 94 a7 13 	call	0x274e	; 0x274e <EngineStatus6>
    4b9a:	88 23       	and	r24, r24
    4b9c:	e1 f3       	breq	.-8      	; 0x4b96 <__stack+0xb97>
    4b9e:	2c ea       	ldi	r18, 0xAC	; 172
    4ba0:	e2 2e       	mov	r14, r18
    4ba2:	2d e0       	ldi	r18, 0x0D	; 13
    4ba4:	f2 2e       	mov	r15, r18
    4ba6:	01 2d       	mov	r16, r1
    4ba8:	11 2d       	mov	r17, r1
    4baa:	e0 92 09 21 	sts	0x2109, r14
    4bae:	f0 92 0a 21 	sts	0x210A, r15
    4bb2:	00 93 0b 21 	sts	0x210B, r16
    4bb6:	10 93 0c 21 	sts	0x210C, r17
    4bba:	28 e5       	ldi	r18, 0x58	; 88
    4bbc:	32 e0       	ldi	r19, 0x02	; 2
    4bbe:	40 e0       	ldi	r20, 0x00	; 0
    4bc0:	50 e0       	ldi	r21, 0x00	; 0
    4bc2:	20 93 4d 21 	sts	0x214D, r18
    4bc6:	30 93 4e 21 	sts	0x214E, r19
    4bca:	40 93 4f 21 	sts	0x214F, r20
    4bce:	50 93 50 21 	sts	0x2150, r21
    4bd2:	8c e8       	ldi	r24, 0x8C	; 140
    4bd4:	9a e0       	ldi	r25, 0x0A	; 10
    4bd6:	a0 e0       	ldi	r26, 0x00	; 0
    4bd8:	b0 e0       	ldi	r27, 0x00	; 0
    4bda:	80 93 6b 21 	sts	0x216B, r24
    4bde:	90 93 6c 21 	sts	0x216C, r25
    4be2:	a0 93 6d 21 	sts	0x216D, r26
    4be6:	b0 93 6e 21 	sts	0x216E, r27
    4bea:	80 e9       	ldi	r24, 0x90	; 144
    4bec:	91 e0       	ldi	r25, 0x01	; 1
    4bee:	a0 e0       	ldi	r26, 0x00	; 0
    4bf0:	b0 e0       	ldi	r27, 0x00	; 0
    4bf2:	80 93 af 21 	sts	0x21AF, r24
    4bf6:	90 93 b0 21 	sts	0x21B0, r25
    4bfa:	a0 93 b1 21 	sts	0x21B1, r26
    4bfe:	b0 93 b2 21 	sts	0x21B2, r27
    4c02:	88 e4       	ldi	r24, 0x48	; 72
    4c04:	9d e0       	ldi	r25, 0x0D	; 13
    4c06:	a0 e0       	ldi	r26, 0x00	; 0
    4c08:	b0 e0       	ldi	r27, 0x00	; 0
    4c0a:	80 93 cd 21 	sts	0x21CD, r24
    4c0e:	90 93 ce 21 	sts	0x21CE, r25
    4c12:	a0 93 cf 21 	sts	0x21CF, r26
    4c16:	b0 93 d0 21 	sts	0x21D0, r27
    4c1a:	82 ec       	ldi	r24, 0xC2	; 194
    4c1c:	91 e0       	ldi	r25, 0x01	; 1
    4c1e:	a0 e0       	ldi	r26, 0x00	; 0
    4c20:	b0 e0       	ldi	r27, 0x00	; 0
    4c22:	80 93 11 22 	sts	0x2211, r24
    4c26:	90 93 12 22 	sts	0x2212, r25
    4c2a:	a0 93 13 22 	sts	0x2213, r26
    4c2e:	b0 93 14 22 	sts	0x2214, r27
    4c32:	e0 92 2f 22 	sts	0x222F, r14
    4c36:	f0 92 30 22 	sts	0x2230, r15
    4c3a:	00 93 31 22 	sts	0x2231, r16
    4c3e:	10 93 32 22 	sts	0x2232, r17
    4c42:	20 93 73 22 	sts	0x2273, r18
    4c46:	30 93 74 22 	sts	0x2274, r19
    4c4a:	40 93 75 22 	sts	0x2275, r20
    4c4e:	50 93 76 22 	sts	0x2276, r21
    4c52:	84 e7       	ldi	r24, 0x74	; 116
    4c54:	9e e0       	ldi	r25, 0x0E	; 14
    4c56:	a0 e0       	ldi	r26, 0x00	; 0
    4c58:	b0 e0       	ldi	r27, 0x00	; 0
    4c5a:	80 93 91 22 	sts	0x2291, r24
    4c5e:	90 93 92 22 	sts	0x2292, r25
    4c62:	a0 93 93 22 	sts	0x2293, r26
    4c66:	b0 93 94 22 	sts	0x2294, r27
    4c6a:	88 ec       	ldi	r24, 0xC8	; 200
    4c6c:	90 e0       	ldi	r25, 0x00	; 0
    4c6e:	a0 e0       	ldi	r26, 0x00	; 0
    4c70:	b0 e0       	ldi	r27, 0x00	; 0
    4c72:	80 93 d5 22 	sts	0x22D5, r24
    4c76:	90 93 d6 22 	sts	0x22D6, r25
    4c7a:	a0 93 d7 22 	sts	0x22D7, r26
    4c7e:	b0 93 d8 22 	sts	0x22D8, r27
    4c82:	84 ec       	ldi	r24, 0xC4	; 196
    4c84:	99 e0       	ldi	r25, 0x09	; 9
    4c86:	a0 e0       	ldi	r26, 0x00	; 0
    4c88:	b0 e0       	ldi	r27, 0x00	; 0
    4c8a:	80 93 f3 22 	sts	0x22F3, r24
    4c8e:	90 93 f4 22 	sts	0x22F4, r25
    4c92:	a0 93 f5 22 	sts	0x22F5, r26
    4c96:	b0 93 f6 22 	sts	0x22F6, r27
    4c9a:	20 93 37 23 	sts	0x2337, r18
    4c9e:	30 93 38 23 	sts	0x2338, r19
    4ca2:	40 93 39 23 	sts	0x2339, r20
    4ca6:	50 93 3a 23 	sts	0x233A, r21
    4caa:	10 92 f2 20 	sts	0x20F2, r1
    4cae:	10 92 f3 20 	sts	0x20F3, r1
    4cb2:	80 91 f2 20 	lds	r24, 0x20F2
    4cb6:	90 91 f3 20 	lds	r25, 0x20F3
    4cba:	8a 58       	subi	r24, 0x8A	; 138
    4cbc:	9f 4b       	sbci	r25, 0xBF	; 191
    4cbe:	09 f0       	breq	.+2      	; 0x4cc2 <__stack+0xcc3>
    4cc0:	3f c2       	rjmp	.+1150   	; 0x5140 <__stack+0x1141>
    4cc2:	8c e4       	ldi	r24, 0x4C	; 76
    4cc4:	93 e1       	ldi	r25, 0x13	; 19
    4cc6:	a0 e0       	ldi	r26, 0x00	; 0
    4cc8:	b0 e0       	ldi	r27, 0x00	; 0
    4cca:	80 93 09 21 	sts	0x2109, r24
    4cce:	90 93 0a 21 	sts	0x210A, r25
    4cd2:	a0 93 0b 21 	sts	0x210B, r26
    4cd6:	b0 93 0c 21 	sts	0x210C, r27
    4cda:	28 e5       	ldi	r18, 0x58	; 88
    4cdc:	32 e0       	ldi	r19, 0x02	; 2
    4cde:	40 e0       	ldi	r20, 0x00	; 0
    4ce0:	50 e0       	ldi	r21, 0x00	; 0
    4ce2:	20 93 4d 21 	sts	0x214D, r18
    4ce6:	30 93 4e 21 	sts	0x214E, r19
    4cea:	40 93 4f 21 	sts	0x214F, r20
    4cee:	50 93 50 21 	sts	0x2150, r21
    4cf2:	80 ea       	ldi	r24, 0xA0	; 160
    4cf4:	9a e0       	ldi	r25, 0x0A	; 10
    4cf6:	a0 e0       	ldi	r26, 0x00	; 0
    4cf8:	b0 e0       	ldi	r27, 0x00	; 0
    4cfa:	80 93 6b 21 	sts	0x216B, r24
    4cfe:	90 93 6c 21 	sts	0x216C, r25
    4d02:	a0 93 6d 21 	sts	0x216D, r26
    4d06:	b0 93 6e 21 	sts	0x216E, r27
    4d0a:	20 93 af 21 	sts	0x21AF, r18
    4d0e:	30 93 b0 21 	sts	0x21B0, r19
    4d12:	40 93 b1 21 	sts	0x21B1, r20
    4d16:	50 93 b2 21 	sts	0x21B2, r21
    4d1a:	82 e4       	ldi	r24, 0x42	; 66
    4d1c:	9e e0       	ldi	r25, 0x0E	; 14
    4d1e:	a0 e0       	ldi	r26, 0x00	; 0
    4d20:	b0 e0       	ldi	r27, 0x00	; 0
    4d22:	80 93 cd 21 	sts	0x21CD, r24
    4d26:	90 93 ce 21 	sts	0x21CE, r25
    4d2a:	a0 93 cf 21 	sts	0x21CF, r26
    4d2e:	b0 93 d0 21 	sts	0x21D0, r27
    4d32:	82 ec       	ldi	r24, 0xC2	; 194
    4d34:	91 e0       	ldi	r25, 0x01	; 1
    4d36:	a0 e0       	ldi	r26, 0x00	; 0
    4d38:	b0 e0       	ldi	r27, 0x00	; 0
    4d3a:	80 93 11 22 	sts	0x2211, r24
    4d3e:	90 93 12 22 	sts	0x2212, r25
    4d42:	a0 93 13 22 	sts	0x2213, r26
    4d46:	b0 93 14 22 	sts	0x2214, r27
    4d4a:	87 e6       	ldi	r24, 0x67	; 103
    4d4c:	94 e1       	ldi	r25, 0x14	; 20
    4d4e:	a0 e0       	ldi	r26, 0x00	; 0
    4d50:	b0 e0       	ldi	r27, 0x00	; 0
    4d52:	80 93 2f 22 	sts	0x222F, r24
    4d56:	90 93 30 22 	sts	0x2230, r25
    4d5a:	a0 93 31 22 	sts	0x2231, r26
    4d5e:	b0 93 32 22 	sts	0x2232, r27
    4d62:	20 93 73 22 	sts	0x2273, r18
    4d66:	30 93 74 22 	sts	0x2274, r19
    4d6a:	40 93 75 22 	sts	0x2275, r20
    4d6e:	50 93 76 22 	sts	0x2276, r21
    4d72:	8d e6       	ldi	r24, 0x6D	; 109
    4d74:	90 e1       	ldi	r25, 0x10	; 16
    4d76:	a0 e0       	ldi	r26, 0x00	; 0
    4d78:	b0 e0       	ldi	r27, 0x00	; 0
    4d7a:	80 93 91 22 	sts	0x2291, r24
    4d7e:	90 93 92 22 	sts	0x2292, r25
    4d82:	a0 93 93 22 	sts	0x2293, r26
    4d86:	b0 93 94 22 	sts	0x2294, r27
    4d8a:	8c e2       	ldi	r24, 0x2C	; 44
    4d8c:	91 e0       	ldi	r25, 0x01	; 1
    4d8e:	a0 e0       	ldi	r26, 0x00	; 0
    4d90:	b0 e0       	ldi	r27, 0x00	; 0
    4d92:	80 93 d5 22 	sts	0x22D5, r24
    4d96:	90 93 d6 22 	sts	0x22D6, r25
    4d9a:	a0 93 d7 22 	sts	0x22D7, r26
    4d9e:	b0 93 d8 22 	sts	0x22D8, r27
    4da2:	87 ed       	ldi	r24, 0xD7	; 215
    4da4:	92 e0       	ldi	r25, 0x02	; 2
    4da6:	a0 e0       	ldi	r26, 0x00	; 0
    4da8:	b0 e0       	ldi	r27, 0x00	; 0
    4daa:	80 93 f3 22 	sts	0x22F3, r24
    4dae:	90 93 f4 22 	sts	0x22F4, r25
    4db2:	a0 93 f5 22 	sts	0x22F5, r26
    4db6:	b0 93 f6 22 	sts	0x22F6, r27
    4dba:	88 ec       	ldi	r24, 0xC8	; 200
    4dbc:	90 e0       	ldi	r25, 0x00	; 0
    4dbe:	a0 e0       	ldi	r26, 0x00	; 0
    4dc0:	b0 e0       	ldi	r27, 0x00	; 0
    4dc2:	80 93 37 23 	sts	0x2337, r24
    4dc6:	90 93 38 23 	sts	0x2338, r25
    4dca:	a0 93 39 23 	sts	0x2339, r26
    4dce:	b0 93 3a 23 	sts	0x233A, r27
    4dd2:	80 e2       	ldi	r24, 0x20	; 32
    4dd4:	9e e4       	ldi	r25, 0x4E	; 78
    4dd6:	20 e2       	ldi	r18, 0x20	; 32
    4dd8:	33 e0       	ldi	r19, 0x03	; 3
    4dda:	f9 01       	movw	r30, r18
    4ddc:	31 97       	sbiw	r30, 0x01	; 1
    4dde:	f1 f7       	brne	.-4      	; 0x4ddc <__stack+0xddd>
    4de0:	01 97       	sbiw	r24, 0x01	; 1
    4de2:	d9 f7       	brne	.-10     	; 0x4dda <__stack+0xddb>
    4de4:	0e 94 a7 13 	call	0x274e	; 0x274e <EngineStatus6>
    4de8:	88 23       	and	r24, r24
    4dea:	e1 f3       	breq	.-8      	; 0x4de4 <__stack+0xde5>
    4dec:	2c ea       	ldi	r18, 0xAC	; 172
    4dee:	3d e0       	ldi	r19, 0x0D	; 13
    4df0:	40 e0       	ldi	r20, 0x00	; 0
    4df2:	50 e0       	ldi	r21, 0x00	; 0
    4df4:	20 93 09 21 	sts	0x2109, r18
    4df8:	30 93 0a 21 	sts	0x210A, r19
    4dfc:	40 93 0b 21 	sts	0x210B, r20
    4e00:	50 93 0c 21 	sts	0x210C, r21
    4e04:	8c eb       	ldi	r24, 0xBC	; 188
    4e06:	92 e0       	ldi	r25, 0x02	; 2
    4e08:	a0 e0       	ldi	r26, 0x00	; 0
    4e0a:	b0 e0       	ldi	r27, 0x00	; 0
    4e0c:	80 93 4d 21 	sts	0x214D, r24
    4e10:	90 93 4e 21 	sts	0x214E, r25
    4e14:	a0 93 4f 21 	sts	0x214F, r26
    4e18:	b0 93 50 21 	sts	0x2150, r27
    4e1c:	86 ed       	ldi	r24, 0xD6	; 214
    4e1e:	96 e0       	ldi	r25, 0x06	; 6
    4e20:	a0 e0       	ldi	r26, 0x00	; 0
    4e22:	b0 e0       	ldi	r27, 0x00	; 0
    4e24:	80 93 6b 21 	sts	0x216B, r24
    4e28:	90 93 6c 21 	sts	0x216C, r25
    4e2c:	a0 93 6d 21 	sts	0x216D, r26
    4e30:	b0 93 6e 21 	sts	0x216E, r27
    4e34:	84 ef       	ldi	r24, 0xF4	; 244
    4e36:	91 e0       	ldi	r25, 0x01	; 1
    4e38:	a0 e0       	ldi	r26, 0x00	; 0
    4e3a:	b0 e0       	ldi	r27, 0x00	; 0
    4e3c:	80 93 af 21 	sts	0x21AF, r24
    4e40:	90 93 b0 21 	sts	0x21B0, r25
    4e44:	a0 93 b1 21 	sts	0x21B1, r26
    4e48:	b0 93 b2 21 	sts	0x21B2, r27
    4e4c:	80 ed       	ldi	r24, 0xD0	; 208
    4e4e:	97 e0       	ldi	r25, 0x07	; 7
    4e50:	a0 e0       	ldi	r26, 0x00	; 0
    4e52:	b0 e0       	ldi	r27, 0x00	; 0
    4e54:	80 93 cd 21 	sts	0x21CD, r24
    4e58:	90 93 ce 21 	sts	0x21CE, r25
    4e5c:	a0 93 cf 21 	sts	0x21CF, r26
    4e60:	b0 93 d0 21 	sts	0x21D0, r27
    4e64:	88 e5       	ldi	r24, 0x58	; 88
    4e66:	92 e0       	ldi	r25, 0x02	; 2
    4e68:	a0 e0       	ldi	r26, 0x00	; 0
    4e6a:	b0 e0       	ldi	r27, 0x00	; 0
    4e6c:	80 93 11 22 	sts	0x2211, r24
    4e70:	90 93 12 22 	sts	0x2212, r25
    4e74:	a0 93 13 22 	sts	0x2213, r26
    4e78:	b0 93 14 22 	sts	0x2214, r27
    4e7c:	20 93 2f 22 	sts	0x222F, r18
    4e80:	30 93 30 22 	sts	0x2230, r19
    4e84:	40 93 31 22 	sts	0x2231, r20
    4e88:	50 93 32 22 	sts	0x2232, r21
    4e8c:	80 93 73 22 	sts	0x2273, r24
    4e90:	90 93 74 22 	sts	0x2274, r25
    4e94:	a0 93 75 22 	sts	0x2275, r26
    4e98:	b0 93 76 22 	sts	0x2276, r27
    4e9c:	20 93 91 22 	sts	0x2291, r18
    4ea0:	30 93 92 22 	sts	0x2292, r19
    4ea4:	40 93 93 22 	sts	0x2293, r20
    4ea8:	50 93 94 22 	sts	0x2294, r21
    4eac:	28 ec       	ldi	r18, 0xC8	; 200
    4eae:	30 e0       	ldi	r19, 0x00	; 0
    4eb0:	40 e0       	ldi	r20, 0x00	; 0
    4eb2:	50 e0       	ldi	r21, 0x00	; 0
    4eb4:	20 93 d5 22 	sts	0x22D5, r18
    4eb8:	30 93 d6 22 	sts	0x22D6, r19
    4ebc:	40 93 d7 22 	sts	0x22D7, r20
    4ec0:	50 93 d8 22 	sts	0x22D8, r21
    4ec4:	84 ec       	ldi	r24, 0xC4	; 196
    4ec6:	99 e0       	ldi	r25, 0x09	; 9
    4ec8:	a0 e0       	ldi	r26, 0x00	; 0
    4eca:	b0 e0       	ldi	r27, 0x00	; 0
    4ecc:	80 93 f3 22 	sts	0x22F3, r24
    4ed0:	90 93 f4 22 	sts	0x22F4, r25
    4ed4:	a0 93 f5 22 	sts	0x22F5, r26
    4ed8:	b0 93 f6 22 	sts	0x22F6, r27
    4edc:	20 93 37 23 	sts	0x2337, r18
    4ee0:	30 93 38 23 	sts	0x2338, r19
    4ee4:	40 93 39 23 	sts	0x2339, r20
    4ee8:	50 93 3a 23 	sts	0x233A, r21
    4eec:	84 e6       	ldi	r24, 0x64	; 100
    4eee:	90 e0       	ldi	r25, 0x00	; 0
    4ef0:	20 e2       	ldi	r18, 0x20	; 32
    4ef2:	33 e0       	ldi	r19, 0x03	; 3
    4ef4:	f9 01       	movw	r30, r18
    4ef6:	31 97       	sbiw	r30, 0x01	; 1
    4ef8:	f1 f7       	brne	.-4      	; 0x4ef6 <__stack+0xef7>
    4efa:	01 97       	sbiw	r24, 0x01	; 1
    4efc:	d9 f7       	brne	.-10     	; 0x4ef4 <__stack+0xef5>
    4efe:	0e 94 a7 13 	call	0x274e	; 0x274e <EngineStatus6>
    4f02:	88 23       	and	r24, r24
    4f04:	e1 f3       	breq	.-8      	; 0x4efe <__stack+0xeff>
    4f06:	84 e3       	ldi	r24, 0x34	; 52
    4f08:	98 e0       	ldi	r25, 0x08	; 8
    4f0a:	a0 e0       	ldi	r26, 0x00	; 0
    4f0c:	b0 e0       	ldi	r27, 0x00	; 0
    4f0e:	80 93 09 21 	sts	0x2109, r24
    4f12:	90 93 0a 21 	sts	0x210A, r25
    4f16:	a0 93 0b 21 	sts	0x210B, r26
    4f1a:	b0 93 0c 21 	sts	0x210C, r27
    4f1e:	80 e2       	ldi	r24, 0x20	; 32
    4f20:	93 e0       	ldi	r25, 0x03	; 3
    4f22:	a0 e0       	ldi	r26, 0x00	; 0
    4f24:	b0 e0       	ldi	r27, 0x00	; 0
    4f26:	80 93 4d 21 	sts	0x214D, r24
    4f2a:	90 93 4e 21 	sts	0x214E, r25
    4f2e:	a0 93 4f 21 	sts	0x214F, r26
    4f32:	b0 93 50 21 	sts	0x2150, r27
    4f36:	80 ea       	ldi	r24, 0xA0	; 160
    4f38:	9a e0       	ldi	r25, 0x0A	; 10
    4f3a:	a0 e0       	ldi	r26, 0x00	; 0
    4f3c:	b0 e0       	ldi	r27, 0x00	; 0
    4f3e:	80 93 6b 21 	sts	0x216B, r24
    4f42:	90 93 6c 21 	sts	0x216C, r25
    4f46:	a0 93 6d 21 	sts	0x216D, r26
    4f4a:	b0 93 6e 21 	sts	0x216E, r27
    4f4e:	28 e5       	ldi	r18, 0x58	; 88
    4f50:	32 e0       	ldi	r19, 0x02	; 2
    4f52:	40 e0       	ldi	r20, 0x00	; 0
    4f54:	50 e0       	ldi	r21, 0x00	; 0
    4f56:	20 93 af 21 	sts	0x21AF, r18
    4f5a:	30 93 b0 21 	sts	0x21B0, r19
    4f5e:	40 93 b1 21 	sts	0x21B1, r20
    4f62:	50 93 b2 21 	sts	0x21B2, r21
    4f66:	82 e4       	ldi	r24, 0x42	; 66
    4f68:	9e e0       	ldi	r25, 0x0E	; 14
    4f6a:	a0 e0       	ldi	r26, 0x00	; 0
    4f6c:	b0 e0       	ldi	r27, 0x00	; 0
    4f6e:	80 93 cd 21 	sts	0x21CD, r24
    4f72:	90 93 ce 21 	sts	0x21CE, r25
    4f76:	a0 93 cf 21 	sts	0x21CF, r26
    4f7a:	b0 93 d0 21 	sts	0x21D0, r27
    4f7e:	82 ec       	ldi	r24, 0xC2	; 194
    4f80:	91 e0       	ldi	r25, 0x01	; 1
    4f82:	a0 e0       	ldi	r26, 0x00	; 0
    4f84:	b0 e0       	ldi	r27, 0x00	; 0
    4f86:	80 93 11 22 	sts	0x2211, r24
    4f8a:	90 93 12 22 	sts	0x2212, r25
    4f8e:	a0 93 13 22 	sts	0x2213, r26
    4f92:	b0 93 14 22 	sts	0x2214, r27
    4f96:	87 e6       	ldi	r24, 0x67	; 103
    4f98:	94 e1       	ldi	r25, 0x14	; 20
    4f9a:	a0 e0       	ldi	r26, 0x00	; 0
    4f9c:	b0 e0       	ldi	r27, 0x00	; 0
    4f9e:	80 93 2f 22 	sts	0x222F, r24
    4fa2:	90 93 30 22 	sts	0x2230, r25
    4fa6:	a0 93 31 22 	sts	0x2231, r26
    4faa:	b0 93 32 22 	sts	0x2232, r27
    4fae:	20 93 73 22 	sts	0x2273, r18
    4fb2:	30 93 74 22 	sts	0x2274, r19
    4fb6:	40 93 75 22 	sts	0x2275, r20
    4fba:	50 93 76 22 	sts	0x2276, r21
    4fbe:	8d e6       	ldi	r24, 0x6D	; 109
    4fc0:	90 e1       	ldi	r25, 0x10	; 16
    4fc2:	a0 e0       	ldi	r26, 0x00	; 0
    4fc4:	b0 e0       	ldi	r27, 0x00	; 0
    4fc6:	80 93 91 22 	sts	0x2291, r24
    4fca:	90 93 92 22 	sts	0x2292, r25
    4fce:	a0 93 93 22 	sts	0x2293, r26
    4fd2:	b0 93 94 22 	sts	0x2294, r27
    4fd6:	8c e2       	ldi	r24, 0x2C	; 44
    4fd8:	91 e0       	ldi	r25, 0x01	; 1
    4fda:	a0 e0       	ldi	r26, 0x00	; 0
    4fdc:	b0 e0       	ldi	r27, 0x00	; 0
    4fde:	80 93 d5 22 	sts	0x22D5, r24
    4fe2:	90 93 d6 22 	sts	0x22D6, r25
    4fe6:	a0 93 d7 22 	sts	0x22D7, r26
    4fea:	b0 93 d8 22 	sts	0x22D8, r27
    4fee:	87 ed       	ldi	r24, 0xD7	; 215
    4ff0:	92 e0       	ldi	r25, 0x02	; 2
    4ff2:	a0 e0       	ldi	r26, 0x00	; 0
    4ff4:	b0 e0       	ldi	r27, 0x00	; 0
    4ff6:	80 93 f3 22 	sts	0x22F3, r24
    4ffa:	90 93 f4 22 	sts	0x22F4, r25
    4ffe:	a0 93 f5 22 	sts	0x22F5, r26
    5002:	b0 93 f6 22 	sts	0x22F6, r27
    5006:	88 ec       	ldi	r24, 0xC8	; 200
    5008:	90 e0       	ldi	r25, 0x00	; 0
    500a:	a0 e0       	ldi	r26, 0x00	; 0
    500c:	b0 e0       	ldi	r27, 0x00	; 0
    500e:	80 93 37 23 	sts	0x2337, r24
    5012:	90 93 38 23 	sts	0x2338, r25
    5016:	a0 93 39 23 	sts	0x2339, r26
    501a:	b0 93 3a 23 	sts	0x233A, r27
    501e:	80 e2       	ldi	r24, 0x20	; 32
    5020:	9e e4       	ldi	r25, 0x4E	; 78
    5022:	20 e2       	ldi	r18, 0x20	; 32
    5024:	33 e0       	ldi	r19, 0x03	; 3
    5026:	f9 01       	movw	r30, r18
    5028:	31 97       	sbiw	r30, 0x01	; 1
    502a:	f1 f7       	brne	.-4      	; 0x5028 <__stack+0x1029>
    502c:	01 97       	sbiw	r24, 0x01	; 1
    502e:	d9 f7       	brne	.-10     	; 0x5026 <__stack+0x1027>
    5030:	0e 94 a7 13 	call	0x274e	; 0x274e <EngineStatus6>
    5034:	88 23       	and	r24, r24
    5036:	e1 f3       	breq	.-8      	; 0x5030 <__stack+0x1031>
    5038:	2c ea       	ldi	r18, 0xAC	; 172
    503a:	3d e0       	ldi	r19, 0x0D	; 13
    503c:	40 e0       	ldi	r20, 0x00	; 0
    503e:	50 e0       	ldi	r21, 0x00	; 0
    5040:	20 93 09 21 	sts	0x2109, r18
    5044:	30 93 0a 21 	sts	0x210A, r19
    5048:	40 93 0b 21 	sts	0x210B, r20
    504c:	50 93 0c 21 	sts	0x210C, r21
    5050:	8c eb       	ldi	r24, 0xBC	; 188
    5052:	92 e0       	ldi	r25, 0x02	; 2
    5054:	a0 e0       	ldi	r26, 0x00	; 0
    5056:	b0 e0       	ldi	r27, 0x00	; 0
    5058:	80 93 4d 21 	sts	0x214D, r24
    505c:	90 93 4e 21 	sts	0x214E, r25
    5060:	a0 93 4f 21 	sts	0x214F, r26
    5064:	b0 93 50 21 	sts	0x2150, r27
    5068:	86 ed       	ldi	r24, 0xD6	; 214
    506a:	96 e0       	ldi	r25, 0x06	; 6
    506c:	a0 e0       	ldi	r26, 0x00	; 0
    506e:	b0 e0       	ldi	r27, 0x00	; 0
    5070:	80 93 6b 21 	sts	0x216B, r24
    5074:	90 93 6c 21 	sts	0x216C, r25
    5078:	a0 93 6d 21 	sts	0x216D, r26
    507c:	b0 93 6e 21 	sts	0x216E, r27
    5080:	84 ef       	ldi	r24, 0xF4	; 244
    5082:	91 e0       	ldi	r25, 0x01	; 1
    5084:	a0 e0       	ldi	r26, 0x00	; 0
    5086:	b0 e0       	ldi	r27, 0x00	; 0
    5088:	80 93 af 21 	sts	0x21AF, r24
    508c:	90 93 b0 21 	sts	0x21B0, r25
    5090:	a0 93 b1 21 	sts	0x21B1, r26
    5094:	b0 93 b2 21 	sts	0x21B2, r27
    5098:	80 ed       	ldi	r24, 0xD0	; 208
    509a:	97 e0       	ldi	r25, 0x07	; 7
    509c:	a0 e0       	ldi	r26, 0x00	; 0
    509e:	b0 e0       	ldi	r27, 0x00	; 0
    50a0:	80 93 cd 21 	sts	0x21CD, r24
    50a4:	90 93 ce 21 	sts	0x21CE, r25
    50a8:	a0 93 cf 21 	sts	0x21CF, r26
    50ac:	b0 93 d0 21 	sts	0x21D0, r27
    50b0:	88 e5       	ldi	r24, 0x58	; 88
    50b2:	92 e0       	ldi	r25, 0x02	; 2
    50b4:	a0 e0       	ldi	r26, 0x00	; 0
    50b6:	b0 e0       	ldi	r27, 0x00	; 0
    50b8:	80 93 11 22 	sts	0x2211, r24
    50bc:	90 93 12 22 	sts	0x2212, r25
    50c0:	a0 93 13 22 	sts	0x2213, r26
    50c4:	b0 93 14 22 	sts	0x2214, r27
    50c8:	20 93 2f 22 	sts	0x222F, r18
    50cc:	30 93 30 22 	sts	0x2230, r19
    50d0:	40 93 31 22 	sts	0x2231, r20
    50d4:	50 93 32 22 	sts	0x2232, r21
    50d8:	80 93 73 22 	sts	0x2273, r24
    50dc:	90 93 74 22 	sts	0x2274, r25
    50e0:	a0 93 75 22 	sts	0x2275, r26
    50e4:	b0 93 76 22 	sts	0x2276, r27
    50e8:	20 93 91 22 	sts	0x2291, r18
    50ec:	30 93 92 22 	sts	0x2292, r19
    50f0:	40 93 93 22 	sts	0x2293, r20
    50f4:	50 93 94 22 	sts	0x2294, r21
    50f8:	28 ec       	ldi	r18, 0xC8	; 200
    50fa:	30 e0       	ldi	r19, 0x00	; 0
    50fc:	40 e0       	ldi	r20, 0x00	; 0
    50fe:	50 e0       	ldi	r21, 0x00	; 0
    5100:	20 93 d5 22 	sts	0x22D5, r18
    5104:	30 93 d6 22 	sts	0x22D6, r19
    5108:	40 93 d7 22 	sts	0x22D7, r20
    510c:	50 93 d8 22 	sts	0x22D8, r21
    5110:	84 ec       	ldi	r24, 0xC4	; 196
    5112:	99 e0       	ldi	r25, 0x09	; 9
    5114:	a0 e0       	ldi	r26, 0x00	; 0
    5116:	b0 e0       	ldi	r27, 0x00	; 0
    5118:	80 93 f3 22 	sts	0x22F3, r24
    511c:	90 93 f4 22 	sts	0x22F4, r25
    5120:	a0 93 f5 22 	sts	0x22F5, r26
    5124:	b0 93 f6 22 	sts	0x22F6, r27
    5128:	20 93 37 23 	sts	0x2337, r18
    512c:	30 93 38 23 	sts	0x2338, r19
    5130:	40 93 39 23 	sts	0x2339, r20
    5134:	50 93 3a 23 	sts	0x233A, r21
    5138:	10 92 f2 20 	sts	0x20F2, r1
    513c:	10 92 f3 20 	sts	0x20F3, r1
    5140:	80 91 f2 20 	lds	r24, 0x20F2
    5144:	90 91 f3 20 	lds	r25, 0x20F3
    5148:	84 58       	subi	r24, 0x84	; 132
    514a:	9f 4b       	sbci	r25, 0xBF	; 191
    514c:	29 f5       	brne	.+74     	; 0x5198 <__stack+0x1199>
    514e:	10 92 ea 20 	sts	0x20EA, r1
    5152:	80 91 ea 20 	lds	r24, 0x20EA
    5156:	90 e0       	ldi	r25, 0x00	; 0
    5158:	22 e6       	ldi	r18, 0x62	; 98
    515a:	30 e0       	ldi	r19, 0x00	; 0
    515c:	82 9f       	mul	r24, r18
    515e:	f0 01       	movw	r30, r0
    5160:	83 9f       	mul	r24, r19
    5162:	f0 0d       	add	r31, r0
    5164:	92 9f       	mul	r25, r18
    5166:	f0 0d       	add	r31, r0
    5168:	11 24       	eor	r1, r1
    516a:	ef 5f       	subi	r30, 0xFF	; 255
    516c:	fe 4d       	sbci	r31, 0xDE	; 222
    516e:	80 85       	ldd	r24, Z+8	; 0x08
    5170:	91 85       	ldd	r25, Z+9	; 0x09
    5172:	a2 85       	ldd	r26, Z+10	; 0x0a
    5174:	b3 85       	ldd	r27, Z+11	; 0x0b
    5176:	8c 59       	subi	r24, 0x9C	; 156
    5178:	9f 4f       	sbci	r25, 0xFF	; 255
    517a:	af 4f       	sbci	r26, 0xFF	; 255
    517c:	bf 4f       	sbci	r27, 0xFF	; 255
    517e:	80 87       	std	Z+8, r24	; 0x08
    5180:	91 87       	std	Z+9, r25	; 0x09
    5182:	a2 87       	std	Z+10, r26	; 0x0a
    5184:	b3 87       	std	Z+11, r27	; 0x0b
    5186:	87 e0       	ldi	r24, 0x07	; 7
    5188:	80 93 00 08 	sts	0x0800, r24
    518c:	80 93 40 09 	sts	0x0940, r24
    5190:	10 92 f2 20 	sts	0x20F2, r1
    5194:	10 92 f3 20 	sts	0x20F3, r1
    5198:	80 91 f2 20 	lds	r24, 0x20F2
    519c:	90 91 f3 20 	lds	r25, 0x20F3
    51a0:	85 58       	subi	r24, 0x85	; 133
    51a2:	9f 4b       	sbci	r25, 0xBF	; 191
    51a4:	31 f5       	brne	.+76     	; 0x51f2 <__stack+0x11f3>
    51a6:	81 e0       	ldi	r24, 0x01	; 1
    51a8:	80 93 ea 20 	sts	0x20EA, r24
    51ac:	80 91 ea 20 	lds	r24, 0x20EA
    51b0:	90 e0       	ldi	r25, 0x00	; 0
    51b2:	22 e6       	ldi	r18, 0x62	; 98
    51b4:	30 e0       	ldi	r19, 0x00	; 0
    51b6:	82 9f       	mul	r24, r18
    51b8:	f0 01       	movw	r30, r0
    51ba:	83 9f       	mul	r24, r19
    51bc:	f0 0d       	add	r31, r0
    51be:	92 9f       	mul	r25, r18
    51c0:	f0 0d       	add	r31, r0
    51c2:	11 24       	eor	r1, r1
    51c4:	ef 5f       	subi	r30, 0xFF	; 255
    51c6:	fe 4d       	sbci	r31, 0xDE	; 222
    51c8:	80 85       	ldd	r24, Z+8	; 0x08
    51ca:	91 85       	ldd	r25, Z+9	; 0x09
    51cc:	a2 85       	ldd	r26, Z+10	; 0x0a
    51ce:	b3 85       	ldd	r27, Z+11	; 0x0b
    51d0:	8c 59       	subi	r24, 0x9C	; 156
    51d2:	9f 4f       	sbci	r25, 0xFF	; 255
    51d4:	af 4f       	sbci	r26, 0xFF	; 255
    51d6:	bf 4f       	sbci	r27, 0xFF	; 255
    51d8:	80 87       	std	Z+8, r24	; 0x08
    51da:	91 87       	std	Z+9, r25	; 0x09
    51dc:	a2 87       	std	Z+10, r26	; 0x0a
    51de:	b3 87       	std	Z+11, r27	; 0x0b
    51e0:	87 e0       	ldi	r24, 0x07	; 7
    51e2:	80 93 00 08 	sts	0x0800, r24
    51e6:	80 93 40 09 	sts	0x0940, r24
    51ea:	10 92 f2 20 	sts	0x20F2, r1
    51ee:	10 92 f3 20 	sts	0x20F3, r1
    51f2:	80 91 f2 20 	lds	r24, 0x20F2
    51f6:	90 91 f3 20 	lds	r25, 0x20F3
    51fa:	86 58       	subi	r24, 0x86	; 134
    51fc:	9f 4b       	sbci	r25, 0xBF	; 191
    51fe:	31 f5       	brne	.+76     	; 0x524c <__stack+0x124d>
    5200:	82 e0       	ldi	r24, 0x02	; 2
    5202:	80 93 ea 20 	sts	0x20EA, r24
    5206:	80 91 ea 20 	lds	r24, 0x20EA
    520a:	90 e0       	ldi	r25, 0x00	; 0
    520c:	22 e6       	ldi	r18, 0x62	; 98
    520e:	30 e0       	ldi	r19, 0x00	; 0
    5210:	82 9f       	mul	r24, r18
    5212:	f0 01       	movw	r30, r0
    5214:	83 9f       	mul	r24, r19
    5216:	f0 0d       	add	r31, r0
    5218:	92 9f       	mul	r25, r18
    521a:	f0 0d       	add	r31, r0
    521c:	11 24       	eor	r1, r1
    521e:	ef 5f       	subi	r30, 0xFF	; 255
    5220:	fe 4d       	sbci	r31, 0xDE	; 222
    5222:	80 85       	ldd	r24, Z+8	; 0x08
    5224:	91 85       	ldd	r25, Z+9	; 0x09
    5226:	a2 85       	ldd	r26, Z+10	; 0x0a
    5228:	b3 85       	ldd	r27, Z+11	; 0x0b
    522a:	8c 59       	subi	r24, 0x9C	; 156
    522c:	9f 4f       	sbci	r25, 0xFF	; 255
    522e:	af 4f       	sbci	r26, 0xFF	; 255
    5230:	bf 4f       	sbci	r27, 0xFF	; 255
    5232:	80 87       	std	Z+8, r24	; 0x08
    5234:	91 87       	std	Z+9, r25	; 0x09
    5236:	a2 87       	std	Z+10, r26	; 0x0a
    5238:	b3 87       	std	Z+11, r27	; 0x0b
    523a:	87 e0       	ldi	r24, 0x07	; 7
    523c:	80 93 00 08 	sts	0x0800, r24
    5240:	80 93 40 09 	sts	0x0940, r24
    5244:	10 92 f2 20 	sts	0x20F2, r1
    5248:	10 92 f3 20 	sts	0x20F3, r1
    524c:	80 91 f2 20 	lds	r24, 0x20F2
    5250:	90 91 f3 20 	lds	r25, 0x20F3
    5254:	87 58       	subi	r24, 0x87	; 135
    5256:	9f 4b       	sbci	r25, 0xBF	; 191
    5258:	31 f5       	brne	.+76     	; 0x52a6 <__stack+0x12a7>
    525a:	83 e0       	ldi	r24, 0x03	; 3
    525c:	80 93 ea 20 	sts	0x20EA, r24
    5260:	80 91 ea 20 	lds	r24, 0x20EA
    5264:	90 e0       	ldi	r25, 0x00	; 0
    5266:	22 e6       	ldi	r18, 0x62	; 98
    5268:	30 e0       	ldi	r19, 0x00	; 0
    526a:	82 9f       	mul	r24, r18
    526c:	f0 01       	movw	r30, r0
    526e:	83 9f       	mul	r24, r19
    5270:	f0 0d       	add	r31, r0
    5272:	92 9f       	mul	r25, r18
    5274:	f0 0d       	add	r31, r0
    5276:	11 24       	eor	r1, r1
    5278:	ef 5f       	subi	r30, 0xFF	; 255
    527a:	fe 4d       	sbci	r31, 0xDE	; 222
    527c:	80 85       	ldd	r24, Z+8	; 0x08
    527e:	91 85       	ldd	r25, Z+9	; 0x09
    5280:	a2 85       	ldd	r26, Z+10	; 0x0a
    5282:	b3 85       	ldd	r27, Z+11	; 0x0b
    5284:	8c 59       	subi	r24, 0x9C	; 156
    5286:	9f 4f       	sbci	r25, 0xFF	; 255
    5288:	af 4f       	sbci	r26, 0xFF	; 255
    528a:	bf 4f       	sbci	r27, 0xFF	; 255
    528c:	80 87       	std	Z+8, r24	; 0x08
    528e:	91 87       	std	Z+9, r25	; 0x09
    5290:	a2 87       	std	Z+10, r26	; 0x0a
    5292:	b3 87       	std	Z+11, r27	; 0x0b
    5294:	87 e0       	ldi	r24, 0x07	; 7
    5296:	80 93 00 08 	sts	0x0800, r24
    529a:	80 93 40 09 	sts	0x0940, r24
    529e:	10 92 f2 20 	sts	0x20F2, r1
    52a2:	10 92 f3 20 	sts	0x20F3, r1
    52a6:	80 91 f2 20 	lds	r24, 0x20F2
    52aa:	90 91 f3 20 	lds	r25, 0x20F3
    52ae:	88 58       	subi	r24, 0x88	; 136
    52b0:	9f 4b       	sbci	r25, 0xBF	; 191
    52b2:	31 f5       	brne	.+76     	; 0x5300 <__stack+0x1301>
    52b4:	84 e0       	ldi	r24, 0x04	; 4
    52b6:	80 93 ea 20 	sts	0x20EA, r24
    52ba:	80 91 ea 20 	lds	r24, 0x20EA
    52be:	90 e0       	ldi	r25, 0x00	; 0
    52c0:	22 e6       	ldi	r18, 0x62	; 98
    52c2:	30 e0       	ldi	r19, 0x00	; 0
    52c4:	82 9f       	mul	r24, r18
    52c6:	f0 01       	movw	r30, r0
    52c8:	83 9f       	mul	r24, r19
    52ca:	f0 0d       	add	r31, r0
    52cc:	92 9f       	mul	r25, r18
    52ce:	f0 0d       	add	r31, r0
    52d0:	11 24       	eor	r1, r1
    52d2:	ef 5f       	subi	r30, 0xFF	; 255
    52d4:	fe 4d       	sbci	r31, 0xDE	; 222
    52d6:	80 85       	ldd	r24, Z+8	; 0x08
    52d8:	91 85       	ldd	r25, Z+9	; 0x09
    52da:	a2 85       	ldd	r26, Z+10	; 0x0a
    52dc:	b3 85       	ldd	r27, Z+11	; 0x0b
    52de:	8c 59       	subi	r24, 0x9C	; 156
    52e0:	9f 4f       	sbci	r25, 0xFF	; 255
    52e2:	af 4f       	sbci	r26, 0xFF	; 255
    52e4:	bf 4f       	sbci	r27, 0xFF	; 255
    52e6:	80 87       	std	Z+8, r24	; 0x08
    52e8:	91 87       	std	Z+9, r25	; 0x09
    52ea:	a2 87       	std	Z+10, r26	; 0x0a
    52ec:	b3 87       	std	Z+11, r27	; 0x0b
    52ee:	87 e0       	ldi	r24, 0x07	; 7
    52f0:	80 93 00 08 	sts	0x0800, r24
    52f4:	80 93 40 09 	sts	0x0940, r24
    52f8:	10 92 f2 20 	sts	0x20F2, r1
    52fc:	10 92 f3 20 	sts	0x20F3, r1
    5300:	80 91 f2 20 	lds	r24, 0x20F2
    5304:	90 91 f3 20 	lds	r25, 0x20F3
    5308:	89 58       	subi	r24, 0x89	; 137
    530a:	9f 4b       	sbci	r25, 0xBF	; 191
    530c:	31 f5       	brne	.+76     	; 0x535a <__stack+0x135b>
    530e:	85 e0       	ldi	r24, 0x05	; 5
    5310:	80 93 ea 20 	sts	0x20EA, r24
    5314:	80 91 ea 20 	lds	r24, 0x20EA
    5318:	90 e0       	ldi	r25, 0x00	; 0
    531a:	22 e6       	ldi	r18, 0x62	; 98
    531c:	30 e0       	ldi	r19, 0x00	; 0
    531e:	82 9f       	mul	r24, r18
    5320:	f0 01       	movw	r30, r0
    5322:	83 9f       	mul	r24, r19
    5324:	f0 0d       	add	r31, r0
    5326:	92 9f       	mul	r25, r18
    5328:	f0 0d       	add	r31, r0
    532a:	11 24       	eor	r1, r1
    532c:	ef 5f       	subi	r30, 0xFF	; 255
    532e:	fe 4d       	sbci	r31, 0xDE	; 222
    5330:	80 85       	ldd	r24, Z+8	; 0x08
    5332:	91 85       	ldd	r25, Z+9	; 0x09
    5334:	a2 85       	ldd	r26, Z+10	; 0x0a
    5336:	b3 85       	ldd	r27, Z+11	; 0x0b
    5338:	8c 59       	subi	r24, 0x9C	; 156
    533a:	9f 4f       	sbci	r25, 0xFF	; 255
    533c:	af 4f       	sbci	r26, 0xFF	; 255
    533e:	bf 4f       	sbci	r27, 0xFF	; 255
    5340:	80 87       	std	Z+8, r24	; 0x08
    5342:	91 87       	std	Z+9, r25	; 0x09
    5344:	a2 87       	std	Z+10, r26	; 0x0a
    5346:	b3 87       	std	Z+11, r27	; 0x0b
    5348:	87 e0       	ldi	r24, 0x07	; 7
    534a:	80 93 00 08 	sts	0x0800, r24
    534e:	80 93 40 09 	sts	0x0940, r24
    5352:	10 92 f2 20 	sts	0x20F2, r1
    5356:	10 92 f3 20 	sts	0x20F3, r1
    535a:	df 91       	pop	r29
    535c:	cf 91       	pop	r28
    535e:	1f 91       	pop	r17
    5360:	0f 91       	pop	r16
    5362:	ff 90       	pop	r15
    5364:	ef 90       	pop	r14
    5366:	df 90       	pop	r13
    5368:	cf 90       	pop	r12
    536a:	bf 90       	pop	r11
    536c:	af 90       	pop	r10
    536e:	9f 90       	pop	r9
    5370:	8f 90       	pop	r8
    5372:	7f 90       	pop	r7
    5374:	6f 90       	pop	r6
    5376:	5f 90       	pop	r5
    5378:	08 95       	ret

0000537a <_lcd_OutNibble>:
    537a:	28 2f       	mov	r18, r24
    537c:	80 ff       	sbrs	r24, 0
    537e:	05 c0       	rjmp	.+10     	; 0x538a <_lcd_OutNibble+0x10>
    5380:	88 e0       	ldi	r24, 0x08	; 8
    5382:	e0 e2       	ldi	r30, 0x20	; 32
    5384:	f7 e0       	ldi	r31, 0x07	; 7
    5386:	85 83       	std	Z+5, r24	; 0x05
    5388:	04 c0       	rjmp	.+8      	; 0x5392 <_lcd_OutNibble+0x18>
    538a:	88 e0       	ldi	r24, 0x08	; 8
    538c:	e0 e2       	ldi	r30, 0x20	; 32
    538e:	f7 e0       	ldi	r31, 0x07	; 7
    5390:	86 83       	std	Z+6, r24	; 0x06
    5392:	21 ff       	sbrs	r18, 1
    5394:	05 c0       	rjmp	.+10     	; 0x53a0 <_lcd_OutNibble+0x26>
    5396:	84 e0       	ldi	r24, 0x04	; 4
    5398:	e0 e2       	ldi	r30, 0x20	; 32
    539a:	f7 e0       	ldi	r31, 0x07	; 7
    539c:	85 83       	std	Z+5, r24	; 0x05
    539e:	04 c0       	rjmp	.+8      	; 0x53a8 <_lcd_OutNibble+0x2e>
    53a0:	84 e0       	ldi	r24, 0x04	; 4
    53a2:	e0 e2       	ldi	r30, 0x20	; 32
    53a4:	f7 e0       	ldi	r31, 0x07	; 7
    53a6:	86 83       	std	Z+6, r24	; 0x06
    53a8:	22 ff       	sbrs	r18, 2
    53aa:	05 c0       	rjmp	.+10     	; 0x53b6 <_lcd_OutNibble+0x3c>
    53ac:	82 e0       	ldi	r24, 0x02	; 2
    53ae:	e0 e2       	ldi	r30, 0x20	; 32
    53b0:	f7 e0       	ldi	r31, 0x07	; 7
    53b2:	85 83       	std	Z+5, r24	; 0x05
    53b4:	04 c0       	rjmp	.+8      	; 0x53be <_lcd_OutNibble+0x44>
    53b6:	82 e0       	ldi	r24, 0x02	; 2
    53b8:	e0 e2       	ldi	r30, 0x20	; 32
    53ba:	f7 e0       	ldi	r31, 0x07	; 7
    53bc:	86 83       	std	Z+6, r24	; 0x06
    53be:	23 ff       	sbrs	r18, 3
    53c0:	05 c0       	rjmp	.+10     	; 0x53cc <_lcd_OutNibble+0x52>
    53c2:	81 e0       	ldi	r24, 0x01	; 1
    53c4:	e0 e2       	ldi	r30, 0x20	; 32
    53c6:	f7 e0       	ldi	r31, 0x07	; 7
    53c8:	85 83       	std	Z+5, r24	; 0x05
    53ca:	08 95       	ret
    53cc:	81 e0       	ldi	r24, 0x01	; 1
    53ce:	e0 e2       	ldi	r30, 0x20	; 32
    53d0:	f7 e0       	ldi	r31, 0x07	; 7
    53d2:	86 83       	std	Z+6, r24	; 0x06
    53d4:	08 95       	ret

000053d6 <_lcd_Write>:
    53d6:	ef 92       	push	r14
    53d8:	ff 92       	push	r15
    53da:	0f 93       	push	r16
    53dc:	1f 93       	push	r17
    53de:	18 2f       	mov	r17, r24
    53e0:	80 e2       	ldi	r24, 0x20	; 32
    53e2:	e8 2e       	mov	r14, r24
    53e4:	87 e0       	ldi	r24, 0x07	; 7
    53e6:	f8 2e       	mov	r15, r24
    53e8:	00 e1       	ldi	r16, 0x10	; 16
    53ea:	f7 01       	movw	r30, r14
    53ec:	05 83       	std	Z+5, r16	; 0x05
    53ee:	81 2f       	mov	r24, r17
    53f0:	82 95       	swap	r24
    53f2:	8f 70       	andi	r24, 0x0F	; 15
    53f4:	0e 94 bd 29 	call	0x537a	; 0x537a <_lcd_OutNibble>
    53f8:	f7 01       	movw	r30, r14
    53fa:	06 83       	std	Z+6, r16	; 0x06
    53fc:	00 00       	nop
    53fe:	05 83       	std	Z+5, r16	; 0x05
    5400:	81 2f       	mov	r24, r17
    5402:	0e 94 bd 29 	call	0x537a	; 0x537a <_lcd_OutNibble>
    5406:	f7 01       	movw	r30, r14
    5408:	06 83       	std	Z+6, r16	; 0x06
    540a:	80 e9       	ldi	r24, 0x90	; 144
    540c:	91 e0       	ldi	r25, 0x01	; 1
    540e:	01 97       	sbiw	r24, 0x01	; 1
    5410:	f1 f7       	brne	.-4      	; 0x540e <_lcd_Write+0x38>
    5412:	1f 91       	pop	r17
    5414:	0f 91       	pop	r16
    5416:	ff 90       	pop	r15
    5418:	ef 90       	pop	r14
    541a:	08 95       	ret

0000541c <LcdCommand>:
    541c:	90 e2       	ldi	r25, 0x20	; 32
    541e:	e0 e2       	ldi	r30, 0x20	; 32
    5420:	f7 e0       	ldi	r31, 0x07	; 7
    5422:	96 83       	std	Z+6, r25	; 0x06
    5424:	0e 94 eb 29 	call	0x53d6	; 0x53d6 <_lcd_Write>
    5428:	08 95       	ret

0000542a <LcdData>:
    542a:	90 e2       	ldi	r25, 0x20	; 32
    542c:	e0 e2       	ldi	r30, 0x20	; 32
    542e:	f7 e0       	ldi	r31, 0x07	; 7
    5430:	95 83       	std	Z+5, r25	; 0x05
    5432:	0e 94 eb 29 	call	0x53d6	; 0x53d6 <_lcd_Write>
    5436:	08 95       	ret

00005438 <LcdWrite>:
    5438:	cf 93       	push	r28
    543a:	df 93       	push	r29
    543c:	ec 01       	movw	r28, r24
    543e:	03 c0       	rjmp	.+6      	; 0x5446 <LcdWrite+0xe>
    5440:	21 96       	adiw	r28, 0x01	; 1
    5442:	0e 94 15 2a 	call	0x542a	; 0x542a <LcdData>
    5446:	88 81       	ld	r24, Y
    5448:	88 23       	and	r24, r24
    544a:	d1 f7       	brne	.-12     	; 0x5440 <LcdWrite+0x8>
    544c:	df 91       	pop	r29
    544e:	cf 91       	pop	r28
    5450:	08 95       	ret

00005452 <LcdWriteProgmem>:
    5452:	cf 93       	push	r28
    5454:	df 93       	push	r29
    5456:	ec 01       	movw	r28, r24
    5458:	02 c0       	rjmp	.+4      	; 0x545e <LcdWriteProgmem+0xc>
    545a:	0e 94 15 2a 	call	0x542a	; 0x542a <LcdData>
    545e:	fe 01       	movw	r30, r28
    5460:	21 96       	adiw	r28, 0x01	; 1
    5462:	84 91       	lpm	r24, Z+
    5464:	88 23       	and	r24, r24
    5466:	c9 f7       	brne	.-14     	; 0x545a <LcdWriteProgmem+0x8>
    5468:	df 91       	pop	r29
    546a:	cf 91       	pop	r28
    546c:	08 95       	ret

0000546e <LcdGoto>:
    546e:	62 95       	swap	r22
    5470:	66 0f       	add	r22, r22
    5472:	66 0f       	add	r22, r22
    5474:	60 7c       	andi	r22, 0xC0	; 192
    5476:	68 0f       	add	r22, r24
    5478:	86 2f       	mov	r24, r22
    547a:	80 68       	ori	r24, 0x80	; 128
    547c:	0e 94 0e 2a 	call	0x541c	; 0x541c <LcdCommand>
    5480:	08 95       	ret

00005482 <LcdClear>:
    5482:	81 e0       	ldi	r24, 0x01	; 1
    5484:	0e 94 0e 2a 	call	0x541c	; 0x541c <LcdCommand>
    5488:	80 e8       	ldi	r24, 0x80	; 128
    548a:	9e e3       	ldi	r25, 0x3E	; 62
    548c:	01 97       	sbiw	r24, 0x01	; 1
    548e:	f1 f7       	brne	.-4      	; 0x548c <LcdClear+0xa>
    5490:	08 95       	ret

00005492 <LcdInit>:
    5492:	af 92       	push	r10
    5494:	bf 92       	push	r11
    5496:	cf 92       	push	r12
    5498:	df 92       	push	r13
    549a:	ef 92       	push	r14
    549c:	ff 92       	push	r15
    549e:	0f 93       	push	r16
    54a0:	1f 93       	push	r17
    54a2:	cf 93       	push	r28
    54a4:	df 93       	push	r29
    54a6:	e0 e2       	ldi	r30, 0x20	; 32
    54a8:	f7 e0       	ldi	r31, 0x07	; 7
    54aa:	8f e3       	ldi	r24, 0x3F	; 63
    54ac:	81 83       	std	Z+1, r24	; 0x01
    54ae:	80 e4       	ldi	r24, 0x40	; 64
    54b0:	9c e9       	ldi	r25, 0x9C	; 156
    54b2:	01 97       	sbiw	r24, 0x01	; 1
    54b4:	f1 f7       	brne	.-4      	; 0x54b2 <LcdInit+0x20>
    54b6:	80 e3       	ldi	r24, 0x30	; 48
    54b8:	86 83       	std	Z+6, r24	; 0x06
    54ba:	10 e0       	ldi	r17, 0x00	; 0
    54bc:	40 e2       	ldi	r20, 0x20	; 32
    54be:	e4 2e       	mov	r14, r20
    54c0:	47 e0       	ldi	r20, 0x07	; 7
    54c2:	f4 2e       	mov	r15, r20
    54c4:	30 e1       	ldi	r19, 0x10	; 16
    54c6:	a3 2e       	mov	r10, r19
    54c8:	20 e1       	ldi	r18, 0x10	; 16
    54ca:	b2 2e       	mov	r11, r18
    54cc:	90 e4       	ldi	r25, 0x40	; 64
    54ce:	c9 2e       	mov	r12, r25
    54d0:	9c e9       	ldi	r25, 0x9C	; 156
    54d2:	d9 2e       	mov	r13, r25
    54d4:	c0 e2       	ldi	r28, 0x20	; 32
    54d6:	d7 e0       	ldi	r29, 0x07	; 7
    54d8:	00 e1       	ldi	r16, 0x10	; 16
    54da:	f7 01       	movw	r30, r14
    54dc:	b5 82       	std	Z+5, r11	; 0x05
    54de:	83 e0       	ldi	r24, 0x03	; 3
    54e0:	0e 94 bd 29 	call	0x537a	; 0x537a <_lcd_OutNibble>
    54e4:	f7 01       	movw	r30, r14
    54e6:	a6 82       	std	Z+6, r10	; 0x06
    54e8:	c6 01       	movw	r24, r12
    54ea:	01 97       	sbiw	r24, 0x01	; 1
    54ec:	f1 f7       	brne	.-4      	; 0x54ea <LcdInit+0x58>
    54ee:	1f 5f       	subi	r17, 0xFF	; 255
    54f0:	13 30       	cpi	r17, 0x03	; 3
    54f2:	81 f7       	brne	.-32     	; 0x54d4 <LcdInit+0x42>
    54f4:	0d 83       	std	Y+5, r16	; 0x05
    54f6:	82 e0       	ldi	r24, 0x02	; 2
    54f8:	0e 94 bd 29 	call	0x537a	; 0x537a <_lcd_OutNibble>
    54fc:	0e 83       	std	Y+6, r16	; 0x06
    54fe:	80 e4       	ldi	r24, 0x40	; 64
    5500:	9f e1       	ldi	r25, 0x1F	; 31
    5502:	01 97       	sbiw	r24, 0x01	; 1
    5504:	f1 f7       	brne	.-4      	; 0x5502 <LcdInit+0x70>
    5506:	88 e2       	ldi	r24, 0x28	; 40
    5508:	0e 94 0e 2a 	call	0x541c	; 0x541c <LcdCommand>
    550c:	88 e0       	ldi	r24, 0x08	; 8
    550e:	0e 94 0e 2a 	call	0x541c	; 0x541c <LcdCommand>
    5512:	81 e0       	ldi	r24, 0x01	; 1
    5514:	0e 94 0e 2a 	call	0x541c	; 0x541c <LcdCommand>
    5518:	80 e8       	ldi	r24, 0x80	; 128
    551a:	9e e3       	ldi	r25, 0x3E	; 62
    551c:	01 97       	sbiw	r24, 0x01	; 1
    551e:	f1 f7       	brne	.-4      	; 0x551c <LcdInit+0x8a>
    5520:	86 e0       	ldi	r24, 0x06	; 6
    5522:	0e 94 0e 2a 	call	0x541c	; 0x541c <LcdCommand>
    5526:	8c e0       	ldi	r24, 0x0C	; 12
    5528:	0e 94 0e 2a 	call	0x541c	; 0x541c <LcdCommand>
    552c:	df 91       	pop	r29
    552e:	cf 91       	pop	r28
    5530:	1f 91       	pop	r17
    5532:	0f 91       	pop	r16
    5534:	ff 90       	pop	r15
    5536:	ef 90       	pop	r14
    5538:	df 90       	pop	r13
    553a:	cf 90       	pop	r12
    553c:	bf 90       	pop	r11
    553e:	af 90       	pop	r10
    5540:	08 95       	ret

00005542 <LcdDec>:
    5542:	af 92       	push	r10
    5544:	bf 92       	push	r11
    5546:	df 92       	push	r13
    5548:	ef 92       	push	r14
    554a:	ff 92       	push	r15
    554c:	0f 93       	push	r16
    554e:	1f 93       	push	r17
    5550:	df 93       	push	r29
    5552:	cf 93       	push	r28
    5554:	cd b7       	in	r28, 0x3d	; 61
    5556:	de b7       	in	r29, 0x3e	; 62
    5558:	2a 97       	sbiw	r28, 0x0a	; 10
    555a:	cd bf       	out	0x3d, r28	; 61
    555c:	de bf       	out	0x3e, r29	; 62
    555e:	7b 01       	movw	r14, r22
    5560:	8c 01       	movw	r16, r24
    5562:	61 15       	cp	r22, r1
    5564:	71 05       	cpc	r23, r1
    5566:	81 05       	cpc	r24, r1
    5568:	91 05       	cpc	r25, r1
    556a:	21 f4       	brne	.+8      	; 0x5574 <LcdDec+0x32>
    556c:	80 e3       	ldi	r24, 0x30	; 48
    556e:	0e 94 15 2a 	call	0x542a	; 0x542a <LcdData>
    5572:	3b c0       	rjmp	.+118    	; 0x55ea <LcdDec+0xa8>
    5574:	5e 01       	movw	r10, r28
    5576:	08 94       	sec
    5578:	a1 1c       	adc	r10, r1
    557a:	b1 1c       	adc	r11, r1
    557c:	dd 24       	eor	r13, r13
    557e:	c8 01       	movw	r24, r16
    5580:	b7 01       	movw	r22, r14
    5582:	2a e0       	ldi	r18, 0x0A	; 10
    5584:	30 e0       	ldi	r19, 0x00	; 0
    5586:	40 e0       	ldi	r20, 0x00	; 0
    5588:	50 e0       	ldi	r21, 0x00	; 0
    558a:	0e 94 4d 2f 	call	0x5e9a	; 0x5e9a <__udivmodsi4>
    558e:	f5 01       	movw	r30, r10
    5590:	61 93       	st	Z+, r22
    5592:	5f 01       	movw	r10, r30
    5594:	c8 01       	movw	r24, r16
    5596:	b7 01       	movw	r22, r14
    5598:	2a e0       	ldi	r18, 0x0A	; 10
    559a:	30 e0       	ldi	r19, 0x00	; 0
    559c:	40 e0       	ldi	r20, 0x00	; 0
    559e:	50 e0       	ldi	r21, 0x00	; 0
    55a0:	0e 94 4d 2f 	call	0x5e9a	; 0x5e9a <__udivmodsi4>
    55a4:	c9 01       	movw	r24, r18
    55a6:	da 01       	movw	r26, r20
    55a8:	7c 01       	movw	r14, r24
    55aa:	8d 01       	movw	r16, r26
    55ac:	d3 94       	inc	r13
    55ae:	e1 14       	cp	r14, r1
    55b0:	f1 04       	cpc	r15, r1
    55b2:	01 05       	cpc	r16, r1
    55b4:	11 05       	cpc	r17, r1
    55b6:	19 f7       	brne	.-58     	; 0x557e <LcdDec+0x3c>
    55b8:	da 94       	dec	r13
    55ba:	8d 2d       	mov	r24, r13
    55bc:	99 27       	eor	r25, r25
    55be:	87 fd       	sbrc	r24, 7
    55c0:	90 95       	com	r25
    55c2:	d3 94       	inc	r13
    55c4:	8e 01       	movw	r16, r28
    55c6:	0f 5f       	subi	r16, 0xFF	; 255
    55c8:	1f 4f       	sbci	r17, 0xFF	; 255
    55ca:	08 0f       	add	r16, r24
    55cc:	19 1f       	adc	r17, r25
    55ce:	78 01       	movw	r14, r16
    55d0:	ed 18       	sub	r14, r13
    55d2:	f1 08       	sbc	r15, r1
    55d4:	07 c0       	rjmp	.+14     	; 0x55e4 <LcdDec+0xa2>
    55d6:	f8 01       	movw	r30, r16
    55d8:	80 81       	ld	r24, Z
    55da:	80 5d       	subi	r24, 0xD0	; 208
    55dc:	0e 94 15 2a 	call	0x542a	; 0x542a <LcdData>
    55e0:	01 50       	subi	r16, 0x01	; 1
    55e2:	10 40       	sbci	r17, 0x00	; 0
    55e4:	0e 15       	cp	r16, r14
    55e6:	1f 05       	cpc	r17, r15
    55e8:	b1 f7       	brne	.-20     	; 0x55d6 <LcdDec+0x94>
    55ea:	2a 96       	adiw	r28, 0x0a	; 10
    55ec:	cd bf       	out	0x3d, r28	; 61
    55ee:	de bf       	out	0x3e, r29	; 62
    55f0:	cf 91       	pop	r28
    55f2:	df 91       	pop	r29
    55f4:	1f 91       	pop	r17
    55f6:	0f 91       	pop	r16
    55f8:	ff 90       	pop	r15
    55fa:	ef 90       	pop	r14
    55fc:	df 90       	pop	r13
    55fe:	bf 90       	pop	r11
    5600:	af 90       	pop	r10
    5602:	08 95       	ret

00005604 <__vector_34>:
    5604:	1f 92       	push	r1
    5606:	0f 92       	push	r0
    5608:	0f b6       	in	r0, 0x3f	; 63
    560a:	0f 92       	push	r0
    560c:	08 b6       	in	r0, 0x38	; 56
    560e:	0f 92       	push	r0
    5610:	11 24       	eor	r1, r1
    5612:	18 be       	out	0x38, r1	; 56
    5614:	8f 93       	push	r24
    5616:	9f 93       	push	r25
    5618:	80 91 e8 06 	lds	r24, 0x06E8
    561c:	83 ff       	sbrs	r24, 3
    561e:	06 c0       	rjmp	.+12     	; 0x562c <__vector_34+0x28>
    5620:	80 91 24 26 	lds	r24, 0x2624
    5624:	90 91 25 26 	lds	r25, 0x2625
    5628:	01 96       	adiw	r24, 0x01	; 1
    562a:	05 c0       	rjmp	.+10     	; 0x5636 <__vector_34+0x32>
    562c:	80 91 24 26 	lds	r24, 0x2624
    5630:	90 91 25 26 	lds	r25, 0x2625
    5634:	01 97       	sbiw	r24, 0x01	; 1
    5636:	80 93 24 26 	sts	0x2624, r24
    563a:	90 93 25 26 	sts	0x2625, r25
    563e:	9f 91       	pop	r25
    5640:	8f 91       	pop	r24
    5642:	0f 90       	pop	r0
    5644:	08 be       	out	0x38, r0	; 56
    5646:	0f 90       	pop	r0
    5648:	0f be       	out	0x3f, r0	; 63
    564a:	0f 90       	pop	r0
    564c:	1f 90       	pop	r1
    564e:	18 95       	reti

00005650 <__vector_4>:
    5650:	1f 92       	push	r1
    5652:	0f 92       	push	r0
    5654:	0f b6       	in	r0, 0x3f	; 63
    5656:	0f 92       	push	r0
    5658:	08 b6       	in	r0, 0x38	; 56
    565a:	0f 92       	push	r0
    565c:	11 24       	eor	r1, r1
    565e:	18 be       	out	0x38, r1	; 56
    5660:	8f 93       	push	r24
    5662:	9f 93       	push	r25
    5664:	80 91 e8 06 	lds	r24, 0x06E8
    5668:	85 ff       	sbrs	r24, 5
    566a:	06 c0       	rjmp	.+12     	; 0x5678 <__vector_4+0x28>
    566c:	80 91 26 26 	lds	r24, 0x2626
    5670:	90 91 27 26 	lds	r25, 0x2627
    5674:	01 96       	adiw	r24, 0x01	; 1
    5676:	05 c0       	rjmp	.+10     	; 0x5682 <__vector_4+0x32>
    5678:	80 91 26 26 	lds	r24, 0x2626
    567c:	90 91 27 26 	lds	r25, 0x2627
    5680:	01 97       	sbiw	r24, 0x01	; 1
    5682:	80 93 26 26 	sts	0x2626, r24
    5686:	90 93 27 26 	sts	0x2627, r25
    568a:	9f 91       	pop	r25
    568c:	8f 91       	pop	r24
    568e:	0f 90       	pop	r0
    5690:	08 be       	out	0x38, r0	; 56
    5692:	0f 90       	pop	r0
    5694:	0f be       	out	0x3f, r0	; 63
    5696:	0f 90       	pop	r0
    5698:	1f 90       	pop	r1
    569a:	18 95       	reti

0000569c <__vector_96>:
    569c:	1f 92       	push	r1
    569e:	0f 92       	push	r0
    56a0:	0f b6       	in	r0, 0x3f	; 63
    56a2:	0f 92       	push	r0
    56a4:	08 b6       	in	r0, 0x38	; 56
    56a6:	0f 92       	push	r0
    56a8:	11 24       	eor	r1, r1
    56aa:	18 be       	out	0x38, r1	; 56
    56ac:	8f 93       	push	r24
    56ae:	9f 93       	push	r25
    56b0:	80 91 e8 06 	lds	r24, 0x06E8
    56b4:	80 ff       	sbrs	r24, 0
    56b6:	06 c0       	rjmp	.+12     	; 0x56c4 <__vector_96+0x28>
    56b8:	80 91 28 26 	lds	r24, 0x2628
    56bc:	90 91 29 26 	lds	r25, 0x2629
    56c0:	01 96       	adiw	r24, 0x01	; 1
    56c2:	05 c0       	rjmp	.+10     	; 0x56ce <__vector_96+0x32>
    56c4:	80 91 28 26 	lds	r24, 0x2628
    56c8:	90 91 29 26 	lds	r25, 0x2629
    56cc:	01 97       	sbiw	r24, 0x01	; 1
    56ce:	80 93 28 26 	sts	0x2628, r24
    56d2:	90 93 29 26 	sts	0x2629, r25
    56d6:	9f 91       	pop	r25
    56d8:	8f 91       	pop	r24
    56da:	0f 90       	pop	r0
    56dc:	08 be       	out	0x38, r0	; 56
    56de:	0f 90       	pop	r0
    56e0:	0f be       	out	0x3f, r0	; 63
    56e2:	0f 90       	pop	r0
    56e4:	1f 90       	pop	r1
    56e6:	18 95       	reti

000056e8 <__vector_98>:
    56e8:	1f 92       	push	r1
    56ea:	0f 92       	push	r0
    56ec:	0f b6       	in	r0, 0x3f	; 63
    56ee:	0f 92       	push	r0
    56f0:	08 b6       	in	r0, 0x38	; 56
    56f2:	0f 92       	push	r0
    56f4:	11 24       	eor	r1, r1
    56f6:	18 be       	out	0x38, r1	; 56
    56f8:	8f 93       	push	r24
    56fa:	9f 93       	push	r25
    56fc:	80 91 08 07 	lds	r24, 0x0708
    5700:	84 ff       	sbrs	r24, 4
    5702:	06 c0       	rjmp	.+12     	; 0x5710 <__vector_98+0x28>
    5704:	80 91 22 26 	lds	r24, 0x2622
    5708:	90 91 23 26 	lds	r25, 0x2623
    570c:	01 97       	sbiw	r24, 0x01	; 1
    570e:	05 c0       	rjmp	.+10     	; 0x571a <__vector_98+0x32>
    5710:	80 91 22 26 	lds	r24, 0x2622
    5714:	90 91 23 26 	lds	r25, 0x2623
    5718:	01 96       	adiw	r24, 0x01	; 1
    571a:	80 93 22 26 	sts	0x2622, r24
    571e:	90 93 23 26 	sts	0x2623, r25
    5722:	9f 91       	pop	r25
    5724:	8f 91       	pop	r24
    5726:	0f 90       	pop	r0
    5728:	08 be       	out	0x38, r0	; 56
    572a:	0f 90       	pop	r0
    572c:	0f be       	out	0x3f, r0	; 63
    572e:	0f 90       	pop	r0
    5730:	1f 90       	pop	r1
    5732:	18 95       	reti

00005734 <__vector_94>:
    5734:	1f 92       	push	r1
    5736:	0f 92       	push	r0
    5738:	0f b6       	in	r0, 0x3f	; 63
    573a:	0f 92       	push	r0
    573c:	08 b6       	in	r0, 0x38	; 56
    573e:	0f 92       	push	r0
    5740:	11 24       	eor	r1, r1
    5742:	18 be       	out	0x38, r1	; 56
    5744:	8f 93       	push	r24
    5746:	9f 93       	push	r25
    5748:	80 91 08 07 	lds	r24, 0x0708
    574c:	80 ff       	sbrs	r24, 0
    574e:	06 c0       	rjmp	.+12     	; 0x575c <__vector_94+0x28>
    5750:	80 91 2c 26 	lds	r24, 0x262C
    5754:	90 91 2d 26 	lds	r25, 0x262D
    5758:	01 97       	sbiw	r24, 0x01	; 1
    575a:	05 c0       	rjmp	.+10     	; 0x5766 <__vector_94+0x32>
    575c:	80 91 2c 26 	lds	r24, 0x262C
    5760:	90 91 2d 26 	lds	r25, 0x262D
    5764:	01 96       	adiw	r24, 0x01	; 1
    5766:	80 93 2c 26 	sts	0x262C, r24
    576a:	90 93 2d 26 	sts	0x262D, r25
    576e:	9f 91       	pop	r25
    5770:	8f 91       	pop	r24
    5772:	0f 90       	pop	r0
    5774:	08 be       	out	0x38, r0	; 56
    5776:	0f 90       	pop	r0
    5778:	0f be       	out	0x3f, r0	; 63
    577a:	0f 90       	pop	r0
    577c:	1f 90       	pop	r1
    577e:	18 95       	reti

00005780 <__vector_100>:
    5780:	1f 92       	push	r1
    5782:	0f 92       	push	r0
    5784:	0f b6       	in	r0, 0x3f	; 63
    5786:	0f 92       	push	r0
    5788:	08 b6       	in	r0, 0x38	; 56
    578a:	0f 92       	push	r0
    578c:	11 24       	eor	r1, r1
    578e:	18 be       	out	0x38, r1	; 56
    5790:	8f 93       	push	r24
    5792:	9f 93       	push	r25
    5794:	80 91 08 07 	lds	r24, 0x0708
    5798:	83 ff       	sbrs	r24, 3
    579a:	06 c0       	rjmp	.+12     	; 0x57a8 <__vector_100+0x28>
    579c:	80 91 2e 26 	lds	r24, 0x262E
    57a0:	90 91 2f 26 	lds	r25, 0x262F
    57a4:	01 97       	sbiw	r24, 0x01	; 1
    57a6:	05 c0       	rjmp	.+10     	; 0x57b2 <__vector_100+0x32>
    57a8:	80 91 2e 26 	lds	r24, 0x262E
    57ac:	90 91 2f 26 	lds	r25, 0x262F
    57b0:	01 96       	adiw	r24, 0x01	; 1
    57b2:	80 93 2e 26 	sts	0x262E, r24
    57b6:	90 93 2f 26 	sts	0x262F, r25
    57ba:	9f 91       	pop	r25
    57bc:	8f 91       	pop	r24
    57be:	0f 90       	pop	r0
    57c0:	08 be       	out	0x38, r0	; 56
    57c2:	0f 90       	pop	r0
    57c4:	0f be       	out	0x3f, r0	; 63
    57c6:	0f 90       	pop	r0
    57c8:	1f 90       	pop	r1
    57ca:	18 95       	reti

000057cc <__vector_28>:
    57cc:	1f 92       	push	r1
    57ce:	0f 92       	push	r0
    57d0:	0f b6       	in	r0, 0x3f	; 63
    57d2:	0f 92       	push	r0
    57d4:	08 b6       	in	r0, 0x38	; 56
    57d6:	0f 92       	push	r0
    57d8:	09 b6       	in	r0, 0x39	; 57
    57da:	0f 92       	push	r0
    57dc:	0b b6       	in	r0, 0x3b	; 59
    57de:	0f 92       	push	r0
    57e0:	11 24       	eor	r1, r1
    57e2:	18 be       	out	0x38, r1	; 56
    57e4:	19 be       	out	0x39, r1	; 57
    57e6:	1b be       	out	0x3b, r1	; 59
    57e8:	2f 93       	push	r18
    57ea:	3f 93       	push	r19
    57ec:	4f 93       	push	r20
    57ee:	5f 93       	push	r21
    57f0:	6f 93       	push	r22
    57f2:	7f 93       	push	r23
    57f4:	8f 93       	push	r24
    57f6:	9f 93       	push	r25
    57f8:	af 93       	push	r26
    57fa:	bf 93       	push	r27
    57fc:	ef 93       	push	r30
    57fe:	ff 93       	push	r31
    5800:	0e 94 e5 2e 	call	0x5dca	; 0x5dca <USART_MergingData>
    5804:	ff 91       	pop	r31
    5806:	ef 91       	pop	r30
    5808:	bf 91       	pop	r27
    580a:	af 91       	pop	r26
    580c:	9f 91       	pop	r25
    580e:	8f 91       	pop	r24
    5810:	7f 91       	pop	r23
    5812:	6f 91       	pop	r22
    5814:	5f 91       	pop	r21
    5816:	4f 91       	pop	r20
    5818:	3f 91       	pop	r19
    581a:	2f 91       	pop	r18
    581c:	0f 90       	pop	r0
    581e:	0b be       	out	0x3b, r0	; 59
    5820:	0f 90       	pop	r0
    5822:	09 be       	out	0x39, r0	; 57
    5824:	0f 90       	pop	r0
    5826:	08 be       	out	0x38, r0	; 56
    5828:	0f 90       	pop	r0
    582a:	0f be       	out	0x3f, r0	; 63
    582c:	0f 90       	pop	r0
    582e:	1f 90       	pop	r1
    5830:	18 95       	reti

00005832 <__vector_77>:
    5832:	1f 92       	push	r1
    5834:	0f 92       	push	r0
    5836:	0f b6       	in	r0, 0x3f	; 63
    5838:	0f 92       	push	r0
    583a:	08 b6       	in	r0, 0x38	; 56
    583c:	0f 92       	push	r0
    583e:	09 b6       	in	r0, 0x39	; 57
    5840:	0f 92       	push	r0
    5842:	0b b6       	in	r0, 0x3b	; 59
    5844:	0f 92       	push	r0
    5846:	11 24       	eor	r1, r1
    5848:	18 be       	out	0x38, r1	; 56
    584a:	19 be       	out	0x39, r1	; 57
    584c:	1b be       	out	0x3b, r1	; 59
    584e:	2f 93       	push	r18
    5850:	3f 93       	push	r19
    5852:	4f 93       	push	r20
    5854:	5f 93       	push	r21
    5856:	6f 93       	push	r22
    5858:	7f 93       	push	r23
    585a:	8f 93       	push	r24
    585c:	9f 93       	push	r25
    585e:	af 93       	push	r26
    5860:	bf 93       	push	r27
    5862:	ef 93       	push	r30
    5864:	ff 93       	push	r31
    5866:	80 e6       	ldi	r24, 0x60	; 96
    5868:	9a ee       	ldi	r25, 0xEA	; 234
    586a:	e0 e0       	ldi	r30, 0x00	; 0
    586c:	f9 e0       	ldi	r31, 0x09	; 9
    586e:	80 a3       	std	Z+32, r24	; 0x20
    5870:	91 a3       	std	Z+33, r25	; 0x21
    5872:	0e 94 3c 01 	call	0x278	; 0x278 <AdcBuffer>
    5876:	80 91 eb 20 	lds	r24, 0x20EB
    587a:	82 30       	cpi	r24, 0x02	; 2
    587c:	89 f4       	brne	.+34     	; 0x58a0 <__vector_77+0x6e>
    587e:	80 91 ec 20 	lds	r24, 0x20EC
    5882:	90 91 ed 20 	lds	r25, 0x20ED
    5886:	8e 5a       	subi	r24, 0xAE	; 174
    5888:	9d 40       	sbci	r25, 0x0D	; 13
    588a:	8a 5d       	subi	r24, 0xDA	; 218
    588c:	95 40       	sbci	r25, 0x05	; 5
    588e:	40 f4       	brcc	.+16     	; 0x58a0 <__vector_77+0x6e>
    5890:	80 91 a4 06 	lds	r24, 0x06A4
    5894:	88 61       	ori	r24, 0x18	; 24
    5896:	80 93 a4 06 	sts	0x06A4, r24
    589a:	81 e0       	ldi	r24, 0x01	; 1
    589c:	80 93 2b 26 	sts	0x262B, r24
    58a0:	ff 91       	pop	r31
    58a2:	ef 91       	pop	r30
    58a4:	bf 91       	pop	r27
    58a6:	af 91       	pop	r26
    58a8:	9f 91       	pop	r25
    58aa:	8f 91       	pop	r24
    58ac:	7f 91       	pop	r23
    58ae:	6f 91       	pop	r22
    58b0:	5f 91       	pop	r21
    58b2:	4f 91       	pop	r20
    58b4:	3f 91       	pop	r19
    58b6:	2f 91       	pop	r18
    58b8:	0f 90       	pop	r0
    58ba:	0b be       	out	0x3b, r0	; 59
    58bc:	0f 90       	pop	r0
    58be:	09 be       	out	0x39, r0	; 57
    58c0:	0f 90       	pop	r0
    58c2:	08 be       	out	0x38, r0	; 56
    58c4:	0f 90       	pop	r0
    58c6:	0f be       	out	0x3f, r0	; 63
    58c8:	0f 90       	pop	r0
    58ca:	1f 90       	pop	r1
    58cc:	18 95       	reti

000058ce <__vector_83>:
    58ce:	1f 92       	push	r1
    58d0:	0f 92       	push	r0
    58d2:	0f b6       	in	r0, 0x3f	; 63
    58d4:	0f 92       	push	r0
    58d6:	08 b6       	in	r0, 0x38	; 56
    58d8:	0f 92       	push	r0
    58da:	09 b6       	in	r0, 0x39	; 57
    58dc:	0f 92       	push	r0
    58de:	0b b6       	in	r0, 0x3b	; 59
    58e0:	0f 92       	push	r0
    58e2:	11 24       	eor	r1, r1
    58e4:	18 be       	out	0x38, r1	; 56
    58e6:	19 be       	out	0x39, r1	; 57
    58e8:	1b be       	out	0x3b, r1	; 59
    58ea:	2f 93       	push	r18
    58ec:	3f 93       	push	r19
    58ee:	4f 93       	push	r20
    58f0:	5f 93       	push	r21
    58f2:	6f 93       	push	r22
    58f4:	7f 93       	push	r23
    58f6:	8f 93       	push	r24
    58f8:	9f 93       	push	r25
    58fa:	af 93       	push	r26
    58fc:	bf 93       	push	r27
    58fe:	ef 93       	push	r30
    5900:	ff 93       	push	r31
    5902:	e0 e4       	ldi	r30, 0x40	; 64
    5904:	f9 e0       	ldi	r31, 0x09	; 9
    5906:	10 a2       	std	Z+32, r1	; 0x20
    5908:	11 a2       	std	Z+33, r1	; 0x21
    590a:	10 82       	st	Z, r1
    590c:	10 92 00 08 	sts	0x0800, r1
    5910:	80 eb       	ldi	r24, 0xB0	; 176
    5912:	98 e0       	ldi	r25, 0x08	; 8
    5914:	68 e2       	ldi	r22, 0x28	; 40
    5916:	73 e2       	ldi	r23, 0x23	; 35
    5918:	0e 94 d8 2e 	call	0x5db0	; 0x5db0 <USART_send_int>
    591c:	ff 91       	pop	r31
    591e:	ef 91       	pop	r30
    5920:	bf 91       	pop	r27
    5922:	af 91       	pop	r26
    5924:	9f 91       	pop	r25
    5926:	8f 91       	pop	r24
    5928:	7f 91       	pop	r23
    592a:	6f 91       	pop	r22
    592c:	5f 91       	pop	r21
    592e:	4f 91       	pop	r20
    5930:	3f 91       	pop	r19
    5932:	2f 91       	pop	r18
    5934:	0f 90       	pop	r0
    5936:	0b be       	out	0x3b, r0	; 59
    5938:	0f 90       	pop	r0
    593a:	09 be       	out	0x39, r0	; 57
    593c:	0f 90       	pop	r0
    593e:	08 be       	out	0x38, r0	; 56
    5940:	0f 90       	pop	r0
    5942:	0f be       	out	0x3f, r0	; 63
    5944:	0f 90       	pop	r0
    5946:	1f 90       	pop	r1
    5948:	18 95       	reti

0000594a <__vector_14>:
    594a:	1f 92       	push	r1
    594c:	0f 92       	push	r0
    594e:	0f b6       	in	r0, 0x3f	; 63
    5950:	0f 92       	push	r0
    5952:	08 b6       	in	r0, 0x38	; 56
    5954:	0f 92       	push	r0
    5956:	09 b6       	in	r0, 0x39	; 57
    5958:	0f 92       	push	r0
    595a:	0b b6       	in	r0, 0x3b	; 59
    595c:	0f 92       	push	r0
    595e:	11 24       	eor	r1, r1
    5960:	18 be       	out	0x38, r1	; 56
    5962:	19 be       	out	0x39, r1	; 57
    5964:	1b be       	out	0x3b, r1	; 59
    5966:	2f 93       	push	r18
    5968:	3f 93       	push	r19
    596a:	4f 93       	push	r20
    596c:	5f 93       	push	r21
    596e:	6f 93       	push	r22
    5970:	7f 93       	push	r23
    5972:	8f 93       	push	r24
    5974:	9f 93       	push	r25
    5976:	af 93       	push	r26
    5978:	bf 93       	push	r27
    597a:	ef 93       	push	r30
    597c:	ff 93       	push	r31
    597e:	80 eb       	ldi	r24, 0xB0	; 176
    5980:	9e ef       	ldi	r25, 0xFE	; 254
    5982:	e0 e0       	ldi	r30, 0x00	; 0
    5984:	f8 e0       	ldi	r31, 0x08	; 8
    5986:	80 a3       	std	Z+32, r24	; 0x20
    5988:	91 a3       	std	Z+33, r25	; 0x21
    598a:	80 91 ea 20 	lds	r24, 0x20EA
    598e:	88 23       	and	r24, r24
    5990:	29 f4       	brne	.+10     	; 0x599c <__vector_14+0x52>
    5992:	60 91 24 26 	lds	r22, 0x2624
    5996:	70 91 25 26 	lds	r23, 0x2625
    599a:	2c c0       	rjmp	.+88     	; 0x59f4 <__vector_14+0xaa>
    599c:	80 91 ea 20 	lds	r24, 0x20EA
    59a0:	81 30       	cpi	r24, 0x01	; 1
    59a2:	29 f4       	brne	.+10     	; 0x59ae <__vector_14+0x64>
    59a4:	60 91 26 26 	lds	r22, 0x2626
    59a8:	70 91 27 26 	lds	r23, 0x2627
    59ac:	23 c0       	rjmp	.+70     	; 0x59f4 <__vector_14+0xaa>
    59ae:	80 91 ea 20 	lds	r24, 0x20EA
    59b2:	82 30       	cpi	r24, 0x02	; 2
    59b4:	29 f4       	brne	.+10     	; 0x59c0 <__vector_14+0x76>
    59b6:	60 91 28 26 	lds	r22, 0x2628
    59ba:	70 91 29 26 	lds	r23, 0x2629
    59be:	1a c0       	rjmp	.+52     	; 0x59f4 <__vector_14+0xaa>
    59c0:	80 91 ea 20 	lds	r24, 0x20EA
    59c4:	83 30       	cpi	r24, 0x03	; 3
    59c6:	29 f4       	brne	.+10     	; 0x59d2 <__vector_14+0x88>
    59c8:	60 91 22 26 	lds	r22, 0x2622
    59cc:	70 91 23 26 	lds	r23, 0x2623
    59d0:	11 c0       	rjmp	.+34     	; 0x59f4 <__vector_14+0xaa>
    59d2:	80 91 ea 20 	lds	r24, 0x20EA
    59d6:	84 30       	cpi	r24, 0x04	; 4
    59d8:	29 f4       	brne	.+10     	; 0x59e4 <__vector_14+0x9a>
    59da:	60 91 2c 26 	lds	r22, 0x262C
    59de:	70 91 2d 26 	lds	r23, 0x262D
    59e2:	08 c0       	rjmp	.+16     	; 0x59f4 <__vector_14+0xaa>
    59e4:	80 91 ea 20 	lds	r24, 0x20EA
    59e8:	85 30       	cpi	r24, 0x05	; 5
    59ea:	41 f4       	brne	.+16     	; 0x59fc <__vector_14+0xb2>
    59ec:	60 91 2e 26 	lds	r22, 0x262E
    59f0:	70 91 2f 26 	lds	r23, 0x262F
    59f4:	80 eb       	ldi	r24, 0xB0	; 176
    59f6:	98 e0       	ldi	r25, 0x08	; 8
    59f8:	0e 94 d8 2e 	call	0x5db0	; 0x5db0 <USART_send_int>
    59fc:	ff 91       	pop	r31
    59fe:	ef 91       	pop	r30
    5a00:	bf 91       	pop	r27
    5a02:	af 91       	pop	r26
    5a04:	9f 91       	pop	r25
    5a06:	8f 91       	pop	r24
    5a08:	7f 91       	pop	r23
    5a0a:	6f 91       	pop	r22
    5a0c:	5f 91       	pop	r21
    5a0e:	4f 91       	pop	r20
    5a10:	3f 91       	pop	r19
    5a12:	2f 91       	pop	r18
    5a14:	0f 90       	pop	r0
    5a16:	0b be       	out	0x3b, r0	; 59
    5a18:	0f 90       	pop	r0
    5a1a:	09 be       	out	0x39, r0	; 57
    5a1c:	0f 90       	pop	r0
    5a1e:	08 be       	out	0x38, r0	; 56
    5a20:	0f 90       	pop	r0
    5a22:	0f be       	out	0x3f, r0	; 63
    5a24:	0f 90       	pop	r0
    5a26:	1f 90       	pop	r1
    5a28:	18 95       	reti

00005a2a <__vector_20>:
    5a2a:	1f 92       	push	r1
    5a2c:	0f 92       	push	r0
    5a2e:	0f b6       	in	r0, 0x3f	; 63
    5a30:	0f 92       	push	r0
    5a32:	08 b6       	in	r0, 0x38	; 56
    5a34:	0f 92       	push	r0
    5a36:	09 b6       	in	r0, 0x39	; 57
    5a38:	0f 92       	push	r0
    5a3a:	0b b6       	in	r0, 0x3b	; 59
    5a3c:	0f 92       	push	r0
    5a3e:	11 24       	eor	r1, r1
    5a40:	18 be       	out	0x38, r1	; 56
    5a42:	19 be       	out	0x39, r1	; 57
    5a44:	1b be       	out	0x3b, r1	; 59
    5a46:	2f 93       	push	r18
    5a48:	3f 93       	push	r19
    5a4a:	4f 93       	push	r20
    5a4c:	5f 93       	push	r21
    5a4e:	6f 93       	push	r22
    5a50:	7f 93       	push	r23
    5a52:	8f 93       	push	r24
    5a54:	9f 93       	push	r25
    5a56:	af 93       	push	r26
    5a58:	bf 93       	push	r27
    5a5a:	ef 93       	push	r30
    5a5c:	ff 93       	push	r31
    5a5e:	88 e9       	ldi	r24, 0x98	; 152
    5a60:	9f ef       	ldi	r25, 0xFF	; 255
    5a62:	e0 e4       	ldi	r30, 0x40	; 64
    5a64:	f8 e0       	ldi	r31, 0x08	; 8
    5a66:	80 a3       	std	Z+32, r24	; 0x20
    5a68:	91 a3       	std	Z+33, r25	; 0x21
    5a6a:	80 91 00 21 	lds	r24, 0x2100
    5a6e:	86 30       	cpi	r24, 0x06	; 6
    5a70:	11 f4       	brne	.+4      	; 0x5a76 <__vector_20+0x4c>
    5a72:	10 92 00 21 	sts	0x2100, r1
    5a76:	80 91 00 21 	lds	r24, 0x2100
    5a7a:	0e 94 43 08 	call	0x1086	; 0x1086 <PID>
    5a7e:	80 91 00 21 	lds	r24, 0x2100
    5a82:	8f 5f       	subi	r24, 0xFF	; 255
    5a84:	80 93 00 21 	sts	0x2100, r24
    5a88:	ff 91       	pop	r31
    5a8a:	ef 91       	pop	r30
    5a8c:	bf 91       	pop	r27
    5a8e:	af 91       	pop	r26
    5a90:	9f 91       	pop	r25
    5a92:	8f 91       	pop	r24
    5a94:	7f 91       	pop	r23
    5a96:	6f 91       	pop	r22
    5a98:	5f 91       	pop	r21
    5a9a:	4f 91       	pop	r20
    5a9c:	3f 91       	pop	r19
    5a9e:	2f 91       	pop	r18
    5aa0:	0f 90       	pop	r0
    5aa2:	0b be       	out	0x3b, r0	; 59
    5aa4:	0f 90       	pop	r0
    5aa6:	09 be       	out	0x39, r0	; 57
    5aa8:	0f 90       	pop	r0
    5aaa:	08 be       	out	0x38, r0	; 56
    5aac:	0f 90       	pop	r0
    5aae:	0f be       	out	0x3f, r0	; 63
    5ab0:	0f 90       	pop	r0
    5ab2:	1f 90       	pop	r1
    5ab4:	18 95       	reti

00005ab6 <main>:
    5ab6:	0e 94 f0 01 	call	0x3e0	; 0x3e0 <PortConfing>
    5aba:	0e 94 49 2a 	call	0x5492	; 0x5492 <LcdInit>
    5abe:	0e 94 0d 03 	call	0x61a	; 0x61a <LCDWelcomeTxt>
    5ac2:	84 e0       	ldi	r24, 0x04	; 4
    5ac4:	0e 94 e7 02 	call	0x5ce	; 0x5ce <LedLight>
    5ac8:	80 91 08 07 	lds	r24, 0x0708
    5acc:	82 fd       	sbrc	r24, 2
    5ace:	fc cf       	rjmp	.-8      	; 0x5ac8 <main+0x12>
    5ad0:	0e 94 f0 01 	call	0x3e0	; 0x3e0 <PortConfing>
    5ad4:	0e 94 95 01 	call	0x32a	; 0x32a <setClockTo32MHz>
    5ad8:	0e 94 c6 02 	call	0x58c	; 0x58c <UsartInit>
    5adc:	0e 94 7e 02 	call	0x4fc	; 0x4fc <InterruptConfing>
    5ae0:	0e 94 ac 02 	call	0x558	; 0x558 <AdcConfig>
    5ae4:	0e 94 a2 10 	call	0x2144	; 0x2144 <PIDDefParameters>
    5ae8:	78 94       	sei
    5aea:	0e 94 49 2a 	call	0x5492	; 0x5492 <LcdInit>
    5aee:	0e 94 a4 01 	call	0x348	; 0x348 <TimerConfing>
    5af2:	0e 94 58 07 	call	0xeb0	; 0xeb0 <ButtonState>
    5af6:	80 91 08 06 	lds	r24, 0x0608
    5afa:	87 ff       	sbrs	r24, 7
    5afc:	06 c0       	rjmp	.+12     	; 0x5b0a <main+0x54>
    5afe:	80 eb       	ldi	r24, 0xB0	; 176
    5b00:	98 e0       	ldi	r25, 0x08	; 8
    5b02:	67 e3       	ldi	r22, 0x37	; 55
    5b04:	70 e0       	ldi	r23, 0x00	; 0
    5b06:	0e 94 d8 2e 	call	0x5db0	; 0x5db0 <USART_send_int>
    5b0a:	80 91 a8 06 	lds	r24, 0x06A8
    5b0e:	85 fd       	sbrc	r24, 5
    5b10:	06 c0       	rjmp	.+12     	; 0x5b1e <main+0x68>
    5b12:	80 eb       	ldi	r24, 0xB0	; 176
    5b14:	98 e0       	ldi	r25, 0x08	; 8
    5b16:	62 e4       	ldi	r22, 0x42	; 66
    5b18:	70 e0       	ldi	r23, 0x00	; 0
    5b1a:	0e 94 d8 2e 	call	0x5db0	; 0x5db0 <USART_send_int>
    5b1e:	80 91 e8 06 	lds	r24, 0x06E8
    5b22:	86 fd       	sbrc	r24, 6
    5b24:	06 c0       	rjmp	.+12     	; 0x5b32 <main+0x7c>
    5b26:	80 eb       	ldi	r24, 0xB0	; 176
    5b28:	98 e0       	ldi	r25, 0x08	; 8
    5b2a:	6c e2       	ldi	r22, 0x2C	; 44
    5b2c:	70 e0       	ldi	r23, 0x00	; 0
    5b2e:	0e 94 d8 2e 	call	0x5db0	; 0x5db0 <USART_send_int>
    5b32:	80 91 08 07 	lds	r24, 0x0708
    5b36:	86 ff       	sbrs	r24, 6
    5b38:	dc cf       	rjmp	.-72     	; 0x5af2 <main+0x3c>
    5b3a:	80 eb       	ldi	r24, 0xB0	; 176
    5b3c:	98 e0       	ldi	r25, 0x08	; 8
    5b3e:	66 e1       	ldi	r22, 0x16	; 22
    5b40:	70 e0       	ldi	r23, 0x00	; 0
    5b42:	0e 94 d8 2e 	call	0x5db0	; 0x5db0 <USART_send_int>
    5b46:	d5 cf       	rjmp	.-86     	; 0x5af2 <main+0x3c>

00005b48 <usart_set_baudrate>:
    5b48:	5f 92       	push	r5
    5b4a:	6f 92       	push	r6
    5b4c:	7f 92       	push	r7
    5b4e:	8f 92       	push	r8
    5b50:	9f 92       	push	r9
    5b52:	af 92       	push	r10
    5b54:	bf 92       	push	r11
    5b56:	cf 92       	push	r12
    5b58:	df 92       	push	r13
    5b5a:	ef 92       	push	r14
    5b5c:	ff 92       	push	r15
    5b5e:	0f 93       	push	r16
    5b60:	1f 93       	push	r17
    5b62:	cf 93       	push	r28
    5b64:	df 93       	push	r29
    5b66:	ec 01       	movw	r28, r24
    5b68:	5a 01       	movw	r10, r20
    5b6a:	6b 01       	movw	r12, r22
    5b6c:	38 01       	movw	r6, r16
    5b6e:	49 01       	movw	r8, r18
    5b70:	a9 01       	movw	r20, r18
    5b72:	98 01       	movw	r18, r16
    5b74:	13 e0       	ldi	r17, 0x03	; 3
    5b76:	56 95       	lsr	r21
    5b78:	47 95       	ror	r20
    5b7a:	37 95       	ror	r19
    5b7c:	27 95       	ror	r18
    5b7e:	1a 95       	dec	r17
    5b80:	d1 f7       	brne	.-12     	; 0x5b76 <usart_set_baudrate+0x2e>
    5b82:	84 01       	movw	r16, r8
    5b84:	73 01       	movw	r14, r6
    5b86:	b6 e1       	ldi	r27, 0x16	; 22
    5b88:	16 95       	lsr	r17
    5b8a:	07 95       	ror	r16
    5b8c:	f7 94       	ror	r15
    5b8e:	e7 94       	ror	r14
    5b90:	ba 95       	dec	r27
    5b92:	d1 f7       	brne	.-12     	; 0x5b88 <usart_set_baudrate+0x40>
    5b94:	8c 81       	ldd	r24, Y+4	; 0x04
    5b96:	82 fd       	sbrc	r24, 2
    5b98:	08 c0       	rjmp	.+16     	; 0x5baa <usart_set_baudrate+0x62>
    5b9a:	56 95       	lsr	r21
    5b9c:	47 95       	ror	r20
    5b9e:	37 95       	ror	r19
    5ba0:	27 95       	ror	r18
    5ba2:	16 95       	lsr	r17
    5ba4:	07 95       	ror	r16
    5ba6:	f7 94       	ror	r15
    5ba8:	e7 94       	ror	r14
    5baa:	2a 15       	cp	r18, r10
    5bac:	3b 05       	cpc	r19, r11
    5bae:	4c 05       	cpc	r20, r12
    5bb0:	5d 05       	cpc	r21, r13
    5bb2:	08 f4       	brcc	.+2      	; 0x5bb6 <usart_set_baudrate+0x6e>
    5bb4:	ac c0       	rjmp	.+344    	; 0x5d0e <usart_set_baudrate+0x1c6>
    5bb6:	ae 14       	cp	r10, r14
    5bb8:	bf 04       	cpc	r11, r15
    5bba:	c0 06       	cpc	r12, r16
    5bbc:	d1 06       	cpc	r13, r17
    5bbe:	08 f4       	brcc	.+2      	; 0x5bc2 <usart_set_baudrate+0x7a>
    5bc0:	a6 c0       	rjmp	.+332    	; 0x5d0e <usart_set_baudrate+0x1c6>
    5bc2:	8c 81       	ldd	r24, Y+4	; 0x04
    5bc4:	82 fd       	sbrc	r24, 2
    5bc6:	04 c0       	rjmp	.+8      	; 0x5bd0 <usart_set_baudrate+0x88>
    5bc8:	aa 0c       	add	r10, r10
    5bca:	bb 1c       	adc	r11, r11
    5bcc:	cc 1c       	adc	r12, r12
    5bce:	dd 1c       	adc	r13, r13
    5bd0:	c4 01       	movw	r24, r8
    5bd2:	b3 01       	movw	r22, r6
    5bd4:	a6 01       	movw	r20, r12
    5bd6:	95 01       	movw	r18, r10
    5bd8:	0e 94 4d 2f 	call	0x5e9a	; 0x5e9a <__udivmodsi4>
    5bdc:	c9 01       	movw	r24, r18
    5bde:	da 01       	movw	r26, r20
    5be0:	79 ef       	ldi	r23, 0xF9	; 249
    5be2:	57 2e       	mov	r5, r23
    5be4:	2f ef       	ldi	r18, 0xFF	; 255
    5be6:	30 e0       	ldi	r19, 0x00	; 0
    5be8:	40 e0       	ldi	r20, 0x00	; 0
    5bea:	50 e0       	ldi	r21, 0x00	; 0
    5bec:	82 17       	cp	r24, r18
    5bee:	93 07       	cpc	r25, r19
    5bf0:	a4 07       	cpc	r26, r20
    5bf2:	b5 07       	cpc	r27, r21
    5bf4:	18 f4       	brcc	.+6      	; 0x5bfc <usart_set_baudrate+0xb4>
    5bf6:	57 fc       	sbrc	r5, 7
    5bf8:	0e c0       	rjmp	.+28     	; 0x5c16 <usart_set_baudrate+0xce>
    5bfa:	5b c0       	rjmp	.+182    	; 0x5cb2 <usart_set_baudrate+0x16a>
    5bfc:	22 0f       	add	r18, r18
    5bfe:	33 1f       	adc	r19, r19
    5c00:	44 1f       	adc	r20, r20
    5c02:	55 1f       	adc	r21, r21
    5c04:	6d ef       	ldi	r22, 0xFD	; 253
    5c06:	56 16       	cp	r5, r22
    5c08:	0c f4       	brge	.+2      	; 0x5c0c <usart_set_baudrate+0xc4>
    5c0a:	21 60       	ori	r18, 0x01	; 1
    5c0c:	53 94       	inc	r5
    5c0e:	67 e0       	ldi	r22, 0x07	; 7
    5c10:	56 16       	cp	r5, r22
    5c12:	61 f7       	brne	.-40     	; 0x5bec <usart_set_baudrate+0xa4>
    5c14:	4e c0       	rjmp	.+156    	; 0x5cb2 <usart_set_baudrate+0x16a>
    5c16:	d6 01       	movw	r26, r12
    5c18:	c5 01       	movw	r24, r10
    5c1a:	33 e0       	ldi	r19, 0x03	; 3
    5c1c:	88 0f       	add	r24, r24
    5c1e:	99 1f       	adc	r25, r25
    5c20:	aa 1f       	adc	r26, r26
    5c22:	bb 1f       	adc	r27, r27
    5c24:	3a 95       	dec	r19
    5c26:	d1 f7       	brne	.-12     	; 0x5c1c <usart_set_baudrate+0xd4>
    5c28:	84 01       	movw	r16, r8
    5c2a:	73 01       	movw	r14, r6
    5c2c:	e8 1a       	sub	r14, r24
    5c2e:	f9 0a       	sbc	r15, r25
    5c30:	0a 0b       	sbc	r16, r26
    5c32:	1b 0b       	sbc	r17, r27
    5c34:	25 2d       	mov	r18, r5
    5c36:	33 27       	eor	r19, r19
    5c38:	27 fd       	sbrc	r18, 7
    5c3a:	30 95       	com	r19
    5c3c:	8e ef       	ldi	r24, 0xFE	; 254
    5c3e:	58 16       	cp	r5, r24
    5c40:	d4 f4       	brge	.+52     	; 0x5c76 <usart_set_baudrate+0x12e>
    5c42:	8d ef       	ldi	r24, 0xFD	; 253
    5c44:	9f ef       	ldi	r25, 0xFF	; 255
    5c46:	82 1b       	sub	r24, r18
    5c48:	93 0b       	sbc	r25, r19
    5c4a:	04 c0       	rjmp	.+8      	; 0x5c54 <usart_set_baudrate+0x10c>
    5c4c:	ee 0c       	add	r14, r14
    5c4e:	ff 1c       	adc	r15, r15
    5c50:	00 1f       	adc	r16, r16
    5c52:	11 1f       	adc	r17, r17
    5c54:	8a 95       	dec	r24
    5c56:	d2 f7       	brpl	.-12     	; 0x5c4c <usart_set_baudrate+0x104>
    5c58:	d6 01       	movw	r26, r12
    5c5a:	c5 01       	movw	r24, r10
    5c5c:	b6 95       	lsr	r27
    5c5e:	a7 95       	ror	r26
    5c60:	97 95       	ror	r25
    5c62:	87 95       	ror	r24
    5c64:	e8 0e       	add	r14, r24
    5c66:	f9 1e       	adc	r15, r25
    5c68:	0a 1f       	adc	r16, r26
    5c6a:	1b 1f       	adc	r17, r27
    5c6c:	c8 01       	movw	r24, r16
    5c6e:	b7 01       	movw	r22, r14
    5c70:	a6 01       	movw	r20, r12
    5c72:	95 01       	movw	r18, r10
    5c74:	17 c0       	rjmp	.+46     	; 0x5ca4 <usart_set_baudrate+0x15c>
    5c76:	2d 5f       	subi	r18, 0xFD	; 253
    5c78:	3f 4f       	sbci	r19, 0xFF	; 255
    5c7a:	d6 01       	movw	r26, r12
    5c7c:	c5 01       	movw	r24, r10
    5c7e:	04 c0       	rjmp	.+8      	; 0x5c88 <usart_set_baudrate+0x140>
    5c80:	88 0f       	add	r24, r24
    5c82:	99 1f       	adc	r25, r25
    5c84:	aa 1f       	adc	r26, r26
    5c86:	bb 1f       	adc	r27, r27
    5c88:	2a 95       	dec	r18
    5c8a:	d2 f7       	brpl	.-12     	; 0x5c80 <usart_set_baudrate+0x138>
    5c8c:	9c 01       	movw	r18, r24
    5c8e:	ad 01       	movw	r20, r26
    5c90:	bc 01       	movw	r22, r24
    5c92:	cd 01       	movw	r24, r26
    5c94:	96 95       	lsr	r25
    5c96:	87 95       	ror	r24
    5c98:	77 95       	ror	r23
    5c9a:	67 95       	ror	r22
    5c9c:	6e 0d       	add	r22, r14
    5c9e:	7f 1d       	adc	r23, r15
    5ca0:	80 1f       	adc	r24, r16
    5ca2:	91 1f       	adc	r25, r17
    5ca4:	0e 94 4d 2f 	call	0x5e9a	; 0x5e9a <__udivmodsi4>
    5ca8:	c9 01       	movw	r24, r18
    5caa:	da 01       	movw	r26, r20
    5cac:	9c 01       	movw	r18, r24
    5cae:	ad 01       	movw	r20, r26
    5cb0:	21 c0       	rjmp	.+66     	; 0x5cf4 <usart_set_baudrate+0x1ac>
    5cb2:	25 2d       	mov	r18, r5
    5cb4:	33 27       	eor	r19, r19
    5cb6:	27 fd       	sbrc	r18, 7
    5cb8:	30 95       	com	r19
    5cba:	2d 5f       	subi	r18, 0xFD	; 253
    5cbc:	3f 4f       	sbci	r19, 0xFF	; 255
    5cbe:	d6 01       	movw	r26, r12
    5cc0:	c5 01       	movw	r24, r10
    5cc2:	04 c0       	rjmp	.+8      	; 0x5ccc <usart_set_baudrate+0x184>
    5cc4:	88 0f       	add	r24, r24
    5cc6:	99 1f       	adc	r25, r25
    5cc8:	aa 1f       	adc	r26, r26
    5cca:	bb 1f       	adc	r27, r27
    5ccc:	2a 95       	dec	r18
    5cce:	d2 f7       	brpl	.-12     	; 0x5cc4 <usart_set_baudrate+0x17c>
    5cd0:	9c 01       	movw	r18, r24
    5cd2:	ad 01       	movw	r20, r26
    5cd4:	bc 01       	movw	r22, r24
    5cd6:	cd 01       	movw	r24, r26
    5cd8:	96 95       	lsr	r25
    5cda:	87 95       	ror	r24
    5cdc:	77 95       	ror	r23
    5cde:	67 95       	ror	r22
    5ce0:	66 0d       	add	r22, r6
    5ce2:	77 1d       	adc	r23, r7
    5ce4:	88 1d       	adc	r24, r8
    5ce6:	99 1d       	adc	r25, r9
    5ce8:	0e 94 4d 2f 	call	0x5e9a	; 0x5e9a <__udivmodsi4>
    5cec:	21 50       	subi	r18, 0x01	; 1
    5cee:	30 40       	sbci	r19, 0x00	; 0
    5cf0:	40 40       	sbci	r20, 0x00	; 0
    5cf2:	50 40       	sbci	r21, 0x00	; 0
    5cf4:	bb 27       	eor	r27, r27
    5cf6:	a5 2f       	mov	r26, r21
    5cf8:	94 2f       	mov	r25, r20
    5cfa:	83 2f       	mov	r24, r19
    5cfc:	8f 70       	andi	r24, 0x0F	; 15
    5cfe:	52 94       	swap	r5
    5d00:	90 ef       	ldi	r25, 0xF0	; 240
    5d02:	59 22       	and	r5, r25
    5d04:	85 29       	or	r24, r5
    5d06:	8f 83       	std	Y+7, r24	; 0x07
    5d08:	2e 83       	std	Y+6, r18	; 0x06
    5d0a:	81 e0       	ldi	r24, 0x01	; 1
    5d0c:	01 c0       	rjmp	.+2      	; 0x5d10 <usart_set_baudrate+0x1c8>
    5d0e:	80 e0       	ldi	r24, 0x00	; 0
    5d10:	df 91       	pop	r29
    5d12:	cf 91       	pop	r28
    5d14:	1f 91       	pop	r17
    5d16:	0f 91       	pop	r16
    5d18:	ff 90       	pop	r15
    5d1a:	ef 90       	pop	r14
    5d1c:	df 90       	pop	r13
    5d1e:	cf 90       	pop	r12
    5d20:	bf 90       	pop	r11
    5d22:	af 90       	pop	r10
    5d24:	9f 90       	pop	r9
    5d26:	8f 90       	pop	r8
    5d28:	7f 90       	pop	r7
    5d2a:	6f 90       	pop	r6
    5d2c:	5f 90       	pop	r5
    5d2e:	08 95       	ret

00005d30 <USART_putchar>:
    5d30:	fc 01       	movw	r30, r24
    5d32:	81 81       	ldd	r24, Z+1	; 0x01
    5d34:	85 ff       	sbrs	r24, 5
    5d36:	fd cf       	rjmp	.-6      	; 0x5d32 <USART_putchar+0x2>
    5d38:	60 83       	st	Z, r22
    5d3a:	08 95       	ret

00005d3c <USART_send>:
    5d3c:	dc 01       	movw	r26, r24
    5d3e:	fb 01       	movw	r30, r22
    5d40:	07 c0       	rjmp	.+14     	; 0x5d50 <USART_send+0x14>
    5d42:	11 96       	adiw	r26, 0x01	; 1
    5d44:	8c 91       	ld	r24, X
    5d46:	11 97       	sbiw	r26, 0x01	; 1
    5d48:	85 ff       	sbrs	r24, 5
    5d4a:	fb cf       	rjmp	.-10     	; 0x5d42 <USART_send+0x6>
    5d4c:	9c 93       	st	X, r25
    5d4e:	31 96       	adiw	r30, 0x01	; 1
    5d50:	90 81       	ld	r25, Z
    5d52:	99 23       	and	r25, r25
    5d54:	b1 f7       	brne	.-20     	; 0x5d42 <USART_send+0x6>
    5d56:	08 95       	ret

00005d58 <USART_send_F>:
    5d58:	dc 01       	movw	r26, r24
    5d5a:	fb 01       	movw	r30, r22
    5d5c:	07 c0       	rjmp	.+14     	; 0x5d6c <USART_send_F+0x14>
    5d5e:	11 96       	adiw	r26, 0x01	; 1
    5d60:	8c 91       	ld	r24, X
    5d62:	11 97       	sbiw	r26, 0x01	; 1
    5d64:	85 ff       	sbrs	r24, 5
    5d66:	fb cf       	rjmp	.-10     	; 0x5d5e <USART_send_F+0x6>
    5d68:	9c 93       	st	X, r25
    5d6a:	31 96       	adiw	r30, 0x01	; 1
    5d6c:	94 91       	lpm	r25, Z+
    5d6e:	99 23       	and	r25, r25
    5d70:	b1 f7       	brne	.-20     	; 0x5d5e <USART_send_F+0x6>
    5d72:	08 95       	ret

00005d74 <USART_send_block>:
    5d74:	dc 01       	movw	r26, r24
    5d76:	fb 01       	movw	r30, r22
    5d78:	09 c0       	rjmp	.+18     	; 0x5d8c <USART_send_block+0x18>
    5d7a:	90 81       	ld	r25, Z
    5d7c:	11 96       	adiw	r26, 0x01	; 1
    5d7e:	8c 91       	ld	r24, X
    5d80:	11 97       	sbiw	r26, 0x01	; 1
    5d82:	85 ff       	sbrs	r24, 5
    5d84:	fb cf       	rjmp	.-10     	; 0x5d7c <USART_send_block+0x8>
    5d86:	9c 93       	st	X, r25
    5d88:	31 96       	adiw	r30, 0x01	; 1
    5d8a:	41 50       	subi	r20, 0x01	; 1
    5d8c:	44 23       	and	r20, r20
    5d8e:	a9 f7       	brne	.-22     	; 0x5d7a <USART_send_block+0x6>
    5d90:	08 95       	ret

00005d92 <USART_send_block_F>:
    5d92:	dc 01       	movw	r26, r24
    5d94:	fb 01       	movw	r30, r22
    5d96:	09 c0       	rjmp	.+18     	; 0x5daa <USART_send_block_F+0x18>
    5d98:	94 91       	lpm	r25, Z+
    5d9a:	11 96       	adiw	r26, 0x01	; 1
    5d9c:	8c 91       	ld	r24, X
    5d9e:	11 97       	sbiw	r26, 0x01	; 1
    5da0:	85 ff       	sbrs	r24, 5
    5da2:	fb cf       	rjmp	.-10     	; 0x5d9a <USART_send_block_F+0x8>
    5da4:	9c 93       	st	X, r25
    5da6:	31 96       	adiw	r30, 0x01	; 1
    5da8:	41 50       	subi	r20, 0x01	; 1
    5daa:	44 23       	and	r20, r20
    5dac:	a9 f7       	brne	.-22     	; 0x5d98 <USART_send_block_F+0x6>
    5dae:	08 95       	ret

00005db0 <USART_send_int>:
    5db0:	fc 01       	movw	r30, r24
    5db2:	81 81       	ldd	r24, Z+1	; 0x01
    5db4:	85 ff       	sbrs	r24, 5
    5db6:	fd cf       	rjmp	.-6      	; 0x5db2 <USART_send_int+0x2>
    5db8:	60 83       	st	Z, r22
    5dba:	81 81       	ldd	r24, Z+1	; 0x01
    5dbc:	85 ff       	sbrs	r24, 5
    5dbe:	fd cf       	rjmp	.-6      	; 0x5dba <USART_send_int+0xa>
    5dc0:	81 81       	ldd	r24, Z+1	; 0x01
    5dc2:	85 ff       	sbrs	r24, 5
    5dc4:	fd cf       	rjmp	.-6      	; 0x5dc0 <USART_send_int+0x10>
    5dc6:	70 83       	st	Z, r23
    5dc8:	08 95       	ret

00005dca <USART_MergingData>:
    5dca:	80 91 33 26 	lds	r24, 0x2633
    5dce:	82 30       	cpi	r24, 0x02	; 2
    5dd0:	11 f4       	brne	.+4      	; 0x5dd6 <USART_MergingData+0xc>
    5dd2:	10 92 33 26 	sts	0x2633, r1
    5dd6:	80 91 33 26 	lds	r24, 0x2633
    5dda:	88 23       	and	r24, r24
    5ddc:	39 f4       	brne	.+14     	; 0x5dec <USART_MergingData+0x22>
    5dde:	80 91 b0 08 	lds	r24, 0x08B0
    5de2:	80 93 31 26 	sts	0x2631, r24
    5de6:	10 92 32 26 	sts	0x2632, r1
    5dea:	25 c0       	rjmp	.+74     	; 0x5e36 <USART_MergingData+0x6c>
    5dec:	80 91 33 26 	lds	r24, 0x2633
    5df0:	81 30       	cpi	r24, 0x01	; 1
    5df2:	09 f5       	brne	.+66     	; 0x5e36 <USART_MergingData+0x6c>
    5df4:	80 91 f6 20 	lds	r24, 0x20F6
    5df8:	88 32       	cpi	r24, 0x28	; 40
    5dfa:	11 f4       	brne	.+4      	; 0x5e00 <USART_MergingData+0x36>
    5dfc:	10 92 f6 20 	sts	0x20F6, r1
    5e00:	20 91 b0 08 	lds	r18, 0x08B0
    5e04:	92 2f       	mov	r25, r18
    5e06:	80 e0       	ldi	r24, 0x00	; 0
    5e08:	20 91 31 26 	lds	r18, 0x2631
    5e0c:	30 91 32 26 	lds	r19, 0x2632
    5e10:	28 0f       	add	r18, r24
    5e12:	39 1f       	adc	r19, r25
    5e14:	20 93 31 26 	sts	0x2631, r18
    5e18:	30 93 32 26 	sts	0x2632, r19
    5e1c:	80 91 f6 20 	lds	r24, 0x20F6
    5e20:	e8 2f       	mov	r30, r24
    5e22:	f0 e0       	ldi	r31, 0x00	; 0
    5e24:	ee 0f       	add	r30, r30
    5e26:	ff 1f       	adc	r31, r31
    5e28:	e0 53       	subi	r30, 0x30	; 48
    5e2a:	fa 4d       	sbci	r31, 0xDA	; 218
    5e2c:	20 83       	st	Z, r18
    5e2e:	31 83       	std	Z+1, r19	; 0x01
    5e30:	8f 5f       	subi	r24, 0xFF	; 255
    5e32:	80 93 f6 20 	sts	0x20F6, r24
    5e36:	80 91 33 26 	lds	r24, 0x2633
    5e3a:	8f 5f       	subi	r24, 0xFF	; 255
    5e3c:	80 93 33 26 	sts	0x2633, r24
    5e40:	08 95       	ret

00005e42 <USART_MergedData>:
    5e42:	80 91 33 26 	lds	r24, 0x2633
    5e46:	81 30       	cpi	r24, 0x01	; 1
    5e48:	19 f0       	breq	.+6      	; 0x5e50 <USART_MergedData+0xe>
    5e4a:	20 e0       	ldi	r18, 0x00	; 0
    5e4c:	30 e0       	ldi	r19, 0x00	; 0
    5e4e:	04 c0       	rjmp	.+8      	; 0x5e58 <USART_MergedData+0x16>
    5e50:	20 91 31 26 	lds	r18, 0x2631
    5e54:	30 91 32 26 	lds	r19, 0x2632
    5e58:	c9 01       	movw	r24, r18
    5e5a:	08 95       	ret

00005e5c <__mulsi3>:
    5e5c:	62 9f       	mul	r22, r18
    5e5e:	d0 01       	movw	r26, r0
    5e60:	73 9f       	mul	r23, r19
    5e62:	f0 01       	movw	r30, r0
    5e64:	82 9f       	mul	r24, r18
    5e66:	e0 0d       	add	r30, r0
    5e68:	f1 1d       	adc	r31, r1
    5e6a:	64 9f       	mul	r22, r20
    5e6c:	e0 0d       	add	r30, r0
    5e6e:	f1 1d       	adc	r31, r1
    5e70:	92 9f       	mul	r25, r18
    5e72:	f0 0d       	add	r31, r0
    5e74:	83 9f       	mul	r24, r19
    5e76:	f0 0d       	add	r31, r0
    5e78:	74 9f       	mul	r23, r20
    5e7a:	f0 0d       	add	r31, r0
    5e7c:	65 9f       	mul	r22, r21
    5e7e:	f0 0d       	add	r31, r0
    5e80:	99 27       	eor	r25, r25
    5e82:	72 9f       	mul	r23, r18
    5e84:	b0 0d       	add	r27, r0
    5e86:	e1 1d       	adc	r30, r1
    5e88:	f9 1f       	adc	r31, r25
    5e8a:	63 9f       	mul	r22, r19
    5e8c:	b0 0d       	add	r27, r0
    5e8e:	e1 1d       	adc	r30, r1
    5e90:	f9 1f       	adc	r31, r25
    5e92:	bd 01       	movw	r22, r26
    5e94:	cf 01       	movw	r24, r30
    5e96:	11 24       	eor	r1, r1
    5e98:	08 95       	ret

00005e9a <__udivmodsi4>:
    5e9a:	a1 e2       	ldi	r26, 0x21	; 33
    5e9c:	1a 2e       	mov	r1, r26
    5e9e:	aa 1b       	sub	r26, r26
    5ea0:	bb 1b       	sub	r27, r27
    5ea2:	fd 01       	movw	r30, r26
    5ea4:	0d c0       	rjmp	.+26     	; 0x5ec0 <__udivmodsi4_ep>

00005ea6 <__udivmodsi4_loop>:
    5ea6:	aa 1f       	adc	r26, r26
    5ea8:	bb 1f       	adc	r27, r27
    5eaa:	ee 1f       	adc	r30, r30
    5eac:	ff 1f       	adc	r31, r31
    5eae:	a2 17       	cp	r26, r18
    5eb0:	b3 07       	cpc	r27, r19
    5eb2:	e4 07       	cpc	r30, r20
    5eb4:	f5 07       	cpc	r31, r21
    5eb6:	20 f0       	brcs	.+8      	; 0x5ec0 <__udivmodsi4_ep>
    5eb8:	a2 1b       	sub	r26, r18
    5eba:	b3 0b       	sbc	r27, r19
    5ebc:	e4 0b       	sbc	r30, r20
    5ebe:	f5 0b       	sbc	r31, r21

00005ec0 <__udivmodsi4_ep>:
    5ec0:	66 1f       	adc	r22, r22
    5ec2:	77 1f       	adc	r23, r23
    5ec4:	88 1f       	adc	r24, r24
    5ec6:	99 1f       	adc	r25, r25
    5ec8:	1a 94       	dec	r1
    5eca:	69 f7       	brne	.-38     	; 0x5ea6 <__udivmodsi4_loop>
    5ecc:	60 95       	com	r22
    5ece:	70 95       	com	r23
    5ed0:	80 95       	com	r24
    5ed2:	90 95       	com	r25
    5ed4:	9b 01       	movw	r18, r22
    5ed6:	ac 01       	movw	r20, r24
    5ed8:	bd 01       	movw	r22, r26
    5eda:	cf 01       	movw	r24, r30
    5edc:	08 95       	ret

00005ede <_exit>:
    5ede:	f8 94       	cli

00005ee0 <__stop_program>:
    5ee0:	ff cf       	rjmp	.-2      	; 0x5ee0 <__stop_program>
