Archive member included because of file (symbol)

c:/winavr-20100110/bin/../lib/gcc/avr/4.3.3/avrxmega7\libgcc.a(_mulsi3.o)
                              ./PID.o (__mulsi3)
c:/winavr-20100110/bin/../lib/gcc/avr/4.3.3/avrxmega7\libgcc.a(_udivmodsi4.o)
                              ./hd44780.o (__udivmodsi4)
c:/winavr-20100110/bin/../lib/gcc/avr/4.3.3/avrxmega7\libgcc.a(_exit.o)
                              c:/winavr-20100110/bin/../lib/gcc/avr/4.3.3/../../../../avr/lib/avrxmega7/crtx128a1.o (exit)
c:/winavr-20100110/bin/../lib/gcc/avr/4.3.3/avrxmega7\libgcc.a(_clear_bss.o)
                              ./Adc.o (__do_clear_bss)

Allocating common symbols
Common symbol       size              file

D                   0x2               ./interrupts.o
iindex              0x1               ./Menu.o
Pidindex            0x1               ./Menu.o
j                   0x1               ./PcComands.o
A                   0x2               ./interrupts.o
l                   0x1               ./PcComands.o
k                   0x1               ./PcComands.o
TablicaSekw         0x280             ./PcComands.o
usart_data          0x2               ./usart.o
B                   0x2               ./interrupts.o
usart_buffer        0x50              ./PcComands.o
GriperPosition      0x1               ./PcComands.o
C                   0x2               ./interrupts.o
test                0x1               ./interrupts.o
GriperHoldFlag      0x1               ./interrupts.o
Pid                 0x24c             ./PID.o
E                   0x2               ./interrupts.o
usart_i             0x1               ./usart.o
AdcResultt          0x8               ./Adc.o
IloscSekwencji      0x1               ./PcComands.o
F                   0x2               ./interrupts.o
ADCindex            0x1               ./interrupts.o

Memory Configuration

Name             Origin             Length             Attributes
text             0x00000000         0x00100000         xr
data             0x00802000         0x0000ffa0         rw !x
eeprom           0x00810000         0x00010000         rw !x
fuse             0x00820000         0x00000400         rw !x
lock             0x00830000         0x00000400         rw !x
signature        0x00840000         0x00000400         rw !x
*default*        0x00000000         0xffffffff

Linker script and memory map

LOAD c:/winavr-20100110/bin/../lib/gcc/avr/4.3.3/../../../../avr/lib/avrxmega7/crtx128a1.o
LOAD ./Adc.o
LOAD ./CPU.o
LOAD ./Menu.o
LOAD ./PID.o
LOAD ./PcComands.o
LOAD ./hd44780.o
LOAD ./interrupts.o
LOAD ./main.o
LOAD ./usart.o
LOAD c:/winavr-20100110/bin/../lib/gcc/avr/4.3.3/avrxmega7\libgcc.a
LOAD c:/winavr-20100110/bin/../lib/gcc/avr/4.3.3/../../../../avr/lib/avrxmega7\libc.a
LOAD c:/winavr-20100110/bin/../lib/gcc/avr/4.3.3/avrxmega7\libgcc.a

.hash
 *(.hash)

.dynsym
 *(.dynsym)

.dynstr
 *(.dynstr)

.gnu.version
 *(.gnu.version)

.gnu.version_d
 *(.gnu.version_d)

.gnu.version_r
 *(.gnu.version_r)

.rel.init
 *(.rel.init)

.rela.init
 *(.rela.init)

.rel.text
 *(.rel.text)
 *(.rel.text.*)
 *(.rel.gnu.linkonce.t*)

.rela.text
 *(.rela.text)
 *(.rela.text.*)
 *(.rela.gnu.linkonce.t*)

.rel.fini
 *(.rel.fini)

.rela.fini
 *(.rela.fini)

.rel.rodata
 *(.rel.rodata)
 *(.rel.rodata.*)
 *(.rel.gnu.linkonce.r*)

.rela.rodata
 *(.rela.rodata)
 *(.rela.rodata.*)
 *(.rela.gnu.linkonce.r*)

.rel.data
 *(.rel.data)
 *(.rel.data.*)
 *(.rel.gnu.linkonce.d*)

.rela.data
 *(.rela.data)
 *(.rela.data.*)
 *(.rela.gnu.linkonce.d*)

.rel.ctors
 *(.rel.ctors)

.rela.ctors
 *(.rela.ctors)

.rel.dtors
 *(.rel.dtors)

.rela.dtors
 *(.rela.dtors)

.rel.got
 *(.rel.got)

.rela.got
 *(.rela.got)

.rel.bss
 *(.rel.bss)

.rela.bss
 *(.rela.bss)

.rel.plt
 *(.rel.plt)

.rela.plt
 *(.rela.plt)

.text           0x00000000     0x5ee2
 *(.vectors)
 .vectors       0x00000000      0x1f4 c:/winavr-20100110/bin/../lib/gcc/avr/4.3.3/../../../../avr/lib/avrxmega7/crtx128a1.o
                0x00000000                __vectors
                0x00000000                __vector_default
 *(.vectors)
 *(.progmem.gcc*)
 *(.progmem*)
                0x000001f4                . = ALIGN (0x2)
                0x000001f4                __trampolines_start = .
 *(.trampolines)
 .trampolines   0x000001f4        0x0 linker stubs
 *(.trampolines*)
                0x000001f4                __trampolines_end = .
 *(.jumptables)
 *(.jumptables*)
 *(.lowtext)
 *(.lowtext*)
                0x000001f4                __ctors_start = .
 *(.ctors)
                0x000001f4                __ctors_end = .
                0x000001f4                __dtors_start = .
 *(.dtors)
                0x000001f4                __dtors_end = .
 SORT(*)(.ctors)
 SORT(*)(.dtors)
 *(.init0)
 .init0         0x000001f4        0x0 c:/winavr-20100110/bin/../lib/gcc/avr/4.3.3/../../../../avr/lib/avrxmega7/crtx128a1.o
                0x000001f4                __init
 *(.init0)
 *(.init1)
 *(.init1)
 *(.init2)
 .init2         0x000001f4       0x18 c:/winavr-20100110/bin/../lib/gcc/avr/4.3.3/../../../../avr/lib/avrxmega7/crtx128a1.o
 *(.init2)
 *(.init3)
 *(.init3)
 *(.init4)
 .init4         0x0000020c       0x1c c:/winavr-20100110/bin/../lib/gcc/avr/4.3.3/../../../../avr/lib/avrxmega7/crtx128a1.o
                0x0000020c                __do_copy_data
 .init4         0x00000228       0x10 c:/winavr-20100110/bin/../lib/gcc/avr/4.3.3/avrxmega7\libgcc.a(_clear_bss.o)
                0x00000228                __do_clear_bss
 *(.init4)
 *(.init5)
 *(.init5)
 *(.init6)
 *(.init6)
 *(.init7)
 *(.init7)
 *(.init8)
 *(.init8)
 *(.init9)
 .init9         0x00000238        0x8 c:/winavr-20100110/bin/../lib/gcc/avr/4.3.3/../../../../avr/lib/avrxmega7/crtx128a1.o
 *(.init9)
 *(.text)
 .text          0x00000240        0x4 c:/winavr-20100110/bin/../lib/gcc/avr/4.3.3/../../../../avr/lib/avrxmega7/crtx128a1.o
                0x00000240                __vector_38
                0x00000240                __vector_104
                0x00000240                __vector_22
                0x00000240                __vector_63
                0x00000240                __vector_67
                0x00000240                __vector_1
                0x00000240                __vector_119
                0x00000240                __vector_32
                0x00000240                __vector_75
                0x00000240                __vector_71
                0x00000240                __vector_91
                0x00000240                __vector_62
                0x00000240                __vector_102
                0x00000240                __vector_24
                0x00000240                __vector_12
                0x00000240                __vector_55
                0x00000240                __vector_69
                0x00000240                __vector_81
                0x00000240                __vector_90
                0x00000240                __vector_46
                0x00000240                __bad_interrupt
                0x00000240                __vector_122
                0x00000240                __vector_72
                0x00000240                __vector_114
                0x00000240                __vector_6
                0x00000240                __vector_110
                0x00000240                __vector_31
                0x00000240                __vector_92
                0x00000240                __vector_35
                0x00000240                __vector_78
                0x00000240                __vector_74
                0x00000240                __vector_117
                0x00000240                __vector_39
                0x00000240                __vector_107
                0x00000240                __vector_3
                0x00000240                __vector_105
                0x00000240                __vector_23
                0x00000240                __vector_68
                0x00000240                __vector_30
                0x00000240                __vector_73
                0x00000240                __vector_45
                0x00000240                __vector_25
                0x00000240                __vector_93
                0x00000240                __vector_61
                0x00000240                __vector_11
                0x00000240                __vector_54
                0x00000240                __vector_99
                0x00000240                __vector_13
                0x00000240                __vector_17
                0x00000240                __vector_19
                0x00000240                __vector_56
                0x00000240                __vector_7
                0x00000240                __vector_49
                0x00000240                __vector_123
                0x00000240                __vector_41
                0x00000240                __vector_86
                0x00000240                __vector_101
                0x00000240                __vector_64
                0x00000240                __vector_88
                0x00000240                __vector_109
                0x00000240                __vector_43
                0x00000240                __vector_27
                0x00000240                __vector_5
                0x00000240                __vector_113
                0x00000240                __vector_33
                0x00000240                __vector_76
                0x00000240                __vector_115
                0x00000240                __vector_47
                0x00000240                __vector_52
                0x00000240                __vector_37
                0x00000240                __vector_95
                0x00000240                __vector_103
                0x00000240                __vector_89
                0x00000240                __vector_108
                0x00000240                __vector_44
                0x00000240                __vector_82
                0x00000240                __vector_106
                0x00000240                __vector_118
                0x00000240                __vector_51
                0x00000240                __vector_9
                0x00000240                __vector_2
                0x00000240                __vector_21
                0x00000240                __vector_15
                0x00000240                __vector_66
                0x00000240                __vector_36
                0x00000240                __vector_79
                0x00000240                __vector_58
                0x00000240                __vector_70
                0x00000240                __vector_29
                0x00000240                __vector_60
                0x00000240                __vector_121
                0x00000240                __vector_40
                0x00000240                __vector_85
                0x00000240                __vector_8
                0x00000240                __vector_26
                0x00000240                __vector_48
                0x00000240                __vector_124
                0x00000240                __vector_116
                0x00000240                __vector_112
                0x00000240                __vector_111
                0x00000240                __vector_80
                0x00000240                __vector_84
                0x00000240                __vector_57
                0x00000240                __vector_53
                0x00000240                __vector_10
                0x00000240                __vector_50
                0x00000240                __vector_16
                0x00000240                __vector_59
                0x00000240                __vector_18
                0x00000240                __vector_97
                0x00000240                __vector_42
                0x00000240                __vector_87
                0x00000240                __vector_65
                0x00000240                __vector_120
 .text          0x00000244       0xe6 ./Adc.o
                0x00000264                ReadCalibrationByte
                0x00000278                AdcBuffer
                0x00000244                AdcRead
 .text          0x0000032a      0x2a4 ./CPU.o
                0x000003e0                PortConfing
                0x00000348                TimerConfing
                0x000004fc                InterruptConfing
                0x00000558                AdcConfig
                0x0000032a                setClockTo32MHz
                0x0000058c                UsartInit
 .text          0x000005ce      0xaa8 ./Menu.o
                0x0000061a                LCDWelcomeTxt
                0x00000eb0                ButtonState
                0x00000638                LCDDisplay
                0x000005ce                LedLight
 .text          0x00001076     0x217e ./PID.o
                0x00002932                EngineStatus5
                0x00001086                PID
                0x00002ac6                Calibration
                0x00001076                ABS
                0x0000274e                EngineStatus6
                0x00001c86                Onlinecontrol
                0x00002144                PIDDefParameters
                0x00002044                PIDParameters
 .text          0x000031f4     0x2186 ./PcComands.o
                0x0000322e                ExecuteCommand
                0x000031f4                GetCommand
 .text          0x0000537a      0x28a ./hd44780.o
                0x00005438                LcdWrite
                0x0000541c                LcdCommand
                0x000053d6                _lcd_Write
                0x00005542                LcdDec
                0x0000546e                LcdGoto
                0x00005452                LcdWriteProgmem
                0x00005482                LcdClear
                0x00005492                LcdInit
                0x0000542a                LcdData
                0x0000537a                _lcd_OutNibble
 .text          0x00005604      0x4b2 ./interrupts.o
                0x000057cc                __vector_28
                0x00005604                __vector_34
                0x00005832                __vector_77
                0x000056e8                __vector_98
                0x00005780                __vector_100
                0x0000569c                __vector_96
                0x00005650                __vector_4
                0x000058ce                __vector_83
                0x00005734                __vector_94
                0x0000594a                __vector_14
                0x00005a2a                __vector_20
 .text          0x00005ab6       0x92 ./main.o
                0x00005ab6                main
 .text          0x00005b48      0x314 ./usart.o
                0x00005d30                USART_putchar
                0x00005b48                usart_set_baudrate
                0x00005db0                USART_send_int
                0x00005d74                USART_send_block
                0x00005e42                USART_MergedData
                0x00005dca                USART_MergingData
                0x00005d58                USART_send_F
                0x00005d92                USART_send_block_F
                0x00005d3c                USART_send
 .text          0x00005e5c        0x0 c:/winavr-20100110/bin/../lib/gcc/avr/4.3.3/avrxmega7\libgcc.a(_mulsi3.o)
 .text          0x00005e5c        0x0 c:/winavr-20100110/bin/../lib/gcc/avr/4.3.3/avrxmega7\libgcc.a(_udivmodsi4.o)
 .text          0x00005e5c        0x0 c:/winavr-20100110/bin/../lib/gcc/avr/4.3.3/avrxmega7\libgcc.a(_exit.o)
 .text          0x00005e5c        0x0 c:/winavr-20100110/bin/../lib/gcc/avr/4.3.3/avrxmega7\libgcc.a(_clear_bss.o)
                0x00005e5c                . = ALIGN (0x2)
 *(.text.*)
 .text.libgcc   0x00005e5c       0x3e c:/winavr-20100110/bin/../lib/gcc/avr/4.3.3/avrxmega7\libgcc.a(_mulsi3.o)
                0x00005e5c                __mulsi3
 .text.libgcc   0x00005e9a       0x44 c:/winavr-20100110/bin/../lib/gcc/avr/4.3.3/avrxmega7\libgcc.a(_udivmodsi4.o)
                0x00005e9a                __udivmodsi4
 .text.libgcc   0x00005ede        0x0 c:/winavr-20100110/bin/../lib/gcc/avr/4.3.3/avrxmega7\libgcc.a(_exit.o)
 .text.libgcc   0x00005ede        0x0 c:/winavr-20100110/bin/../lib/gcc/avr/4.3.3/avrxmega7\libgcc.a(_clear_bss.o)
                0x00005ede                . = ALIGN (0x2)
 *(.fini9)
 .fini9         0x00005ede        0x0 c:/winavr-20100110/bin/../lib/gcc/avr/4.3.3/avrxmega7\libgcc.a(_exit.o)
                0x00005ede                exit
                0x00005ede                _exit
 *(.fini9)
 *(.fini8)
 *(.fini8)
 *(.fini7)
 *(.fini7)
 *(.fini6)
 *(.fini6)
 *(.fini5)
 *(.fini5)
 *(.fini4)
 *(.fini4)
 *(.fini3)
 *(.fini3)
 *(.fini2)
 *(.fini2)
 *(.fini1)
 *(.fini1)
 *(.fini0)
 .fini0         0x00005ede        0x4 c:/winavr-20100110/bin/../lib/gcc/avr/4.3.3/avrxmega7\libgcc.a(_exit.o)
 *(.fini0)
                0x00005ee2                _etext = .

.data           0x00802000       0xec load address 0x00005ee2
                0x00802000                PROVIDE (__data_start, .)
 *(.data)
 .data          0x00802000        0x0 c:/winavr-20100110/bin/../lib/gcc/avr/4.3.3/../../../../avr/lib/avrxmega7/crtx128a1.o
 .data          0x00802000        0x0 ./Adc.o
 .data          0x00802000        0x0 ./CPU.o
 .data          0x00802000       0xe9 ./Menu.o
 .data          0x008020e9        0x0 ./PID.o
 .data          0x008020e9        0x2 ./PcComands.o
                0x008020ea                PidTestEngine
                0x008020e9                GriperWork
 .data          0x008020eb        0x0 ./hd44780.o
 .data          0x008020eb        0x1 ./interrupts.o
                0x008020eb                HoldForce
 .data          0x008020ec        0x0 ./main.o
 .data          0x008020ec        0x0 ./usart.o
 .data          0x008020ec        0x0 c:/winavr-20100110/bin/../lib/gcc/avr/4.3.3/avrxmega7\libgcc.a(_mulsi3.o)
 .data          0x008020ec        0x0 c:/winavr-20100110/bin/../lib/gcc/avr/4.3.3/avrxmega7\libgcc.a(_udivmodsi4.o)
 .data          0x008020ec        0x0 c:/winavr-20100110/bin/../lib/gcc/avr/4.3.3/avrxmega7\libgcc.a(_exit.o)
 .data          0x008020ec        0x0 c:/winavr-20100110/bin/../lib/gcc/avr/4.3.3/avrxmega7\libgcc.a(_clear_bss.o)
 *(.data*)
 *(.rodata)
 *(.rodata*)
 *(.gnu.linkonce.d*)
                0x008020ec                . = ALIGN (0x2)
                0x008020ec                _edata = .
                0x008020ec                PROVIDE (__data_end, .)

.bss            0x008020ec      0x548
                0x008020ec                PROVIDE (__bss_start, .)
 *(.bss)
 .bss           0x008020ec        0x0 c:/winavr-20100110/bin/../lib/gcc/avr/4.3.3/../../../../avr/lib/avrxmega7/crtx128a1.o
 .bss           0x008020ec        0x2 ./Adc.o
                0x008020ec                AdcResult
 .bss           0x008020ee        0x0 ./CPU.o
 .bss           0x008020ee        0x4 ./Menu.o
                0x008020ee                ButtonWork
 .bss           0x008020f2        0x0 ./PID.o
 .bss           0x008020f2        0x3 ./PcComands.o
 .bss           0x008020f5        0x0 ./hd44780.o
 .bss           0x008020f5        0x1 ./interrupts.o
                0x008020f5                PidTestTime
 .bss           0x008020f6        0x0 ./main.o
 .bss           0x008020f6        0x1 ./usart.o
                0x008020f6                buf_index
 .bss           0x008020f7        0x0 c:/winavr-20100110/bin/../lib/gcc/avr/4.3.3/avrxmega7\libgcc.a(_mulsi3.o)
 .bss           0x008020f7        0x0 c:/winavr-20100110/bin/../lib/gcc/avr/4.3.3/avrxmega7\libgcc.a(_udivmodsi4.o)
 .bss           0x008020f7        0x0 c:/winavr-20100110/bin/../lib/gcc/avr/4.3.3/avrxmega7\libgcc.a(_exit.o)
 .bss           0x008020f7        0x0 c:/winavr-20100110/bin/../lib/gcc/avr/4.3.3/avrxmega7\libgcc.a(_clear_bss.o)
 *(.bss*)
 *(COMMON)
 COMMON         0x008020f7        0x8 ./Adc.o
                0x008020f7                AdcResultt
 COMMON         0x008020ff        0x2 ./Menu.o
                0x008020ff                iindex
                0x00802100                Pidindex
 COMMON         0x00802101      0x24c ./PID.o
                0x00802101                Pid
 COMMON         0x0080234d      0x2d5 ./PcComands.o
                0x0080234d                j
                0x0080234e                l
                0x0080234f                k
                0x00802350                TablicaSekw
                0x008025d0                usart_buffer
                0x00802620                GriperPosition
                0x00802621                IloscSekwencji
 COMMON         0x00802622        0xf ./interrupts.o
                0x00802622                D
                0x00802624                A
                0x00802626                B
                0x00802628                C
                0x0080262a                test
                0x0080262b                GriperHoldFlag
                0x0080262c                E
                0x0080262e                F
                0x00802630                ADCindex
 COMMON         0x00802631        0x3 ./usart.o
                0x00802631                usart_data
                0x00802633                usart_i
                0x00802634                PROVIDE (__bss_end, .)
                0x00005ee2                __data_load_start = LOADADDR (.data)
                0x00005fce                __data_load_end = (__data_load_start + SIZEOF (.data))

.noinit         0x00802634        0x0
                0x00802634                PROVIDE (__noinit_start, .)
 *(.noinit*)
                0x00802634                PROVIDE (__noinit_end, .)
                0x00802634                _end = .
                0x00802634                PROVIDE (__heap_start, .)

.eeprom         0x00810000        0x0
 *(.eeprom*)
                0x00810000                __eeprom_end = .

.fuse
 *(.fuse)
 *(.lfuse)
 *(.hfuse)
 *(.efuse)

.lock
 *(.lock*)

.signature
 *(.signature*)

.stab
 *(.stab)

.stabstr
 *(.stabstr)

.stab.excl
 *(.stab.excl)

.stab.exclstr
 *(.stab.exclstr)

.stab.index
 *(.stab.index)

.stab.indexstr
 *(.stab.indexstr)

.comment
 *(.comment)

.debug
 *(.debug)

.line
 *(.line)

.debug_srcinfo
 *(.debug_srcinfo)

.debug_sfnames
 *(.debug_sfnames)

.debug_aranges
 *(.debug_aranges)

.debug_pubnames
 *(.debug_pubnames)

.debug_info
 *(.debug_info)
 *(.gnu.linkonce.wi.*)

.debug_abbrev
 *(.debug_abbrev)

.debug_line
 *(.debug_line)

.debug_frame
 *(.debug_frame)

.debug_str
 *(.debug_str)

.debug_loc
 *(.debug_loc)

.debug_macinfo
 *(.debug_macinfo)
OUTPUT(Manipulator.elf elf32-avr)
LOAD linker stubs
