Archive member included because of file (symbol)

c:/winavr-20100110/bin/../lib/gcc/avr/4.3.3/avr5\libgcc.a(_mulsi3.o)
                              timer.o (__mulsi3)
c:/winavr-20100110/bin/../lib/gcc/avr/4.3.3/avr5\libgcc.a(_udivmodhi4.o)
                              lcd.o (__udivmodhi4)
c:/winavr-20100110/bin/../lib/gcc/avr/4.3.3/avr5\libgcc.a(_udivmodsi4.o)
                              lcd.o (__udivmodsi4)
c:/winavr-20100110/bin/../lib/gcc/avr/4.3.3/avr5\libgcc.a(_exit.o)
                              c:/winavr-20100110/bin/../lib/gcc/avr/4.3.3/../../../../avr/lib/avr5/crtm32.o (exit)
c:/winavr-20100110/bin/../lib/gcc/avr/4.3.3/avr5\libgcc.a(_copy_data.o)
                              main.o (__do_copy_data)
c:/winavr-20100110/bin/../lib/gcc/avr/4.3.3/avr5\libgcc.a(_clear_bss.o)
                              timer.o (__do_clear_bss)

Allocating common symbols
Common symbol       size              file

Timer0Reg0          0x4               timer.o
TimerPauseReg       0x4               timer.o
Timer2Reg0          0x4               timer.o
spiTransferComplete
                    0x1               spi.o

Memory Configuration

Name             Origin             Length             Attributes
text             0x00000000         0x00020000         xr
data             0x00800060         0x0000ffa0         rw !x
eeprom           0x00810000         0x00010000         rw !x
fuse             0x00820000         0x00000400         rw !x
lock             0x00830000         0x00000400         rw !x
signature        0x00840000         0x00000400         rw !x
*default*        0x00000000         0xffffffff

Linker script and memory map

LOAD c:/winavr-20100110/bin/../lib/gcc/avr/4.3.3/../../../../avr/lib/avr5/crtm32.o
LOAD main.o
LOAD lcd.o
LOAD timer.o
LOAD spi.o
LOAD mmc.o
LOAD c:/winavr-20100110/bin/../lib/gcc/avr/4.3.3/avr5\libgcc.a
LOAD c:/winavr-20100110/bin/../lib/gcc/avr/4.3.3/../../../../avr/lib/avr5\libc.a
LOAD c:/winavr-20100110/bin/../lib/gcc/avr/4.3.3/avr5\libgcc.a

.hash
 *(.hash)

.dynsym
 *(.dynsym)

.dynstr
 *(.dynstr)

.gnu.version
 *(.gnu.version)

.gnu.version_d
 *(.gnu.version_d)

.gnu.version_r
 *(.gnu.version_r)

.rel.init
 *(.rel.init)

.rela.init
 *(.rela.init)

.rel.text
 *(.rel.text)
 *(.rel.text.*)
 *(.rel.gnu.linkonce.t*)

.rela.text
 *(.rela.text)
 *(.rela.text.*)
 *(.rela.gnu.linkonce.t*)

.rel.fini
 *(.rel.fini)

.rela.fini
 *(.rela.fini)

.rel.rodata
 *(.rel.rodata)
 *(.rel.rodata.*)
 *(.rel.gnu.linkonce.r*)

.rela.rodata
 *(.rela.rodata)
 *(.rela.rodata.*)
 *(.rela.gnu.linkonce.r*)

.rel.data
 *(.rel.data)
 *(.rel.data.*)
 *(.rel.gnu.linkonce.d*)

.rela.data
 *(.rela.data)
 *(.rela.data.*)
 *(.rela.gnu.linkonce.d*)

.rel.ctors
 *(.rel.ctors)

.rela.ctors
 *(.rela.ctors)

.rel.dtors
 *(.rel.dtors)

.rela.dtors
 *(.rela.dtors)

.rel.got
 *(.rel.got)

.rela.got
 *(.rela.got)

.rel.bss
 *(.rel.bss)

.rela.bss
 *(.rela.bss)

.rel.plt
 *(.rel.plt)

.rela.plt
 *(.rela.plt)

.text           0x00000000      0xf98
 *(.vectors)
 .vectors       0x00000000       0x54 c:/winavr-20100110/bin/../lib/gcc/avr/4.3.3/../../../../avr/lib/avr5/crtm32.o
                0x00000000                __vectors
                0x00000000                __vector_default
 *(.vectors)
 *(.progmem.gcc*)
 *(.progmem*)
 .progmem.data  0x00000054       0x88 lcd.o
                0x00000054                LcdCustomChar
 .progmem.data  0x000000dc       0x1c timer.o
                0x000000e8                TimerRTCPrescaleFactor
                0x000000dc                TimerPrescaleFactor
                0x000000f8                . = ALIGN (0x2)
                0x000000f8                __trampolines_start = .
 *(.trampolines)
 .trampolines   0x000000f8        0x0 linker stubs
 *(.trampolines*)
                0x000000f8                __trampolines_end = .
 *(.jumptables)
 *(.jumptables*)
 *(.lowtext)
 *(.lowtext*)
                0x000000f8                __ctors_start = .
 *(.ctors)
                0x000000f8                __ctors_end = .
                0x000000f8                __dtors_start = .
 *(.dtors)
                0x000000f8                __dtors_end = .
 SORT(*)(.ctors)
 SORT(*)(.dtors)
 *(.init0)
 .init0         0x000000f8        0x0 c:/winavr-20100110/bin/../lib/gcc/avr/4.3.3/../../../../avr/lib/avr5/crtm32.o
                0x000000f8                __init
 *(.init0)
 *(.init1)
 *(.init1)
 *(.init2)
 .init2         0x000000f8        0xc c:/winavr-20100110/bin/../lib/gcc/avr/4.3.3/../../../../avr/lib/avr5/crtm32.o
 *(.init2)
 *(.init3)
 *(.init3)
 *(.init4)
 .init4         0x00000104       0x16 c:/winavr-20100110/bin/../lib/gcc/avr/4.3.3/avr5\libgcc.a(_copy_data.o)
                0x00000104                __do_copy_data
 .init4         0x0000011a       0x10 c:/winavr-20100110/bin/../lib/gcc/avr/4.3.3/avr5\libgcc.a(_clear_bss.o)
                0x0000011a                __do_clear_bss
 *(.init4)
 *(.init5)
 *(.init5)
 *(.init6)
 *(.init6)
 *(.init7)
 *(.init7)
 *(.init8)
 *(.init8)
 *(.init9)
 .init9         0x0000012a        0x8 c:/winavr-20100110/bin/../lib/gcc/avr/4.3.3/../../../../avr/lib/avr5/crtm32.o
 *(.init9)
 *(.text)
 .text          0x00000132        0x4 c:/winavr-20100110/bin/../lib/gcc/avr/4.3.3/../../../../avr/lib/avr5/crtm32.o
                0x00000132                __vector_1
                0x00000132                __vector_12
                0x00000132                __bad_interrupt
                0x00000132                __vector_3
                0x00000132                __vector_13
                0x00000132                __vector_17
                0x00000132                __vector_19
                0x00000132                __vector_2
                0x00000132                __vector_15
                0x00000132                __vector_14
                0x00000132                __vector_16
                0x00000132                __vector_18
                0x00000132                __vector_20
 .text          0x00000136      0x1fa main.o
                0x00000136                main
 .text          0x00000330      0x2da lcd.o
                0x000004c2                lcdProgressBar
                0x00000442                lcdLoadCustomChar
                0x00000414                lcdHome
                0x000003a6                lcdControlRead
                0x00000498                lcdPrintData
                0x0000037c                lcdControlWrite
                0x000003c8                lcdDataWrite
                0x0000057c                lcdInit
                0x00000344                lcdBusyWait
                0x00000330                lcdInitHW
                0x00000424                lcdGotoXY
                0x000003f2                lcdDataRead
                0x0000041c                lcdClear
 .text          0x0000060a      0x682 timer.o
                0x00000874                timer2GetOverflowCount
                0x00000710                timerDetach
                0x00000698                timer1SetPrescaler
                0x00000930                timer1PWMBOff
                0x000006e0                timer2GetPrescaler
                0x00000bd8                __vector_6
                0x0000060c                timer0Init
                0x00000922                timer1PWMAOff
                0x00000944                timer1PWMBSet
                0x0000094a                __vector_11
                0x000008ba                timer1PWMInitICR
                0x000006ac                timer0GetPrescaler
                0x00000b24                __vector_7
                0x0000084c                timer0GetOverflowCount
                0x00000a4a                __vector_5
                0x00000664                timerInit
                0x000006a2                timer2SetPrescaler
                0x00000906                timer1PWMAOn
                0x0000068e                timer0SetPrescaler
                0x0000060a                delay_us
                0x00000c32                __vector_4
                0x0000083a                timer0ClearOverflowCount
                0x000009f0                __vector_9
                0x0000062e                timer1Init
                0x0000088a                timer1PWMInit
                0x00000914                timer1PWMBOn
                0x00000642                timer2Init
                0x00000b7e                __vector_8
                0x0000093e                timer1PWMASet
                0x000006fa                timerAttach
                0x000008e0                timer1PWMOff
                0x00000aca                __vector_10
                0x000006c6                timer1GetPrescaler
                0x00000862                timer2ClearOverflowCount
                0x00000726                timerPause
 .text          0x00000c8c       0x74 spi.o
                0x00000ccc                spiTransferWord
                0x00000cac                spiSendByte
                0x00000c8c                spiInit
                0x00000cb8                spiTransferByte
 .text          0x00000d00      0x1ea mmc.o
                0x00000d00                mmcCommand
                0x00000df8                mmcRead
                0x00000d5e                mmcSendCommand
                0x00000e6c                mmcReset
                0x00000ee0                mmcInit
                0x00000d68                mmcWrite
 .text          0x00000eea        0x0 c:/winavr-20100110/bin/../lib/gcc/avr/4.3.3/avr5\libgcc.a(_mulsi3.o)
 .text          0x00000eea        0x0 c:/winavr-20100110/bin/../lib/gcc/avr/4.3.3/avr5\libgcc.a(_udivmodhi4.o)
 .text          0x00000eea        0x0 c:/winavr-20100110/bin/../lib/gcc/avr/4.3.3/avr5\libgcc.a(_udivmodsi4.o)
 .text          0x00000eea        0x0 c:/winavr-20100110/bin/../lib/gcc/avr/4.3.3/avr5\libgcc.a(_exit.o)
 .text          0x00000eea        0x0 c:/winavr-20100110/bin/../lib/gcc/avr/4.3.3/avr5\libgcc.a(_copy_data.o)
 .text          0x00000eea        0x0 c:/winavr-20100110/bin/../lib/gcc/avr/4.3.3/avr5\libgcc.a(_clear_bss.o)
                0x00000eea                . = ALIGN (0x2)
 *(.text.*)
 .text.libgcc   0x00000eea       0x3e c:/winavr-20100110/bin/../lib/gcc/avr/4.3.3/avr5\libgcc.a(_mulsi3.o)
                0x00000eea                __mulsi3
 .text.libgcc   0x00000f28       0x28 c:/winavr-20100110/bin/../lib/gcc/avr/4.3.3/avr5\libgcc.a(_udivmodhi4.o)
                0x00000f28                __udivmodhi4
 .text.libgcc   0x00000f50       0x44 c:/winavr-20100110/bin/../lib/gcc/avr/4.3.3/avr5\libgcc.a(_udivmodsi4.o)
                0x00000f50                __udivmodsi4
 .text.libgcc   0x00000f94        0x0 c:/winavr-20100110/bin/../lib/gcc/avr/4.3.3/avr5\libgcc.a(_exit.o)
 .text.libgcc   0x00000f94        0x0 c:/winavr-20100110/bin/../lib/gcc/avr/4.3.3/avr5\libgcc.a(_copy_data.o)
 .text.libgcc   0x00000f94        0x0 c:/winavr-20100110/bin/../lib/gcc/avr/4.3.3/avr5\libgcc.a(_clear_bss.o)
                0x00000f94                . = ALIGN (0x2)
 *(.fini9)
 .fini9         0x00000f94        0x0 c:/winavr-20100110/bin/../lib/gcc/avr/4.3.3/avr5\libgcc.a(_exit.o)
                0x00000f94                exit
                0x00000f94                _exit
 *(.fini9)
 *(.fini8)
 *(.fini8)
 *(.fini7)
 *(.fini7)
 *(.fini6)
 *(.fini6)
 *(.fini5)
 *(.fini5)
 *(.fini4)
 *(.fini4)
 *(.fini3)
 *(.fini3)
 *(.fini2)
 *(.fini2)
 *(.fini1)
 *(.fini1)
 *(.fini0)
 .fini0         0x00000f94        0x4 c:/winavr-20100110/bin/../lib/gcc/avr/4.3.3/avr5\libgcc.a(_exit.o)
 *(.fini0)
                0x00000f98                _etext = .

.data           0x00800060       0x8a load address 0x00000f98
                0x00800060                PROVIDE (__data_start, .)
 *(.data)
 .data          0x00800060        0x0 c:/winavr-20100110/bin/../lib/gcc/avr/4.3.3/../../../../avr/lib/avr5/crtm32.o
 .data          0x00800060       0x89 main.o
 .data          0x008000e9        0x0 lcd.o
 .data          0x008000e9        0x0 timer.o
 .data          0x008000e9        0x0 spi.o
 .data          0x008000e9        0x0 mmc.o
 .data          0x008000e9        0x0 c:/winavr-20100110/bin/../lib/gcc/avr/4.3.3/avr5\libgcc.a(_mulsi3.o)
 .data          0x008000e9        0x0 c:/winavr-20100110/bin/../lib/gcc/avr/4.3.3/avr5\libgcc.a(_udivmodhi4.o)
 .data          0x008000e9        0x0 c:/winavr-20100110/bin/../lib/gcc/avr/4.3.3/avr5\libgcc.a(_udivmodsi4.o)
 .data          0x008000e9        0x0 c:/winavr-20100110/bin/../lib/gcc/avr/4.3.3/avr5\libgcc.a(_exit.o)
 .data          0x008000e9        0x0 c:/winavr-20100110/bin/../lib/gcc/avr/4.3.3/avr5\libgcc.a(_copy_data.o)
 .data          0x008000e9        0x0 c:/winavr-20100110/bin/../lib/gcc/avr/4.3.3/avr5\libgcc.a(_clear_bss.o)
 *(.data*)
 *(.rodata)
 *(.rodata*)
 *(.gnu.linkonce.d*)
                0x008000ea                . = ALIGN (0x2)
 *fill*         0x008000e9        0x1 00
                0x008000ea                _edata = .
                0x008000ea                PROVIDE (__data_end, .)

.bss            0x008000ea       0x1d
                0x008000ea                PROVIDE (__bss_start, .)
 *(.bss)
 .bss           0x008000ea        0x0 c:/winavr-20100110/bin/../lib/gcc/avr/4.3.3/../../../../avr/lib/avr5/crtm32.o
 .bss           0x008000ea        0x0 main.o
 .bss           0x008000ea        0x0 lcd.o
 .bss           0x008000ea       0x10 timer.o
 .bss           0x008000fa        0x0 spi.o
 .bss           0x008000fa        0x0 mmc.o
 .bss           0x008000fa        0x0 c:/winavr-20100110/bin/../lib/gcc/avr/4.3.3/avr5\libgcc.a(_mulsi3.o)
 .bss           0x008000fa        0x0 c:/winavr-20100110/bin/../lib/gcc/avr/4.3.3/avr5\libgcc.a(_udivmodhi4.o)
 .bss           0x008000fa        0x0 c:/winavr-20100110/bin/../lib/gcc/avr/4.3.3/avr5\libgcc.a(_udivmodsi4.o)
 .bss           0x008000fa        0x0 c:/winavr-20100110/bin/../lib/gcc/avr/4.3.3/avr5\libgcc.a(_exit.o)
 .bss           0x008000fa        0x0 c:/winavr-20100110/bin/../lib/gcc/avr/4.3.3/avr5\libgcc.a(_copy_data.o)
 .bss           0x008000fa        0x0 c:/winavr-20100110/bin/../lib/gcc/avr/4.3.3/avr5\libgcc.a(_clear_bss.o)
 *(.bss*)
 *(COMMON)
 COMMON         0x008000fa        0xc timer.o
                0x008000fa                Timer0Reg0
                0x008000fe                TimerPauseReg
                0x00800102                Timer2Reg0
 COMMON         0x00800106        0x1 spi.o
                0x00800106                spiTransferComplete
                0x00800107                PROVIDE (__bss_end, .)
                0x00000f98                __data_load_start = LOADADDR (.data)
                0x00001022                __data_load_end = (__data_load_start + SIZEOF (.data))

.noinit         0x00800107        0x0
                0x00800107                PROVIDE (__noinit_start, .)
 *(.noinit*)
                0x00800107                PROVIDE (__noinit_end, .)
                0x00800107                _end = .
                0x00800107                PROVIDE (__heap_start, .)

.eeprom         0x00810000        0x0
 *(.eeprom*)
                0x00810000                __eeprom_end = .

.fuse
 *(.fuse)
 *(.lfuse)
 *(.hfuse)
 *(.efuse)

.lock
 *(.lock*)

.signature
 *(.signature*)

.stab
 *(.stab)

.stabstr
 *(.stabstr)

.stab.excl
 *(.stab.excl)

.stab.exclstr
 *(.stab.exclstr)

.stab.index
 *(.stab.index)

.stab.indexstr
 *(.stab.indexstr)

.comment
 *(.comment)

.debug
 *(.debug)

.line
 *(.line)

.debug_srcinfo
 *(.debug_srcinfo)

.debug_sfnames
 *(.debug_sfnames)

.debug_aranges  0x00000000       0xa0
 *(.debug_aranges)
 .debug_aranges
                0x00000000       0x20 main.o
 .debug_aranges
                0x00000020       0x20 lcd.o
 .debug_aranges
                0x00000040       0x20 timer.o
 .debug_aranges
                0x00000060       0x20 spi.o
 .debug_aranges
                0x00000080       0x20 mmc.o

.debug_pubnames
                0x00000000      0x4e8
 *(.debug_pubnames)
 .debug_pubnames
                0x00000000       0x1b main.o
 .debug_pubnames
                0x0000001b       0xf7 lcd.o
 .debug_pubnames
                0x00000112      0x302 timer.o
 .debug_pubnames
                0x00000414       0x6e spi.o
 .debug_pubnames
                0x00000482       0x66 mmc.o

.debug_info     0x00000000     0x1249
 *(.debug_info)
 .debug_info    0x00000000      0x3ab main.o
 .debug_info    0x000003ab      0x382 lcd.o
 .debug_info    0x0000072d      0x769 timer.o
 .debug_info    0x00000e96      0x17f spi.o
 .debug_info    0x00001015      0x234 mmc.o
 *(.gnu.linkonce.wi.*)

.debug_abbrev   0x00000000      0x6e2
 *(.debug_abbrev)
 .debug_abbrev  0x00000000      0x130 main.o
 .debug_abbrev  0x00000130      0x17a lcd.o
 .debug_abbrev  0x000002aa      0x256 timer.o
 .debug_abbrev  0x00000500      0x122 spi.o
 .debug_abbrev  0x00000622       0xc0 mmc.o

.debug_line     0x00000000     0x1253
 *(.debug_line)
 .debug_line    0x00000000      0x347 main.o
 .debug_line    0x00000347      0x4cc lcd.o
 .debug_line    0x00000813      0x5f7 timer.o
 .debug_line    0x00000e0a      0x1c4 spi.o
 .debug_line    0x00000fce      0x285 mmc.o

.debug_frame    0x00000000      0x400
 *(.debug_frame)
 .debug_frame   0x00000000       0x20 main.o
 .debug_frame   0x00000020       0xe0 lcd.o
 .debug_frame   0x00000100      0x240 timer.o
 .debug_frame   0x00000340       0x50 spi.o
 .debug_frame   0x00000390       0x70 mmc.o

.debug_str      0x00000000      0x5c3
 *(.debug_str)
 .debug_str     0x00000000       0xe6 main.o
                                0x11f (size before relaxing)
 .debug_str     0x000000e6      0x138 lcd.o
                                0x21a (size before relaxing)
 .debug_str     0x0000021e      0x2f0 timer.o
                                0x3d1 (size before relaxing)
 .debug_str     0x0000050e       0x5f spi.o
                                0x12a (size before relaxing)
 .debug_str     0x0000056d       0x56 mmc.o
                                0x123 (size before relaxing)

.debug_loc      0x00000000      0x891
 *(.debug_loc)
 .debug_loc     0x00000000      0x1f0 main.o
 .debug_loc     0x000001f0      0x299 lcd.o
 .debug_loc     0x00000489      0x196 timer.o
 .debug_loc     0x0000061f       0x53 spi.o
 .debug_loc     0x00000672      0x21f mmc.o

.debug_macinfo
 *(.debug_macinfo)
OUTPUT(lcd.elf elf32-avr)
LOAD linker stubs

.debug_ranges   0x00000000       0x48
 .debug_ranges  0x00000000       0x48 main.o
