Archive member included to satisfy reference by file (symbol)

c:/program files (x86)/atmel/studio/7.0/toolchain/avr8/avr8-gnu-toolchain/bin/../lib/gcc/avr/5.4.0/avrxmega6\libgcc.a(_exit.o)
                              C:/Program Files (x86)/Atmel/Studio/7.0/Packs/atmel/XMEGAC_DFP/1.1.50/gcc/dev/atxmega192c3/avrxmega6/crtatxmega192c3.o (exit)
c:/program files (x86)/atmel/studio/7.0/toolchain/avr8/avr8-gnu-toolchain/bin/../lib/gcc/avr/5.4.0/avrxmega6\libgcc.a(_copy_data.o)
                              aes.o (__do_copy_data)
c:/program files (x86)/atmel/studio/7.0/toolchain/avr8/avr8-gnu-toolchain/bin/../lib/gcc/avr/5.4.0/avrxmega6\libgcc.a(_clear_bss.o)
                              aes.o (__do_clear_bss)
c:/program files (x86)/atmel/studio/7.0/toolchain/avr8/avr8-gnu-toolchain/bin/../lib/gcc/avr/5.4.0/avrxmega6\libgcc.a(_adddi3_s8.o)
                              mme_bootloader.o (__adddi3_s8)
c:/program files (x86)/atmel/studio/7.0/toolchain/avr8/avr8-gnu-toolchain/bin/../lib/gcc/avr/5.4.0/avrxmega6\libgcc.a(_cmpdi2.o)
                              mme_bootloader.o (__cmpdi2)
c:/program files (x86)/atmel/studio/7.0/toolchain/avr8/avr8-gnu-toolchain/bin/../lib/gcc/avr/5.4.0/../../../../avr/lib/avrxmega6\libc.a(memset.o)
                              aes.o (memset)

Allocating common symbols
Common symbol       size              file

buffer              0x200             mme_bootloader.o
buffer_decrypted    0x200             mme_bootloader.o

Discarded input sections

 .data          0x00000000        0x0 C:/Program Files (x86)/Atmel/Studio/7.0/Packs/atmel/XMEGAC_DFP/1.1.50/gcc/dev/atxmega192c3/avrxmega6/crtatxmega192c3.o
 .bss           0x00000000        0x0 C:/Program Files (x86)/Atmel/Studio/7.0/Packs/atmel/XMEGAC_DFP/1.1.50/gcc/dev/atxmega192c3/avrxmega6/crtatxmega192c3.o
 .text          0x00000000        0x0 aes.o
 .data          0x00000000        0x0 aes.o
 .bss           0x00000000        0x0 aes.o
 .text.ShiftRows
                0x00000000       0x3a aes.o
 .text.SubBytes
                0x00000000       0x3a aes.o
 .text.Cipher   0x00000000       0xbe aes.o
 .text.AES128_CBC_encrypt_buffer
                0x00000000       0xee aes.o
 .text          0x00000000        0x0 mcp2515.o
 .data          0x00000000        0x0 mcp2515.o
 .bss           0x00000000        0x0 mcp2515.o
 .text.mcp2515_RXStatus
                0x00000000        0x8 mcp2515.o
 .text          0x00000000        0x0 mme_bootloader.o
 .data          0x00000000        0x0 mme_bootloader.o
 .bss           0x00000000        0x0 mme_bootloader.o
 .text          0x00000000        0x0 spiX.o
 .data          0x00000000        0x0 spiX.o
 .bss           0x00000000        0x0 spiX.o
 .text.spi_mode
                0x00000000        0xa spiX.o
 .data          0x00000000        0x0 sp_driver.o
 .bss           0x00000000        0x0 sp_driver.o
 .text          0x00000000        0x0 c:/program files (x86)/atmel/studio/7.0/toolchain/avr8/avr8-gnu-toolchain/bin/../lib/gcc/avr/5.4.0/avrxmega6\libgcc.a(_exit.o)
 .data          0x00000000        0x0 c:/program files (x86)/atmel/studio/7.0/toolchain/avr8/avr8-gnu-toolchain/bin/../lib/gcc/avr/5.4.0/avrxmega6\libgcc.a(_exit.o)
 .bss           0x00000000        0x0 c:/program files (x86)/atmel/studio/7.0/toolchain/avr8/avr8-gnu-toolchain/bin/../lib/gcc/avr/5.4.0/avrxmega6\libgcc.a(_exit.o)
 .text.libgcc.mul
                0x00000000        0x0 c:/program files (x86)/atmel/studio/7.0/toolchain/avr8/avr8-gnu-toolchain/bin/../lib/gcc/avr/5.4.0/avrxmega6\libgcc.a(_exit.o)
 .text.libgcc.div
                0x00000000        0x0 c:/program files (x86)/atmel/studio/7.0/toolchain/avr8/avr8-gnu-toolchain/bin/../lib/gcc/avr/5.4.0/avrxmega6\libgcc.a(_exit.o)
 .text.libgcc   0x00000000        0x0 c:/program files (x86)/atmel/studio/7.0/toolchain/avr8/avr8-gnu-toolchain/bin/../lib/gcc/avr/5.4.0/avrxmega6\libgcc.a(_exit.o)
 .text.libgcc.prologue
                0x00000000        0x0 c:/program files (x86)/atmel/studio/7.0/toolchain/avr8/avr8-gnu-toolchain/bin/../lib/gcc/avr/5.4.0/avrxmega6\libgcc.a(_exit.o)
 .text.libgcc.builtins
                0x00000000        0x0 c:/program files (x86)/atmel/studio/7.0/toolchain/avr8/avr8-gnu-toolchain/bin/../lib/gcc/avr/5.4.0/avrxmega6\libgcc.a(_exit.o)
 .text.libgcc.fmul
                0x00000000        0x0 c:/program files (x86)/atmel/studio/7.0/toolchain/avr8/avr8-gnu-toolchain/bin/../lib/gcc/avr/5.4.0/avrxmega6\libgcc.a(_exit.o)
 .text.libgcc.fixed
                0x00000000        0x0 c:/program files (x86)/atmel/studio/7.0/toolchain/avr8/avr8-gnu-toolchain/bin/../lib/gcc/avr/5.4.0/avrxmega6\libgcc.a(_exit.o)
 .text          0x00000000        0x0 c:/program files (x86)/atmel/studio/7.0/toolchain/avr8/avr8-gnu-toolchain/bin/../lib/gcc/avr/5.4.0/avrxmega6\libgcc.a(_copy_data.o)
 .data          0x00000000        0x0 c:/program files (x86)/atmel/studio/7.0/toolchain/avr8/avr8-gnu-toolchain/bin/../lib/gcc/avr/5.4.0/avrxmega6\libgcc.a(_copy_data.o)
 .bss           0x00000000        0x0 c:/program files (x86)/atmel/studio/7.0/toolchain/avr8/avr8-gnu-toolchain/bin/../lib/gcc/avr/5.4.0/avrxmega6\libgcc.a(_copy_data.o)
 .text.libgcc.mul
                0x00000000        0x0 c:/program files (x86)/atmel/studio/7.0/toolchain/avr8/avr8-gnu-toolchain/bin/../lib/gcc/avr/5.4.0/avrxmega6\libgcc.a(_copy_data.o)
 .text.libgcc.div
                0x00000000        0x0 c:/program files (x86)/atmel/studio/7.0/toolchain/avr8/avr8-gnu-toolchain/bin/../lib/gcc/avr/5.4.0/avrxmega6\libgcc.a(_copy_data.o)
 .text.libgcc   0x00000000        0x0 c:/program files (x86)/atmel/studio/7.0/toolchain/avr8/avr8-gnu-toolchain/bin/../lib/gcc/avr/5.4.0/avrxmega6\libgcc.a(_copy_data.o)
 .text.libgcc.prologue
                0x00000000        0x0 c:/program files (x86)/atmel/studio/7.0/toolchain/avr8/avr8-gnu-toolchain/bin/../lib/gcc/avr/5.4.0/avrxmega6\libgcc.a(_copy_data.o)
 .text.libgcc.builtins
                0x00000000        0x0 c:/program files (x86)/atmel/studio/7.0/toolchain/avr8/avr8-gnu-toolchain/bin/../lib/gcc/avr/5.4.0/avrxmega6\libgcc.a(_copy_data.o)
 .text.libgcc.fmul
                0x00000000        0x0 c:/program files (x86)/atmel/studio/7.0/toolchain/avr8/avr8-gnu-toolchain/bin/../lib/gcc/avr/5.4.0/avrxmega6\libgcc.a(_copy_data.o)
 .text.libgcc.fixed
                0x00000000        0x0 c:/program files (x86)/atmel/studio/7.0/toolchain/avr8/avr8-gnu-toolchain/bin/../lib/gcc/avr/5.4.0/avrxmega6\libgcc.a(_copy_data.o)
 .text          0x00000000        0x0 c:/program files (x86)/atmel/studio/7.0/toolchain/avr8/avr8-gnu-toolchain/bin/../lib/gcc/avr/5.4.0/avrxmega6\libgcc.a(_clear_bss.o)
 .data          0x00000000        0x0 c:/program files (x86)/atmel/studio/7.0/toolchain/avr8/avr8-gnu-toolchain/bin/../lib/gcc/avr/5.4.0/avrxmega6\libgcc.a(_clear_bss.o)
 .bss           0x00000000        0x0 c:/program files (x86)/atmel/studio/7.0/toolchain/avr8/avr8-gnu-toolchain/bin/../lib/gcc/avr/5.4.0/avrxmega6\libgcc.a(_clear_bss.o)
 .text.libgcc.mul
                0x00000000        0x0 c:/program files (x86)/atmel/studio/7.0/toolchain/avr8/avr8-gnu-toolchain/bin/../lib/gcc/avr/5.4.0/avrxmega6\libgcc.a(_clear_bss.o)
 .text.libgcc.div
                0x00000000        0x0 c:/program files (x86)/atmel/studio/7.0/toolchain/avr8/avr8-gnu-toolchain/bin/../lib/gcc/avr/5.4.0/avrxmega6\libgcc.a(_clear_bss.o)
 .text.libgcc   0x00000000        0x0 c:/program files (x86)/atmel/studio/7.0/toolchain/avr8/avr8-gnu-toolchain/bin/../lib/gcc/avr/5.4.0/avrxmega6\libgcc.a(_clear_bss.o)
 .text.libgcc.prologue
                0x00000000        0x0 c:/program files (x86)/atmel/studio/7.0/toolchain/avr8/avr8-gnu-toolchain/bin/../lib/gcc/avr/5.4.0/avrxmega6\libgcc.a(_clear_bss.o)
 .text.libgcc.builtins
                0x00000000        0x0 c:/program files (x86)/atmel/studio/7.0/toolchain/avr8/avr8-gnu-toolchain/bin/../lib/gcc/avr/5.4.0/avrxmega6\libgcc.a(_clear_bss.o)
 .text.libgcc.fmul
                0x00000000        0x0 c:/program files (x86)/atmel/studio/7.0/toolchain/avr8/avr8-gnu-toolchain/bin/../lib/gcc/avr/5.4.0/avrxmega6\libgcc.a(_clear_bss.o)
 .text.libgcc.fixed
                0x00000000        0x0 c:/program files (x86)/atmel/studio/7.0/toolchain/avr8/avr8-gnu-toolchain/bin/../lib/gcc/avr/5.4.0/avrxmega6\libgcc.a(_clear_bss.o)
 .text          0x00000000        0x0 c:/program files (x86)/atmel/studio/7.0/toolchain/avr8/avr8-gnu-toolchain/bin/../lib/gcc/avr/5.4.0/avrxmega6\libgcc.a(_adddi3_s8.o)
 .data          0x00000000        0x0 c:/program files (x86)/atmel/studio/7.0/toolchain/avr8/avr8-gnu-toolchain/bin/../lib/gcc/avr/5.4.0/avrxmega6\libgcc.a(_adddi3_s8.o)
 .bss           0x00000000        0x0 c:/program files (x86)/atmel/studio/7.0/toolchain/avr8/avr8-gnu-toolchain/bin/../lib/gcc/avr/5.4.0/avrxmega6\libgcc.a(_adddi3_s8.o)
 .text.libgcc.mul
                0x00000000        0x0 c:/program files (x86)/atmel/studio/7.0/toolchain/avr8/avr8-gnu-toolchain/bin/../lib/gcc/avr/5.4.0/avrxmega6\libgcc.a(_adddi3_s8.o)
 .text.libgcc.div
                0x00000000        0x0 c:/program files (x86)/atmel/studio/7.0/toolchain/avr8/avr8-gnu-toolchain/bin/../lib/gcc/avr/5.4.0/avrxmega6\libgcc.a(_adddi3_s8.o)
 .text.libgcc.prologue
                0x00000000        0x0 c:/program files (x86)/atmel/studio/7.0/toolchain/avr8/avr8-gnu-toolchain/bin/../lib/gcc/avr/5.4.0/avrxmega6\libgcc.a(_adddi3_s8.o)
 .text.libgcc.builtins
                0x00000000        0x0 c:/program files (x86)/atmel/studio/7.0/toolchain/avr8/avr8-gnu-toolchain/bin/../lib/gcc/avr/5.4.0/avrxmega6\libgcc.a(_adddi3_s8.o)
 .text.libgcc.fmul
                0x00000000        0x0 c:/program files (x86)/atmel/studio/7.0/toolchain/avr8/avr8-gnu-toolchain/bin/../lib/gcc/avr/5.4.0/avrxmega6\libgcc.a(_adddi3_s8.o)
 .text.libgcc.fixed
                0x00000000        0x0 c:/program files (x86)/atmel/studio/7.0/toolchain/avr8/avr8-gnu-toolchain/bin/../lib/gcc/avr/5.4.0/avrxmega6\libgcc.a(_adddi3_s8.o)
 .text          0x00000000        0x0 c:/program files (x86)/atmel/studio/7.0/toolchain/avr8/avr8-gnu-toolchain/bin/../lib/gcc/avr/5.4.0/avrxmega6\libgcc.a(_cmpdi2.o)
 .data          0x00000000        0x0 c:/program files (x86)/atmel/studio/7.0/toolchain/avr8/avr8-gnu-toolchain/bin/../lib/gcc/avr/5.4.0/avrxmega6\libgcc.a(_cmpdi2.o)
 .bss           0x00000000        0x0 c:/program files (x86)/atmel/studio/7.0/toolchain/avr8/avr8-gnu-toolchain/bin/../lib/gcc/avr/5.4.0/avrxmega6\libgcc.a(_cmpdi2.o)
 .text.libgcc.mul
                0x00000000        0x0 c:/program files (x86)/atmel/studio/7.0/toolchain/avr8/avr8-gnu-toolchain/bin/../lib/gcc/avr/5.4.0/avrxmega6\libgcc.a(_cmpdi2.o)
 .text.libgcc.div
                0x00000000        0x0 c:/program files (x86)/atmel/studio/7.0/toolchain/avr8/avr8-gnu-toolchain/bin/../lib/gcc/avr/5.4.0/avrxmega6\libgcc.a(_cmpdi2.o)
 .text.libgcc.prologue
                0x00000000        0x0 c:/program files (x86)/atmel/studio/7.0/toolchain/avr8/avr8-gnu-toolchain/bin/../lib/gcc/avr/5.4.0/avrxmega6\libgcc.a(_cmpdi2.o)
 .text.libgcc.builtins
                0x00000000        0x0 c:/program files (x86)/atmel/studio/7.0/toolchain/avr8/avr8-gnu-toolchain/bin/../lib/gcc/avr/5.4.0/avrxmega6\libgcc.a(_cmpdi2.o)
 .text.libgcc.fmul
                0x00000000        0x0 c:/program files (x86)/atmel/studio/7.0/toolchain/avr8/avr8-gnu-toolchain/bin/../lib/gcc/avr/5.4.0/avrxmega6\libgcc.a(_cmpdi2.o)
 .text.libgcc.fixed
                0x00000000        0x0 c:/program files (x86)/atmel/studio/7.0/toolchain/avr8/avr8-gnu-toolchain/bin/../lib/gcc/avr/5.4.0/avrxmega6\libgcc.a(_cmpdi2.o)
 .text          0x00000000        0x0 c:/program files (x86)/atmel/studio/7.0/toolchain/avr8/avr8-gnu-toolchain/bin/../lib/gcc/avr/5.4.0/../../../../avr/lib/avrxmega6\libc.a(memset.o)
 .data          0x00000000        0x0 c:/program files (x86)/atmel/studio/7.0/toolchain/avr8/avr8-gnu-toolchain/bin/../lib/gcc/avr/5.4.0/../../../../avr/lib/avrxmega6\libc.a(memset.o)
 .bss           0x00000000        0x0 c:/program files (x86)/atmel/studio/7.0/toolchain/avr8/avr8-gnu-toolchain/bin/../lib/gcc/avr/5.4.0/../../../../avr/lib/avrxmega6\libc.a(memset.o)

Memory Configuration

Name             Origin             Length             Attributes
text             0x00000000         0x00100000         xr
data             0x00802000         0x0000ffa0         rw !x
eeprom           0x00810000         0x00010000         rw !x
fuse             0x00820000         0x00000006         rw !x
lock             0x00830000         0x00000400         rw !x
signature        0x00840000         0x00000400         rw !x
user_signatures  0x00850000         0x00000400         rw !x
*default*        0x00000000         0xffffffff

Linker script and memory map

LOAD C:/Program Files (x86)/Atmel/Studio/7.0/Packs/atmel/XMEGAC_DFP/1.1.50/gcc/dev/atxmega192c3/avrxmega6/crtatxmega192c3.o
LOAD aes.o
LOAD mcp2515.o
LOAD mme_bootloader.o
LOAD spiX.o
LOAD sp_driver.o
START GROUP
LOAD c:/program files (x86)/atmel/studio/7.0/toolchain/avr8/avr8-gnu-toolchain/bin/../lib/gcc/avr/5.4.0/../../../../avr/lib/avrxmega6\libm.a
END GROUP
Address of section .text set to 0x30000
START GROUP
LOAD c:/program files (x86)/atmel/studio/7.0/toolchain/avr8/avr8-gnu-toolchain/bin/../lib/gcc/avr/5.4.0/avrxmega6\libgcc.a
LOAD c:/program files (x86)/atmel/studio/7.0/toolchain/avr8/avr8-gnu-toolchain/bin/../lib/gcc/avr/5.4.0/../../../../avr/lib/avrxmega6\libm.a
LOAD c:/program files (x86)/atmel/studio/7.0/toolchain/avr8/avr8-gnu-toolchain/bin/../lib/gcc/avr/5.4.0/../../../../avr/lib/avrxmega6\libc.a
LOAD C:/Program Files (x86)/Atmel/Studio/7.0/Packs/atmel/XMEGAC_DFP/1.1.50/gcc/dev/atxmega192c3/avrxmega6\libatxmega192c3.a
END GROUP
                0x00100000                __TEXT_REGION_LENGTH__ = DEFINED (__TEXT_REGION_LENGTH__)?__TEXT_REGION_LENGTH__:0x100000
                0x0000ffa0                __DATA_REGION_LENGTH__ = DEFINED (__DATA_REGION_LENGTH__)?__DATA_REGION_LENGTH__:0xffa0
                0x00010000                __EEPROM_REGION_LENGTH__ = DEFINED (__EEPROM_REGION_LENGTH__)?__EEPROM_REGION_LENGTH__:0x10000
                [0x00000006]                __FUSE_REGION_LENGTH__ = DEFINED (__FUSE_REGION_LENGTH__)?__FUSE_REGION_LENGTH__:0x400
                0x00000400                __LOCK_REGION_LENGTH__ = DEFINED (__LOCK_REGION_LENGTH__)?__LOCK_REGION_LENGTH__:0x400
                0x00000400                __SIGNATURE_REGION_LENGTH__ = DEFINED (__SIGNATURE_REGION_LENGTH__)?__SIGNATURE_REGION_LENGTH__:0x400
                0x00000400                __USER_SIGNATURE_REGION_LENGTH__ = DEFINED (__USER_SIGNATURE_REGION_LENGTH__)?__USER_SIGNATURE_REGION_LENGTH__:0x400

.hash
 *(.hash)

.dynsym
 *(.dynsym)

.dynstr
 *(.dynstr)

.gnu.version
 *(.gnu.version)

.gnu.version_d
 *(.gnu.version_d)

.gnu.version_r
 *(.gnu.version_r)

.rel.init
 *(.rel.init)

.rela.init
 *(.rela.init)

.rel.text
 *(.rel.text)
 *(.rel.text.*)
 *(.rel.gnu.linkonce.t*)

.rela.text
 *(.rela.text)
 *(.rela.text.*)
 *(.rela.gnu.linkonce.t*)

.rel.fini
 *(.rel.fini)

.rela.fini
 *(.rela.fini)

.rel.rodata
 *(.rel.rodata)
 *(.rel.rodata.*)
 *(.rel.gnu.linkonce.r*)

.rela.rodata
 *(.rela.rodata)
 *(.rela.rodata.*)
 *(.rela.gnu.linkonce.r*)

.rel.data
 *(.rel.data)
 *(.rel.data.*)
 *(.rel.gnu.linkonce.d*)

.rela.data
 *(.rela.data)
 *(.rela.data.*)
 *(.rela.gnu.linkonce.d*)

.rel.ctors
 *(.rel.ctors)

.rela.ctors
 *(.rela.ctors)

.rel.dtors
 *(.rel.dtors)

.rela.dtors
 *(.rela.dtors)

.rel.got
 *(.rel.got)

.rela.got
 *(.rela.got)

.rel.bss
 *(.rel.bss)

.rela.bss
 *(.rela.bss)

.rel.plt
 *(.rel.plt)

.rela.plt
 *(.rela.plt)

.text           0x00030000     0x1822
 *(.vectors)
 .vectors       0x00030000      0x1fc C:/Program Files (x86)/Atmel/Studio/7.0/Packs/atmel/XMEGAC_DFP/1.1.50/gcc/dev/atxmega192c3/avrxmega6/crtatxmega192c3.o
                0x00030000                __vector_default
                0x00030000                __vectors
 *(.vectors)
 *(.progmem.gcc*)
                0x000301fc                . = ALIGN (0x2)
                0x000301fc                __trampolines_start = .
 *(.trampolines)
 .trampolines   0x000301fc        0x0 linker stubs
 *(.trampolines*)
                0x000301fc                __trampolines_end = .
 *libprintf_flt.a:*(.progmem.data)
 *libc.a:*(.progmem.data)
 *(.progmem*)
                0x000301fc                . = ALIGN (0x2)
 *(.jumptables)
 *(.jumptables*)
 *(.lowtext)
 *(.lowtext*)
                0x000301fc                __ctors_start = .
 *(.ctors)
                0x000301fc                __ctors_end = .
                0x000301fc                __dtors_start = .
 *(.dtors)
                0x000301fc                __dtors_end = .
 SORT(*)(.ctors)
 SORT(*)(.dtors)
 *(.init0)
 .init0         0x000301fc        0x0 C:/Program Files (x86)/Atmel/Studio/7.0/Packs/atmel/XMEGAC_DFP/1.1.50/gcc/dev/atxmega192c3/avrxmega6/crtatxmega192c3.o
                0x000301fc                __init
 *(.init0)
 *(.init1)
 *(.init1)
 *(.init2)
 .init2         0x000301fc       0x10 C:/Program Files (x86)/Atmel/Studio/7.0/Packs/atmel/XMEGAC_DFP/1.1.50/gcc/dev/atxmega192c3/avrxmega6/crtatxmega192c3.o
 *(.init2)
 *(.init3)
 *(.init3)
 *(.init4)
 .init4         0x0003020c       0x1a c:/program files (x86)/atmel/studio/7.0/toolchain/avr8/avr8-gnu-toolchain/bin/../lib/gcc/avr/5.4.0/avrxmega6\libgcc.a(_copy_data.o)
                0x0003020c                __do_copy_data
 .init4         0x00030226       0x10 c:/program files (x86)/atmel/studio/7.0/toolchain/avr8/avr8-gnu-toolchain/bin/../lib/gcc/avr/5.4.0/avrxmega6\libgcc.a(_clear_bss.o)
                0x00030226                __do_clear_bss
 *(.init4)
 *(.init5)
 *(.init5)
 *(.init6)
 *(.init6)
 *(.init7)
 *(.init7)
 *(.init8)
 *(.init8)
 *(.init9)
 .init9         0x00030236        0x6 C:/Program Files (x86)/Atmel/Studio/7.0/Packs/atmel/XMEGAC_DFP/1.1.50/gcc/dev/atxmega192c3/avrxmega6/crtatxmega192c3.o
 *(.init9)
 *(.text)
 .text          0x0003023c        0x2 C:/Program Files (x86)/Atmel/Studio/7.0/Packs/atmel/XMEGAC_DFP/1.1.50/gcc/dev/atxmega192c3/avrxmega6/crtatxmega192c3.o
                0x0003023c                __vector_38
                0x0003023c                __vector_104
                0x0003023c                __vector_22
                0x0003023c                __vector_63
                0x0003023c                __vector_28
                0x0003023c                __vector_67
                0x0003023c                __vector_1
                0x0003023c                __vector_119
                0x0003023c                __vector_32
                0x0003023c                __vector_75
                0x0003023c                __vector_71
                0x0003023c                __vector_91
                0x0003023c                __vector_34
                0x0003023c                __vector_62
                0x0003023c                __vector_77
                0x0003023c                __vector_102
                0x0003023c                __vector_24
                0x0003023c                __vector_12
                0x0003023c                __vector_55
                0x0003023c                __vector_69
                0x0003023c                __vector_81
                0x0003023c                __vector_90
                0x0003023c                __vector_46
                0x0003023c                __bad_interrupt
                0x0003023c                __vector_122
                0x0003023c                __vector_72
                0x0003023c                __vector_114
                0x0003023c                __vector_6
                0x0003023c                __vector_110
                0x0003023c                __vector_31
                0x0003023c                __vector_92
                0x0003023c                __vector_35
                0x0003023c                __vector_78
                0x0003023c                __vector_74
                0x0003023c                __vector_117
                0x0003023c                __vector_39
                0x0003023c                __vector_107
                0x0003023c                __vector_3
                0x0003023c                __vector_105
                0x0003023c                __vector_98
                0x0003023c                __vector_23
                0x0003023c                __vector_68
                0x0003023c                __vector_30
                0x0003023c                __vector_73
                0x0003023c                __vector_45
                0x0003023c                __vector_25
                0x0003023c                __vector_93
                0x0003023c                __vector_61
                0x0003023c                __vector_11
                0x0003023c                __vector_54
                0x0003023c                __vector_99
                0x0003023c                __vector_13
                0x0003023c                __vector_17
                0x0003023c                __vector_19
                0x0003023c                __vector_56
                0x0003023c                __vector_7
                0x0003023c                __vector_125
                0x0003023c                __vector_49
                0x0003023c                __vector_123
                0x0003023c                __vector_41
                0x0003023c                __vector_86
                0x0003023c                __vector_100
                0x0003023c                __vector_101
                0x0003023c                __vector_64
                0x0003023c                __vector_88
                0x0003023c                __vector_109
                0x0003023c                __vector_43
                0x0003023c                __vector_27
                0x0003023c                __vector_5
                0x0003023c                __vector_113
                0x0003023c                __vector_33
                0x0003023c                __vector_76
                0x0003023c                __vector_115
                0x0003023c                __vector_47
                0x0003023c                __vector_52
                0x0003023c                __vector_37
                0x0003023c                __vector_95
                0x0003023c                __vector_103
                0x0003023c                __vector_96
                0x0003023c                __vector_89
                0x0003023c                __vector_108
                0x0003023c                __vector_4
                0x0003023c                __vector_44
                0x0003023c                __vector_82
                0x0003023c                __vector_106
                0x0003023c                __vector_118
                0x0003023c                __vector_51
                0x0003023c                __vector_9
                0x0003023c                __vector_2
                0x0003023c                __vector_21
                0x0003023c                __vector_15
                0x0003023c                __vector_66
                0x0003023c                __vector_36
                0x0003023c                __vector_79
                0x0003023c                __vector_58
                0x0003023c                __vector_70
                0x0003023c                __vector_83
                0x0003023c                __vector_29
                0x0003023c                __vector_60
                0x0003023c                __vector_121
                0x0003023c                __vector_40
                0x0003023c                __vector_85
                0x0003023c                __vector_94
                0x0003023c                __vector_126
                0x0003023c                __vector_8
                0x0003023c                __vector_26
                0x0003023c                __vector_48
                0x0003023c                __vector_124
                0x0003023c                __vector_116
                0x0003023c                __vector_112
                0x0003023c                __vector_111
                0x0003023c                __vector_80
                0x0003023c                __vector_84
                0x0003023c                __vector_57
                0x0003023c                __vector_53
                0x0003023c                __vector_10
                0x0003023c                __vector_50
                0x0003023c                __vector_16
                0x0003023c                __vector_59
                0x0003023c                __vector_18
                0x0003023c                __vector_97
                0x0003023c                __vector_20
                0x0003023c                __vector_42
                0x0003023c                __vector_87
                0x0003023c                __vector_65
                0x0003023c                __vector_120
 .text          0x0003023e      0x154 sp_driver.o
                0x0003023e                SP_ReadByte
                0x0003024a                SP_ReadWord
                0x00030258                SP_ReadCalibrationByte
                0x0003025c                SP_ReadUserSignatureByte
                0x00030260                SP_ReadFuseByte
                0x00030276                SP_WriteLockBits
                0x0003027e                SP_ReadLockBits
                0x00030284                SP_EraseUserSignatureRow
                0x0003028a                SP_WriteUserSignatureRow
                0x00030290                SP_EraseApplicationSection
                0x0003029c                SP_EraseApplicationPage
                0x000302a6                SP_LoadFlashWord
                0x000302ae                SP_LoadFlashPage
                0x000302d4                SP_ReadFlashPage
                0x000302f6                SP_WriteApplicationPage
                0x00030300                SP_EraseWriteApplicationPage
                0x0003030a                SP_EraseFlashBuffer
                0x00030310                SP_EraseBootPage
                0x0003031a                SP_WriteBootPage
                0x00030324                SP_EraseWriteBootPage
                0x0003032e                SP_ApplicationCRC
                0x00030332                SP_BootCRC
                0x00030336                SP_LockSPM
                0x00030344                SP_WaitForSPM
                0x00030392                . = ALIGN (0x2)
 *(.text.*)
 .text.AddRoundKey
                0x00030392       0x4a aes.o
 .text.xtime    0x000303dc       0x16 aes.o
 .text.InvSubBytes
                0x000303f2       0x3a aes.o
 .text.InvShiftRows
                0x0003042c       0x3a aes.o
 .text.InvCipher
                0x00030466      0x13c aes.o
 .text.BlockCopy
                0x000305a2       0x16 aes.o
 .text.XorWithIv
                0x000305b8       0x20 aes.o
 .text.KeyExpansion
                0x000305d8      0x156 aes.o
 .text.AES128_CBC_decrypt_buffer
                0x0003072e       0xe0 aes.o
                0x0003072e                AES128_CBC_decrypt_buffer
 .text.mcp2515_readXXStatus_helper
                0x0003080e       0x54 mcp2515.o
 .text.mcp2515_reset
                0x00030862       0x5e mcp2515.o
                0x00030862                mcp2515_reset
 .text.mcp2515_readRegister
                0x000308c0       0x60 mcp2515.o
                0x000308c0                mcp2515_readRegister
 .text.mcp2515_readRegisterS
                0x00030920       0x88 mcp2515.o
                0x00030920                mcp2515_readRegisterS
 .text.mcp2515_setRegister
                0x000309a8       0x66 mcp2515.o
                0x000309a8                mcp2515_setRegister
 .text.mcp2515_setRegisterS
                0x00030a0e       0x86 mcp2515.o
                0x00030a0e                mcp2515_setRegisterS
 .text.mcp2515_modifyRegister
                0x00030a94       0x70 mcp2515.o
                0x00030a94                mcp2515_modifyRegister
 .text.mcp2515_readStatus
                0x00030b04        0x6 mcp2515.o
                0x00030b04                mcp2515_readStatus
 .text.mcp2515_setCANCTRL_Mode
                0x00030b0a       0x20 mcp2515.o
                0x00030b0a                mcp2515_setCANCTRL_Mode
 .text.mcp2515_configRate
                0x00030b2a       0x7e mcp2515.o
                0x00030b2a                mcp2515_configRate
 .text.mcp2515_read_can_id
                0x00030ba8       0xc8 mcp2515.o
                0x00030ba8                mcp2515_read_can_id
 .text.mcp2515_read_canMsg
                0x00030c70       0x4c mcp2515.o
                0x00030c70                mcp2515_read_canMsg
 .text.mcp2515_write_can_id
                0x00030cbc       0x7e mcp2515.o
                0x00030cbc                mcp2515_write_can_id
 .text.mcp2515_write_canMsg
                0x00030d3a       0x42 mcp2515.o
                0x00030d3a                mcp2515_write_canMsg
 .text.mcp2515_start_transmit
                0x00030d7c        0xa mcp2515.o
                0x00030d7c                mcp2515_start_transmit
 .text.mcp2515_getNextFreeTXBuf
                0x00030d86       0x76 mcp2515.o
                0x00030d86                mcp2515_getNextFreeTXBuf
 .text.mcp2515_initCANBuffers
                0x00030dfc       0x90 mcp2515.o
                0x00030dfc                mcp2515_initCANBuffers
 .text.mcp2515_init
                0x00030e8c       0x5a mcp2515.o
                0x00030e8c                mcp2515_init
 .text.can_send
                0x00030ee6       0x36 mme_bootloader.o
                0x00030ee6                can_send
 .text.can_read
                0x00030f1c       0x48 mme_bootloader.o
                0x00030f1c                can_read
 .text.firmware_read
                0x00030f64       0x4a mme_bootloader.o
                0x00030f64                firmware_read
 .text.__vector_14
                0x00030fae       0xd0 mme_bootloader.o
                0x00030fae                __vector_14
 .text.main     0x0003107e      0x730 mme_bootloader.o
                0x0003107e                main
 .text.spi_transfer
                0x000317ae       0x14 spiX.o
                0x000317ae                spi_transfer
 .text.spi_init
                0x000317c2       0x24 spiX.o
                0x000317c2                spi_init
 .text.libgcc   0x000317e6       0x18 c:/program files (x86)/atmel/studio/7.0/toolchain/avr8/avr8-gnu-toolchain/bin/../lib/gcc/avr/5.4.0/avrxmega6\libgcc.a(_adddi3_s8.o)
                0x000317e6                __adddi3_s8
 .text.libgcc   0x000317fe       0x12 c:/program files (x86)/atmel/studio/7.0/toolchain/avr8/avr8-gnu-toolchain/bin/../lib/gcc/avr/5.4.0/avrxmega6\libgcc.a(_cmpdi2.o)
                0x000317fe                __cmpdi2
 .text.avr-libc
                0x00031810        0xe c:/program files (x86)/atmel/studio/7.0/toolchain/avr8/avr8-gnu-toolchain/bin/../lib/gcc/avr/5.4.0/../../../../avr/lib/avrxmega6\libc.a(memset.o)
                0x00031810                memset
                0x0003181e                . = ALIGN (0x2)
 *(.fini9)
 .fini9         0x0003181e        0x0 c:/program files (x86)/atmel/studio/7.0/toolchain/avr8/avr8-gnu-toolchain/bin/../lib/gcc/avr/5.4.0/avrxmega6\libgcc.a(_exit.o)
                0x0003181e                _exit
                0x0003181e                exit
 *(.fini9)
 *(.fini8)
 *(.fini8)
 *(.fini7)
 *(.fini7)
 *(.fini6)
 *(.fini6)
 *(.fini5)
 *(.fini5)
 *(.fini4)
 *(.fini4)
 *(.fini3)
 *(.fini3)
 *(.fini2)
 *(.fini2)
 *(.fini1)
 *(.fini1)
 *(.fini0)
 .fini0         0x0003181e        0x4 c:/program files (x86)/atmel/studio/7.0/toolchain/avr8/avr8-gnu-toolchain/bin/../lib/gcc/avr/5.4.0/avrxmega6\libgcc.a(_exit.o)
 *(.fini0)
                0x00031822                _etext = .

.data           0x00802000      0x320 load address 0x00031822
                0x00802000                PROVIDE (__data_start, .)
 *(.data)
 *(.data*)
 .data.aes_iv   0x00802000       0x10 mme_bootloader.o
                0x00802000                aes_iv
 .data.aes_key  0x00802010       0x10 mme_bootloader.o
                0x00802010                aes_key
 *(.gnu.linkonce.d*)
 *(.rodata)
 *(.rodata*)
 .rodata.Rcon   0x00802020       0xff aes.o
 .rodata.rsbox  0x0080211f      0x100 aes.o
 .rodata.sbox   0x0080221f      0x100 aes.o
 *(.gnu.linkonce.r*)
                0x00802320                . = ALIGN (0x2)
 *fill*         0x0080231f        0x1 
                0x00802320                _edata = .
                0x00802320                PROVIDE (__data_end, .)

.bss            0x00802320      0x4c7
                0x00802320                PROVIDE (__bss_start, .)
 *(.bss)
 *(.bss*)
 .bss.Iv        0x00802320        0x2 aes.o
 .bss.Key       0x00802322        0x2 aes.o
 .bss.RoundKey  0x00802324       0xb0 aes.o
 .bss.state     0x008023d4        0x2 aes.o
 .bss.c.3722    0x008023d6        0x1 mme_bootloader.o
 .bss.ticks_1ms
                0x008023d7        0x8 mme_bootloader.o
                0x008023d7                ticks_1ms
 .bss.ticks_100us
                0x008023df        0x8 mme_bootloader.o
                0x008023df                ticks_100us
 *(COMMON)
 COMMON         0x008023e7      0x400 mme_bootloader.o
                0x008023e7                buffer
                0x008025e7                buffer_decrypted
                0x008027e7                PROVIDE (__bss_end, .)
                0x00031822                __data_load_start = LOADADDR (.data)
                0x00031b42                __data_load_end = (__data_load_start + SIZEOF (.data))

.noinit         0x008027e7        0x0
                [!provide]                PROVIDE (__noinit_start, .)
 *(.noinit*)
                [!provide]                PROVIDE (__noinit_end, .)
                0x008027e7                _end = .
                [!provide]                PROVIDE (__heap_start, .)

.eeprom         0x00810000        0x0
 *(.eeprom*)
                0x00810000                __eeprom_end = .

.fuse
 *(.fuse)
 *(.lfuse)
 *(.hfuse)
 *(.efuse)

.lock
 *(.lock*)

.signature
 *(.signature*)

.user_signatures
 *(.user_signatures*)

.stab
 *(.stab)

.stabstr
 *(.stabstr)

.stab.excl
 *(.stab.excl)

.stab.exclstr
 *(.stab.exclstr)

.stab.index
 *(.stab.index)

.stab.indexstr
 *(.stab.indexstr)

.comment        0x00000000       0x30
 *(.comment)
 .comment       0x00000000       0x30 aes.o
                                 0x31 (size before relaxing)
 .comment       0x00000030       0x31 mcp2515.o
 .comment       0x00000030       0x31 mme_bootloader.o
 .comment       0x00000030       0x31 spiX.o

.note.gnu.avr.deviceinfo
                0x00000000       0x40
 .note.gnu.avr.deviceinfo
                0x00000000       0x40 C:/Program Files (x86)/Atmel/Studio/7.0/Packs/atmel/XMEGAC_DFP/1.1.50/gcc/dev/atxmega192c3/avrxmega6/crtatxmega192c3.o

.note.gnu.build-id
 *(.note.gnu.build-id)

.debug
 *(.debug)

.line
 *(.line)

.debug_srcinfo
 *(.debug_srcinfo)

.debug_sfnames
 *(.debug_sfnames)

.debug_aranges  0x00000000      0x1c0
 *(.debug_aranges)
 .debug_aranges
                0x00000000       0x80 aes.o
 .debug_aranges
                0x00000080       0xb0 mcp2515.o
 .debug_aranges
                0x00000130       0x40 mme_bootloader.o
 .debug_aranges
                0x00000170       0x30 spiX.o
 .debug_aranges
                0x000001a0       0x20 sp_driver.o

.debug_pubnames
 *(.debug_pubnames)

.debug_info     0x00000000     0x57d2
 *(.debug_info .gnu.linkonce.wi.*)
 .debug_info    0x00000000     0x2888 C:/Program Files (x86)/Atmel/Studio/7.0/Packs/atmel/XMEGAC_DFP/1.1.50/gcc/dev/atxmega192c3/avrxmega6/crtatxmega192c3.o
 .debug_info    0x00002888      0xa43 aes.o
 .debug_info    0x000032cb      0xfe7 mcp2515.o
 .debug_info    0x000042b2     0x12d3 mme_bootloader.o
 .debug_info    0x00005585      0x1e2 spiX.o
 .debug_info    0x00005767       0x6b sp_driver.o

.debug_abbrev   0x00000000     0x2f4d
 *(.debug_abbrev)
 .debug_abbrev  0x00000000     0x2662 C:/Program Files (x86)/Atmel/Studio/7.0/Packs/atmel/XMEGAC_DFP/1.1.50/gcc/dev/atxmega192c3/avrxmega6/crtatxmega192c3.o
 .debug_abbrev  0x00002662      0x271 aes.o
 .debug_abbrev  0x000028d3      0x2bf mcp2515.o
 .debug_abbrev  0x00002b92      0x297 mme_bootloader.o
 .debug_abbrev  0x00002e29      0x110 spiX.o
 .debug_abbrev  0x00002f39       0x14 sp_driver.o

.debug_line     0x00000000     0x1d82
 *(.debug_line .debug_line.* .debug_line_end)
 .debug_line    0x00000000      0x39d C:/Program Files (x86)/Atmel/Studio/7.0/Packs/atmel/XMEGAC_DFP/1.1.50/gcc/dev/atxmega192c3/avrxmega6/crtatxmega192c3.o
 .debug_line    0x0000039d      0x647 aes.o
 .debug_line    0x000009e4      0x6ca mcp2515.o
 .debug_line    0x000010ae      0x7ba mme_bootloader.o
 .debug_line    0x00001868      0x163 spiX.o
 .debug_line    0x000019cb      0x3b7 sp_driver.o

.debug_frame    0x00000000      0x69c
 *(.debug_frame)
 .debug_frame   0x00000000      0x258 aes.o
 .debug_frame   0x00000258      0x2d0 mcp2515.o
 .debug_frame   0x00000528      0x130 mme_bootloader.o
 .debug_frame   0x00000658       0x44 spiX.o

.debug_str      0x00000000     0x26fd
 *(.debug_str)
 .debug_str     0x00000000     0x1a90 C:/Program Files (x86)/Atmel/Studio/7.0/Packs/atmel/XMEGAC_DFP/1.1.50/gcc/dev/atxmega192c3/avrxmega6/crtatxmega192c3.o
 .debug_str     0x00001a90      0x261 aes.o
                                0x2c8 (size before relaxing)
 .debug_str     0x00001cf1      0x29e mcp2515.o
                                0x432 (size before relaxing)
 .debug_str     0x00001f8f      0x648 mme_bootloader.o
                                0x8f9 (size before relaxing)
 .debug_str     0x000025d7      0x126 spiX.o
                                0x294 (size before relaxing)

.debug_loc      0x00000000     0x25f4
 *(.debug_loc)
 .debug_loc     0x00000000      0xab7 aes.o
 .debug_loc     0x00000ab7     0x12b5 mcp2515.o
 .debug_loc     0x00001d6c      0x812 mme_bootloader.o
 .debug_loc     0x0000257e       0x76 spiX.o

.debug_macinfo
 *(.debug_macinfo)

.debug_weaknames
 *(.debug_weaknames)

.debug_funcnames
 *(.debug_funcnames)

.debug_typenames
 *(.debug_typenames)

.debug_varnames
 *(.debug_varnames)

.debug_pubtypes
 *(.debug_pubtypes)

.debug_ranges   0x00000000      0x190
 *(.debug_ranges)
 .debug_ranges  0x00000000       0x70 aes.o
 .debug_ranges  0x00000070       0xa0 mcp2515.o
 .debug_ranges  0x00000110       0x60 mme_bootloader.o
 .debug_ranges  0x00000170       0x20 spiX.o

.debug_macro
 *(.debug_macro)
OUTPUT(mme_boot.elf elf32-avr)
LOAD linker stubs
