
;CodeVisionAVR C Compiler V1.25.8a Professional
;(C) Copyright 1998-2007 Pavel Haiduc, HP InfoTech s.r.l.
;http://www.hpinfotech.com

;Chip type              : ATtiny2313
;Clock frequency        : 12.000000 MHz
;Memory model           : Tiny
;Optimize for           : Size
;(s)printf features     : int
;(s)scanf features      : int, width
;External SRAM size     : 0
;Data Stack size        : 32 byte(s)
;Heap size              : 0 byte(s)
;Promote char to int    : No
;char is unsigned       : Yes
;8 bit enums            : Yes
;Word align FLASH struct: No
;Enhanced core instructions    : On
;Smart register allocation : On
;Automatic register allocation : On

	#pragma AVRPART ADMIN PART_NAME ATtiny2313
	#pragma AVRPART MEMORY PROG_FLASH 2048
	#pragma AVRPART MEMORY EEPROM 128
	#pragma AVRPART MEMORY INT_SRAM SIZE 128
	#pragma AVRPART MEMORY INT_SRAM START_ADDR 0x60

	.EQU UDRE=0x5
	.EQU RXC=0x7
	.EQU USR=0xB
	.EQU UDR=0xC
	.EQU EERE=0x0
	.EQU EEWE=0x1
	.EQU EEMWE=0x2
	.EQU EECR=0x1C
	.EQU EEDR=0x1D
	.EQU EEARL=0x1E
	.EQU WDTCR=0x21
	.EQU MCUSR=0x34
	.EQU MCUCR=0x35
	.EQU SPL=0x3D
	.EQU SREG=0x3F
	.EQU GPIOR0=0x13
	.EQU GPIOR1=0x14
	.EQU GPIOR2=0x15

	.DEF R0X0=R0
	.DEF R0X1=R1
	.DEF R0X2=R2
	.DEF R0X3=R3
	.DEF R0X4=R4
	.DEF R0X5=R5
	.DEF R0X6=R6
	.DEF R0X7=R7
	.DEF R0X8=R8
	.DEF R0X9=R9
	.DEF R0XA=R10
	.DEF R0XB=R11
	.DEF R0XC=R12
	.DEF R0XD=R13
	.DEF R0XE=R14
	.DEF R0XF=R15
	.DEF R0X10=R16
	.DEF R0X11=R17
	.DEF R0X12=R18
	.DEF R0X13=R19
	.DEF R0X14=R20
	.DEF R0X15=R21
	.DEF R0X16=R22
	.DEF R0X17=R23
	.DEF R0X18=R24
	.DEF R0X19=R25
	.DEF R0X1A=R26
	.DEF R0X1B=R27
	.DEF R0X1C=R28
	.DEF R0X1D=R29
	.DEF R0X1E=R30
	.DEF R0X1F=R31

	.MACRO __CPD1N
	CPI  R30,LOW(@0)
	LDI  R26,HIGH(@0)
	CPC  R31,R26
	LDI  R26,BYTE3(@0)
	CPC  R22,R26
	LDI  R26,BYTE4(@0)
	CPC  R23,R26
	.ENDM

	.MACRO __CPD2N
	CPI  R26,LOW(@0)
	LDI  R30,HIGH(@0)
	CPC  R27,R30
	LDI  R30,BYTE3(@0)
	CPC  R24,R30
	LDI  R30,BYTE4(@0)
	CPC  R25,R30
	.ENDM

	.MACRO __CPWRR
	CP   R@0,R@2
	CPC  R@1,R@3
	.ENDM

	.MACRO __CPWRN
	CPI  R@0,LOW(@2)
	LDI  R30,HIGH(@2)
	CPC  R@1,R30
	.ENDM

	.MACRO __ADDB1MN
	SUBI R30,LOW(-@0-(@1))
	.ENDM
	.MACRO __ADDB2MN
	SUBI R26,LOW(-@0-(@1))
	.ENDM
	.MACRO __ADDW1MN
	SUBI R30,LOW(-@0-(@1))
	SBCI R31,HIGH(-@0-(@1))
	.ENDM
	.MACRO __ADDW2MN
	SUBI R26,LOW(-@0-(@1))
	SBCI R27,HIGH(-@0-(@1))
	.ENDM
	.MACRO __ADDW1FN
	SUBI R30,LOW(-2*@0-(@1))
	SBCI R31,HIGH(-2*@0-(@1))
	.ENDM
	.MACRO __ADDD1FN
	SUBI R30,LOW(-2*@0-(@1))
	SBCI R31,HIGH(-2*@0-(@1))
	SBCI R22,BYTE3(-2*@0-(@1))
	.ENDM
	.MACRO __ADDD1N
	SUBI R30,LOW(-@0)
	SBCI R31,HIGH(-@0)
	SBCI R22,BYTE3(-@0)
	SBCI R23,BYTE4(-@0)
	.ENDM

	.MACRO __ADDD2N
	SUBI R26,LOW(-@0)
	SBCI R27,HIGH(-@0)
	SBCI R24,BYTE3(-@0)
	SBCI R25,BYTE4(-@0)
	.ENDM

	.MACRO __SUBD1N
	SUBI R30,LOW(@0)
	SBCI R31,HIGH(@0)
	SBCI R22,BYTE3(@0)
	SBCI R23,BYTE4(@0)
	.ENDM

	.MACRO __SUBD2N
	SUBI R26,LOW(@0)
	SBCI R27,HIGH(@0)
	SBCI R24,BYTE3(@0)
	SBCI R25,BYTE4(@0)
	.ENDM

	.MACRO __ANDBMNN
	LDS  R30,@0+@1
	ANDI R30,LOW(@2)
	STS  @0+@1,R30
	.ENDM

	.MACRO __ANDWMNN
	LDS  R30,@0+@1
	ANDI R30,LOW(@2)
	STS  @0+@1,R30
	LDS  R30,@0+@1+1
	ANDI R30,HIGH(@2)
	STS  @0+@1+1,R30
	.ENDM

	.MACRO __ANDD1N
	ANDI R30,LOW(@0)
	ANDI R31,HIGH(@0)
	ANDI R22,BYTE3(@0)
	ANDI R23,BYTE4(@0)
	.ENDM

	.MACRO __ORBMNN
	LDS  R30,@0+@1
	ORI  R30,LOW(@2)
	STS  @0+@1,R30
	.ENDM

	.MACRO __ORWMNN
	LDS  R30,@0+@1
	ORI  R30,LOW(@2)
	STS  @0+@1,R30
	LDS  R30,@0+@1+1
	ORI  R30,HIGH(@2)
	STS  @0+@1+1,R30
	.ENDM

	.MACRO __ORD1N
	ORI  R30,LOW(@0)
	ORI  R31,HIGH(@0)
	ORI  R22,BYTE3(@0)
	ORI  R23,BYTE4(@0)
	.ENDM

	.MACRO __DELAY_USB
	LDI  R24,LOW(@0)
__DELAY_USB_LOOP:
	DEC  R24
	BRNE __DELAY_USB_LOOP
	.ENDM

	.MACRO __DELAY_USW
	LDI  R24,LOW(@0)
	LDI  R25,HIGH(@0)
__DELAY_USW_LOOP:
	SBIW R24,1
	BRNE __DELAY_USW_LOOP
	.ENDM

	.MACRO __CLRD1S
	LDI  R30,0
	STD  Y+@0,R30
	STD  Y+@0+1,R30
	STD  Y+@0+2,R30
	STD  Y+@0+3,R30
	.ENDM

	.MACRO __GETD1S
	LDD  R30,Y+@0
	LDD  R31,Y+@0+1
	LDD  R22,Y+@0+2
	LDD  R23,Y+@0+3
	.ENDM

	.MACRO __PUTD1S
	STD  Y+@0,R30
	STD  Y+@0+1,R31
	STD  Y+@0+2,R22
	STD  Y+@0+3,R23
	.ENDM

	.MACRO __PUTD2S
	STD  Y+@0,R26
	STD  Y+@0+1,R27
	STD  Y+@0+2,R24
	STD  Y+@0+3,R25
	.ENDM

	.MACRO __POINTB1MN
	LDI  R30,LOW(@0+@1)
	.ENDM

	.MACRO __POINTW1MN
	LDI  R30,LOW(@0+@1)
	LDI  R31,HIGH(@0+@1)
	.ENDM

	.MACRO __POINTD1M
	LDI  R30,LOW(@0)
	LDI  R31,HIGH(@0)
	LDI  R22,BYTE3(@0)
	LDI  R23,BYTE4(@0)
	.ENDM

	.MACRO __POINTW1FN
	LDI  R30,LOW(2*@0+@1)
	LDI  R31,HIGH(2*@0+@1)
	.ENDM

	.MACRO __POINTD1FN
	LDI  R30,LOW(2*@0+@1)
	LDI  R31,HIGH(2*@0+@1)
	LDI  R22,BYTE3(2*@0+@1)
	LDI  R23,BYTE4(2*@0+@1)
	.ENDM

	.MACRO __POINTB2MN
	LDI  R26,LOW(@0+@1)
	.ENDM

	.MACRO __POINTW2MN
	LDI  R26,LOW(@0+@1)
	LDI  R27,HIGH(@0+@1)
	.ENDM

	.MACRO __POINTBRM
	LDI  R@0,LOW(@1)
	.ENDM

	.MACRO __POINTWRM
	LDI  R@0,LOW(@2)
	LDI  R@1,HIGH(@2)
	.ENDM

	.MACRO __POINTBRMN
	LDI  R@0,LOW(@1+@2)
	.ENDM

	.MACRO __POINTWRMN
	LDI  R@0,LOW(@2+@3)
	LDI  R@1,HIGH(@2+@3)
	.ENDM

	.MACRO __POINTWRFN
	LDI  R@0,LOW(@2*2+@3)
	LDI  R@1,HIGH(@2*2+@3)
	.ENDM

	.MACRO __GETD1N
	LDI  R30,LOW(@0)
	LDI  R31,HIGH(@0)
	LDI  R22,BYTE3(@0)
	LDI  R23,BYTE4(@0)
	.ENDM

	.MACRO __GETD2N
	LDI  R26,LOW(@0)
	LDI  R27,HIGH(@0)
	LDI  R24,BYTE3(@0)
	LDI  R25,BYTE4(@0)
	.ENDM

	.MACRO __GETD2S
	LDD  R26,Y+@0
	LDD  R27,Y+@0+1
	LDD  R24,Y+@0+2
	LDD  R25,Y+@0+3
	.ENDM

	.MACRO __GETB1MN
	LDS  R30,@0+@1
	.ENDM

	.MACRO __GETB1HMN
	LDS  R31,@0+@1
	.ENDM

	.MACRO __GETW1MN
	LDS  R30,@0+@1
	LDS  R31,@0+@1+1
	.ENDM

	.MACRO __GETD1MN
	LDS  R30,@0+@1
	LDS  R31,@0+@1+1
	LDS  R22,@0+@1+2
	LDS  R23,@0+@1+3
	.ENDM

	.MACRO __GETBRMN
	LDS  R@0,@1+@2
	.ENDM

	.MACRO __GETWRMN
	LDS  R@0,@2+@3
	LDS  R@1,@2+@3+1
	.ENDM

	.MACRO __GETWRZ
	LDD  R@0,Z+@2
	LDD  R@1,Z+@2+1
	.ENDM

	.MACRO __GETD2Z
	LDD  R26,Z+@0
	LDD  R27,Z+@0+1
	LDD  R24,Z+@0+2
	LDD  R25,Z+@0+3
	.ENDM

	.MACRO __GETB2MN
	LDS  R26,@0+@1
	.ENDM

	.MACRO __GETW2MN
	LDS  R26,@0+@1
	LDS  R27,@0+@1+1
	.ENDM

	.MACRO __GETD2MN
	LDS  R26,@0+@1
	LDS  R27,@0+@1+1
	LDS  R24,@0+@1+2
	LDS  R25,@0+@1+3
	.ENDM

	.MACRO __PUTB1MN
	STS  @0+@1,R30
	.ENDM

	.MACRO __PUTW1MN
	STS  @0+@1,R30
	STS  @0+@1+1,R31
	.ENDM

	.MACRO __PUTD1MN
	STS  @0+@1,R30
	STS  @0+@1+1,R31
	STS  @0+@1+2,R22
	STS  @0+@1+3,R23
	.ENDM

	.MACRO __PUTBR0MN
	STS  @0+@1,R0
	.ENDM

	.MACRO __PUTDZ2
	STD  Z+@0,R26
	STD  Z+@0+1,R27
	STD  Z+@0+2,R24
	STD  Z+@0+3,R25
	.ENDM

	.MACRO __PUTBMRN
	STS  @0+@1,R@2
	.ENDM

	.MACRO __PUTWMRN
	STS  @0+@1,R@2
	STS  @0+@1+1,R@3
	.ENDM

	.MACRO __PUTBZR
	STD  Z+@1,R@0
	.ENDM

	.MACRO __PUTWZR
	STD  Z+@2,R@0
	STD  Z+@2+1,R@1
	.ENDM

	.MACRO __GETW1R
	MOV  R30,R@0
	MOV  R31,R@1
	.ENDM

	.MACRO __GETW2R
	MOV  R26,R@0
	MOV  R27,R@1
	.ENDM

	.MACRO __GETWRN
	LDI  R@0,LOW(@2)
	LDI  R@1,HIGH(@2)
	.ENDM

	.MACRO __PUTW1R
	MOV  R@0,R30
	MOV  R@1,R31
	.ENDM

	.MACRO __PUTW2R
	MOV  R@0,R26
	MOV  R@1,R27
	.ENDM

	.MACRO __ADDWRN
	SUBI R@0,LOW(-@2)
	SBCI R@1,HIGH(-@2)
	.ENDM

	.MACRO __ADDWRR
	ADD  R@0,R@2
	ADC  R@1,R@3
	.ENDM

	.MACRO __SUBWRN
	SUBI R@0,LOW(@2)
	SBCI R@1,HIGH(@2)
	.ENDM

	.MACRO __SUBWRR
	SUB  R@0,R@2
	SBC  R@1,R@3
	.ENDM

	.MACRO __ANDWRN
	ANDI R@0,LOW(@2)
	ANDI R@1,HIGH(@2)
	.ENDM

	.MACRO __ANDWRR
	AND  R@0,R@2
	AND  R@1,R@3
	.ENDM

	.MACRO __ORWRN
	ORI  R@0,LOW(@2)
	ORI  R@1,HIGH(@2)
	.ENDM

	.MACRO __ORWRR
	OR   R@0,R@2
	OR   R@1,R@3
	.ENDM

	.MACRO __EORWRR
	EOR  R@0,R@2
	EOR  R@1,R@3
	.ENDM

	.MACRO __GETWRS
	LDD  R@0,Y+@2
	LDD  R@1,Y+@2+1
	.ENDM

	.MACRO __PUTWSR
	STD  Y+@2,R@0
	STD  Y+@2+1,R@1
	.ENDM

	.MACRO __MOVEWRR
	MOV  R@0,R@2
	MOV  R@1,R@3
	.ENDM

	.MACRO __INWR
	IN   R@0,@2
	IN   R@1,@2+1
	.ENDM

	.MACRO __OUTWR
	OUT  @2+1,R@1
	OUT  @2,R@0
	.ENDM

	.MACRO __CALL1MN
	LDS  R30,@0+@1
	LDS  R31,@0+@1+1
	ICALL
	.ENDM

	.MACRO __CALL1FN
	LDI  R30,LOW(2*@0+@1)
	LDI  R31,HIGH(2*@0+@1)
	RCALL __GETW1PF
	ICALL
	.ENDM

	.MACRO __CALL2EN
	LDI  R26,LOW(@0+@1)
	LDI  R27,HIGH(@0+@1)
	RCALL __EEPROMRDW
	ICALL
	.ENDM

	.MACRO __GETW1STACK
	IN   R26,SPL
	IN   R27,SPH
	ADIW R26,@0+1
	LD   R30,X+
	LD   R31,X
	.ENDM

	.MACRO __NBST
	BST  R@0,@1
	IN   R30,SREG
	LDI  R31,0x40
	EOR  R30,R31
	OUT  SREG,R30
	.ENDM


	.MACRO __PUTB1SN
	LDD  R26,Y+@0
	SUBI R26,-@1
	ST   X,R30
	.ENDM

	.MACRO __PUTW1SN
	LDD  R26,Y+@0
	SUBI R26,-@1
	ST   X+,R30
	ST   X,R31
	.ENDM

	.MACRO __PUTD1SN
	LDD  R26,Y+@0
	SUBI R26,-@1
	RCALL __PUTDP1
	.ENDM

	.MACRO __PUTB1SNS
	LDD  R26,Y+@0
	SUBI R26,-@1
	ST   X,R30
	.ENDM

	.MACRO __PUTW1SNS
	LDD  R26,Y+@0
	SUBI R26,-@1
	ST   X+,R30
	ST   X,R31
	.ENDM

	.MACRO __PUTD1SNS
	LDD  R26,Y+@0
	SUBI R26,-@1
	RCALL __PUTDP1
	.ENDM

	.MACRO __PUTB1RN
	MOV  R26,R@0
	SUBI R26,-@1
	ST   X,R30
	.ENDM

	.MACRO __PUTW1RN
	MOV  R26,R@0
	SUBI R26,-@1
	ST   X+,R30
	ST   X,R31
	.ENDM

	.MACRO __PUTD1RN
	MOV  R26,R@0
	SUBI R26,-@1
	RCALL __PUTDP1
	.ENDM

	.MACRO __PUTB1RNS
	MOV  R26,R@0
	SUBI R26,-@1
	ST   X,R30
	.ENDM

	.MACRO __PUTW1RNS
	MOV  R26,R@0
	SUBI R26,-@1
	ST   X+,R30
	ST   X,R31
	.ENDM

	.MACRO __PUTD1RNS
	MOV  R26,R@0
	SUBI R26,-@1
	RCALL __PUTDP1
	.ENDM

	.MACRO __PUTB1PMN
	LDS  R26,@0
	SUBI R26,-@1
	ST   X,R30
	.ENDM

	.MACRO __PUTW1PMN
	LDS  R26,@0
	SUBI R26,-@1
	ST   X+,R30
	ST   X,R31
	.ENDM

	.MACRO __PUTD1PMN
	LDS  R26,@0
	SUBI R26,-@1
	RCALL __PUTDP1
	.ENDM

	.MACRO __PUTB1PMNS
	LDS  R26,@0
	SUBI R26,-@1
	ST   X,R30
	.ENDM

	.MACRO __PUTW1PMNS
	LDS  R26,@0
	SUBI R26,-@1
	ST   X+,R30
	ST   X,R31
	.ENDM

	.MACRO __PUTD1PMNS
	LDS  R26,@0
	SUBI R26,-@1
	RCALL __PUTDP1
	.ENDM

	.MACRO __GETB1SX
	MOVW R30,R28
	SUBI R30,LOW(-@0)
	SBCI R31,HIGH(-@0)
	LD   R30,Z
	.ENDM

	.MACRO __GETB1HSX
	MOVW R30,R28
	SUBI R30,LOW(-@0)
	SBCI R31,HIGH(-@0)
	LD   R31,Z
	.ENDM

	.MACRO __GETW1SX
	MOVW R30,R28
	SUBI R30,LOW(-@0)
	SBCI R31,HIGH(-@0)
	LD   R0,Z+
	LD   R31,Z
	MOV  R30,R0
	.ENDM

	.MACRO __GETD1SX
	MOVW R30,R28
	SUBI R30,LOW(-@0)
	SBCI R31,HIGH(-@0)
	LD   R0,Z+
	LD   R1,Z+
	LD   R22,Z+
	LD   R23,Z
	MOVW R30,R0
	.ENDM

	.MACRO __GETB2SX
	MOVW R26,R28
	SUBI R26,LOW(-@0)
	SBCI R27,HIGH(-@0)
	LD   R26,X
	.ENDM

	.MACRO __GETW2SX
	MOVW R26,R28
	SUBI R26,LOW(-@0)
	SBCI R27,HIGH(-@0)
	LD   R0,X+
	LD   R27,X
	MOV  R26,R0
	.ENDM

	.MACRO __GETD2SX
	MOVW R26,R28
	SUBI R26,LOW(-@0)
	SBCI R27,HIGH(-@0)
	LD   R0,X+
	LD   R1,X+
	LD   R24,X+
	LD   R25,X
	MOVW R26,R0
	.ENDM

	.MACRO __GETBRSX
	MOVW R30,R28
	SUBI R30,LOW(-@1)
	SBCI R31,HIGH(-@1)
	LD   R@0,Z
	.ENDM

	.MACRO __GETWRSX
	MOVW R30,R28
	SUBI R30,LOW(-@2)
	SBCI R31,HIGH(-@2)
	LD   R@0,Z+
	LD   R@1,Z
	.ENDM

	.MACRO __LSLW8SX
	MOVW R30,R28
	SUBI R30,LOW(-@0)
	SBCI R31,HIGH(-@0)
	LD   R31,Z
	CLR  R30
	.ENDM

	.MACRO __PUTB1SX
	MOVW R26,R28
	SUBI R26,LOW(-@0)
	SBCI R27,HIGH(-@0)
	ST   X,R30
	.ENDM

	.MACRO __PUTW1SX
	MOVW R26,R28
	SUBI R26,LOW(-@0)
	SBCI R27,HIGH(-@0)
	ST   X+,R30
	ST   X,R31
	.ENDM

	.MACRO __PUTD1SX
	MOVW R26,R28
	SUBI R26,LOW(-@0)
	SBCI R27,HIGH(-@0)
	ST   X+,R30
	ST   X+,R31
	ST   X+,R22
	ST   X,R23
	.ENDM

	.MACRO __CLRW1SX
	MOVW R30,R28
	SUBI R30,LOW(-@0)
	SBCI R31,HIGH(-@0)
	CLR  R0
	ST   Z+,R0
	ST   Z,R0
	.ENDM

	.MACRO __CLRD1SX
	MOVW R30,R28
	SUBI R30,LOW(-@0)
	SBCI R31,HIGH(-@0)
	CLR  R0
	ST   Z+,R0
	ST   Z+,R0
	ST   Z+,R0
	ST   Z,R0
	.ENDM

	.MACRO __PUTB2SX
	MOVW R30,R28
	SUBI R30,LOW(-@0)
	SBCI R31,HIGH(-@0)
	ST   Z,R26
	.ENDM

	.MACRO __PUTW2SX
	MOVW R30,R28
	SUBI R30,LOW(-@0)
	SBCI R31,HIGH(-@0)
	ST   Z+,R26
	ST   Z,R27
	.ENDM

	.MACRO __PUTD2SX
	MOVW R30,R28
	SUBI R30,LOW(-@0)
	SBCI R31,HIGH(-@0)
	ST   Z+,R26
	ST   Z+,R27
	ST   Z+,R24
	ST   Z,R25
	.ENDM

	.MACRO __PUTBSRX
	MOVW R30,R28
	SUBI R30,LOW(-@0)
	SBCI R31,HIGH(-@0)
	ST   Z,R@1
	.ENDM

	.MACRO __PUTWSRX
	MOVW R30,R28
	SUBI R30,LOW(-@2)
	SBCI R31,HIGH(-@2)
	ST   Z+,R@0
	ST   Z,R@1
	.ENDM

	.MACRO __PUTB1SNX
	MOVW R26,R28
	SUBI R26,LOW(-@0)
	SBCI R27,HIGH(-@0)
	LD   R0,X+
	LD   R27,X
	MOV  R26,R0
	SUBI R26,LOW(-@1)
	SBCI R27,HIGH(-@1)
	ST   X,R30
	.ENDM

	.MACRO __PUTW1SNX
	MOVW R26,R28
	SUBI R26,LOW(-@0)
	SBCI R27,HIGH(-@0)
	LD   R0,X+
	LD   R27,X
	MOV  R26,R0
	SUBI R26,LOW(-@1)
	SBCI R27,HIGH(-@1)
	ST   X+,R30
	ST   X,R31
	.ENDM

	.MACRO __PUTD1SNX
	MOVW R26,R28
	SUBI R26,LOW(-@0)
	SBCI R27,HIGH(-@0)
	LD   R0,X+
	LD   R27,X
	MOV  R26,R0
	SUBI R26,LOW(-@1)
	SBCI R27,HIGH(-@1)
	ST   X+,R30
	ST   X+,R31
	ST   X+,R22
	ST   X,R23
	.ENDM

	.CSEG
	.ORG 0

	.INCLUDE "Thermometer.vec"
	.INCLUDE "Thermometer.inc"

__RESET:
	CLI
	CLR  R30
	OUT  EECR,R30
	OUT  MCUCR,R30

;DISABLE WATCHDOG
	LDI  R31,0x18
	IN   R26,MCUSR
	CBR  R26,8
	OUT  MCUSR,R26
	OUT  WDTCR,R31
	OUT  WDTCR,R30

;CLEAR R2-R14
	LDI  R24,13
	LDI  R26,2
__CLEAR_REG:
	ST   X+,R30
	DEC  R24
	BRNE __CLEAR_REG

;CLEAR SRAM
	LDI  R24,LOW(0x80)
	LDI  R26,0x60
__CLEAR_SRAM:
	ST   X+,R30
	DEC  R24
	BRNE __CLEAR_SRAM

;GLOBAL VARIABLES INITIALIZATION
	LDI  R30,LOW(__GLOBAL_INI_TBL*2)
	LDI  R31,HIGH(__GLOBAL_INI_TBL*2)
__GLOBAL_INI_NEXT:
	LPM  R24,Z+
	LPM  R25,Z+
	SBIW R24,0
	BREQ __GLOBAL_INI_END
	LPM  R26,Z+
	LPM  R27,Z+
	LPM  R0,Z+
	LPM  R1,Z+
	MOVW R22,R30
	MOVW R30,R0
__GLOBAL_INI_LOOP:
	LPM  R0,Z+
	ST   X+,R0
	SBIW R24,1
	BRNE __GLOBAL_INI_LOOP
	MOVW R30,R22
	RJMP __GLOBAL_INI_NEXT
__GLOBAL_INI_END:

;GPIOR0-GPIOR2 INITIALIZATION
	LDI  R30,__GPIOR0_INIT
	OUT  GPIOR0,R30
	LDI  R30,__GPIOR1_INIT
	OUT  GPIOR1,R30
	LDI  R30,__GPIOR2_INIT
	OUT  GPIOR2,R30

;STACK POINTER INITIALIZATION
	LDI  R30,LOW(0xDF)
	OUT  SPL,R30

;DATA STACK POINTER INITIALIZATION
	LDI  R28,LOW(0x80)
	LDI  R29,HIGH(0x80)

	RJMP _main

	.ESEG
	.ORG 0

	.DSEG
	.ORG 0x80
;       1           /****************************************************
;       2           ** Processor    : ATtiny2313-20PI                   **
;       3          *** Frequncy     : 12.000000 MHz                     ***
;       4         **** AUTHOR       : Behnam Esckandariun               ****
;       5        ***** Project      : Thermometer with SMT160 V.1.00.5  *****
;       6         **** Date         : 2008/02/24 11:49PM IRAN-ZANJAN    ****
;       7          *** Compiler     : CodeVisionAVR  V 1.25.8           ***
;       8           ** comment      : Just for educational use          **
;       9            ****************************************************
;      10 
;      11                         behnam.esckandariun@gmail.com
;      12 
;      13 
;      14 /***********************************************************************************
;      15 ************               Include Used library's                       ************
;      16 ***********************************************************************************/
;      17 #include <tiny2313.h>
;      18 	#ifndef __SLEEP_DEFINED__
	#ifndef __SLEEP_DEFINED__
;      19 	#define __SLEEP_DEFINED__
	#define __SLEEP_DEFINED__
;      20 	.EQU __se_bit=0x20
	.EQU __se_bit=0x20
;      21 	.EQU __sm_mask=0x50
	.EQU __sm_mask=0x50
;      22 	.EQU __sm_powerdown=0x10
	.EQU __sm_powerdown=0x10
;      23 	.EQU __sm_standby=0x40
	.EQU __sm_standby=0x40
;      24 	.SET power_ctrl_reg=mcucr
	.SET power_ctrl_reg=mcucr
;      25 	#endif
	#endif
;      26 #include <stdlib.h>
;      27 #include <delay.h>
;      28 /***********************************************************************************
;      29 ************                  Define Used  I/O                          ************
;      30 ***********************************************************************************/
;      31 #define smt160 PORTD.1
;      32 #define on 1
;      33 #define off 0
;      34 #define segment PORTB
;      35 #define control PORTD
;      36 #define sega PORTD.6
;      37 #define segb PORTD.5
;      38 #define segc PORTD.4
;      39 #define segd PORTD.3
;      40 /***********************************************************************************
;      41 ************              Declare function of init                      ************
;      42 ***********************************************************************************/
;      43 void system_init(void);
;      44 /***********************************************************************************
;      45 ************        Declare global variable's and const here            ************
;      46 ***********************************************************************************/
;      47 unsigned char a[5],b;           //used for 7-segment refresh program
_a:
	.BYTE 0x5
;      48 unsigned char i=0;              //used for 7-segment refresh program
;      49 float t1,t2,t;                  //contain on & off time of SMT160 output signal
_t1:
	.BYTE 0x4
_t2:
	.BYTE 0x4
_t:
	.BYTE 0x4
;      50 signed int temp;                //Contain temp*10 for one poine
;      51 bit edge=0;                     //Used in musering t1 & t2
;      52 unsigned int memory;
;      53 //This line Save Com-Anode 7-segment Data on Flash ROM
;      54 flash char s_data[]={192,249,164,176,153,146,130,248,128,144,191,255};

	.CSEG
;      55 /***********************************************************************************
;      56 ************           INT0 Service routin Used for SMT160              ************
;      57 ************                   Duty-cycle mesure                        ************
;      58 ***********************************************************************************/
;      59 //This ISR just mesure on and off time of the SMT160 Out signal in t1 & t2
;      60 //Globale variable's . calculate of temp accure in main function
;      61 interrupt [EXT_INT0] void ext_int0_isr(void)
;      62 {
_ext_int0_isr:
	ST   -Y,R0
	ST   -Y,R1
	ST   -Y,R22
	ST   -Y,R23
	ST   -Y,R30
	ST   -Y,R31
	IN   R30,SREG
	ST   -Y,R30
;      63 if (edge)
	SBIS 0x13,0
	RJMP _0x3
;      64         {
;      65         t2=TCNT1;
	RCALL SUBOPT_0x0
	STS  _t2,R30
	STS  _t2+1,R31
	STS  _t2+2,R22
	STS  _t2+3,R23
;      66         TCNT1=0;
	RCALL SUBOPT_0x1
;      67         //Falling Edge
;      68         MCUCR=0x02;
	LDI  R30,LOW(2)
	OUT  0x35,R30
;      69         edge=0;
	CBI  0x13,0
;      70         }
;      71 else
	RJMP _0x6
_0x3:
;      72         {
;      73         t1=TCNT1;
	RCALL SUBOPT_0x0
	STS  _t1,R30
	STS  _t1+1,R31
	STS  _t1+2,R22
	STS  _t1+3,R23
;      74         TCNT1=0;
	RCALL SUBOPT_0x1
;      75         //Rising edge
;      76         MCUCR=0x03;
	LDI  R30,LOW(3)
	OUT  0x35,R30
;      77         edge=1;
	SBI  0x13,0
;      78         }
_0x6:
;      79 }
	LD   R30,Y+
	OUT  SREG,R30
	LD   R31,Y+
	LD   R30,Y+
	LD   R23,Y+
	LD   R22,Y+
	LD   R1,Y+
	LD   R0,Y+
	RETI
;      80 /***********************************************************************************
;      81 ************      Timer0 INT Service routin for 7-segment refresh       ************
;      82 ***********************************************************************************/
;      83 //This ISR refresh 7-segment 22 time's per second
;      84 //temp varible showing on display
;      85 interrupt [TIM0_OVF] void timer0_ovf_isr(void)
;      86 {
_timer0_ovf_isr:
	ST   -Y,R0
	ST   -Y,R1
	ST   -Y,R24
	ST   -Y,R25
	ST   -Y,R26
	ST   -Y,R27
	ST   -Y,R30
	ST   -Y,R31
	IN   R30,SREG
	ST   -Y,R30
;      87 i++;
	INC  R2
;      88 switch (i)
	MOV  R30,R2
;      89         {
;      90         case 1:
	CPI  R30,LOW(0x1)
	BRNE _0xC
;      91                 memory = temp;
	MOVW R6,R4
;      92                 if (temp<0)
	CLR  R0
	CP   R4,R0
	CPC  R5,R0
	BRGE _0xD
;      93                         {
;      94                         a[1]=10;
	LDI  R30,LOW(10)
	__PUTB1MN _a,1
;      95                         temp *= -1;
	MOVW R26,R4
	LDI  R30,LOW(65535)
	LDI  R31,HIGH(65535)
	RCALL __MULW12
	MOVW R4,R30
;      96                         }
;      97                 else
	RJMP _0xE
_0xD:
;      98                         a[1]=11;
	LDI  R30,LOW(11)
	__PUTB1MN _a,1
;      99                 temp %= 1000;
_0xE:
	MOVW R26,R4
	LDI  R30,LOW(1000)
	LDI  R31,HIGH(1000)
	RCALL __MODW21
	MOVW R4,R30
;     100                 a[2] = temp / 100;
	MOVW R26,R4
	LDI  R30,LOW(100)
	LDI  R31,HIGH(100)
	RCALL __DIVW21
	__PUTB1MN _a,2
;     101                 b = temp % 100;
	MOVW R26,R4
	LDI  R30,LOW(100)
	LDI  R31,HIGH(100)
	RCALL __MODW21
	MOV  R3,R30
;     102                 a[3] = b / 10;
	MOV  R26,R3
	LDI  R30,LOW(10)
	RCALL __DIVB21U
	__PUTB1MN _a,3
;     103                 a[4] = b % 10;
	MOV  R26,R3
	LDI  R30,LOW(10)
	RCALL __MODB21U
	__PUTB1MN _a,4
;     104                 control |= 0xf8;
	RCALL SUBOPT_0x2
;     105                 segment = s_data[a[i]];
;     106                 sega = 0;
	CBI  0x12,6
;     107                 break;
	RJMP _0xB
;     108         case 2:
_0xC:
	CPI  R30,LOW(0x2)
	BRNE _0x11
;     109                 control |= 0xf8;
	RCALL SUBOPT_0x2
;     110                 segment = s_data[a[i]];
;     111                 segb = 0;
	CBI  0x12,5
;     112                 break;
	RJMP _0xB
;     113         case 3:
_0x11:
	CPI  R30,LOW(0x3)
	BRNE _0x14
;     114                 control |= 0xf8;
	RCALL SUBOPT_0x2
;     115                 segment = s_data[a[i]];
;     116                 segment &= 0b01111111;
	CBI  0x18,7
;     117                 segc = 0;
	CBI  0x12,4
;     118                 break;
	RJMP _0xB
;     119         case 4:
_0x14:
	CPI  R30,LOW(0x4)
	BRNE _0xB
;     120                 control |= 0xf8;
	RCALL SUBOPT_0x2
;     121                 segment = s_data[a[i]];
;     122                 segd = 0;
	CBI  0x12,3
;     123                 i = 0;
	CLR  R2
;     124                 break;
;     125         };
_0xB:
;     126 temp = memory;
	MOVW R4,R6
;     127 TCNT0=0xd7;                      //Reinitlaiz timer start value for display refresh
	LDI  R30,LOW(215)
	OUT  0x32,R30
;     128 }
	LD   R30,Y+
	OUT  SREG,R30
	LD   R31,Y+
	LD   R30,Y+
	LD   R27,Y+
	LD   R26,Y+
	LD   R25,Y+
	LD   R24,Y+
	LD   R1,Y+
	LD   R0,Y+
	RETI
;     129 /***********************************************************************************
;     130 ************               Starting main program                        ************
;     131 ***********************************************************************************/
;     132 void main(void)
;     133 {
_main:
;     134 float dc;                       //Duty cycle save in this variable
;     135 
;     136 system_init();                  // System initalize port and register's value
	SBIW R28,4
;	dc -> Y+0
	RCALL _system_init
;     137 while (1)
_0x1A:
;     138       {
;     139       smt160=on;                //Turn SMT160 on
	SBI  0x12,1
;     140       //delay_ms(100);          //Waiting for mesuring temp
;     141       //smt160=off;             //Turn SMT160 off
;     142       dc=t1/(t1+t2);            //this line's calculate temp from duty-cycle's
	LDS  R30,_t2
	LDS  R31,_t2+1
	LDS  R22,_t2+2
	LDS  R23,_t2+3
	RCALL SUBOPT_0x3
	RCALL __ADDF12
	RCALL SUBOPT_0x3
	RCALL __DIVF21
	__PUTD1S 0
;     143       t=(dc-0.32)/0.0047;
	__GETD2S 0
	__GETD1N 0x3EA3D70A
	RCALL __SWAPD12
	RCALL __SUBF12
	MOVW R26,R30
	MOVW R24,R22
	__GETD1N 0x3B9A0275
	RCALL __DIVF21
	STS  _t,R30
	STS  _t+1,R31
	STS  _t+2,R22
	STS  _t+3,R23
;     144       temp = t*10;
	LDS  R26,_t
	LDS  R27,_t+1
	LDS  R24,_t+2
	LDS  R25,_t+3
	__GETD1N 0x41200000
	RCALL __MULF12
	RCALL __CFD1
	MOVW R4,R30
;     145       delay_ms(500);            //wait for next mesurment in 5sec
	LDI  R30,LOW(500)
	LDI  R31,HIGH(500)
	ST   -Y,R31
	ST   -Y,R30
	RCALL _delay_ms
;     146       };
	RJMP _0x1A
;     147 }
_0x1F:
	RJMP _0x1F
;     148 /***********************************************************************************
;     149 ************          System initlaizing in this Function               ************
;     150 ***********************************************************************************/
;     151 void system_init(void)
;     152 {
_system_init:
;     153 
;     154 #pragma optsize-
;     155 CLKPR=0x80;
	LDI  R30,LOW(128)
	OUT  0x26,R30
;     156 CLKPR=0x00;
	LDI  R30,LOW(0)
	OUT  0x26,R30
;     157 #ifdef _OPTIMIZE_SIZE_
;     158 #pragma optsize+
;     159 #endif
;     160 PORTB=0x00;
	OUT  0x18,R30
;     161 DDRB=0xFF;
	LDI  R30,LOW(255)
	OUT  0x17,R30
;     162 PORTD=0x78;
	LDI  R30,LOW(120)
	OUT  0x12,R30
;     163 DDRD=0x7A;
	LDI  R30,LOW(122)
	OUT  0x11,R30
;     164 //Timer0: 11.71MHz
;     165 TCCR0A=0x00;
	LDI  R30,LOW(0)
	OUT  0x30,R30
;     166 TCCR0B=0x05;
	LDI  R30,LOW(5)
	OUT  0x33,R30
;     167 //Timer1: 12MHz
;     168 TCCR1A=0x00;
	LDI  R30,LOW(0)
	OUT  0x2F,R30
;     169 TCCR1B=0x01;
	LDI  R30,LOW(1)
	OUT  0x2E,R30
;     170 //INT0:Falling
;     171 GIMSK=0x40;
	LDI  R30,LOW(64)
	OUT  0x3B,R30
;     172 MCUCR=0x02;
	LDI  R30,LOW(2)
	OUT  0x35,R30
;     173 EIFR=0x40;
	LDI  R30,LOW(64)
	OUT  0x3A,R30
;     174 TIMSK=0x02;
	LDI  R30,LOW(2)
	OUT  0x39,R30
;     175 #asm("sei")
	sei
;     176 }
	RET
;     177 /***********************************************************************************
;     178 ************            End of thermometer Program                      ************
;     179 ***********************************************************************************/


;OPTIMIZER ADDED SUBROUTINE, CALLED 2 TIMES, CODE SIZE REDUCTION:2 WORDS
SUBOPT_0x0:
	IN   R30,0x2C
	IN   R31,0x2C+1
	CLR  R22
	CLR  R23
	RCALL __CDF1
	RET

;OPTIMIZER ADDED SUBROUTINE, CALLED 2 TIMES, CODE SIZE REDUCTION:1 WORDS
SUBOPT_0x1:
	LDI  R30,LOW(0)
	LDI  R31,HIGH(0)
	OUT  0x2C+1,R31
	OUT  0x2C,R30
	RET

;OPTIMIZER ADDED SUBROUTINE, CALLED 4 TIMES, CODE SIZE REDUCTION:34 WORDS
SUBOPT_0x2:
	IN   R30,0x12
	ORI  R30,LOW(0xF8)
	OUT  0x12,R30
	LDI  R26,LOW(_a)
	ADD  R26,R2
	LD   R30,X
	LDI  R31,0
	SUBI R30,LOW(-_s_data*2)
	SBCI R31,HIGH(-_s_data*2)
	LPM  R0,Z
	OUT  0x18,R0
	RET

;OPTIMIZER ADDED SUBROUTINE, CALLED 2 TIMES, CODE SIZE REDUCTION:5 WORDS
SUBOPT_0x3:
	LDS  R26,_t1
	LDS  R27,_t1+1
	LDS  R24,_t1+2
	LDS  R25,_t1+3
	RET

_delay_ms:
	ld   r30,y+
	ld   r31,y+
	adiw r30,0
	breq __delay_ms1
__delay_ms0:
	__DELAY_USW 0xBB8
	wdr
	sbiw r30,1
	brne __delay_ms0
__delay_ms1:
	ret

__ANEGW1:
	NEG  R31
	NEG  R30
	SBCI R31,0
	RET

__ANEGD1:
	COM  R31
	COM  R22
	COM  R23
	NEG  R30
	SBCI R31,-1
	SBCI R22,-1
	SBCI R23,-1
	RET

__CWD1:
	MOV  R22,R31
	ADD  R22,R22
	SBC  R22,R22
	MOV  R23,R22
	RET

__MULW12U:
	MOV  R0,R26
	MOV  R1,R27
	LDI  R24,17
	CLR  R26
	SUB  R27,R27
	RJMP __MULW12U1
__MULW12U3:
	BRCC __MULW12U2
	ADD  R26,R0
	ADC  R27,R1
__MULW12U2:
	LSR  R27
	ROR  R26
__MULW12U1:
	ROR  R31
	ROR  R30
	DEC  R24
	BRNE __MULW12U3
	RET

__MULW12:
	RCALL __CHKSIGNW
	RCALL __MULW12U
	BRTC __MULW121
	RCALL __ANEGW1
__MULW121:
	RET

__DIVB21U:
	CLR  R0
	LDI  R25,8
__DIVB21U1:
	LSL  R26
	ROL  R0
	SUB  R0,R30
	BRCC __DIVB21U2
	ADD  R0,R30
	RJMP __DIVB21U3
__DIVB21U2:
	SBR  R26,1
__DIVB21U3:
	DEC  R25
	BRNE __DIVB21U1
	MOV  R30,R26
	MOV  R26,R0
	RET

__DIVW21U:
	CLR  R0
	CLR  R1
	LDI  R25,16
__DIVW21U1:
	LSL  R26
	ROL  R27
	ROL  R0
	ROL  R1
	SUB  R0,R30
	SBC  R1,R31
	BRCC __DIVW21U2
	ADD  R0,R30
	ADC  R1,R31
	RJMP __DIVW21U3
__DIVW21U2:
	SBR  R26,1
__DIVW21U3:
	DEC  R25
	BRNE __DIVW21U1
	MOVW R30,R26
	MOVW R26,R0
	RET

__DIVW21:
	RCALL __CHKSIGNW
	RCALL __DIVW21U
	BRTC __DIVW211
	RCALL __ANEGW1
__DIVW211:
	RET

__MODB21U:
	RCALL __DIVB21U
	MOV  R30,R26
	RET

__MODW21:
	CLT
	SBRS R27,7
	RJMP __MODW211
	COM  R26
	COM  R27
	ADIW R26,1
	SET
__MODW211:
	SBRC R31,7
	RCALL __ANEGW1
	RCALL __DIVW21U
	MOVW R30,R26
	BRTC __MODW212
	RCALL __ANEGW1
__MODW212:
	RET

__CHKSIGNW:
	CLT
	SBRS R31,7
	RJMP __CHKSW1
	RCALL __ANEGW1
	SET
__CHKSW1:
	SBRS R27,7
	RJMP __CHKSW2
	COM  R26
	COM  R27
	ADIW R26,1
	BLD  R0,0
	INC  R0
	BST  R0,0
__CHKSW2:
	RET

__SWAPD12:
	MOV  R1,R24
	MOV  R24,R22
	MOV  R22,R1
	MOV  R1,R25
	MOV  R25,R23
	MOV  R23,R1

__SWAPW12:
	MOV  R1,R27
	MOV  R27,R31
	MOV  R31,R1

__SWAPB12:
	MOV  R1,R26
	MOV  R26,R30
	MOV  R30,R1
	RET

__ROUND_REPACK:
	TST  R21
	BRPL __REPACK
	CPI  R21,0x80
	BRNE __ROUND_REPACK0
	SBRS R30,0
	RJMP __REPACK
__ROUND_REPACK0:
	ADIW R30,1
	ADC  R22,R25
	ADC  R23,R25
	BRVS __REPACK1

__REPACK:
	LDI  R21,0x80
	EOR  R21,R23
	BRNE __REPACK0
	PUSH R21
	RJMP __ZERORES
__REPACK0:
	CPI  R21,0xFF
	BREQ __REPACK1
	LSL  R22
	LSL  R0
	ROR  R21
	ROR  R22
	MOV  R23,R21
	RET
__REPACK1:
	PUSH R21
	TST  R0
	BRMI __REPACK2
	RJMP __MAXRES
__REPACK2:
	RJMP __MINRES

__UNPACK:
	LDI  R21,0x80
	MOV  R1,R25
	AND  R1,R21
	LSL  R24
	ROL  R25
	EOR  R25,R21
	LSL  R21
	ROR  R24

__UNPACK1:
	LDI  R21,0x80
	MOV  R0,R23
	AND  R0,R21
	LSL  R22
	ROL  R23
	EOR  R23,R21
	LSL  R21
	ROR  R22
	RET

__CFD1U:
	SET
	RJMP __CFD1U0
__CFD1:
	CLT
__CFD1U0:
	PUSH R21
	RCALL __UNPACK1
	CPI  R23,0x80
	BRLO __CFD10
	CPI  R23,0xFF
	BRCC __CFD10
	RJMP __ZERORES
__CFD10:
	LDI  R21,22
	SUB  R21,R23
	BRPL __CFD11
	NEG  R21
	CPI  R21,8
	BRTC __CFD19
	CPI  R21,9
__CFD19:
	BRLO __CFD17
	SER  R30
	SER  R31
	SER  R22
	LDI  R23,0x7F
	BLD  R23,7
	RJMP __CFD15
__CFD17:
	CLR  R23
	TST  R21
	BREQ __CFD15
__CFD18:
	LSL  R30
	ROL  R31
	ROL  R22
	ROL  R23
	DEC  R21
	BRNE __CFD18
	RJMP __CFD15
__CFD11:
	CLR  R23
__CFD12:
	CPI  R21,8
	BRLO __CFD13
	MOV  R30,R31
	MOV  R31,R22
	MOV  R22,R23
	SUBI R21,8
	RJMP __CFD12
__CFD13:
	TST  R21
	BREQ __CFD15
__CFD14:
	LSR  R23
	ROR  R22
	ROR  R31
	ROR  R30
	DEC  R21
	BRNE __CFD14
__CFD15:
	TST  R0
	BRPL __CFD16
	RCALL __ANEGD1
__CFD16:
	POP  R21
	RET

__CDF1U:
	SET
	RJMP __CDF1U0
__CDF1:
	CLT
__CDF1U0:
	SBIW R30,0
	SBCI R22,0
	SBCI R23,0
	BREQ __CDF10
	CLR  R0
	BRTS __CDF11
	TST  R23
	BRPL __CDF11
	COM  R0
	RCALL __ANEGD1
__CDF11:
	MOV  R1,R23
	LDI  R23,30
	TST  R1
__CDF12:
	BRMI __CDF13
	DEC  R23
	LSL  R30
	ROL  R31
	ROL  R22
	ROL  R1
	RJMP __CDF12
__CDF13:
	MOV  R30,R31
	MOV  R31,R22
	MOV  R22,R1
	PUSH R21
	RCALL __REPACK
	POP  R21
__CDF10:
	RET

__SWAPACC:
	PUSH R20
	MOVW R20,R30
	MOVW R30,R26
	MOVW R26,R20
	MOVW R20,R22
	MOVW R22,R24
	MOVW R24,R20
	MOV  R20,R0
	MOV  R0,R1
	MOV  R1,R20
	POP  R20
	RET

__UADD12:
	ADD  R30,R26
	ADC  R31,R27
	ADC  R22,R24
	RET

__NEGMAN1:
	COM  R30
	COM  R31
	COM  R22
	SUBI R30,-1
	SBCI R31,-1
	SBCI R22,-1
	RET

__SUBF12:
	PUSH R21
	RCALL __UNPACK
	CPI  R25,0x80
	BREQ __ADDF129
	LDI  R21,0x80
	EOR  R1,R21

	RJMP __ADDF120

__ADDF12:
	PUSH R21
	RCALL __UNPACK
	CPI  R25,0x80
	BREQ __ADDF129

__ADDF120:
	CPI  R23,0x80
	BREQ __ADDF128
__ADDF121:
	MOV  R21,R23
	SUB  R21,R25
	BRVS __ADDF129
	BRPL __ADDF122
	RCALL __SWAPACC
	RJMP __ADDF121
__ADDF122:
	CPI  R21,24
	BRLO __ADDF123
	CLR  R26
	CLR  R27
	CLR  R24
__ADDF123:
	CPI  R21,8
	BRLO __ADDF124
	MOV  R26,R27
	MOV  R27,R24
	CLR  R24
	SUBI R21,8
	RJMP __ADDF123
__ADDF124:
	TST  R21
	BREQ __ADDF126
__ADDF125:
	LSR  R24
	ROR  R27
	ROR  R26
	DEC  R21
	BRNE __ADDF125
__ADDF126:
	MOV  R21,R0
	EOR  R21,R1
	BRMI __ADDF127
	RCALL __UADD12
	BRCC __ADDF129
	ROR  R22
	ROR  R31
	ROR  R30
	INC  R23
	BRVC __ADDF129
	RJMP __MAXRES
__ADDF128:
	RCALL __SWAPACC
__ADDF129:
	RCALL __REPACK
	POP  R21
	RET
__ADDF127:
	SUB  R30,R26
	SBC  R31,R27
	SBC  R22,R24
	BREQ __ZERORES
	BRCC __ADDF1210
	COM  R0
	RCALL __NEGMAN1
__ADDF1210:
	TST  R22
	BRMI __ADDF129
	LSL  R30
	ROL  R31
	ROL  R22
	DEC  R23
	BRVC __ADDF1210

__ZERORES:
	CLR  R30
	CLR  R31
	CLR  R22
	CLR  R23
	POP  R21
	RET

__MINRES:
	SER  R30
	SER  R31
	LDI  R22,0x7F
	SER  R23
	POP  R21
	RET

__MAXRES:
	SER  R30
	SER  R31
	LDI  R22,0x7F
	LDI  R23,0x7F
	POP  R21
	RET

__MULF12:
	PUSH R21
	RCALL __UNPACK
	CPI  R23,0x80
	BREQ __ZERORES
	CPI  R25,0x80
	BREQ __ZERORES
	EOR  R0,R1
	SEC
	ADC  R23,R25
	BRVC __MULF124
	BRLT __ZERORES
__MULF125:
	TST  R0
	BRMI __MINRES
	RJMP __MAXRES
__MULF124:
	PUSH R19
	PUSH R20
	CLR  R1
	CLR  R19
	CLR  R20
	CLR  R21
	LDI  R25,24
__MULF120:
	LSL  R19
	ROL  R20
	ROL  R21
	ROL  R30
	ROL  R31
	ROL  R22
	BRCC __MULF121
	ADD  R19,R26
	ADC  R20,R27
	ADC  R21,R24
	ADC  R30,R1
	ADC  R31,R1
	ADC  R22,R1
__MULF121:
	DEC  R25
	BRNE __MULF120
	POP  R20
	POP  R19
	TST  R22
	BRMI __MULF122
	LSL  R21
	ROL  R30
	ROL  R31
	ROL  R22
	RJMP __MULF123
__MULF122:
	INC  R23
	BRVS __MULF125
__MULF123:
	RCALL __ROUND_REPACK
	POP  R21
	RET

__DIVF21:
	PUSH R21
	RCALL __UNPACK
	CPI  R23,0x80
	BRNE __DIVF210
	TST  R1
__DIVF211:
	BRPL __DIVF219
	RJMP __MINRES
__DIVF219:
	RJMP __MAXRES
__DIVF210:
	CPI  R25,0x80
	BRNE __DIVF218
__DIVF217:
	RJMP __ZERORES
__DIVF218:
	EOR  R0,R1
	SEC
	SBC  R25,R23
	BRVC __DIVF216
	BRLT __DIVF217
	TST  R0
	RJMP __DIVF211
__DIVF216:
	MOV  R23,R25
	PUSH R17
	PUSH R18
	PUSH R19
	PUSH R20
	CLR  R1
	CLR  R17
	CLR  R18
	CLR  R19
	CLR  R20
	CLR  R21
	LDI  R25,32
__DIVF212:
	CP   R26,R30
	CPC  R27,R31
	CPC  R24,R22
	CPC  R20,R17
	BRLO __DIVF213
	SUB  R26,R30
	SBC  R27,R31
	SBC  R24,R22
	SBC  R20,R17
	SEC
	RJMP __DIVF214
__DIVF213:
	CLC
__DIVF214:
	ROL  R21
	ROL  R18
	ROL  R19
	ROL  R1
	ROL  R26
	ROL  R27
	ROL  R24
	ROL  R20
	DEC  R25
	BRNE __DIVF212
	MOVW R30,R18
	MOV  R22,R1
	POP  R20
	POP  R19
	POP  R18
	POP  R17
	TST  R22
	BRMI __DIVF215
	LSL  R21
	ROL  R30
	ROL  R31
	ROL  R22
	DEC  R23
	BRVS __DIVF217
__DIVF215:
	RCALL __ROUND_REPACK
	POP  R21
	RET

;END OF CODE MARKER
__END_OF_CODE:
