
sinw1.elf:     file format elf32-avr

Sections:
Idx Name          Size      VMA       LMA       File off  Algn
  0 .text         00007722  00000000  00000000  00000094  2**0
                  CONTENTS, ALLOC, LOAD, READONLY, CODE
  1 .data         00000000  00800060  00007722  000077b6  2**0
                  CONTENTS, ALLOC, LOAD, DATA
  2 .bss          00000001  00800060  00800060  000077b6  2**0
                  ALLOC
  3 .noinit       00000000  00800061  00800061  000077b6  2**0
                  CONTENTS
  4 .eeprom       00000000  00810000  00810000  000077b6  2**0
                  CONTENTS
  5 .stab         0000036c  00000000  00000000  000077b8  2**2
                  CONTENTS, READONLY, DEBUGGING
  6 .stabstr      00000084  00000000  00000000  00007b24  2**0
                  CONTENTS, READONLY, DEBUGGING
  7 .debug_aranges 00000014  00000000  00000000  00007ba8  2**0
                  CONTENTS, READONLY, DEBUGGING
  8 .debug_pubnames 0000007c  00000000  00000000  00007bbc  2**0
                  CONTENTS, READONLY, DEBUGGING
  9 .debug_info   000002db  00000000  00000000  00007c38  2**0
                  CONTENTS, READONLY, DEBUGGING
 10 .debug_abbrev 0000012d  00000000  00000000  00007f13  2**0
                  CONTENTS, READONLY, DEBUGGING
 11 .debug_line   00000251  00000000  00000000  00008040  2**0
                  CONTENTS, READONLY, DEBUGGING
 12 .debug_str    000000f0  00000000  00000000  00008291  2**0
                  CONTENTS, READONLY, DEBUGGING
Disassembly of section .text:

00000000 <__vectors>:
       0:	0c 94 bc 3a 	jmp	0x7578 <__init>
       4:	0c 94 ea 3a 	jmp	0x75d4 <__vector_1>
       8:	0c 94 d7 3a 	jmp	0x75ae <__bad_interrupt>
       c:	0c 94 d7 3a 	jmp	0x75ae <__bad_interrupt>
      10:	0c 94 d7 3a 	jmp	0x75ae <__bad_interrupt>
      14:	0c 94 d7 3a 	jmp	0x75ae <__bad_interrupt>
      18:	0c 94 d7 3a 	jmp	0x75ae <__bad_interrupt>
      1c:	0c 94 d9 3a 	jmp	0x75b2 <__vector_7>
      20:	0c 94 d7 3a 	jmp	0x75ae <__bad_interrupt>
      24:	0c 94 d7 3a 	jmp	0x75ae <__bad_interrupt>
      28:	0c 94 d7 3a 	jmp	0x75ae <__bad_interrupt>
      2c:	0c 94 d7 3a 	jmp	0x75ae <__bad_interrupt>
      30:	0c 94 d7 3a 	jmp	0x75ae <__bad_interrupt>
      34:	0c 94 d7 3a 	jmp	0x75ae <__bad_interrupt>
      38:	0c 94 d7 3a 	jmp	0x75ae <__bad_interrupt>
      3c:	0c 94 d7 3a 	jmp	0x75ae <__bad_interrupt>
      40:	0c 94 d7 3a 	jmp	0x75ae <__bad_interrupt>
      44:	0c 94 d7 3a 	jmp	0x75ae <__bad_interrupt>
      48:	0c 94 d7 3a 	jmp	0x75ae <__bad_interrupt>
      4c:	0c 94 d7 3a 	jmp	0x75ae <__bad_interrupt>
      50:	0c 94 d7 3a 	jmp	0x75ae <__bad_interrupt>

00000054 <__ctors_end>:
      54:	a6 a4       	ldd	r10, Z+46	; 0x2e
      56:	a5 a5       	ldd	r26, Z+45	; 0x2d
      58:	a5 a5       	ldd	r26, Z+45	; 0x2d
      5a:	a5 a4       	ldd	r10, Z+45	; 0x2d
      5c:	a5 a5       	ldd	r26, Z+45	; 0x2d
      5e:	a5 a5       	ldd	r26, Z+45	; 0x2d
      60:	a5 a4       	ldd	r10, Z+45	; 0x2d
      62:	a5 a5       	ldd	r26, Z+45	; 0x2d
      64:	a6 a6       	std	Z+46, r10	; 0x2e
      66:	a5 a4       	ldd	r10, Z+45	; 0x2d
      68:	a4 a5       	ldd	r26, Z+44	; 0x2c
      6a:	a5 a6       	std	Z+45, r10	; 0x2d
      6c:	a5 a5       	ldd	r26, Z+45	; 0x2d
      6e:	a4 a5       	ldd	r26, Z+44	; 0x2c
      70:	a5 a6       	std	Z+45, r10	; 0x2d
      72:	a7 a6       	std	Z+47, r10	; 0x2f
      74:	a6 a5       	ldd	r26, Z+46	; 0x2e
      76:	a6 a6       	std	Z+46, r10	; 0x2e
      78:	a6 a6       	std	Z+46, r10	; 0x2e
      7a:	a6 a6       	std	Z+46, r10	; 0x2e
      7c:	a6 a5       	ldd	r26, Z+46	; 0x2e
      7e:	a6 a6       	std	Z+46, r10	; 0x2e
      80:	a6 a5       	ldd	r26, Z+46	; 0x2e
      82:	a5 a5       	ldd	r26, Z+45	; 0x2d
      84:	a5 a5       	ldd	r26, Z+45	; 0x2d
      86:	a5 a5       	ldd	r26, Z+45	; 0x2d
      88:	a5 a6       	std	Z+45, r10	; 0x2d
      8a:	a5 a5       	ldd	r26, Z+45	; 0x2d
      8c:	a5 a5       	ldd	r26, Z+45	; 0x2d
      8e:	a5 a6       	std	Z+45, r10	; 0x2d
      90:	a5 a5       	ldd	r26, Z+45	; 0x2d
      92:	a6 a6       	std	Z+46, r10	; 0x2e
      94:	a5 a4       	ldd	r10, Z+45	; 0x2d
      96:	a5 a6       	std	Z+45, r10	; 0x2d
      98:	a6 a6       	std	Z+46, r10	; 0x2e
      9a:	a6 a5       	ldd	r26, Z+46	; 0x2e
      9c:	a5 a5       	ldd	r26, Z+45	; 0x2d
      9e:	a5 a5       	ldd	r26, Z+45	; 0x2d
      a0:	a5 a4       	ldd	r10, Z+45	; 0x2d
      a2:	a5 a4       	ldd	r10, Z+45	; 0x2d
      a4:	a5 a4       	ldd	r10, Z+45	; 0x2d
      a6:	a5 a5       	ldd	r26, Z+45	; 0x2d
      a8:	a4 a5       	ldd	r26, Z+44	; 0x2c
      aa:	a4 a6       	std	Z+44, r10	; 0x2c
      ac:	a5 a5       	ldd	r26, Z+45	; 0x2d
      ae:	a5 a5       	ldd	r26, Z+45	; 0x2d
      b0:	a5 a4       	ldd	r10, Z+45	; 0x2d
      b2:	a6 a6       	std	Z+46, r10	; 0x2e
      b4:	a6 a6       	std	Z+46, r10	; 0x2e
      b6:	a6 a6       	std	Z+46, r10	; 0x2e
      b8:	a6 a5       	ldd	r26, Z+46	; 0x2e
      ba:	a6 a5       	ldd	r26, Z+46	; 0x2e
      bc:	a6 a6       	std	Z+46, r10	; 0x2e
      be:	a5 a5       	ldd	r26, Z+45	; 0x2d
      c0:	a5 a6       	std	Z+45, r10	; 0x2d
      c2:	a6 a6       	std	Z+46, r10	; 0x2e
      c4:	a6 a6       	std	Z+46, r10	; 0x2e
      c6:	a6 a6       	std	Z+46, r10	; 0x2e
      c8:	a5 a6       	std	Z+45, r10	; 0x2d
      ca:	a6 a6       	std	Z+46, r10	; 0x2e
      cc:	a6 a5       	ldd	r26, Z+46	; 0x2e
      ce:	a5 a6       	std	Z+45, r10	; 0x2d
      d0:	a6 a6       	std	Z+46, r10	; 0x2e
      d2:	a6 a6       	std	Z+46, r10	; 0x2e
      d4:	a6 a6       	std	Z+46, r10	; 0x2e
      d6:	a5 a4       	ldd	r10, Z+45	; 0x2d
      d8:	a4 a5       	ldd	r26, Z+44	; 0x2c
      da:	a5 a5       	ldd	r26, Z+45	; 0x2d
      dc:	a5 a5       	ldd	r26, Z+45	; 0x2d
      de:	a4 a4       	ldd	r10, Z+44	; 0x2c
      e0:	a4 a4       	ldd	r10, Z+44	; 0x2c
      e2:	a4 a5       	ldd	r26, Z+44	; 0x2c
      e4:	a5 a5       	ldd	r26, Z+45	; 0x2d
      e6:	a5 a5       	ldd	r26, Z+45	; 0x2d
      e8:	a5 a5       	ldd	r26, Z+45	; 0x2d
      ea:	a4 a5       	ldd	r26, Z+44	; 0x2c
      ec:	a4 a4       	ldd	r10, Z+44	; 0x2c
      ee:	a4 a5       	ldd	r26, Z+44	; 0x2c
      f0:	a5 a5       	ldd	r26, Z+45	; 0x2d
      f2:	a5 a5       	ldd	r26, Z+45	; 0x2d
      f4:	a5 a5       	ldd	r26, Z+45	; 0x2d
      f6:	a6 a5       	ldd	r26, Z+46	; 0x2e
      f8:	a5 a5       	ldd	r26, Z+45	; 0x2d
      fa:	a5 a5       	ldd	r26, Z+45	; 0x2d
      fc:	a5 a5       	ldd	r26, Z+45	; 0x2d
      fe:	a5 a5       	ldd	r26, Z+45	; 0x2d
     100:	a5 a6       	std	Z+45, r10	; 0x2d
     102:	a6 a6       	std	Z+46, r10	; 0x2e
     104:	a6 a7       	std	Z+46, r26	; 0x2e
     106:	a6 a5       	ldd	r26, Z+46	; 0x2e
     108:	a6 a6       	std	Z+46, r10	; 0x2e
     10a:	a6 a6       	std	Z+46, r10	; 0x2e
     10c:	a6 a7       	std	Z+46, r26	; 0x2e
     10e:	a7 a7       	std	Z+47, r26	; 0x2f
     110:	a7 a7       	std	Z+47, r26	; 0x2f
     112:	a6 a5       	ldd	r26, Z+46	; 0x2e
     114:	a6 a6       	std	Z+46, r10	; 0x2e
     116:	a6 a6       	std	Z+46, r10	; 0x2e
     118:	a6 a6       	std	Z+46, r10	; 0x2e
     11a:	a5 a5       	ldd	r26, Z+45	; 0x2d
     11c:	a6 a6       	std	Z+46, r10	; 0x2e
     11e:	a6 a6       	std	Z+46, r10	; 0x2e
     120:	a6 a6       	std	Z+46, r10	; 0x2e
     122:	a6 a6       	std	Z+46, r10	; 0x2e
     124:	a6 a5       	ldd	r26, Z+46	; 0x2e
     126:	a5 a5       	ldd	r26, Z+45	; 0x2d
     128:	a5 a5       	ldd	r26, Z+45	; 0x2d
     12a:	a6 a6       	std	Z+46, r10	; 0x2e
     12c:	a6 a5       	ldd	r26, Z+46	; 0x2e
     12e:	a5 a5       	ldd	r26, Z+45	; 0x2d
     130:	a5 a5       	ldd	r26, Z+45	; 0x2d
     132:	a5 a5       	ldd	r26, Z+45	; 0x2d
     134:	a5 a5       	ldd	r26, Z+45	; 0x2d
     136:	a5 a5       	ldd	r26, Z+45	; 0x2d
     138:	a5 a5       	ldd	r26, Z+45	; 0x2d
     13a:	a5 a5       	ldd	r26, Z+45	; 0x2d
     13c:	a5 a5       	ldd	r26, Z+45	; 0x2d
     13e:	a5 a4       	ldd	r10, Z+45	; 0x2d
     140:	a5 a5       	ldd	r26, Z+45	; 0x2d
     142:	a4 a4       	ldd	r10, Z+44	; 0x2c
     144:	a4 a5       	ldd	r26, Z+44	; 0x2c
     146:	a5 a5       	ldd	r26, Z+45	; 0x2d
     148:	a5 a5       	ldd	r26, Z+45	; 0x2d
     14a:	a5 a5       	ldd	r26, Z+45	; 0x2d
     14c:	a4 a5       	ldd	r26, Z+44	; 0x2c
     14e:	a4 a5       	ldd	r26, Z+44	; 0x2c
     150:	a5 a5       	ldd	r26, Z+45	; 0x2d
     152:	a5 a5       	ldd	r26, Z+45	; 0x2d
     154:	a5 a6       	std	Z+45, r10	; 0x2d
     156:	a5 a5       	ldd	r26, Z+45	; 0x2d
     158:	a6 a6       	std	Z+46, r10	; 0x2e
     15a:	a5 a7       	std	Z+45, r26	; 0x2d
     15c:	a6 a6       	std	Z+46, r10	; 0x2e
     15e:	a5 a5       	ldd	r26, Z+45	; 0x2d
     160:	a5 a4       	ldd	r10, Z+45	; 0x2d
     162:	a5 a6       	std	Z+45, r10	; 0x2d
     164:	a5 a5       	ldd	r26, Z+45	; 0x2d
     166:	a5 a5       	ldd	r26, Z+45	; 0x2d
     168:	a5 a5       	ldd	r26, Z+45	; 0x2d
     16a:	a5 a5       	ldd	r26, Z+45	; 0x2d
     16c:	a5 a6       	std	Z+45, r10	; 0x2d
     16e:	a6 a6       	std	Z+46, r10	; 0x2e
     170:	a7 a6       	std	Z+47, r10	; 0x2f
     172:	a5 a6       	std	Z+45, r10	; 0x2d
     174:	a6 a6       	std	Z+46, r10	; 0x2e
     176:	a6 a6       	std	Z+46, r10	; 0x2e
     178:	a5 a5       	ldd	r26, Z+45	; 0x2d
     17a:	a5 a5       	ldd	r26, Z+45	; 0x2d
     17c:	a4 a5       	ldd	r26, Z+44	; 0x2c
     17e:	a5 a5       	ldd	r26, Z+45	; 0x2d
     180:	a5 a5       	ldd	r26, Z+45	; 0x2d
     182:	a5 a5       	ldd	r26, Z+45	; 0x2d
     184:	a6 a6       	std	Z+46, r10	; 0x2e
     186:	a5 a5       	ldd	r26, Z+45	; 0x2d
     188:	a5 a5       	ldd	r26, Z+45	; 0x2d
     18a:	a6 a6       	std	Z+46, r10	; 0x2e
     18c:	a6 a6       	std	Z+46, r10	; 0x2e
     18e:	a6 a5       	ldd	r26, Z+46	; 0x2e
     190:	a5 a5       	ldd	r26, Z+45	; 0x2d
     192:	a5 a5       	ldd	r26, Z+45	; 0x2d
     194:	a5 a5       	ldd	r26, Z+45	; 0x2d
     196:	a5 a6       	std	Z+45, r10	; 0x2d
     198:	a6 a6       	std	Z+46, r10	; 0x2e
     19a:	a6 a6       	std	Z+46, r10	; 0x2e
     19c:	a6 a7       	std	Z+46, r26	; 0x2e
     19e:	a7 a6       	std	Z+47, r10	; 0x2f
     1a0:	a7 a6       	std	Z+47, r10	; 0x2f
     1a2:	a6 a6       	std	Z+46, r10	; 0x2e
     1a4:	a6 a7       	std	Z+46, r26	; 0x2e
     1a6:	a7 a6       	std	Z+47, r10	; 0x2f
     1a8:	a6 a7       	std	Z+46, r26	; 0x2e
     1aa:	a6 a6       	std	Z+46, r10	; 0x2e
     1ac:	a6 a6       	std	Z+46, r10	; 0x2e
     1ae:	a6 a7       	std	Z+46, r26	; 0x2e
     1b0:	a7 a7       	std	Z+47, r26	; 0x2f
     1b2:	a8 a9       	ldd	r26, Y+48	; 0x30
     1b4:	a8 a7       	std	Y+40, r26	; 0x28
     1b6:	a7 a7       	std	Z+47, r26	; 0x2f
     1b8:	a8 a7       	std	Y+40, r26	; 0x28
     1ba:	a7 a7       	std	Z+47, r26	; 0x2f
     1bc:	a7 a7       	std	Z+47, r26	; 0x2f
     1be:	a7 a7       	std	Z+47, r26	; 0x2f
     1c0:	a7 a8       	ldd	r10, Z+55	; 0x37
     1c2:	a8 a8       	ldd	r10, Y+48	; 0x30
     1c4:	a8 a8       	ldd	r10, Y+48	; 0x30
     1c6:	a8 a8       	ldd	r10, Y+48	; 0x30
     1c8:	a8 a7       	std	Y+40, r26	; 0x28
     1ca:	a6 a7       	std	Z+46, r26	; 0x2e
     1cc:	a7 a7       	std	Z+47, r26	; 0x2f
     1ce:	a8 a8       	ldd	r10, Y+48	; 0x30
     1d0:	a8 a8       	ldd	r10, Y+48	; 0x30
     1d2:	a7 a8       	ldd	r10, Z+55	; 0x37
     1d4:	a8 a8       	ldd	r10, Y+48	; 0x30
     1d6:	a8 a8       	ldd	r10, Y+48	; 0x30
     1d8:	a8 a9       	ldd	r26, Y+48	; 0x30
     1da:	aa a9       	ldd	r26, Y+50	; 0x32
     1dc:	a9 a8       	ldd	r10, Y+49	; 0x31
     1de:	a8 a8       	ldd	r10, Y+48	; 0x30
     1e0:	a8 a9       	ldd	r26, Y+48	; 0x30
     1e2:	a9 a9       	ldd	r26, Y+49	; 0x31
     1e4:	a7 a9       	ldd	r26, Z+55	; 0x37
     1e6:	95 b1       	in	r25, 0x05	; 5
     1e8:	ac 8f       	std	Y+28, r26	; 0x1c
     1ea:	bd a1       	ldd	r27, Y+37	; 0x25
     1ec:	a1 b1       	in	r26, 0x01	; 1
     1ee:	9c ad       	ldd	r25, Y+60	; 0x3c
     1f0:	a8 a0       	ldd	r10, Y+32	; 0x20
     1f2:	af a4       	ldd	r10, Y+47	; 0x2f
     1f4:	a6 a9       	ldd	r26, Z+54	; 0x36
     1f6:	a4 ab       	std	Z+52, r26	; 0x34
     1f8:	a5 a5       	ldd	r26, Z+45	; 0x2d
     1fa:	a9 a5       	ldd	r26, Y+41	; 0x29
     1fc:	a8 a8       	ldd	r10, Y+48	; 0x30
     1fe:	a7 aa       	std	Z+55, r10	; 0x37
     200:	aa a7       	std	Y+42, r26	; 0x2a
     202:	a9 a9       	ldd	r26, Y+49	; 0x31
     204:	a8 aa       	std	Y+48, r10	; 0x30
     206:	a8 a8       	ldd	r10, Y+48	; 0x30
     208:	aa a7       	std	Y+42, r26	; 0x2a
     20a:	a8 a8       	ldd	r10, Y+48	; 0x30
     20c:	a7 a9       	ldd	r26, Z+55	; 0x37
     20e:	a8 a8       	ldd	r10, Y+48	; 0x30
     210:	a9 aa       	std	Y+49, r10	; 0x31
     212:	ad ae       	std	Y+61, r10	; 0x3d
     214:	af ae       	std	Y+63, r10	; 0x3f
     216:	af b1       	in	r26, 0x0f	; 15
     218:	b2 ad       	ldd	r27, Z+58	; 0x3a
     21a:	a4 b3       	in	r26, 0x14	; 20
     21c:	9d a3       	std	Y+37, r25	; 0x25
     21e:	b6 93       	.word	0x93b6	; ????
     220:	9e a4       	ldd	r9, Y+46	; 0x2e
     222:	9b a6       	std	Y+43, r9	; 0x2b
     224:	99 9d       	mul	r25, r9
     226:	a7 a3       	std	Z+39, r26	; 0x27
     228:	a8 a9       	ldd	r26, Y+48	; 0x30
     22a:	aa bc       	out	0x2a, r10	; 42
     22c:	b6 c3       	rjmp	.+1900   	; 0x99a <__stack+0x13b>
     22e:	92 dd       	rcall	.-1244   	; 0xfffffd54 <__eeprom_end+0xff7efd54>
     230:	f0 00       	.word	0x00f0	; ????
     232:	ef e6       	ldi	r30, 0x6F	; 111
     234:	79 d2       	rcall	.+1266   	; 0x728 <__ctors_end+0x6d4>
     236:	5f a5       	ldd	r21, Y+47	; 0x2f
     238:	e3 7b       	andi	r30, 0xB3	; 179
     23a:	a9 9d       	mul	r26, r9
     23c:	92 b3       	in	r25, 0x12	; 18
     23e:	82 99       	sbic	0x10, 2	; 16
     240:	a8 9e       	mul	r10, r24
     242:	a4 8e       	std	Z+28, r10	; 0x1c
     244:	b0 c0       	rjmp	.+352    	; 0x3a6 <__ctors_end+0x352>
     246:	9f b4       	in	r9, 0x2f	; 47
     248:	cc bd       	out	0x2c, r28	; 44
     24a:	f8 69       	ori	r31, 0x98	; 152
     24c:	53 d4       	rcall	.+2214   	; 0xaf4 <__stack+0x295>
     24e:	a4 ac       	ldd	r10, Z+60	; 0x3c
     250:	99 6d       	ori	r25, 0xD9	; 217
     252:	d1 af       	std	Z+57, r29	; 0x39
     254:	8f aa       	std	Y+55, r8	; 0x37
     256:	90 b1       	in	r25, 0x00	; 0
     258:	93 75       	andi	r25, 0x53	; 83
     25a:	b4 a1       	ldd	r27, Z+36	; 0x24
     25c:	a1 8f       	std	Z+25, r26	; 0x19
     25e:	94 c9       	rjmp	.-3288   	; 0xfffff588 <__eeprom_end+0xff7ef588>
     260:	b0 9f       	mul	r27, r16
     262:	ca cc       	rjmp	.-1644   	; 0xfffffbf8 <__eeprom_end+0xff7efbf8>
     264:	f2 8d       	ldd	r31, Z+26	; 0x1a
     266:	3b e5       	ldi	r19, 0x5B	; 91
     268:	c0 ae       	std	Z+56, r12	; 0x38
     26a:	9b 6c       	ori	r25, 0xCB	; 203
     26c:	c0 b7       	in	r28, 0x30	; 48
     26e:	94 a3       	std	Z+36, r25	; 0x24
     270:	8e 9e       	mul	r8, r30
     272:	a4 83       	std	Z+4, r26	; 0x04
     274:	9a a5       	ldd	r25, Y+42	; 0x2a
     276:	a1 9a       	sbi	0x14, 1	; 20
     278:	97 bb       	out	0x17, r25	; 23
     27a:	be af       	std	Y+62, r27	; 0x3e
     27c:	c2 c7       	rjmp	.+3972   	; 0x1202 <__stack+0x9a3>
     27e:	f9 61       	ori	r31, 0x19	; 25
     280:	6b e8       	ldi	r22, 0x8B	; 139
     282:	a5 c0       	rjmp	.+330    	; 0x3ce <__ctors_end+0x37a>
     284:	87 7d       	andi	r24, 0xD7	; 215
     286:	ca a4       	ldd	r12, Y+42	; 0x2a
     288:	9f 9a       	sbi	0x13, 7	; 19
     28a:	87 af       	std	Z+63, r24	; 0x3f
     28c:	84 8d       	ldd	r24, Z+28	; 0x1c
     28e:	a8 98       	cbi	0x15, 0	; 21
     290:	a8 92       	.word	0x92a8	; ????
     292:	b0 c1       	rjmp	.+864    	; 0x5f4 <__ctors_end+0x5a0>
     294:	bd cb       	rjmp	.-2182   	; 0xfffffa10 <__eeprom_end+0xff7efa10>
     296:	d5 d6       	rcall	.+3498   	; 0x1042 <__stack+0x7e3>
     298:	40 a4       	ldd	r4, Z+40	; 0x28
     29a:	d6 ab       	std	Z+54, r29	; 0x36
     29c:	bc 6b       	ori	r27, 0xBC	; 188
     29e:	9b c2       	rjmp	.+1334   	; 0x7d6 <__ctors_end+0x782>
     2a0:	9d a5       	ldd	r25, Y+45	; 0x2d
     2a2:	87 99       	sbic	0x10, 7	; 16
     2a4:	a8 79       	andi	r26, 0x98	; 152
     2a6:	9c 9f       	mul	r25, r28
     2a8:	9f a0       	ldd	r9, Y+39	; 0x27
     2aa:	8c c1       	rjmp	.+792    	; 0x5c4 <__ctors_end+0x570>
     2ac:	b7 c3       	rjmp	.+1902   	; 0xa1c <__stack+0x1bd>
     2ae:	cd de       	rcall	.-614    	; 0x4a <__SREG__+0xb>
     2b0:	b4 4b       	sbci	r27, 0xB4	; 180
     2b2:	ba b6       	in	r11, 0x3a	; 58
     2b4:	bb ac       	ldd	r11, Y+59	; 0x3b
     2b6:	72 ad       	ldd	r23, Z+58	; 0x3a
     2b8:	a8 a1       	ldd	r26, Y+32	; 0x20
     2ba:	a4 89       	ldd	r26, Z+20	; 0x14
     2bc:	9c 8c       	ldd	r9, Y+28	; 0x1c
     2be:	8a 9e       	mul	r8, r26
     2c0:	98 a3       	std	Y+32, r25	; 0x20
     2c2:	99 a9       	ldd	r25, Y+49	; 0x31
     2c4:	bd be       	out	0x3d, r11	; 61
     2c6:	d3 d8       	rcall	.-3674   	; 0xfffff46e <__eeprom_end+0xff7ef46e>
     2c8:	d9 57       	subi	r29, 0x79	; 121
     2ca:	8c c6       	rjmp	.+3352   	; 0xfe4 <__stack+0x785>
     2cc:	bc c6       	rjmp	.+3448   	; 0x1046 <__stack+0x7e7>
     2ce:	71 8e       	std	Z+25, r7	; 0x19
     2d0:	ad ab       	std	Y+53, r26	; 0x35
     2d2:	ad 8a       	std	Y+21, r10	; 0x15
     2d4:	92 8d       	ldd	r25, Z+26	; 0x1a
     2d6:	89 a1       	ldd	r24, Y+33	; 0x21
     2d8:	99 9b       	sbis	0x13, 1	; 19
     2da:	9b a4       	ldd	r9, Y+43	; 0x2b
     2dc:	b8 c1       	rjmp	.+880    	; 0x64e <__ctors_end+0x5fa>
     2de:	d8 da       	rcall	.-2640   	; 0xfffff890 <__eeprom_end+0xff7ef890>
     2e0:	d7 52       	subi	r29, 0x27	; 39
     2e2:	8c bf       	out	0x3c, r24	; 60
     2e4:	c1 cb       	rjmp	.-2174   	; 0xfffffa68 <__eeprom_end+0xff7efa68>
     2e6:	70 8d       	ldd	r23, Z+24	; 0x18
     2e8:	9e b3       	in	r25, 0x1e	; 30
     2ea:	b2 8d       	ldd	r27, Z+26	; 0x1a
     2ec:	8e 7f       	andi	r24, 0xFE	; 254
     2ee:	92 a3       	std	Z+34, r25	; 0x22
     2f0:	97 99       	sbic	0x12, 7	; 18
     2f2:	9a ac       	ldd	r9, Y+58	; 0x3a
     2f4:	b5 c8       	rjmp	.-3734   	; 0xfffff460 <__eeprom_end+0xff7ef460>
     2f6:	d7 eb       	ldi	r29, 0xB7	; 183
     2f8:	b0 4e       	sbci	r27, 0xE0	; 224
     2fa:	a1 a9       	ldd	r26, Z+49	; 0x31
     2fc:	dd b3       	in	r29, 0x1d	; 29
     2fe:	7d 8f       	std	Y+29, r23	; 0x1d
     300:	8e bb       	out	0x1e, r24	; 30
     302:	a8 9d       	mul	r26, r8
     304:	7d 7a       	andi	r23, 0xAD	; 173
     306:	94 a1       	ldd	r25, Z+36	; 0x24
     308:	a0 92 a0 b0 	sts	0xB0A0, r10
     30c:	be d1       	rcall	.+892    	; 0x68a <__ctors_end+0x636>
     30e:	da e9       	ldi	r29, 0x9A	; 154
     310:	72 78       	andi	r23, 0x82	; 130
     312:	96 b7       	in	r25, 0x36	; 54
     314:	dd 96       	adiw	r26, 0x3d	; 61
     316:	94 7a       	andi	r25, 0xA4	; 164
     318:	9d ac       	ldd	r9, Y+61	; 0x3d
     31a:	b1 98       	cbi	0x16, 1	; 22
     31c:	77 7f       	andi	r23, 0xF7	; 247
     31e:	8f ab       	std	Y+55, r24	; 0x37
     320:	98 9d       	mul	r25, r8
     322:	a6 b5       	in	r26, 0x26	; 38
     324:	ca d9       	rcall	.-3180   	; 0xfffff6ba <__eeprom_end+0xff7ef6ba>
     326:	ee 9e       	mul	r14, r30
     328:	6e 87       	std	Y+14, r22	; 0x0e
     32a:	98 d8       	rcall	.-3792   	; 0xfffff45c <__eeprom_end+0xff7ef45c>
     32c:	b4 aa       	std	Z+52, r11	; 0x34
     32e:	84 88       	ldd	r8, Z+20	; 0x14
     330:	94 af       	std	Z+60, r25	; 0x3c
     332:	a7 94       	ror	r10
     334:	82 7d       	andi	r24, 0xD2	; 210
     336:	9c 99       	sbic	0x13, 4	; 19
     338:	aa aa       	std	Y+50, r10	; 0x32
     33a:	b8 c4       	rjmp	.+2416   	; 0xcac <__stack+0x44d>
     33c:	ce eb       	ldi	r28, 0xBE	; 190
     33e:	ab 82       	std	Y+3, r10	; 0x03
     340:	82 87       	std	Z+10, r24	; 0x0a
     342:	bf b2       	in	r11, 0x1f	; 31
     344:	bc 95 90 80 	jmp	0x6d0120 <_etext+0x6c89fe>
     348:	9b 9a       	sbi	0x13, 3	; 19
     34a:	9d 91       	ld	r25, X+
     34c:	8e 97       	sbiw	r24, 0x2e	; 46
     34e:	96 a5       	ldd	r25, Z+46	; 0x2e
     350:	aa b8       	out	0x0a, r10	; 10
     352:	c2 c8       	rjmp	.-3708   	; 0xfffff4d8 <__eeprom_end+0xff7ef4d8>
     354:	d9 ac       	ldd	r13, Y+57	; 0x39
     356:	9d 89       	ldd	r25, Y+21	; 0x15
     358:	87 9b       	sbis	0x10, 7	; 16
     35a:	9f ad       	ldd	r25, Y+63	; 0x3f
     35c:	a3 aa       	std	Z+51, r10	; 0x33
     35e:	98 9d       	mul	r25, r8
     360:	8d 96       	adiw	r24, 0x2d	; 45
     362:	94 9e       	mul	r9, r20
     364:	9d 9f       	mul	r25, r29
     366:	9f a1       	ldd	r25, Y+39	; 0x27
     368:	a4 a5       	ldd	r26, Z+44	; 0x2c
     36a:	a9 a7       	std	Y+41, r26	; 0x29
     36c:	b0 ad       	ldd	r27, Z+56	; 0x38
     36e:	ad aa       	std	Y+53, r10	; 0x35
     370:	a5 a4       	ldd	r10, Z+45	; 0x2d
     372:	9e 9d       	mul	r25, r14
     374:	9a 98       	cbi	0x13, 2	; 19
     376:	98 9a       	sbi	0x13, 0	; 19
     378:	9a 9c       	mul	r9, r10
     37a:	9c 9d       	mul	r25, r12
     37c:	9e 9a       	sbi	0x13, 6	; 19
     37e:	9d 9f       	mul	r25, r29
     380:	a3 a6       	std	Z+43, r10	; 0x2b
     382:	a5 a9       	ldd	r26, Z+53	; 0x35
     384:	af b0       	in	r10, 0x0f	; 15
     386:	b2 ab       	std	Z+50, r27	; 0x32
     388:	a7 a1       	ldd	r26, Z+39	; 0x27
     38a:	a0 9e       	mul	r10, r16
     38c:	9c 98       	cbi	0x13, 4	; 19
     38e:	99 9f       	mul	r25, r25
     390:	9d 9d       	mul	r25, r13
     392:	9c 9e       	mul	r9, r28
     394:	9e 9c       	mul	r9, r14
     396:	9d a1       	ldd	r25, Y+37	; 0x25
     398:	a4 a6       	std	Z+44, r10	; 0x2c
     39a:	a6 ac       	ldd	r10, Z+62	; 0x3e
     39c:	ae b0       	in	r10, 0x0e	; 14
     39e:	b1 ac       	ldd	r11, Z+57	; 0x39
     3a0:	a8 a4       	ldd	r10, Y+40	; 0x28
     3a2:	a4 a0       	ldd	r10, Z+36	; 0x24
     3a4:	9e 99       	sbic	0x13, 6	; 19
     3a6:	9a 9c       	mul	r9, r10
     3a8:	9d 9d       	mul	r25, r13
     3aa:	9c 9d       	mul	r25, r12
     3ac:	9b a0       	ldd	r9, Y+35	; 0x23
     3ae:	a0 a3       	std	Z+32, r26	; 0x20
     3b0:	a4 a6       	std	Z+44, r10	; 0x2c
     3b2:	a7 ab       	std	Z+55, r26	; 0x37
     3b4:	ad ae       	std	Y+61, r10	; 0x3d
     3b6:	b3 ab       	std	Z+51, r27	; 0x33
     3b8:	ac a6       	std	Y+44, r10	; 0x2c
     3ba:	a3 9f       	mul	r26, r19
     3bc:	9b 9b       	sbis	0x13, 3	; 19
     3be:	9b 9f       	mul	r25, r27
     3c0:	9e 9f       	mul	r25, r30
     3c2:	9d 9c       	mul	r9, r13
     3c4:	9d 9f       	mul	r25, r29
     3c6:	9e a0       	ldd	r9, Y+38	; 0x26
     3c8:	a1 a3       	std	Z+33, r26	; 0x21
     3ca:	a8 ab       	std	Y+48, r26	; 0x30
     3cc:	b0 ae       	std	Z+56, r11	; 0x38
     3ce:	b3 af       	std	Z+59, r27	; 0x3b
     3d0:	ad a5       	ldd	r26, Y+45	; 0x2d
     3d2:	9c 9a       	sbi	0x13, 4	; 19
     3d4:	97 9a       	sbi	0x12, 7	; 18
     3d6:	9a 98       	cbi	0x13, 2	; 19
     3d8:	95 9a       	sbi	0x12, 5	; 18
     3da:	9b 9b       	sbis	0x13, 3	; 19
     3dc:	9b 9b       	sbis	0x13, 3	; 19
     3de:	9a 9a       	sbi	0x13, 2	; 19
     3e0:	a0 a8       	ldd	r10, Z+48	; 0x30
     3e2:	b5 c0       	rjmp	.+362    	; 0x54e <__ctors_end+0x4fa>
     3e4:	d6 c7       	rjmp	.+4012   	; 0x1392 <__stack+0xb33>
     3e6:	c0 a4       	ldd	r12, Z+40	; 0x28
     3e8:	91 82       	std	Z+1, r9	; 0x01
     3ea:	83 90       	.word	0x9083	; ????
     3ec:	a5 b1       	in	r26, 0x05	; 5
     3ee:	b8 b4       	in	r11, 0x28	; 40
     3f0:	a6 8d       	ldd	r26, Z+30	; 0x1e
     3f2:	7d 7a       	andi	r23, 0xAD	; 173
     3f4:	87 98       	cbi	0x10, 7	; 16
     3f6:	aa af       	std	Y+58, r26	; 0x3a
     3f8:	b7 ba       	out	0x17, r11	; 23
     3fa:	c1 d1       	rcall	.+898    	; 0x77e <__ctors_end+0x72a>
     3fc:	dd bb       	out	0x1d, r29	; 29
     3fe:	ab 84       	ldd	r10, Y+11	; 0x0b
     400:	84 85       	ldd	r24, Z+12	; 0x0c
     402:	9e ad       	ldd	r25, Y+62	; 0x3e
     404:	be b4       	in	r11, 0x2e	; 46
     406:	aa 94       	dec	r10
     408:	83 7c       	andi	r24, 0xC3	; 195
     40a:	81 93       	st	Z+, r24
     40c:	a1 ac       	ldd	r10, Z+57	; 0x39
     40e:	b1 b1       	in	r27, 0x01	; 1
     410:	ba c1       	rjmp	.+884    	; 0x786 <__ctors_end+0x732>
     412:	dc d6       	rcall	.+3512   	; 0x11cc <__stack+0x96d>
     414:	b7 9b       	sbis	0x16, 7	; 22
     416:	7e 81       	ldd	r23, Y+6	; 0x06
     418:	8f a7       	std	Y+47, r24	; 0x2f
     41a:	ba be       	out	0x3a, r11	; 58
     41c:	b4 a0       	ldd	r11, Z+36	; 0x24
     41e:	89 7b       	andi	r24, 0xB9	; 185
     420:	7c 89       	ldd	r23, Y+20	; 0x14
     422:	9e ab       	std	Y+54, r25	; 0x36
     424:	b0 b1       	in	r27, 0x00	; 0
     426:	b5 bd       	out	0x25, r27	; 37
     428:	d2 e4       	ldi	r29, 0x42	; 66
     42a:	bf ab       	std	Y+55, r27	; 0x37
     42c:	81 81       	ldd	r24, Z+1	; 0x01
     42e:	86 a3       	std	Z+38, r24	; 0x26
     430:	b6 c4       	rjmp	.+2412   	; 0xd9e <__stack+0x53f>
     432:	b7 a6       	std	Z+47, r11	; 0x2f
     434:	8e 7c       	andi	r24, 0xCE	; 206
     436:	7d 85       	ldd	r23, Y+13	; 0x0d
     438:	9b a7       	std	Y+43, r25	; 0x2b
     43a:	ac ad       	ldd	r26, Y+60	; 0x3c
     43c:	ae b8       	out	0x0e, r10	; 14
     43e:	c6 e9       	ldi	r28, 0x96	; 150
     440:	d4 b5       	in	r29, 0x24	; 36
     442:	8f 7b       	andi	r24, 0xBF	; 191
     444:	7f 98       	cbi	0x0f, 7	; 15
     446:	af c3       	rjmp	.+1886   	; 0xba6 <__stack+0x347>
     448:	c0 af       	std	Z+56, r28	; 0x38
     44a:	97 82       	std	Z+7, r9	; 0x07
     44c:	7a 82       	std	Y+2, r7	; 0x02
     44e:	93 a5       	ldd	r25, Z+43	; 0x2b
     450:	ab aa       	std	Y+51, r10	; 0x33
     452:	a9 ac       	ldd	r10, Y+57	; 0x39
     454:	bb d2       	rcall	.+1398   	; 0x9cc <__stack+0x16d>
     456:	ef c8       	rjmp	.-3618   	; 0xfffff636 <__eeprom_end+0xff7ef636>
     458:	af 7f       	andi	r26, 0xFF	; 255
     45a:	79 83       	std	Y+1, r23	; 0x01
     45c:	a5 bb       	out	0x15, r26	; 21
     45e:	ca bb       	out	0x1a, r28	; 26
     460:	a7 8d       	ldd	r26, Z+31	; 0x1f
     462:	7d 7d       	andi	r23, 0xDD	; 221
     464:	85 9b       	sbis	0x10, 5	; 16
     466:	a8 ad       	ldd	r26, Y+56	; 0x38
     468:	a7 a6       	std	Z+47, r10	; 0x2f
     46a:	ad bd       	out	0x2d, r26	; 45
     46c:	db f0       	brvs	.+54     	; 0x4a4 <__ctors_end+0x450>
     46e:	c4 a8       	ldd	r12, Z+52	; 0x34
     470:	79 79       	andi	r23, 0x99	; 153
     472:	87 aa       	std	Z+55, r8	; 0x37
     474:	c2 cb       	rjmp	.-2172   	; 0xfffffbfa <__eeprom_end+0xff7efbfa>
     476:	b7 a0       	ldd	r11, Z+39	; 0x27
     478:	88 7e       	andi	r24, 0xE8	; 232
     47a:	84 8f       	std	Z+28, r24	; 0x1c
     47c:	a1 a8       	ldd	r10, Z+49	; 0x31
     47e:	aa a1       	ldd	r26, Y+34	; 0x22
     480:	a3 aa       	std	Z+51, r10	; 0x33
     482:	bf da       	rcall	.-2690   	; 0xfffffa02 <__eeprom_end+0xff7efa02>
     484:	fa cb       	rjmp	.-2060   	; 0xfffffc7a <__eeprom_end+0xff7efc7a>
     486:	ab 77       	andi	r26, 0x7B	; 123
     488:	74 83       	std	Z+4, r23	; 0x04
     48a:	ab c3       	rjmp	.+1878   	; 0xbe2 <__stack+0x383>
     48c:	d2 bb       	out	0x12, r29	; 18
     48e:	a1 85       	ldd	r26, Z+9	; 0x09
     490:	7d 84       	ldd	r7, Y+13	; 0x0d
     492:	8f a1       	ldd	r24, Y+39	; 0x27
     494:	a8 a7       	std	Y+40, r26	; 0x28
     496:	9e 9d       	mul	r25, r14
     498:	a5 bd       	out	0x25, r26	; 37
     49a:	d2 fc       	sbrc	r13, 2
     49c:	dc b1       	in	r29, 0x0c	; 12
     49e:	80 6a       	ori	r24, 0xA0	; 160
     4a0:	7d a4       	ldd	r7, Y+45	; 0x2d
     4a2:	c3 d4       	rcall	.+2438   	; 0xe2a <__stack+0x5cb>
     4a4:	c0 a1       	ldd	r28, Z+32	; 0x20
     4a6:	82 7b       	andi	r24, 0xB2	; 178
     4a8:	81 96       	adiw	r24, 0x21	; 33
     4aa:	a3 aa       	std	Z+51, r10	; 0x33
     4ac:	a3 9b       	sbis	0x14, 3	; 20
     4ae:	93 9e       	mul	r9, r19
     4b0:	b2 cf       	rjmp	.-156    	; 0x416 <__ctors_end+0x3c2>
     4b2:	eb fb       	.word	0xfbeb	; ????
     4b4:	b7 94       	ror	r11
     4b6:	63 77       	andi	r22, 0x73	; 115
     4b8:	96 c6       	rjmp	.+3372   	; 0x11e6 <__stack+0x987>
     4ba:	d4 cf       	rjmp	.-88     	; 0x464 <__ctors_end+0x410>
     4bc:	a5 87       	std	Z+13, r26	; 0x0d
     4be:	76 82       	std	Z+6, r7	; 0x06
     4c0:	99 a9       	ldd	r25, Y+49	; 0x31
     4c2:	aa 9e       	mul	r10, r26
     4c4:	94 8f       	std	Z+28, r25	; 0x1c
     4c6:	95 a9       	ldd	r25, Z+53	; 0x35
     4c8:	c6 db       	rcall	.-2164   	; 0xfffffc56 <__eeprom_end+0xff7efc56>
     4ca:	f5 e6       	ldi	r31, 0x65	; 101
     4cc:	9d 7f       	andi	r25, 0xFD	; 253
     4ce:	61 8d       	ldd	r22, Z+25	; 0x19
     4d0:	b1 d7       	rcall	.+3938   	; 0x1434 <__stack+0xbd5>
     4d2:	d1 b7       	in	r29, 0x31	; 49
     4d4:	89 7b       	andi	r24, 0xB9	; 185
     4d6:	7d 9a       	sbi	0x0f, 5	; 15
     4d8:	ac af       	std	Y+60, r26	; 0x3c
     4da:	9f 8f       	std	Y+31, r25	; 0x1f
     4dc:	88 8f       	std	Y+24, r24	; 0x18
     4de:	9c b4       	in	r9, 0x2c	; 44
     4e0:	c9 d9       	rcall	.-3182   	; 0xfffff874 <__eeprom_end+0xff7ef874>
     4e2:	e8 e1       	ldi	r30, 0x18	; 24
     4e4:	93 81       	ldd	r25, Z+3	; 0x03
     4e6:	68 99       	sbic	0x0d, 0	; 13
     4e8:	b7 d7       	rcall	.+3950   	; 0x1458 <__stack+0xbf9>
     4ea:	c2 a9       	ldd	r28, Z+50	; 0x32
     4ec:	7f 7f       	andi	r23, 0xFF	; 255
     4ee:	8a a9       	ldd	r24, Y+50	; 0x32
     4f0:	b1 a6       	std	Z+41, r11	; 0x29
     4f2:	90 81       	ld	r25, Z
     4f4:	88 98       	cbi	0x11, 0	; 17
     4f6:	a4 b5       	in	r26, 0x24	; 36
     4f8:	c0 cf       	rjmp	.-128    	; 0x47a <__ctors_end+0x426>
     4fa:	d2 ee       	ldi	r29, 0xE2	; 226
     4fc:	ae 8a       	std	Y+22, r10	; 0x16
     4fe:	75 87       	std	Z+13, r23	; 0x0d
     500:	b6 cc       	rjmp	.-1684   	; 0xfffffe6e <__eeprom_end+0xff7efe6e>
     502:	cb aa       	std	Y+51, r12	; 0x33
     504:	8d 7b       	andi	r24, 0xBD	; 189
     506:	93 a7       	std	Z+43, r25	; 0x2b
     508:	b8 a5       	ldd	r27, Y+40	; 0x28
     50a:	91 7f       	andi	r25, 0xF1	; 241
     50c:	83 9a       	sbi	0x10, 3	; 16
     50e:	a6 ad       	ldd	r26, Z+62	; 0x3e
     510:	b6 bd       	out	0x26, r27	; 38
     512:	cd d4       	rcall	.+2458   	; 0xeae <__stack+0x64f>
     514:	f5 98       	cbi	0x1e, 5	; 30
     516:	8a 6b       	ori	r24, 0xBA	; 186
     518:	9c c5       	rjmp	.+2872   	; 0x1052 <__stack+0x7f3>
     51a:	d3 bf       	out	0x33, r29	; 51
     51c:	97 7c       	andi	r25, 0xC7	; 199
     51e:	80 a5       	ldd	r24, Z+40	; 0x28
     520:	ba b8       	out	0x0a, r11	; 10
     522:	9a 7e       	andi	r25, 0xEA	; 234
     524:	7a 90       	ld	r7, -Y
     526:	a7 ae       	std	Z+63, r10	; 0x3f
     528:	a9 ac       	ldd	r10, Y+57	; 0x39
     52a:	b1 c7       	rjmp	.+3938   	; 0x148e <__stack+0xc2f>
     52c:	cd ff       	.word	0xffcd	; ????
     52e:	ad 7b       	andi	r26, 0xBD	; 189
     530:	78 89       	ldd	r23, Y+16	; 0x10
     532:	d7 c7       	rjmp	.+4014   	; 0x14e2 <__stack+0xc83>
     534:	c7 87       	std	Z+15, r28	; 0x0f
     536:	7f 7f       	andi	r23, 0xFF	; 255
     538:	b1 bc       	out	0x21, r11	; 33
     53a:	b7 91       	elpm	r27, Z+
     53c:	7a 83       	std	Y+2, r23	; 0x02
     53e:	96 ad       	ldd	r25, Z+62	; 0x3e
     540:	a8 9d       	mul	r26, r8
     542:	9f b1       	in	r25, 0x0f	; 15
     544:	c1 d2       	rcall	.+1410   	; 0xac8 <__stack+0x269>
     546:	f0 e2       	ldi	r31, 0x20	; 32
     548:	66 8a       	std	Z+22, r6	; 0x16
     54a:	70 d8       	rcall	.-3872   	; 0xfffff62c <__eeprom_end+0xff7ef62c>
     54c:	cb c7       	rjmp	.+3990   	; 0x14e4 <__stack+0xc85>
     54e:	94 78       	andi	r25, 0x84	; 132
     550:	88 aa       	std	Y+48, r8	; 0x30
     552:	c9 b2       	in	r12, 0x19	; 25
     554:	9c 78       	andi	r25, 0x8C	; 140
     556:	8d 98       	cbi	0x11, 5	; 17
     558:	a9 a1       	ldd	r26, Y+33	; 0x21
     55a:	9b 9b       	sbis	0x13, 3	; 19
     55c:	ac ba       	out	0x1c, r10	; 28
     55e:	c9 d3       	rcall	.+1938   	; 0xcf2 <__stack+0x493>
     560:	f8 c5       	rjmp	.+3056   	; 0x1152 <__stack+0x8f3>
     562:	5e 90       	ld	r5, -X
     564:	81 ec       	ldi	r24, 0xC1	; 193
     566:	c5 bb       	out	0x15, r28	; 21
     568:	81 79       	andi	r24, 0x91	; 145
     56a:	9a ba       	out	0x1a, r9	; 26
     56c:	cb a3       	std	Y+35, r28	; 0x23
     56e:	89 7d       	andi	r24, 0xD9	; 217
     570:	9c 9c       	mul	r9, r12
     572:	9f 93       	push	r25
     574:	98 a7       	std	Y+40, r25	; 0x28
     576:	ac b7       	in	r26, 0x3c	; 60
     578:	ba ce       	rjmp	.-652    	; 0x2ee <__ctors_end+0x29a>
     57a:	e5 e5       	ldi	r30, 0x55	; 85
     57c:	5b 90       	.word	0x905b	; ????
     57e:	7f d7       	rcall	.+3838   	; 0x147e <__stack+0xc1f>
     580:	d6 a9       	ldd	r29, Z+54	; 0x36
     582:	90 6c       	ori	r25, 0xC0	; 192
     584:	a1 b3       	in	r26, 0x11	; 17
     586:	c9 a0       	ldd	r12, Y+33	; 0x21
     588:	85 7c       	andi	r24, 0xC5	; 197
     58a:	9c a5       	ldd	r25, Y+44	; 0x2c
     58c:	a4 95       	.word	0x95a4	; ????
     58e:	91 a4       	ldd	r9, Z+41	; 0x29
     590:	a4 ba       	out	0x14, r10	; 20
     592:	b2 cc       	rjmp	.-1692   	; 0xfffffef8 <__eeprom_end+0xff7efef8>
     594:	d1 cd       	rjmp	.-1118   	; 0x138 <__ctors_end+0xe4>
     596:	9b 65       	ori	r25, 0x5B	; 91
     598:	98 99       	sbic	0x13, 0	; 19
     59a:	f5 b0       	in	r15, 0x05	; 5
     59c:	a4 78       	andi	r26, 0x84	; 132
     59e:	87 b2       	in	r8, 0x17	; 23
     5a0:	be b8       	out	0x0e, r11	; 14
     5a2:	90 85       	ldd	r25, Z+8	; 0x08
     5a4:	90 a9       	ldd	r25, Z+48	; 0x30
     5a6:	9c 9b       	sbis	0x13, 4	; 19
     5a8:	91 a4       	ldd	r9, Z+41	; 0x29
     5aa:	ab a5       	ldd	r26, Y+43	; 0x2b
     5ac:	b3 b3       	in	r27, 0x13	; 19
     5ae:	d4 dc       	rcall	.-1624   	; 0xffffff58 <__eeprom_end+0xff7eff58>
     5b0:	00 76       	andi	r16, 0x60	; 96
     5b2:	70 8f       	std	Z+24, r23	; 0x18
     5b4:	b0 f8       	bld	r11, 0
     5b6:	a4 9f       	mul	r26, r20
     5b8:	6c 92       	st	X, r6
     5ba:	b8 c2       	rjmp	.+1392   	; 0xb2c <__stack+0x2cd>
     5bc:	b2 87       	std	Z+10, r27	; 0x0a
     5be:	84 92       	.word	0x9284	; ????
     5c0:	ae 99       	sbic	0x15, 6	; 21
     5c2:	9b 90       	.word	0x909b	; ????
     5c4:	a1 a9       	ldd	r26, Z+49	; 0x31
     5c6:	aa b6       	in	r10, 0x3a	; 58
     5c8:	be d4       	rcall	.+2428   	; 0xf46 <__stack+0x6e7>
     5ca:	e9 ea       	ldi	r30, 0xA9	; 169
     5cc:	51 8f       	std	Z+25, r21	; 0x19
     5ce:	87 d5       	rcall	.+2830   	; 0x10de <__stack+0x87f>
     5d0:	e0 9b       	sbis	0x1c, 0	; 28
     5d2:	95 6a       	ori	r25, 0xA5	; 165
     5d4:	a6 bb       	out	0x16, r26	; 22
     5d6:	c5 a6       	std	Z+45, r12	; 0x2d
     5d8:	84 84       	ldd	r8, Z+12	; 0x0c
     5da:	9b a8       	ldd	r9, Y+51	; 0x33
     5dc:	9d 94 90 a6 	jmp	0x274d20 <_etext+0x26d5fe>
     5e0:	a9 b3       	in	r26, 0x19	; 25
     5e2:	b2 c2       	rjmp	.+1380   	; 0xb48 <__stack+0x2e9>
     5e4:	cd f0       	brhs	.+50     	; 0x618 <__ctors_end+0x5c4>
     5e6:	de 57       	subi	r29, 0x7E	; 126
     5e8:	92 7f       	andi	r25, 0xF2	; 242
     5ea:	d5 d9       	rcall	.-3158   	; 0xfffff996 <__eeprom_end+0xff7ef996>
     5ec:	a4 9a       	sbi	0x14, 4	; 20
     5ee:	6c 9e       	mul	r6, r28
     5f0:	b1 c1       	rjmp	.+866    	; 0x954 <__stack+0xf5>
     5f2:	aa 8d       	ldd	r26, Y+26	; 0x1a
     5f4:	82 95       	swap	r24
     5f6:	a4 9d       	mul	r26, r4
     5f8:	9d 92       	st	X+, r9
     5fa:	a7 a5       	ldd	r26, Z+47	; 0x2f
     5fc:	b1 b2       	in	r11, 0x11	; 17
     5fe:	c3 d2       	rcall	.+1414   	; 0xb86 <__stack+0x327>
     600:	f5 c3       	rjmp	.+2026   	; 0xdec <__stack+0x58d>
     602:	60 91 7f da 	lds	r22, 0xDA7F
     606:	ce ac       	ldd	r12, Y+62	; 0x3e
     608:	97 69       	ori	r25, 0x97	; 151
     60a:	96 a7       	std	Z+46, r25	; 0x2e
     60c:	c0 af       	std	Z+56, r28	; 0x38
     60e:	92 86       	std	Z+10, r9	; 0x0a
     610:	89 9b       	sbis	0x11, 1	; 17
     612:	9b a3       	std	Y+35, r25	; 0x23
     614:	9a a5       	ldd	r25, Y+42	; 0x2a
     616:	a4 ad       	ldd	r26, Z+60	; 0x3c
     618:	b2 c6       	rjmp	.+3428   	; 0x137e <__stack+0xb1f>
     61a:	d7 f5       	brid	.+116    	; 0x690 <__ctors_end+0x63c>
     61c:	a9 79       	andi	r26, 0x99	; 153
     61e:	87 7f       	andi	r24, 0xF7	; 247
     620:	cd bb       	out	0x1d, r28	; 29
     622:	b8 9b       	sbis	0x17, 0	; 23
     624:	77 90       	elpm	r7, Z+
     626:	9b ba       	out	0x1b, r9	; 27
     628:	b3 9d       	mul	r27, r3
     62a:	8f 83       	std	Y+7, r24	; 0x07
     62c:	92 99       	sbic	0x12, 2	; 18
     62e:	a3 a1       	ldd	r26, Z+35	; 0x23
     630:	a6 a7       	std	Z+46, r26	; 0x2e
     632:	ab b1       	in	r26, 0x0b	; 11
     634:	bf cc       	rjmp	.-1666   	; 0xffffffb4 <__eeprom_end+0xff7effb4>
     636:	eb bc       	out	0x2b, r14	; 43
     638:	8a 89       	ldd	r24, Y+18	; 0x12
     63a:	74 ab       	std	Z+52, r23	; 0x34
     63c:	b6 bb       	out	0x16, r27	; 22
     63e:	b5 90       	lpm	r11, Z+
     640:	90 8c       	ldd	r9, Z+24	; 0x18
     642:	9c a9       	ldd	r25, Y+52	; 0x34
     644:	a4 a1       	ldd	r26, Z+36	; 0x24
     646:	98 95       	break
     648:	96 9d       	mul	r25, r6
     64a:	a5 ae       	std	Z+61, r10	; 0x3d
     64c:	af b1       	in	r26, 0x0f	; 15
     64e:	b1 b3       	in	r27, 0x11	; 17
     650:	b4 bf       	out	0x34, r27	; 52
     652:	bd ac       	ldd	r11, Y+61	; 0x3d
     654:	a7 9d       	mul	r26, r7
     656:	9a a1       	ldd	r25, Y+34	; 0x22
     658:	9e a0       	ldd	r9, Y+38	; 0x26
     65a:	a1 a4       	ldd	r10, Z+41	; 0x29
     65c:	a6 a4       	ldd	r10, Z+46	; 0x2e
     65e:	a3 a3       	std	Z+35, r26	; 0x23
     660:	a1 a5       	ldd	r26, Z+41	; 0x29
     662:	a4 a5       	ldd	r26, Z+44	; 0x2c
     664:	a4 a3       	std	Z+36, r26	; 0x24
     666:	a5 a3       	std	Z+37, r26	; 0x25
     668:	a4 a5       	ldd	r26, Z+44	; 0x2c
     66a:	a7 a6       	std	Z+47, r10	; 0x2f
     66c:	a6 a5       	ldd	r26, Z+46	; 0x2e
     66e:	a5 a6       	std	Z+45, r10	; 0x2d
     670:	a7 a7       	std	Z+47, r26	; 0x2f
     672:	a6 a4       	ldd	r10, Z+46	; 0x2e
     674:	a4 a5       	ldd	r26, Z+44	; 0x2c
     676:	a6 a5       	ldd	r26, Z+46	; 0x2e
     678:	a4 a4       	ldd	r10, Z+44	; 0x2c
     67a:	a4 a4       	ldd	r10, Z+44	; 0x2c
     67c:	a4 a3       	std	Z+36, r26	; 0x24
     67e:	a3 a4       	ldd	r10, Z+43	; 0x2b
     680:	a6 a6       	std	Z+46, r10	; 0x2e
     682:	a5 a3       	std	Z+37, r26	; 0x25
     684:	a3 a6       	std	Z+43, r10	; 0x2b
     686:	a6 a7       	std	Z+46, r26	; 0x2e
     688:	a5 a3       	std	Z+37, r26	; 0x25
     68a:	a4 a6       	std	Z+44, r10	; 0x2c
     68c:	a7 a5       	ldd	r26, Z+47	; 0x2f
     68e:	a3 a4       	ldd	r10, Z+43	; 0x2b
     690:	a6 a7       	std	Z+46, r26	; 0x2e
     692:	a5 a6       	std	Z+45, r10	; 0x2d
     694:	a6 a7       	std	Z+46, r26	; 0x2e
     696:	a8 a7       	std	Y+40, r26	; 0x28
     698:	a6 a5       	ldd	r26, Z+46	; 0x2e
     69a:	a6 a8       	ldd	r10, Z+54	; 0x36
     69c:	a8 a7       	std	Y+40, r26	; 0x28
     69e:	a5 a5       	ldd	r26, Z+45	; 0x2d
     6a0:	a6 a6       	std	Z+46, r10	; 0x2e
     6a2:	a7 a7       	std	Z+47, r26	; 0x2f
     6a4:	a8 a9       	ldd	r26, Y+48	; 0x30
     6a6:	a7 a7       	std	Z+47, r26	; 0x2f
     6a8:	a5 a4       	ldd	r10, Z+45	; 0x2d
     6aa:	a6 a7       	std	Z+46, r26	; 0x2e
     6ac:	a7 a6       	std	Z+47, r10	; 0x2f
     6ae:	a7 a9       	ldd	r26, Z+55	; 0x37
     6b0:	a9 a9       	ldd	r26, Y+49	; 0x31
     6b2:	a9 a8       	ldd	r10, Y+49	; 0x31
     6b4:	a7 a8       	ldd	r10, Z+55	; 0x37
     6b6:	a8 a7       	std	Y+40, r26	; 0x28
     6b8:	a7 a6       	std	Z+47, r10	; 0x2f
     6ba:	a6 a7       	std	Z+46, r26	; 0x2e
     6bc:	a7 a7       	std	Z+47, r26	; 0x2f
     6be:	a6 a6       	std	Z+46, r10	; 0x2e
     6c0:	a8 a8       	ldd	r10, Y+48	; 0x30
     6c2:	a8 a7       	std	Y+40, r26	; 0x28
     6c4:	a6 a6       	std	Z+46, r10	; 0x2e
     6c6:	a7 a8       	ldd	r10, Z+55	; 0x37
     6c8:	a8 a8       	ldd	r10, Y+48	; 0x30
     6ca:	a7 a7       	std	Z+47, r26	; 0x2f
     6cc:	a7 a8       	ldd	r10, Z+55	; 0x37
     6ce:	a8 a7       	std	Y+40, r26	; 0x28
     6d0:	a8 a8       	ldd	r10, Y+48	; 0x30
     6d2:	a7 a6       	std	Z+47, r10	; 0x2f
     6d4:	a5 a5       	ldd	r26, Z+45	; 0x2d
     6d6:	a5 a6       	std	Z+45, r10	; 0x2d
     6d8:	a6 a6       	std	Z+46, r10	; 0x2e
     6da:	a6 a6       	std	Z+46, r10	; 0x2e
     6dc:	a7 a7       	std	Z+47, r26	; 0x2f
     6de:	a6 a7       	std	Z+46, r26	; 0x2e
     6e0:	a7 a7       	std	Z+47, r26	; 0x2f
     6e2:	a5 a4       	ldd	r10, Z+45	; 0x2d
     6e4:	a5 a6       	std	Z+45, r10	; 0x2d
     6e6:	a6 a8       	ldd	r10, Z+54	; 0x36
     6e8:	a7 a7       	std	Z+47, r26	; 0x2f
     6ea:	a6 a5       	ldd	r26, Z+46	; 0x2e
     6ec:	a5 a5       	ldd	r26, Z+45	; 0x2d
     6ee:	a5 a7       	std	Z+45, r26	; 0x2d
     6f0:	a6 a6       	std	Z+46, r10	; 0x2e
     6f2:	a5 a6       	std	Z+45, r10	; 0x2d
     6f4:	a6 a7       	std	Z+46, r26	; 0x2e
     6f6:	a8 a7       	std	Y+40, r26	; 0x28
     6f8:	a6 a6       	std	Z+46, r10	; 0x2e
     6fa:	a6 a6       	std	Z+46, r10	; 0x2e
     6fc:	a6 a6       	std	Z+46, r10	; 0x2e
     6fe:	a6 a7       	std	Z+46, r26	; 0x2e
     700:	a6 a5       	ldd	r26, Z+46	; 0x2e
     702:	a6 a6       	std	Z+46, r10	; 0x2e
     704:	a7 a8       	ldd	r10, Z+55	; 0x37
     706:	a7 a7       	std	Z+47, r26	; 0x2f
     708:	a5 a6       	std	Z+45, r10	; 0x2d
     70a:	a6 a6       	std	Z+46, r10	; 0x2e
     70c:	a6 a6       	std	Z+46, r10	; 0x2e
     70e:	a7 a8       	ldd	r10, Z+55	; 0x37
     710:	a8 a8       	ldd	r10, Y+48	; 0x30
     712:	a6 a6       	std	Z+46, r10	; 0x2e
     714:	a6 a7       	std	Z+46, r26	; 0x2e
     716:	a8 a6       	std	Y+40, r10	; 0x28
     718:	a5 a5       	ldd	r26, Z+45	; 0x2d
     71a:	a5 a6       	std	Z+45, r10	; 0x2d
     71c:	a7 a7       	std	Z+47, r26	; 0x2f
     71e:	a7 a7       	std	Z+47, r26	; 0x2f
     720:	a8 a8       	ldd	r10, Y+48	; 0x30
     722:	a7 a6       	std	Z+47, r10	; 0x2f
     724:	a6 a7       	std	Z+46, r26	; 0x2e
     726:	a6 a6       	std	Z+46, r10	; 0x2e
     728:	a5 a6       	std	Z+45, r10	; 0x2d
     72a:	a7 a8       	ldd	r10, Z+55	; 0x37
     72c:	a9 a8       	ldd	r10, Y+49	; 0x31
     72e:	a8 a8       	ldd	r10, Y+48	; 0x30
     730:	a8 a6       	std	Y+40, r10	; 0x28
     732:	a6 a6       	std	Z+46, r10	; 0x2e
     734:	a5 a6       	std	Z+45, r10	; 0x2d
     736:	a6 a7       	std	Z+46, r26	; 0x2e
     738:	a6 a6       	std	Z+46, r10	; 0x2e
     73a:	a7 a7       	std	Z+47, r26	; 0x2f
     73c:	a7 a7       	std	Z+47, r26	; 0x2f
     73e:	a6 a5       	ldd	r26, Z+46	; 0x2e
     740:	a6 a6       	std	Z+46, r10	; 0x2e
     742:	a6 a5       	ldd	r26, Z+46	; 0x2e
     744:	a5 a6       	std	Z+45, r10	; 0x2d
     746:	a6 a7       	std	Z+46, r26	; 0x2e
     748:	a7 a6       	std	Z+47, r10	; 0x2f
     74a:	a6 a7       	std	Z+46, r26	; 0x2e
     74c:	a5 a4       	ldd	r10, Z+45	; 0x2d
     74e:	a4 a5       	ldd	r26, Z+44	; 0x2c
     750:	a6 a6       	std	Z+46, r10	; 0x2e
     752:	a5 a5       	ldd	r26, Z+45	; 0x2d
     754:	a5 a6       	std	Z+45, r10	; 0x2d
     756:	a7 a6       	std	Z+47, r10	; 0x2f
     758:	a5 a4       	ldd	r10, Z+45	; 0x2d
     75a:	a4 a5       	ldd	r26, Z+44	; 0x2c
     75c:	a6 a6       	std	Z+46, r10	; 0x2e
     75e:	a5 a5       	ldd	r26, Z+45	; 0x2d
     760:	a5 a5       	ldd	r26, Z+45	; 0x2d
     762:	a6 a6       	std	Z+46, r10	; 0x2e
     764:	a6 a6       	std	Z+46, r10	; 0x2e
     766:	a6 a5       	ldd	r26, Z+46	; 0x2e
     768:	a5 a4       	ldd	r10, Z+45	; 0x2d
     76a:	a5 a5       	ldd	r26, Z+45	; 0x2d
     76c:	a4 a5       	ldd	r26, Z+44	; 0x2c
     76e:	a5 a5       	ldd	r26, Z+45	; 0x2d
     770:	a6 a7       	std	Z+46, r26	; 0x2e
     772:	a7 a6       	std	Z+47, r10	; 0x2f
     774:	a6 a5       	ldd	r26, Z+46	; 0x2e
     776:	a5 a6       	std	Z+45, r10	; 0x2d
     778:	a6 a6       	std	Z+46, r10	; 0x2e
     77a:	a6 a6       	std	Z+46, r10	; 0x2e
     77c:	a6 a6       	std	Z+46, r10	; 0x2e
     77e:	a6 a6       	std	Z+46, r10	; 0x2e
     780:	a6 a6       	std	Z+46, r10	; 0x2e
     782:	a5 a5       	ldd	r26, Z+45	; 0x2d
     784:	a5 a6       	std	Z+45, r10	; 0x2d
     786:	a6 a6       	std	Z+46, r10	; 0x2e
     788:	a6 a6       	std	Z+46, r10	; 0x2e
     78a:	a6 a6       	std	Z+46, r10	; 0x2e
     78c:	a7 a7       	std	Z+47, r26	; 0x2f
     78e:	a7 a8       	ldd	r10, Z+55	; 0x37
     790:	a6 a6       	std	Z+46, r10	; 0x2e
     792:	a5 a5       	ldd	r26, Z+45	; 0x2d
     794:	a5 a7       	std	Z+45, r26	; 0x2d
     796:	a6 a7       	std	Z+46, r26	; 0x2e
     798:	9b 96       	adiw	r26, 0x2b	; 43
     79a:	a8 a6       	std	Y+40, r10	; 0x28
     79c:	a5 a5       	ldd	r26, Z+45	; 0x2d
     79e:	a4 94       	.word	0x94a4	; ????
     7a0:	99 a7       	std	Y+41, r25	; 0x29
     7a2:	a8 a4       	ldd	r10, Y+40	; 0x28
     7a4:	a0 a7       	std	Z+40, r26	; 0x28
     7a6:	a0 9e       	mul	r10, r16
     7a8:	a0 a4       	ldd	r10, Z+40	; 0x28
     7aa:	9c a6       	std	Y+44, r9	; 0x2c
     7ac:	a5 9f       	mul	r26, r21
     7ae:	a5 a1       	ldd	r26, Z+37	; 0x25
     7b0:	a9 a5       	ldd	r26, Y+41	; 0x29
     7b2:	a5 a8       	ldd	r10, Z+53	; 0x35
     7b4:	a3 a9       	ldd	r26, Z+51	; 0x33
     7b6:	a7 a9       	ldd	r26, Z+55	; 0x37
     7b8:	ac a6       	std	Y+44, r10	; 0x2c
     7ba:	aa a7       	std	Y+42, r26	; 0x2a
     7bc:	a7 a9       	ldd	r26, Z+55	; 0x37
     7be:	a5 a7       	std	Z+45, r26	; 0x2d
     7c0:	a7 a5       	ldd	r26, Z+47	; 0x2f
     7c2:	a6 a5       	ldd	r26, Z+46	; 0x2e
     7c4:	a6 a9       	ldd	r26, Z+54	; 0x36
     7c6:	ac b0       	in	r10, 0x0c	; 12
     7c8:	b3 b6       	in	r11, 0x33	; 51
     7ca:	ba bd       	out	0x2a, r27	; 42
     7cc:	c0 c5       	rjmp	.+2944   	; 0x134e <__stack+0xaef>
     7ce:	c0 ac       	ldd	r12, Z+56	; 0x38
     7d0:	9f 9a       	sbi	0x13, 7	; 19
     7d2:	96 a1       	ldd	r25, Z+38	; 0x26
     7d4:	a9 ab       	std	Y+49, r26	; 0x31
     7d6:	ad a4       	ldd	r10, Y+45	; 0x2d
     7d8:	97 8f       	std	Z+31, r25	; 0x1f
     7da:	8a 92       	st	-Y, r8
     7dc:	9e a8       	ldd	r9, Y+54	; 0x36
     7de:	b2 b6       	in	r11, 0x32	; 50
     7e0:	bb c4       	rjmp	.+2422   	; 0x1158 <__stack+0x8f9>
     7e2:	d5 ed       	ldi	r29, 0xD5	; 213
     7e4:	bc 92       	st	X, r11
     7e6:	93 79       	andi	r25, 0x93	; 147
     7e8:	93 b5       	in	r25, 0x23	; 35
     7ea:	ae bd       	out	0x2e, r26	; 46
     7ec:	ba 99       	sbic	0x17, 2	; 23
     7ee:	9a 94       	dec	r9
     7f0:	89 9b       	sbis	0x11, 1	; 17
     7f2:	a1 9a       	sbi	0x14, 1	; 20
     7f4:	9e 99       	sbic	0x13, 6	; 19
     7f6:	92 9b       	sbis	0x12, 2	; 18
     7f8:	a5 ae       	std	Z+61, r10	; 0x3d
     7fa:	c2 cd       	rjmp	.-1148   	; 0x380 <__ctors_end+0x32c>
     7fc:	dd f0       	brhs	.+54     	; 0x834 <__ctors_end+0x7e0>
     7fe:	b1 7d       	andi	r27, 0xD1	; 209
     800:	85 7c       	andi	r24, 0xC5	; 197
     802:	93 c2       	rjmp	.+1318   	; 0xd2a <__stack+0x4cb>
     804:	bd b4       	in	r11, 0x2d	; 45
     806:	b0 8d       	ldd	r27, Z+24	; 0x18
     808:	82 93       	st	-Z, r24
     80a:	92 96       	adiw	r26, 0x22	; 34
     80c:	a4 9e       	mul	r10, r20
     80e:	9a 9c       	mul	r9, r10
     810:	97 a0       	ldd	r9, Z+39	; 0x27
     812:	b7 c4       	rjmp	.+2414   	; 0x1182 <__stack+0x923>
     814:	d3 ee       	ldi	r29, 0xE3	; 227
     816:	d1 8e       	std	Z+25, r13	; 0x19
     818:	7e 80       	ldd	r7, Y+6	; 0x06
     81a:	84 ac       	ldd	r8, Z+60	; 0x3c
     81c:	c2 b5       	in	r28, 0x22	; 34
     81e:	af 9d       	mul	r26, r15
     820:	86 87       	std	Z+14, r24	; 0x0e
     822:	90 92 9e a3 	sts	0xA39E, r9
     826:	9c 9d       	mul	r25, r12
     828:	9d a0       	ldd	r9, Y+37	; 0x25
     82a:	b4 c7       	rjmp	.+3944   	; 0x1794 <__stack+0xf35>
     82c:	d9 ed       	ldi	r29, 0xD9	; 217
     82e:	c5 86       	std	Z+13, r12	; 0x0d
     830:	7b 7f       	andi	r23, 0xFB	; 251
     832:	89 b1       	in	r24, 0x09	; 9
     834:	c8 ba       	out	0x18, r12	; 24
     836:	ac 9a       	sbi	0x15, 4	; 21
     838:	81 7e       	andi	r24, 0xE1	; 225
     83a:	8e 95 9f ab 	call	0x61573e <_etext+0x60e01c>
     83e:	a5 9b       	sbis	0x14, 5	; 20
     840:	9d a7       	std	Y+45, r25	; 0x2d
     842:	b8 cb       	rjmp	.-2192   	; 0xffffffb4 <__eeprom_end+0xff7effb4>
     844:	e8 e9       	ldi	r30, 0x98	; 152
     846:	a8 7b       	andi	r26, 0xB8	; 184
     848:	7e 82       	std	Y+6, r7	; 0x06
     84a:	96 bd       	out	0x26, r25	; 38
     84c:	c7 b6       	in	r12, 0x37	; 55
     84e:	a7 93       	.word	0x93a7	; ????
     850:	7c 7f       	andi	r23, 0xFC	; 252
     852:	91 99       	sbic	0x12, 1	; 18
     854:	a3 a9       	ldd	r26, Z+51	; 0x33
     856:	a0 9b       	sbis	0x14, 0	; 20
     858:	a1 b1       	in	r26, 0x01	; 1
     85a:	c4 da       	rcall	.-2680   	; 0xfffffde4 <__eeprom_end+0xff7efde4>
     85c:	f1 c8       	rjmp	.-3614   	; 0xfffffa40 <__eeprom_end+0xff7efa40>
     85e:	86 7a       	andi	r24, 0xA6	; 166
     860:	83 87       	std	Z+11, r24	; 0x0b
     862:	a6 c7       	rjmp	.+3916   	; 0x17b0 <__stack+0xf51>
     864:	c2 ad       	ldd	r28, Z+58	; 0x3a
     866:	9e 8a       	std	Y+22, r9	; 0x16
     868:	7b 85       	ldd	r23, Y+11	; 0x0b
     86a:	9a 9f       	mul	r25, r26
     86c:	a4 aa       	std	Z+52, r10	; 0x34
     86e:	a4 9b       	sbis	0x14, 4	; 20
     870:	a6 ba       	out	0x16, r10	; 22
     872:	c8 e1       	ldi	r28, 0x18	; 24
     874:	e4 ab       	std	Z+52, r30	; 0x34
     876:	7d 7f       	andi	r23, 0xFD	; 253
     878:	88 91       	.word	0x9188	; ????
     87a:	ae c8       	rjmp	.-3748   	; 0xfffff9d8 <__eeprom_end+0xff7ef9d8>
     87c:	bf a7       	std	Y+47, r27	; 0x2f
     87e:	99 89       	ldd	r25, Y+17	; 0x11
     880:	7c 87       	std	Y+12, r23	; 0x0c
     882:	9b a1       	ldd	r25, Y+35	; 0x23
     884:	a5 aa       	std	Z+53, r10	; 0x35
     886:	a7 a1       	ldd	r26, Z+39	; 0x27
     888:	ac bf       	out	0x3c, r26	; 60
     88a:	d1 e3       	ldi	r29, 0x31	; 49
     88c:	d1 9e       	mul	r13, r17
     88e:	82 85       	ldd	r24, Z+10	; 0x0a
     890:	8c 94 ab bf 	jmp	0x217f56 <_etext+0x210834>
     894:	bb a9       	ldd	r27, Y+51	; 0x33
     896:	9d 92       	st	X+, r9
     898:	85 87       	std	Z+13, r24	; 0x0d
     89a:	97 a1       	ldd	r25, Z+39	; 0x27
     89c:	a5 ac       	ldd	r10, Z+61	; 0x3d
     89e:	ae a9       	ldd	r26, Y+54	; 0x36
     8a0:	ac b4       	in	r10, 0x2c	; 44
     8a2:	c2 ce       	rjmp	.-636    	; 0x628 <__ctors_end+0x5d4>
     8a4:	c4 aa       	std	Z+52, r12	; 0x34
     8a6:	9a 98       	cbi	0x13, 2	; 19
     8a8:	95 93       	.word	0x9395	; ????
     8aa:	9c ab       	std	Y+52, r25	; 0x34
     8ac:	ae ac       	ldd	r10, Y+62	; 0x3e
     8ae:	a8 a1       	ldd	r26, Y+32	; 0x20
     8b0:	99 97       	sbiw	r26, 0x29	; 41
     8b2:	9c a4       	ldd	r9, Y+44	; 0x2c
     8b4:	a6 a5       	ldd	r26, Z+46	; 0x2e
     8b6:	a5 a5       	ldd	r26, Z+45	; 0x2d
     8b8:	a6 a9       	ldd	r26, Z+54	; 0x36
     8ba:	ac b0       	in	r10, 0x0c	; 12
     8bc:	b2 b1       	in	r27, 0x02	; 2
     8be:	ab a9       	ldd	r26, Y+51	; 0x33
     8c0:	a9 a6       	std	Y+41, r10	; 0x29
     8c2:	a4 a4       	ldd	r10, Z+44	; 0x2c
     8c4:	a1 a1       	ldd	r26, Z+33	; 0x21
     8c6:	9f 9f       	mul	r25, r31
     8c8:	9f a0       	ldd	r9, Y+39	; 0x27
     8ca:	a1 a0       	ldd	r10, Z+33	; 0x21
     8cc:	a1 a3       	std	Z+33, r26	; 0x21
     8ce:	a3 a4       	ldd	r10, Z+43	; 0x2b
     8d0:	a6 a6       	std	Z+46, r10	; 0x2e
     8d2:	a8 aa       	std	Y+48, r10	; 0x30
     8d4:	ab ae       	std	Y+59, r10	; 0x3b
     8d6:	af af       	std	Y+63, r26	; 0x3f
     8d8:	af ae       	std	Y+63, r10	; 0x3f
     8da:	ac a8       	ldd	r10, Y+52	; 0x34
     8dc:	a5 a3       	std	Z+37, r26	; 0x25
     8de:	a0 a0       	ldd	r10, Z+32	; 0x20
     8e0:	a0 a0       	ldd	r10, Z+32	; 0x20
     8e2:	a0 9f       	mul	r26, r16
     8e4:	a1 a4       	ldd	r10, Z+41	; 0x29
     8e6:	a6 a7       	std	Z+46, r26	; 0x2e
     8e8:	a7 a7       	std	Z+47, r26	; 0x2f
     8ea:	a6 a6       	std	Z+46, r10	; 0x2e
     8ec:	a6 a9       	ldd	r26, Z+54	; 0x36
     8ee:	ac ae       	std	Y+60, r10	; 0x3c
     8f0:	af ae       	std	Y+63, r10	; 0x3f
     8f2:	ac aa       	std	Y+52, r10	; 0x34
     8f4:	a8 a7       	std	Y+40, r26	; 0x28
     8f6:	a6 a4       	ldd	r10, Z+46	; 0x2e
     8f8:	a1 a0       	ldd	r10, Z+33	; 0x21
     8fa:	9e 9e       	mul	r9, r30
     8fc:	9f a1       	ldd	r25, Y+39	; 0x27
     8fe:	a3 a4       	ldd	r10, Z+43	; 0x2b
     900:	a5 a5       	ldd	r26, Z+45	; 0x2d
     902:	a3 a3       	std	Z+35, r26	; 0x23
     904:	a4 a3       	std	Z+36, r26	; 0x24
     906:	a6 a8       	ldd	r10, Z+54	; 0x36
     908:	a9 ab       	std	Y+49, r26	; 0x31
     90a:	ab ab       	std	Y+51, r26	; 0x33
     90c:	ab ac       	ldd	r10, Y+59	; 0x3b
     90e:	ab a8       	ldd	r10, Y+51	; 0x33
     910:	a6 a4       	ldd	r10, Z+46	; 0x2e
     912:	a0 9e       	mul	r10, r16
     914:	9e 9e       	mul	r9, r30
     916:	9e 9e       	mul	r9, r30
     918:	a0 a0       	ldd	r10, Z+32	; 0x20
     91a:	a1 a3       	std	Z+33, r26	; 0x21
     91c:	a4 a5       	ldd	r26, Z+44	; 0x2c
     91e:	a5 a6       	std	Z+45, r10	; 0x2d
     920:	a6 a6       	std	Z+46, r10	; 0x2e
     922:	a6 a7       	std	Z+46, r26	; 0x2e
     924:	aa ac       	ldd	r10, Y+58	; 0x3a
     926:	ad ad       	ldd	r26, Y+61	; 0x3d
     928:	ac aa       	std	Y+52, r10	; 0x34
     92a:	a7 a4       	ldd	r10, Z+47	; 0x2f
     92c:	a3 a1       	ldd	r26, Z+35	; 0x23
     92e:	9f 9f       	mul	r25, r31
     930:	9e 9d       	mul	r25, r14
     932:	9d 9f       	mul	r25, r29
     934:	a0 a1       	ldd	r26, Z+32	; 0x20
     936:	a4 a5       	ldd	r26, Z+44	; 0x2c
     938:	a4 a5       	ldd	r26, Z+44	; 0x2c
     93a:	a6 a6       	std	Z+46, r10	; 0x2e
     93c:	a6 a7       	std	Z+46, r26	; 0x2e
     93e:	aa ac       	ldd	r10, Y+58	; 0x3a
     940:	ad ad       	ldd	r26, Y+61	; 0x3d
     942:	ac a9       	ldd	r26, Y+52	; 0x34
     944:	a8 a6       	std	Y+40, r10	; 0x28
     946:	a4 a1       	ldd	r26, Z+36	; 0x24
     948:	9f 9e       	mul	r9, r31
     94a:	9f 9f       	mul	r25, r31
     94c:	a0 a1       	ldd	r26, Z+32	; 0x20
     94e:	a3 a4       	ldd	r10, Z+43	; 0x2b
     950:	a3 a4       	ldd	r10, Z+43	; 0x2b
     952:	a4 a4       	ldd	r10, Z+44	; 0x2c
     954:	a4 a6       	std	Z+44, r10	; 0x2c
     956:	a7 a9       	ldd	r26, Z+55	; 0x37
     958:	ab ac       	ldd	r10, Y+59	; 0x3b
     95a:	ac ac       	ldd	r10, Y+60	; 0x3c
     95c:	ac ac       	ldd	r10, Y+60	; 0x3c
     95e:	aa a8       	ldd	r10, Y+50	; 0x32
     960:	a6 a4       	ldd	r10, Z+46	; 0x2e
     962:	a3 a1       	ldd	r26, Z+35	; 0x23
     964:	a0 a0       	ldd	r10, Z+32	; 0x20
     966:	a0 a1       	ldd	r26, Z+32	; 0x20
     968:	a1 a1       	ldd	r26, Z+33	; 0x21
     96a:	a3 a3       	std	Z+35, r26	; 0x23
     96c:	a4 a6       	std	Z+44, r10	; 0x2c
     96e:	a6 a7       	std	Z+46, r26	; 0x2e
     970:	a8 a9       	ldd	r26, Y+48	; 0x30
     972:	a9 aa       	std	Y+49, r10	; 0x31
     974:	ac ad       	ldd	r26, Y+60	; 0x3c
     976:	ad ad       	ldd	r26, Y+61	; 0x3d
     978:	ab a8       	ldd	r10, Y+51	; 0x33
     97a:	a7 a6       	std	Z+47, r10	; 0x2f
     97c:	a5 a3       	std	Z+37, r26	; 0x25
     97e:	a3 a1       	ldd	r26, Z+35	; 0x23
     980:	a0 9f       	mul	r26, r16
     982:	9f a0       	ldd	r9, Y+39	; 0x27
     984:	a1 a4       	ldd	r10, Z+41	; 0x29
     986:	a6 a6       	std	Z+46, r10	; 0x2e
     988:	a5 a5       	ldd	r26, Z+45	; 0x2d
     98a:	a6 a7       	std	Z+46, r26	; 0x2e
     98c:	a8 aa       	std	Y+48, r10	; 0x30
     98e:	ab ac       	ldd	r10, Y+59	; 0x3b
     990:	ac ad       	ldd	r26, Y+60	; 0x3c
     992:	ad ab       	std	Y+53, r26	; 0x35
     994:	a8 a7       	std	Y+40, r26	; 0x28
     996:	a6 a4       	ldd	r10, Z+46	; 0x2e
     998:	a1 a1       	ldd	r26, Z+33	; 0x21
     99a:	a0 a0       	ldd	r10, Z+32	; 0x20
     99c:	a0 a1       	ldd	r26, Z+32	; 0x20
     99e:	a3 a4       	ldd	r10, Z+43	; 0x2b
     9a0:	a4 a5       	ldd	r26, Z+44	; 0x2c
     9a2:	a5 a5       	ldd	r26, Z+45	; 0x2d
     9a4:	a6 a7       	std	Z+46, r26	; 0x2e
     9a6:	aa a4       	ldd	r10, Y+42	; 0x2a
     9a8:	ab b2       	in	r10, 0x1b	; 27
     9aa:	b1 b2       	in	r11, 0x11	; 17
     9ac:	b2 ac       	ldd	r11, Z+58	; 0x3a
     9ae:	a0 9a       	sbi	0x14, 0	; 20
     9b0:	97 98       	cbi	0x12, 7	; 18
     9b2:	a0 a7       	std	Z+40, r26	; 0x28
     9b4:	a4 a1       	ldd	r26, Z+36	; 0x24
     9b6:	9c 9d       	mul	r25, r12
     9b8:	9b 98       	cbi	0x13, 3	; 19
     9ba:	9b 99       	sbic	0x13, 3	; 19
     9bc:	97 9e       	mul	r9, r23
     9be:	a4 a8       	ldd	r10, Z+52	; 0x34
     9c0:	b1 be       	out	0x31, r11	; 49
     9c2:	cd df       	rcall	.-102    	; 0x95e <__stack+0xff>
     9c4:	c1 91       	ld	r28, Z+
     9c6:	8a 8a       	std	Y+18, r8	; 0x12
     9c8:	88 aa       	std	Y+48, r8	; 0x30
     9ca:	c7 be       	out	0x37, r12	; 55
     9cc:	b0 a7       	std	Z+40, r27	; 0x28
     9ce:	90 84       	ldd	r9, Z+8	; 0x08
     9d0:	95 a0       	ldd	r9, Z+37	; 0x25
     9d2:	a4 a8       	ldd	r10, Z+52	; 0x34
     9d4:	a3 96       	adiw	r28, 0x23	; 35
     9d6:	97 a4       	ldd	r9, Z+47	; 0x2f
     9d8:	b2 c5       	rjmp	.+2916   	; 0x153e <__stack+0xcdf>
     9da:	d8 ea       	ldi	r29, 0xA8	; 168
     9dc:	f2 98       	cbi	0x1e, 2	; 30
     9de:	5d 82       	std	Y+5, r5	; 0x05
     9e0:	97 b3       	in	r25, 0x17	; 23
     9e2:	e1 c9       	rjmp	.-3134   	; 0xfffffda6 <__eeprom_end+0xff7efda6>
     9e4:	95 84       	ldd	r9, Z+13	; 0x0d
     9e6:	7d 84       	ldd	r7, Y+13	; 0x0d
     9e8:	ab b8       	out	0x0b, r10	; 11
     9ea:	a5 96       	adiw	r28, 0x25	; 37
     9ec:	8a 86       	std	Y+10, r8	; 0x0a
     9ee:	9b ad       	ldd	r25, Y+59	; 0x3b
     9f0:	bb c8       	rjmp	.-3722   	; 0xfffffb68 <__eeprom_end+0xff7efb68>
     9f2:	cc ce       	rjmp	.-616    	; 0x78c <__ctors_end+0x738>
     9f4:	e0 ad       	ldd	r30, Z+56	; 0x38
     9f6:	64 86       	std	Z+12, r6	; 0x0c
     9f8:	a7 b0       	in	r10, 0x07	; 7
     9fa:	d2 b8       	out	0x02, r13	; 2
     9fc:	86 86       	std	Z+14, r8	; 0x0e
     9fe:	8d 94 b1 ae 	jmp	0x235d62 <_etext+0x22e640>
     a02:	92 8e       	std	Z+26, r9	; 0x1a
     a04:	88 92       	.word	0x9288	; ????
     a06:	ac af       	std	Y+60, r26	; 0x3c
     a08:	b7 c6       	rjmp	.+3438   	; 0x1778 <__stack+0xf19>
     a0a:	c6 d6       	rcall	.+3468   	; 0x1798 <__stack+0xf39>
     a0c:	e1 8e       	std	Z+25, r14	; 0x19
     a0e:	65 9a       	sbi	0x0c, 5	; 12
     a10:	a7 c1       	rjmp	.+846    	; 0xd60 <__stack+0x501>
     a12:	d2 9a       	sbi	0x1a, 2	; 26
     a14:	81 8e       	std	Z+25, r8	; 0x19
     a16:	8e a3       	std	Y+38, r24	; 0x26
     a18:	b4 9d       	mul	r27, r4
     a1a:	8c 87       	std	Y+12, r24	; 0x0c
     a1c:	8f a3       	std	Y+39, r24	; 0x27
     a1e:	ac b0       	in	r10, 0x0c	; 12
     a20:	bc c6       	rjmp	.+3448   	; 0x179a <__stack+0xf3b>
     a22:	cb e1       	ldi	r28, 0x1B	; 27
     a24:	c0 62       	ori	r28, 0x20	; 32
     a26:	7f a7       	std	Y+47, r23	; 0x2f
     a28:	b3 d5       	rcall	.+2918   	; 0x1590 <__stack+0xd31>
     a2a:	ae 81       	ldd	r26, Y+6	; 0x06
     a2c:	8d 89       	ldd	r24, Y+21	; 0x15
     a2e:	98 bd       	out	0x28, r25	; 40
     a30:	9e 8f       	std	Y+30, r25	; 0x1e
     a32:	87 86       	std	Z+15, r8	; 0x0f
     a34:	a5 a7       	std	Z+45, r26	; 0x2d
     a36:	a6 b7       	in	r26, 0x36	; 54
     a38:	be c9       	rjmp	.-3204   	; 0xfffffdb6 <__eeprom_end+0xff7efdb6>
     a3a:	dc dd       	rcall	.-1096   	; 0x5f4 <__ctors_end+0x5a0>
     a3c:	7b 69       	ori	r23, 0x9B	; 155
     a3e:	a0 aa       	std	Z+48, r10	; 0x30
     a40:	d4 be       	out	0x34, r13	; 52
     a42:	85 88       	ldd	r8, Z+21	; 0x15
     a44:	89 91       	ld	r24, Y+
     a46:	b7 a8       	ldd	r11, Z+55	; 0x37
     a48:	94 8f       	std	Z+28, r25	; 0x1c
     a4a:	82 a0       	ldd	r8, Z+34	; 0x22
     a4c:	a9 a7       	std	Y+41, r26	; 0x29
     a4e:	b6 bb       	out	0x16, r27	; 22
     a50:	c9 d7       	rcall	.+3986   	; 0x19e4 <__stack+0x1185>
     a52:	e2 99       	sbic	0x1c, 2	; 28
     a54:	64 98       	cbi	0x0c, 4	; 12
     a56:	a9 ce       	rjmp	.-686    	; 0x7aa <__ctors_end+0x756>
     a58:	cb 90       	.word	0x90cb	; ????
     a5a:	8c 89       	ldd	r24, Y+20	; 0x14
     a5c:	92 b0       	in	r9, 0x02	; 2
     a5e:	ae 9a       	sbi	0x15, 6	; 21
     a60:	8c 8c       	ldd	r8, Y+28	; 0x1c
     a62:	9b a7       	std	Y+43, r25	; 0x2b
     a64:	ab b1       	in	r26, 0x0b	; 11
     a66:	bf ca       	rjmp	.-2690   	; 0xffffffe6 <__eeprom_end+0xff7effe6>
     a68:	ce e6       	ldi	r28, 0x6E	; 110
     a6a:	aa 61       	ori	r26, 0x1A	; 26
     a6c:	95 9d       	mul	r25, r5
     a6e:	ca d1       	rcall	.+916    	; 0xe04 <__stack+0x5a5>
     a70:	95 93       	.word	0x9395	; ????
     a72:	88 8c       	ldd	r8, Y+24	; 0x18
     a74:	af ae       	std	Y+63, r10	; 0x3f
     a76:	a0 8e       	std	Z+24, r10	; 0x18
     a78:	86 9c       	mul	r8, r6
     a7a:	a1 aa       	std	Z+49, r10	; 0x31
     a7c:	b1 ba       	out	0x11, r11	; 17
     a7e:	c8 cb       	rjmp	.-2160   	; 0x210 <__ctors_end+0x1bc>
     a80:	e1 b5       	in	r30, 0x21	; 33
     a82:	6a 8e       	std	Y+26, r6	; 0x1a
     a84:	94 c1       	rjmp	.+808    	; 0xdae <__stack+0x54f>
     a86:	cd 9a       	sbi	0x19, 5	; 25
     a88:	95 81       	ldd	r25, Z+5	; 0x05
     a8a:	85 a7       	std	Z+45, r24	; 0x2d
     a8c:	ab a3       	std	Y+35, r26	; 0x23
     a8e:	91 87       	std	Z+9, r25	; 0x09
     a90:	99 a0       	ldd	r9, Y+33	; 0x21
     a92:	a7 b1       	in	r26, 0x07	; 7
     a94:	bd c8       	rjmp	.-3718   	; 0xfffffc10 <__eeprom_end+0xff7efc10>
     a96:	cf e1       	ldi	r28, 0x1F	; 31
     a98:	aa 74       	andi	r26, 0x4A	; 74
     a9a:	90 92 c7 c3 	sts	0xC3C7, r9
     a9e:	a0 9a       	sbi	0x14, 0	; 20
     aa0:	7c 87       	std	Y+12, r23	; 0x0c
     aa2:	aa a9       	ldd	r26, Y+50	; 0x32
     aa4:	ab 89       	ldd	r26, Y+19	; 0x13
     aa6:	8f 97       	sbiw	r24, 0x2f	; 47
     aa8:	9e af       	std	Y+62, r25	; 0x3e
     aaa:	af c3       	rjmp	.+1886   	; 0x120a <__stack+0x9ab>
     aac:	c6 d5       	rcall	.+2956   	; 0x163a <__stack+0xddb>
     aae:	db a3       	std	Y+35, r29	; 0x23
     ab0:	7f 8c       	ldd	r7, Y+31	; 0x1f
     ab2:	94 c5       	rjmp	.+2856   	; 0x15dc <__stack+0xd7d>
     ab4:	bf ac       	ldd	r11, Y+63	; 0x3f
     ab6:	9c 7d       	andi	r25, 0xDC	; 220
     ab8:	8d 9c       	mul	r8, r13
     aba:	aa a3       	std	Y+34, r26	; 0x22
     abc:	97 93       	.word	0x9397	; ????
     abe:	97 9e       	mul	r9, r23
     ac0:	a7 b6       	in	r10, 0x37	; 55
     ac2:	c0 ce       	rjmp	.-640    	; 0x844 <__ctors_end+0x7f0>
     ac4:	dc cf       	rjmp	.-72     	; 0xa7e <__stack+0x21f>
     ac6:	98 83       	st	Y, r25
     ac8:	84 96       	adiw	r24, 0x24	; 36
     aca:	bd b6       	in	r11, 0x3d	; 61
     acc:	b2 99       	sbic	0x16, 2	; 22
     ace:	7f 91       	pop	r23
     ad0:	8f a6       	std	Y+47, r8	; 0x2f
     ad2:	9f 9d       	mul	r25, r15
     ad4:	9e 98       	cbi	0x13, 6	; 19
     ad6:	9f a1       	ldd	r25, Y+39	; 0x27
     ad8:	b2 bd       	out	0x22, r27	; 34
     ada:	cf dc       	rcall	.-1634   	; 0x47a <__ctors_end+0x426>
     adc:	ca 9f       	mul	r28, r26
     ade:	88 81       	ld	r24, Y
     ae0:	93 ad       	ldd	r25, Z+59	; 0x3b
     ae2:	b2 b7       	in	r27, 0x32	; 50
     ae4:	9b 92       	.word	0x929b	; ????
     ae6:	90 89       	ldd	r25, Z+16	; 0x10
     ae8:	9b 92       	.word	0x929b	; ????
     aea:	a5 9f       	mul	r26, r21
     aec:	a6 a6       	std	Z+46, r10	; 0x2e
     aee:	a7 ab       	std	Z+55, r26	; 0x37
     af0:	b5 c9       	rjmp	.-3222   	; 0xfffffe5c <__eeprom_end+0xff7efe5c>
     af2:	cf c9       	rjmp	.-3170   	; 0xfffffe92 <__eeprom_end+0xff7efe92>
     af4:	ad 95 8c 8c 	jmp	0x6b1918 <_etext+0x6aa1f6>
     af8:	9d a1       	ldd	r25, Y+37	; 0x25
     afa:	ae a0       	ldd	r10, Y+38	; 0x26
     afc:	a6 9b       	sbis	0x14, 6	; 20
     afe:	94 95       	.word	0x9594	; ????
     b00:	90 9f       	mul	r25, r16
     b02:	a4 ae       	std	Z+60, r10	; 0x3c
     b04:	ae af       	std	Y+62, r26	; 0x3e
     b06:	a9 ad       	ldd	r26, Y+57	; 0x39
     b08:	b4 bc       	out	0x24, r11	; 36
     b0a:	be b7       	in	r27, 0x3e	; 62
     b0c:	aa a3       	std	Y+34, r26	; 0x22
     b0e:	9a 9a       	sbi	0x13, 2	; 19
     b10:	99 9b       	sbis	0x13, 1	; 19
     b12:	9d a4       	ldd	r9, Y+45	; 0x2d
     b14:	a5 a3       	std	Z+37, r26	; 0x25
     b16:	9e 9b       	sbis	0x13, 6	; 19
     b18:	9f a0       	ldd	r9, Y+39	; 0x27
     b1a:	a9 a8       	ldd	r10, Y+49	; 0x31
     b1c:	aa a6       	std	Y+42, r10	; 0x2a
     b1e:	aa a9       	ldd	r26, Y+50	; 0x32
     b20:	ae aa       	std	Y+54, r10	; 0x36
     b22:	ae a9       	ldd	r26, Y+54	; 0x36
     b24:	a9 a9       	ldd	r26, Y+49	; 0x31
     b26:	a7 a7       	std	Z+47, r26	; 0x2f
     b28:	a4 a5       	ldd	r26, Z+44	; 0x2c
     b2a:	a6 a6       	std	Z+46, r10	; 0x2e
     b2c:	a4 a1       	ldd	r26, Z+36	; 0x24
     b2e:	9e a0       	ldd	r9, Y+38	; 0x26
     b30:	a1 a5       	ldd	r26, Z+41	; 0x29
     b32:	a5 a4       	ldd	r10, Z+45	; 0x2d
     b34:	a4 a5       	ldd	r26, Z+44	; 0x2c
     b36:	a7 a8       	ldd	r10, Z+55	; 0x37
     b38:	a9 a8       	ldd	r10, Y+49	; 0x31
     b3a:	a7 a8       	ldd	r10, Z+55	; 0x37
     b3c:	a8 a8       	ldd	r10, Y+48	; 0x30
     b3e:	a8 a6       	std	Y+40, r10	; 0x28
     b40:	a6 a8       	ldd	r10, Z+54	; 0x36
     b42:	a8 a6       	std	Y+40, r10	; 0x28
     b44:	a5 a4       	ldd	r10, Z+45	; 0x2d
     b46:	a4 a5       	ldd	r26, Z+44	; 0x2c
     b48:	a6 a5       	ldd	r26, Z+46	; 0x2e
     b4a:	a4 a4       	ldd	r10, Z+44	; 0x2c
     b4c:	a3 a6       	std	Z+43, r10	; 0x2b
     b4e:	a7 a7       	std	Z+47, r26	; 0x2f
     b50:	a7 a6       	std	Z+47, r10	; 0x2f
     b52:	a5 a5       	ldd	r26, Z+45	; 0x2d
     b54:	a5 a5       	ldd	r26, Z+45	; 0x2d
     b56:	a5 a5       	ldd	r26, Z+45	; 0x2d
     b58:	a5 a6       	std	Z+45, r10	; 0x2d
     b5a:	a5 a4       	ldd	r10, Z+45	; 0x2d
     b5c:	a4 a4       	ldd	r10, Z+44	; 0x2c
     b5e:	a4 a5       	ldd	r26, Z+44	; 0x2c
     b60:	a4 a3       	std	Z+36, r26	; 0x24
     b62:	a3 a3       	std	Z+35, r26	; 0x23
     b64:	a5 a7       	std	Z+45, r26	; 0x2d
     b66:	a7 a6       	std	Z+47, r10	; 0x2f
     b68:	a5 a4       	ldd	r10, Z+45	; 0x2d
     b6a:	a4 a5       	ldd	r26, Z+44	; 0x2c
     b6c:	a4 a3       	std	Z+36, r26	; 0x24
     b6e:	a4 a5       	ldd	r26, Z+44	; 0x2c
     b70:	a6 a5       	ldd	r26, Z+46	; 0x2e
     b72:	a4 a4       	ldd	r10, Z+44	; 0x2c
     b74:	a4 a5       	ldd	r26, Z+44	; 0x2c
     b76:	a7 a6       	std	Z+47, r10	; 0x2f
     b78:	a5 a4       	ldd	r10, Z+45	; 0x2d
     b7a:	a3 a3       	std	Z+35, r26	; 0x23
     b7c:	a5 a6       	std	Z+45, r10	; 0x2d
     b7e:	a6 a6       	std	Z+46, r10	; 0x2e
     b80:	a5 a6       	std	Z+45, r10	; 0x2d
     b82:	a5 a5       	ldd	r26, Z+45	; 0x2d
     b84:	a5 a5       	ldd	r26, Z+45	; 0x2d
     b86:	a5 a5       	ldd	r26, Z+45	; 0x2d
     b88:	a5 a4       	ldd	r10, Z+45	; 0x2d
     b8a:	a4 a4       	ldd	r10, Z+44	; 0x2c
     b8c:	a4 a5       	ldd	r26, Z+44	; 0x2c
     b8e:	a5 a5       	ldd	r26, Z+45	; 0x2d
     b90:	a5 a5       	ldd	r26, Z+45	; 0x2d
     b92:	a5 a5       	ldd	r26, Z+45	; 0x2d
     b94:	a6 a7       	std	Z+46, r26	; 0x2e
     b96:	a5 a4       	ldd	r10, Z+45	; 0x2d
     b98:	a5 a5       	ldd	r26, Z+45	; 0x2d
     b9a:	a4 a4       	ldd	r10, Z+44	; 0x2c
     b9c:	a3 a3       	std	Z+35, r26	; 0x23
     b9e:	a4 a5       	ldd	r26, Z+44	; 0x2c
     ba0:	a5 a5       	ldd	r26, Z+45	; 0x2d
     ba2:	a3 a3       	std	Z+35, r26	; 0x23
     ba4:	a4 a4       	ldd	r10, Z+44	; 0x2c
     ba6:	a4 a4       	ldd	r10, Z+44	; 0x2c
     ba8:	a5 a4       	ldd	r10, Z+45	; 0x2d
     baa:	a4 a5       	ldd	r26, Z+44	; 0x2c
     bac:	a5 a4       	ldd	r10, Z+45	; 0x2d
     bae:	a4 a4       	ldd	r10, Z+44	; 0x2c
     bb0:	a4 a4       	ldd	r10, Z+44	; 0x2c
     bb2:	a3 a3       	std	Z+35, r26	; 0x23
     bb4:	a3 a3       	std	Z+35, r26	; 0x23
     bb6:	a5 a5       	ldd	r26, Z+45	; 0x2d
     bb8:	a6 a6       	std	Z+46, r10	; 0x2e
     bba:	a5 a5       	ldd	r26, Z+45	; 0x2d
     bbc:	a5 a5       	ldd	r26, Z+45	; 0x2d
     bbe:	a7 a7       	std	Z+47, r26	; 0x2f
     bc0:	a6 a6       	std	Z+46, r10	; 0x2e
     bc2:	a6 a7       	std	Z+46, r26	; 0x2e
     bc4:	a6 a6       	std	Z+46, r10	; 0x2e
     bc6:	a6 a6       	std	Z+46, r10	; 0x2e
     bc8:	a6 a5       	ldd	r26, Z+46	; 0x2e
     bca:	a5 a6       	std	Z+45, r10	; 0x2d
     bcc:	a6 a6       	std	Z+46, r10	; 0x2e
     bce:	a7 a8       	ldd	r10, Z+55	; 0x37
     bd0:	a7 a7       	std	Z+47, r26	; 0x2f
     bd2:	a7 a7       	std	Z+47, r26	; 0x2f
     bd4:	a8 a9       	ldd	r26, Y+48	; 0x30
     bd6:	a9 aa       	std	Y+49, r10	; 0x31
     bd8:	a9 a9       	ldd	r26, Y+49	; 0x31
     bda:	a8 a7       	std	Y+40, r26	; 0x28
     bdc:	a7 a7       	std	Z+47, r26	; 0x2f
     bde:	a8 a7       	std	Y+40, r26	; 0x28
     be0:	a7 a7       	std	Z+47, r26	; 0x2f
     be2:	a7 a7       	std	Z+47, r26	; 0x2f
     be4:	a7 a8       	ldd	r10, Z+55	; 0x37
     be6:	a8 a9       	ldd	r26, Y+48	; 0x30
     be8:	a8 a8       	ldd	r10, Y+48	; 0x30
     bea:	a7 a7       	std	Z+47, r26	; 0x2f
     bec:	a8 a9       	ldd	r26, Y+48	; 0x30
     bee:	a9 a8       	ldd	r10, Y+49	; 0x31
     bf0:	a8 a7       	std	Y+40, r26	; 0x28
     bf2:	a7 a6       	std	Z+47, r10	; 0x2f
     bf4:	a6 a7       	std	Z+46, r26	; 0x2e
     bf6:	a7 a7       	std	Z+47, r26	; 0x2f
     bf8:	a8 a7       	std	Y+40, r26	; 0x28
     bfa:	a6 a6       	std	Z+46, r10	; 0x2e
     bfc:	a7 a8       	ldd	r10, Z+55	; 0x37
     bfe:	a9 a9       	ldd	r26, Y+49	; 0x31
     c00:	a8 a7       	std	Y+40, r26	; 0x28
     c02:	a7 a6       	std	Z+47, r10	; 0x2f
     c04:	a7 a8       	ldd	r10, Z+55	; 0x37
     c06:	a8 a8       	ldd	r10, Y+48	; 0x30
     c08:	a8 a7       	std	Y+40, r26	; 0x28
     c0a:	a6 a6       	std	Z+46, r10	; 0x2e
     c0c:	a6 a7       	std	Z+46, r26	; 0x2e
     c0e:	a7 a6       	std	Z+47, r10	; 0x2f
     c10:	a6 a6       	std	Z+46, r10	; 0x2e
     c12:	a6 a7       	std	Z+46, r26	; 0x2e
     c14:	a8 a8       	ldd	r10, Y+48	; 0x30
     c16:	a8 a8       	ldd	r10, Y+48	; 0x30
     c18:	a7 a7       	std	Z+47, r26	; 0x2f
     c1a:	a6 a6       	std	Z+46, r10	; 0x2e
     c1c:	a7 a7       	std	Z+47, r26	; 0x2f
     c1e:	a8 a7       	std	Y+40, r26	; 0x28
     c20:	a6 a5       	ldd	r26, Z+46	; 0x2e
     c22:	a5 a6       	std	Z+45, r10	; 0x2d
     c24:	a7 a7       	std	Z+47, r26	; 0x2f
     c26:	a7 a7       	std	Z+47, r26	; 0x2f
     c28:	a6 a6       	std	Z+46, r10	; 0x2e
     c2a:	a7 a7       	std	Z+47, r26	; 0x2f
     c2c:	a8 a8       	ldd	r10, Y+48	; 0x30
     c2e:	a7 a7       	std	Z+47, r26	; 0x2f
     c30:	a7 a7       	std	Z+47, r26	; 0x2f
     c32:	a7 a7       	std	Z+47, r26	; 0x2f
     c34:	a7 a6       	std	Z+47, r10	; 0x2f
     c36:	a7 a7       	std	Z+47, r26	; 0x2f
     c38:	a7 a7       	std	Z+47, r26	; 0x2f
     c3a:	a7 a6       	std	Z+47, r10	; 0x2f
     c3c:	a6 a6       	std	Z+46, r10	; 0x2e
     c3e:	a6 a7       	std	Z+46, r26	; 0x2e
     c40:	a6 a6       	std	Z+46, r10	; 0x2e
     c42:	a7 a8       	ldd	r10, Z+55	; 0x37
     c44:	a8 a8       	ldd	r10, Y+48	; 0x30
     c46:	a8 a7       	std	Y+40, r26	; 0x28
     c48:	a7 a7       	std	Z+47, r26	; 0x2f
     c4a:	a6 a7       	std	Z+46, r26	; 0x2e
     c4c:	a7 a7       	std	Z+47, r26	; 0x2f
     c4e:	a7 a6       	std	Z+47, r10	; 0x2f
     c50:	a6 a5       	ldd	r26, Z+46	; 0x2e
     c52:	a5 a5       	ldd	r26, Z+45	; 0x2d
     c54:	a6 a6       	std	Z+46, r10	; 0x2e
     c56:	a6 a7       	std	Z+46, r26	; 0x2e
     c58:	a7 a7       	std	Z+47, r26	; 0x2f
     c5a:	a6 a7       	std	Z+46, r26	; 0x2e
     c5c:	a7 a7       	std	Z+47, r26	; 0x2f
     c5e:	a7 a6       	std	Z+47, r10	; 0x2f
     c60:	a6 a6       	std	Z+46, r10	; 0x2e
     c62:	a6 a6       	std	Z+46, r10	; 0x2e
     c64:	a6 a6       	std	Z+46, r10	; 0x2e
     c66:	a7 a7       	std	Z+47, r26	; 0x2f
     c68:	a7 a5       	ldd	r26, Z+47	; 0x2f
     c6a:	a6 a6       	std	Z+46, r10	; 0x2e
     c6c:	a7 a7       	std	Z+47, r26	; 0x2f
     c6e:	a6 a6       	std	Z+46, r10	; 0x2e
     c70:	a6 a7       	std	Z+46, r26	; 0x2e
     c72:	a6 a6       	std	Z+46, r10	; 0x2e
     c74:	a7 a7       	std	Z+47, r26	; 0x2f
     c76:	a6 a6       	std	Z+46, r10	; 0x2e
     c78:	a5 a5       	ldd	r26, Z+45	; 0x2d
     c7a:	a5 a6       	std	Z+45, r10	; 0x2d
     c7c:	a7 a6       	std	Z+47, r10	; 0x2f
     c7e:	a6 a5       	ldd	r26, Z+46	; 0x2e
     c80:	a5 a5       	ldd	r26, Z+45	; 0x2d
     c82:	a5 a5       	ldd	r26, Z+45	; 0x2d
     c84:	a5 a5       	ldd	r26, Z+45	; 0x2d
     c86:	a6 a6       	std	Z+46, r10	; 0x2e
     c88:	a6 a6       	std	Z+46, r10	; 0x2e
     c8a:	a6 a6       	std	Z+46, r10	; 0x2e
     c8c:	a6 a6       	std	Z+46, r10	; 0x2e
     c8e:	a6 a6       	std	Z+46, r10	; 0x2e
     c90:	a6 a5       	ldd	r26, Z+46	; 0x2e
     c92:	a5 a6       	std	Z+45, r10	; 0x2d
     c94:	a5 a5       	ldd	r26, Z+45	; 0x2d
     c96:	a5 a5       	ldd	r26, Z+45	; 0x2d
     c98:	a5 a6       	std	Z+45, r10	; 0x2d
     c9a:	a5 a5       	ldd	r26, Z+45	; 0x2d
     c9c:	a6 a6       	std	Z+46, r10	; 0x2e
     c9e:	a5 a6       	std	Z+45, r10	; 0x2d
     ca0:	a6 a6       	std	Z+46, r10	; 0x2e
     ca2:	a6 a6       	std	Z+46, r10	; 0x2e
     ca4:	a6 a7       	std	Z+46, r26	; 0x2e
     ca6:	a6 a7       	std	Z+46, r26	; 0x2e
     ca8:	a6 a6       	std	Z+46, r10	; 0x2e
     caa:	a7 a6       	std	Z+47, r10	; 0x2f
     cac:	a7 a7       	std	Z+47, r26	; 0x2f
     cae:	a7 a7       	std	Z+47, r26	; 0x2f
     cb0:	a6 a6       	std	Z+46, r10	; 0x2e
     cb2:	a6 a6       	std	Z+46, r10	; 0x2e
     cb4:	a6 a7       	std	Z+46, r26	; 0x2e
     cb6:	a6 a6       	std	Z+46, r10	; 0x2e
     cb8:	a7 a6       	std	Z+47, r10	; 0x2f
     cba:	a7 a3       	std	Z+39, r26	; 0x27
     cbc:	a4 a4       	ldd	r10, Z+44	; 0x2c
     cbe:	a3 a4       	ldd	r10, Z+43	; 0x2b
     cc0:	9f 9f       	mul	r25, r31
     cc2:	a3 a0       	ldd	r10, Z+35	; 0x23
     cc4:	a1 9e       	mul	r10, r17
     cc6:	9a 9e       	mul	r9, r26
     cc8:	a1 a3       	std	Z+33, r26	; 0x21
     cca:	a6 a4       	ldd	r10, Z+46	; 0x2e
     ccc:	a3 a0       	ldd	r10, Z+35	; 0x23
     cce:	a1 9f       	mul	r26, r17
     cd0:	a1 a3       	std	Z+33, r26	; 0x21
     cd2:	a3 a3       	std	Z+35, r26	; 0x23
     cd4:	a4 a4       	ldd	r10, Z+44	; 0x2c
     cd6:	a4 a3       	std	Z+36, r26	; 0x24
     cd8:	a5 a5       	ldd	r26, Z+45	; 0x2d
     cda:	a5 a7       	std	Z+45, r26	; 0x2d
     cdc:	a7 a7       	std	Z+47, r26	; 0x2f
     cde:	a6 a8       	ldd	r10, Z+54	; 0x36
     ce0:	a7 a7       	std	Z+47, r26	; 0x2f
     ce2:	a5 a4       	ldd	r10, Z+45	; 0x2d
     ce4:	a3 a4       	ldd	r10, Z+43	; 0x2b
     ce6:	a5 a5       	ldd	r26, Z+45	; 0x2d
     ce8:	a5 a5       	ldd	r26, Z+45	; 0x2d
     cea:	a6 a8       	ldd	r10, Z+54	; 0x36
     cec:	a9 aa       	std	Y+49, r10	; 0x31
     cee:	ac ad       	ldd	r26, Y+60	; 0x3c
     cf0:	ae b1       	in	r26, 0x0e	; 14
     cf2:	b2 b4       	in	r11, 0x22	; 34
     cf4:	b4 b2       	in	r11, 0x14	; 20
     cf6:	af aa       	std	Y+55, r10	; 0x37
     cf8:	a5 9d       	mul	r26, r5
     cfa:	99 97       	sbiw	r26, 0x29	; 41
     cfc:	97 99       	sbic	0x12, 7	; 18
     cfe:	9d a1       	ldd	r25, Y+37	; 0x25
     d00:	a4 a6       	std	Z+44, r10	; 0x2c
     d02:	a8 a9       	ldd	r26, Y+48	; 0x30
     d04:	ab ad       	ldd	r26, Y+59	; 0x3b
     d06:	b3 b7       	in	r27, 0x33	; 51
     d08:	c4 c7       	rjmp	.+3976   	; 0x1c92 <wavdata3+0x9c>
     d0a:	c3 be       	out	0x33, r12	; 51
     d0c:	b1 a6       	std	Z+41, r11	; 0x29
     d0e:	9b 93       	.word	0x939b	; ????
     d10:	91 93       	st	Z+, r25
     d12:	99 a0       	ldd	r9, Y+33	; 0x21
     d14:	a8 ad       	ldd	r26, Y+56	; 0x38
     d16:	ae ad       	ldd	r26, Y+62	; 0x3e
     d18:	a8 9f       	mul	r26, r24
     d1a:	99 95       	.word	0x9599	; ????
     d1c:	94 98       	cbi	0x12, 4	; 18
     d1e:	9f a7       	std	Y+47, r25	; 0x2f
     d20:	af b5       	in	r26, 0x2f	; 47
     d22:	ba bf       	out	0x3a, r27	; 58
     d24:	c5 c3       	rjmp	.+1930   	; 0x14b0 <__stack+0xc51>
     d26:	be b3       	in	r27, 0x1e	; 30
     d28:	a9 9d       	mul	r26, r9
     d2a:	96 92       	.word	0x9296	; ????
     d2c:	93 98       	cbi	0x12, 3	; 18
     d2e:	9e a6       	std	Y+46, r9	; 0x2e
     d30:	aa ac       	ldd	r10, Y+58	; 0x3a
     d32:	a8 a4       	ldd	r10, Y+40	; 0x28
     d34:	9d 98       	cbi	0x13, 5	; 19
     d36:	96 96       	adiw	r26, 0x26	; 38
     d38:	98 9d       	mul	r25, r8
     d3a:	a5 ac       	ldd	r10, Z+61	; 0x3d
     d3c:	b3 ba       	out	0x13, r11	; 19
     d3e:	bf c6       	rjmp	.+3454   	; 0x1abe <__stack+0x125f>
     d40:	c3 bf       	out	0x33, r28	; 51
     d42:	b2 a8       	ldd	r11, Z+50	; 0x32
     d44:	9b 93       	.word	0x939b	; ????
     d46:	8e 8f       	std	Y+30, r24	; 0x1e
     d48:	93 9a       	sbi	0x12, 3	; 18
     d4a:	a3 a9       	ldd	r26, Z+51	; 0x33
     d4c:	ac a9       	ldd	r26, Y+52	; 0x34
     d4e:	a5 9c       	mul	r10, r5
     d50:	96 93       	.word	0x9396	; ????
     d52:	93 95       	inc	r25
     d54:	9a a1       	ldd	r25, Y+34	; 0x22
     d56:	a8 af       	std	Y+56, r26	; 0x38
     d58:	b5 ba       	out	0x15, r11	; 21
     d5a:	c3 c2       	rjmp	.+1414   	; 0x12e2 <__stack+0xa83>
     d5c:	bc b7       	in	r27, 0x3c	; 60
     d5e:	a9 a3       	std	Y+33, r26	; 0x21
     d60:	97 93       	.word	0x9397	; ????
     d62:	91 97       	sbiw	r26, 0x21	; 33
     d64:	9b a6       	std	Y+43, r9	; 0x2b
     d66:	aa af       	std	Y+58, r26	; 0x3a
     d68:	ae aa       	std	Y+54, r10	; 0x36
     d6a:	a6 9e       	mul	r10, r22
     d6c:	9b 9b       	sbis	0x13, 3	; 19
     d6e:	9c a0       	ldd	r9, Y+36	; 0x24
     d70:	a6 aa       	std	Z+54, r10	; 0x36
     d72:	b0 b0       	in	r11, 0x00	; 0
     d74:	af ac       	ldd	r10, Y+63	; 0x3f
     d76:	aa ab       	std	Y+50, r26	; 0x32
     d78:	ab ab       	std	Y+51, r26	; 0x33
     d7a:	ab aa       	std	Y+51, r10	; 0x33
     d7c:	a8 a7       	std	Y+40, r26	; 0x28
     d7e:	a5 a4       	ldd	r10, Z+45	; 0x2d
     d80:	a3 a1       	ldd	r26, Z+35	; 0x23
     d82:	a0 a0       	ldd	r10, Z+32	; 0x20
     d84:	a1 a0       	ldd	r10, Z+33	; 0x21
     d86:	a1 a1       	ldd	r26, Z+33	; 0x21
     d88:	a1 a1       	ldd	r26, Z+33	; 0x21
     d8a:	a1 a3       	std	Z+33, r26	; 0x21
     d8c:	a4 a5       	ldd	r26, Z+44	; 0x2c
     d8e:	a5 a5       	ldd	r26, Z+45	; 0x2d
     d90:	a5 a4       	ldd	r10, Z+45	; 0x2d
     d92:	a3 a3       	std	Z+35, r26	; 0x23
     d94:	a3 a3       	std	Z+35, r26	; 0x23
     d96:	a4 a4       	ldd	r10, Z+44	; 0x2c
     d98:	a6 a8       	ldd	r10, Z+54	; 0x36
     d9a:	a9 a9       	ldd	r26, Y+49	; 0x31
     d9c:	a9 a8       	ldd	r10, Y+49	; 0x31
     d9e:	a8 a7       	std	Y+40, r26	; 0x28
     da0:	a5 a3       	std	Z+37, r26	; 0x25
     da2:	a0 9f       	mul	r26, r16
     da4:	9f 9f       	mul	r25, r31
     da6:	a0 a1       	ldd	r26, Z+32	; 0x20
     da8:	a3 a5       	ldd	r26, Z+43	; 0x2b
     daa:	a6 a7       	std	Z+46, r26	; 0x2e
     dac:	a7 a7       	std	Z+47, r26	; 0x2f
     dae:	a6 a5       	ldd	r26, Z+46	; 0x2e
     db0:	a4 a3       	std	Z+36, r26	; 0x24
     db2:	a3 a1       	ldd	r26, Z+35	; 0x23
     db4:	a1 a3       	std	Z+33, r26	; 0x21
     db6:	a4 a5       	ldd	r26, Z+44	; 0x2c
     db8:	a6 a8       	ldd	r10, Z+54	; 0x36
     dba:	a8 a9       	ldd	r26, Y+48	; 0x30
     dbc:	a8 a7       	std	Y+40, r26	; 0x28
     dbe:	a7 a6       	std	Z+47, r10	; 0x2f
     dc0:	a4 a3       	std	Z+36, r26	; 0x24
     dc2:	a1 a1       	ldd	r26, Z+33	; 0x21
     dc4:	a1 a0       	ldd	r10, Z+33	; 0x21
     dc6:	a1 a1       	ldd	r26, Z+33	; 0x21
     dc8:	a3 a3       	std	Z+35, r26	; 0x23
     dca:	a4 a3       	std	Z+36, r26	; 0x24
     dcc:	a3 a1       	ldd	r26, Z+35	; 0x23
     dce:	a1 a1       	ldd	r26, Z+33	; 0x21
     dd0:	a3 a3       	std	Z+35, r26	; 0x23
     dd2:	a4 a5       	ldd	r26, Z+44	; 0x2c
     dd4:	a6 a6       	std	Z+46, r10	; 0x2e
     dd6:	a6 a7       	std	Z+46, r26	; 0x2e
     dd8:	a8 a8       	ldd	r10, Y+48	; 0x30
     dda:	a8 a8       	ldd	r10, Y+48	; 0x30
     ddc:	a8 a8       	ldd	r10, Y+48	; 0x30
     dde:	a9 a8       	ldd	r10, Y+49	; 0x31
     de0:	a8 a7       	std	Y+40, r26	; 0x28
     de2:	a7 a7       	std	Z+47, r26	; 0x2f
     de4:	a8 a8       	ldd	r10, Y+48	; 0x30
     de6:	a7 a7       	std	Z+47, r26	; 0x2f
     de8:	a6 a6       	std	Z+46, r10	; 0x2e
     dea:	a6 a6       	std	Z+46, r10	; 0x2e
     dec:	a5 a5       	ldd	r26, Z+45	; 0x2d
     dee:	a5 a5       	ldd	r26, Z+45	; 0x2d
     df0:	a6 a6       	std	Z+46, r10	; 0x2e
     df2:	a6 a7       	std	Z+46, r26	; 0x2e
     df4:	a7 a6       	std	Z+47, r10	; 0x2f
     df6:	a6 a5       	ldd	r26, Z+46	; 0x2e
     df8:	a4 a4       	ldd	r10, Z+44	; 0x2c
     dfa:	a3 a4       	ldd	r10, Z+43	; 0x2b
     dfc:	a4 a4       	ldd	r10, Z+44	; 0x2c
     dfe:	a5 a4       	ldd	r10, Z+45	; 0x2d
     e00:	a4 a4       	ldd	r10, Z+44	; 0x2c
     e02:	a4 a5       	ldd	r26, Z+44	; 0x2c
     e04:	a4 a4       	ldd	r10, Z+44	; 0x2c
     e06:	a4 a4       	ldd	r10, Z+44	; 0x2c
     e08:	a4 a4       	ldd	r10, Z+44	; 0x2c
     e0a:	a4 a5       	ldd	r26, Z+44	; 0x2c
     e0c:	a6 a7       	std	Z+46, r26	; 0x2e
     e0e:	a7 a8       	ldd	r10, Z+55	; 0x37
     e10:	a8 a8       	ldd	r10, Y+48	; 0x30
     e12:	a7 a7       	std	Z+47, r26	; 0x2f
     e14:	a6 a6       	std	Z+46, r10	; 0x2e
     e16:	a7 a7       	std	Z+47, r26	; 0x2f
     e18:	a8 a8       	ldd	r10, Y+48	; 0x30
     e1a:	a8 a8       	ldd	r10, Y+48	; 0x30
     e1c:	a8 a8       	ldd	r10, Y+48	; 0x30
     e1e:	a8 a7       	std	Y+40, r26	; 0x28
     e20:	a7 a8       	ldd	r10, Z+55	; 0x37
     e22:	a8 a8       	ldd	r10, Y+48	; 0x30
     e24:	a8 a8       	ldd	r10, Y+48	; 0x30
     e26:	a8 a8       	ldd	r10, Y+48	; 0x30
     e28:	a9 a9       	ldd	r26, Y+49	; 0x31
     e2a:	a9 a9       	ldd	r26, Y+49	; 0x31
     e2c:	a8 a8       	ldd	r10, Y+48	; 0x30
     e2e:	a8 a8       	ldd	r10, Y+48	; 0x30
     e30:	a7 a7       	std	Z+47, r26	; 0x2f
     e32:	a7 a8       	ldd	r10, Z+55	; 0x37
     e34:	a8 a8       	ldd	r10, Y+48	; 0x30
     e36:	a8 a8       	ldd	r10, Y+48	; 0x30
     e38:	a8 a8       	ldd	r10, Y+48	; 0x30
     e3a:	a7 a6       	std	Z+47, r10	; 0x2f
     e3c:	a5 a6       	std	Z+45, r10	; 0x2d
     e3e:	a6 a6       	std	Z+46, r10	; 0x2e
     e40:	a7 a8       	ldd	r10, Z+55	; 0x37
     e42:	a8 a8       	ldd	r10, Y+48	; 0x30
     e44:	a8 a8       	ldd	r10, Y+48	; 0x30
     e46:	a7 a7       	std	Z+47, r26	; 0x2f
     e48:	a6 a5       	ldd	r26, Z+46	; 0x2e
     e4a:	a5 a4       	ldd	r10, Z+45	; 0x2d
     e4c:	a5 a5       	ldd	r26, Z+45	; 0x2d
     e4e:	a5 a5       	ldd	r26, Z+45	; 0x2d
     e50:	a6 a7       	std	Z+46, r26	; 0x2e
     e52:	a7 a7       	std	Z+47, r26	; 0x2f
     e54:	a7 a7       	std	Z+47, r26	; 0x2f
     e56:	a6 a6       	std	Z+46, r10	; 0x2e
     e58:	a6 a5       	ldd	r26, Z+46	; 0x2e
     e5a:	a5 a5       	ldd	r26, Z+45	; 0x2d
     e5c:	a5 a5       	ldd	r26, Z+45	; 0x2d
     e5e:	a6 a6       	std	Z+46, r10	; 0x2e
     e60:	a6 a6       	std	Z+46, r10	; 0x2e
     e62:	a6 a6       	std	Z+46, r10	; 0x2e
     e64:	a5 a4       	ldd	r10, Z+45	; 0x2d
     e66:	a4 a4       	ldd	r10, Z+44	; 0x2c
     e68:	a3 a4       	ldd	r10, Z+43	; 0x2b
     e6a:	a5 a6       	std	Z+45, r10	; 0x2d
     e6c:	a7 a7       	std	Z+47, r26	; 0x2f
     e6e:	a7 a6       	std	Z+47, r10	; 0x2f
     e70:	a5 a5       	ldd	r26, Z+45	; 0x2d
     e72:	a5 a4       	ldd	r10, Z+45	; 0x2d
     e74:	a4 a4       	ldd	r10, Z+44	; 0x2c
     e76:	a4 a5       	ldd	r26, Z+44	; 0x2c
     e78:	a5 a5       	ldd	r26, Z+45	; 0x2d
     e7a:	a5 a5       	ldd	r26, Z+45	; 0x2d
     e7c:	a5 a6       	std	Z+45, r10	; 0x2d
     e7e:	a6 a6       	std	Z+46, r10	; 0x2e
     e80:	a5 a5       	ldd	r26, Z+45	; 0x2d
     e82:	a5 a5       	ldd	r26, Z+45	; 0x2d
     e84:	a5 a4       	ldd	r10, Z+45	; 0x2d
     e86:	a4 a5       	ldd	r26, Z+44	; 0x2c
     e88:	a5 a6       	std	Z+45, r10	; 0x2d
     e8a:	a5 a5       	ldd	r26, Z+45	; 0x2d
     e8c:	a5 a5       	ldd	r26, Z+45	; 0x2d
     e8e:	a4 a4       	ldd	r10, Z+44	; 0x2c
     e90:	a5 a5       	ldd	r26, Z+45	; 0x2d
     e92:	a6 a6       	std	Z+46, r10	; 0x2e
     e94:	a6 a6       	std	Z+46, r10	; 0x2e
     e96:	a6 a6       	std	Z+46, r10	; 0x2e
     e98:	a6 a6       	std	Z+46, r10	; 0x2e
     e9a:	a4 a4       	ldd	r10, Z+44	; 0x2c
     e9c:	a5 a4       	ldd	r10, Z+45	; 0x2d
     e9e:	a5 a5       	ldd	r26, Z+45	; 0x2d
     ea0:	a5 a5       	ldd	r26, Z+45	; 0x2d
     ea2:	a5 a6       	std	Z+45, r10	; 0x2d
     ea4:	9f a0       	ldd	r9, Y+39	; 0x27
     ea6:	96 9c       	mul	r9, r6
     ea8:	98 a0       	ldd	r9, Y+32	; 0x20
     eaa:	9f 9d       	mul	r25, r15
     eac:	9c 98       	cbi	0x13, 4	; 19
     eae:	95 95       	asr	r25
     eb0:	93 97       	sbiw	r26, 0x23	; 35
     eb2:	99 99       	sbic	0x13, 1	; 19
     eb4:	9f 9d       	mul	r25, r15
     eb6:	a5 a4       	ldd	r10, Z+45	; 0x2d
     eb8:	a1 a6       	std	Z+41, r10	; 0x29
     eba:	a1 a5       	ldd	r26, Z+41	; 0x29
     ebc:	a6 a7       	std	Z+46, r26	; 0x2e
     ebe:	a9 a8       	ldd	r10, Y+49	; 0x31
     ec0:	a8 a5       	ldd	r26, Y+40	; 0x28
     ec2:	a1 9f       	mul	r26, r17
     ec4:	9e 9e       	mul	r9, r30
     ec6:	a0 a1       	ldd	r26, Z+32	; 0x20
     ec8:	a3 a3       	std	Z+35, r26	; 0x23
     eca:	a1 a1       	ldd	r26, Z+33	; 0x21
     ecc:	a1 a4       	ldd	r10, Z+41	; 0x29
     ece:	a7 ae       	std	Z+63, r10	; 0x3f
     ed0:	b1 b7       	in	r27, 0x31	; 49
     ed2:	bd c3       	rjmp	.+1914   	; 0x164e <__stack+0xdef>
     ed4:	ce d6       	rcall	.+3484   	; 0x1c72 <wavdata3+0x7c>
     ed6:	ee c3       	rjmp	.+2012   	; 0x16b4 <__stack+0xe55>
     ed8:	c7 ad       	ldd	r28, Z+63	; 0x3f
     eda:	a3 b6       	in	r10, 0x33	; 51
     edc:	b0 d5       	rcall	.+2912   	; 0x1a3e <__stack+0x11df>
     ede:	d2 e0       	ldi	r29, 0x02	; 2
     ee0:	d9 ce       	rjmp	.-590    	; 0xc94 <__stack+0x435>
     ee2:	c8 ba       	out	0x18, r12	; 24
     ee4:	be bc       	out	0x2e, r11	; 46
     ee6:	c7 c5       	rjmp	.+2958   	; 0x1a76 <__stack+0x1217>
     ee8:	c5 ba       	out	0x15, r12	; 21
     eea:	ac 9d       	mul	r26, r12
     eec:	96 98       	cbi	0x12, 6	; 18
     eee:	9c a4       	ldd	r9, Y+44	; 0x2c
     ef0:	a7 aa       	std	Z+55, r10	; 0x37
     ef2:	ac aa       	std	Y+52, r10	; 0x34
     ef4:	b0 aa       	std	Z+48, r11	; 0x30
     ef6:	bd bd       	out	0x2d, r27	; 45
     ef8:	dd b8       	out	0x0d, r13	; 13
     efa:	9f 94 6a 92 	call	0x2724d4 <_etext+0x26adb2>
     efe:	7c ac       	ldd	r7, Y+60	; 0x3c
     f00:	a1 b0       	in	r10, 0x01	; 1
     f02:	a0 95       	com	r26
     f04:	8e 81       	ldd	r24, Y+6	; 0x06
     f06:	90 8e       	std	Z+24, r9	; 0x18
     f08:	a5 9b       	sbis	0x14, 5	; 20
     f0a:	a6 94       	lsr	r10
     f0c:	8c 81       	ldd	r24, Y+4	; 0x04
     f0e:	80 89       	ldd	r24, Z+16	; 0x10
     f10:	90 9c       	mul	r9, r0
     f12:	9a 9f       	mul	r25, r26
     f14:	9a a0       	ldd	r9, Y+34	; 0x22
     f16:	a7 b0       	in	r10, 0x07	; 7
     f18:	be c8       	rjmp	.-3716   	; 0x96 <__ctors_end+0x42>
     f1a:	d8 96       	adiw	r26, 0x38	; 56
     f1c:	a1 71       	andi	r26, 0x11	; 17
     f1e:	8f 90       	pop	r8
     f20:	a5 b0       	in	r10, 0x05	; 5
     f22:	a6 a4       	ldd	r10, Z+46	; 0x2e
     f24:	8e 95 88 9e 	call	0x613d10 <_etext+0x60c5ee>
     f28:	99 ac       	ldd	r9, Y+57	; 0x39
     f2a:	a4 a3       	std	Z+36, r26	; 0x24
     f2c:	99 91       	ld	r25, Y+
     f2e:	93 90       	.word	0x9093	; ????
     f30:	9b 98       	cbi	0x13, 3	; 19
     f32:	9d 95 9a 98 	jmp	0x673134 <_etext+0x66ba12>
     f36:	a1 a6       	std	Z+41, r10	; 0x29
     f38:	ae b4       	in	r10, 0x2e	; 46
     f3a:	ba c1       	rjmp	.+884    	; 0x12b0 <__stack+0xa51>
     f3c:	c8 ce       	rjmp	.-624    	; 0xcce <__stack+0x46f>
     f3e:	97 a7       	std	Z+47, r25	; 0x2f
     f40:	7f a4       	ldd	r7, Y+47	; 0x2f
     f42:	9a b1       	in	r25, 0x0a	; 10
     f44:	a9 a8       	ldd	r10, Y+49	; 0x31
     f46:	9e 98       	cbi	0x13, 6	; 19
     f48:	9c 99       	sbic	0x13, 4	; 19
     f4a:	a7 a3       	std	Z+39, r26	; 0x27
     f4c:	b0 a6       	std	Z+40, r11	; 0x28
     f4e:	a8 9a       	sbi	0x15, 0	; 21
     f50:	9c 9a       	sbi	0x13, 4	; 19
     f52:	9e 9f       	mul	r25, r30
     f54:	9e 99       	sbic	0x13, 6	; 19
     f56:	98 9a       	sbi	0x13, 0	; 19
     f58:	9f a7       	std	Y+47, r25	; 0x2f
     f5a:	aa ae       	std	Y+58, r10	; 0x3a
     f5c:	b3 b5       	in	r27, 0x23	; 35
     f5e:	be be       	out	0x3e, r11	; 62
     f60:	d5 ba       	out	0x15, r13	; 21
     f62:	a5 9f       	mul	r26, r21
     f64:	8f a7       	std	Y+47, r24	; 0x2f
     f66:	9d b0       	in	r9, 0x0d	; 13
     f68:	a3 ab       	std	Z+51, r26	; 0x33
     f6a:	9a a4       	ldd	r9, Y+42	; 0x2a
     f6c:	98 a4       	ldd	r9, Y+40	; 0x28
     f6e:	a0 ab       	std	Z+48, r26	; 0x30
     f70:	ac aa       	std	Y+52, r10	; 0x34
     f72:	a7 9f       	mul	r26, r23
     f74:	9f 9f       	mul	r25, r31
     f76:	9f 9e       	mul	r9, r31
     f78:	9c 99       	sbic	0x13, 4	; 19
     f7a:	9a 9d       	mul	r25, r10
     f7c:	a1 a6       	std	Z+41, r10	; 0x29
     f7e:	aa ad       	ldd	r26, Y+58	; 0x3a
     f80:	b2 b4       	in	r11, 0x22	; 34
     f82:	bc bd       	out	0x2c, r27	; 44
     f84:	cb c6       	rjmp	.+3478   	; 0x1d1c <wavdata3+0x126>
     f86:	a8 a9       	ldd	r26, Y+48	; 0x30
     f88:	91 a4       	ldd	r9, Z+41	; 0x29
     f8a:	9b ad       	ldd	r25, Y+59	; 0x3b
     f8c:	a7 af       	std	Z+63, r26	; 0x3f
     f8e:	a1 a6       	std	Z+41, r10	; 0x29
     f90:	9b a1       	ldd	r25, Y+35	; 0x23
     f92:	a3 aa       	std	Z+51, r10	; 0x33
     f94:	ae ad       	ldd	r26, Y+62	; 0x3e
     f96:	ab a4       	ldd	r10, Y+43	; 0x2b
     f98:	a0 9e       	mul	r10, r16
     f9a:	a0 9d       	mul	r26, r0
     f9c:	a3 9c       	mul	r10, r3
     f9e:	9e 9c       	mul	r9, r14
     fa0:	9e a1       	ldd	r25, Y+38	; 0x26
     fa2:	a7 ab       	std	Z+55, r26	; 0x37
     fa4:	ae b2       	in	r10, 0x1e	; 30
     fa6:	b4 b7       	in	r27, 0x34	; 52
     fa8:	bc bf       	out	0x3c, r27	; 60
     faa:	c8 ad       	ldd	r28, Y+56	; 0x38
     fac:	b0 99       	sbic	0x16, 0	; 22
     fae:	a1 9d       	mul	r26, r1
     fb0:	a4 a7       	std	Z+44, r26	; 0x2c
     fb2:	a9 a9       	ldd	r26, Y+49	; 0x31
     fb4:	a4 a4       	ldd	r10, Z+44	; 0x2c
     fb6:	9f a6       	std	Y+47, r9	; 0x2f
     fb8:	a3 ab       	std	Z+51, r26	; 0x33
     fba:	a9 aa       	std	Y+49, r10	; 0x31
     fbc:	a7 a4       	ldd	r10, Z+47	; 0x2f
     fbe:	a5 a4       	ldd	r10, Z+45	; 0x2d
     fc0:	a6 a3       	std	Z+38, r26	; 0x26
     fc2:	a0 9e       	mul	r10, r16
     fc4:	9f 9f       	mul	r25, r31
     fc6:	a1 a3       	std	Z+33, r26	; 0x21
     fc8:	a4 a6       	std	Z+44, r10	; 0x2c
     fca:	a6 a8       	ldd	r10, Z+54	; 0x36
     fcc:	a9 aa       	std	Y+49, r10	; 0x31
     fce:	ac af       	std	Y+60, r26	; 0x3c
     fd0:	b1 b4       	in	r11, 0x21	; 33
     fd2:	b3 af       	std	Z+59, r27	; 0x3b
     fd4:	a9 a4       	ldd	r10, Y+41	; 0x29
     fd6:	a0 9f       	mul	r26, r16
     fd8:	9f a0       	ldd	r9, Y+39	; 0x27
     fda:	a0 a1       	ldd	r26, Z+32	; 0x20
     fdc:	a3 a4       	ldd	r10, Z+43	; 0x2b
     fde:	a4 a5       	ldd	r26, Z+44	; 0x2c
     fe0:	a6 a6       	std	Z+46, r10	; 0x2e
     fe2:	a7 a7       	std	Z+47, r26	; 0x2f
     fe4:	a7 a6       	std	Z+47, r10	; 0x2f
     fe6:	a5 a3       	std	Z+37, r26	; 0x25
     fe8:	a1 9f       	mul	r26, r17
     fea:	a0 a0       	ldd	r10, Z+32	; 0x20
     fec:	a0 a3       	std	Z+32, r26	; 0x20
     fee:	a4 a5       	ldd	r26, Z+44	; 0x2c
     ff0:	a7 aa       	std	Z+55, r10	; 0x37
     ff2:	ac ad       	ldd	r26, Y+60	; 0x3c
     ff4:	af b0       	in	r10, 0x0f	; 15
     ff6:	b1 b3       	in	r27, 0x11	; 17
     ff8:	b2 ae       	std	Z+58, r11	; 0x3a
     ffa:	ab a6       	std	Y+43, r10	; 0x2b
     ffc:	a0 9d       	mul	r26, r0
     ffe:	9d 9e       	mul	r9, r29
    1000:	9f a1       	ldd	r25, Y+39	; 0x27
    1002:	a3 a3       	std	Z+35, r26	; 0x23
    1004:	a4 a4       	ldd	r10, Z+44	; 0x2c
    1006:	a5 a5       	ldd	r26, Z+45	; 0x2d
    1008:	a6 a7       	std	Z+46, r26	; 0x2e
    100a:	a6 a6       	std	Z+46, r10	; 0x2e
    100c:	a5 a3       	std	Z+37, r26	; 0x25
    100e:	9f 9e       	mul	r9, r31
    1010:	9e 9e       	mul	r9, r30
    1012:	9f a0       	ldd	r9, Y+39	; 0x27
    1014:	a1 a4       	ldd	r10, Z+41	; 0x29
    1016:	a6 a8       	ldd	r10, Z+54	; 0x36
    1018:	a9 ab       	std	Y+49, r26	; 0x31
    101a:	ac ac       	ldd	r10, Y+60	; 0x3c
    101c:	ae af       	std	Y+62, r26	; 0x3e
    101e:	b2 b2       	in	r11, 0x12	; 18
    1020:	ad a7       	std	Y+45, r26	; 0x2d
    1022:	a1 9e       	mul	r10, r17
    1024:	9c 9d       	mul	r25, r12
    1026:	9d 9f       	mul	r25, r29
    1028:	a0 a1       	ldd	r26, Z+32	; 0x20
    102a:	a3 a1       	ldd	r26, Z+35	; 0x23
    102c:	a4 a5       	ldd	r26, Z+44	; 0x2c
    102e:	a6 a6       	std	Z+46, r10	; 0x2e
    1030:	a7 a5       	ldd	r26, Z+47	; 0x2f
    1032:	a5 a3       	std	Z+37, r26	; 0x25
    1034:	a0 9f       	mul	r26, r16
    1036:	9d 9c       	mul	r9, r13
    1038:	9c 9e       	mul	r9, r28
    103a:	9f a1       	ldd	r25, Y+39	; 0x27
    103c:	a4 a5       	ldd	r26, Z+44	; 0x2c
    103e:	a7 a8       	ldd	r10, Z+55	; 0x37
    1040:	a9 a9       	ldd	r26, Y+49	; 0x31
    1042:	a9 aa       	std	Y+49, r10	; 0x31
    1044:	ac ae       	std	Y+60, r10	; 0x3c
    1046:	af ae       	std	Y+63, r10	; 0x3f
    1048:	a9 a4       	ldd	r10, Y+41	; 0x29
    104a:	9f 9b       	sbis	0x13, 7	; 19
    104c:	9b 9d       	mul	r25, r11
    104e:	9d 9f       	mul	r25, r29
    1050:	a0 a1       	ldd	r26, Z+32	; 0x20
    1052:	a3 a4       	ldd	r10, Z+43	; 0x2b
    1054:	a5 a6       	std	Z+45, r10	; 0x2d
    1056:	a5 a5       	ldd	r26, Z+45	; 0x2d
    1058:	a4 a5       	ldd	r26, Z+44	; 0x2c
    105a:	a5 a4       	ldd	r10, Z+45	; 0x2d
    105c:	a3 a0       	ldd	r10, Z+35	; 0x23
    105e:	9e 9d       	mul	r25, r14
    1060:	9e 9f       	mul	r25, r30
    1062:	a1 a4       	ldd	r10, Z+41	; 0x29
    1064:	a5 a6       	std	Z+45, r10	; 0x2d
    1066:	a8 a9       	ldd	r26, Y+48	; 0x30
    1068:	a9 aa       	std	Y+49, r10	; 0x31
    106a:	aa aa       	std	Y+50, r10	; 0x32
    106c:	aa ab       	std	Y+50, r26	; 0x32
    106e:	ab ac       	ldd	r10, Y+59	; 0x3b
    1070:	ab a8       	ldd	r10, Y+51	; 0x33
    1072:	a4 9e       	mul	r10, r20
    1074:	9c 9b       	sbis	0x13, 4	; 19
    1076:	9c 9e       	mul	r9, r28
    1078:	a0 a1       	ldd	r26, Z+32	; 0x20
    107a:	a4 a3       	std	Z+36, r26	; 0x24
    107c:	a1 a1       	ldd	r26, Z+33	; 0x21
    107e:	a1 a1       	ldd	r26, Z+33	; 0x21
    1080:	a0 a0       	ldd	r10, Z+32	; 0x20
    1082:	a0 a0       	ldd	r10, Z+32	; 0x20
    1084:	a0 a0       	ldd	r10, Z+32	; 0x20
    1086:	9f 9d       	mul	r25, r15
    1088:	9b 9d       	mul	r25, r11
    108a:	9d 9f       	mul	r25, r29
    108c:	a0 a3       	std	Z+32, r26	; 0x20
    108e:	a4 a5       	ldd	r26, Z+44	; 0x2c
    1090:	a4 a4       	ldd	r10, Z+44	; 0x2c
    1092:	a3 a3       	std	Z+35, r26	; 0x23
    1094:	a3 a3       	std	Z+35, r26	; 0x23
    1096:	a4 a5       	ldd	r26, Z+44	; 0x2c
    1098:	a6 a7       	std	Z+46, r26	; 0x2e
    109a:	a8 a7       	std	Y+40, r26	; 0x28
    109c:	a6 a4       	ldd	r10, Z+46	; 0x2e
    109e:	a0 9f       	mul	r26, r16
    10a0:	9e 9f       	mul	r25, r30
    10a2:	a0 a1       	ldd	r26, Z+32	; 0x20
    10a4:	a1 a1       	ldd	r26, Z+33	; 0x21
    10a6:	a1 a0       	ldd	r10, Z+33	; 0x21
    10a8:	a0 a1       	ldd	r26, Z+32	; 0x20
    10aa:	a3 a3       	std	Z+35, r26	; 0x23
    10ac:	a3 a3       	std	Z+35, r26	; 0x23
    10ae:	a4 a3       	std	Z+36, r26	; 0x24
    10b0:	a1 a0       	ldd	r10, Z+33	; 0x21
    10b2:	a0 a0       	ldd	r10, Z+32	; 0x20
    10b4:	a0 a0       	ldd	r10, Z+32	; 0x20
    10b6:	a0 a1       	ldd	r26, Z+32	; 0x20
    10b8:	a0 a1       	ldd	r26, Z+32	; 0x20
    10ba:	a3 a4       	ldd	r10, Z+43	; 0x2b
    10bc:	a4 a4       	ldd	r10, Z+44	; 0x2c
    10be:	a4 a4       	ldd	r10, Z+44	; 0x2c
    10c0:	a4 a4       	ldd	r10, Z+44	; 0x2c
    10c2:	a3 a3       	std	Z+35, r26	; 0x23
    10c4:	a3 a3       	std	Z+35, r26	; 0x23
    10c6:	a4 a5       	ldd	r26, Z+44	; 0x2c
    10c8:	a5 a5       	ldd	r26, Z+45	; 0x2d
    10ca:	a5 a4       	ldd	r10, Z+45	; 0x2d
    10cc:	a3 a3       	std	Z+35, r26	; 0x23
    10ce:	a1 a3       	std	Z+33, r26	; 0x21
    10d0:	a1 a3       	std	Z+33, r26	; 0x21
    10d2:	9f a6       	std	Y+47, r9	; 0x2f
    10d4:	9d 9f       	mul	r25, r29
    10d6:	a7 9a       	sbi	0x14, 7	; 20
    10d8:	aa 9b       	sbis	0x15, 2	; 21
    10da:	a8 9e       	mul	r10, r24
    10dc:	a6 a0       	ldd	r10, Z+38	; 0x26
    10de:	a6 a0       	ldd	r10, Z+38	; 0x26
    10e0:	a4 a0       	ldd	r10, Z+36	; 0x24
    10e2:	a1 a1       	ldd	r26, Z+33	; 0x21
    10e4:	a1 a4       	ldd	r10, Z+41	; 0x29
    10e6:	a3 a4       	ldd	r10, Z+43	; 0x2b
    10e8:	a4 a3       	std	Z+36, r26	; 0x24
    10ea:	a4 a3       	std	Z+36, r26	; 0x24
    10ec:	a4 a4       	ldd	r10, Z+44	; 0x2c
    10ee:	a4 a4       	ldd	r10, Z+44	; 0x2c
    10f0:	a4 a3       	std	Z+36, r26	; 0x24
    10f2:	a3 a3       	std	Z+35, r26	; 0x23
    10f4:	a1 a3       	std	Z+33, r26	; 0x21
    10f6:	a3 a3       	std	Z+35, r26	; 0x23
    10f8:	a3 a3       	std	Z+35, r26	; 0x23
    10fa:	a1 a3       	std	Z+33, r26	; 0x21
    10fc:	a3 a3       	std	Z+35, r26	; 0x23
    10fe:	a4 a3       	std	Z+36, r26	; 0x24
    1100:	a3 a3       	std	Z+35, r26	; 0x23
    1102:	a3 a3       	std	Z+35, r26	; 0x23
    1104:	a4 a4       	ldd	r10, Z+44	; 0x2c
    1106:	a4 a4       	ldd	r10, Z+44	; 0x2c
    1108:	a4 a4       	ldd	r10, Z+44	; 0x2c
    110a:	a4 a4       	ldd	r10, Z+44	; 0x2c
    110c:	a4 a4       	ldd	r10, Z+44	; 0x2c
    110e:	a4 a4       	ldd	r10, Z+44	; 0x2c
    1110:	a4 a4       	ldd	r10, Z+44	; 0x2c
    1112:	a4 a4       	ldd	r10, Z+44	; 0x2c
    1114:	a4 a4       	ldd	r10, Z+44	; 0x2c
    1116:	a4 a4       	ldd	r10, Z+44	; 0x2c
    1118:	a4 a5       	ldd	r26, Z+44	; 0x2c
    111a:	a4 a3       	std	Z+36, r26	; 0x24
    111c:	a3 a3       	std	Z+35, r26	; 0x23
    111e:	a4 a4       	ldd	r10, Z+44	; 0x2c
    1120:	a4 a4       	ldd	r10, Z+44	; 0x2c
    1122:	a4 a4       	ldd	r10, Z+44	; 0x2c
    1124:	a4 a4       	ldd	r10, Z+44	; 0x2c
    1126:	a5 a6       	std	Z+45, r10	; 0x2d
    1128:	a5 a4       	ldd	r10, Z+45	; 0x2d
    112a:	a4 a4       	ldd	r10, Z+44	; 0x2c
    112c:	a4 a4       	ldd	r10, Z+44	; 0x2c
    112e:	a4 a4       	ldd	r10, Z+44	; 0x2c
    1130:	a4 a4       	ldd	r10, Z+44	; 0x2c
    1132:	a5 a5       	ldd	r26, Z+45	; 0x2d
    1134:	a5 a6       	std	Z+45, r10	; 0x2d
    1136:	a5 a5       	ldd	r26, Z+45	; 0x2d
    1138:	a5 a5       	ldd	r26, Z+45	; 0x2d
    113a:	a4 a5       	ldd	r26, Z+44	; 0x2c
    113c:	a5 a5       	ldd	r26, Z+45	; 0x2d
    113e:	a6 a6       	std	Z+46, r10	; 0x2e
    1140:	a5 a5       	ldd	r26, Z+45	; 0x2d
    1142:	a5 a5       	ldd	r26, Z+45	; 0x2d
    1144:	a5 a6       	std	Z+45, r10	; 0x2d
    1146:	a5 a6       	std	Z+45, r10	; 0x2d
    1148:	a7 a7       	std	Z+47, r26	; 0x2f
    114a:	a7 a6       	std	Z+47, r10	; 0x2f
    114c:	a6 a6       	std	Z+46, r10	; 0x2e
    114e:	a3 a8       	ldd	r10, Z+51	; 0x33
    1150:	a3 a8       	ldd	r10, Z+51	; 0x33
    1152:	9c a5       	ldd	r25, Y+44	; 0x2c
    1154:	a3 a6       	std	Z+43, r10	; 0x2b
    1156:	a5 a4       	ldd	r10, Z+45	; 0x2d
    1158:	a6 a4       	ldd	r10, Z+46	; 0x2e
    115a:	a5 a5       	ldd	r26, Z+45	; 0x2d
    115c:	a6 a4       	ldd	r10, Z+46	; 0x2e
    115e:	a5 a5       	ldd	r26, Z+45	; 0x2d
    1160:	a7 a6       	std	Z+47, r10	; 0x2f
    1162:	a7 a6       	std	Z+47, r10	; 0x2f
    1164:	a7 a9       	ldd	r26, Z+55	; 0x37
    1166:	ac a4       	ldd	r10, Y+44	; 0x2c
    1168:	a9 a6       	std	Y+41, r10	; 0x29
    116a:	a6 a6       	std	Z+46, r10	; 0x2e
    116c:	a5 a9       	ldd	r26, Z+53	; 0x35
    116e:	a0 99       	sbic	0x14, 0	; 20
    1170:	a7 a0       	ldd	r10, Z+39	; 0x27
    1172:	9c a4       	ldd	r9, Y+44	; 0x2c
    1174:	a3 a6       	std	Z+43, r10	; 0x2b
    1176:	a5 a7       	std	Z+45, r26	; 0x2d
    1178:	a4 a9       	ldd	r26, Z+52	; 0x34
    117a:	a4 9b       	sbis	0x14, 4	; 20
    117c:	ad 9d       	mul	r26, r13
    117e:	ac a8       	ldd	r10, Y+52	; 0x34
    1180:	ac a7       	std	Y+44, r26	; 0x2c
    1182:	aa a5       	ldd	r26, Y+42	; 0x2a
    1184:	ae 9d       	mul	r26, r14
    1186:	a4 a0       	ldd	r10, Z+36	; 0x24
    1188:	a9 a7       	std	Y+41, r26	; 0x29
    118a:	ab a9       	ldd	r26, Y+51	; 0x33
    118c:	a7 a4       	ldd	r10, Z+47	; 0x2f
    118e:	a4 a6       	std	Z+44, r10	; 0x2c
    1190:	a6 a9       	ldd	r26, Z+54	; 0x36
    1192:	a9 ac       	ldd	r10, Y+57	; 0x39
    1194:	aa a9       	ldd	r26, Y+50	; 0x32
    1196:	a7 a8       	ldd	r10, Z+55	; 0x37
    1198:	a7 a8       	ldd	r10, Z+55	; 0x37
    119a:	a8 a8       	ldd	r10, Y+48	; 0x30
    119c:	a9 a8       	ldd	r10, Y+49	; 0x31
    119e:	a6 a6       	std	Z+46, r10	; 0x2e
    11a0:	a6 a6       	std	Z+46, r10	; 0x2e
    11a2:	a7 a6       	std	Z+47, r10	; 0x2f
    11a4:	a7 a7       	std	Z+47, r26	; 0x2f
    11a6:	a6 a7       	std	Z+46, r26	; 0x2e
    11a8:	a7 a7       	std	Z+47, r26	; 0x2f
    11aa:	a8 a8       	ldd	r10, Y+48	; 0x30
    11ac:	a8 a8       	ldd	r10, Y+48	; 0x30
    11ae:	a8 a8       	ldd	r10, Y+48	; 0x30
    11b0:	a8 a7       	std	Y+40, r26	; 0x28
    11b2:	a6 a6       	std	Z+46, r10	; 0x2e
    11b4:	a6 a7       	std	Z+46, r26	; 0x2e
    11b6:	a6 a6       	std	Z+46, r10	; 0x2e
    11b8:	a6 a7       	std	Z+46, r26	; 0x2e
    11ba:	a9 a8       	ldd	r10, Y+49	; 0x31
    11bc:	ab aa       	std	Y+51, r10	; 0x33
    11be:	ac ab       	std	Y+52, r26	; 0x34
    11c0:	ad b0       	in	r10, 0x0d	; 13
    11c2:	b1 b4       	in	r11, 0x21	; 33
    11c4:	b7 b6       	in	r11, 0x37	; 55
    11c6:	ba b1       	in	r27, 0x0a	; 10
    11c8:	a8 a0       	ldd	r10, Y+32	; 0x20
    11ca:	99 9f       	mul	r25, r25
    11cc:	9f a9       	ldd	r25, Y+55	; 0x37
    11ce:	a8 aa       	std	Y+48, r10	; 0x30
    11d0:	a5 a3       	std	Z+37, r26	; 0x25
    11d2:	9f 9f       	mul	r25, r31
    11d4:	a1 a3       	std	Z+33, r26	; 0x21
    11d6:	a6 a6       	std	Z+46, r10	; 0x2e
    11d8:	a5 a1       	ldd	r26, Z+37	; 0x25
    11da:	9b 98       	cbi	0x13, 3	; 19
    11dc:	99 9e       	mul	r9, r25
    11de:	a3 a5       	ldd	r26, Z+43	; 0x2b
    11e0:	a5 a5       	ldd	r26, Z+45	; 0x2d
    11e2:	a6 a8       	ldd	r10, Z+54	; 0x36
    11e4:	ac af       	std	Y+60, r26	; 0x3c
    11e6:	b4 b8       	out	0x04, r11	; 4
    11e8:	bc bf       	out	0x3c, r27	; 60
    11ea:	c1 d5       	rcall	.+2946   	; 0x1d6e <wavdata3+0x178>
    11ec:	a0 a7       	std	Z+40, r26	; 0x28
    11ee:	8d 92       	st	X+, r8
    11f0:	a7 a4       	ldd	r10, Z+47	; 0x2f
    11f2:	ba a7       	std	Y+42, r27	; 0x2a
    11f4:	ac 9c       	mul	r10, r12
    11f6:	9c 9d       	mul	r25, r12
    11f8:	a0 a9       	ldd	r26, Z+48	; 0x30
    11fa:	a8 ac       	ldd	r10, Y+56	; 0x38
    11fc:	a3 a3       	std	Z+35, r26	; 0x23
    11fe:	9b 9e       	mul	r9, r27
    1200:	a1 a1       	ldd	r26, Z+33	; 0x21
    1202:	a3 9d       	mul	r26, r3
    1204:	9c 9a       	sbi	0x13, 4	; 19
    1206:	9c 9c       	mul	r9, r12
    1208:	a0 a5       	ldd	r26, Z+40	; 0x28
    120a:	a7 a8       	ldd	r10, Z+55	; 0x37
    120c:	a8 a8       	ldd	r10, Y+48	; 0x30
    120e:	ac b2       	in	r10, 0x1c	; 28
    1210:	b6 bf       	out	0x36, r27	; 54
    1212:	c0 c3       	rjmp	.+1920   	; 0x1994 <__stack+0x1135>
    1214:	d5 a0       	ldd	r13, Z+37	; 0x25
    1216:	9c 91       	ld	r25, X
    1218:	8f b3       	in	r24, 0x1f	; 31
    121a:	a7 bc       	out	0x27, r10	; 39
    121c:	ab 9f       	mul	r26, r27
    121e:	9f 98       	cbi	0x13, 7	; 19
    1220:	a9 a8       	ldd	r10, Y+49	; 0x31
    1222:	af ad       	ldd	r26, Y+63	; 0x3f
    1224:	a6 a1       	ldd	r26, Z+38	; 0x26
    1226:	9c a0       	ldd	r9, Y+36	; 0x24
    1228:	a3 a8       	ldd	r10, Z+51	; 0x33
    122a:	a7 a5       	ldd	r26, Z+47	; 0x2f
    122c:	a1 9c       	mul	r10, r1
    122e:	98 9a       	sbi	0x13, 0	; 19
    1230:	9f a5       	ldd	r25, Y+47	; 0x2f
    1232:	a7 a7       	std	Z+47, r26	; 0x2f
    1234:	a6 a5       	ldd	r26, Z+46	; 0x2e
    1236:	a9 aa       	std	Y+49, r10	; 0x31
    1238:	af b4       	in	r10, 0x2f	; 47
    123a:	bb bf       	out	0x3b, r27	; 59
    123c:	c4 c9       	rjmp	.-3192   	; 0x5c6 <__ctors_end+0x572>
    123e:	ca 95       	dec	r28
    1240:	99 92       	st	Y+, r9
    1242:	9b bc       	out	0x2b, r9	; 43
    1244:	ad b8       	out	0x0d, r10	; 13
    1246:	a5 97       	sbiw	r28, 0x25	; 37
    1248:	9f 9a       	sbi	0x13, 7	; 19
    124a:	ac ac       	ldd	r10, Y+60	; 0x3c
    124c:	a9 ab       	std	Y+49, r26	; 0x31
    124e:	9f a0       	ldd	r9, Y+39	; 0x27
    1250:	a0 a1       	ldd	r26, Z+32	; 0x20
    1252:	a9 a8       	ldd	r10, Y+49	; 0x31
    1254:	a8 a3       	std	Y+32, r26	; 0x20
    1256:	9e 9e       	mul	r9, r30
    1258:	9d 9e       	mul	r9, r29
    125a:	a0 a1       	ldd	r26, Z+32	; 0x20
    125c:	a4 a1       	ldd	r26, Z+36	; 0x24
    125e:	a4 a5       	ldd	r26, Z+44	; 0x2c
    1260:	a8 ac       	ldd	r10, Y+56	; 0x38
    1262:	af b2       	in	r10, 0x1f	; 31
    1264:	b7 bc       	out	0x27, r11	; 39
    1266:	c2 c6       	rjmp	.+3460   	; 0x1fec <wavdata3+0x3f6>
    1268:	d2 bc       	out	0x22, r13	; 34
    126a:	89 a1       	ldd	r24, Y+33	; 0x21
    126c:	8c ac       	ldd	r8, Y+60	; 0x3c
    126e:	bc aa       	std	Y+52, r11	; 0x34
    1270:	b8 9c       	mul	r11, r8
    1272:	9a a6       	std	Y+42, r9	; 0x2a
    1274:	9f b1       	in	r25, 0x0f	; 15
    1276:	aa a6       	std	Y+42, r10	; 0x2a
    1278:	ac 9c       	mul	r10, r12
    127a:	a6 a3       	std	Z+38, r26	; 0x26
    127c:	a0 ab       	std	Z+48, r26	; 0x30
    127e:	a5 a8       	ldd	r10, Z+53	; 0x35
    1280:	a5 9e       	mul	r10, r21
    1282:	a3 9b       	sbis	0x14, 3	; 20
    1284:	a0 a1       	ldd	r26, Z+32	; 0x20
    1286:	a1 a8       	ldd	r10, Z+49	; 0x31
    1288:	a3 a5       	ldd	r26, Z+43	; 0x2b
    128a:	a4 a6       	std	Z+44, r10	; 0x2c
    128c:	ac ad       	ldd	r26, Y+60	; 0x3c
    128e:	b0 b3       	in	r27, 0x10	; 16
    1290:	b5 bb       	out	0x15, r27	; 21
    1292:	be c7       	rjmp	.+3964   	; 0x2210 <wavdata3+0x61a>
    1294:	b4 91       	lpm	r27, Z
    1296:	a9 93       	st	Y+, r26
    1298:	a5 b2       	in	r10, 0x15	; 21
    129a:	a1 af       	std	Z+57, r26	; 0x39
    129c:	a6 9c       	mul	r10, r6
    129e:	aa 9e       	mul	r10, r26
    12a0:	a4 a9       	ldd	r26, Z+52	; 0x34
    12a2:	a6 ad       	ldd	r26, Z+62	; 0x3e
    12a4:	aa a7       	std	Y+42, r26	; 0x2a
    12a6:	aa a4       	ldd	r10, Y+42	; 0x2a
    12a8:	a8 a6       	std	Y+40, r10	; 0x28
    12aa:	a4 a4       	ldd	r10, Z+44	; 0x2c
    12ac:	a1 a3       	std	Z+33, r26	; 0x21
    12ae:	a5 a4       	ldd	r10, Z+45	; 0x2d
    12b0:	a5 a4       	ldd	r10, Z+45	; 0x2d
    12b2:	a3 a4       	ldd	r10, Z+43	; 0x2b
    12b4:	a3 a3       	std	Z+35, r26	; 0x23
    12b6:	a5 a6       	std	Z+45, r10	; 0x2d
    12b8:	a7 a8       	ldd	r10, Z+55	; 0x37
    12ba:	a8 a8       	ldd	r10, Y+48	; 0x30
    12bc:	a8 a8       	ldd	r10, Y+48	; 0x30
    12be:	ac af       	std	Y+60, r26	; 0x3c
    12c0:	b3 b1       	in	r27, 0x03	; 3
    12c2:	af ad       	ldd	r26, Y+63	; 0x3f
    12c4:	a6 a4       	ldd	r10, Z+46	; 0x2e
    12c6:	a3 9f       	mul	r26, r19
    12c8:	a0 a3       	std	Z+32, r26	; 0x20
    12ca:	a1 a4       	ldd	r10, Z+41	; 0x29
    12cc:	a6 a5       	ldd	r26, Z+46	; 0x2e
    12ce:	a6 a7       	std	Z+46, r26	; 0x2e
    12d0:	a7 a8       	ldd	r10, Z+55	; 0x37
    12d2:	a9 a8       	ldd	r10, Y+49	; 0x31
    12d4:	a8 a9       	ldd	r26, Y+48	; 0x30
    12d6:	a7 a6       	std	Z+47, r10	; 0x2f
    12d8:	a4 a1       	ldd	r26, Z+36	; 0x24
    12da:	a0 9f       	mul	r26, r16
    12dc:	a0 a1       	ldd	r26, Z+32	; 0x20
    12de:	a3 a4       	ldd	r10, Z+43	; 0x2b
    12e0:	a5 a7       	std	Z+45, r26	; 0x2d
    12e2:	a8 a8       	ldd	r10, Y+48	; 0x30
    12e4:	aa aa       	std	Y+50, r10	; 0x32
    12e6:	a9 aa       	std	Y+49, r10	; 0x31
    12e8:	aa ad       	ldd	r26, Y+58	; 0x3a
    12ea:	b0 b3       	in	r27, 0x10	; 16
    12ec:	b2 ae       	std	Z+58, r11	; 0x3a
    12ee:	ac a4       	ldd	r10, Y+44	; 0x2c
    12f0:	a0 a1       	ldd	r26, Z+32	; 0x20
    12f2:	9f a3       	std	Y+39, r25	; 0x27
    12f4:	a4 a3       	std	Z+36, r26	; 0x24
    12f6:	a3 a4       	ldd	r10, Z+43	; 0x2b
    12f8:	a3 a5       	ldd	r26, Z+43	; 0x2b
    12fa:	a6 a7       	std	Z+46, r26	; 0x2e
    12fc:	a8 a9       	ldd	r26, Y+48	; 0x30
    12fe:	a7 a8       	ldd	r10, Z+55	; 0x37
    1300:	a7 a5       	ldd	r26, Z+47	; 0x2f
    1302:	a5 a4       	ldd	r10, Z+45	; 0x2d
    1304:	a1 a0       	ldd	r10, Z+33	; 0x21
    1306:	a0 a0       	ldd	r10, Z+32	; 0x20
    1308:	a1 a3       	std	Z+33, r26	; 0x21
    130a:	a4 a4       	ldd	r10, Z+44	; 0x2c
    130c:	a5 a5       	ldd	r26, Z+45	; 0x2d
    130e:	a6 a6       	std	Z+46, r10	; 0x2e
    1310:	a7 a7       	std	Z+47, r26	; 0x2f
    1312:	a8 a8       	ldd	r10, Y+48	; 0x30
    1314:	aa ad       	ldd	r26, Y+58	; 0x3a
    1316:	ae b2       	in	r10, 0x1e	; 30
    1318:	b2 ac       	ldd	r11, Z+58	; 0x3a
    131a:	ac a7       	std	Y+44, r26	; 0x2c
    131c:	9f a0       	ldd	r9, Y+39	; 0x27
    131e:	9f 9f       	mul	r25, r31
    1320:	a3 a1       	ldd	r26, Z+35	; 0x23
    1322:	a1 a3       	std	Z+33, r26	; 0x21
    1324:	a4 a4       	ldd	r10, Z+44	; 0x2c
    1326:	a6 a6       	std	Z+46, r10	; 0x2e
    1328:	a6 a7       	std	Z+46, r26	; 0x2e
    132a:	a7 a7       	std	Z+47, r26	; 0x2f
    132c:	a7 a7       	std	Z+47, r26	; 0x2f
    132e:	a5 a4       	ldd	r10, Z+45	; 0x2d
    1330:	a1 a0       	ldd	r10, Z+33	; 0x21
    1332:	a0 a0       	ldd	r10, Z+32	; 0x20
    1334:	a1 a3       	std	Z+33, r26	; 0x21
    1336:	a4 a3       	std	Z+36, r26	; 0x24
    1338:	a4 a3       	std	Z+36, r26	; 0x24
    133a:	a4 a5       	ldd	r26, Z+44	; 0x2c
    133c:	a5 a6       	std	Z+45, r10	; 0x2d
    133e:	a7 a8       	ldd	r10, Z+55	; 0x37
    1340:	a9 aa       	std	Y+49, r10	; 0x31
    1342:	ac ae       	std	Y+60, r10	; 0x3c
    1344:	b2 b0       	in	r11, 0x02	; 2
    1346:	aa ab       	std	Y+50, r26	; 0x32
    1348:	a5 9e       	mul	r10, r21
    134a:	a1 9e       	mul	r10, r17
    134c:	9f a4       	ldd	r9, Y+47	; 0x2f
    134e:	a3 a1       	ldd	r26, Z+35	; 0x23
    1350:	a1 a3       	std	Z+33, r26	; 0x21
    1352:	a1 a4       	ldd	r10, Z+41	; 0x29
    1354:	a7 a6       	std	Z+47, r10	; 0x2f
    1356:	a8 a9       	ldd	r26, Y+48	; 0x30
    1358:	a7 a7       	std	Z+47, r26	; 0x2f
    135a:	a5 a3       	std	Z+37, r26	; 0x25
    135c:	a1 a1       	ldd	r26, Z+33	; 0x21
    135e:	a1 a0       	ldd	r10, Z+33	; 0x21
    1360:	a0 a0       	ldd	r10, Z+32	; 0x20
    1362:	a0 a1       	ldd	r26, Z+32	; 0x20
    1364:	a3 a1       	ldd	r26, Z+35	; 0x23
    1366:	a4 a4       	ldd	r10, Z+44	; 0x2c
    1368:	a4 a6       	std	Z+44, r10	; 0x2c
    136a:	a6 a6       	std	Z+46, r10	; 0x2e
    136c:	a7 a9       	ldd	r26, Z+55	; 0x37
    136e:	ac ae       	std	Y+60, r10	; 0x3c
    1370:	b3 ba       	out	0x13, r11	; 19
    1372:	b6 96       	adiw	r30, 0x26	; 38
    1374:	9f 9f       	mul	r25, r31
    1376:	8f a9       	ldd	r24, Y+55	; 0x37
    1378:	ad a1       	ldd	r26, Y+37	; 0x25
    137a:	aa a7       	std	Y+42, r26	; 0x2a
    137c:	94 9a       	sbi	0x12, 4	; 18
    137e:	9e 9e       	mul	r9, r30
    1380:	a7 af       	std	Z+63, r26	; 0x3f
    1382:	a7 a3       	std	Z+39, r26	; 0x27
    1384:	a4 9c       	mul	r10, r4
    1386:	9d a5       	ldd	r25, Y+45	; 0x2d
    1388:	a4 a1       	ldd	r26, Z+36	; 0x24
    138a:	a3 9d       	mul	r26, r3
    138c:	9b 9c       	mul	r9, r11
    138e:	9e 9e       	mul	r9, r30
    1390:	9e a1       	ldd	r25, Y+38	; 0x26
    1392:	9e 9e       	mul	r9, r30
    1394:	a1 9f       	mul	r26, r17
    1396:	a1 a6       	std	Z+41, r10	; 0x29
    1398:	a7 a8       	ldd	r10, Z+55	; 0x37
    139a:	aa ae       	std	Y+58, r10	; 0x3a
    139c:	b1 b8       	out	0x01, r11	; 1
    139e:	bb bf       	out	0x3b, r27	; 59
    13a0:	b0 8e       	std	Z+24, r11	; 0x18
    13a2:	9a a9       	ldd	r25, Y+50	; 0x32
    13a4:	a0 a8       	ldd	r10, Z+48	; 0x30
    13a6:	af a1       	ldd	r26, Y+39	; 0x27
    13a8:	9a a1       	ldd	r25, Y+34	; 0x22
    13aa:	9e 99       	sbic	0x13, 6	; 19
    13ac:	a3 a9       	ldd	r26, Z+51	; 0x33
    13ae:	a7 aa       	std	Z+55, r10	; 0x37
    13b0:	a8 9e       	mul	r10, r24
    13b2:	9d a3       	std	Y+37, r25	; 0x25
    13b4:	a5 a5       	ldd	r26, Z+45	; 0x2d
    13b6:	a5 a1       	ldd	r26, Z+37	; 0x25
    13b8:	9d 9d       	mul	r25, r13
    13ba:	a1 a0       	ldd	r10, Z+33	; 0x21
    13bc:	9e a1       	ldd	r25, Y+38	; 0x26
    13be:	9e 9c       	mul	r9, r14
    13c0:	a0 9e       	mul	r10, r16
    13c2:	9a 9e       	mul	r9, r26
    13c4:	a0 9f       	mul	r26, r16
    13c6:	a3 a6       	std	Z+43, r10	; 0x2b
    13c8:	a7 a8       	ldd	r10, Z+55	; 0x37
    13ca:	ac b1       	in	r26, 0x0c	; 12
    13cc:	b6 b8       	out	0x06, r11	; 6
    13ce:	ba b3       	in	r27, 0x1a	; 26
    13d0:	95 92       	.word	0x9295	; ????
    13d2:	a7 a7       	std	Z+47, r26	; 0x2f
    13d4:	a0 a9       	ldd	r26, Z+48	; 0x30
    13d6:	a8 9c       	mul	r10, r8
    13d8:	9a a1       	ldd	r25, Y+34	; 0x22
    13da:	9e 9c       	mul	r9, r14
    13dc:	a6 ab       	std	Z+54, r26	; 0x36
    13de:	a7 a4       	ldd	r10, Z+47	; 0x2f
    13e0:	a3 9e       	mul	r10, r19
    13e2:	9d a1       	ldd	r25, Y+37	; 0x25
    13e4:	a5 a3       	std	Z+37, r26	; 0x25
    13e6:	a0 a0       	ldd	r10, Z+32	; 0x20
    13e8:	9e 9e       	mul	r9, r30
    13ea:	9e 9f       	mul	r25, r30
    13ec:	a0 9f       	mul	r26, r16
    13ee:	9d 9f       	mul	r25, r29
    13f0:	9f 9e       	mul	r9, r31
    13f2:	9d 9f       	mul	r25, r29
    13f4:	a3 a3       	std	Z+35, r26	; 0x23
    13f6:	a3 a6       	std	Z+43, r10	; 0x2b
    13f8:	a8 ab       	std	Y+48, r26	; 0x30
    13fa:	af b4       	in	r10, 0x2f	; 47
    13fc:	b7 b8       	out	0x07, r11	; 7
    13fe:	b6 a0       	ldd	r11, Z+38	; 0x26
    1400:	90 9c       	mul	r9, r0
    1402:	a8 a4       	ldd	r10, Y+40	; 0x28
    1404:	a3 a8       	ldd	r10, Z+51	; 0x33
    1406:	a5 9a       	sbi	0x14, 5	; 20
    1408:	9b a1       	ldd	r25, Y+35	; 0x23
    140a:	a1 9f       	mul	r26, r17
    140c:	a7 ac       	ldd	r10, Z+63	; 0x3f
    140e:	a7 a0       	ldd	r10, Z+39	; 0x27
    1410:	a0 9f       	mul	r26, r16
    1412:	9d a0       	ldd	r9, Y+37	; 0x25
    1414:	a4 a3       	std	Z+36, r26	; 0x24
    1416:	9f 9e       	mul	r9, r31
    1418:	a0 a1       	ldd	r26, Z+32	; 0x20
    141a:	9e 9f       	mul	r25, r30
    141c:	a0 9f       	mul	r26, r16
    141e:	9f a0       	ldd	r9, Y+39	; 0x27
    1420:	9f 9e       	mul	r9, r31
    1422:	a0 a4       	ldd	r10, Z+40	; 0x28
    1424:	a5 a4       	ldd	r10, Z+45	; 0x2d
    1426:	a7 aa       	std	Z+55, r10	; 0x37
    1428:	ac ad       	ldd	r26, Y+60	; 0x3c
    142a:	b1 b3       	in	r27, 0x11	; 17
    142c:	b2 b0       	in	r11, 0x02	; 2
    142e:	ac a1       	ldd	r26, Y+36	; 0x24
    1430:	99 9d       	mul	r25, r9
    1432:	a6 a7       	std	Z+46, r26	; 0x2e
    1434:	a4 a4       	ldd	r10, Z+44	; 0x2c
    1436:	a4 a0       	ldd	r10, Z+36	; 0x24
    1438:	9e a1       	ldd	r25, Y+38	; 0x26
    143a:	a6 a7       	std	Z+46, r26	; 0x2e
    143c:	a7 a8       	ldd	r10, Z+55	; 0x37
    143e:	a8 a4       	ldd	r10, Y+40	; 0x28
    1440:	a1 a1       	ldd	r26, Z+33	; 0x21
    1442:	a4 a4       	ldd	r10, Z+44	; 0x2c
    1444:	a4 a4       	ldd	r10, Z+44	; 0x2c
    1446:	a4 a3       	std	Z+36, r26	; 0x24
    1448:	a1 a1       	ldd	r26, Z+33	; 0x21
    144a:	a0 9f       	mul	r26, r16
    144c:	a1 a4       	ldd	r10, Z+41	; 0x29
    144e:	a3 a1       	ldd	r26, Z+35	; 0x23
    1450:	a3 a4       	ldd	r10, Z+43	; 0x2b
    1452:	a5 a5       	ldd	r26, Z+45	; 0x2d
    1454:	a6 a7       	std	Z+46, r26	; 0x2e
    1456:	a8 aa       	std	Y+48, r10	; 0x30
    1458:	ac ae       	std	Y+60, r10	; 0x3c
    145a:	ae ae       	std	Y+62, r10	; 0x3e
    145c:	ac a8       	ldd	r10, Y+52	; 0x34
    145e:	a3 a0       	ldd	r10, Z+35	; 0x23
    1460:	a3 a5       	ldd	r26, Z+43	; 0x2b
    1462:	a6 a6       	std	Z+46, r10	; 0x2e
    1464:	a5 a4       	ldd	r10, Z+45	; 0x2d
    1466:	a3 a3       	std	Z+35, r26	; 0x23
    1468:	a3 a5       	ldd	r26, Z+43	; 0x2b
    146a:	a5 a6       	std	Z+45, r10	; 0x2d
    146c:	a5 a4       	ldd	r10, Z+45	; 0x2d
    146e:	a5 a4       	ldd	r10, Z+45	; 0x2d
    1470:	a3 a3       	std	Z+35, r26	; 0x23
    1472:	a4 a3       	std	Z+36, r26	; 0x24
    1474:	a1 a0       	ldd	r10, Z+33	; 0x21
    1476:	a0 9f       	mul	r26, r16
    1478:	a0 a3       	std	Z+32, r26	; 0x20
    147a:	a4 a3       	std	Z+36, r26	; 0x24
    147c:	a1 a4       	ldd	r10, Z+41	; 0x29
    147e:	a5 a7       	std	Z+45, r26	; 0x2d
    1480:	a7 a9       	ldd	r26, Z+55	; 0x37
    1482:	ab ad       	ldd	r26, Y+59	; 0x3b
    1484:	af b0       	in	r10, 0x0f	; 15
    1486:	b0 ae       	std	Z+56, r11	; 0x38
    1488:	aa a6       	std	Y+42, r10	; 0x2a
    148a:	a5 a6       	std	Z+45, r10	; 0x2d
    148c:	a6 a5       	ldd	r26, Z+46	; 0x2e
    148e:	a4 a6       	std	Z+44, r10	; 0x2c
    1490:	a6 a5       	ldd	r26, Z+46	; 0x2e
    1492:	a4 a4       	ldd	r10, Z+44	; 0x2c
    1494:	a4 a5       	ldd	r26, Z+44	; 0x2c
    1496:	a6 a7       	std	Z+46, r26	; 0x2e
    1498:	a6 a5       	ldd	r26, Z+46	; 0x2e
    149a:	a4 a4       	ldd	r10, Z+44	; 0x2c
    149c:	a5 a4       	ldd	r10, Z+45	; 0x2d
    149e:	a4 a4       	ldd	r10, Z+44	; 0x2c
    14a0:	a4 a4       	ldd	r10, Z+44	; 0x2c
    14a2:	a4 a4       	ldd	r10, Z+44	; 0x2c
    14a4:	a1 a1       	ldd	r26, Z+33	; 0x21
    14a6:	a3 a3       	std	Z+35, r26	; 0x23
    14a8:	a4 a5       	ldd	r26, Z+44	; 0x2c
    14aa:	a4 a5       	ldd	r26, Z+44	; 0x2c
    14ac:	a5 a5       	ldd	r26, Z+45	; 0x2d
    14ae:	a7 a8       	ldd	r10, Z+55	; 0x37
    14b0:	a8 a9       	ldd	r26, Y+48	; 0x30
    14b2:	aa ab       	std	Y+50, r26	; 0x32
    14b4:	ac ac       	ldd	r10, Y+60	; 0x3c
    14b6:	ac ac       	ldd	r10, Y+60	; 0x3c
    14b8:	ab a9       	ldd	r26, Y+51	; 0x33
    14ba:	a6 a6       	std	Z+46, r10	; 0x2e
    14bc:	a5 a5       	ldd	r26, Z+45	; 0x2d
    14be:	a5 a1       	ldd	r26, Z+37	; 0x25
    14c0:	a0 a3       	std	Z+32, r26	; 0x20
    14c2:	a6 a7       	std	Z+46, r26	; 0x2e
    14c4:	a6 a6       	std	Z+46, r10	; 0x2e
    14c6:	a6 a7       	std	Z+46, r26	; 0x2e
    14c8:	a7 a6       	std	Z+47, r10	; 0x2f
    14ca:	a7 a6       	std	Z+47, r10	; 0x2f
    14cc:	a4 a3       	std	Z+36, r26	; 0x24
    14ce:	a3 a3       	std	Z+35, r26	; 0x23
    14d0:	a3 a1       	ldd	r26, Z+35	; 0x23
    14d2:	a4 a5       	ldd	r26, Z+44	; 0x2c
    14d4:	a6 a7       	std	Z+46, r26	; 0x2e
    14d6:	a8 a9       	ldd	r26, Y+48	; 0x30
    14d8:	ab ad       	ldd	r26, Y+59	; 0x3b
    14da:	ae ae       	std	Y+62, r10	; 0x3e
    14dc:	ae ae       	std	Y+62, r10	; 0x3e
    14de:	ab a7       	std	Y+43, r26	; 0x2b
    14e0:	a4 a4       	ldd	r10, Z+44	; 0x2c
    14e2:	a4 a4       	ldd	r10, Z+44	; 0x2c
    14e4:	a3 a4       	ldd	r10, Z+43	; 0x2b
    14e6:	a6 a5       	ldd	r26, Z+46	; 0x2e
    14e8:	a6 a6       	std	Z+46, r10	; 0x2e
    14ea:	a6 a6       	std	Z+46, r10	; 0x2e
    14ec:	a6 a6       	std	Z+46, r10	; 0x2e
    14ee:	a7 a8       	ldd	r10, Z+55	; 0x37
    14f0:	a8 a7       	std	Y+40, r26	; 0x28
    14f2:	a7 a6       	std	Z+47, r10	; 0x2f
    14f4:	a7 a7       	std	Z+47, r26	; 0x2f
    14f6:	a7 a7       	std	Z+47, r26	; 0x2f
    14f8:	a8 a7       	std	Y+40, r26	; 0x28
    14fa:	a6 a6       	std	Z+46, r10	; 0x2e
    14fc:	a7 a8       	ldd	r10, Z+55	; 0x37
    14fe:	a8 a8       	ldd	r10, Y+48	; 0x30
    1500:	a7 a6       	std	Z+47, r10	; 0x2f
    1502:	a6 a5       	ldd	r26, Z+46	; 0x2e
    1504:	a5 a6       	std	Z+45, r10	; 0x2d
    1506:	a6 a7       	std	Z+46, r26	; 0x2e
    1508:	a7 a7       	std	Z+47, r26	; 0x2f
    150a:	a7 a7       	std	Z+47, r26	; 0x2f
    150c:	a6 a6       	std	Z+46, r10	; 0x2e
    150e:	a6 a6       	std	Z+46, r10	; 0x2e
    1510:	a7 a7       	std	Z+47, r26	; 0x2f
    1512:	a7 a7       	std	Z+47, r26	; 0x2f
    1514:	a7 a6       	std	Z+47, r10	; 0x2f
    1516:	a6 a5       	ldd	r26, Z+46	; 0x2e
    1518:	a5 a6       	std	Z+45, r10	; 0x2d
    151a:	a7 a8       	ldd	r10, Z+55	; 0x37
    151c:	a9 aa       	std	Y+49, r10	; 0x31
    151e:	ab ab       	std	Y+51, r26	; 0x33
    1520:	aa aa       	std	Y+50, r10	; 0x32
    1522:	aa a9       	ldd	r26, Y+50	; 0x32
    1524:	a9 a8       	ldd	r10, Y+49	; 0x31
    1526:	a7 a6       	std	Z+47, r10	; 0x2f
    1528:	a5 a4       	ldd	r10, Z+45	; 0x2d
    152a:	a4 a4       	ldd	r10, Z+44	; 0x2c
    152c:	a3 a3       	std	Z+35, r26	; 0x23
    152e:	a5 a6       	std	Z+45, r10	; 0x2d
    1530:	a6 a7       	std	Z+46, r26	; 0x2e
    1532:	a7 a8       	ldd	r10, Z+55	; 0x37
    1534:	a7 a7       	std	Z+47, r26	; 0x2f
    1536:	a7 a7       	std	Z+47, r26	; 0x2f
    1538:	a7 a6       	std	Z+47, r10	; 0x2f
    153a:	a6 a5       	ldd	r26, Z+46	; 0x2e
    153c:	a4 a4       	ldd	r10, Z+44	; 0x2c
    153e:	a4 a4       	ldd	r10, Z+44	; 0x2c
    1540:	a5 a6       	std	Z+45, r10	; 0x2d
    1542:	a7 a8       	ldd	r10, Z+55	; 0x37
    1544:	a9 ab       	std	Y+49, r26	; 0x31
    1546:	ab ab       	std	Y+51, r26	; 0x33
    1548:	ab ab       	std	Y+51, r26	; 0x33
    154a:	aa a9       	ldd	r26, Y+50	; 0x32
    154c:	a8 a7       	std	Y+40, r26	; 0x28
    154e:	a6 a5       	ldd	r26, Z+46	; 0x2e
    1550:	a5 a5       	ldd	r26, Z+45	; 0x2d
    1552:	a6 a6       	std	Z+46, r10	; 0x2e
    1554:	a6 a7       	std	Z+46, r26	; 0x2e
    1556:	a7 a7       	std	Z+47, r26	; 0x2f
    1558:	a9 a8       	ldd	r10, Y+49	; 0x31
    155a:	a8 a8       	ldd	r10, Y+48	; 0x30
    155c:	a7 a7       	std	Z+47, r26	; 0x2f
    155e:	a7 a8       	ldd	r10, Z+55	; 0x37
    1560:	a7 a7       	std	Z+47, r26	; 0x2f
    1562:	a7 a6       	std	Z+47, r10	; 0x2f
    1564:	a5 a6       	std	Z+45, r10	; 0x2d
    1566:	a6 a7       	std	Z+46, r26	; 0x2e
    1568:	a7 a6       	std	Z+47, r10	; 0x2f
    156a:	a7 a6       	std	Z+47, r10	; 0x2f
    156c:	a6 a7       	std	Z+46, r26	; 0x2e
    156e:	a7 a8       	ldd	r10, Z+55	; 0x37
    1570:	a7 a7       	std	Z+47, r26	; 0x2f
    1572:	a7 a6       	std	Z+47, r10	; 0x2f
    1574:	a6 a7       	std	Z+46, r26	; 0x2e
    1576:	a6 a7       	std	Z+46, r26	; 0x2e
    1578:	a6 a6       	std	Z+46, r10	; 0x2e
    157a:	a7 a6       	std	Z+47, r10	; 0x2f
    157c:	a6 a7       	std	Z+46, r26	; 0x2e
    157e:	a7 a7       	std	Z+47, r26	; 0x2f
    1580:	a7 a6       	std	Z+47, r10	; 0x2f
    1582:	a6 a6       	std	Z+46, r10	; 0x2e
    1584:	a6 a7       	std	Z+46, r26	; 0x2e
    1586:	a7 a7       	std	Z+47, r26	; 0x2f
    1588:	a7 a7       	std	Z+47, r26	; 0x2f
    158a:	a7 a7       	std	Z+47, r26	; 0x2f
    158c:	a7 a7       	std	Z+47, r26	; 0x2f
    158e:	a7 a8       	ldd	r10, Z+55	; 0x37
    1590:	a7 a7       	std	Z+47, r26	; 0x2f
    1592:	a7 a7       	std	Z+47, r26	; 0x2f
    1594:	a7 a7       	std	Z+47, r26	; 0x2f
    1596:	a7 a7       	std	Z+47, r26	; 0x2f
    1598:	a7 a8       	ldd	r10, Z+55	; 0x37
    159a:	a7 a7       	std	Z+47, r26	; 0x2f
    159c:	a8 a7       	std	Y+40, r26	; 0x28
    159e:	a7 a7       	std	Z+47, r26	; 0x2f
    15a0:	a7 a7       	std	Z+47, r26	; 0x2f
    15a2:	a6 a7       	std	Z+46, r26	; 0x2e
    15a4:	a6 a6       	std	Z+46, r10	; 0x2e
    15a6:	a6 a6       	std	Z+46, r10	; 0x2e
    15a8:	a6 a6       	std	Z+46, r10	; 0x2e
    15aa:	a6 a7       	std	Z+46, r26	; 0x2e
    15ac:	a8 a9       	ldd	r26, Y+48	; 0x30
    15ae:	a9 a9       	ldd	r26, Y+49	; 0x31
    15b0:	aa aa       	std	Y+50, r10	; 0x32
    15b2:	a9 a9       	ldd	r26, Y+49	; 0x31
    15b4:	a9 a9       	ldd	r26, Y+49	; 0x31
    15b6:	a8 a7       	std	Y+40, r26	; 0x28
    15b8:	a6 a6       	std	Z+46, r10	; 0x2e
    15ba:	a6 a6       	std	Z+46, r10	; 0x2e
    15bc:	a5 a5       	ldd	r26, Z+45	; 0x2d
    15be:	a5 a6       	std	Z+45, r10	; 0x2d
    15c0:	a6 a6       	std	Z+46, r10	; 0x2e
    15c2:	a7 a7       	std	Z+47, r26	; 0x2f
    15c4:	a7 a7       	std	Z+47, r26	; 0x2f
    15c6:	a7 a6       	std	Z+47, r10	; 0x2f
    15c8:	a5 a6       	std	Z+45, r10	; 0x2d
    15ca:	a7 a6       	std	Z+47, r10	; 0x2f
    15cc:	a6 a6       	std	Z+46, r10	; 0x2e
    15ce:	a5 a5       	ldd	r26, Z+45	; 0x2d
    15d0:	a5 a5       	ldd	r26, Z+45	; 0x2d
    15d2:	a5 a6       	std	Z+45, r10	; 0x2d
    15d4:	a6 a6       	std	Z+46, r10	; 0x2e
    15d6:	a5 a5       	ldd	r26, Z+45	; 0x2d
    15d8:	a6 a6       	std	Z+46, r10	; 0x2e
    15da:	a6 a6       	std	Z+46, r10	; 0x2e
    15dc:	a5 a5       	ldd	r26, Z+45	; 0x2d
    15de:	a5 a6       	std	Z+45, r10	; 0x2d
    15e0:	a6 a6       	std	Z+46, r10	; 0x2e
    15e2:	a6 a5       	ldd	r26, Z+46	; 0x2e
    15e4:	a5 a5       	ldd	r26, Z+45	; 0x2d
    15e6:	a5 a5       	ldd	r26, Z+45	; 0x2d
    15e8:	a6 a6       	std	Z+46, r10	; 0x2e
    15ea:	a6 a6       	std	Z+46, r10	; 0x2e
    15ec:	a6 a5       	ldd	r26, Z+46	; 0x2e
    15ee:	a6 a6       	std	Z+46, r10	; 0x2e
    15f0:	a6 a5       	ldd	r26, Z+46	; 0x2e
    15f2:	a6 a6       	std	Z+46, r10	; 0x2e
    15f4:	a5 a5       	ldd	r26, Z+45	; 0x2d
    15f6:	a5 a5       	ldd	r26, Z+45	; 0x2d
    15f8:	a4 a4       	ldd	r10, Z+44	; 0x2c
    15fa:	a5 a5       	ldd	r26, Z+45	; 0x2d
    15fc:	a4 a5       	ldd	r26, Z+44	; 0x2c
    15fe:	a5 a6       	std	Z+45, r10	; 0x2d
    1600:	a5 a5       	ldd	r26, Z+45	; 0x2d
    1602:	a7 a7       	std	Z+47, r26	; 0x2f
    1604:	a7 a7       	std	Z+47, r26	; 0x2f
    1606:	a7 a8       	ldd	r10, Z+55	; 0x37
    1608:	a8 a8       	ldd	r10, Y+48	; 0x30
    160a:	a8 a8       	ldd	r10, Y+48	; 0x30
    160c:	a7 a7       	std	Z+47, r26	; 0x2f
    160e:	a7 a7       	std	Z+47, r26	; 0x2f
    1610:	a7 a7       	std	Z+47, r26	; 0x2f
    1612:	a7 a5       	ldd	r26, Z+47	; 0x2f
    1614:	a5 a6       	std	Z+45, r10	; 0x2d
    1616:	a5 a5       	ldd	r26, Z+45	; 0x2d
    1618:	a6 a6       	std	Z+46, r10	; 0x2e
    161a:	a7 a7       	std	Z+47, r26	; 0x2f
    161c:	a7 a6       	std	Z+47, r10	; 0x2f
    161e:	a6 a7       	std	Z+46, r26	; 0x2e
    1620:	a7 a8       	ldd	r10, Z+55	; 0x37
    1622:	a8 a9       	ldd	r26, Y+48	; 0x30
    1624:	a8 a8       	ldd	r10, Y+48	; 0x30
    1626:	a7 a7       	std	Z+47, r26	; 0x2f
    1628:	a8 a7       	std	Y+40, r26	; 0x28
    162a:	a7 a7       	std	Z+47, r26	; 0x2f
    162c:	a7 a7       	std	Z+47, r26	; 0x2f
    162e:	a7 a7       	std	Z+47, r26	; 0x2f
    1630:	a8 a8       	ldd	r10, Y+48	; 0x30
    1632:	a7 a7       	std	Z+47, r26	; 0x2f
    1634:	a7 a8       	ldd	r10, Z+55	; 0x37
    1636:	a7 a7       	std	Z+47, r26	; 0x2f
    1638:	a6 a6       	std	Z+46, r10	; 0x2e
    163a:	a6 a6       	std	Z+46, r10	; 0x2e
    163c:	a6 a5       	ldd	r26, Z+46	; 0x2e
    163e:	a6 a7       	std	Z+46, r26	; 0x2e
    1640:	a7 a8       	ldd	r10, Z+55	; 0x37
    1642:	a8 a8       	ldd	r10, Y+48	; 0x30
    1644:	a8 a8       	ldd	r10, Y+48	; 0x30
    1646:	a9 aa       	std	Y+49, r10	; 0x31
    1648:	aa ab       	std	Y+50, r26	; 0x32
    164a:	ab ab       	std	Y+51, r26	; 0x33
    164c:	aa aa       	std	Y+50, r10	; 0x32
    164e:	a9 a8       	ldd	r10, Y+49	; 0x31
    1650:	a7 a7       	std	Z+47, r26	; 0x2f
    1652:	a6 a6       	std	Z+46, r10	; 0x2e
    1654:	a6 a6       	std	Z+46, r10	; 0x2e
    1656:	a6 a6       	std	Z+46, r10	; 0x2e
    1658:	a6 a7       	std	Z+46, r26	; 0x2e
    165a:	a7 a8       	ldd	r10, Z+55	; 0x37
    165c:	a9 aa       	std	Y+49, r10	; 0x31
    165e:	aa aa       	std	Y+50, r10	; 0x32
    1660:	aa a9       	ldd	r26, Y+50	; 0x32
    1662:	a8 a7       	std	Y+40, r26	; 0x28
    1664:	a7 a7       	std	Z+47, r26	; 0x2f
    1666:	a7 a6       	std	Z+47, r10	; 0x2f
    1668:	a6 a5       	ldd	r26, Z+46	; 0x2e
    166a:	a5 a5       	ldd	r26, Z+45	; 0x2d
    166c:	a5 a5       	ldd	r26, Z+45	; 0x2d
    166e:	a6 a7       	std	Z+46, r26	; 0x2e
    1670:	a8 a9       	ldd	r26, Y+48	; 0x30
    1672:	a9 aa       	std	Y+49, r10	; 0x31
    1674:	aa aa       	std	Y+50, r10	; 0x32
    1676:	ab ab       	std	Y+51, r26	; 0x33
    1678:	ac ab       	std	Y+52, r26	; 0x34
    167a:	aa ab       	std	Y+50, r26	; 0x32
    167c:	ab ab       	std	Y+51, r26	; 0x33
    167e:	ab aa       	std	Y+51, r10	; 0x33
    1680:	aa a9       	ldd	r26, Y+50	; 0x32
    1682:	a9 a8       	ldd	r10, Y+49	; 0x31
    1684:	a7 a7       	std	Z+47, r26	; 0x2f
    1686:	a6 a6       	std	Z+46, r10	; 0x2e
    1688:	a5 a5       	ldd	r26, Z+45	; 0x2d
    168a:	a5 a5       	ldd	r26, Z+45	; 0x2d
    168c:	a6 a7       	std	Z+46, r26	; 0x2e
    168e:	a7 a7       	std	Z+47, r26	; 0x2f
    1690:	a6 a7       	std	Z+46, r26	; 0x2e
    1692:	a7 a7       	std	Z+47, r26	; 0x2f
    1694:	a5 a5       	ldd	r26, Z+45	; 0x2d
    1696:	a6 a5       	ldd	r26, Z+46	; 0x2e
    1698:	a5 a5       	ldd	r26, Z+45	; 0x2d
    169a:	a6 a6       	std	Z+46, r10	; 0x2e
    169c:	a7 a7       	std	Z+47, r26	; 0x2f
    169e:	a7 a8       	ldd	r10, Z+55	; 0x37
    16a0:	a9 a9       	ldd	r26, Y+49	; 0x31
    16a2:	aa aa       	std	Y+50, r10	; 0x32
    16a4:	a9 a8       	ldd	r10, Y+49	; 0x31
    16a6:	a8 a8       	ldd	r10, Y+48	; 0x30
    16a8:	a8 a9       	ldd	r26, Y+48	; 0x30
    16aa:	a9 a8       	ldd	r10, Y+49	; 0x31
    16ac:	a9 a8       	ldd	r10, Y+49	; 0x31
    16ae:	a8 a8       	ldd	r10, Y+48	; 0x30
    16b0:	a7 a6       	std	Z+47, r10	; 0x2f
    16b2:	a6 a6       	std	Z+46, r10	; 0x2e
    16b4:	a5 a5       	ldd	r26, Z+45	; 0x2d
    16b6:	a6 a6       	std	Z+46, r10	; 0x2e
    16b8:	a6 a6       	std	Z+46, r10	; 0x2e
    16ba:	a6 a6       	std	Z+46, r10	; 0x2e
    16bc:	a6 a6       	std	Z+46, r10	; 0x2e
    16be:	a6 a7       	std	Z+46, r26	; 0x2e
    16c0:	a8 a8       	ldd	r10, Y+48	; 0x30
    16c2:	a8 a8       	ldd	r10, Y+48	; 0x30
    16c4:	a7 a7       	std	Z+47, r26	; 0x2f
    16c6:	a8 a9       	ldd	r26, Y+48	; 0x30
    16c8:	a8 a8       	ldd	r10, Y+48	; 0x30
    16ca:	a8 a8       	ldd	r10, Y+48	; 0x30
    16cc:	a8 a8       	ldd	r10, Y+48	; 0x30
    16ce:	a7 a7       	std	Z+47, r26	; 0x2f
    16d0:	a7 a7       	std	Z+47, r26	; 0x2f
    16d2:	a7 a7       	std	Z+47, r26	; 0x2f
    16d4:	a7 a7       	std	Z+47, r26	; 0x2f
    16d6:	a7 a7       	std	Z+47, r26	; 0x2f
    16d8:	a7 a7       	std	Z+47, r26	; 0x2f
    16da:	a7 a7       	std	Z+47, r26	; 0x2f
    16dc:	a6 a7       	std	Z+46, r26	; 0x2e
    16de:	a5 a8       	ldd	r10, Z+53	; 0x35
    16e0:	9f 9b       	sbis	0x13, 7	; 19
    16e2:	a0 9c       	mul	r10, r0
    16e4:	99 9f       	mul	r25, r25
    16e6:	9c 8f       	std	Y+28, r25	; 0x1c
    16e8:	9b 92       	.word	0x929b	; ????
    16ea:	94 9d       	mul	r25, r4
    16ec:	97 97       	sbiw	r26, 0x27	; 39
    16ee:	94 8f       	std	Z+28, r25	; 0x1c
    16f0:	92 98       	cbi	0x12, 2	; 18
    16f2:	9d 9f       	mul	r25, r29
    16f4:	9f a0       	ldd	r9, Y+39	; 0x27
    16f6:	9f a0       	ldd	r9, Y+39	; 0x27
    16f8:	a5 a7       	std	Z+45, r26	; 0x2d
    16fa:	ab ad       	ldd	r26, Y+59	; 0x3b
    16fc:	ac aa       	std	Y+52, r10	; 0x34
    16fe:	a8 a7       	std	Y+40, r26	; 0x28
    1700:	a9 ae       	std	Y+57, r10	; 0x39
    1702:	b0 ae       	std	Z+56, r11	; 0x38
    1704:	af ae       	std	Y+63, r10	; 0x3f
    1706:	aa b1       	in	r26, 0x0a	; 10
    1708:	af ac       	ldd	r10, Y+63	; 0x3f
    170a:	b4 ac       	ldd	r11, Z+60	; 0x3c
    170c:	ac b1       	in	r26, 0x0c	; 12
    170e:	b1 b4       	in	r11, 0x21	; 33
    1710:	b5 b3       	in	r27, 0x15	; 21
    1712:	ae b4       	in	r10, 0x2e	; 46
    1714:	ba ba       	out	0x1a, r11	; 26
    1716:	bc bb       	out	0x1c, r27	; 28
    1718:	ba bd       	out	0x2a, r27	; 42
    171a:	bb be       	out	0x3b, r11	; 59
    171c:	c5 bd       	out	0x25, r28	; 37
    171e:	bc bd       	out	0x2c, r27	; 44
    1720:	be c4       	rjmp	.+2428   	; 0x209e <wavdata3+0x4a8>
    1722:	be c0       	rjmp	.+380    	; 0x18a0 <__stack+0x1041>
    1724:	c3 b3       	in	r28, 0x13	; 19
    1726:	c5 c3       	rjmp	.+1930   	; 0x1eb2 <wavdata3+0x2bc>
    1728:	b0 ba       	out	0x10, r11	; 16
    172a:	b4 af       	std	Z+60, r27	; 0x3c
    172c:	ba b0       	in	r11, 0x0a	; 10
    172e:	af ad       	ldd	r26, Y+63	; 0x3f
    1730:	a5 a6       	std	Z+45, r10	; 0x2d
    1732:	a8 ac       	ldd	r10, Y+56	; 0x38
    1734:	a7 a1       	ldd	r26, Z+39	; 0x27
    1736:	a3 9b       	sbis	0x14, 3	; 20
    1738:	a1 a9       	ldd	r26, Z+49	; 0x31
    173a:	9d a1       	ldd	r25, Y+37	; 0x25
    173c:	a1 a1       	ldd	r26, Z+33	; 0x21
    173e:	a9 9d       	mul	r26, r9
    1740:	a4 a0       	ldd	r10, Z+36	; 0x24
    1742:	a4 a7       	std	Z+44, r26	; 0x2c
    1744:	9c aa       	std	Y+52, r9	; 0x34
    1746:	a4 9e       	mul	r10, r20
    1748:	ac a7       	std	Y+44, r26	; 0x2c
    174a:	9c a8       	ldd	r9, Y+52	; 0x34
    174c:	a7 a4       	ldd	r10, Z+47	; 0x2f
    174e:	a9 a1       	ldd	r26, Y+33	; 0x21
    1750:	a6 a1       	ldd	r26, Z+38	; 0x26
    1752:	a0 a0       	ldd	r10, Z+32	; 0x20
    1754:	98 93       	.word	0x9398	; ????
    1756:	94 9a       	sbi	0x12, 4	; 18
    1758:	99 99       	sbic	0x13, 1	; 19
    175a:	8f 88       	ldd	r8, Y+23	; 0x17
    175c:	93 92       	.word	0x9293	; ????
    175e:	8f 98       	cbi	0x11, 7	; 17
    1760:	8e 8d       	ldd	r24, Y+30	; 0x1e
    1762:	96 93       	.word	0x9396	; ????
    1764:	99 9c       	mul	r9, r9
    1766:	9a 99       	sbic	0x13, 2	; 19
    1768:	9a 97       	sbiw	r26, 0x2a	; 42
    176a:	9a a1       	ldd	r25, Y+34	; 0x22
    176c:	a6 96       	adiw	r28, 0x26	; 38
    176e:	9d ab       	std	Y+53, r25	; 0x35
    1770:	9e a1       	ldd	r25, Y+38	; 0x26
    1772:	a3 9c       	mul	r10, r3
    1774:	af a5       	ldd	r26, Y+47	; 0x2f
    1776:	a5 aa       	std	Z+53, r10	; 0x35
    1778:	9f aa       	std	Y+55, r9	; 0x37
    177a:	9c 9a       	sbi	0x13, 4	; 19
    177c:	a6 9f       	mul	r26, r22
    177e:	9c 9b       	sbis	0x13, 4	; 19
    1780:	97 9c       	mul	r9, r7
    1782:	9c 95 91 95 	jmp	0x652b22 <_etext+0x64b400>
    1786:	99 96       	adiw	r26, 0x29	; 41
    1788:	97 96       	adiw	r26, 0x27	; 39
    178a:	98 a1       	ldd	r25, Y+32	; 0x20
    178c:	a0 9b       	sbis	0x14, 0	; 20
    178e:	a6 a4       	ldd	r10, Z+46	; 0x2e
    1790:	9e aa       	std	Y+54, r9	; 0x36
    1792:	a4 aa       	std	Z+52, r10	; 0x34
    1794:	b0 a8       	ldd	r11, Z+48	; 0x30
    1796:	ab ad       	ldd	r26, Y+59	; 0x3b
    1798:	b2 ad       	ldd	r27, Z+58	; 0x3a
    179a:	ab b6       	in	r10, 0x3b	; 59
    179c:	aa af       	std	Y+58, r26	; 0x3a
    179e:	ac a6       	std	Y+44, r10	; 0x2c
    17a0:	a9 9d       	mul	r26, r9
    17a2:	ac a3       	std	Y+36, r26	; 0x24
    17a4:	a4 a4       	ldd	r10, Z+44	; 0x2c
    17a6:	96 9d       	mul	r25, r6
    17a8:	9a 9f       	mul	r25, r26
    17aa:	97 91       	elpm	r25, Z+
    17ac:	9f 96       	adiw	r26, 0x2f	; 47
    17ae:	9b 9e       	mul	r9, r27
    17b0:	9a ab       	std	Y+50, r25	; 0x32
    17b2:	9f 9f       	mul	r25, r31
    17b4:	ab a3       	std	Y+35, r26	; 0x23
    17b6:	af ab       	std	Y+55, r26	; 0x37
    17b8:	b0 bc       	out	0x20, r11	; 32
    17ba:	ac af       	std	Y+60, r26	; 0x3c
    17bc:	bc b7       	in	r27, 0x3c	; 60
    17be:	cb b8       	out	0x0b, r12	; 11
    17c0:	9d a5       	ldd	r25, Y+45	; 0x2d
    17c2:	a9 ab       	std	Y+49, r26	; 0x31
    17c4:	a7 97       	sbiw	r28, 0x27	; 39
    17c6:	9b a0       	ldd	r9, Y+35	; 0x23
    17c8:	9b 9d       	mul	r25, r11
    17ca:	9d 9d       	mul	r25, r13
    17cc:	97 92       	.word	0x9297	; ????
    17ce:	96 92       	.word	0x9296	; ????
    17d0:	9a 9d       	mul	r25, r10
    17d2:	95 9c       	mul	r9, r5
    17d4:	9e a6       	std	Y+46, r9	; 0x2e
    17d6:	a5 a7       	std	Z+45, r26	; 0x2d
    17d8:	af ad       	ldd	r26, Y+63	; 0x3f
    17da:	b4 b7       	in	r27, 0x34	; 52
    17dc:	bd d3       	rcall	.+1914   	; 0x1f58 <wavdata3+0x362>
    17de:	bc e1       	ldi	r27, 0x1C	; 28
    17e0:	ac 79       	andi	r26, 0x9C	; 156
    17e2:	be af       	std	Y+62, r27	; 0x3e
    17e4:	ab a8       	ldd	r10, Y+51	; 0x33
    17e6:	87 a5       	ldd	r24, Z+47	; 0x2f
    17e8:	ad 99       	sbic	0x15, 5	; 21
    17ea:	a9 a4       	ldd	r10, Y+41	; 0x29
    17ec:	a1 a3       	std	Z+33, r26	; 0x21
    17ee:	98 9f       	mul	r25, r24
    17f0:	8f 96       	adiw	r24, 0x2f	; 47
    17f2:	a8 9a       	sbi	0x15, 0	; 21
    17f4:	9e 9f       	mul	r25, r30
    17f6:	a6 b0       	in	r10, 0x06	; 6
    17f8:	ab bc       	out	0x2b, r10	; 43
    17fa:	c2 c0       	rjmp	.+388    	; 0x1980 <__stack+0x1121>
    17fc:	d7 cc       	rjmp	.-1618   	; 0x11ac <__stack+0x94d>
    17fe:	ed b8       	out	0x0d, r14	; 13
    1800:	62 af       	std	Z+58, r22	; 0x3a
    1802:	b4 b4       	in	r11, 0x24	; 36
    1804:	bb 7e       	andi	r27, 0xEB	; 235
    1806:	96 ac       	ldd	r9, Z+62	; 0x3e
    1808:	9e b3       	in	r25, 0x1e	; 30
    180a:	a3 97       	sbiw	r28, 0x23	; 35
    180c:	a0 97       	sbiw	r28, 0x20	; 32
    180e:	9d 92       	st	X+, r9
    1810:	8d a6       	std	Y+45, r8	; 0x2d
    1812:	9d 97       	sbiw	r26, 0x2d	; 45
    1814:	9f 9e       	mul	r9, r31
    1816:	af ac       	ldd	r10, Y+63	; 0x3f
    1818:	b5 c2       	rjmp	.+1386   	; 0x1d84 <wavdata3+0x18e>
    181a:	d3 d9       	rcall	.-3162   	; 0xbc2 <__stack+0x363>
    181c:	e6 c9       	rjmp	.-3124   	; 0xbea <__stack+0x38b>
    181e:	53 98       	cbi	0x0a, 3	; 10
    1820:	bc b5       	in	r27, 0x2c	; 44
    1822:	d1 8c       	ldd	r13, Z+25	; 0x19
    1824:	82 a7       	std	Z+42, r24	; 0x2a
    1826:	9e bc       	out	0x2e, r9	; 46
    1828:	b6 98       	cbi	0x16, 6	; 22
    182a:	9d 95 9f a4 	jmp	0x67493e <_etext+0x66d21c>
    182e:	92 a3       	std	Z+34, r25	; 0x22
    1830:	a5 a0       	ldd	r10, Z+37	; 0x25
    1832:	a7 a0       	ldd	r10, Z+39	; 0x27
    1834:	ac ba       	out	0x1c, r10	; 28
    1836:	bd cd       	rjmp	.-1158   	; 0x13b2 <__stack+0xb53>
    1838:	de d8       	rcall	.-3652   	; 0x9f6 <__stack+0x197>
    183a:	f7 86       	std	Z+15, r15	; 0x0f
    183c:	6c b4       	in	r6, 0x2c	; 44
    183e:	9e d5       	rcall	.+2876   	; 0x237c <wavdata3+0x786>
    1840:	c1 88       	ldd	r12, Z+17	; 0x11
    1842:	9d 88       	ldd	r9, Y+21	; 0x15
    1844:	9f c3       	rjmp	.+1854   	; 0x1f84 <wavdata3+0x38e>
    1846:	a7 a8       	ldd	r10, Z+55	; 0x37
    1848:	97 8d       	ldd	r25, Z+31	; 0x1f
    184a:	a0 8f       	std	Z+24, r26	; 0x18
    184c:	96 a5       	ldd	r25, Z+46	; 0x2e
    184e:	9c a3       	std	Y+36, r25	; 0x24
    1850:	a0 9e       	mul	r10, r16
    1852:	af b7       	in	r26, 0x3f	; 63
    1854:	c8 dd       	rcall	.-1136   	; 0x13e6 <__stack+0xb87>
    1856:	e9 e9       	ldi	r30, 0x99	; 153
    1858:	75 7e       	andi	r23, 0xE5	; 229
    185a:	94 9d       	mul	r25, r4
    185c:	db b8       	out	0x0b, r13	; 11
    185e:	a5 9a       	sbi	0x14, 5	; 20
    1860:	77 97       	sbiw	r30, 0x17	; 23
    1862:	a9 a8       	ldd	r10, Y+49	; 0x31
    1864:	b3 99       	sbic	0x16, 3	; 22
    1866:	8d 8f       	std	Y+29, r24	; 0x1d
    1868:	87 95       	ror	r24
    186a:	a0 9e       	mul	r10, r16
    186c:	a1 9f       	mul	r26, r17
    186e:	9e a8       	ldd	r9, Y+54	; 0x36
    1870:	af c8       	rjmp	.-3746   	; 0x9d0 <__stack+0x171>
    1872:	d7 f6       	brid	.-76     	; 0x1828 <__stack+0xfc9>
    1874:	ab 7d       	andi	r26, 0xDB	; 219
    1876:	89 75       	andi	r24, 0x59	; 89
    1878:	b3 bc       	out	0x23, r11	; 35
    187a:	b6 be       	out	0x36, r11	; 54
    187c:	90 8c       	ldd	r9, Z+24	; 0x18
    187e:	8f 8d       	ldd	r24, Y+31	; 0x1f
    1880:	a5 a4       	ldd	r10, Z+45	; 0x2d
    1882:	a0 9a       	sbi	0x14, 0	; 20
    1884:	8a 91       	ld	r24, -Y
    1886:	94 98       	cbi	0x12, 4	; 18
    1888:	a3 a7       	std	Z+43, r26	; 0x2b
    188a:	ad af       	std	Y+61, r26	; 0x3d
    188c:	b0 bf       	out	0x30, r27	; 48
    188e:	cf e2       	ldi	r28, 0x2F	; 47
    1890:	a6 a3       	std	Z+38, r26	; 0x26
    1892:	88 7d       	andi	r24, 0xD8	; 216
    1894:	a3 9e       	mul	r10, r19
    1896:	b7 ba       	out	0x17, r11	; 23
    1898:	a7 a8       	ldd	r10, Z+55	; 0x37
    189a:	95 92       	.word	0x9295	; ????
    189c:	93 92       	.word	0x9293	; ????
    189e:	9e 9c       	mul	r9, r14
    18a0:	9e 9e       	mul	r9, r30
    18a2:	97 9a       	sbi	0x12, 7	; 18
    18a4:	9f a7       	std	Y+47, r25	; 0x2f
    18a6:	b2 b4       	in	r11, 0x22	; 34
    18a8:	c0 c3       	rjmp	.+1920   	; 0x202a <wavdata3+0x434>
    18aa:	da c0       	rjmp	.+436    	; 0x1a60 <__stack+0x1201>
    18ac:	a7 a4       	ldd	r10, Z+47	; 0x2f
    18ae:	82 97       	sbiw	r24, 0x22	; 34
    18b0:	96 a1       	ldd	r25, Z+38	; 0x26
    18b2:	b1 ad       	ldd	r27, Z+57	; 0x39
    18b4:	b3 ac       	ldd	r11, Z+59	; 0x3b
    18b6:	a4 9b       	sbis	0x14, 4	; 20
    18b8:	92 95       	swap	r25
    18ba:	99 9d       	mul	r25, r9
    18bc:	a6 a5       	ldd	r26, Z+46	; 0x2e
    18be:	a4 a3       	std	Z+36, r26	; 0x24
    18c0:	a0 a8       	ldd	r10, Z+48	; 0x30
    18c2:	b0 b3       	in	r27, 0x10	; 16
    18c4:	bf c0       	rjmp	.+382    	; 0x1a44 <__stack+0x11e5>
    18c6:	cf b5       	in	r28, 0x2f	; 47
    18c8:	b2 9e       	mul	r11, r18
    18ca:	90 97       	sbiw	r26, 0x20	; 32
    18cc:	90 9f       	mul	r25, r16
    18ce:	a5 ab       	std	Z+53, r26	; 0x35
    18d0:	af ac       	ldd	r10, Y+63	; 0x3f
    18d2:	aa a1       	ldd	r26, Y+34	; 0x22
    18d4:	9a 93       	st	-Y, r25
    18d6:	96 98       	cbi	0x12, 6	; 18
    18d8:	a1 a8       	ldd	r10, Z+49	; 0x31
    18da:	a8 a8       	ldd	r10, Y+48	; 0x30
    18dc:	a4 a6       	std	Z+44, r10	; 0x2c
    18de:	aa ae       	std	Y+58, r10	; 0x3a
    18e0:	bb bd       	out	0x2b, r27	; 43
    18e2:	d1 c0       	rjmp	.+418    	; 0x1a86 <__stack+0x1227>
    18e4:	b5 a8       	ldd	r11, Z+53	; 0x35
    18e6:	91 97       	sbiw	r26, 0x21	; 33
    18e8:	8d 9c       	mul	r8, r13
    18ea:	a0 a9       	ldd	r26, Z+48	; 0x30
    18ec:	b0 ae       	std	Z+56, r11	; 0x38
    18ee:	ad a5       	ldd	r26, Y+45	; 0x2d
    18f0:	9e 94 94 95 	call	0x252b28 <_etext+0x24b406>
    18f4:	9c a4       	ldd	r9, Y+44	; 0x2c
    18f6:	a6 aa       	std	Z+54, r10	; 0x36
    18f8:	a6 a6       	std	Z+46, r10	; 0x2e
    18fa:	a8 a9       	ldd	r26, Y+48	; 0x30
    18fc:	b6 bb       	out	0x16, r27	; 22
    18fe:	d3 c9       	rjmp	.-3162   	; 0xca6 <__stack+0x447>
    1900:	b7 af       	std	Z+63, r27	; 0x3f
    1902:	8c 92       	st	X, r8
    1904:	86 98       	cbi	0x10, 6	; 16
    1906:	a1 af       	std	Z+57, r26	; 0x39
    1908:	b3 b1       	in	r27, 0x03	; 3
    190a:	ab 9e       	mul	r10, r27
    190c:	98 91       	.word	0x9198	; ????
    190e:	91 96       	adiw	r26, 0x21	; 33
    1910:	9b a3       	std	Y+35, r25	; 0x23
    1912:	a5 a5       	ldd	r26, Z+45	; 0x2d
    1914:	a3 a4       	ldd	r10, Z+43	; 0x2b
    1916:	a9 ac       	ldd	r10, Y+57	; 0x39
    1918:	bb c0       	rjmp	.+374    	; 0x1a90 <__stack+0x1231>
    191a:	da d6       	rcall	.+3508   	; 0x26d0 <wavdata3+0xada>
    191c:	b6 b0       	in	r11, 0x06	; 6
    191e:	84 90       	lpm	r8, Z
    1920:	84 9e       	mul	r8, r20
    1922:	a9 ba       	out	0x19, r10	; 25
    1924:	bb b5       	in	r27, 0x2b	; 43
    1926:	a8 98       	cbi	0x15, 0	; 21
    1928:	90 8e       	std	Z+24, r9	; 0x18
    192a:	98 98       	cbi	0x13, 0	; 19
    192c:	a0 a5       	ldd	r26, Z+40	; 0x28
    192e:	a0 9f       	mul	r26, r16
    1930:	9a 9d       	mul	r25, r10
    1932:	a9 ae       	std	Y+57, r10	; 0x39
    1934:	c3 c8       	rjmp	.-3706   	; 0xabc <__stack+0x25d>
    1936:	eb d3       	rcall	.+2006   	; 0x210e <wavdata3+0x518>
    1938:	b2 a0       	ldd	r11, Z+34	; 0x22
    193a:	79 8e       	std	Y+25, r7	; 0x19
    193c:	8c af       	std	Y+60, r24	; 0x3c
    193e:	b4 c2       	rjmp	.+1384   	; 0x1ea8 <wavdata3+0x2b2>
    1940:	b0 a8       	ldd	r11, Z+48	; 0x30
    1942:	96 93       	.word	0x9396	; ????
    1944:	93 9b       	sbis	0x12, 3	; 18
    1946:	a7 a3       	std	Z+39, r26	; 0x27
    1948:	a1 9a       	sbi	0x14, 1	; 20
    194a:	99 98       	cbi	0x13, 1	; 19
    194c:	9c a3       	std	Y+36, r25	; 0x24
    194e:	b0 b3       	in	r27, 0x10	; 16
    1950:	c3 c2       	rjmp	.+1414   	; 0x1ed8 <wavdata3+0x2e2>
    1952:	e0 b7       	in	r30, 0x30	; 48
    1954:	a4 94       	.word	0x94a4	; ????
    1956:	88 a5       	ldd	r24, Y+40	; 0x28
    1958:	a4 b6       	in	r10, 0x34	; 52
    195a:	aa a9       	ldd	r26, Y+50	; 0x32
    195c:	98 9b       	sbis	0x13, 0	; 19
    195e:	96 9f       	mul	r25, r22
    1960:	9f a3       	std	Y+39, r25	; 0x27
    1962:	9d 98       	cbi	0x13, 5	; 19
    1964:	98 97       	sbiw	r26, 0x28	; 40
    1966:	9c 9f       	mul	r25, r28
    1968:	a5 a9       	ldd	r26, Z+53	; 0x35
    196a:	ae ac       	ldd	r10, Y+62	; 0x3e
    196c:	bd bb       	out	0x1d, r27	; 29
    196e:	dd bd       	out	0x2d, r29	; 45
    1970:	a4 97       	sbiw	r28, 0x24	; 36
    1972:	88 a4       	ldd	r8, Y+40	; 0x28
    1974:	a5 b6       	in	r10, 0x35	; 53
    1976:	aa a8       	ldd	r10, Y+50	; 0x32
    1978:	96 9a       	sbi	0x12, 6	; 18
    197a:	95 9f       	mul	r25, r21
    197c:	9f a5       	ldd	r25, Y+47	; 0x2f
    197e:	a0 9a       	sbi	0x14, 0	; 20
    1980:	98 93       	.word	0x9398	; ????
    1982:	9c a0       	ldd	r9, Y+36	; 0x24
    1984:	a7 a6       	std	Z+47, r10	; 0x2f
    1986:	a9 aa       	std	Y+49, r10	; 0x31
    1988:	b0 bf       	out	0x30, r27	; 48
    198a:	c5 e1       	ldi	r28, 0x15	; 21
    198c:	9f a7       	std	Y+47, r25	; 0x2f
    198e:	82 9e       	mul	r8, r18
    1990:	a3 b6       	in	r10, 0x33	; 51
    1992:	b0 ac       	ldd	r11, Z+56	; 0x38
    1994:	9e 98       	cbi	0x13, 6	; 19
    1996:	99 98       	cbi	0x13, 1	; 19
    1998:	9f a1       	ldd	r25, Y+39	; 0x27
    199a:	a8 a1       	ldd	r26, Y+32	; 0x20
    199c:	98 91       	.word	0x9198	; ????
    199e:	94 9c       	mul	r9, r4
    19a0:	a6 a6       	std	Z+46, r10	; 0x2e
    19a2:	a3 a5       	ldd	r26, Z+43	; 0x2b
    19a4:	aa ab       	std	Y+50, r26	; 0x32
    19a6:	c2 be       	out	0x32, r12	; 50
    19a8:	e4 a8       	ldd	r14, Z+52	; 0x34
    19aa:	a1 89       	ldd	r26, Z+17	; 0x11
    19ac:	94 a7       	std	Z+44, r25	; 0x2c
    19ae:	ad b3       	in	r26, 0x1d	; 29
    19b0:	a8 a0       	ldd	r10, Y+32	; 0x20
    19b2:	94 97       	sbiw	r26, 0x24	; 36
    19b4:	93 9e       	mul	r9, r19
    19b6:	9f a8       	ldd	r9, Y+55	; 0x37
    19b8:	a5 9d       	mul	r26, r5
    19ba:	99 93       	st	Y+, r25
    19bc:	94 9a       	sbi	0x12, 4	; 18
    19be:	9e a1       	ldd	r25, Y+38	; 0x26
    19c0:	9d a0       	ldd	r9, Y+37	; 0x25
    19c2:	9e a8       	ldd	r9, Y+54	; 0x36
    19c4:	b3 bf       	out	0x33, r27	; 51
    19c6:	c8 d8       	rcall	.-3696   	; 0xb58 <__stack+0x2f9>
    19c8:	97 a8       	ldd	r9, Z+55	; 0x37
    19ca:	83 a9       	ldd	r24, Z+51	; 0x33
    19cc:	a3 b4       	in	r10, 0x23	; 35
    19ce:	a7 a4       	ldd	r10, Z+47	; 0x2f
    19d0:	95 94       	asr	r9
    19d2:	93 98       	cbi	0x12, 3	; 18
    19d4:	a3 a4       	ldd	r10, Z+43	; 0x2b
    19d6:	ab a4       	ldd	r10, Y+43	; 0x2b
    19d8:	9d 97       	sbiw	r26, 0x2d	; 45
    19da:	95 9a       	sbi	0x12, 5	; 18
    19dc:	9e 9c       	mul	r9, r14
    19de:	9c 98       	cbi	0x13, 4	; 19
    19e0:	99 9c       	mul	r9, r9
    19e2:	a5 ad       	ldd	r26, Z+61	; 0x3d
    19e4:	bc c0       	rjmp	.+376    	; 0x1b5e <__stack+0x12ff>
    19e6:	d4 ca       	rjmp	.-2648   	; 0xf90 <__stack+0x731>
    19e8:	9b a8       	ldd	r9, Y+51	; 0x33
    19ea:	84 ab       	std	Z+52, r24	; 0x34
    19ec:	9a b0       	in	r9, 0x0a	; 10
    19ee:	9f a6       	std	Y+47, r9	; 0x2f
    19f0:	95 9a       	sbi	0x12, 5	; 18
    19f2:	94 9a       	sbi	0x12, 4	; 18
    19f4:	a0 a1       	ldd	r26, Z+32	; 0x20
    19f6:	ad a6       	std	Y+45, r10	; 0x2d
    19f8:	a5 97       	sbiw	r28, 0x25	; 37
    19fa:	97 94       	ror	r9
    19fc:	99 98       	cbi	0x13, 1	; 19
    19fe:	9b 98       	cbi	0x13, 3	; 19
    1a00:	9b 9f       	mul	r25, r27
    1a02:	a7 ab       	std	Z+55, r26	; 0x37
    1a04:	b2 b8       	out	0x02, r11	; 2
    1a06:	bd ca       	rjmp	.-2694   	; 0xf82 <__stack+0x723>
    1a08:	c2 a0       	ldd	r12, Z+34	; 0x22
    1a0a:	a9 8a       	std	Y+17, r10	; 0x11
    1a0c:	a1 98       	cbi	0x14, 1	; 20
    1a0e:	a3 a7       	std	Z+43, r26	; 0x2b
    1a10:	a0 a3       	std	Z+32, r26	; 0x20
    1a12:	9a 9d       	mul	r25, r10
    1a14:	9d a4       	ldd	r9, Y+45	; 0x2d
    1a16:	a5 a7       	std	Z+45, r26	; 0x2d
    1a18:	a4 a3       	std	Z+36, r26	; 0x24
    1a1a:	a0 9e       	mul	r10, r16
    1a1c:	a1 a0       	ldd	r10, Z+33	; 0x21
    1a1e:	a1 9d       	mul	r26, r1
    1a20:	9c 9b       	sbis	0x13, 4	; 19
    1a22:	9c a0       	ldd	r9, Y+36	; 0x24
    1a24:	a5 a7       	std	Z+45, r26	; 0x2d
    1a26:	a8 a9       	ldd	r26, Y+48	; 0x30
    1a28:	ab ae       	std	Y+59, r10	; 0x3b
    1a2a:	b1 b4       	in	r11, 0x21	; 33
    1a2c:	b3 b1       	in	r27, 0x03	; 3
    1a2e:	a9 a4       	ldd	r10, Y+41	; 0x29
    1a30:	9e 9a       	sbi	0x13, 6	; 19
    1a32:	9d 9c       	mul	r9, r13
    1a34:	9e 9f       	mul	r25, r30
    1a36:	a0 a3       	std	Z+32, r26	; 0x20
    1a38:	a3 a3       	std	Z+35, r26	; 0x23
    1a3a:	a5 a5       	ldd	r26, Z+45	; 0x2d
    1a3c:	a6 a6       	std	Z+46, r10	; 0x2e
    1a3e:	a7 a5       	ldd	r26, Z+47	; 0x2f
    1a40:	a1 a1       	ldd	r26, Z+33	; 0x21
    1a42:	9f 9d       	mul	r25, r15
    1a44:	9d 9d       	mul	r25, r13
    1a46:	9d 9f       	mul	r25, r29
    1a48:	a3 a6       	std	Z+43, r10	; 0x2b
    1a4a:	a8 a9       	ldd	r26, Y+48	; 0x30
    1a4c:	a9 ab       	std	Y+49, r26	; 0x31
    1a4e:	ad b1       	in	r26, 0x0d	; 13
    1a50:	b2 b0       	in	r11, 0x02	; 2
    1a52:	ab a5       	ldd	r26, Y+43	; 0x2b
    1a54:	a0 99       	sbic	0x14, 0	; 20
    1a56:	99 9a       	sbi	0x13, 1	; 19
    1a58:	9a 9d       	mul	r25, r10
    1a5a:	9d 9f       	mul	r25, r29
    1a5c:	a0 a0       	ldd	r10, Z+32	; 0x20
    1a5e:	a1 a4       	ldd	r10, Z+41	; 0x29
    1a60:	a5 a6       	std	Z+45, r10	; 0x2d
    1a62:	a7 a7       	std	Z+47, r26	; 0x2f
    1a64:	a4 a0       	ldd	r10, Z+36	; 0x24
    1a66:	9d 9c       	mul	r9, r13
    1a68:	9a 99       	sbic	0x13, 2	; 19
    1a6a:	9a 9b       	sbis	0x13, 2	; 19
    1a6c:	9d 9f       	mul	r25, r29
    1a6e:	a3 a6       	std	Z+43, r10	; 0x2b
    1a70:	a8 aa       	std	Y+48, r10	; 0x30
    1a72:	ab aa       	std	Y+51, r10	; 0x33
    1a74:	ab ac       	ldd	r10, Y+59	; 0x3b
    1a76:	ae ae       	std	Y+62, r10	; 0x3e
    1a78:	ac a8       	ldd	r10, Y+52	; 0x34
    1a7a:	a1 9f       	mul	r26, r17
    1a7c:	9a 9a       	sbi	0x13, 2	; 19
    1a7e:	9c 9c       	mul	r9, r12
    1a80:	a1 a1       	ldd	r26, Z+33	; 0x21
    1a82:	a4 a4       	ldd	r10, Z+44	; 0x2c
    1a84:	a3 a4       	ldd	r10, Z+43	; 0x2b
    1a86:	a3 a5       	ldd	r26, Z+43	; 0x2b
    1a88:	a5 a4       	ldd	r10, Z+45	; 0x2d
    1a8a:	a5 a3       	std	Z+37, r26	; 0x25
    1a8c:	a3 a1       	ldd	r26, Z+35	; 0x23
    1a8e:	9f 9d       	mul	r25, r15
    1a90:	9c 9c       	mul	r9, r12
    1a92:	9e 9f       	mul	r25, r30
    1a94:	a0 a1       	ldd	r26, Z+32	; 0x20
    1a96:	a1 a4       	ldd	r10, Z+41	; 0x29
    1a98:	a4 a5       	ldd	r26, Z+44	; 0x2c
    1a9a:	a6 a6       	std	Z+46, r10	; 0x2e
    1a9c:	a7 a8       	ldd	r10, Z+55	; 0x37
    1a9e:	a8 a9       	ldd	r26, Y+48	; 0x30
    1aa0:	aa ad       	ldd	r26, Y+58	; 0x3a
    1aa2:	ad ac       	ldd	r10, Y+61	; 0x3d
    1aa4:	a8 a3       	std	Y+32, r26	; 0x20
    1aa6:	a0 9e       	mul	r10, r16
    1aa8:	9e 9e       	mul	r9, r30
    1aaa:	9f a0       	ldd	r9, Y+39	; 0x27
    1aac:	a0 a0       	ldd	r10, Z+32	; 0x20
    1aae:	a0 a1       	ldd	r26, Z+32	; 0x20
    1ab0:	a4 a4       	ldd	r10, Z+44	; 0x2c
    1ab2:	a4 a4       	ldd	r10, Z+44	; 0x2c
    1ab4:	a3 a3       	std	Z+35, r26	; 0x23
    1ab6:	a1 a3       	std	Z+33, r26	; 0x21
    1ab8:	a1 a0       	ldd	r10, Z+33	; 0x21
    1aba:	9f 9d       	mul	r25, r15
    1abc:	9e 9f       	mul	r25, r30
    1abe:	a0 a3       	std	Z+32, r26	; 0x20
    1ac0:	a3 a5       	ldd	r26, Z+43	; 0x2b
    1ac2:	a5 a5       	ldd	r26, Z+45	; 0x2d
    1ac4:	a5 a5       	ldd	r26, Z+45	; 0x2d
    1ac6:	a5 a5       	ldd	r26, Z+45	; 0x2d
    1ac8:	a5 a5       	ldd	r26, Z+45	; 0x2d
    1aca:	a4 a5       	ldd	r26, Z+44	; 0x2c
    1acc:	a5 a5       	ldd	r26, Z+45	; 0x2d
    1ace:	a6 a5       	ldd	r26, Z+46	; 0x2e
    1ad0:	a5 a5       	ldd	r26, Z+45	; 0x2d
    1ad2:	a4 a5       	ldd	r26, Z+44	; 0x2c
    1ad4:	a5 a4       	ldd	r10, Z+45	; 0x2d
    1ad6:	a3 a1       	ldd	r26, Z+35	; 0x23
    1ad8:	a0 9f       	mul	r26, r16
    1ada:	9f a0       	ldd	r9, Y+39	; 0x27
    1adc:	a0 a1       	ldd	r26, Z+32	; 0x20
    1ade:	a0 a1       	ldd	r26, Z+32	; 0x20
    1ae0:	a0 a1       	ldd	r26, Z+32	; 0x20
    1ae2:	a3 a4       	ldd	r10, Z+43	; 0x2b
    1ae4:	a5 a5       	ldd	r26, Z+45	; 0x2d
    1ae6:	a4 a3       	std	Z+36, r26	; 0x24
    1ae8:	a3 a3       	std	Z+35, r26	; 0x23
    1aea:	a3 a4       	ldd	r10, Z+43	; 0x2b
    1aec:	a4 a3       	std	Z+36, r26	; 0x24
    1aee:	a1 a1       	ldd	r26, Z+33	; 0x21
    1af0:	a3 a4       	ldd	r10, Z+43	; 0x2b
    1af2:	a5 a5       	ldd	r26, Z+45	; 0x2d
    1af4:	a5 a4       	ldd	r10, Z+45	; 0x2d
    1af6:	a4 a5       	ldd	r26, Z+44	; 0x2c
    1af8:	a5 a5       	ldd	r26, Z+45	; 0x2d
    1afa:	a6 a6       	std	Z+46, r10	; 0x2e
    1afc:	a5 a5       	ldd	r26, Z+45	; 0x2d
    1afe:	a5 a5       	ldd	r26, Z+45	; 0x2d
    1b00:	a6 a6       	std	Z+46, r10	; 0x2e
    1b02:	a6 a6       	std	Z+46, r10	; 0x2e
    1b04:	a5 a4       	ldd	r10, Z+45	; 0x2d
    1b06:	a4 a4       	ldd	r10, Z+44	; 0x2c
    1b08:	a4 a4       	ldd	r10, Z+44	; 0x2c
    1b0a:	a4 a4       	ldd	r10, Z+44	; 0x2c
    1b0c:	a4 a4       	ldd	r10, Z+44	; 0x2c
    1b0e:	a4 a5       	ldd	r26, Z+44	; 0x2c
    1b10:	a6 a6       	std	Z+46, r10	; 0x2e
    1b12:	a6 a5       	ldd	r26, Z+46	; 0x2e
    1b14:	a5 a4       	ldd	r10, Z+45	; 0x2d
    1b16:	a4 a4       	ldd	r10, Z+44	; 0x2c
    1b18:	a4 a3       	std	Z+36, r26	; 0x24
    1b1a:	a1 a3       	std	Z+33, r26	; 0x21
    1b1c:	a4 a4       	ldd	r10, Z+44	; 0x2c
    1b1e:	a6 a6       	std	Z+46, r10	; 0x2e
    1b20:	a6 a5       	ldd	r26, Z+46	; 0x2e
    1b22:	a4 a5       	ldd	r26, Z+44	; 0x2c
    1b24:	a5 a5       	ldd	r26, Z+45	; 0x2d
    1b26:	a6 a6       	std	Z+46, r10	; 0x2e
    1b28:	a5 a5       	ldd	r26, Z+45	; 0x2d
    1b2a:	a4 a3       	std	Z+36, r26	; 0x24
    1b2c:	a4 a5       	ldd	r26, Z+44	; 0x2c
    1b2e:	a6 a6       	std	Z+46, r10	; 0x2e
    1b30:	a7 a7       	std	Z+47, r26	; 0x2f
    1b32:	a6 a6       	std	Z+46, r10	; 0x2e
    1b34:	a5 a5       	ldd	r26, Z+45	; 0x2d
    1b36:	a4 a4       	ldd	r10, Z+44	; 0x2c
    1b38:	a5 a4       	ldd	r10, Z+45	; 0x2d
    1b3a:	a4 a5       	ldd	r26, Z+44	; 0x2c
    1b3c:	a6 a6       	std	Z+46, r10	; 0x2e
    1b3e:	a7 a6       	std	Z+47, r10	; 0x2f
    1b40:	a5 a6       	std	Z+45, r10	; 0x2d
    1b42:	a7 a7       	std	Z+47, r26	; 0x2f
    1b44:	a7 a7       	std	Z+47, r26	; 0x2f
    1b46:	a5 a5       	ldd	r26, Z+45	; 0x2d
    1b48:	a5 a6       	std	Z+45, r10	; 0x2d
    1b4a:	a6 a6       	std	Z+46, r10	; 0x2e
    1b4c:	a6 a6       	std	Z+46, r10	; 0x2e
    1b4e:	a6 a7       	std	Z+46, r26	; 0x2e
    1b50:	a7 a7       	std	Z+47, r26	; 0x2f
    1b52:	a7 a6       	std	Z+47, r10	; 0x2f
    1b54:	a6 a6       	std	Z+46, r10	; 0x2e
    1b56:	a7 a7       	std	Z+47, r26	; 0x2f
    1b58:	a7 a7       	std	Z+47, r26	; 0x2f
    1b5a:	a6 a6       	std	Z+46, r10	; 0x2e
    1b5c:	a7 a7       	std	Z+47, r26	; 0x2f
    1b5e:	a7 a7       	std	Z+47, r26	; 0x2f
    1b60:	a6 a6       	std	Z+46, r10	; 0x2e
    1b62:	a6 a6       	std	Z+46, r10	; 0x2e
    1b64:	a7 a7       	std	Z+47, r26	; 0x2f
    1b66:	a7 a7       	std	Z+47, r26	; 0x2f
    1b68:	a7 a7       	std	Z+47, r26	; 0x2f
    1b6a:	a7 a8       	ldd	r10, Z+55	; 0x37
    1b6c:	a8 a8       	ldd	r10, Y+48	; 0x30
    1b6e:	a8 a8       	ldd	r10, Y+48	; 0x30
    1b70:	a8 a7       	std	Y+40, r26	; 0x28
    1b72:	a7 a7       	std	Z+47, r26	; 0x2f
    1b74:	a6 a6       	std	Z+46, r10	; 0x2e
    1b76:	a6 a6       	std	Z+46, r10	; 0x2e
    1b78:	a6 a7       	std	Z+46, r26	; 0x2e
    1b7a:	a8 a8       	ldd	r10, Y+48	; 0x30
    1b7c:	a8 a7       	std	Y+40, r26	; 0x28
    1b7e:	a7 a8       	ldd	r10, Z+55	; 0x37
    1b80:	a8 a7       	std	Y+40, r26	; 0x28
    1b82:	a6 a6       	std	Z+46, r10	; 0x2e
    1b84:	a6 a6       	std	Z+46, r10	; 0x2e
    1b86:	a7 a7       	std	Z+47, r26	; 0x2f
    1b88:	a7 a7       	std	Z+47, r26	; 0x2f
    1b8a:	a7 a7       	std	Z+47, r26	; 0x2f
    1b8c:	a8 a7       	std	Y+40, r26	; 0x28
    1b8e:	a7 a6       	std	Z+47, r10	; 0x2f
    1b90:	a6 a6       	std	Z+46, r10	; 0x2e
    1b92:	a6 a6       	std	Z+46, r10	; 0x2e
    1b94:	a6 a6       	std	Z+46, r10	; 0x2e
    1b96:	a6 a7       	std	Z+46, r26	; 0x2e
    1b98:	a6 a7       	std	Z+46, r26	; 0x2e
    1b9a:	a7 a8       	ldd	r10, Z+55	; 0x37
    1b9c:	a9 a7       	std	Y+41, r26	; 0x29
    1b9e:	a7 a7       	std	Z+47, r26	; 0x2f
    1ba0:	a7 a7       	std	Z+47, r26	; 0x2f
    1ba2:	a7 a8       	ldd	r10, Z+55	; 0x37
    1ba4:	a7 a7       	std	Z+47, r26	; 0x2f
    1ba6:	a7 a7       	std	Z+47, r26	; 0x2f
    1ba8:	a8 a8       	ldd	r10, Y+48	; 0x30
    1baa:	a8 a8       	ldd	r10, Y+48	; 0x30
    1bac:	a8 a7       	std	Y+40, r26	; 0x28
    1bae:	a7 a8       	ldd	r10, Z+55	; 0x37
    1bb0:	a8 a7       	std	Y+40, r26	; 0x28
    1bb2:	a8 a7       	std	Y+40, r26	; 0x28
    1bb4:	a6 a6       	std	Z+46, r10	; 0x2e
    1bb6:	a7 a7       	std	Z+47, r26	; 0x2f
    1bb8:	a8 a8       	ldd	r10, Y+48	; 0x30
    1bba:	a8 a7       	std	Y+40, r26	; 0x28
    1bbc:	a7 a7       	std	Z+47, r26	; 0x2f
    1bbe:	a7 a7       	std	Z+47, r26	; 0x2f
    1bc0:	a7 a7       	std	Z+47, r26	; 0x2f
    1bc2:	a8 a8       	ldd	r10, Y+48	; 0x30
    1bc4:	a7 a7       	std	Z+47, r26	; 0x2f
    1bc6:	a6 a6       	std	Z+46, r10	; 0x2e
    1bc8:	a6 a6       	std	Z+46, r10	; 0x2e
    1bca:	a7 a7       	std	Z+47, r26	; 0x2f
    1bcc:	a7 a7       	std	Z+47, r26	; 0x2f
    1bce:	a7 a7       	std	Z+47, r26	; 0x2f
    1bd0:	a7 a7       	std	Z+47, r26	; 0x2f
    1bd2:	a7 a6       	std	Z+47, r10	; 0x2f
    1bd4:	a7 a7       	std	Z+47, r26	; 0x2f
    1bd6:	a6 a6       	std	Z+46, r10	; 0x2e
    1bd8:	a7 a6       	std	Z+47, r10	; 0x2f
    1bda:	a7 a7       	std	Z+47, r26	; 0x2f
    1bdc:	a7 a7       	std	Z+47, r26	; 0x2f
    1bde:	a6 a7       	std	Z+46, r26	; 0x2e
    1be0:	a7 a7       	std	Z+47, r26	; 0x2f
    1be2:	a7 a7       	std	Z+47, r26	; 0x2f
    1be4:	a7 a7       	std	Z+47, r26	; 0x2f
    1be6:	a7 a8       	ldd	r10, Z+55	; 0x37
    1be8:	a7 a7       	std	Z+47, r26	; 0x2f
    1bea:	a8 a8       	ldd	r10, Y+48	; 0x30
    1bec:	a8 a8       	ldd	r10, Y+48	; 0x30
    1bee:	a8 a8       	ldd	r10, Y+48	; 0x30
    1bf0:	a8 a8       	ldd	r10, Y+48	; 0x30
    1bf2:	a9 a9       	ldd	r26, Y+49	; 0x31
    1bf4:	aa a9       	ldd	r26, Y+50	; 0x32

00001bf6 <wavdata3>:
    1bf6:	78 77 78 78 78 78 78 78 78 78 78 78 78 77 77 77     xwxxxxxxxxxxxwww
    1c06:	77 77 77 77 77 77 78 78 78 79 79 79 79 79 79 79     wwwwwwxxxyyyyyyy
    1c16:	79 78 78 77 75 75 74 74 74 74 75 75 77 78 79 7a     yxxwuuttttuuwxyz
    1c26:	7a 7b 7b 7b 7b 7a 79 77 74 73 71 70 70 70 71 72     z{{{{zywtsqpppqr
    1c36:	74 75 78 7a 7b 7c 7d 7d 7d 7c 7b 79 77 74 73 71     tuxz{|}}}|{ywtsq
    1c46:	70 70 70 70 71 72 74 75 78 79 7b 7c 7d 7e 7e 7d     ppppqrtuxy{|}~~}
    1c56:	7c 7a 79 77 74 73 72 72 71 71 71 72 73 74 77 78     |zywtsrrqqqrstwx
    1c66:	79 7a 7c 7d 7d 7d 7d 7c 7b 79 78 77 75 74 73 72     yz|}}}}|{yxwutsr
    1c76:	72 72 73 73 74 75 77 78 78 7a 7a 7b 7c 7d 7d 7c     rrsstuwxxzz{|}}|
    1c86:	7b 7a 78 77 75 74 73 72 72 71 72 72 73 73 74 77     {zxwutsrrqrrsstw
    1c96:	78 79 7b 7c 7c 7d 7d 7c 7b 7a 78 77 75 74 73 72     xy{||}}|{zxwutsr
    1ca6:	71 71 71 72 73 74 75 77 78 7a 7b 7c 7d 7d 7d 7c     qqqrstuwxz{|}}}|
    1cb6:	7b 7a 78 77 74 73 72 71 71 71 71 72 72 74 75 77     {zxwtsrqqqqrrtuw
    1cc6:	78 79 7b 7c 7d 7e 7d 79 77 73 6d 6d 6a 63 5f 5f     xy{|}~}ywsmmjc__
    1cd6:	61 6b 69 62 6c 6f 7c 86 88 9f bd a4 a4 95 69 5d     akiblo|.......i]
    1ce6:	4e 3f 58 63 72 8d 82 73 64 49 48 51 5f 84 ac c7     N?Xcr..sdIHQ_...
    1cf6:	ff d2 c4 a1 62 2a 2a 27 3a 74 8e a1 99 68 4b 32     ....b**':t...hK2
    1d06:	22 38 58 81 bd e1 d0 00 b0 6a 38 00 0d 3f 60 9b     "8X......j8..?`.
    1d16:	c2 b1 9f 7a 41 32 38 45 73 a1 b9 d6 e1 e1 b3 63     ...zA28Es......c
    1d26:	3c 24 1e 48 72 82 9c 9f 7f 67 4f 39 41 5b 74 9b     <$.Hr....gO9A[t.
    1d36:	c1 d1 e4 ca 6f 3c 24 0d 27 5e 71 89 a5 8c 65 55     ....o<$.'^q...eU
    1d46:	41 37 4f 72 8e b5 d8 e0 d0 89 42 23 18 24 4e 71     A7Or......B#.$Nq
    1d56:	89 9b 93 72 55 46 41 4c 6d 95 b6 d0 e4 d5 86 42     ...rUFALm......B
    1d66:	28 1a 24 4d 71 86 99 95 74 53 47 46 4d 6d 99 bc     (.$Mq...tSGFMm..
    1d76:	d2 e4 d4 82 3c 26 1f 27 4c 75 8e 96 91 78 56 44     ....<&.'Lu...xVD
    1d86:	48 58 71 9b c2 d8 e2 cb 80 39 20 24 30 4d 77 97     HXq......9 $0Mw.
    1d96:	9b 8d 74 58 42 41 57 77 99 bd d8 e2 cf 8a 41 22     ..tXBAWw......A"
    1da6:	25 34 4a 6e 91 9a 8b 73 5d 4a 49 5c 7c 9c bb d4     %4Jn...s]JI\|...
    1db6:	df c8 83 41 26 2a 38 4a 6c 90 9a 86 6e 5c 4d 4a     ...A&*8Jl...n\MJ
    1dc6:	5d 80 a2 bf d5 df bd 71 35 25 2e 3b 4f 77 9a 9b     ]......q5%.;Ow..
    1dd6:	82 69 58 4c 4d 64 8a ac c5 d9 dd b4 69 30 26 32     .iXLMd......i0&2
    1de6:	3e 50 75 97 95 7a 63 58 4f 52 69 8e b0 c5 d4 d5     >Pu..zcXORi.....
    1df6:	ab 61 2e 28 36 40 53 7a 99 92 74 60 58 51 55 6f     .a.(6@Sz..t`XQUo
    1e06:	95 b2 c4 d1 d1 a7 5f 2e 2c 3d 46 52 75 93 8b 6d     ......_.,=FRu..m
    1e16:	5b 58 56 59 71 97 b3 bf c6 c8 aa 69 35 2f 42 4b     [XVYq......i5/BK
    1e26:	53 70 8e 89 6b 5a 5a 58 59 6f 94 ae b5 bd c1 aa     Sp..kZZXYo......
    1e36:	79 50 45 45 48 55 6c 7b 77 6d 68 62 5c 60 75 90     yPEEHUl{wmhb\`u.
    1e46:	a2 ac b4 b8 ae 95 71 55 4c 4e 51 59 67 72 71 69     ......qULNQYgrqi
    1e56:	62 5f 5d 64 78 8e 9d a4 ae b5 ad 9a 81 67 53 4e     b_]dx........gSN
    1e66:	52 5c 63 68 6d 6e 68 60 60 69 73 82 92 9d a4 a7     R\chmnh``is.....
    1e76:	a7 a3 96 80 69 5b 5b 5d 5d 60 69 6b 69 63 5e 5f     ....i[[]]`ikic^_
    1e86:	6a 79 86 8d 96 a1 a3 9e 9a 9a 8f 7a 65 5c 57 53     jy.........ze\WS
    1e96:	56 5d 64 68 65 61 60 64 6f 7d 88 8d 93 9a 99 99     V]dhea`do}......
    1ea6:	9b 92 86 82 79 65 58 59 5b 5a 5d 62 64 62 63 68     ....yeXY[Z]bdbch
    1eb6:	6d 77 81 83 88 8f 92 95 95 8c 82 7e 7d 74 6c 65     mw.........~}tle
    1ec6:	5e 5c 5e 5d 5c 5f 63 67 69 69 6b 6d 74 7f 88 8b     ^\^]\_cgiikmt...
    1ed6:	8b 8f 93 8f 8a 85 80 77 6b 64 63 5e 5b 5e 5d 55     .......wkdc^[^]U
    1ee6:	53 5a 5e 5f 67 6c 75 85 88 89 97 9f a0 9b 99 92     SZ^_glu.........
    1ef6:	85 7b 75 61 5f 5d 53 51 56 4b 49 4e 48 4b 4f 62     .{ua_]SQVKINHKOb
    1f06:	70 6f 84 8b 8c 92 8f 93 94 90 8f 8e 8e 88 79 5e     po............y^
    1f16:	4f 45 3c 3f 47 53 59 5b 57 5c 62 6a 7a 84 93 8a     OE<?GSY[W\bjz...
    1f26:	7e 8f 96 8a 7d 70 6b 6a 62 57 45 34 2c 2e 2f 38     ~...}pkjbWE4,./8
    1f36:	44 57 6a 77 8b 9c a5 a0 92 8b 86 96 94 84 79 73     DWjw..........ys
    1f46:	79 6c 58 40 37 31 36 3b 41 59 69 6d 75 8d a5 ad     ylX@716;AYimu...
    1f56:	ab aa a2 9b 95 90 8d 91 8d 8c 82 7d 82 7d 7a 7f     ...........}.}z.
    1f66:	8a 8f 97 a2 a3 a7 aa a8 97 8e 93 88 7e 7c 79 83     ............~|y.
    1f76:	8c 84 82 8b 8b 91 9b 9c a7 b1 ad a7 a8 a8 a8 95     ................
    1f86:	89 83 6c 62 61 67 6d 62 5d 63 6a 75 7a 82 92 9d     ..lbagmb]cjuz...
    1f96:	a3 a1 ae b1 a4 9d 95 85 79 73 75 7e 7d 7a 75 71     ........ysu~}zuq
    1fa6:	79 7c 7f 8b 8f 94 9f a2 a3 a4 91 77 78 6d 6c 6d     y|.........wxmlm
    1fb6:	67 6d 6f 6f 75 78 7c 86 8d 9a a4 ac b9 bc b0 96     gmooux|.........
    1fc6:	7f 6f 73 70 68 6a 5e 5d 68 65 6b 6f 6f 7b 88 92     .osphj^]hekoo{..
    1fd6:	a0 af b3 9c 71 51 57 73 6e 5f 53 48 56 62 60 64     ....qQWsn_SHVb`d
    1fe6:	64 65 75 85 92 a6 b1 a2 75 48 47 70 7e 68 4f 44     deu.....uHGp~hOD
    1ff6:	50 65 68 68 68 69 71 84 9b af be b0 85 48 3d 7a     Pehhhiq......H=z
    2006:	93 80 57 36 4f 6e 71 6b 60 5f 6d 78 91 ab bb b2     ..W6Onqk`_mx....
    2016:	8f 4c 2b 64 8f 8b 67 2c 38 65 74 74 5e 55 64 71     .L+d..g,8ett^Udq
    2026:	85 a1 b2 bc a7 71 2e 47 84 99 89 46 26 55 74 80     .....q.G...F&Ut.
    2036:	71 56 5d 6d 7c 99 b4 c0 b6 8e 47 36 75 97 9e 6e     qV]m|.....G6u..n
    2046:	28 3e 6c 82 86 5f 51 63 71 8a ac b9 b6 a6 6d 2e     (>l.._Qcq.....m.
    2056:	51 85 9a 94 49 26 4d 6d 8a 7b 51 56 60 77 97 b1     Q...I&Mm.{QV`w..
    2066:	c2 b1 88 39 2e 71 94 a2 73 26 35 58 7c 8e 60 4f     ...9.q..s&5X|.`O
    2076:	56 61 85 a0 bb bf a2 65 20 48 80 9e 9f 52 24 3f     Va.....e H...R$?
    2086:	5a 8a 84 58 51 4f 6c 92 ab c6 b6 90 3b 24 61 8a     Z..XQOl.....;$a.
    2096:	ad 8a 3a 2b 41 6b 90 73 59 4f 53 77 97 be c7 b2     ..:+Ak.sYOSw....
    20a6:	6d 1b 3b 6a a2 b1 6c 36 2a 4a 79 89 73 58 4e 5c     m.;j..l6*Jy.sXN\
    20b6:	7d a8 c8 ce a5 3c 22 42 7c bc 9e 65 2f 2d 55 7f     }....<"B|..e/-U.
    20c6:	8f 74 61 58 67 8d b6 d9 d3 7c 2b 2c 4b 9f b6 97     .taXg....|+,K...
    20d6:	5c 32 39 5b 84 86 7d 6a 60 73 92 c1 d9 bf 5a 34     \29[..}j`s....Z4
    20e6:	29 5d 9d a6 93 55 3e 35 5e 78 82 83 6f 7b 7f a2     )]...U>5^x..o{..
    20f6:	bf c6 81 51 35 45 74 8c 99 72 61 44 4f 5b 6c 7c     ...Q5Et..raDO[l|
    2106:	7b 86 88 9e ac bc 8c 62 47 42 67 77 8f 77 70 51     {......bGBgw.wpQ
    2116:	57 55 64 6f 7a 88 93 a3 ad b6 8b 6a 4a 48 5c 71     WUdoz......jJH\q
    2126:	82 7e 79 62 5e 53 5d 63 75 85 9b aa b7 b8 8e 6a     .~yb^S]cu......j
    2136:	46 44 51 6b 7c 83 7c 6d 61 59 59 61 71 88 9e b1     FDQk|.|maYYaq...
    2146:	bc b4 89 68 44 42 4c 64 74 84 7f 7a 6a 5f 58 5e     ...hDBLdt..zj_X^
    2156:	6d 86 a2 b7 c4 ad 8b 61 47 3d 49 5b 71 7e 84 7e     m......aG=I[q~.~
    2166:	75 69 61 65 77 90 ab bd b3 9d 79 5b 47 44 4a 5e     uiaew.....y[GDJ^
    2176:	70 80 84 81 78 6e 6c 74 86 9c ad a8 9c 80 69 53     p...xnlt......iS
    2186:	4a 48 51 60 70 7b 7e 7a 73 71 77 84 96 a3 a0 95     JHQ`p{~zsqw.....
    2196:	80 6d 5b 50 4c 51 5b 68 73 7a 7a 77 74 78 82 90     .m[PLQ[hszzwtx..
    21a6:	9d 9a 92 80 6f 5d 51 4a 4d 53 5e 69 70 73 73 74     ....o]QJMS^ipsst
    21b6:	78 82 90 9b 99 92 83 74 63 57 4f 50 58 63 6e 77     x......tcWOPXcnw
    21c6:	7b 7c 7d 81 8b 96 9e 9b 94 85 78 6a 5e 57 56 5b     {|}.......xj^WV[
    21d6:	64 6f 77 7b 7d 7f 82 8a 95 9f 9d 96 88 7b 6d 62     dow{}........{mb
    21e6:	5b 5a 5d 65 6f 7a 81 84 84 86 8f 9b a5 a4 9f 90     [Z]eoz..........
    21f6:	81 71 64 5c 5b 5e 65 6f 77 7c 80 82 84 8b 93 9e     .qd\[^eow|......
    2206:	9f 9d 91 84 77 69 5f 5c 5d 63 6d 77 7d 80 83 84     ....wi_\]cmw}...
    2216:	88 90 9b 9d 9b 90 82 73 67 5c 58 57 5c 63 6f 78     .......sg\XW\cox
    2226:	7d 7e 7e 82 8a 94 9b 99 91 84 75 67 5b 55 55 5a     }~~.......ug[UUZ
    2236:	62 6c 73 78 7b 7d 81 8b 96 9c 99 8f 80 71 63 59     blsx{}.......qcY
    2246:	55 57 5d 67 72 7b 7e 7e 7c 7c 81 8c 95 97 94 88     UW]gr{~~||......
    2256:	79 69 5d 53 53 57 60 6b 73 7a 7a 7b 7c 84 90 9c     yi]SSW`kszz{|...
    2266:	9b 93 81 6f 5d 51 4c 4e 57 62 70 77 79 75 73 74     ...o]QLNWbpwyust
    2276:	80 90 9f 9e 95 81 6e 5c 50 4b 50 5d 6d 7b 7f 7f     ......n\PKP]m{..
    2286:	7a 78 79 89 9a ac a6 9b 7f 69 52 48 48 53 63 75     zxy......iRHHScu
    2296:	7f 7f 79 6d 6a 6c 80 96 b0 ad 9f 7d 5f 48 40 42     ..ymjl.....}_H@B
    22a6:	57 6b 7f 83 7e 6e 62 5f 6a 81 a4 bd bc 9d 77 4d     Wk..~nb_j.....wM
    22b6:	3b 38 49 63 7c 8a 85 74 5f 52 53 6a 89 b3 c9 c9     ;8Ic|..t_RSj....
    22c6:	97 6b 38 30 3b 60 7e 95 8f 7d 61 4f 4d 5e 7b a0     .k80;`~..}aOM^{.
    22d6:	c4 cd c7 84 58 2b 35 51 78 90 8f 7e 60 4c 47 56     ....X+5Qx..~`LGV
    22e6:	70 8b a1 a7 ae aa 9c 6c 57 48 5d 78 81 84 6b 5f     p......lWH]x..k_
    22f6:	53 5d 67 75 82 8f 9d ad b2 b0 7f 58 48 4e 78 7c     S]gu.......XHNx|
    2306:	8a 71 61 57 56 65 6a 7c 80 8c 93 a5 ae b1 7c 53     .qaWVej|......|S
    2316:	4a 4d 80 80 84 70 53 55 52 6d 73 7f 7e 82 96 aa     JM...pSURms.~...
    2326:	b6 b3 6f 49 46 56 90 86 81 69 4d 60 5f 7c 78 6d     ..oIFV...iM`_|xm
    2336:	79 6f 89 a2 b4 c6 9f 4b 40 42 77 a5 8a 71 4e 3f     yo.....K@Bw..qN?
    2346:	5c 70 7f 79 6e 6f 79 95 b6 c4 b1 55 31 47 68 a7     \p.ynoy....U1Gh.
    2356:	8f 62 59 40 62 79 74 7a 63 64 70 78 9b b8 bb ac     .bY@bytzcdpx....
    2366:	58 29 4d 6c a1 a2 60 4a 44 51 7c 7b 6e 6c 60 70     X)Ml..`JDQ|{nl`p
    2376:	88 a2 c6 c1 8f 39 2f 5c 8b b1 8c 51 48 4a 6b 8c     .....9/\...QHJk.
    2386:	7b 6c 64 60 71 86 9f c2 c2 a7 63 29 4e 7f a1 ab     {ld`q.....c)N...
    2396:	70 3d 48 5c 78 86 70 61 62 64 7b 99 b5 c3 b3 6e     p=H\x.pabd{....n
    23a6:	28 3f 72 99 ae 75 3f 47 56 73 8c 79 67 60 59 6a     (?r..u?GVs.yg`Yj
    23b6:	84 9b b3 b9 a8 81 3c 3e 70 8f a2 8d 4f 40 56 68     ......<>p...O@Vh
    23c6:	82 82 6b 65 68 6c 85 a4 b9 be a8 5d 2c 4e 77 95     ..kehl.....],Nw.
    23d6:	a7 75 48 4f 5a 6c 83 7d 6d 6a 64 67 7c 99 b0 b6     .uHOZl.}mjdg|...
    23e6:	af 82 3f 3c 62 7f 9a 9c 71 50 4d 57 6b 7e 7e 75     ..?<b...qPMWk~~u
    23f6:	73 74 7c 91 af c0 bf 92 5a 4b 5b 6d 86 94 8b 7f     st|.....ZK[m....
    2406:	7a 73 70 75 7a 7f 80 7b 7e 8b 95 a4 ae b6 ad 8c     zspuz..{~.......
    2416:	6c 5e 56 55 61 65 5d 56 5b 5d 5c 61 67 6f 7b 81     l^VUae]V[]\ago{.
    2426:	82 81 7c 74 6f 70 73 71 6f 6b 65 64 64 64 65 67     ..|topsqokedddeg
    2436:	68 68 67 69 6b 6d 70 73 74 74 74 75 77 78 79 7a     hhgikmpstttuwxyz
    2446:	78 75 74 74 74 74 73 72 70 70 70 72 73 75 77 77     xuttttsrppprsuww
    2456:	75 77 78 79 7a 7a 79 78 79 79 7a 7a 7a 79 78 77     uwxyzzyxyyzzzyxw
    2466:	75 75 77 77 77 75 75 75 77 79 79 7a 7a 79 7a 7a     uuwwwuuuwyyzzyzz
    2476:	7a 7a 7a 7a 7a 79 79 79 79 79 79 79 78 78 78 78     zzzzzyyyyyyyxxxx
    2486:	78 79 7a 7a 7a 79 79 79 7a 7a 7a 7a 79 79 79 79     xyzzzyyyzzzzyyyy
    2496:	79 7a 79 79 78 78 78 79 79 79 79 78 78 79 79 79     yzyyxxxyyyyxxyyy
    24a6:	7a 79 78 78 78 78 79 79 78 78 77 77 78 78 79 78     zyxxxxyyxxwwxxyx
    24b6:	78 77 77 78 79 79 78 78 77 77 78 78 79 78 78 77     xwwxyyxxwwxxyxxw
    24c6:	78 78 78 79 78 78 78 78 78 79 79 79 78 78 78 78     xxxyxxxxxyyyxxxx
    24d6:	78 79 79 79 78 78 78 78 78 78 78 78 78 79 79 79     xyyyxxxxxxxxxyyy
    24e6:	79 78 78 77 77 78 78 78 79 78 77 77 77 77 77 78     yxxwwxxxyxwwwwwx
    24f6:	78 78 78 78 78 78 79 79 78 78 78 77 78 78 78 78     xxxxxxyyxxxwxxxx
    2506:	77 77 77 77 78 78 78 77 77 77 77 78 79 78 78 77     wwwwxxxwwwwxyxxw
    2516:	77 77 77 78 78 78 77 77 77 78 78 78 77 77 77 78     wwwxxxwwwxxxwwwx
    2526:	78 78 78 78 78 77 77 77 77 78 78 78 77 77 77 77     xxxxxwwwwxxxwwww
    2536:	77 78 78 77 77 77 77 77 77 78 77 77 75 77 77 78     wxxwwwwwwxwwuwwx
    2546:	78 77 77 75 75 77 77 77 77 77 77 77 77 78 78 78     xwwuuwwwwwwwwxxx
    2556:	78 77 77 77 78 78 79 78 78 77 77 77 78 78 78 77     xwwwxxyxxwwwxxxw
    2566:	78 78 78 78 78 78 78 78 77 78 78 79 78 78 77 77     xxxxxxxxwxxyxxww
    2576:	78 78 78 78 77 77 77 78 78 78 78 77 77 77 77 78     xxxxwwwxxxxwwwwx
    2586:	78 77 78 77 77 77 77 77 77 77 77 77 77 77 77 77     xwxwwwwwwwwwwwww
    2596:	77 77 77 77 77 77 77 77 77 77 77 77 77 77 77 77     wwwwwwwwwwwwwwww
    25a6:	77 77 77 77 77 78 78 77 78 78 78 78 78 77 78 77     wwwwwxxwxxxxxwxw
    25b6:	78 78 78 78 77 77 77 77 77 75 73 74 75 77 78 78     xxxxwwwwwustuwxx
    25c6:	78 77 77 78 79 79 78 78 78 77 77 78 78 77 77 78     xwwxyyxxxwwxxwwx
    25d6:	78 78 78 79 79 78 78 78 77 78 77 77 78 78 78 78     xxxyyxxxwxwwxxxx
    25e6:	78 77 77 77 78 77 77 78 77 77 77 78 78 78 77 77     xwwwxwwxwwwxxxww
    25f6:	77 77 75 70 75 7a 78 73 74 78 75 75 77 75 77 77     wwupuzxstxuuwuww
    2606:	77 75 75 77 77 78 78 78 79 79 79 7a 7a 7a 7a 7a     wuuwwxxxyyyzzzzz
    2616:	79 79 79 79 79 79 79 78 77 77 77 78 78 79 79 78     yyyyyyyxwwwxxyyx
    2626:	78 78 78 78 78 77 77 77 78 78 78 78 78 77 77 77     xxxxxwwwxxxxxwww
    2636:	77 77 77 77 75 74 74 74 75 75 77 77 78 78 79 79     wwwwutttuuwwxxyy
    2646:	79 79 79 79 79 79 79 78 77 75 73 72 71 70 71 71     yyyyyyyxwusrqpqq
    2656:	72 73 75 78 7a 7c 7d 7f 81 82 81 7f 7c 78 73 70     rsuxz|}.....|xsp
    2666:	6d 6c 6b 6c 6d 70 72 75 78 7a 7c 7e 80 82 84 84     mlklmpruxz|~....
    2676:	82 7f 7a 75 71 6d 6b 6a 6a 6c 6e 71 73 75 78 78     ..zuqmkjjlnqsuxx
    2686:	7a 7b 7d 80 83 85 84 81 7d 78 73 6e 6c 6b 6a 6c     z{}.....}xsnlkjl
    2696:	6e 71 73 75 77 78 78 7a 7c 7f 82 85 86 84 80 7b     nqsuwxxz|......{
    26a6:	75 6f 6c 6b 69 6a 6d 6f 72 74 75 77 77 79 7a 7d     uolkijmortuwwyz}
    26b6:	81 84 88 85 82 7d 77 71 6c 6a 69 69 6b 6e 71 73     .....}wqljiiknqs
    26c6:	74 75 77 78 7a 7c 80 85 8d 92 85 79 63 61 59 5d     tuwxz|.....ycaY]
    26d6:	6d 6e 7a 78 6e 6c 61 65 6e 77 88 8e 9a a0 a4 92     mnzxnlaenw......
    26e6:	6d 64 50 5f 6f 77 89 7c 74 67 59 5d 60 6e 79 7c     mdP_ow.|tgY]`ny|
    26f6:	7e 7b 7f 89 99 aa a5 79 6b 52 5a 71 77 8b 7f 6f     ~{.....ykRZqw..o
    2706:	67 55 5c 62 6f 7d 7c 7d 7a 7e 8d 9b ae a2 70 63     gU\bo}|}z~....pc
    2716:	4f 5e 7b 7d 8d 7a 64 61 52 60 6b 72 7f 78 75 77     O^{}.zdaR`kr.xuw
    2726:	7d 92 a1 b1 a2 69 5c 4e 61 84 84 89 77 5c 59 58     }....i\Na...w\YX
    2736:	63 74 75 7b 74 6e 77 80 96 aa b0 9c 62 53 52 68     ctu{tnw.....bSRh
    2746:	8b 8b 85 70 58 59 5c 69 75 78 78 70 6d 75 84 9a     ...pXY\iuxxpmu..
    2756:	aa b1 95 5c 52 52 6e 91 8b 81 6b 59 53 5e 6e 75     ...\RRn...kYS^nu
    2766:	7b 72 6d 6e 74 89 9e ab b2 8b 55 52 55 75 95 8a     {rmnt.....URUu..
    2776:	7f 61 50 5e 63 73 7b 72 73 6c 6c 7b 89 9e ac a7     .aP^cs{rsll{....
    2786:	88 56 50 5c 78 93 8b 7a 64 53 5b 65 6f 78 74 6f     .VP\x..zdS[eoxto
    2796:	6c 6c 7a 8d 9e ac ac 84 55 52 5a 7b 94 8a 7b 5f     llz.....URZ{..{_
    27a6:	51 5c 65 75 7a 73 71 6a 6d 7c 8c 9e ab aa 8a 58     Q\euzsqjm|.....X
    27b6:	52 5b 75 93 8c 7d 67 53 5a 64 6f 7b 74 71 6d 6c     R[u..}gSZdo{tqml
    27c6:	7b 8b 9d ac ad 8a 59 52 58 75 93 8d 82 69 55 59     {.....YRXu...iUY
    27d6:	60 70 79 77 74 6c 6b 75 86 9a a8 b0 97 5f 52 51     `pywtlku....._RQ
    27e6:	6a 90 8f 8a 73 53 56 5c 69 7c 77 77 71 69 73 80     j...sSV\i|wwqis.
    27f6:	94 a8 af a1 6b 53 50 5e 86 8e 8e 7e 60 58 56 61     ....kSP^...~`XVa
    2806:	74 78 7b 74 6c 6e 77 89 a1 ad b3 81 5b 51 4b 74     tx{tlnw.....[QKt
    2816:	88 90 91 6f 5e 51 51 68 73 7d 7d 72 6f 70 7d 92     ...o^QQhs}}rop}.
    2826:	a3 b4 9b 6d 5c 46 5c 75 82 96 82 73 5e 4e 58 5f     ...m\F\u...s^NX_
    2836:	74 7e 7d 7b 70 79 80 92 a7 ae 8a 73 59 4f 63 6c     t~}{py.....sYOcl
    2846:	86 8c 81 79 5f 5b 59 61 71 7a 83 7f 81 82 84 91     ...y_[Yaqz......
    2856:	9a 94 7e 74 5f 61 63 6a 7a 7a 7e 75 6a 69 61 6b     ..~t_acjzz~ujiak
    2866:	70 78 7f 7c 81 7f 82 85 88 86 7d 7d 73 71 70 6d     px.|......}}sqpm
    2876:	71 72 74 75 73 74 74 74 74 74 75 75 77 79 79 7a     qrtustttttuuwyyz
    2886:	7b 7d 7e 7f 7e 7d 7c 7a 77 74 72 72 71 71 71 71     {}~.~}|zwtrrqqqq
    2896:	71 72 73 74 75 77 77 78 79 7a 7c 7b 7c 7b 7a 79     qrstuwwxyz|{|{zy
    28a6:	77 74 73 72 72 72 72 72 72 72 73 74 75 75 75 77     wtsrrrrrrrstuuuw
    28b6:	77 78 79 7a 7b 7c 7c 7b 7a 79 78 77 75 74 73 73     wxyz{||{zyxwutss
    28c6:	72 72 72 73 74 75 75 77 77 77 78 79 7a 7b 7c 7c     rrrstuuwwwxyz{||
    28d6:	7c 7b 7b 7a 79 78 77 75 75 74 74 74 74 75 75 77     |{{zyxwuuttttuuw
    28e6:	77 78 78 79 7a 7b 7b 7c 7c 7c 7c 7c 7b 7b 7a 79     wxxyz{{|||||{{zy
    28f6:	78 77 75 74 74 74 74 74 75 75 77 78 78 79 79 7a     xwutttttuuwxxyyz
    2906:	7a 7b 7b 7c 7c 7c 7b 7a 7a 78 77 75 75 74 74 73     z{{|||{zzxwuutts
    2916:	73 74 74 75 77 78 78 78 78 78 79 7a 7b 7b 7b 7b     sttuwxxxxxyz{{{{
    2926:	7b 7a 79 78 77 75 74 73 73 73 74 74 74 75 75 75     {zyxwutssstttuuu
    2936:	77 78 78 79 7a 7a 7a 7a 7a 7a 7a 7a 79 77 75 75     wxxyzzzzzzzzywuu
    2946:	74 74 74 74 74 74 74 74 75 77 77 78 78 79 79 79     ttttttttuwwxxyyy
    2956:	79 79 79 79 79 79 78 78 77 77 77 75 74 74 74 74     yyyyyyxxwwwutttt
    2966:	74 74 75 77 77 77 77 78 78 78 78 78 78 78 78 79     ttuwwwwxxxxxxxxy
    2976:	78 78 78 77 77 75 74 74 74 74 74 74 75 75 77 77     xxxwwuttttttuuww
    2986:	78 78 78 78 78 78 78 79 79 79 78 78 78 77 77 75     xxxxxxxyyyxxxwwu
    2996:	75 74 74 75 75 75 75 77 77 77 78 78 78 79 79 79     uttuuuuwwwxxxyyy
    29a6:	79 79 78 78 78 78 78 77 77 77 77 75 75 75 75 75     yyxxxxxwwwwuuuuu
    29b6:	77 77 77 78 78 78 78 78 78 78 78 78 78 78 77 78     wwwxxxxxxxxxxxwx
    29c6:	77 77 78 77 77 77 77 77 77 77 77 77 77 78 78 78     wwxwwwwwwwwwwxxx
    29d6:	78 78 78 78 78 78 78 78 78 78 78 78 77 77 77 77     xxxxxxxxxxxxwwww
    29e6:	77 77 77 77 77 77 77 77 77 77 77 77 77 78 78 78     wwwwwwwwwwwwwxxx
    29f6:	78 78 78 77 77 77 77 77 77 77 77 77 77 77 77 77     xxxwwwwwwwwwwwww
    2a06:	77 77 77 78 78 78 78 78 78 78 78 77 77 78 78 78     wwwxxxxxxxxwwxxx
    2a16:	78 77 77 77 77 77 78 78 78 77 77 77 78 78 78 78     xwwwwwxxxwwwxxxx
    2a26:	78 78 78 78 78 78 78 78 78 77 77 77 77 77 77 77     xxxxxxxxxwwwwwww
    2a36:	77 77 77 77 77 77 78 78 77 77 77 77 77 78 78 77     wwwwwwxxwwwwwxxw
    2a46:	77 77 77 77 77 77 77 77 77 77 77 77 77 78 78 77     wwwwwwwwwwwwwxxw
    2a56:	77 77 77 77 77 77 78 78 77 77 77 77 77 78 77 77     wwwwwwxxwwwwwxww
    2a66:	78 77 77 77 77 77 77 77 77 77 77 78 77 78 78 78     xwwwwwwwwwwxwxxx
    2a76:	77 77 78 78 78 78 77 77 77 78 78 78 77 77 78 78     wwxxxxwwwxxxwwxx
    2a86:	78 77 78 78 78 78 78 78 78 78 78 77 77 77 77 77     xwxxxxxxxxxwwwww
    2a96:	77 77 77 77 77 77 77 77 77 78 78 78 78 78 78 77     wwwwwwwwwxxxxxxw
    2aa6:	77 77 77 77 78 78 77 77 77 77 77 78 78 78 77 77     wwwwxxwwwwwxxxww
    2ab6:	77 78 78 78 78 78 78 78 78 78 78 77 77 77 77 73     wxxxxxxxxxxwwwws
    2ac6:	75 75 74 74 77 78 79 78 77 77 6d 72 78 75 78 74     uuttwxyxwwmrxuxt
    2ad6:	71 6c 72 6e 72 73 71 74 6f 6d 71 73 73 75 74 73     qlrnrsqtomqssuts
    2ae6:	73 6e 6c 6d 6f 70 70 70 6f 6f 6f 74 7c 81 84 89     snlmopppooot|...
    2af6:	8d 8d 91 96 96 8f 85 7c 73 72 70 70 72 73 74 74     .......|srpprstt
    2b06:	75 7d 86 97 ab bc b1 81 64 4e 45 61 7d 8f a2 91     u}......dNEa}...
    2b16:	71 5a 44 41 59 6c 80 8b 88 86 86 8a a3 96 6a 63     qZDAYl........jc
    2b26:	55 4f 70 7f 83 8d 77 5c 59 50 56 6e 77 7e 88 89     UOp...w\YPVnw~..
    2b36:	8b 97 a5 ac 84 5d 57 51 61 83 8e 8b 7f 62 51 52     .....]WQa....bQR
    2b46:	59 69 79 7d 7b 7b 7f 88 96 af a8 70 51 4d 4b 67     Yiy}{{.....pQMKg
    2b56:	8c 90 83 73 59 47 4f 5f 6d 7d 7f 74 72 7c 88 9a     ...sYGO_m}.tr|..
    2b66:	b7 af 6f 4d 4d 4c 69 93 97 83 70 58 46 51 67 72     ..oMMLi...pXFQgr
    2b76:	7d 80 74 70 7c 8a 9b b7 b1 70 48 4b 51 6a 95 9e     }.tp|....pHKQj..
    2b86:	83 70 5e 44 4a 6b 78 7b 81 74 68 74 8b 9c b5 c1     .p^DJkx{.tht....
    2b96:	84 45 42 53 64 8e aa 8e 6a 5a 4c 4b 68 80 7e 7a     .EBSd...jZLKh.~z
    2ba6:	78 6b 6d 88 9e ae c0 9d 51 39 51 67 82 a5 9e 71     xkm.....Q9Qg...q
    2bb6:	5a 52 4b 5c 7c 84 79 74 6e 67 7a 99 ab bc b3 6e     ZRK\|.ytngz....n
    2bc6:	36 41 62 7a 99 a8 85 59 4d 4e 56 72 88 7e 71 6f     6Abz...YMNVr.~qo
    2bd6:	6a 6e 8b a7 b2 b7 97 4f 34 51 73 88 a0 9d 6f 4f     jn.....O4Qs...oO
    2be6:	51 59 60 77 85 78 6b 6a 6a 78 95 ae b7 b3 7d 3d     QY`w.xkjjx....}=
    2bf6:	3a 5f 7c 91 a2 8d 5e 49 50 5b 6d 83 82 70 69 6a     :_|...^IP[m..pij
    2c06:	6e 82 a0 b2 b5 a0 62 37 47 6c 85 97 9c 7a 51 4a     n.....b7Gl...zQJ
    2c16:	57 62 72 83 7c 6b 67 6a 77 90 a8 b3 af 82 46 3a     Wbr.|kgjw.....F:
    2c26:	5a 79 8e 9e 8e 63 4a 50 5b 6a 80 82 72 6a 6a 70     Zy...cJP[j..rjjp
    2c36:	84 9f af b4 9c 5d 39 4c 6d 83 9a 9a 74 56 52 53     .....]9Lm...tVRS
    2c46:	5e 79 84 7a 6f 6c 6b 7a 95 ab b4 ae 79 40 42 60     ^y.zolkz....y@B`
    2c56:	79 91 a1 86 5b 4f 52 59 6f 83 7e 74 72 6e 74 8b     y...[ORYo.~trnt.
    2c66:	a2 ae af 8a 50 41 57 6e 86 9c 8e 6d 5a 4f 52 67     ....PAWn...mZORg
    2c76:	7b 7d 7a 75 6d 70 83 97 aa b6 9c 5e 45 50 60 7d     {}zump.....^EP`}
    2c86:	9a 93 71 5f 55 4e 61 77 7b 7e 7d 71 72 82 90 a2     ..q_UNaw{~}qr...
    2c96:	b0 9b 67 4f 52 5b 77 92 8d 78 6a 59 51 61 6e 75     ..gOR[w..xjYQanu
    2ca6:	80 80 78 7c 84 8e a1 ab 90 67 59 55 5d 7a 8b 84     ..x|.....gYU]z..
    2cb6:	7f 70 59 57 61 67 75 82 7e 7d 82 83 90 a2 a5 8b     .pYWagu.~}......
    2cc6:	69 5b 55 60 78 84 7e 7c 6e 5e 5e 5f 65 75 7d 80     i[U`x.~|n^^_eu}.
    2cd6:	86 86 88 95 9a 93 7b 65 5e 5e 68 78 7a 7b 78 6b     ......{e^^hxz{xk
    2ce6:	64 62 60 6a 73 7a 84 8b 8b 94 99 95 84 6c 65 5d     db`jsz.......le]
    2cf6:	62 70 75 79 7f 71 6e 69 60 65 6b 71 81 88 8e 95     bpuy.qni`ekq....
    2d06:	97 96 8e 71 6e 61 5e 69 6a 6f 7a 74 75 73 68 6d     ...qna^ijoztushm
    2d16:	69 6e 79 80 89 8f 90 90 8c 7e 78 71 67 6c 65 6b     iny......~xqglek
    2d26:	70 6e 75 75 75 78 75 77 78 77 7b 77 78 7b 79 7c     pnuuuxuwxw{wx{y|
    2d36:	7b 7b 7d 7a 7a 77 75 74 71 72 70 71 71 70 72 72     {{}zzwutqrpqqprr
    2d46:	74 77 78 7b 7b 7d 7e 7e 7f 7d 7c 79 77 74 72 71     twx{{}~~.}|ywtrq
    2d56:	70 70 71 72 72 73 74 75 77 79 7a 7a 7c 7d 7e 7f     ppqrrstuwyzz|}~.
    2d66:	7e 7d 7c 7a 78 75 74 73 73 72 72 72 72 74 74 75     ~}|zxutssrrrrttu
    2d76:	77 78 79 7a 7c 7d 7f 7f 7f 7d 7c 7a 78 77 75 74     wxyz|}...}|zxwut
    2d86:	73 72 71 72 72 73 74 75 77 77 79 7a 7b 7c 7d 7d     srqrrstuwwyz{|}}
    2d96:	7d 7c 7c 7a 79 77 75 73 72 72 71 71 72 72 73 74     }||zywusrrqqrrst
    2da6:	75 77 78 79 7b 7b 7c 7c 7c 7c 7c 7b 79 78 77 75     uwxy{{|||||{yxwu
    2db6:	74 73 73 72 72 73 73 74 75 78 79 7a 7a 7b 7b 7b     tssrrsstuxyzz{{{
    2dc6:	7b 7c 7c 7b 7a 78 77 75 74 73 73 73 72 72 73 74     {||{zxwutsssrrst
    2dd6:	75 77 78 79 79 79 79 7a 7b 7b 7b 7b 7a 79 78 77     uwxyyyyz{{{{zyxw
    2de6:	77 75 74 73 72 72 73 73 74 77 77 78 78 78 79 79     wutsrrsstwwxxxyy
    2df6:	7a 7a 7b 7b 7a 7a 79 78 78 77 75 74 73 73 73 74     zz{{zzyxxwutssst
    2e06:	74 75 75 77 77 77 78 79 7a 7a 7a 7a 7a 7a 7a 7a     tuuwwwxyzzzzzzzz
    2e16:	7a 78 77 75 75 74 74 74 74 75 75 75 77 77 78 79     zxwuuttttuuuwwxy
    2e26:	79 79 79 79 7a 7a 7a 7a 79 79 78 78 77 75 75 75     yyyyzzzzyyxxwuuu
    2e36:	74 74 74 74 75 77 77 78 78 79 79 79 79 79 79 79     ttttuwwxxyyyyyyy
    2e46:	79 79 78 78 77 77 77 75 75 75 75 75 75 75 77 77     yyxxwwwuuuuuuuww
    2e56:	78 78 78 78 78 79 78 79 79 78 78 78 78 78 78 78     xxxxxyxyyxxxxxxx
    2e66:	77 77 77 75 75 75 77 77 77 77 78 78 78 78 79 79     wwwuuuwwwwxxxxyy
    2e76:	79 78 78 78 78 78 78 78 78 77 77 77 77 77 77 77     yxxxxxxxxwwwwwww
    2e86:	77 77 78 78 78 78 78 78 78 77 77 71 74 78 78 77     wwxxxxxxxwwqtxxw
    2e96:	75 75 77 75 75 75 75 75 74 75 75 75 75 77 78 78     uuwuuuuutuuuuwxx
    2ea6:	77 77 75 75 75 75 75 75 75 75 74 74 73 73 72 72     wwuuuuuuuuttssrr
    2eb6:	72 72 71 70 6f 6f 6e 6d 6e 6e 6d 6c 6a 67 63 61     rrqpoonmnnmljgca
    2ec6:	5d 5c 5e 5d 5c 62 61 63 68 69 6d 6b 68 67 69 68     ]\^]\bachimkhgih
    2ed6:	6a 68 63 6b 71 79 7c 7e 7f 80 83 8e 8f 93 9a 9d     jhckqy|~........
    2ee6:	99 97 99 96 93 94 97 94 95 94 97 97 9a 9c a0 a4     ................
    2ef6:	a7 aa a7 a2 94 8a 7d 74 6e 6d 71 77 7c 7e 80 7f     ......}tnmqw|~..
    2f06:	7e 7e 85 90 9c 9f 8f 81 65 5a 4c 4f 55 60 6f 77     ~~......eZLOU`ow
    2f16:	7d 73 6e 64 65 69 7b 8b a1 b2 b4 a0 81 63 4b 49     }sndei{......cKI
    2f26:	4f 64 75 86 86 80 6e 60 56 5a 68 81 97 ae b7 ac     Odu...n`VZh.....
    2f36:	86 62 45 3b 46 58 71 7f 84 7a 68 56 4b 4e 5a 70     .bE;FXq..zhVKNZp
    2f46:	8a 9b aa a4 90 64 4b 36 3f 51 67 7d 7f 7a 67 55     .....dK6?Qg}.zgU
    2f56:	4b 4b 58 69 7f 90 9c a2 9d 84 5e 4c 3d 4d 5f 6e     KKXi......^L=M_n
    2f66:	7d 79 72 62 57 51 57 64 72 88 92 9d a2 9b 83 60     }yrbWQWdr......`
    2f76:	52 46 58 67 71 7d 77 72 62 5b 5a 5f 6d 7a 8e 97     RFXgq}wrb[Z_mz..
    2f86:	a2 a6 9d 7e 62 53 4f 64 6f 7d 83 7c 75 67 60 60     ...~bSOdo}.|ug``
    2f96:	68 77 82 93 9c a6 a6 9d 7b 64 57 56 6b 74 81 84     hw......{dWVkt..
    2fa6:	7b 75 65 61 62 6b 7a 86 97 9e a7 a6 96 75 62 55     {ueabkz......ubU
    2fb6:	59 6b 71 81 80 7a 73 63 64 62 6d 7a 86 99 9e a7     Ykq..zscdbmz....
    2fc6:	a2 90 72 63 56 5d 68 6f 7e 7c 7b 72 67 65 61 6c     ..rcV]ho~|{rgeal
    2fd6:	74 83 8e 95 9b 95 8b 71 69 5a 5d 62 68 74 79 78     t......qiZ]bhtyx
    2fe6:	72 6d 6d 6e 77 7b 83 84 84 85 81 83 7e 7f 7c 78     rmmnw{......~.|x
    2ff6:	75 72 73 75 75 79 7c 7e 7f 80 80 7f 7c 78 78 77     ursuuy|~....|xxw
    3006:	78 78 78 78 79 78 78 75 73 72 71 70 70 6f 70 70     xxxxyxxusrqppopp
    3016:	72 73 74 77 79 7a 7b 7c 7d 7d 7e 7d 7d 7c 7b 7a     rstwyz{|}}~}}|{z
    3026:	79 78 77 77 77 77 77 79 7a 7b 7c 7c 7d 7e 7e 7e     yxwwwwwyz{||}~~~
    3036:	7e 7e 7e 7d 7d 7c 7b 7a 7a 79 79 78 79 79 79 7a     ~~~}}|{zzyyxyyyz
    3046:	7a 7a 79 7a 7a 7a 7a 7a 7a 7a 79 79 79 79 78 78     zzyzzzzzzzyyyyxx
    3056:	78 78 78 78 78 78 78 78 78 78 78 78 78 78 78 77     xxxxxxxxxxxxxxxw
    3066:	77 77 77 77 77 78 77 78 77 77 77 77 77 77 77 77     wwwwwxwxwwwwwwww
    3076:	77 77 77 75 75 75 75 75 75 75 75 77 77 77 75 75     wwwuuuuuuuuwwwuu
    3086:	75 75 75 75 75 75 75 75 75 75 75 74 75 75 75 75     uuuuuuuuuuutuuuu
    3096:	75 75 75 75 75 74 75 75 75 75 75 75 75 75 74 74     uuuuutuuuuuuuutt
    30a6:	74 75 75 75 75 75 75 75 75 75 75 75 75 75 75 75     tuuuuuuuuuuuuuuu
    30b6:	75 75 75 75 75 75 75 77 77 77 77 77 77 75 75 75     uuuuuuuwwwwwwuuu
    30c6:	75 77 77 77 77 77 77 77 77 75 75 77 77 77 77 77     uwwwwwwwwuuwwwww
    30d6:	77 77 77 77 75 77 77 77 77 77 75 75 75 75 75 77     wwwwuwwwwwuuuuuw
    30e6:	77 77 77 77 77 77 77 77 77 77 77 78 78 78 78 77     wwwwwwwwwwwxxxxw
    30f6:	77 77 77 77 77 77 78 77 77 77 77 77 77 77 77 78     wwwwwwxwwwwwwwwx
    3106:	78 78 73 74 74 70 71 72 73 6e 6e 69 6d 70 72 72     xxsttpqrsnnimprr
    3116:	71 6e 6c 6a 6a 69 6c 6d 6f 6c 6c 6c 6b 6c 6c 72     qnljjilmolllkllr
    3126:	6b 63 5b 55 4e 3e 3b 3b 3f 45 4d 60 5e 5f 6e 77     kc[UN>;;?EM`^_nw
    3136:	7b 89 8a 8d 99 9c a0 a4 aa b0 ad ab ae b5 bb bc     {...............
    3146:	c1 c2 c7 be b5 a2 8e 82 81 8a 8d 95 97 97 94 8f     ................
    3156:	8f 93 a1 aa a5 8d 7a 5f 55 52 55 68 6c 75 72 6b     ......z_URUhlurk
    3166:	67 5e 63 6d 7c 8f 94 8f 73 5c 48 44 47 52 63 6d     g^cm|...s\HDGRcm
    3176:	72 6e 69 63 60 68 74 89 9b 9d 8b 72 5a 4a 4c 4e     rnic`ht....rZJLN
    3186:	5f 6f 77 7d 74 6f 6a 69 75 82 96 9f 96 80 6a 55     _ow}tojiu.....jU
    3196:	4e 4e 57 67 70 79 78 71 6c 67 6d 79 88 9a 9e 92     NNWgpyxqlgmy....
    31a6:	7f 6a 58 53 52 5c 6a 71 7a 78 73 70 6d 73 7d 8c     .jXSR\jqzxspms}.
    31b6:	99 9a 8d 7e 6a 5c 58 56 5d 69 70 79 79 75 73 71     ...~j\XV]ipyyusq
    31c6:	75 7e 89 93 95 8b 7f 70 62 5e 5b 5e 68 6e 75 7a     u~.....pb^[^hnuz
    31d6:	79 79 77 78 7e 84 8a 8e 89 7f 79 6f 69 67 64 68     yywx~.....yoigdh
    31e6:	6f 75 7b 7a 77 75 77 77 7a 7c 7d 7e 7e 7c 7a 78     ou{zwuwwz|}~~|zx
    31f6:	74 72 70 6f 6f 72 74 73 73 74 75 75 78 78 78 78     trpoortsstuuxxxx
    3206:	78 78 79 79 79 79 78 75 74 73 72 72 72 72 73 75     xxyyyyxutsrrrrsu
    3216:	75 77 77 77 77 78 78 78 78 78 78 78 77 77 77 77     uwwwwxxxxxxxwwww
    3226:	77 77 75 75 75 75 75 75 77 77 78 78 78 78 78 78     wwuuuuuuwwxxxxxx
    3236:	78 78 78 79 79 79 78 78 78 77 77 77 78 78 78 78     xxxyyyxxxwwwxxxx
    3246:	78 78 78 78 78 78 78 78 78 78 78 78 78 78 77 77     xxxxxxxxxxxxxxww
    3256:	78 78 78 78 78 78 78 78 78 78 78 79 79 78 78 78     xxxxxxxxxxxyyxxx
    3266:	78 78 78 78 78 78 78 78 78 78 78 78 78 79 79 79     xxxxxxxxxxxxxyyy
    3276:	79 79 79 78 78 78 78 78 78 78 78 78 78 79 79 79     yyyxxxxxxxxxxyyy
    3286:	79 79 79 78 78 78 78 78 78 78 78 78 78 78 79 79     yyyxxxxxxxxxxxyy
    3296:	79 79 79 79 78 78 78 78 78 78 78 78 78 78 78 78     yyyyxxxxxxxxxxxx
    32a6:	78 79 79 79 78 79 78 78 78 78 78 79 79 79 79 78     xyyyxyxxxxxyyyyx
    32b6:	78 78 78 78 79 79 79 79 78 78 78 78 78 78 78 78     xxxxyyyyxxxxxxxx
    32c6:	78 78 78 78 79 78 78 78 78 79 78 79 79 79 78 78     xxxxyxxxxyxyyyxx
    32d6:	78 78 78 78 78 78 78 78 79 78 79 79 79 78 78 78     xxxxxxxxyxyyyxxx
    32e6:	78 78 78 78 78 78 78 78 78 78 78 78 78 78 78 78     xxxxxxxxxxxxxxxx
    32f6:	78 78 78 78 78 78 78 78 78 78 78 78 78 78 78 78     xxxxxxxxxxxxxxxx
    3306:	78 78 78 78 78 78 78 78 78 78 78 78 78 78 78 78     xxxxxxxxxxxxxxxx
    3316:	78 78 78 78 78 78 78 78 78 78 78 78 78 78 78 78     xxxxxxxxxxxxxxxx
    3326:	78 78 78 78 77 77 77 77 77 77 78 78 78 78 78 78     xxxxwwwwwwxxxxxx
    3336:	78 78 78 78 78 78 78 78 77 77 78 78 77 77 77 77     xxxxxxxxwwxxwwww
    3346:	77 77 77 77 77 77 77 77 74 6c 6f 7d 7d 72 6f 78     wwwwwwwwtlo}}rox
    3356:	7c 74 64 63 79 90 8b 6f 6a 7d 85 77 6e 75 72 5e     |tdcy..oj}.wnur^
    3366:	61 83 8d 6f 64 7e 8b 77 69 72 75 73 7c 8e 8e 75     a..od~.wirus|..u
    3376:	64 70 81 7c 72 7b 85 7c 6f 75 80 7a 72 7b 83 7b     dp.|r{.|ou.zr{.{
    3386:	74 7a 7f 7a 78 7e 7f 7c 77 7d 83 7d 75 7c 82 7d     tz.zx~.|w}.}u|.}
    3396:	77 7c 81 7e 78 7d 80 78 77 7a 79 77 74 75 77 74     w|.~x}.xwzywtuwt
    33a6:	75 74 78 78 73 73 77 75 70 6f 72 75 74 75 78 75     utxxsswuporutuxu
    33b6:	75 74 74 72 73 79 78 77 7a 78 77 7b 7a 7b 7c 7e     uttrsyxwzxw{z{|~
    33c6:	80 7d 7e 7e 7b 77 77 75 73 71 71 72 72 72 72 73     .}~~{wwusqqrrrrs
    33d6:	72 73 74 73 74 78 78 75 75 79 75 74 77 78 78 75     rststxxuuyutwxxu
    33e6:	75 75 75 74 77 74 75 78 77 74 73 79 77 72 73 75     uuutwtuxwtsywrsu
    33f6:	75 73 73 77 75 6f 70 73 73 70 6e 72 73 71 70 72     usswuopsspnrsqpr
    3406:	75 74 73 75 77 78 77 75 78 77 75 74 75 77 77 75     utsuwxwuxwutuwwu
    3416:	77 77 77 78 78 77 77 77 77 75 74 75 77 75 75 74     wwwxxwwwwutuwuut
    3426:	75 74 74 74 74 73 73 73 73 73 74 75 77 78 79 79     uttttssssstuwxyy
    3436:	78 78 7a 7a 79 79 7a 79 77 75 75 74 72 72 73 73     xxzzyyzywuutrrss
    3446:	73 73 78 7b 7d 7e 81 83 84 83 83 81 7c 73 6b 67     ssx{}~......|skg
    3456:	63 63 64 69 6f 73 77 7b 7e 80 85 8d 92 94 8f 80     ccdiosw{~.......
    3466:	6e 62 5d 59 56 5c 69 75 79 7a 7c 7e 7e 7f 88 92     nb]YV\iuyz|~~...
    3476:	9a 99 8b 79 6c 63 5b 55 57 63 72 79 7a 7b 7c 7a     ...ylc[UWcryz{|z
    3486:	78 7b 85 92 99 99 8f 7f 6d 60 5a 56 56 5f 6e 7a     x{......m`ZVV_nz
    3496:	7d 7b 7b 7b 7a 7b 83 91 9b 9b 8e 7d 6e 63 5a 55     }{{{z{.....}ncZU
    34a6:	58 62 6f 78 7b 7c 7a 78 77 7b 82 8e 99 9c 92 7e     Xbox{|zxw{.....~
    34b6:	6d 62 5a 55 56 60 6e 77 7b 7b 79 74 72 75 7d 8a     mbZUV`nw{{ytru}.
    34c6:	95 9e 9b 89 74 67 5d 56 52 5b 69 75 7b 7d 7c 78     ....tg]VR[iu{}|x
    34d6:	72 71 78 82 8e 9b a0 96 81 6f 63 5a 53 57 64 71     rqx......ocZSWdq
    34e6:	7a 7e 80 7c 74 70 73 7c 85 93 a0 a2 91 7b 6c 60     z~.|tps|.....{l`
    34f6:	55 51 5a 69 73 7b 80 7f 77 6f 6f 73 7a 85 96 a3     UQZis{..woosz...
    3506:	a0 8d 7b 6d 5e 53 55 5e 6a 73 7d 82 7d 74 70 70     ..{m^SU^js}.}tpp
    3516:	71 79 88 99 a1 9d 8d 7b 6b 5c 53 56 5f 6a 74 7d     qy.....{k\SV_jt}
    3526:	80 7b 73 6f 6e 6f 77 85 95 a0 a1 92 7e 6e 60 55     .{sonow.....~n`U
    3536:	55 5d 67 71 7c 81 7d 75 71 6e 6d 74 82 90 9c a2     U]gq|.}uqnmt....
    3546:	97 83 73 67 59 55 5c 64 6c 78 80 7d 75 73 6f 6c     ..sgYU\dlx.}usol
    3556:	71 7e 8a 96 a1 9a 86 78 6b 5a 55 5a 60 68 75 7e     q~.....xkZUZ`hu~
    3566:	7c 79 75 6f 6c 72 7a 83 92 9e 9b 8c 80 70 5f 59     |yuolrz......p_Y
    3576:	5a 5a 62 70 78 7a 7d 7a 74 74 75 79 82 8e 93 92     ZZbpxz}zttuy....
    3586:	8a 80 77 6b 67 64 67 69 71 77 77 78 77 75 77 77     ..wkgdgiqwwxwuww
    3596:	77 79 7b 7d 7f 82 80 7d 7e 79 73 73 6f 6d 6d 6b     wy{}...}~yssommk
    35a6:	6a 6d 6d 6e 72 73 78 7d 7c 80 85 88 85 81 82 7b     jmmnrsx}|......{
    35b6:	75 75 6e 6d 6d 69 6d 6d 6c 70 70 73 78 79 7c 7a     uunmmimmlppsxy|z
    35c6:	7f 84 89 89 85 8a 7c 7a 77 68 70 65 63 6d 64 6f     ......|zwhpecmdo
    35d6:	70 6f 79 74 7a 7d 7d 84 88 8d 86 8a 84 78 7c 6b     poytz}}......x|k
    35e6:	6c 6c 5f 6d 68 6b 75 6e 7a 78 78 7f 7a 82 85 8a     ll_mhkunzxx.z...
    35f6:	8b 85 89 7c 7a 74 6a 6e 63 68 6b 68 73 6f 74 79     ...|ztjnchkhsoty
    3606:	75 7e 7b 7f 84 86 8c 85 86 81 78 78 6c 6c 69 63     u~{.......xxllic
    3616:	6c 68 6e 71 71 79 77 7b 7d 7d 83 84 89 86 83 83     lhnqqyw{}}......
    3626:	79 78 70 6b 6c 64 69 6a 6b 71 6f 75 77 78 7d 7b     yxpkldijkqouwx}{
    3636:	80 82 85 89 82 84 7c 79 74 6c 6d 69 67 6b 69 6f     ......|ytlmigkio
    3646:	71 73 78 78 7b 7d 7e 84 85 89 85 84 80 79 77 6e     qsxx{}~......ywn
    3656:	6c 6a 65 6a 6a 6d 72 71 77 78 79 7d 7d 81 84 86     ljejjmrqwxy}}...
    3666:	85 83 81 7a 77 71 6c 6b 67 69 6b 6c 71 71 75 78     ...zwqlkgiklqqux
    3676:	78 7c 7d 80 84 85 85 83 81 7b 77 72 6d 6b 68 69     x|}......{wrmkhi
    3686:	6b 6c 71 72 74 79 79 7d 7f 81 85 88 85 82 80 7b     klqrtyy}.......{
    3696:	77 72 6d 6c 6a 6a 6d 6d 70 73 74 7a 7c 7c 7f 7f     wrmljjmmpstz||..
    36a6:	82 82 80 80 7f 7c 78 74 6f 6d 6b 6a 6c 6c 6d 70     .....|xtomkjllmp
    36b6:	71 74 78 7a 7e 81 85 8a 88 85 84 7d 77 71 68 69     qtxz~......}wqhi
    36c6:	60 60 64 65 70 72 7c 7e 80 85 8a 94 9e 8e 88 79     ``depr|~.......y
    36d6:	63 60 5a 59 63 6b 75 7f 7d 7a 75 70 72 79 81 91     c`ZYcku.}zupry..
    36e6:	a0 a5 97 88 72 5e 57 55 58 67 74 7d 84 7f 77 72     ....r^WUXgt}..wr
    36f6:	6e 73 81 91 a1 a5 92 83 6d 58 53 53 55 69 75 7c     ns......mXSSUiu|
    3706:	84 7b 72 71 6d 75 89 95 a1 9e 88 78 62 51 52 55     .{rqmu.....xbQRU
    3716:	5c 6f 7a 7d 7f 75 6e 70 73 7e 92 a0 9f 90 7d 67     \oz}.unps~....}g
    3726:	56 50 52 59 69 77 7d 7f 78 6f 6e 71 7b 8d 9f a3     VPRYiw}.xonq{...
    3736:	95 81 6d 59 50 53 57 64 77 7d 7e 7a 71 6c 6f 79     ..mYPSWdw}~zqloy
    3746:	89 9c a5 97 83 71 5c 4f 52 58 61 73 7e 7d 7a 75     .....q\ORXas~}zu
    3756:	6f 71 7e 8d 9c a3 94 7d 6c 5b 50 53 5b 67 75 80     oq~....}l[PS[gu.
    3766:	7f 79 74 70 72 7f 92 a1 a2 91 7b 68 58 50 55 5e     .ytpr.....{hXPU^
    3776:	6b 79 80 7e 77 73 72 77 86 9b a6 9f 89 74 61 52     ky.~wsrw.....taR
    3786:	50 58 62 70 7d 81 7a 73 71 72 7b 8d a2 aa 99 80     PXbp}.zsqr{.....
    3796:	6e 5b 4e 50 59 67 75 81 81 7a 73 72 75 80 95 a5     n[NPYgu..zsru...
    37a6:	a3 8e 7a 69 58 50 55 5f 6b 79 81 7e 77 73 75 7c     ..ziXPU_ky.~wsu|
    37b6:	8c 9f a6 95 7e 6e 60 53 52 5e 6b 74 7c 7f 79 70     ....~n`SR^kt|.yp
    37c6:	70 78 83 95 a6 a4 8b 72 64 58 4f 53 62 71 7a 80     px.....rdXOSbqz.
    37d6:	7f 78 70 72 7c 89 9b a5 99 7f 6c 60 56 51 59 69     .xpr|.....l`VQYi
    37e6:	73 7b 7e 7b 72 70 77 81 91 a3 a5 8e 73 64 5b 51     s{~{rpw.....sd[Q
    37f6:	51 5f 70 79 7d 7e 79 70 71 7c 89 99 a6 a2 88 6e     Q_py}~ypq|.....n
    3806:	61 5a 52 57 68 77 7b 7b 7b 75 6e 70 7e 91 a2 ab     aZRWhw{{{unp~...
    3816:	9e 82 6a 5c 55 52 59 69 79 80 7e 7a 73 6e 71 7f     ..j\URYiy.~zsnq.
    3826:	93 a3 a7 96 7d 68 5a 52 52 5c 6c 79 7d 7b 74 6e     ....}hZRR\ly}{tn
    3836:	6d 73 83 97 a6 a6 90 74 61 57 50 51 5e 70 7c 7e     ms.....taWPQ^p|~
    3846:	7a 74 6e 6d 74 85 99 a5 a4 8f 73 5f 56 51 55 60     ztnmt.....s_VQU`
    3856:	71 7d 7e 79 71 6c 6c 74 85 9b aa a8 91 74 60 56     q}~yqllt.....t`V
    3866:	50 55 61 73 7e 7f 7a 72 6c 6b 72 82 96 a6 ab 9a     PUas~.zrlkr.....
    3876:	7b 61 56 51 53 5f 70 7d 7f 7b 73 6c 69 6f 7b 8b     {aVQS_p}.{slio{.
    3886:	9f ac a5 8a 6c 5b 53 51 5b 6b 79 7d 7b 77 6e 65     ....l[SQ[ky}{wne
    3896:	68 74 83 94 a4 ad 9d 7a 5e 55 52 55 60 73 7f 7e     ht.....z^URU`s.~
    38a6:	78 72 69 63 69 78 89 99 a5 ab 99 75 5b 53 53 58     xricix.....u[SSX
    38b6:	63 74 7f 7d 78 71 6a 65 6c 7b 8a 97 a3 a6 94 73     ct.}xqjel{.....s
    38c6:	5b 55 57 5b 67 75 7e 7c 77 71 6c 69 6e 7c 89 95     [UW[gu~|wqlin|..
    38d6:	a0 a3 95 78 5f 58 58 5c 65 72 7c 7d 78 72 6d 6a     ...x_XX\er|}xrmj
    38e6:	6f 7b 86 92 9d a0 94 7a 62 5a 59 5d 67 72 7a 7c     o{.....zbZY]grz|
    38f6:	79 73 6c 6a 6e 78 81 8c 97 9e 97 84 6c 5e 5a 5d     ysljnx......l^Z]
    3906:	65 72 7a 7a 79 77 6e 67 6a 73 7c 85 91 9c 9d 93     erzzywngjs|.....
    3916:	7f 6a 5d 5c 61 6b 75 7c 7d 79 73 6c 67 68 70 7a     .j]\aku|}yslghpz
    3926:	83 8d 95 99 96 86 70 61 5f 62 68 72 7a 79 77 74     ......pa_bhrzywt
    3936:	6f 67 65 6f 78 7d 86 90 94 92 8e 7f 6b 62 63 65     ogeox}......kbce
    3946:	6a 74 7a 77 73 72 6d 65 69 71 78 7e 88 8e 8f 90     jtzwsrmeiqx~....
    3956:	8f 7e 6b 67 67 64 6a 75 79 74 73 73 6c 65 6b 71     .~kggdjuytsslekq
    3966:	74 7c 86 8b 8c 91 92 81 70 6b 68 62 69 74 75 73     t|......pkhbitus
    3976:	77 75 6e 6a 6d 6f 72 7b 82 85 8a 8f 8f 88 7a 70     wunjmor{......zp
    3986:	6a 67 68 6e 73 77 77 77 71 6e 6d 6d 70 77 7d 81     jghnswwwqnmmpw}.
    3996:	86 8b 8d 8c 83 77 72 6c 6a 6b 70 71 72 75 75 73     .....wrljkpqruus
    39a6:	74 75 77 77 77 77 78 7b 7d 7e 80 81 80 7d 7b 77     tuwwwwx{}~...}{w
    39b6:	73 71 6f 6e 6e 6f 71 72 73 74 75 77 79 7b 7d 80     sqonnoqrstuwy{}.
    39c6:	83 84 82 7f 7c 77 73 70 6f 6d 6d 6f 71 73 75 77     ....|wspommoqsuw
    39d6:	78 78 79 7a 7c 7d 7f 81 82 81 7f 7c 78 73 71 70     xxyz|}.....|xsqp
    39e6:	6f 6f 71 72 74 75 75 77 78 79 7a 7b 7d 7e 80 81     ooqrtuuwxyz{}~..
    39f6:	80 7e 7c 78 74 72 70 6f 6f 6f 71 72 74 75 77 78     .~|xtrpoooqrtuwx
    3a06:	78 79 7a 7b 7c 7e 7f 80 7e 7d 7a 77 73 71 70 6f     xyz{|~..~}zwsqpo
    3a16:	6f 71 72 73 74 75 77 77 78 79 7a 7c 7d 7f 80 7f     oqrstuwwxyz|}...
    3a26:	7d 7b 77 73 71 70 70 6f 70 71 72 73 74 75 77 78     }{wsqppopqrstuwx
    3a36:	78 79 7a 7c 7d 7f 7f 7e 7c 79 75 73 71 70 6f 6f     xyz|}..~|yusqpoo
    3a46:	70 71 73 74 75 77 78 78 79 7a 7b 7d 7e 7f 7e 7d     pqstuwxxyz{}~.~}
    3a56:	7a 78 74 72 71 70 6f 70 71 73 74 75 77 77 78 78     zxtrqpopqstuwwxx
    3a66:	79 7a 7b 7d 7e 7e 7e 7c 7a 77 73 71 70 70 70 71     yz{}~~~|zwsqpppq
    3a76:	72 73 74 75 77 77 78 79 7b 7c 7d 7e 7e 7e 7d 7b     rstuwwxy{|}~~~}{
    3a86:	78 75 72 71 70 70 70 71 72 73 74 77 78 79 79 7b     xurqpppqrstwxyy{
    3a96:	7b 7c 7d 7d 7d 7c 7b 79 77 73 72 71 70 70 71 71     {|}}}|{ywsrqppqq
    3aa6:	73 75 77 78 79 7a 7a 7b 7c 7c 7c 7c 7c 7b 79 78     suwxyzz{|||||{yx
    3ab6:	75 73 72 72 71 71 72 73 74 75 77 78 79 79 7a 7b     usrrqqrstuwxyyz{
    3ac6:	7b 7b 7b 7b 7a 79 79 77 75 74 73 72 72 72 73 74     {{{{zyywutsrrrst
    3ad6:	75 75 77 78 78 79 7a 7a 7a 7a 7b 7b 7a 7a 79 78     uuwxxyzzzz{{zzyx
    3ae6:	77 74 74 74 74 74 74 75 75 77 78 78 79 79 7a 7a     wttttttuuwxxyyzz
    3af6:	7a 7a 7a 7a 79 79 78 78 77 77 75 75 75 75 75 75     zzzzyyxxwwuuuuuu
    3b06:	75 77 77 77 78 78 78 78 79 79 79 79 79 78 78 78     uwwwxxxxyyyyyxxx
    3b16:	77 77 77 77 77 77 77 77 77 77 77 77 77 78 78 78     wwwwwwwwwwwwwxxx
    3b26:	78 78 78 78 78 78 78 78 78 78 78 78 78 78 77 77     xxxxxxxxxxxxxxww
    3b36:	77 77 77 77                                         wwww

00003b3a <wavdata2>:
    3b3a:	74 75 75 75 75 75 75 75 75 75 74 74 73 73 72 72     tuuuuuuuuuttssrr
    3b4a:	72 72 72 72 72 72 72 73 73 73 73 74 74 74 74 74     rrrrrrrssssttttt
    3b5a:	74 74 75 75 75 75 75 75 74 74 73 73 73 72 72 72     ttuuuuuuttsssrrr
    3b6a:	72 72 72 72 72 73 73 73 73 73 74 74 74 74 74 74     rrrrrssssstttttt
    3b7a:	74 74 74 74 75 74 74 74 74 73 73 72 72 6f 6f 66     ttttuttttssrroof
    3b8a:	5b 6a 5e 64 6e 6d 75 69 6e 6d 6c 66 6b 6e 78 89     [j^dnmuinmlfknx.
    3b9a:	90 93 89 78 6b 5a 4e 50 58 69 76 74 72 60 51 51     ...xkZNPXivtr`QQ
    3baa:	4e 5a 74 89 9b ae ae c1 c3 dd a1 55 40 11 23 4e     NZt........U@.#N
    3bba:	64 a5 b4 99 8d 4f 26 26 2a 53 7e 85 90 81 71 78     d....O&&*S~...qx
    3bca:	84 aa d3 ff 00 ab 51 2d 00 39 7e 9b d7 b9 6f 4f     ......Q-.9~...oO
    3bda:	18 15 48 60 8b 93 6d 63 57 60 91 b8 df d1 d8 9e     ..H`..mcW`......
    3bea:	2e 13 0b 47 a7 bd ba 93 42 1e 1e 35 69 89 7e 67     ...G....B..5i.~g
    3bfa:	4d 3e 4e 75 a6 ce e3 e9 de 73 17 1a 30 69 ba b5     M>Nu.....s..0i..
    3c0a:	85 60 2b 17 3d 63 76 80 63 40 3f 48 5d 8f b6 c4     .`+.=cv.c@?H]...
    3c1a:	c7 cb c7 78 27 2d 49 6d a3 a1 71 53 3a 29 4b 71     ...x'-Im..qS:)Kq
    3c2a:	6f 6a 5c 42 45 5a 6a 8d b4 bd b6 c1 cf 82 2d 32     oj\BEZj.......-2
    3c3a:	4e 6a 9e a2 6e 51 41 31 4d 76 71 62 5b 47 49 64     Nj..nQA1Mvqb[GId
    3c4a:	75 8d ae ba b2 c1 d4 81 29 33 55 6d 9e a2 6a 4c     u.......)3Um..jL
    3c5a:	45 3c 4f 76 73 5c 55 49 49 63 79 8f a9 b4 ae be     E<Ovs\UIIcy.....
    3c6a:	d5 85 2a 32 5a 6f 9b a5 6b 47 48 45 51 79 76 58     ..*2Zo..kGHEQyvX
    3c7a:	51 4e 4c 64 7b 8b a1 af ad b8 d4 90 31 30 5a 71     QNLd{.......10Zq
    3c8a:	96 a2 6e 48 49 4b 56 74 76 5c 4f 4e 50 64 7b 89     ..nHIKVtv\ONPd{.
    3c9a:	9a a5 a5 b1 d0 a0 40 2f 50 6a 90 a2 78 4f 49 4b     ......@/Pj..xOIK
    3caa:	55 73 79 5f 4f 4e 4f 5f 75 81 91 9e 9f a8 c9 b4     Usy_ONO_u.......
    3cba:	55 2f 4b 65 88 a5 83 56 4f 4f 54 6d 78 66 55 4f     U/Ke...VOOTmxfUO
    3cca:	4f 5c 71 7d 8b 98 9b 9e ba c5 73 33 42 5c 79 a0     O\q}......s3B\y.
    3cda:	90 5f 50 51 55 69 78 6c 57 4f 4f 58 6b 75 7c 90     ._PQUixlWOOXku|.
    3cea:	94 94 a6 c5 a9 55 38 4d 65 8d a0 78 5a 54 50 62     .....U8Me..xZTPb
    3cfa:	75 73 66 5a 4d 54 64 6e 79 87 8d 92 9c aa bf 92     usfZMTdny.......
    3d0a:	49 3e 4e 6f a6 a7 6b 4f 48 4b 6a 79 6e 5e 4b 41     I>No..kOHKjyn^KA
    3d1a:	4f 64 73 7e 8d 96 9b aa cb d7 80 2e 36 50 80 af     Ods~........6P..
    3d2a:	91 62 50 44 55 7b 72 6a 62 41 44 5a 60 75 81 85     .bPDU{rjbADZ`u..
    3d3a:	93 98 a3 c6 ce 7c 38 39 4e 82 ab 8c 6a 54 42 5c     .....|89N...jTB\
    3d4a:	7c 72 6f 65 48 49 54 5e 78 7e 82 8d 8d 9f b7 d2     |roeHIT^x~......
    3d5a:	a7 4e 37 45 6a a5 a0 7a 60 48 50 73 7d 76 6c 53     .N7Ej..z`HPs}vlS
    3d6a:	4b 51 5c 6f 7a 80 89 8c 97 a7 c6 b9 63 3d 40 57     KQ\oz.......c=@W
    3d7a:	94 a0 82 6d 4b 4b 6b 79 82 6d 50 4e 4c 5b 6c 6d     ...mKKky.mPNL[lm
    3d8a:	7a 81 85 93 9b b5 cd 87 46 42 42 7d a5 8c 7d 58     z.......FBB}..}X
    3d9a:	44 5f 6e 82 7c 5d 55 49 51 69 6d 7a 83 82 8d 96     D_n.|]UIQimz....
    3daa:	a2 c7 a8 5b 48 3f 64 9a 92 88 69 48 57 64 7a 7e     ...[H?d...iHWdz~
    3dba:	67 5e 49 4f 5f 67 7a 7c 85 8b 8f 9e ba b1 69 4b     g^IO_gz|......iK
    3dca:	41 58 8f 92 8b 71 4e 55 5e 76 80 6c 60 4e 4e 5b     AX...qNU^v.l`NN[
    3dda:	65 75 7c 87 89 8d 98 b1 b4 6f 4e 42 53 88 90 8b     eu|......oNBS...
    3dea:	75 51 56 5b 71 80 6c 65 50 4e 5b 63 75 7c 87 8b     uQV[q.lePN[cu|..
    3dfa:	8f 99 b1 b1 6f 53 44 56 89 8f 8f 75 54 57 5b 73     ....oSDV...uTW[s
    3e0a:	7d 6e 67 50 53 5a 65 78 7e 8b 8c 92 9c b6 a3 64     }ngPSZex~......d
    3e1a:	51 44 65 8c 8c 8c 6a 56 58 5d 79 7a 6c 62 4e 56     QDe...jVX]yzlbNV
    3e2a:	5c 6a 78 81 8d 8c 96 9f b7 8c 58 4f 45 75 8b 8b     \jx.......XOEu..
    3e3a:	85 5d 57 56 64 7d 72 6d 58 4e 58 5a 6f 75 87 8d     .]WVd}rmXNXZou..
    3e4a:	8d 9a a8 b1 71 54 48 53 87 8a 8d 78 57 58 57 6f     ....qTHS...xWXWo
    3e5a:	7c 6e 66 50 53 5b 65 75 7e 8c 8f 96 a1 b5 85 56     |nfPS[eu~......V
    3e6a:	4d 47 7b 8b 8b 82 5b 57 54 64 7a 6f 6e 57 50 56     MG{...[WTdzonWPV
    3e7a:	5a 72 7a 8c 8d 91 9e b0 96 5c 50 46 6c 8c 8a 8a     Zrz......\PFl...
    3e8a:	65 56 56 5d 76 74 67 5e 4f 5b 62 6d 7e 8a 96 99     eVV]vtg^O[bm~...
    3e9a:	9e b5 85 55 53 47 7b 8d 8a 89 5f 5a 57 60 7b 6f     ...USG{..._ZW`{o
    3eaa:	6c 5e 51 5d 62 72 85 92 9a 9e aa ad 6d 53 4c 54     l^Q]br......mSLT
    3eba:	88 8b 8b 7d 58 5a 56 64 72 69 69 5b 57 60 65 7c     ...}XZVdrii[W`e|
    3eca:	8c 97 a1 a9 b0 73 4d 4b 4b 7d 8f 89 85 5f 55 55     .....sMKK}..._UU
    3eda:	57 6c 6f 6e 67 5b 60 69 80 96 a1 b0 bf 9e 5f 4b     Wlong[`i......_K
    3eea:	40 5c 87 8b 90 7d 5c 53 4d 56 6c 6d 6e 67 5d 65     @\...}\SMVlmng]e
    3efa:	71 80 94 a5 ba ae 6e 50 40 44 6f 81 88 8f 6e 56     q.....nP@Do...nV
    3f0a:	51 49 5c 6a 69 71 6e 6b 78 7c 89 a2 b1 a8 7d 5f     QI\jiqnkx|....}_
    3f1a:	4f 4c 62 73 7c 84 78 66 60 5a 5b 65 6a 72 7c 7e     OLbs|.xf`Z[ejr|~
    3f2a:	83 87 88 93 9b 97 87 75 67 60 64 6b 72 78 78 75     .......ug`dkrxxu
    3f3a:	74 71 6e 6f 72 76 79 7a 7d 7b 79 7d 7e 7e 81 7e     tqnorvyz}{y}~~.~
    3f4a:	79 76 73 6e 6f 73 74 76 75 73 74 75 74 75 76 75     yvsnostvustutuvu
    3f5a:	76 78 78 78 79 79 79 79 79 78 78 76 75 75 75 75     vxxxyyyyyxxvuuuu
    3f6a:	75 75 74 73 74 74 74 74 74 73 73 73 73 73 74 74     uutstttttssssstt
    3f7a:	74 74 74 74 74 74 73 74 74 73 73 73 72 72 72 72     ttttttsttsssrrrr
    3f8a:	72 72 72 72 71 71 72 72 72 72 72 72 72 72 72 72     rrrrqqrrrrrrrrrr
    3f9a:	72 72 72 72 72 72 72 72 72 72 72 72 72 72 72 72     rrrrrrrrrrrrrrrr
    3faa:	72 72 72 72 72 72 72 72 72 72 72 72 72 72 72 72     rrrrrrrrrrrrrrrr
    3fba:	72 72 72 72 72 72 72 72 72 72 72 72 72 72 72 72     rrrrrrrrrrrrrrrr
    3fca:	72 72 72 72 72 72 72 72 72 72 72 72 72 72 72 71     rrrrrrrrrrrrrrrq
    3fda:	72 72 72 72 72 72 72 72 72 72 72 73 72 72 72 72     rrrrrrrrrrrsrrrr
    3fea:	72 72 72 72 72 72 72 72 72 72 72 72 72 72 72 72     rrrrrrrrrrrrrrrr
    3ffa:	72 72 72 72 72 72 72 72 72 72 72 72 72 72 72 72     rrrrrrrrrrrrrrrr
    400a:	72 72 72 72 72 72 72 72 72 72 72 72 72 72 72 72     rrrrrrrrrrrrrrrr
    401a:	72 72 72 72 72 72 72 72 72 72 72 72 72 72 72 72     rrrrrrrrrrrrrrrr
    402a:	72 72 72 72 72 72 72 72 72 72 73 72 73 73 73 73     rrrrrrrrrrsrssss
    403a:	73 73 73 73 73 73 73 73 73 73 73 73 73 73 73 73     ssssssssssssssss
    404a:	73 73 73 73 73 73 73 73 73 73 73 73 73 73 73 73     ssssssssssssssss
    405a:	73 73 73 73 73 73 73 73 73 73 73 73 73 73 73 73     ssssssssssssssss
    406a:	73 73 73 73 73 73 73 73 73 73 73 73 73 73 73 73     ssssssssssssssss
    407a:	73 73 73 73 73 73 73 73 73 73 73 73 72 72 72 73     ssssssssssssrrrs
    408a:	69 4e 66 8f 7a 58 5a 6e 7b 74 6b 71 79 72 6c 72     iNf.zXZn{tkqyrlr
    409a:	79 74 6e 71 76 76 72 75 74 64 5f 75 82 72 6b 76     ytnqvvrutd_u.rkv
    40aa:	79 6d 6c 78 79 72 74 79 75 6f 72 78 75 6e 71 76     ymlxyrtyuorxunqv
    40ba:	72 6c 6f 75 6e 69 6f 6f 6b 6c 6f 6d 6b 71 73 71     rlouniooklomkqsq
    40ca:	6f 71 71 6e 6e 72 78 78 7c 7e 7a 78 7b 7c 79 74     oqqnnrxx|~zx{|yt
    40da:	72 6d 67 66 66 67 66 67 6d 74 78 7b 7e 83 89 92     rmgffgfgmtx{~...
    40ea:	9a 98 7b 5d 57 5d 5c 5d 6d 79 6e 5a 4f 51 55 5b     ..{]W]\]mynZOQU[
    40fa:	66 76 8a 99 a3 b9 c7 a0 63 47 4c 54 62 7b 90 8d     fv......cGLTb{..
    410a:	7d 72 5f 41 3a 54 6c 72 7a 89 8f 91 a3 c9 d5 97     }r_A:Tlrz.......
    411a:	53 44 4d 54 66 87 8f 78 65 5d 50 46 54 6d 79 83     SDMTf..xe]PFTmy.
    412a:	98 a6 ad c5 d8 a5 51 38 4d 5e 6e 8a 8d 72 5f 5d     ......Q8M^n..r_]
    413a:	50 41 4e 69 73 7c 94 aa b6 d4 c7 69 26 35 54 60     PANis|.....i&5T`
    414a:	7c 90 79 5c 5a 5a 48 48 64 75 76 88 a5 b2 ce e2     |.y\ZZHHduv.....
    415a:	90 2d 24 4c 5c 74 99 8b 5e 54 5b 4b 44 5d 72 71     .-$L\t..^T[KD]rq
    416a:	7e 99 a3 b8 ea c4 4c 20 3f 51 65 99 9e 67 55 5e     ~.....L ?Qe..gU^
    417a:	4c 41 5a 6b 6a 79 8f 94 a3 d7 e7 82 2d 30 40 4f     LAZkjy......-0@O
    418a:	85 aa 83 5a 58 4c 3f 54 66 65 73 88 8d 9b be e9     ...ZXL?Tfes.....
    419a:	bf 56 2d 35 40 69 9c 99 6d 5b 4d 3c 46 5c 5f 6a     .V-5@i..m[M<F\_j
    41aa:	7b 7e 8a a7 cb e3 99 3f 2f 36 48 7d a1 8f 6c 54     {~.....?/6H}..lT
    41ba:	41 3f 4f 5b 63 73 7e 87 9b b4 da cc 69 38 38 38     A?O[cs~.....i888
    41ca:	5f 94 97 7a 69 50 3e 4b 55 58 6d 7a 7d 92 a8 be     _..ziP>KUXmz}...
    41da:	e1 9e 47 3f 36 40 7d 94 80 79 64 41 48 4f 49 62     ..G?6@}..ydAHOIb
    41ea:	73 73 8a 9e a7 d2 c4 5f 49 3e 2f 65 89 80 82 75     ss....._I>/e...u
    41fa:	50 51 51 48 5b 6d 72 89 9b a1 c1 d3 88 5b 50 2f     PQQH[mr......[P/
    420a:	4d 75 73 85 7e 67 62 5c 4c 56 60 6d 82 96 9b b4     Mus.~gb\LV`m....
    421a:	cb aa 6f 64 3c 40 5e 63 7a 7d 6d 71 62 55 55 55     ..od<@^cz}mqbUUU
    422a:	60 78 83 94 a0 ae b1 85 6b 5d 40 54 5a 5f 71 69     `x......k]@TZ_qi
    423a:	72 71 66 62 5d 5f 73 7c 8a 91 9c a9 9a 7e 79 5a     rqfb]_s|.....~yZ
    424a:	53 5d 50 67 65 67 7a 6c 6f 69 63 6f 74 7b 84 82     S]Pgegzloicot{..
    425a:	96 91 8c 84 73 66 63 5e 5c 67 66 72 72 6c 72 6b     ....sfc^\gfrrlrk
    426a:	6e 73 72 78 75 7a 82 84 8b 7e 78 78 6e 73 67 66     nsrxuz...~xxnsgf
    427a:	6c 6b 6e 6c 6c 6f 6b 6f 6e 71 75 76 7d 84 90 94     lknllokonquv}...
    428a:	8a 82 6d 64 60 56 5e 64 6c 78 74 73 64 5d 66 62     ..md`V^dlxtsd]fb
    429a:	73 71 79 84 85 9a a5 a2 8d 78 5c 4f 4d 53 65 75     sqy......x\OMSeu
    42aa:	7e 7b 72 5d 50 50 5a 6c 7b 89 93 9e af b0 9f 73     ~{r]PPZl{......s
    42ba:	5b 46 4c 5f 6d 81 7e 72 66 54 53 53 5d 6e 7c 94     [FL_m.~rfTSS]n|.
    42ca:	9f b2 bc a3 72 50 39 44 5e 73 83 7b 6c 5c 50 4e     ....rP9D^s.{l\PN
    42da:	51 5e 6d 80 91 9e b5 b4 90 5d 40 31 4b 64 79 81     Q^m......]@1Kdy.
    42ea:	6d 5f 51 4e 53 5a 69 76 8b 98 af bf a9 72 4d 32     m_QNSZiv.....rM2
    42fa:	40 5d 75 82 78 66 55 4e 4d 54 60 6d 82 8f a2 bc     @]u.xfUNMT`m....
    430a:	b8 8f 5c 40 37 55 6e 83 83 6c 60 4f 53 54 5e 6c     ..\@7Un..l`OST^l
    431a:	7a 8f 9a b5 c1 a9 73 4f 39 4b 67 7e 8a 7b 67 56     z.....sO9Kg~.{gV
    432a:	50 53 5a 67 72 85 91 a5 bc b6 88 5c 3e 3d 58 6f     PSZgr......\>=Xo
    433a:	87 81 6c 5c 4c 4f 50 5f 67 76 89 93 ae b7 a1 6d     ..l\LOP_gv.....m
    434a:	4f 37 49 62 7a 85 79 67 55 4d 4f 56 64 6f 82 90     O7Ibz.ygUMOVdo..
    435a:	a5 b9 b8 8f 65 47 40 58 6d 87 88 7a 66 55 4e 51     ....eG@Xm..zfUNQ
    436a:	5b 69 76 8a 96 aa ba b2 87 63 48 48 5e 73 87 85     [iv......cHH^s..
    437a:	7d 69 5b 4f 50 5b 6a 7a 8b 99 ae bc b1 84 63 45     }i[OP[jz......cE
    438a:	47 5a 6f 87 88 84 6e 5e 4e 4b 53 62 75 84 91 9f     GZo...n^NKSbu...
    439a:	af b2 9b 73 5a 45 51 5f 78 84 85 81 6e 63 51 53     ...sZEQ_x...ncQS
    43aa:	55 64 73 83 90 9b ab b0 a5 7e 6a 50 54 5c 6a 7c     Uds......~jPT\j|
    43ba:	7b 7e 73 6a 5f 5a 5f 66 79 87 94 a1 a9 a9 92 79     {~sj_Z_fy......y
    43ca:	64 55 5a 5d 6c 73 75 78 73 71 6b 6b 6e 75 81 88     dUZ]lsuxsqkknu..
    43da:	8c 92 92 91 89 81 7a 73 71 6e 6f 71 73 76 76 76     ......zsqnoqsvvv
    43ea:	75 75 75 75 76 76 76 78 79 7a 7b 7b 7a 79 78 75     uuuuvvvxyz{{zyxu
    43fa:	74 72 71 6f 6e 6e 6e 6e 6f 71 71 71 72 72 73 73     trqonnnnoqqqrrss
    440a:	74 75 76 76 76 76 75 74 72 71 6f 6e 6d 6d 6d 6d     tuvvvvutrqonmmmm
    441a:	6d 6d 6e 6e 6f 71 72 72 72 73 72 72 73 73 74 74     mmnnoqrrrsrrsstt
    442a:	74 73 73 73 71 71 6f 6e 6d 6d 6d 6d 6e 6e 6f 6f     tsssqqonmmmmnnoo
    443a:	6f 71 71 72 73 73 74 75 75 75 75 74 73 72 71 6f     oqqrsstuuuutsrqo
    444a:	6f 6e 6e 6e 6e 6e 6e 6f 6f 71 72 72 72 73 73 73     onnnnnnooqrrrsss
    445a:	73 73 73 74 74 75 75 74 74 73 72 71 6f 6f 6e 6e     sssttuuttsrqoonn
    446a:	6e 6e 6f 6f 71 71 71 72 72 73 73 74 74 75 75 75     nnooqqqrrssttuuu
    447a:	75 75 74 74 73 72 71 6f 6f 6e 6e 6e 6e 6f 6f 71     uuttsrqoonnnnooq
    448a:	72 72 72 73 73 73 74 74 75 75 75 75 76 75 74 74     rrrsssttuuuuvutt
    449a:	72 72 71 6f 6f 6e 6e 6e 6e 6f 71 71 72 72 73 73     rrqoonnnnoqqrrss
    44aa:	73 73 73 74 75 75 76 76 76 75 75 74 72 72 6f 6f     ssstuuvvvuutrroo
    44ba:	6f 6e 6f 6f 6f 71 71 71 72 73 73 73 74 74 74 75     onoooqqqrssstttu
    44ca:	75 76 76 76 76 75 75 74 73 73 71 71 71 6f 6f 71     uvvvvuutssqqqooq
    44da:	71 71 72 72 73 73 73 73 73 74 74 74 75 75 76 76     qqrrssssstttuuvv
    44ea:	76 76 76 76 75 74 73 72 72 71 71 6f 6f 71 71 71     vvvvutsrrqqooqqq
    44fa:	72 72 73 73 73 73 73 73 74 73 74 75 76 72 75 75     rrsssssststuvruu
    450a:	76 75 73 73 6c 62 5f 5b 65 67 71 74 6f 6c 66 63     vusslb_[egqtolfc
    451a:	62 63 6a 71 75 7c 84 8b 98 a3 bf a2 6f 5c 39 45     bcjqu|......o\9E
    452a:	66 79 9e a0 87 73 50 42 4c 55 6e 7c 78 73 62 5e     fy...sPBLUn|xsb^
    453a:	6e 83 a7 c3 da e6 6c 37 2a 21 7c ab b1 ba 6c 38     n.....l7*!|...l8
    454a:	33 30 6c 8f 85 7d 50 3d 46 4f 71 87 97 a3 a2 9e     30l..}P=FOq.....
    455a:	bf 8f 3a 4c 47 65 aa 96 80 72 3a 42 66 72 8c 81     ..:LGe...r:Bfr..
    456a:	4b 3e 41 51 76 78 71 81 84 98 ad cf c6 46 28 42     K>AQvxq......F(B
    457a:	53 a3 c6 8a 69 44 29 5f 8d 92 8f 5c 2e 40 5b 71     S...iD)_...\.@[q
    458a:	85 73 65 79 84 9a b5 d8 c4 3c 19 48 67 ab cf 84     .sey.....<.Hg...
    459a:	49 3c 37 69 a8 9a 76 51 2a 3f 72 7c 79 6d 5c 6e     I<7i..vQ*?r|ym\n
    45aa:	8a 9c b2 d4 cd 44 09 48 76 a7 d0 8d 37 32 49 6e     .....D.Hv...72In
    45ba:	a9 a6 64 45 3c 41 71 85 6d 65 62 66 85 9b ab c0     ..dE<Aq.mebf....
    45ca:	dc 6f 01 35 7e 98 c0 a8 42 22 4f 72 93 aa 74 3a     .o.5~...B"Or..t:
    45da:	3f 4e 64 80 73 5b 5e 67 79 91 a8 b2 d0 a9 1c 0d     ?Nd.s[^gy.......
    45ea:	6d 9b a8 b5 6d 1f 37 72 8a 9e 90 4d 2d 4b 65 73     m...m.7r...M-Kes
    45fa:	79 62 56 65 76 87 9b af c3 c8 51 00 46 96 a3 b1     ybVev.....Q.F...
    460a:	91 37 21 5e 89 94 98 67 32 3d 5d 6b 75 6d 5a 5c     .7!^...g2=]kumZ\
    461a:	6d 80 90 a7 b8 d0 7e 08 24 81 a1 ab a2 53 1b 46     m.....~.$....S.F
    462a:	7e 8f 98 7c 3e 32 51 67 76 74 5d 58 66 7c 8d a2     ~..|>2Qgvt]Xf|..
    463a:	b2 cd a0 1e 12 6d 9c a8 ae 6c 24 38 73 8c 99 8a     .....m...l$8s...
    464a:	4b 32 4f 60 71 79 64 58 64 76 88 9b ae c8 bc 3a     K2O`qydXdv.....:
    465a:	08 56 92 a2 b6 87 31 2e 62 81 98 96 5e 39 41 5a     .V....1.b...^9AZ
    466a:	74 7a 69 5e 62 75 89 9a ae cc bf 40 0d 55 88 a1     tzi^bu.....@.U..
    467a:	be 8c 38 35 5a 74 98 9f 63 3d 44 4e 6b 84 72 60     ..85Zt..c=DNk.r`
    468a:	66 74 88 a2 b1 d2 b5 2f 15 5c 80 a6 c4 80 37 3d     ft...../.\....7=
    469a:	50 6c 9f 99 5d 44 41 47 6d 81 6c 66 67 72 89 a0     Pl..]DAGm.lfgr..
    46aa:	af d6 a2 23 29 5c 72 b0 c3 75 49 48 40 6c a1 8d     ...#)\r..uIH@l..
    46ba:	67 53 39 48 6f 74 72 72 6c 7c 90 9f b6 da 7c 26     gS9Hotrrl|....|&
    46ca:	44 4f 73 bd a7 72 64 3f 3d 76 89 7d 79 55 3f 56     DOs..rd?=v.}yU?V
    46da:	64 6c 7b 73 7b 8f 91 9e c0 c0 5d 44 4e 49 87 ab     dl{s{.....]DNI..
    46ea:	90 8c 6e 41 53 66 6d 87 75 57 5d 54 5a 6d 6c 76     ..nASfm.uW]TZmlv
    46fa:	90 8f a0 a8 c1 99 4f 55 47 56 90 8b 8d 92 64 58     ......OUGV....dX
    470a:	5e 51 67 74 6a 71 67 5d 65 60 67 7b 88 97 a8 ae     ^Qgtjqg]e`g{....
    471a:	c1 76 63 58 38 60 6e 71 97 8b 7b 81 5c 5c 5e 53     .vcX8`nq..{.\\^S
    472a:	66 6b 69 7b 6e 71 78 76 84 90 93 ab a5 79 88 5a     fki{nqxv.....y.Z
    473a:	5c 67 54 74 71 73 84 79 78 7d 6b 6d 6a 64 72 75     \gTtqs.yx}kmjdru
    474a:	7a 7b 76 79 76 76 78 78 7c 7c 7b 7d 78 78 76 71     z{vyvvxx||{}xxvq
    475a:	73 6c 6c 6b 69 6b 6b 6c 6e 6e 71 72 72 74 73 74     sllkikklnnqrrtst
    476a:	74 75 76 78 7b 7a 7c 7a 78 79 74 76 71 72 6e 6c     tuvx{z|zxytvqrnl
    477a:	6d 6b 6d 6b 6d 6c 6d 6d 6e 6f 6f 71 72 72 74 76     mkmkmlmmnooqrrtv
    478a:	75 76 76 75 74 72 73 6f 71 6d 6d 6b 6c 6c 6c 6e     uvvutrsoqmmkllln
    479a:	6e 71 6f 72 72 74 73 75 74 76 78 7a 7a 7c 7a 7a     nqorrtsutvxzz|zz
    47aa:	78 75 74 72 72 6f 6f 6e 6f 6e 71 6f 72 72 73 73     xutrroononqorrss
    47ba:	74 74 75 75 75 76 76 79 79 79 78 76 76 74 73 72     ttuuuvvyyyxvvtsr
    47ca:	71 6f 6f 6e 6e 6f 6f 6f 71 71 72 72 73 74 74 74     qoonnoooqqrrsttt
    47da:	74 74 75 76 76 76 78 76 76 75 75 73 72 71 71 6f     ttuvvvxvvuusrqqo
    47ea:	6f 6f 6f 71 71 71 71 73 73 73 73 74 74 74 74 74     oooqqqqssssttttt
    47fa:	75 75 76 76 76 76 75 74 73 72 72 71 6f 6f 6f 6f     uuvvvvutsrrqoooo
    480a:	6f 71 71 72 73 73 73 74 74 74 74 74 73 74 74 74     oqqrssstttttsttt
    481a:	74 75 75 74 74 73 72 72 71 71 71 6f 6f 6f 6f 71     tuuttsrrqqqooooq
    482a:	71 72 72 72 72 73 73 73 73 73 73 73 73 73 73 74     qrrrrsssssssssst
    483a:	74 73 73 73 72 72 71 71 71 71 71 71 71 71 71 71     tsssrrqqqqqqqqqq
    484a:	72 72 73 73 73 73 73 73 73 73 73 73 73 73 74 74     rrsssssssssssstt
    485a:	74 74 73 73 73 72 72 72 71 71 71 71 71 72 72 72     ttsssrrrqqqqqrrr
    486a:	73 73 73 73 73 73 73 73 73 72 73 73 73 73 73 73     sssssssssrssssss
    487a:	73 73 73 73 73 72 72 72 72 72 71 71 6d 69 6e 72     sssssrrrrrqqminr
    488a:	72 71 71 71 71 72 72 72 72 73 73 73 73 73 73 73     rqqqqrrrrsssssss
    489a:	73 72 72 73 73 73 72 72 72 71 71 6f 6f 71 71 6e     srrsssrrrqqooqqn
    48aa:	67 69 6e 71 74 74 75 75 76 76 78 79 79 79 79 79     ginqttuuvvxyyyyy
    48ba:	78 76 75 75 74 72 6f 6e 6d 6d 6b 69 6a 6e 71 73     xvuutronmmkijnqs
    48ca:	74 76 76 76 7a 7d 83 88 91 8f 8b 7e 74 6a 64 63     tvvvz}.....~tjdc
    48da:	66 6c 73 79 7a 78 6f 67 60 5d 5f 66 6f 7a 83 8b     flsyzxog`]_foz..
    48ea:	92 96 a3 96 89 72 62 57 57 5f 6c 79 83 82 7c 6d     .....rbWW_ly..|m
    48fa:	5f 54 50 55 5f 6c 75 7c 82 84 8c 93 a7 90 81 62     _TPU_lu|.......b
    490a:	53 4d 56 65 76 84 85 7d 6e 5c 50 4e 55 62 6f 78     SMVev..}n\PNUbox
    491a:	7a 7e 7d 89 91 ad 9b 83 66 4b 4d 51 6b 7b 8c 87     z~}.....fKMQk{..
    492a:	78 64 54 4d 51 5d 6c 76 79 76 79 7c 8a 9b b8 97     xdTMQ]lvyvy|....
    493a:	7b 56 41 4f 5c 7d 89 90 7d 64 55 49 53 5d 6c 75     {VAO\}..}dUIS]lu
    494a:	75 72 6d 75 82 96 b5 b6 82 66 3a 45 5a 78 94 90     urmu.....f:EZx..
    495a:	88 62 53 48 53 65 6e 7a 72 6f 66 71 80 93 b1 c4     .bSHSenzrofq....
    496a:	91 66 41 37 5d 74 99 94 83 62 49 4c 54 6b 74 78     .fA7]t...bILTktx
    497a:	71 67 65 6c 83 96 af c6 93 63 42 35 62 7b 9b 96     qgel.....cB5b{..
    498a:	7c 5e 47 4e 5c 6e 7a 74 6e 64 64 6e 85 9a b0 c3     |^GN\nztnddn....
    499a:	8b 5c 40 38 66 7d 97 90 71 5a 45 51 5f 6f 7a 71     .\@8f}..qZEQ_ozq
    49aa:	6d 62 66 74 89 9e b5 b7 7a 5a 3c 46 6e 81 97 85     mbft....zZ<Fn...
    49ba:	6c 5a 4b 5a 62 72 76 72 6f 67 72 7c 90 a3 b7 9a     lZKZbrvrogr|....
    49ca:	6d 55 3f 5b 6c 82 8b 78 71 5a 5d 5e 64 73 71 7a     mU?[l..xqZ]^dsqz
    49da:	71 76 78 7d 8d 99 9e 87 6e 60 55 64 67 7a 75 78     qvx}....n`Udgzux
    49ea:	71 6c 6d 6a 73 71 78 76 79 7c 78 7b 79 7a 79 75     qlmjsqxvy|x{yzyu
    49fa:	75 71 73 71 71 6d 6e 6f 6f 6f 6e 6f 6e 6e 6f 6f     uqsqqmnooononnoo
    4a0a:	6f 71 71 72 72 72 72 73 73 74 74 75 75 75 74 74     oqqrrrrssttuuutt
    4a1a:	74 74 74 74 74 73 73 74 74 75 75 75 75 75 76 75     tttttssttuuuuuvu
    4a2a:	76 76 75 76 75 75 75 75 75 76 76 76 75 75 75 75     vvuvuuuuuvvvuuuu
    4a3a:	75 75 75 75 75 75 75 75 75 75 75 75 75 75 74 75     uuuuuuuuuuuuuutu
    4a4a:	75 75 75 75 74 74 74 74 74 74 74 74 73 74 73 74     uuuuttttttttstst
    4a5a:	74 74 74 73 73 73 73 73 73 73 74 73 73 73 73 73     tttssssssstsssss
    4a6a:	73 73 73 73 73 72 73 73 73 73 73 73 73 73 73 73     sssssrssssssssss
    4a7a:	73 73 73 73 73 73 73 73 73 73 73 73 73 73 73 73     ssssssssssssssss
    4a8a:	73 72 73 73 73 73 73 73 73 73 73 73 73 73 73 73     srssssssssssssss
    4a9a:	73 73 73 73 73 73 73 73 73 73 73 73 73 73 73 73     ssssssssssssssss
    4aaa:	73 73 73 73 73 73 73 73 73 73 73 73 73 73 73 73     ssssssssssssssss
    4aba:	73 73 73 73 73 73 73 73 73 73 73 73 73 73 73 73     ssssssssssssssss
    4aca:	73 73 73 73 73 73 73 73 73 73 73 73 73 73 73 73     ssssssssssssssss
    4ada:	73 73 73 73 73 73 73 73 73 73 73 73 73 73 73 73     ssssssssssssssss
    4aea:	73 73 73 73 73 73 73 73 73 73 73 73 73 73 73 73     ssssssssssssssss
    4afa:	73 73 73 73 73 73 73 73 73 73 73 73 73 73 73 73     ssssssssssssssss
    4b0a:	73 73 73 73 73 73 73 73 73 73 73 73 73 73 73 73     ssssssssssssssss
    4b1a:	73 73 73 73 73 73 73 73 72 73 71 73 6a 69 6a 67     ssssssssrsqsjijg
    4b2a:	66 6b 6a 6a 6b 6a 69 65 6a 6c 6d 6f 6a 6d 64 67     fkjjkjiejlmojmdg
    4b3a:	66 6e 6e 6f 7d 7e 85 7e 84 84 83 7e 75 78 73 73     fnno}~.~...~uxss
    4b4a:	76 7b 7e 82 8a 8d 91 94 98 9f 9f a2 a7 90 7c 6d     v{~...........|m
    4b5a:	66 71 75 81 80 7d 73 6a 65 65 6d 74 7c 83 8f 97     fqu..}sjeemt|...
    4b6a:	a3 aa 88 66 4c 47 5f 6e 85 80 74 5c 4f 51 55 64     ...fLG_n..t\OQUd
    4b7a:	65 6b 6a 6f 75 7d 8f 9e 98 6e 54 3f 4b 62 74 7c     ekjou}...nT?Kbt|
    4b8a:	6b 62 51 55 56 5c 66 69 71 74 7b 82 92 9c 88 64     kbQUV\fiqt{....d
    4b9a:	4e 42 5b 6b 7a 73 66 5c 55 5d 5d 67 6a 6d 72 79     NB[kzsf\U]]gjmry
    4baa:	81 8d a2 9c 75 58 46 51 6c 7a 80 6d 64 57 5b 63     ....uXFQlz.mdW[c
    4bba:	64 6e 6d 72 76 7c 87 99 aa 8d 66 51 45 64 75 82     dnmrv|....fQEdu.
    4bca:	7c 69 62 58 63 66 69 72 6e 75 79 80 8d a0 a6 80     |ibXcfirnuy.....
    4bda:	62 4f 4e 6d 78 83 79 67 63 5b 65 66 6a 73 6f 76     bONmx.ygc[efjsov
    4bea:	7b 81 90 a1 a2 7e 64 51 53 6c 75 80 7a 6a 67 5f     {....~dQSlu.zjg_
    4bfa:	64 67 67 73 74 78 80 80 8f 9f 9b 83 69 58 57 66     dggstx......iXWf
    4c0a:	72 7a 78 71 6b 67 66 65 69 6f 74 79 7e 80 8a 96     rzxqkgfeioty~...
    4c1a:	97 89 71 64 5c 62 6c 71 72 73 6f 6d 6c 67 6a 6d     ..qd\blqrsomlgjm
    4c2a:	72 79 7d 81 84 8a 89 87 7b 6f 6a 66 69 6c 6d 6e     ry}.....{ojfilmn
    4c3a:	72 72 73 72 6e 71 72 73 78 75 74 79 78 79 7a 76     rrsrnqrsxutyxyzv
    4c4a:	76 75 72 72 71 6e 71 72 72 74 73 73 74 72 73 73     vurrqnqrrtsstrss
    4c5a:	73 74 74 74 74 74 74 74 74 74 75 74 74 74 73 73     stttttttttutttss
    4c6a:	74 73 73 73 73 73 73 73 74 74 74 73 73 73 73 74     tssssssstttsssst
    4c7a:	74 74 74 73 73 73 74 74 73 73 73 73 73 73 73 73     tttsssttssssssss
    4c8a:	73 73 73 73 73 74 74 74 74 73 73 74 74 74 74 74     sssssttttssttttt
    4c9a:	74 74 74 74 74 74 74 74 73 73 74 74 74 74 74 74     ttttttttsstttttt
    4caa:	74 74 74 74 74 74 74 74 74 74 74 74 74 74 74 74     tttttttttttttttt
    4cba:	74 74 74 74 74 74 74 74 74 74 74 74 74 74 73 74     ttttttttttttttst
    4cca:	74 74 74 74 73 73 73 74 74 74 74 74 74 74 74 74     ttttsssttttttttt
    4cda:	74 74 74 73 73 74 74 74 74 74 74 73 73 74 74 74     tttssttttttssttt
    4cea:	74 74 74 74 74 74 74 73 73 73 73 73 73 74 74 74     tttttttssssssttt
    4cfa:	73 73 73 73 73 73 74 74 73 73 74 74 74 74 73 73     ssssssttssttttss
    4d0a:	73 73 73 74 74 73 73 73 73 73 73 74 74 74 74 74     sssttssssssttttt
    4d1a:	74 74 74 74 73 73 73 73 73 74 73 73 73 73 73 73     ttttssssstssssss
    4d2a:	74 74 74 74 73 73 74 74 74 73 73 73 73 73 73 73     ttttsstttsssssss
    4d3a:	73 73 73 73 73 73 73 73 73 73 73 73 74 74 74 73     ssssssssssssttts
    4d4a:	73 73 73 73 73 73 73 73 73 73 73 73 73 73 73 73     ssssssssssssssss
    4d5a:	73 73 73 74 73 73 73 73 73 73 73 73 73 73 73 73     ssstssssssssssss
    4d6a:	73 73 73 73 73 73 73 73 73 73 73 73 73 72 73 73     sssssssssssssrss
    4d7a:	73 73 73 73 72 72 72 73 72 69 69 76 7a 67 5f 72     ssssrrrsriivzg_r
    4d8a:	7e 72 67 71 79 73 6d 71 78 72 67 6c 76 74 6c 6d     ~rgqysmqxrglvtlm
    4d9a:	75 76 71 71 78 79 6e 6a 72 7b 79 73 74 75 73 6f     uvqqxynjr{ystuso
    4daa:	71 74 76 73 72 72 72 73 72 6f 71 71 6f 6c 6d 6f     qtvsrrrsroqqolmo
    4dba:	6e 6c 6c 6f 71 6d 6c 6d 69 65 63 64 67 65 69 6a     nlloqmlmiecdgeij
    4dca:	6b 6c 6a 66 63 5e 58 5a 5b 57 5d 58 56 5c 5f 5e     kljfc^XZ[W]XV\_^
    4dda:	5c 60 6a 6b 6b 65 66 64 5f 63 6a 65 67 65 63 62     \`jkkefd_cjegecb
    4dea:	64 6d 6e 73 6e 67 63 5f 65 6e 5d 5b 5d 58 4f 5f     dmnsngc_en][]XO_
    4dfa:	63 5e 6a 7e 87 7e 6e 7b 7c 66 5d 67 74 6f 6c 74     c^j~.~n{|f]gtolt
    4e0a:	7d 80 73 6e 79 7d 63 6a 6c 58 4d 4e 5d 5e 5c 74     }.sny}cjlXMN]^\t
    4e1a:	88 71 64 65 65 65 6a 6b 73 83 7e 7b 85 78 79 81     .qdeeejks.~{.xy.
    4e2a:	79 7a 7e 71 64 69 62 69 6f 5f 60 66 5c 4c 66 66     yz~qdibio_`f\Lff
    4e3a:	6e 6f 7e 83 7b 7c 6e 5a 5d 5c 53 5a 81 8a 97 76     no~.{|nZ]\SZ...v
    4e4a:	78 67 6f 5b 44 3a 4b 6f 79 7d 82 87 8a 88 8a 81     xgo[D:Koy}......
    4e5a:	71 85 8b 8b 9b a1 ab 7a 6c 85 98 9f a2 b5 b2 b5     q......zl.......
    4e6a:	ba b6 a3 b0 a0 8f 83 b2 ae a2 af b6 a2 91 a3 9c     ................
    4e7a:	9a 9b 97 85 8b a8 aa 9c 8d 87 7d 8f 9a 8f 87 85     ..........}.....
    4e8a:	90 8c 88 8a 7e 7b 85 7e 80 8c 81 76 7c 89 99 92     ....~{.~...v|...
    4e9a:	82 78 79 7b 7a 73 6e 6c 7a 7e 79 98 9e 9b 9b 8d     .xy{zsnlz~y.....
    4eaa:	8f 89 80 80 82 76 81 87 83 85 85 8a 84 8c 8c 8f     .....v..........
    4eba:	83 84 7c 76 76 7d 8f 8d 98 94 94 9f 9a 91 87 84     ..|vv}..........
    4eca:	7a 7a 7b 76 7a 7e 7c 7d 7b 78 75 76 7c 80 7e 7e     zz{vz~|}{xuv|.~~
    4eda:	81 94 a1 9a 7c 69 5d 5f 5b 60 71 81 90 8f 85 7d     ....|i]_[`q....}
    4eea:	75 69 5e 60 6a 71 74 7d 87 8a 88 8b 94 8c 71 5b     ui^`jqt}......q[
    4efa:	5a 5c 58 54 60 7b 81 75 6d 6e 67 58 51 5c 6a 6d     Z\XT`{.umngXQ\jm
    4f0a:	71 7c 85 84 84 8d 91 7b 5b 4e 54 56 51 57 6b 76     q|.....{[NTVQWkv
    4f1a:	6f 66 66 63 55 4b 51 5e 62 64 72 81 84 81 89 94     offcUKQ^bdr.....
    4f2a:	82 5d 4b 4f 4f 47 4c 62 71 6b 63 65 62 50 44 49     .]KOOGLbqkcebPDI
    4f3a:	55 57 5b 6b 7b 7d 7c 84 92 84 60 4d 4f 4d 44 4b     UW[k{}|...`MOMDK
    4f4a:	62 6f 6c 69 6c 65 53 48 4c 51 53 5b 6a 75 78 7c     bolileSHLQS[jux|
    4f5a:	84 8b 8b 79 60 54 4f 4b 4b 56 65 6c 6e 6d 6a 5e     ...y`TOKKVelnmj^
    4f6a:	51 4c 4b 4e 55 60 6b 74 7b 81 84 8c 8c 74 5d 56     QLKNU`kt{....t]V
    4f7a:	53 4b 4e 5e 6b 6c 6e 72 6a 5c 55 53 4e 51 5d 67     SKN^klnrj\USNQ]g
    4f8a:	6e 79 82 85 89 94 8d 71 60 5d 54 4d 58 67 6c 71     ny.....q`]TMXglq
    4f9a:	7a 75 69 62 5c 53 51 5c 63 67 75 81 83 87 91 98     zuib\SQ\cgu.....
    4faa:	84 6f 69 5d 51 57 62 65 6d 76 78 73 6f 69 5e 5b     .oi]QWbemvxsoi^[
    4fba:	5e 63 6a 75 80 82 85 89 8a 89 7a 73 6f 67 63 66     ^cju......zsogcf
    4fca:	6a 6a 6f 72 6d 6d 71 6e 6c 6e 6e 6d 6e 72 72 74     jjormmqnlnnmnrrt
    4fda:	76 78 7a 7c 7a 76 78 74 6e 6d 67 64 66 66 67 69     vxz|zvxtnmgdffgi
    4fea:	6b 6c 6c 6f 6f 71 73 72 75 7a 7a 7c 80 82 7c 7b     kllooqsruzz|..|{
    4ffa:	7b 72 71 6f 69 6a 69 66 69 6b 6b 6c 6f 6d 6d 71     {rqoijifikklommq
    500a:	6e 71 73 73 79 7b 7d 81 7e 80 7c 7c 74 72 6f 66     nqssy{}.~.||trof
    501a:	6b 66 65 6c 67 6c 6e 6d 6e 6f 6e 6e 72 71 79 7d     kfelglnmnonnrqy}
    502a:	7d 85 87 89 85 80 7e 74 72 6c 67 6a 65 6b 6c 6c     }.....~trlgjekll
    503a:	72 6f 73 72 71 72 71 73 78 7e 80 84 87 84 81 7d     rosrqrqsx~.....}
    504a:	78 72 71 6a 69 69 67 6b 6a 6f 6f 71 72 6f 73 74     xrqjiigkjooqrost
    505a:	7b 7a 7d 81 7d 83 82 81 7e 7b 76 73 6f 6b 6c 69     {z}.}...~{vsokli
    506a:	6b 6c 6a 6f 6d 76 74 72 6c 65 6f 6b 74 79 7c 87     kljomvtrleokty|.
    507a:	89 8b 87 84 7a 74 6e 64 66 5f 64 69 69 72 71 74     ....ztndf_diirqt
    508a:	74 73 74 72 76 79 7c 84 8a 8a 88 87 7b 79 71 67     tstrvy|.....{yqg
    509a:	6a 62 66 69 69 72 6f 74 73 72 74 71 75 78 7a 82     jbfiirotsrtquxz.
    50aa:	89 8d 8a 8b 83 7a 78 6b 6b 66 64 69 67 6e 6e 72     .....zxkkfdignnr
    50ba:	73 71 74 71 74 78 79 81 88 8a 87 87 7d 76 74 66     sqtqtxy.....}vtf
    50ca:	69 64 60 67 65 6c 6e 6f 73 71 73 72 74 79 7c 83     id`gelnosqsrty|.
    50da:	89 85 85 82 76 75 6c 65 67 60 64 67 67 6d 6e 6e     ....vuleg`dggmnn
    50ea:	6f 71 6f 72 75 78 80 87 85 83 83 79 75 71 66 67     oqorux.....yuqfg
    50fa:	64 5e 65 62 6b 6f 73 71 71 6f 71 79 83 8d a6 98     d^ebkosqqoqy....
    510a:	8c 82 62 5a 55 4f 64 6f 76 84 7d 72 6d 5a 53 58     ..bZUOdov.}rmZSX
    511a:	58 6c 80 8c 9c aa a3 85 6f 54 44 4b 53 64 7d 80     Xl......oTDKSd}.
    512a:	82 7e 67 5d 54 4b 58 67 76 91 9e a5 b6 a0 79 6a     .~g]TKXgv.....yj
    513a:	4f 46 5b 65 76 8d 89 83 7d 66 56 55 55 63 7a 89     OF[ev...}fVUUcz.
    514a:	99 a6 ae ab 88 6a 58 49 4f 65 74 85 8c 83 78 67     .....jXIOet...xg
    515a:	57 50 53 5e 6f 83 94 9e a7 af 92 6a 5b 4b 45 5c     WPS^o......j[KE\
    516a:	6f 7a 8a 89 74 6a 5d 4c 4d 5c 69 7a 90 99 9e ad     oz..tj]LM\iz....
    517a:	a7 7b 60 58 49 4f 6d 7c 84 90 83 6c 62 57 4c 51     .{`XIOm|...lbWLQ
    518a:	64 71 7e 91 99 99 a7 a2 78 5c 5a 51 53 6e 82 82     dq~.....x\ZQSn..
    519a:	84 83 6f 5d 5a 57 54 62 76 7d 84 93 98 99 a3 90     ..o]ZWTbv}......
    51aa:	66 57 5b 56 5c 76 85 81 7d 7a 67 56 54 57 5a 69     fW[V\v..}zgVTWZi
    51ba:	7b 82 87 93 9a 9f 9b 7c 5e 56 58 5a 66 7d 88 85     {......|^VXZf}..
    51ca:	7c 6e 60 54 51 57 60 6d 7b 80 82 89 8f 97 9e 8b     |n`TQW`m{.......
    51da:	6b 5c 5d 5c 5f 71 83 85 7e 75 69 5b 55 58 5f 66     k\]\_q..~ui[UX_f
    51ea:	73 7d 7e 82 89 90 99 9b 83 64 5b 5d 5d 60 73 84     s}~......d[]]`s.
    51fa:	84 7b 73 67 58 51 56 5f 67 72 7b 7d 7e 85 8d 98     .{sgXQV_gr{}~...
    520a:	9c 89 6b 5d 5e 5e 5f 6e 83 87 7e 76 6c 5d 54 58     ..k]^^_n..~vl]TX
    521a:	62 69 6f 79 7c 7a 7c 87 8d 9a 9c 84 66 5c 5e 5d     bioy|z|.....f\^]
    522a:	60 73 87 88 7d 78 6f 5e 54 5b 65 69 6c 74 76 71     `s..}xo^T[eiltvq
    523a:	71 79 83 8c a0 a7 8a 65 5b 5e 5a 5b 72 8b 8b 80     qy.....e[^Z[r...
    524a:	7b 76 65 55 56 62 69 6d 74 76 6f 6b 71 7b 82 8d     {veUVbimtvokq{..
    525a:	a8 ad 85 60 5b 5d 54 58 75 8d 8a 80 7e 75 5e 51     ...`[]TXu...~u^Q
    526a:	5b 66 66 6a 75 75 67 5f 67 72 75 81 96 ad ad 89     [ffjuug_gru.....
    527a:	66 5a 57 51 5b 75 8b 8b 85 83 76 62 57 5e 66 69     fZWQ[u....vbW^fi
    528a:	6e 76 75 6a 63 66 6a 6f 7b 8b 97 a1 ad 98 6c 55     nvujcfjo{.....lU
    529a:	58 5a 5a 6b 87 8f 83 7c 79 6a 5a 5d 6b 71 71 73     XZZk...|yjZ]kqqs
    52aa:	72 69 62 62 64 65 6e 80 89 8b 91 a1 a3 7e 5e 5c     ribbden......~^\
    52ba:	60 5a 60 7a 88 80 7b 7d 73 62 5f 6a 6d 6c 74 7a     `Z`z..{}sb_jmltz
    52ca:	6b 5e 5f 62 5d 5f 6d 78 7b 80 89 8c 8d 9f 97 72     k^_b]_mx{......r
    52da:	5e 64 63 5b 6a 81 82 79 7d 7c 6c 64 6c 6f 6a 71     ^dc[j..y}|ldlojq
    52ea:	7b 73 63 63 66 5f 5f 6b 72 72 7a 83 82 82 8c 98     {sccf__krrz.....
    52fa:	9b 83 6e 69 64 5e 66 76 7c 7c 81 7e 72 6c 6e 6c     ..nid^fv||.~rlnl
    530a:	6b 73 79 75 71 6d 66 62 64 67 69 6c 73 76 79 7c     ksyuqmfbdgilsvy|
    531a:	80 84 88 94 94 7a 6c 6c 63 5e 6b 75 73 7a 80 79     .....zllc^kusz.y
    532a:	71 73 71 6b 6e 74 72 72 75 6f 67 67 6a 67 6b 72     qsqkntrruoggjgkr
    533a:	74 76 7c 7d 7a 7c 7e 7e 7e 85 7c 71 75 73 6d 6e     tv|}z|~~~.|qusmn
    534a:	71 6f 6d 71 72 6f 72 75 74 72 74 74 72 71 73 6f     qomqrorutrttrqso
    535a:	6d 6d 6e 6c 6c 6e 6f 6e 71 74 74 75 79 7a 7a 7e     mmnllnonqttuyzz~
    536a:	81 7c 79 76 72 6d 6d 6d 6c 6d 6f 71 73 75 76 76     .|yvrmmmlmoqsuvv
    537a:	76 76 75 74 74 72 6f 6e 6e 6d 6d 6f 6f 71 73 75     vvuttronnmmooqsu
    538a:	76 79 7a 7b 7c 7e 81 7d 7a 76 72 6e 6d 6c 6c 6d     vyz{|~.}zvrnmllm
    539a:	6e 6f 72 74 74 75 75 75 74 74 73 71 6f 6e 6d 6c     norttuuuttsqonml
    53aa:	6c 6c 6d 6e 6f 72 74 75 78 79 7a 7a 7c 7e 7b 78     llmnortuxyzz|~{x
    53ba:	75 71 6e 6d 6c 6c 6d 6e 6f 72 74 74 75 75 74 74     uqnmllmnorttuutt
    53ca:	74 73 72 71 6f 6e 6e 6e 6e 6e 6f 71 72 73 74 76     tsrqonnnnnoqrstv
    53da:	78 78 79 7a 7b 7d 7c 79 76 72 6f 6e 6c 6c 6d 6e     xxyz{}|yvronllmn
    53ea:	71 73 74 75 76 76 75 75 74 73 73 72 6f 6e 6e 6d     qstuvvuutssronnm
    53fa:	6d 6e 6f 71 72 73 74 76 76 78 79 7a 7a 7c 7b 78     mnoqrstvvxyzz|{x
    540a:	75 72 6f 6e 6d 6d 6e 6f 71 72 73 74 75 75 74 74     uronmmnoqrstuutt
    541a:	74 73 73 72 71 6f 6e 6e 6e 6f 6f 71 72 73 74 74     tssrqonnnooqrstt
    542a:	75 76 78 78 79 7a 7c 7a 78 75 72 6f 6f 6e 6e 6f     uvxxyz|zxuroonno
    543a:	6f 72 73 74 74 75 74 74 74 74 73 73 72 71 71 6f     orsttuttttssrqqo
    544a:	6f 6f 6f 71 71 72 73 73 74 75 75 76 76 78 79 7a     oooqqrsstuuvvxyz
    545a:	7b 79 76 74 72 71 6f 6e 6f 6f 71 72 73 74 74 74     {yvtrqonooqrsttt
    546a:	74 74 74 73 73 72 72 71 6f 6f 6f 6f 71 71 72 73     tttssrrqooooqqrs
    547a:	74 74 74 75 75 75 76 76 78 79 78 78 76 74 73 71     tttuuuvvxyxxvtsq
    548a:	6f 6f 6e 6f 71 72 73 73 73 74 74 73 73 73 73 72     oonoqrsssttssssr
    549a:	72 71 71 71 71 71 72 72 73 74 74 74 75 75 75 75     rqqqqqrrstttuuuu
    54aa:	75 75 75 75 75 75 74 74 74 74 73 73 73 73 73 73     uuuuuuttttssssss
    54ba:	73 73 73 73 73 73 73 72 72 72 72 72 72 73 73 73     sssssssrrrrrrsss
    54ca:	73 73 73 73 73 74 74 74 74 74 75 75 75 75 75 74     ssssstttttuuuuut
    54da:	74 74 74 74 73 73 73 74 74 73 73 73 73 73 73 73     ttttsssttsssssss
    54ea:	73 73 73 73 73 73 73 73 73 73 73 74 74 73 73 73     sssssssssssttsss
    54fa:	73 73 73 73 74 74 74 74 74 74 74 74 74 73 73 73     sssstttttttttsss

0000550a <wavdata1>:
    550a:	82 81 81 80 81 81 80 81 81 80 81 81 80 80 80 80     ................
    551a:	80 80 80 80 80 80 80 80 80 80 80 80 80 80 80 80     ................
    552a:	80 80 80 80 80 81 80 80 80 80 80 80 80 80 80 80     ................
    553a:	80 80 80 80 80 80 7f 80 80 80 80 7f 7f 7f 7f 7f     ................
    554a:	80 80 80 81 81 81 80 80 80 81 80 80 81 81 81 81     ................
    555a:	80 80 80 80 7f 7f 7f 7e 7d 7d 7d 7e 7f 80 81 85     .......~}}}~....
    556a:	88 8e 91 93 8e 84 78 70 72 7d 87 8c 8a 85 7f 78     ......xpr}.....x
    557a:	75 77 7f 87 89 7f 74 6e 70 74 75 78 80 88 8d 90     uw....tnptux....
    558a:	95 9d a1 97 7a 60 61 76 88 8f 8f 8f 89 78 68 67     ....z`av.....xhg
    559a:	78 8a 90 8d 89 84 70 5c 59 6e 84 86 7f 80 8d 93     x.....p\Yn......
    55aa:	91 96 a6 ae 9d 72 57 60 7a 8a 8d 8f 96 8e 75 60     .....rW`z.....u`
    55ba:	66 7d 8d 8e 8c 89 7a 5e 4f 5e 78 87 87 89 92 96     f}....z^O^x.....
    55ca:	92 97 a7 b7 a5 71 4e 58 79 89 89 90 9d 93 74 59     .....qNXy.....tY
    55da:	61 7d 8d 8c 88 82 70 55 4e 64 81 8c 8a 91 9a 9d     a}....pUNd......
    55ea:	99 9f b1 bc 93 57 47 68 87 88 88 9a a2 87 5f 58     .....WGh......_X
    55fa:	71 87 84 77 79 7d 6d 5b 60 79 8a 8c 90 9b a5 a5     q..wy}m[`y......
    560a:	a3 ae b9 91 55 47 6b 88 87 8a a0 a3 80 5c 5e 74     ....UGk......\^t
    561a:	74 6b 77 8c 84 66 60 76 82 80 89 a1 ae a0 9d af     tkw..f`v........
    562a:	c3 a0 5e 4e 6f 80 75 81 a6 a8 7c 5d 69 72 5d 5b     ..^No.u...|]ir][
    563a:	7e 92 7c 68 75 7f 74 76 96 b1 b1 b0 bb c6 a7 63     ~.|hu.tv.......c
    564a:	48 64 77 74 89 af a7 79 61 6c 69 51 5c 86 91 79     Hdwt...yaliQ\..y
    565a:	70 7e 79 69 78 9b aa aa bb c7 c0 a1 68 54 60 6c     p~yix.......hT`l
    566a:	71 90 ab 9b 7c 6f 6b 5c 4e 60 7d 82 7d 82 80 72     q...|ok\N`}.}..r
    567a:	70 85 96 9f ae c4 c6 c0 9a 64 51 5e 66 71 95 ad     p........dQ^fq..
    568a:	99 84 79 6b 51 49 60 76 79 80 89 81 76 7c 8a 92     ..ykQI`vy...v|..
    569a:	9f b2 c1 c0 c0 8e 64 5c 61 58 6e 93 a2 92 90 86     ......d\aXn.....
    56aa:	6f 4f 4e 5e 67 72 85 8a 84 84 8a 8c 8f 9e ae b6     oON^gr..........
    56ba:	ba b3 84 75 6d 64 58 6c 84 82 89 8f 91 7d 6d 67     ...umdXl.....}mg
    56ca:	69 6c 74 88 8f 87 7e 82 88 85 84 89 92 95 98 9d     ilt...~.........
    56da:	9a 93 89 81 7c 74 71 71 75 76 76 79 7d 7f 80 80     ....|tqquvvy}...
    56ea:	82 84 82 84 86 88 88 8c 90 93 97 99 99 97 8f 86     ................
    56fa:	7f 79 76 72 74 76 76 77 7c 7f 81 81 84 86 85 86     .yvrtvvw|.......
    570a:	88 8c 8c 8e 92 96 97 93 92 90 87 81 7f 7a 76 72     .............zvr
    571a:	74 74 74 77 7a 7e 7e 81 86 86 87 88 8a 8d 8f 91     tttwz~~.........
    572a:	93 96 95 92 8f 86 80 7e 7c 79 77 77 76 77 7a 7d     .......~|ywwvwz}
    573a:	7d 7f 81 82 82 85 87 89 8c 8f 92 93 97 98 96 92     }...............
    574a:	8a 82 7f 7a 77 76 77 78 78 79 7c 7d 7f 80 81 80     ...zwvwxxy|}....
    575a:	81 84 85 87 8a 8f 92 96 98 96 95 90 85 7f 7c 76     ..............|v
    576a:	74 75 76 77 78 7a 7d 7d 7f 81 82 82 84 84 86 88     tuvwxz}}........
    577a:	8d 8f 93 98 97 95 93 88 80 7e 77 74 74 72 75 78     .........~wttrux
    578a:	7a 7e 7e 7f 80 80 82 84 85 87 89 8c 8f 93 97 96     z~~.............
    579a:	95 95 88 80 7f 76 71 75 72 71 78 79 7c 7c 7d 81     .....vqurqxy||}.
    57aa:	79 81 85 80 8f 92 9a a7 c1 a1 8d 96 60 58 66 61     y...........`Xfa
    57ba:	60 87 89 7f 91 84 61 69 66 5c 6e 7f 7f 91 a1 9d     `.....aif\n.....
    57ca:	a5 b3 b5 be 96 81 7d 64 56 6f 75 74 8c 95 7f 82     ......}dVout....
    57da:	75 5b 5d 67 68 77 88 8d 96 a0 a1 a6 b0 c2 ae 82     u[]ghw..........
    57ea:	85 74 53 5e 77 6f 78 97 88 78 77 69 56 5f 6e 70     .tS^wox..xwiV_np
    57fa:	7d 8f 96 99 a3 ad ab c0 ab 7a 7a 75 55 5b 7d 7a     }........zzuU[}z
    580a:	76 8e 8c 72 68 69 5d 5c 70 7d 7e 8a 9f a0 a1 b1     v..rhi]\p}~.....
    581a:	be bb 90 7a 78 63 50 67 7d 78 80 90 87 6c 65 66     ...zxcPg}x...lef
    582a:	5d 5f 75 82 84 92 a6 a8 ab bc c8 9a 74 77 6e 51     ]_u.........twnQ
    583a:	58 7a 82 78 82 90 79 5d 60 6b 64 66 7f 8e 8f 9a     Xz.x..y]`kdf....
    584a:	ad b5 b9 bb 9a 78 6d 69 5b 5c 72 81 7f 7f 84 7d     .....xmi[\r....}
    585a:	68 5e 66 6f 6f 78 89 9a 9f a7 b3 c2 b3 87 70 6f     h^foox........po
    586a:	66 57 5d 78 86 81 7d 80 7c 69 5e 66 71 78 7d 89     fW]x..}.|i^fqx}.
    587a:	9e ab ab b1 b7 a0 7d 69 67 65 5f 63 70 7f 82 7d     ......}ige_cp..}
    588a:	78 76 74 70 6e 75 80 8a 91 97 9b a6 aa 9a 86 79     xvtpnu.........y
    589a:	75 6f 68 66 6b 74 79 7a 7a 7a 79 76 75 7a 81 86     uohfktyzzzyvuz..
    58aa:	88 8c 91 98 9b 97 8e 86 80 79 72 6f 6f 72 77 7c     .........yroorw|
    58ba:	7d 78 72 74 7a 7e 7e 7e 80 87 8e 90 92 92 92 90     }xrtz~~~........
    58ca:	89 81 7a 7a 7a 79 77 76 75 75 75 77 78 7a 7d 7e     ..zzzywvuuuwxz}~
    58da:	80 82 85 88 8a 8f 90 90 8f 8d 88 85 81 7e 7a 78     .............~zx
    58ea:	78 77 75 76 77 79 7a 7a 7d 80 82 84 87 89 8a 8d     xwuvwyzz}.......
    58fa:	8f 90 8e 8a 88 86 82 7f 7d 7a 78 77 76 77 79 7a     ........}zxwvwyz
    590a:	7c 7e 80 80 81 84 86 87 8a 8d 8f 8f 8e 8c 88 85     |~..............
    591a:	81 7e 7c 7a 79 77 77 78 79 7c 7d 7f 80 81 82 84     .~|zywwxy|}.....
    592a:	85 87 8a 8d 8e 8e 8e 8c 88 85 81 7e 7d 7a 79 78     ...........~}zyx
    593a:	79 7a 7c 7d 7e 7f 80 81 82 84 85 88 8a 8d 8e 8e     yz|}~...........
    594a:	8c 8a 87 84 81 7f 7d 7c 79 79 79 7a 7c 7e 7f 80     ......}|yyyz|~..
    595a:	81 82 82 84 86 88 8a 8d 8f 8f 8c 88 86 82 80 7e     ...............~
    596a:	7d 7c 7a 7c 7c 7d 7e 7e 7f 81 81 82 84 86 88 89     }|z||}~~........
    597a:	8c 8d 8e 8d 8a 88 85 82 80 7e 7d 7a 7a 7a 7c 7d     .........~}zzz|}
    598a:	7e 7f 80 81 82 84 85 87 88 89 8c 8d 8c 8a 88 85     ~...............
    599a:	82 81 80 7f 7d 7d 7c 7a 7c 7d 7e 7f 81 84 85 86     ....}}|z|}~.....
    59aa:	87 87 88 8a 8c 8c 8a 89 87 85 84 81 7f 7e 7d 7d     .............~}}
    59ba:	7c 7d 7d 7e 7f 81 82 84 86 87 88 88 8a 8c 8c 8a     |}}~............
    59ca:	89 87 85 82 81 80 7e 7d 7c 7c 7c 7c 7e 80 81 82     ......~}||||~...
    59da:	84 85 86 86 87 88 8a 8c 8c 8a 88 86 84 82 80 7e     ...............~
    59ea:	7d 7c 7c 7c 7c 7d 7f 80 81 84 85 86 87 88 89 8a     }||||}..........
    59fa:	8c 88 8a 8c 86 81 84 84 7e 79 70 80 86 77 78 86     ........~yp..wx.
    5a0a:	86 7d 82 8a 88 85 89 8f 8f 8d 8e 8e 88 84 84 81     .}..............
    5a1a:	7e 7c 7d 7c 7a 7d 7d 7d 7f 82 82 85 8c 89 8d 96     ~|}|z}}}........
    5a2a:	97 8f 92 92 85 87 87 7e 7d 81 7c 7a 80 7e 79 80     .......~}.|z.~y.
    5a3a:	85 7d 85 89 82 8a 8d 8f 90 91 92 8d 8a 86 82 80     .}..............
    5a4a:	7f 7e 7c 7e 7c 77 7f 78 7e 7e 7c 85 84 8c 8c 96     .~|~|w.x~~|.....
    5a5a:	95 95 97 8e 8a 85 7f 7d 7e 7d 7a 7a 7e 75 7c 7f     .......}~}zz~u|.
    5a6a:	77 7d 86 80 80 93 8e 93 9a 95 93 90 86 7c 82 76     w}...........|.v
    5a7a:	7a 7e 78 7a 7e 74 79 80 74 7e 86 78 8c 8e 93 9f     z~xz~ty.t~.x....
    5a8a:	95 9d 98 88 87 7c 77 75 7e 78 7d 7c 7c 74 7a 75     .....|wu~x}||tzu
    5a9a:	7c 7d 79 89 8c 8c a5 ab 88 ae 95 79 86 77 64 7c     |}y........y.wd|
    5aaa:	79 70 86 7a 75 77 6c 78 6d 78 84 89 97 a2 c4 98     yp.zuwlxmx......
    5aba:	a9 aa 6c 7d 6e 51 6b 7a 6e 8e 90 72 75 75 5f 6f     ..l}nQkzn..ruu_o
    5aca:	7d 71 97 a9 a2 e5 a5 a1 ae 5e 5b 66 44 5e 8a 7a     }q.......^[fD^.z
    5ada:	90 9b 6c 71 6f 58 68 84 86 a6 c2 d6 cb a9 97 68     ..lqoXh........h
    5aea:	4b 43 49 58 75 92 9a 97 86 6e 5c 56 5d 79 99 b9     KCIXu....n\V]y..
    5afa:	da fa b9 9d 7e 37 2e 45 43 68 a2 9f a2 a0 6c 58     ....~7.ECh....lX
    5b0a:	55 4b 69 a1 bb e4 e4 c6 88 74 1c 0b 46 4b 71 c4     UKi......t..FKq.
    5b1a:	b5 9f 9d 5c 38 48 4b 6f bc da f9 00 b0 59 48 03     ...\8HKo.....YH.
    5b2a:	03 5d 71 98 db bb 85 74 3d 21 4d 6d 96 e1 fc d2     .]q....t=!Mm....
    5b3a:	f8 71 2b 1e 00 32 87 9f be cf 95 59 44 2b 36 6f     .q+..2.....YD+6o
    5b4a:	9a c3 f4 ff f7 9e 30 1e 16 28 7d a6 b2 bf 9b 57     ......0..(}....W
    5b5a:	3d 35 3b 6b 98 b5 da e9 e4 ce 58 1e 2d 2f 5e a1     =5;k......X.-/^.
    5b6a:	ae a9 9e 69 3c 3b 47 5f 8a a7 bc d6 d9 e1 a0 36     ...i<;G_.......6
    5b7a:	2e 3c 44 7f a9 a0 99 85 51 3b 49 5b 75 96 aa bf     .<D.....Q;I[u...
    5b8a:	cf d7 d9 7a 2c 3b 46 57 90 a7 98 87 71 4e 42 56     ...z,;FW....qNBV
    5b9a:	6e 82 99 af c0 ca d9 c8 5e 2d 47 50 65 90 a1 89     n.......^-GPe...
    5baa:	77 68 4e 47 61 7a 89 9d b6 c0 ca da ad 45 32 50     whNGaz.......E2P
    5bba:	5c 6e 95 9b 77 66 60 4e 4f 6e 88 8e a5 bc c1 bc     \n..wf`NOn......
    5bca:	c7 95 3f 44 69 68 69 8f 8f 65 5b 64 59 58 78 8d     ..?Dihi..e[dYXx.
    5bda:	8d a3 bb b2 ab c3 9d 54 58 78 66 5b 85 86 5d 5f     .......TXxf[..]_
    5bea:	71 60 5b 79 8c 89 a0 ba b8 b6 b7 a1 76 5e 66 63     q`[y........v^fc
    5bfa:	63 76 77 66 65 6e 69 65 72 84 8d a5 b5 b1 b3 b0     cvwfenier.......
    5c0a:	a0 88 74 64 5d 69 72 6d 6b 70 72 6c 69 76 7e 89     ..td]irmkprliv~.
    5c1a:	a2 a9 a6 ab ae 9f 92 91 7a 5f 64 72 6d 68 74 75     ........z_drmhtu
    5c2a:	6c 6c 75 78 7e 93 a3 a1 a0 ad aa 97 91 8e 7c 6c     llux~.........|l
    5c3a:	6f 71 6c 6e 75 74 6c 6c 76 7d 81 8f 9a 9d a0 a6     oqlnutllv}......
    5c4a:	a6 98 90 8d 82 77 75 72 6f 6d 6e 6f 6f 6f 72 79     .....wuromnooory
    5c5a:	81 8c 93 98 9d 9b 9b 97 97 93 88 7e 7d 77 6d 69     ...........~}wmi
    5c6a:	6e 6f 6d 6f 75 79 81 88 8d 8d 91 9b 96 8f 98 9d     nomouy..........
    5c7a:	96 88 80 7a 6d 66 6b 6e 6f 70 74 79 7d 7a 7e 87     ...zmfknopty}z~.
    5c8a:	8c 91 9a 9e 9b 99 97 8a 7f 7d 79 6b 65 6d 72 71     .........}ykemrq
    5c9a:	71 74 74 76 7e 87 8c 91 9a 9b 9e 9f 99 8f 86 85     qttv~...........
    5caa:	7f 71 6c 6e 70 6e 6f 71 72 72 78 87 90 93 98 9e     .qlnpnoqrrx.....
    5cba:	a2 a6 a5 96 85 7e 77 70 6e 6f 6f 6f 6e 6d 6d 71     .....~wpnooonmmq
    5cca:	7e 88 8f 97 a1 a3 a2 a7 a8 99 81 72 6d 6d 6e 6c     ~..........rmmnl
    5cda:	69 6d 71 71 70 75 81 8f 9d a6 a9 ab af a8 96 7c     imqqpu.........|
    5cea:	68 63 6b 70 6d 6b 6d 71 71 6d 72 84 96 a5 ab b3     hckpmkmqqmr.....
    5cfa:	bb b2 9b 7c 66 61 65 6e 76 75 6c 6b 6d 6e 6c 77     ...|faenvulkmnlw
    5d0a:	8e a5 b1 b8 c3 c1 a5 71 51 5b 6b 6d 76 85 7c 66     .......qQ[kmv.|f
    5d1a:	60 69 6d 6f 86 a8 bb c0 c8 c9 a0 5d 42 57 6f 6c     `imo.......]BWol
    5d2a:	74 8e 89 68 59 65 6d 6c 81 ad c2 c6 d1 cf 8f 42     t..hYeml.......B
    5d3a:	35 59 70 6d 7e 9d 91 67 56 63 67 69 86 b2 ca d0     5Ypm~..gVcgi....
    5d4a:	d8 c0 6f 30 3a 63 74 74 8d a6 8f 63 55 5f 66 6e     ..o0:ctt...cU_fn
    5d5a:	8f ba d1 d6 d4 a8 57 2c 3f 66 78 7d 97 a6 8c 63     ......W,?fx}...c
    5d6a:	54 5d 66 72 93 be d4 da cc 90 49 2f 44 64 76 84     T]fr......I/Ddv.
    5d7a:	9f a8 8c 66 56 5b 65 76 98 c1 d8 dc c1 7e 45 35     ...fV[ev.....~E5
    5d8a:	45 5d 71 89 a1 a5 8e 6f 5e 5c 65 79 9a bf d4 d8     E]q....o^\ey....
    5d9a:	b5 77 4b 42 4c 59 69 84 9f a3 90 78 69 64 68 7c     .wKBLYi....xidh|
    5daa:	99 b5 c6 c8 a9 7c 5e 56 56 57 61 7a 95 9b 8f 7f     .....|^VVWaz....
    5dba:	75 74 79 84 93 a2 ad ae 9b 84 76 72 6b 64 65 72     uty.......vrkder
    5dca:	85 88 84 81 80 7d 7f 84 89 8d 91 96 96 91 89 82     .....}..........
    5dda:	7f 7a 77 75 78 7d 7e 7e 7e 7d 7e 80 82 82 82 84     .zwux}~~~}~.....
    5dea:	85 87 8c 8c 8a 89 89 88 85 80 7e 7f 7e 7a 7a 7c     ..........~.~zz|
    5dfa:	7d 7a 7a 7a 7d 7f 80 82 85 89 8f 91 91 90 8e 8a     }zzz}...........
    5e0a:	85 80 7f 7f 7e 7c 79 79 7a 7a 7c 7d 7e 81 84 87     ....~|yyzz|}~...
    5e1a:	89 8c 8e 8e 8c 8a 89 87 86 84 81 80 80 7e 7d 7c     .............~}|
    5e2a:	7c 7d 7f 81 82 84 85 86 86 86 87 87 88 89 8a 89     |}..............
    5e3a:	88 87 85 82 80 7f 80 80 7f 80 81 81 82 82 84 85     ................
    5e4a:	85 86 88 89 89 89 88 87 86 85 85 84 84 84 82 82     ................
    5e5a:	81 80 80 80 81 82 84 85 86 86 87 87 87 86 86 86     ................
    5e6a:	86 86 85 84 82 82 82 82 81 81 81 82 84 85 85 85     ................
    5e7a:	85 85 85 84 85 85 85 85 85 84 84 82 81 81 82 84     ................
    5e8a:	84 84 84 85 85 85 84 84 85 85 86 86 85 85 84 82     ................
    5e9a:	82 82 84 84 84 84 84 85 85 84 84 84 85 85 85 86     ................
    5eaa:	85 84 84 82 82 82 82 82 82 84 84 84 84 84 82 82     ................
    5eba:	84 84 85 85 84 82 82 82 82 82 82 82 82 82 82 82     ................
    5eca:	81 82 82 82 82 84 84 84 84 82 82 82 82 82 82 82     ................
    5eda:	82 82 82 82 81 81 81 81 81 82 84 84 84 82 82 81     ................
    5eea:	81 81 81 81 82 84 82 82 82 82 82 81 81 81 82 82     ................
    5efa:	82 82 81 82 81 81 81 82 82 82 82 82 82 82 82 81     ................
    5f0a:	81 81 81 82 82 82 81 82 81 81 81 81 81 82 82 82     ................
    5f1a:	84 84 82 82 82 82 82 84 82 82 82 82 82 81 81 81     ................
    5f2a:	82 82 82 82 82 84 82 82 82 82 84 84 84 84 84 82     ................
    5f3a:	82 82 81 81 81 81 82 82 82 82 82 82 82 82 82 82     ................
    5f4a:	82 82 84 84 84 82 81 81 81 81 82 82 82 82 82 82     ................
    5f5a:	81 82 82 81 7f 7e 80 7e 80 80 7c 75 79 7d 7a 80     .....~.~..|uy}z.
    5f6a:	82 85 85 84 86 87 88 89 8c 8c 8c 8d 8c 8d 8d 8c     ................
    5f7a:	8a 8a 89 88 87 86 86 85 85 86 87 89 8a 8c 8e 8e     ................
    5f8a:	8f 8e 89 81 7c 76 74 71 6f 71 77 7a 7e 82 87 8e     ....|vtqoqwz~...
    5f9a:	96 9b a6 a8 98 7e 69 65 6b 6e 6d 71 7a 7d 78 71     .....~ieknmqz}xq
    5faa:	6f 71 76 7d 8a 9d a9 b8 bb a5 80 64 59 5d 60 65     oqv}.......dY]`e
    5fba:	70 82 90 8c 79 69 65 6c 74 7f 91 a9 c1 cc ba 8f     p...yielt.......
    5fca:	66 55 55 58 5d 68 7e 95 9a 8a 74 66 67 6f 79 8e     fUUX]h~...tfgoy.
    5fda:	a9 c8 d4 b9 89 61 53 51 50 54 65 84 9d 9f 8c 75     .....aSQPTe....u
    5fea:	6d 6f 72 7e 98 bc d7 c6 97 6d 5c 57 4f 4b 58 7a     mor~.....m\WOKXz
    5ffa:	9a a0 8e 79 72 74 71 77 8f b9 da cc 9d 72 61 59     ...yrtqw.....raY
    600a:	4d 46 55 79 99 9f 90 7f 78 72 6b 6d 86 ae d2 d7     MFUy....xrkm....
    601a:	b5 89 6b 58 48 43 50 6e 8d 9b 99 8d 7e 6f 67 69     ..kXHCPn....~ogi
    602a:	7a 9b bf d9 cf a6 78 5c 4d 45 49 5e 7e 98 a0 96     z.....x\MEI^~...
    603a:	84 74 69 67 6f 88 ab cc db c0 8f 67 54 47 43 50     .tigo......gTGCP
    604a:	6e 8e 9f 9e 90 7c 6c 63 65 76 96 b9 d6 d9 b5 81     n....|lcev......
    605a:	5c 4b 43 45 5c 7a 97 a0 9a 89 74 64 5f 66 7d a0     \KCE\z....td_f}.
    606a:	c2 db d7 aa 76 54 46 3f 47 63 85 9d a1 97 84 6f     ....vTF?Gc.....o
    607a:	60 5e 6b 86 a9 c9 e0 d0 9d 69 4f 43 3e 4c 6d 8f     `^k......iOC>Lm.
    608a:	a0 9e 91 7e 67 59 5d 70 8f b2 d1 e3 c6 8a 5e 4b     ...~gY]p......^K
    609a:	3f 3d 54 79 97 a0 9b 8e 77 5f 57 61 78 98 b9 d8     ?=Ty....w_Wax...
    60aa:	e3 b9 7d 57 48 3b 3e 5f 86 9b 9f 9b 8d 6f 58 58     ..}WH;>_.....oXX
    60ba:	68 7d 9d c1 e0 e1 ae 75 57 45 36 42 6c 8d 98 9f     h}.....uWE6Bl...
    60ca:	a1 8a 65 54 5d 69 79 a0 c8 e0 da aa 78 57 40 35     ..eT]iy.....xW@5
    60da:	48 6e 87 97 a5 a2 86 66 5c 5f 66 7a a6 c8 d9 d7     Hn.....f\_fz....
    60ea:	ab 7a 56 42 38 49 68 84 98 a3 9f 86 6b 61 61 66     .zVB8Ih.....kaaf
    60fa:	7d a6 c2 d6 d7 aa 7a 5c 47 3b 48 66 80 93 a1 a0     }.....z\G;Hf....
    610a:	88 70 67 65 67 7d a6 c0 d4 ce a5 7e 61 48 3c 4c     .pgeg}.....~aH<L
    611a:	64 78 90 a0 9d 85 76 6f 68 69 85 a7 be d0 be 9d     dx....vohi......
    612a:	7f 65 4c 44 53 63 76 8d 9d 96 85 7a 75 6b 6f 89     .eLDScv....zuko.
    613a:	a6 b8 c8 b1 9a 81 6b 51 4c 58 63 71 86 97 90 84     ......kQLXcq....
    614a:	7e 7a 71 74 8c a3 b5 bf a9 9a 85 6d 58 51 5d 60     ~zqt.......mXQ]`
    615a:	6e 80 90 8c 82 80 7e 77 76 8a a0 b0 b8 a6 9a 88     n.....~wv.......
    616a:	72 5f 57 61 63 6c 7c 8d 8a 82 81 7f 7c 78 86 9a     r_Wacl|.....|x..
    617a:	a9 b3 a9 9a 8e 7a 69 5d 63 66 6d 72 81 8a 82 7d     .....zi]cfmr...}
    618a:	7d 82 7e 82 90 a0 ae ad 9b 8f 84 77 6b 65 69 6f     }.~........wkeio
    619a:	76 78 81 84 80 7c 7f 81 81 89 91 9d a2 a1 95 8a     vx...|..........
    61aa:	80 7d 76 70 6f 72 79 7a 79 79 7d 7e 7e 80 85 87     .}vporyzyy}~~...
    61ba:	89 8e 90 95 92 8e 89 85 84 7f 7a 74 74 79 7a 77     ..........zttyzw
    61ca:	78 7e 7f 81 81 81 81 81 84 86 8c 90 92 92 8f 8c     x~..............
    61da:	86 80 79 76 78 7c 7d 7e 7e 7d 7d 7c 7a 79 7a 7e     ..yvx|}~~}}|zyz~
    61ea:	82 87 8d 92 93 92 8f 8a 88 84 81 7f 80 80 7e 7c     ..............~|
    61fa:	79 78 77 78 7a 7d 7f 81 82 84 86 87 8c 8e 8e 8e     yxwxz}..........
    620a:	8d 8d 89 85 80 7e 7d 7a 78 79 7a 7c 7d 7e 7e 7d     .....~}zxyz|}~~}
    621a:	7d 7e 80 84 87 8c 8f 90 8f 8d 8a 86 84 81 7f 80     }~..............
    622a:	7f 7e 7d 7c 79 79 79 7a 7d 7f 82 85 87 88 89 89     .~}|yyyz}.......
    623a:	8a 8c 8c 8c 8a 89 87 85 81 7f 7c 79 79 7a 7c 7d     ..........|yyz|}
    624a:	7e 7f 80 80 80 81 82 86 88 8c 8e 8e 8e 8c 88 84     ~...............
    625a:	81 80 7f 7f 7e 7d 7d 7c 7c 7a 7c 7d 7e 80 84 86     ....~}}||z|}~...
    626a:	87 88 89 89 89 89 89 89 87 86 84 81 7f 7d 7c 7a     .............}|z
    627a:	7c 7c 7d 7f 80 80 80 81 81 82 84 85 88 8a 8c 8c     ||}.............
    628a:	8a 89 87 84 81 80 7f 7e 7e 7e 7e 7d 7c 7d 7d 7e     .......~~~~}|}}~
    629a:	7f 81 84 85 86 87 88 8a 89 89 89 88 87 86 84 82     ................
    62aa:	81 7f 7e 7c 7a 7a 7c 7d 7e 7f 80 81 82 84 85 87     ..~|zz|}~.......
    62ba:	89 8a 8c 8c 8c 89 86 84 81 7f 7e 7d 7c 7c 7c 7d     ..........~}|||}
    62ca:	7d 7d 7d 7e 80 81 84 86 88 8a 8c 8c 8c 8a 89 85     }}}~............
    62da:	84 82 80 7f 7d 7c 7a 79 7a 7c 7d 7d 7f 81 82 84     ....}|zyz|}}....
    62ea:	85 87 89 8d 8c 8a 8c 8c 86 81 80 7e 7a 7a 7d 78     ...........~zz}x
    62fa:	76 7d 7d 7d 7e 7e 80 81 85 8a 8e 97 9d 93 8a 8d     v}}}~~..........
    630a:	87 76 71 7a 7a 75 7f 87 7c 76 7c 7a 76 7e 85 85     .vqzzu..|v|zv~..
    631a:	8c 9a 9f aa b0 96 84 80 74 5f 67 7d 80 7f 8a 8c     ........t_g}....
    632a:	75 68 69 65 66 79 88 87 92 aa b6 c7 b2 81 6b 63     uhiefy........kc
    633a:	4f 4e 75 93 96 95 95 7c 53 46 56 63 72 95 ad b3     ONu....|SFVcr...
    634a:	bb ce c4 76 45 51 56 51 7f b8 ae 88 85 71 42 36     ...vEQVQ.....qB6
    635a:	60 7c 80 9a b6 b5 ae c7 bf 64 37 58 69 61 8f c7     `|.......d7Xia..
    636a:	a3 6f 6c 63 3e 44 7c 91 86 98 b6 b2 ae ce 9f 40     .olc>D|........@
    637a:	3b 69 6f 74 b0 c6 85 54 5e 54 3d 61 98 95 87 9e     ;iot...T^T=a....
    638a:	b5 ad c0 c3 6e 33 50 74 72 93 c6 aa 63 4f 5c 49     ....n3Ptr...cO\I
    639a:	4e 85 a1 8c 88 a3 b0 b2 d2 a9 49 36 63 75 7c b0     N.........I6cu|.
    63aa:	c3 84 53 56 55 48 68 9a 99 81 8f ab af c6 ce 76     ..SVUHh........v
    63ba:	30 47 72 78 95 c3 ad 61 44 58 57 57 82 a2 8c 7d     0Grx...aDXWW...}
    63ca:	9b b6 bb d1 a1 48 33 5f 7c 88 b1 bb 7e 4b 4f 5e     .....H3_|...~KO^
    63da:	59 6f 99 9a 80 88 af ba ce c0 68 32 48 74 84 a0     Yo........h2Ht..
    63ea:	be 9d 5c 44 57 60 66 87 9e 8c 7e 9b b7 c8 d1 8c     ..\DW`f...~.....
    63fa:	3c 37 64 7d 91 b7 b2 78 46 4c 5d 5e 75 98 98 81     <7d}...xFL]^u...
    640a:	8a af c2 d3 af 58 32 4e 76 88 a6 b8 91 57 45 55     .....X2Nv....WEU
    641a:	61 6d 88 9a 8e 85 9d b6 c9 cb 84 3e 3e 67 7e 90     am.........>>g~.
    642a:	ab a2 78 57 54 5b 61 77 93 96 89 91 ab bb ce b1     ..xWT[aw........
    643a:	5f 37 50 75 82 99 a8 95 6c 51 54 5f 68 7e 92 92     _7Pu....lQT_h~..
    644a:	90 a3 b6 c8 c4 7d 3e 44 68 79 88 a2 a3 81 5d 55     .....}>Dhy....]U
    645a:	5b 5f 6e 8a 95 91 9d b3 c4 cc 98 51 3e 5b 71 7c     [_n........Q>[q|
    646a:	96 a7 96 71 5c 59 5b 63 7a 91 93 96 a9 ba c9 b8     ...q\Y[cz.......
    647a:	77 49 4e 65 6e 7e 95 9d 8f 72 63 5d 5d 68 7e 8d     wINen~...rc]]h~.
    648a:	93 9f ae b8 c4 a9 6e 4e 58 65 68 77 8d 97 89 76     ......nNXehw...v
    649a:	6f 6b 63 69 7e 8e 97 a2 af ba b7 91 6d 64 67 63     okci~.......mdgc
    64aa:	64 71 86 8d 85 80 7f 77 70 77 87 91 97 97 9a a0     dq.....wpw......
    64ba:	98 89 7f 7c 76 6f 6f 75 7d 81 81 7d 7a 7c 7f 81     ...|voou}..}z|..
    64ca:	80 82 87 89 8a 8d 8e 8c 89 88 87 81 7c 7a 7a 78     ............|zzx
    64da:	76 77 7a 7c 7d 7f 81 82 84 85 87 89 8a 8d 8f 8f     vwz|}...........
    64ea:	8c 86 82 7f 7a 78 78 79 79 7a 7d 80 81 82 84 84     ....zxxyyz}.....
    64fa:	82 81 84 88 8c 8e 90 90 8d 87 82 80 7e 7a 78 79     ............~zxy
    650a:	7a 7c 7e 82 85 82 81 80 80 81 82 86 8a 8e 8f 8f     z|~.............
    651a:	8e 8a 86 82 7e 7a 79 79 7c 7e 7f 80 7f 7f 7f 7f     ....~zyy|~......
    652a:	7f 80 82 84 86 8a 8f 91 91 8e 89 85 81 7f 7d 7d     ..............}}
    653a:	7d 7c 7a 7c 7d 7d 7e 7f 80 80 7f 81 85 87 8c 8f     }|z|}}~.........
    654a:	90 8f 8d 89 87 84 7f 7c 79 78 78 78 7a 7c 7c 7d     .......|yxxxz||}
    655a:	7e 7f 7f 81 84 84 86 89 8d 8f 91 90 8d 87 84 80     ~...............
    656a:	7d 7c 7a 78 77 78 79 7c 7e 7f 80 81 82 82 85 86     }|zxwxy|~.......
    657a:	88 8a 8d 8f 8f 8f 8d 89 86 81 7d 7c 79 78 78 78     ..........}|yxxx
    658a:	79 7c 7e 80 82 84 84 84 82 84 84 85 87 8a 8d 8f     y|~.............
    659a:	90 8f 8a 86 81 7f 7c 79 7a 7d 7c 7f 7f 7c 7c 7d     ......|yz}|..||}
    65aa:	7e 80 82 84 86 86 87 87 86 87 87 89 8c 8d 8c 89     ~...............
    65ba:	86 82 7f 7d 7c 79 78 78 7a 7d 7e 81 84 84 82 82     ...}|yxxz}~.....
    65ca:	81 81 82 84 84 85 87 88 89 8c 8d 8c 88 85 81 7e     ...............~
    65da:	7e 7e 7e 7d 7c 7a 7a 7d 7f 81 82 84 84 84 84 84     ~~~}|zz}........
    65ea:	84 82 81 80 81 82 85 86 87 88 88 87 86 86 84 82     ................
    65fa:	81 80 7f 7e 7e 7e 7f 7f 80 80 80 81 82 84 82 81     ...~~~..........
    660a:	80 81 81 82 84 84 85 85 86 86 88 89 8a 89 88 85     ................
    661a:	84 81 80 7f 7e 7d 7d 7d 7e 80 82 84 84 84 82 82     ....~}}}~.......
    662a:	81 81 81 81 81 81 82 84 85 85 85 85 85 85 86 86     ................
    663a:	85 85 84 82 81 80 80 80 7f 7f 7f 7f 80 81 81 81     ................
    664a:	81 81 81 81 81 82 84 84 84 84 84 82 84 82 82 82     ................
    665a:	82 84 85 86 86 85 84 82 81 80 80 80 80 80 81 81     ................
    666a:	82 82 82 82 82 82 82 82 82 82 82 82 82 82 82 81     ................
    667a:	81 82 84 84 85 86 86 86 87 86 85 85 84 82 81 80     ................
    668a:	7f 7f 7f 7f 80 7f 80 80 81 81 82 84 84 82 82 82     ................
    669a:	81 81 81 81 81 82 84 84 85 85 85 84 85 85 85 85     ................
    66aa:	84 82 82 82 82 81 81 80 80 80 80 80 81 81 82 82     ................
    66ba:	82 82 84 84 82 82 82 82 82 82 82 84 85 85 85 84     ................
    66ca:	84 84 85 85 85 85 85 85 84 82 81 81 80 80 80 80     ................
    66da:	80 81 81 81 81 81 82 82 82 84 82 82 82 82 82 82     ................
    66ea:	81 81 82 82 84 84 84 84 84 84 84 84 84 82 82 81     ................
    66fa:	80 80 80 80 81 81 81 81 81 81 81 81 81 81 81 81     ................
    670a:	81 82 82 82 82 82 82 82 84 84 84 84 84 84 84 84     ................
    671a:	84 82 82 84 82 82 81 81 81 81 81 80 81 80 81 81     ................
    672a:	82 7f 82 72 7e 89 7d 86 81 82 81 81 81 80 82 81     ...r~.}.........
    673a:	7f 72 75 7e 78 8a 8f 90 97 8d 7f 7a 77 6b 72 7a     .ru~x......zwkrz
    674a:	79 7a 78 75 75 74 72 76 7e 87 8a 93 95 9b a1 aa     yzxuutrv~.......
    675a:	b1 c9 c4 78 71 67 48 66 96 93 a7 b0 85 6d 69 56     ...xqgHf.....miV
    676a:	66 81 7f 7f 80 6e 65 69 69 77 92 a0 a5 ab b0 b3     f....neiiw......
    677a:	c6 d1 63 4e 69 4c 71 ba a7 8f 92 60 44 69 78 82     ..cNiLq....`Dix.
    678a:	a9 97 55 53 5f 5e 7c 89 7a 85 95 82 87 a6 b6 c0     ..US_^|.z.......
    679a:	e7 b7 30 38 5e 59 97 dd af 6f 67 46 3a 7c ab a0     ..08^Y...ogF:|..
    67aa:	9e 80 2e 34 72 7f 81 91 7d 69 7d 81 86 ad d1 ca     ...4r...}i}.....
    67ba:	d7 ae 22 1d 6f 87 9b d9 b7 4d 38 55 5e 86 c2 b2     ..".o....M8U^...
    67ca:	78 58 37 3c 7a a1 89 72 6f 69 6d 86 9f b1 c1 c6     xX7<z..roim.....
    67da:	b9 ba 55 13 5e a2 9a aa bc 70 28 4c 81 8c 9e b2     ..U.^....p(L....
    67ea:	88 4e 44 4e 69 93 9b 77 5f 6b 77 84 97 ae b8 b6     .NDNi..w_kw.....
    67fa:	ad c3 a1 27 2d 93 ae 8e a8 a6 4c 27 6d a0 90 93     ...'-.....L'm...
    680a:	9f 72 42 4d 70 7f 8a 8c 70 59 6c 88 90 97 ad b5     .rBMp...pYl.....
    681a:	ab a5 cb 98 1f 34 9f b2 8a a1 a3 4e 26 71 b2 99     .....4.....N&q..
    682a:	84 95 7a 46 4c 78 87 81 81 75 61 6c 8c 9a 96 a3     ..zFLx...ual....
    683a:	b5 b0 a3 cf 95 1a 30 a5 bc 8e 9b 9f 4e 23 6e b9     ......0.....N#n.
    684a:	a3 7f 89 7c 49 46 78 92 84 79 77 67 66 86 9b 96     ...|IFx..ywgf...
    685a:	9f b5 b5 a8 c8 89 1d 37 a6 c1 93 97 95 4d 27 6f     .......7.....M'o
    686a:	bc a8 7d 80 77 4c 47 78 98 89 76 71 67 68 85 9b     ..}.wLGx..vqgh..
    687a:	9a a2 b5 b2 ae c9 77 16 45 b3 bc 90 98 8d 43 2d     ......w.E.....C-
    688a:	7e c0 9f 79 7f 71 48 4f 84 96 84 79 75 65 69 8d     ~..y.qHO...yuei.
    689a:	a1 9e a5 b8 b0 b8 b7 49 19 71 c7 ad 8f 9b 71 2d     .......I.q....q-
    68aa:	43 9f ba 8d 7c 80 63 45 63 8f 90 7d 77 6c 61 74     C...|.cEc..}wlat
    68ba:	95 9d 9d ad ba a8 c2 a9 2d 21 90 c8 9b 92 9e 5c     ........-!.....\
    68ca:	21 58 b3 af 81 85 81 53 40 74 95 86 7c 79 66 5f     !X.....S@t..|yf_
    68da:	7f 9e 9a a1 b8 b8 a7 c8 81 17 44 b3 b9 8d a1 92     ..........D.....
    68ea:	38 28 84 b8 92 84 93 6e 3e 55 82 88 85 84 6f 59     8(.....n>U....oY
    68fa:	6d 90 96 9a b1 bf aa b9 c1 3c 15 85 c1 93 9a b6     m........<......
    690a:	5f 17 5b ab 99 88 a5 82 40 45 6f 7e 89 91 77 58     _.[.....@Eo~..wX
    691a:	66 85 8c 95 b5 bf b2 af d2 60 09 67 b5 90 9b c9     f........`.g....
    692a:	75 1b 51 93 85 92 b9 87 45 53 60 5e 8d a6 75 5c     u.Q.....ES`^..u\
    693a:	72 75 77 98 b6 af b6 b8 c7 96 1f 47 92 89 99 cf     ruw........G....
    694a:	96 3a 4f 6e 68 92 bc 93 65 6d 46 3a 8d a6 78 77     .:Onh...emF:..xw
    695a:	7c 64 74 96 99 ab c8 c1 b5 c4 3a 25 7c 82 86 d2     |dt.......:%|...
    696a:	ba 57 58 63 47 7c b6 9a 86 8c 45 26 7c 8a 78 95     .WXcG|....E&|.x.
    697a:	84 65 7d 85 79 a8 bf bf b9 e1 71 24 6d 5d 60 be     .e}.y.....q$m]`.
    698a:	c0 86 8d 75 36 60 7d 76 98 a3 61 60 6d 55 6e 86     ...u6`}v..a`mUn.
    699a:	77 89 95 82 81 96 99 aa bb cf af 4d 7a 49 4f 82     w..........MzIO.
    69aa:	9a 8a b2 90 6e 75 65 56 7a 7d 76 71 86 68 76 77     ....nueVz}vq.hvw
    69ba:	69 79 8e 89 95 9f 9a a9 ae be a1 64 91 42 6b 74     iy.........d.Bkt
    69ca:	6f 8a 96 8c 89 90 6e 7e 6d 6f 6b 66 7c 71 81 82     o.....n~mokf|q..
    69da:	7f 86 8a 86 89 8c 88 8f 90 91 9e 7c 89 93 77 91     ...........|..w.
    69ea:	7f 7e 87 77 7d 76 75 78 76 7c 7c 79 7e 7d 7d 84     .~.w}vuxv||y~}}.
    69fa:	7f 80 82 82 88 86 86 89 88 8d 8e 91 90 8c 8d 82     ................
    6a0a:	84 7e 7e 7d 77 76 72 77 76 7c 7c 7e 80 80 84 84     .~~}wvrwv||~....
    6a1a:	86 84 85 86 88 88 89 8c 8d 8e 90 8e 8c 88 81 82     ................
    6a2a:	7e 7e 7c 7d 78 76 77 77 79 7c 7e 7c 7f 80 81 85     ~~|}xvwwy|~|....
    6a3a:	86 85 84 85 84 86 88 89 8c 8f 8e 89 8c 84 82 81     ................
    6a4a:	7e 7c 7a 7c 78 79 77 79 79 7d 7e 7f 81 81 82 84     ~|z|xywyy}~.....
    6a5a:	85 84 84 84 82 84 86 87 8a 8d 8c 8d 8c 89 85 86     ................
    6a6a:	82 7f 7f 7d 7d 7c 7c 7c 7e 7f 81 81 82 82 81 82     ...}}|||~.......
    6a7a:	84 84 85 84 84 84 85 85 87 89 87 89 8a 8a 8a 89     ................
    6a8a:	88 86 85 82 81 80 7e 7e 7e 7e 7f 7f 81 82 82 82     ......~~~~......
    6a9a:	84 85 86 84 84 82 82 82 84 84 85 84 85 85 86 87     ................
    6aaa:	88 89 8a 89 88 87 85 81 80 7f 80 80 7f 81 81 82     ................
    6aba:	82 84 86 85 84 84 84 84 84 84 84 82 82 82 82 82     ................
    6aca:	82 85 87 87 87 87 87 86 86 85 85 85 84 84 84 82     ................
    6ada:	82 81 82 84 82 82 81 82 82 82 84 84 82 82 82 81     ................
    6aea:	80 81 82 84 84 84 84 84 85 84 84 82 82 82 82 82     ................
    6afa:	82 82 84 85 85 82 82 82 81 81 82 7e 7d 88 81 81     ...........~}...
    6b0a:	82 82 82 82 84 81 81 81 80 80 81 81 84 82 82 84     ................
    6b1a:	81 81 80 82 81 82 84 84 82 82 84 82 84 81 81 80     ................
    6b2a:	7f 81 80 81 82 82 81 82 82 84 82 84 82 82 81 82     ................
    6b3a:	81 81 81 82 82 84 86 86 85 84 7f 7c 7f 82 84 85     ...........|....
    6b4a:	85 84 82 81 81 80 81 81 81 82 81 82 7f 80 7f 80     ................
    6b5a:	80 81 81 81 82 86 89 8d 8f 90 92 95 9b 8d 8e 7d     ...............}
    6b6a:	79 70 70 72 78 81 81 86 7f 7c 72 71 6e 72 77 7f     ypprx....|rqnrw.
    6b7a:	86 8d 92 95 a1 9f c1 a1 9e 88 67 6c 50 74 66 92     ..........glPtf.
    6b8a:	88 a5 8f 92 77 6f 54 5d 60 75 7e 88 86 85 85 81     ....woT]`u~.....
    6b9a:	88 97 a5 cc c7 95 a0 47 68 36 71 6f a0 a6 a8 97     .......Gh6qo....
    6baa:	77 63 51 57 5e 72 82 88 86 79 6b 6e 77 8a a2 be     wcQW^r...yknw...
    6bba:	ce f2 75 93 2b 43 4d 6d ae ae c4 95 71 50 3d 55     ..u.+CMm....qP=U
    6bca:	6e 8d 97 88 78 65 5d 5e 6e 89 a5 ae c2 b1 df 8e     n...xe]^n.......
    6bda:	50 70 1f 86 7c b1 bb 90 84 4c 4d 57 75 92 a9 74     Pp..|....LMWu..t
    6bea:	6b 66 50 7c 6b 81 92 98 99 9e ab bc e1 4e 84 40     kfP|k........N.@
    6bfa:	4b 96 8d c0 a7 77 65 44 56 76 8c 9f 88 59 69 59     K....weDVv...YiY
    6c0a:	6e 80 75 8d 96 90 96 aa ae ef 88 4c 71 2c 7f ae     n.u........Lq,..
    6c1a:	a5 b9 80 4e 4d 4f 70 9e 9b 95 4f 51 68 60 87 81     ...NMOp...OQh`..
    6c2a:	78 97 8e 81 ab ab df d2 37 67 46 49 b2 b9 a7 9d     x.......7gFI....
    6c3a:	59 35 5c 67 90 ae 97 54 4e 67 5e 81 86 77 91 92     Y5\g...TNg^..w..
    6c4a:	7d 97 b6 be f5 6e 42 60 3e 77 c2 ab 96 84 45 44     }....nB`>w....ED
    6c5a:	6c 79 97 a5 5e 5b 74 56 6f 82 75 90 9a 82 8e b1     ly..^[tVo.u.....
    6c6a:	b1 e7 a0 44 5f 51 56 a2 b3 92 91 6d 46 5f 6f 75     ...D_QV....mF_ou
    6c7a:	8a 87 71 70 69 63 72 7e 87 92 92 8f 9f ae c4 c3     ..qpicr~........
    6c8a:	6e 5d 63 53 70 9b 95 89 8c 6d 5d 6c 6b 6e 84 82     n]cSp....m]lkn..
    6c9a:	78 77 70 6c 77 82 89 8e 91 99 a0 a9 be aa 75 6e     xwplw.........un
    6caa:	6b 5c 70 88 82 81 86 77 6c 6f 6e 72 7c 80 7f 7e     k\p....wlonr|..~
    6cba:	80 7e 7f 85 87 84 87 90 8e 91 98 91 8d 8d 81 7c     .~.............|
    6cca:	80 7e 7a 7a 7a 76 78 7f 82 82 7f 81 80 7f 81 82     .~zzzvx.........
    6cda:	80 81 7e 7c 7d 7f 82 85 86 85 84 80 81 85 87 86     ..~|}...........
    6cea:	85 81 7d 7d 81 82 86 84 81 81 80 80 85 82 82 81     ..}}............
    6cfa:	7c 7d 7f 81 85 86 84 82 80 7e 81 84 84 85 81 7e     |}.......~.....~
    6d0a:	7d 7f 80 82 84 81 81 81 80 82 84 81 84 7f 7d 80     }.............}.
    6d1a:	81 82 85 84 81 80 7e 80 82 84 85 84 80 7f 7f 81     ......~.........
    6d2a:	82 84 84 81 81 80 82 85 84 84 82 80 81 82 84 85     ................
    6d3a:	84 82 81 80 80 84 84 85 85 81 80 7f 81 82 84 84     ................
    6d4a:	81 81 80 81 82 85 85 84 81 81 82 82 84 84 82 82     ................
    6d5a:	80 81 82 84 85 85 81 80 7f 80 82 84 84 84 82 80     ................
    6d6a:	82 82 84 85 85 84 82 82 82 82 84 82 82 81 81 82     ................
    6d7a:	85 85 85 84 81 80 81 82 85 85 85 84 81 82 82 84     ................
    6d8a:	85 85 84 82 81 81 82 84 84 82 81 81 82 84 85 85     ................
    6d9a:	84 81 80 80 81 84 85 85 84 84 82 82 84 84 85 85     ................
    6daa:	84 82 82 84 84 85 84 84 82 84 85 86 86 86 84 82     ................
    6dba:	81 82 84 86 87 87 86 85 85 85 85 86 87 86 85 84     ................
    6dca:	85 85 86 86 85 85 85 86 87 87 87 86 84 84 84 84     ................
    6dda:	86 87 87 86 86 85 86 86 87 87 86 85 84 85 85 86     ................
    6dea:	86 85 85 84 85 80 81 8a 8d 82 7c 81 87 87 81 82     ..........|.....
    6dfa:	86 81 7a 7e 8e 8f 81 7e 86 89 84 7e 80 87 87 82     ..z~...~...~....
    6e0a:	81 85 87 85 84 84 85 82 84 84 84 84 85 85 84 82     ................
    6e1a:	84 86 86 86 86 86 86 84 82 84 86 86 84 82 84 85     ................
    6e2a:	84 85 85 85 84 84 82 82 86 86 82 81 86 86 84 82     ................
    6e3a:	85 88 88 81 7f 85 86 81 80 84 87 85 81 84 87 85     ................
    6e4a:	82 85 84 84 86 82 85 87 86 81 81 86 82 7f 7f 84     ................
    6e5a:	8a 8a 81 80 81 84 82 81 85 87 85 85 85 87 85 82     ................
    6e6a:	88 85 7f 81 86 86 82 84 84 84 85 85 84 84 85 85     ................
    6e7a:	82 80 86 86 81 84 85 82 84 81 81 86 85 82 7f 80     ................
    6e8a:	82 84 86 85 84 87 85 81 84 85 82 84 86 84 82 86     ................
    6e9a:	85 81 80 84 85 82 81 85 82 84 82 84 87 81 81 80     ................
    6eaa:	81 84 82 7e 7e 84 87 80 7d 80 81 84 80 7d 7f 85     ...~~...}....}..
    6eba:	81 7d 7f 84 85 7f 81 7e 7f 80 81 82 81 80 82 85     .}.....~........
    6eca:	80 7e 7f 7f 82 85 84 81 81 80 7e 7f 82 80 81 85     .~........~.....
    6eda:	82 82 84 82 7e 7e 7f 82 81 82 84 84 82 80 7f 80     ....~~..........
    6eea:	82 82 80 85 84 81 84 84 80 80 82 81 84 86 82 84     ................
    6efa:	82 84 85 82 81 82 84 80 7d 7e 7e 7d 7a 79 7a 7a     ........}~~}zyzz
    6f0a:	7c 7c 7a 7c 7f 81 84 84 86 8a 8c 8e 8d 8d 91 93     ||z|............
    6f1a:	97 9a 92 81 72 6d 6c 6b 6b 6f 7c 86 82 79 71 70     ....rmlkko|..yqp
    6f2a:	6f 6c 6b 72 80 88 88 8a 8f 91 93 92 96 9e aa aa     olkr............
    6f3a:	93 78 6b 6b 68 61 64 76 8c 95 8f 87 85 81 75 5e     .xkkhadv......u^
    6f4a:	54 63 76 7d 77 7a 89 8f 86 7a 7f 90 9d a0 a1 b0     Tcv}wz...z......
    6f5a:	b8 9e 76 5f 63 66 5f 5f 74 92 9f 96 8a 88 85 76     ..v_cf__t......v
    6f6a:	64 60 65 68 6c 75 7f 82 7d 7a 80 86 86 89 96 a8     d`ehlu..}z......
    6f7a:	b0 b6 b3 9a 79 64 5f 5d 5c 66 7d 93 9d 99 93 8d     ....yd_]\f}.....
    6f8a:	80 6e 63 63 6c 6f 6c 71 7f 84 79 70 75 81 86 86     .ncclolq..ypu...
    6f9a:	90 a1 ab ab b0 b1 96 72 60 63 61 5e 69 84 98 99     .......r`ca^i...
    6faa:	93 90 8c 7c 69 65 6c 74 72 70 78 81 7f 75 71 76     ...|ieltrpx..uqv
    6fba:	7c 7f 87 95 a1 a7 ad b2 b9 9d 77 68 69 60 57 66     |.........whi`Wf
    6fca:	84 93 92 97 9d 92 7a 6d 6e 6d 69 70 79 79 77 7a     ......zmnmipyywz
    6fda:	7d 76 6e 74 80 86 8a 98 a6 aa a9 b0 b1 8e 70 6d     }vnt..........pm
    6fea:	69 59 58 74 88 8a 8e 9e 9a 86 78 78 71 66 6b 78     iYXt......xxqfkx
    6ffa:	77 6f 79 84 7a 70 77 80 80 82 91 9a 99 9a a2 a1     woy.zpw.........
    700a:	a2 92 7d 7e 75 6d 67 76 7c 7a 84 89 89 84 85 87     ..}~umgv|z......
    701a:	81 7c 7d 7f 7c 75 77 80 7d 75 77 7a 77 79 82 88     .|}.|uw.}uwzwy..
    702a:	85 86 91 96 90 96 a2 9e 89 8a 8d 77 6d 75 71 6b     ...........wmuqk
    703a:	6f 7d 80 7c 88 92 8a 88 8d 87 7d 75 72 6f 69 6d     o}.|......}uroim
    704a:	72 76 7d 87 8a 8d 90 92 92 92 96 99 9d 9b 90 8e     rv}.............
    705a:	8a 77 74 76 6c 6f 77 79 7e 85 8d 8d 8a 8f 89 81     .wtvlowy~.......
    706a:	81 78 6e 6f 71 6f 74 7c 7e 85 8e 8e 8c 8f 8f 8f     .xnoqot|~.......
    707a:	91 96 99 9d 98 8e 8e 84 72 78 74 6b 76 79 79 81     ........rxtkvyy.
    708a:	86 88 89 8a 8a 85 82 81 78 72 74 71 6e 74 7a 7a     ........xrtqntzz
    709a:	84 8a 89 8e 90 8f 91 92 95 96 99 98 8c 8d 88 74     ...............t
    70aa:	77 77 69 75 79 75 81 86 86 8c 8d 8c 88 85 82 7c     wwiuyu.........|
    70ba:	76 70 70 72 70 78 7e 7e 88 8a 88 8f 8d 8c 91 90     vpprpx~~........
    70ca:	92 96 99 97 8a 8d 85 72 79 76 6b 79 79 76 86 88     .......ryvkyyv..
    70da:	86 90 8e 88 89 84 7f 7d 7a 75 71 77 75 75 80 7e     .......}zuqwuu.~
    70ea:	81 8d 88 8a 91 8c 8f 91 8e 92 93 93 90 8a 8a 81     ................
    70fa:	78 7d 75 70 7d 79 79 87 84 84 8e 88 86 8c 82 7e     x}up}yy........~
    710a:	81 7a 75 75 75 74 76 7d 7f 82 8a 88 88 8e 8a 89     .zuuutv}........
    711a:	8f 8e 8f 96 96 91 8f 8d 84 7a 7a 76 70 77 7a 79     .........zzvpwzy
    712a:	82 87 84 8c 8d 86 88 87 80 80 7f 77 76 70 6b 7c     ...........wvpk|
    713a:	78 84 7e 8c 8c 82 8e 8a 8a 8f 97 96 9a a8 95 82     x.~.............
    714a:	87 72 63 6f 74 71 89 95 8f 92 91 7e 77 77 6e 71     .rcotq.....~wwnq
    715a:	7f 82 86 90 88 6f 72 71 65 70 7e 7e 8d 9b 95 92     .....orqep~~....
    716a:	98 92 91 9a 9d a2 98 82 7d 74 66 6e 7d 7f 89 97     ........}tfn}...
    717a:	91 89 87 7d 71 74 77 77 81 8a 8a 88 86 6d 63 6d     ...}qtww.....mcm
    718a:	6b 6d 80 89 8a 95 97 8d 8d 92 91 93 9e a6 9a 82     km..............
    719a:	7d 74 64 69 7a 80 88 98 97 8a 84 7e 70 6d 75 79     }tdiz......~pmuy
    71aa:	7f 89 8f 8a 85 72 63 66 6c 6f 79 87 8e 90 93 90     .....rcfloy.....
    71ba:	8a 8d 92 95 99 a3 a1 88 7a 78 6b 64 75 85 86 8f     ........zxkdu...
    71ca:	98 8f 80 7c 78 6f 71 7e 84 84 8a 8e 82 7a 6d 64     ...|xoq~.....zmd
    71da:	6b 74 78 7f 88 8a 8a 8c 8c 8a 8f 96 99 9d a2 9d     ktx.............
    71ea:	85 75 74 6e 68 78 8c 8e 8f 95 8e 7d 75 77 74 74     .utnhx.....}uwtt
    71fa:	80 8c 8a 89 8a 85 77 69 67 70 76 7a 84 88 88 89     ......wigpvz....
    720a:	8a 88 88 8f 96 9a 9e a1 a0 8a 75 71 6f 69 74 88     ..........uqoit.
    721a:	91 8e 90 8f 81 74 75 78 76 7d 8a 8e 88 87 85 7c     .....tuxv}.....|
    722a:	6d 64 6d 77 79 7f 86 87 85 87 89 88 8a 93 99 9a     mdmwy...........
    723a:	9d 9f 96 7e 71 71 6f 6e 7e 8e 8f 8d 8f 89 79 74     ...~qqon~.....yt
    724a:	78 79 79 82 8d 8a 86 85 81 77 6c 6b 74 78 7a 81     xyy......wlktxz.
    725a:	86 85 84 87 88 88 8d 95 98 98 9b 9f 90 79 75 76     .............yuv
    726a:	6f 71 82 8d 8a 8c 8e 85 78 76 7a 7a 7d 87 8d 88     oq......xvzz}...
    727a:	85 85 80 76 6c 6e 76 78 7a 82 86 85 85 88 89 89     ...vlnvxz.......
    728a:	8f 96 96 97 9a 99 8d 7a 77 76 70 74 82 8a 88 8c     .......zwvpt....
    729a:	8e 85 7a 7c 7d 79 7d 86 88 86 86 86 80 79 71 6f     ..z|}y}......yqo
    72aa:	74 79 7c 81 85 86 87 89 89 89 8d 90 91 92 92 93     ty|.............
    72ba:	8f 86 7e 7e 78 76 7a 84 84 84 88 86 81 7f 81 81     ..~~xvz.........
    72ca:	7f 80 84 82 82 84 84 81 7f 7c 7a 7a 7c 7c 7e 80     .........|zz||~.
    72da:	81 84 84 85 86 86 87 87 88 88 87 88 88 86 85 84     ................
    72ea:	81 7f 7e 7e 7e 7d 7e 7f 81 81 84 86 86 86 86 86     ..~~~}~.........
    72fa:	84 81 80 80 7e 7d 7d 7d 7d 7e 7f 81 82 82 84 86     ....~}}}}~......
    730a:	86 87 88 89 89 89 8a 8a 89 87 85 81 7e 7d 7e 7d     ............~}~}
    731a:	7d 7e 80 81 82 85 86 86 86 85 84 82 81 81 80 7e     }~.............~
    732a:	7d 7d 7d 7d 7e 80 81 81 82 85 85 86 87 88 88 88     }}}}~...........
    733a:	89 89 89 88 87 85 81 7e 7d 7c 7c 7d 7e 80 81 82     .......~}||}~...
    734a:	85 85 84 84 84 82 81 81 81 81 81 80 7e 7d 7c 7c     ............~}||
    735a:	7d 7f 80 82 84 86 86 87 87 88 88 89 8a 8a 89 88     }...............
    736a:	87 84 80 7d 7d 7d 7e 7f 81 82 82 84 84 84 84 82     ...}}}~.........
    737a:	84 84 82 82 82 81 7f 7e 7d 7d 7d 7e 80 81 81 82     .......~}}}~....
    738a:	84 85 85 86 87 88 88 89 8a 89 88 87 85 81 7f 7e     ...............~
    739a:	7e 7f 7f 80 80 81 81 82 84 84 85 85 85 84 82 82     ~...............
    73aa:	80 7f 7f 7e 7d 7d 7e 80 81 82 82 85 86 86 86 86     ...~}}~.........
    73ba:	87 88 88 88 88 88 88 87 85 84 81 80 7f 7e 7f 7f     .............~..
    73ca:	80 80 81 82 82 84 84 85 85 84 84 82 80 80 7f 7f     ................
    73da:	7e 7e 7f 80 80 81 82 85 85 86 86 86 86 86 86 86     ~~..............
    73ea:	86 86 86 86 85 85 85 82 81 7f 7f 7f 7f 80 80 81     ................
    73fa:	81 81 82 82 81 81 81 81 80 80 80 7f 7f 7f 7f 7f     ................
    740a:	80 81 82 82 84 84 84 85 85 85 85 84 84 84 85 85     ................
    741a:	85 85 85 85 84 84 84 82 82 81 81 81 81 81 81 81     ................
    742a:	81 81 81 81 81 80 80 80 81 81 82 82 82 82 82 82     ................
    743a:	84 84 84 84 85 85 85 85 85 84 84 84 84 85 85 85     ................
    744a:	85 86 85 85 85 84 82 82 81 81 81 81 81 81 80 80     ................
    745a:	81 81 81 81 81 81 81 81 82 82 82 84 84 84 82 84     ................
    746a:	82 82 82 81 82 82 82 82 82 82 82 84 84 84 84 85     ................
    747a:	84 84 84 82 82 84 82 82 82 81 81 81 81 81 81 81     ................
    748a:	82 82 84 84 84 84 82 82 82 82 82 82 84 84 84 84     ................
    749a:	82 82 82 82 82 84 84 84 82 84 84 84 84 84 84 84     ................
    74aa:	84 84 84 82 82 82 81 81 82 82 82 82 82 82 82 82     ................
    74ba:	82 82 82 82 82 82 82 81 81 81 81 81 81 81 81 82     ................
    74ca:	81 82 82 82 82 82 82 82 82 82 82 82 81 81 81 82     ................
    74da:	82 82 82 82 82 82 82 82 82 82 82 82 82 84 84 84     ................
    74ea:	84 84 84 84 82 82 82 82 82 82 81 82 82 84 84 84     ................
    74fa:	84 84 82 84 84 82 82 82 82 82 82 81 81 81 82 82     ................
    750a:	82 82 82 84 82 82 82 82 82 82 82 82 82 82 84 84     ................
    751a:	82 82 82 82 82 82 82 82 82 82 82 82 82 82 84 84     ................
    752a:	84 82 82 82 82 82 82 82 82 82 82 82 82 82 82 82     ................
    753a:	82 82 82 82 82 82 82 82 82 82 82 82 84 82 82 82     ................
    754a:	82 82 81 81 82 82 82 82 82 82 82 82 84 82 82 82     ................
    755a:	82 82 82 82 81 82 82 82 82 82 82 82 82 82 82 81     ................
    756a:	82 82 82 82 82 82 82 82 82 84 82 82 82 00           ..............

00007578 <__init>:
    7578:	11 24       	eor	r1, r1
    757a:	1f be       	out	0x3f, r1	; 63
    757c:	cf e5       	ldi	r28, 0x5F	; 95
    757e:	d8 e0       	ldi	r29, 0x08	; 8
    7580:	de bf       	out	0x3e, r29	; 62
    7582:	cd bf       	out	0x3d, r28	; 61

00007584 <__do_copy_data>:
    7584:	10 e0       	ldi	r17, 0x00	; 0
    7586:	a0 e6       	ldi	r26, 0x60	; 96
    7588:	b0 e0       	ldi	r27, 0x00	; 0
    758a:	e2 e2       	ldi	r30, 0x22	; 34
    758c:	f7 e7       	ldi	r31, 0x77	; 119
    758e:	02 c0       	rjmp	.+4      	; 0x7594 <.do_copy_data_start>

00007590 <.do_copy_data_loop>:
    7590:	05 90       	lpm	r0, Z+
    7592:	0d 92       	st	X+, r0

00007594 <.do_copy_data_start>:
    7594:	a0 36       	cpi	r26, 0x60	; 96
    7596:	b1 07       	cpc	r27, r17
    7598:	d9 f7       	brne	.-10     	; 0x7590 <.do_copy_data_loop>

0000759a <__do_clear_bss>:
    759a:	10 e0       	ldi	r17, 0x00	; 0
    759c:	a0 e6       	ldi	r26, 0x60	; 96
    759e:	b0 e0       	ldi	r27, 0x00	; 0
    75a0:	01 c0       	rjmp	.+2      	; 0x75a4 <.do_clear_bss_start>

000075a2 <.do_clear_bss_loop>:
    75a2:	1d 92       	st	X+, r1

000075a4 <.do_clear_bss_start>:
    75a4:	a1 36       	cpi	r26, 0x61	; 97
    75a6:	b1 07       	cpc	r27, r17
    75a8:	e1 f7       	brne	.-8      	; 0x75a2 <.do_clear_bss_loop>
    75aa:	0c 94 68 3b 	jmp	0x76d0 <main>

000075ae <__bad_interrupt>:
    75ae:	0c 94 00 00 	jmp	0x0 <__vectors>

000075b2 <__vector_7>:
#include <newwavdata4.c>


volatile char alertlevel = 0;
ISR(TIMER1_COMPA_vect){
    75b2:	1f 92       	push	r1
    75b4:	0f 92       	push	r0
    75b6:	0f b6       	in	r0, 0x3f	; 63
    75b8:	0f 92       	push	r0
    75ba:	11 24       	eor	r1, r1
    75bc:	8f 93       	push	r24
  alertlevel = 0;
    75be:	10 92 60 00 	sts	0x0060, r1
  TIMSK &= ~(1<<OCIE1A); //disable output capture interrupt, just avoiding unncecessary interrupts
    75c2:	89 b7       	in	r24, 0x39	; 57
    75c4:	8f 7e       	andi	r24, 0xEF	; 239
    75c6:	89 bf       	out	0x39, r24	; 57
    75c8:	8f 91       	pop	r24
    75ca:	0f 90       	pop	r0
    75cc:	0f be       	out	0x3f, r0	; 63
    75ce:	0f 90       	pop	r0
    75d0:	1f 90       	pop	r1
    75d2:	18 95       	reti

000075d4 <__vector_1>:
}

ISR (INT0_vect)
{
    75d4:	1f 92       	push	r1
    75d6:	0f 92       	push	r0
    75d8:	0f b6       	in	r0, 0x3f	; 63
    75da:	0f 92       	push	r0
    75dc:	11 24       	eor	r1, r1
    75de:	2f 93       	push	r18
    75e0:	3f 93       	push	r19
    75e2:	8f 93       	push	r24
    75e4:	9f 93       	push	r25
    75e6:	ef 93       	push	r30
    75e8:	ff 93       	push	r31
 	PORTC=0x00;	
    75ea:	15 ba       	out	0x15, r1	; 21
		int i=0;
		unsigned int rd;
		//GIFR &= ~(1<<INTF1);
		if (alertlevel == 0)  //sajid
    75ec:	80 91 60 00 	lds	r24, 0x0060
    75f0:	88 23       	and	r24, r24
    75f2:	a1 f4       	brne	.+40     	; 0x761c <__vector_1+0x48>
		{
			alertlevel = 1;
    75f4:	81 e0       	ldi	r24, 0x01	; 1
    75f6:	80 93 60 00 	sts	0x0060, r24
    75fa:	ea e0       	ldi	r30, 0x0A	; 10
    75fc:	f5 e5       	ldi	r31, 0x55	; 85
			while(i<WAVDATALENGTH1) {
				rd = pgm_read_byte(&(wavdata1[i]));
    75fe:	84 91       	lpm	r24, Z
    7600:	28 2f       	mov	r18, r24
    7602:	33 27       	eor	r19, r19
    7604:	31 96       	adiw	r30, 0x01	; 1
    milliseconds can be achieved.
 */
void
_delay_loop_2(uint16_t __count)
{
    7606:	8c e3       	ldi	r24, 0x3C	; 60
    7608:	90 e0       	ldi	r25, 0x00	; 0
	__asm__ volatile (
    760a:	01 97       	sbiw	r24, 0x01	; 1
    760c:	f1 f7       	brne	.-4      	; 0x760a <__vector_1+0x36>
				i=i+1;
				_delay_loop_2(LOOPDELAY);
				PORTA=rd;
    760e:	2b bb       	out	0x1b, r18	; 27
    7610:	85 e7       	ldi	r24, 0x75	; 117
    7612:	e6 37       	cpi	r30, 0x76	; 118
    7614:	f8 07       	cpc	r31, r24
    7616:	99 f3       	breq	.-26     	; 0x75fe <__vector_1+0x2a>
    7618:	94 f3       	brlt	.-28     	; 0x75fe <__vector_1+0x2a>
    761a:	44 c0       	rjmp	.+136    	; 0x76a4 <__vector_1+0xd0>
			}
		}
		else if (alertlevel == 1)   //atif
    761c:	80 91 60 00 	lds	r24, 0x0060
    7620:	81 30       	cpi	r24, 0x01	; 1
    7622:	a1 f4       	brne	.+40     	; 0x764c <__vector_1+0x78>
		{
			alertlevel = 2;
    7624:	82 e0       	ldi	r24, 0x02	; 2
    7626:	80 93 60 00 	sts	0x0060, r24
    762a:	ea e3       	ldi	r30, 0x3A	; 58
    762c:	fb e3       	ldi	r31, 0x3B	; 59
			while(i<WAVDATALENGTH2) {
				rd = pgm_read_byte(&(wavdata2[i]));
    762e:	84 91       	lpm	r24, Z
    7630:	28 2f       	mov	r18, r24
    7632:	33 27       	eor	r19, r19
    7634:	31 96       	adiw	r30, 0x01	; 1
    milliseconds can be achieved.
 */
void
_delay_loop_2(uint16_t __count)
{
    7636:	8c e3       	ldi	r24, 0x3C	; 60
    7638:	90 e0       	ldi	r25, 0x00	; 0
	__asm__ volatile (
    763a:	01 97       	sbiw	r24, 0x01	; 1
    763c:	f1 f7       	brne	.-4      	; 0x763a <__vector_1+0x66>
				i=i+1;
				_delay_loop_2(LOOPDELAY);
				PORTA=rd;
    763e:	2b bb       	out	0x1b, r18	; 27
    7640:	85 e5       	ldi	r24, 0x55	; 85
    7642:	e9 30       	cpi	r30, 0x09	; 9
    7644:	f8 07       	cpc	r31, r24
    7646:	99 f3       	breq	.-26     	; 0x762e <__vector_1+0x5a>
    7648:	94 f3       	brlt	.-28     	; 0x762e <__vector_1+0x5a>
    764a:	2c c0       	rjmp	.+88     	; 0x76a4 <__vector_1+0xd0>
			}
		}		
		else if (alertlevel == 2)    //omar
    764c:	80 91 60 00 	lds	r24, 0x0060
    7650:	82 30       	cpi	r24, 0x02	; 2
    7652:	a1 f4       	brne	.+40     	; 0x767c <__vector_1+0xa8>
		{
			alertlevel = 3;
    7654:	83 e0       	ldi	r24, 0x03	; 3
    7656:	80 93 60 00 	sts	0x0060, r24
    765a:	e6 ef       	ldi	r30, 0xF6	; 246
    765c:	fb e1       	ldi	r31, 0x1B	; 27
			while(i<WAVDATALENGTH3) {
				rd = pgm_read_byte(&(wavdata3[i]));
    765e:	84 91       	lpm	r24, Z
    7660:	28 2f       	mov	r18, r24
    7662:	33 27       	eor	r19, r19
    7664:	31 96       	adiw	r30, 0x01	; 1
    milliseconds can be achieved.
 */
void
_delay_loop_2(uint16_t __count)
{
    7666:	8c e3       	ldi	r24, 0x3C	; 60
    7668:	90 e0       	ldi	r25, 0x00	; 0
	__asm__ volatile (
    766a:	01 97       	sbiw	r24, 0x01	; 1
    766c:	f1 f7       	brne	.-4      	; 0x766a <__vector_1+0x96>
				i=i+1;
				_delay_loop_2(LOOPDELAY);
				PORTA=rd;
    766e:	2b bb       	out	0x1b, r18	; 27
    7670:	8b e3       	ldi	r24, 0x3B	; 59
    7672:	e9 33       	cpi	r30, 0x39	; 57
    7674:	f8 07       	cpc	r31, r24
    7676:	99 f3       	breq	.-26     	; 0x765e <__vector_1+0x8a>
    7678:	94 f3       	brlt	.-28     	; 0x765e <__vector_1+0x8a>
    767a:	14 c0       	rjmp	.+40     	; 0x76a4 <__vector_1+0xd0>
			}
		}
		else if (alertlevel == 3)   //asif get out!!!
    767c:	80 91 60 00 	lds	r24, 0x0060
    7680:	83 30       	cpi	r24, 0x03	; 3
    7682:	81 f4       	brne	.+32     	; 0x76a4 <__vector_1+0xd0>
    7684:	e4 e5       	ldi	r30, 0x54	; 84
    7686:	f0 e0       	ldi	r31, 0x00	; 0
		{
			//keep alert level 3 unless system is relaxed
			while(i<WAVDATALENGTH4) {
				rd = pgm_read_byte(&(wavdata4[i]));
    7688:	84 91       	lpm	r24, Z
    768a:	28 2f       	mov	r18, r24
    768c:	33 27       	eor	r19, r19
    768e:	31 96       	adiw	r30, 0x01	; 1
    milliseconds can be achieved.
 */
void
_delay_loop_2(uint16_t __count)
{
    7690:	8c e3       	ldi	r24, 0x3C	; 60
    7692:	90 e0       	ldi	r25, 0x00	; 0
	__asm__ volatile (
    7694:	01 97       	sbiw	r24, 0x01	; 1
    7696:	f1 f7       	brne	.-4      	; 0x7694 <__vector_1+0xc0>
				i=i+1;
				_delay_loop_2(LOOPDELAY);
				PORTA=rd;
    7698:	2b bb       	out	0x1b, r18	; 27
    769a:	8b e1       	ldi	r24, 0x1B	; 27
    769c:	e5 3f       	cpi	r30, 0xF5	; 245
    769e:	f8 07       	cpc	r31, r24
    76a0:	99 f3       	breq	.-26     	; 0x7688 <__vector_1+0xb4>
    76a2:	94 f3       	brlt	.-28     	; 0x7688 <__vector_1+0xb4>
			}
		}
		PORTC= 0xFF;
    76a4:	8f ef       	ldi	r24, 0xFF	; 255
    76a6:	85 bb       	out	0x15, r24	; 21
		
		GIFR &= ~(1<<INTF1); //disable debouncing
    76a8:	8a b7       	in	r24, 0x3a	; 58
    76aa:	8f 77       	andi	r24, 0x7F	; 127
    76ac:	8a bf       	out	0x3a, r24	; 58
		TIFR = 0; //disable any pending timer interrupts
    76ae:	18 be       	out	0x38, r1	; 56
		
		TCNT1 = 0; //reset count of timer
    76b0:	1d bc       	out	0x2d, r1	; 45
    76b2:	1c bc       	out	0x2c, r1	; 44
		TIMSK |= (1<<OCIE1A); //enable output capture interrupt
    76b4:	89 b7       	in	r24, 0x39	; 57
    76b6:	80 61       	ori	r24, 0x10	; 16
    76b8:	89 bf       	out	0x39, r24	; 57
    76ba:	ff 91       	pop	r31
    76bc:	ef 91       	pop	r30
    76be:	9f 91       	pop	r25
    76c0:	8f 91       	pop	r24
    76c2:	3f 91       	pop	r19
    76c4:	2f 91       	pop	r18
    76c6:	0f 90       	pop	r0
    76c8:	0f be       	out	0x3f, r0	; 63
    76ca:	0f 90       	pop	r0
    76cc:	1f 90       	pop	r1
    76ce:	18 95       	reti

000076d0 <main>:

}

int main (void) {
    76d0:	cf e5       	ldi	r28, 0x5F	; 95
    76d2:	d8 e0       	ldi	r29, 0x08	; 8
    76d4:	de bf       	out	0x3e, r29	; 62
    76d6:	cd bf       	out	0x3d, r28	; 61
	DDRA = 0xFF;
    76d8:	8f ef       	ldi	r24, 0xFF	; 255
    76da:	8a bb       	out	0x1a, r24	; 26
	DDRC = 0xFF;
    76dc:	84 bb       	out	0x14, r24	; 20
	PORTC = 0xFF;
    76de:	85 bb       	out	0x15, r24	; 21
	
	//INT 0
	MCUCR |= (1<<ISC01) | (1<<ISC00); // INT0 to rising edge
    76e0:	85 b7       	in	r24, 0x35	; 53
    76e2:	83 60       	ori	r24, 0x03	; 3
    76e4:	85 bf       	out	0x35, r24	; 53
	GICR |= (1<<INT0);
    76e6:	8b b7       	in	r24, 0x3b	; 59
    76e8:	80 64       	ori	r24, 0x40	; 64
    76ea:	8b bf       	out	0x3b, r24	; 59
	

	//timer interrupts
	TCCR1A = 0x00; 
    76ec:	1f bc       	out	0x2f, r1	; 47
    TCCR1B= 0x00; //mode 0
    76ee:	1e bc       	out	0x2e, r1	; 46
	
	TCCR1B&= ~(1<<CS11); 			 //clock select clk /1024. 
    76f0:	8e b5       	in	r24, 0x2e	; 46
    76f2:	8d 7f       	andi	r24, 0xFD	; 253
    76f4:	8e bd       	out	0x2e, r24	; 46
	TCCR1B|= ((1<<CS12)|(1<<CS10)); //so 1000 counts = 1sec at 1MHz, 4000 counts = 4secs
    76f6:	8e b5       	in	r24, 0x2e	; 46
    76f8:	85 60       	ori	r24, 0x05	; 5
    76fa:	8e bd       	out	0x2e, r24	; 46
	OCR1A = 0x0FA0; //4000
    76fc:	80 ea       	ldi	r24, 0xA0	; 160
    76fe:	9f e0       	ldi	r25, 0x0F	; 15
    7700:	9b bd       	out	0x2b, r25	; 43
    7702:	8a bd       	out	0x2a, r24	; 42
	
	TIMSK &= ~(1<<OCIE1A); //output capture interrupt enable
    7704:	89 b7       	in	r24, 0x39	; 57
    7706:	8f 7e       	andi	r24, 0xEF	; 239
    7708:	89 bf       	out	0x39, r24	; 57
	
	
	set_sleep_mode(SLEEP_MODE_IDLE);
    770a:	85 b7       	in	r24, 0x35	; 53
    770c:	8f 78       	andi	r24, 0x8F	; 143
    770e:	85 bf       	out	0x35, r24	; 53
	sei(); //Set Interrupt Enable*/
    7710:	78 94       	sei
	
	while(1) {
		sleep_mode();
    7712:	85 b7       	in	r24, 0x35	; 53
    7714:	80 68       	ori	r24, 0x80	; 128
    7716:	85 bf       	out	0x35, r24	; 53
    7718:	88 95       	sleep
    771a:	85 b7       	in	r24, 0x35	; 53
    771c:	8f 77       	andi	r24, 0x7F	; 127
    771e:	85 bf       	out	0x35, r24	; 53
    7720:	f8 cf       	rjmp	.-16     	; 0x7712 <main+0x42>
