ASxxxx Linker V03.00 + NoICE + sdld,  page 1.
Hexadecimal  [32-Bits]

Area                                    Addr        Size        Decimal Bytes (Attributes)
--------------------------------        ----        ----        ------- ----- ------------
.  .ABS.                            00000000    00000000 =           0. bytes (ABS,CON)

      Value  Global                              Global Defined In Module
      -----  --------------------------------   ------------------------
     00000000  .__.ABS.                           
     00000000  l__BSS                          
     00000000  l__CABS                         
     00000000  l__DABS                         
     00000000  l__GSINIT                       
     00000000  l__HEADER                       
     00000000  l__HEAP                         
     00000000  l__HOME                         
     00000000  s__CABS                         
     00000000  s__DABS                         
     00000000  s__HEADER                       
     00000000  s__HEADER0                      
     00000000  s__HEADER1                      
     00000001  l__GSFINAL                      
     00000003  l__HEADER0                      
     00000009  l__HEADER1                      
     0000001A  s__CODE                         
     00000029  l__DATA                         
     00000362  l__CODE                         
     0000037C  s__DATA                         
     000003A5  s__GSFINAL                      
     000003A5  s__GSINIT                       
     000003A5  s__HOME                         
     000003A6  s__BSS                          
     000003A6  s__HEAP                         

ASxxxx Linker V03.00 + NoICE + sdld,  page 2.
Hexadecimal  [32-Bits]

Area                                    Addr        Size        Decimal Bytes (Attributes)
--------------------------------        ----        ----        ------- ----- ------------
_CODE                               0000001A    00000362 =         866. bytes (REL,CON)

      Value  Global                              Global Defined In Module
      -----  --------------------------------   ------------------------
     0000001A  _CX80PrintString                   type
     0000001A  _CX80PrintString_start             type
     00000042  _CX80PrintString_end               type
     00000042  _GetLine                           type
     00000042  _GetLine_start                     type
     0000007A  _GetLine_end                       type
     0000007A  _OpenFile                          type
     0000007A  _OpenFile_start                    type
     000000BC  _GetString                         type
     000000BC  _GetString_start                   type
     000000BC  _OpenFile_end                      type
     0000011F  _CloseFile                         type
     0000011F  _CloseFile_start                   type
     0000011F  _GetString_end                     type
     00000137  _CloseFile_end                     type
     00000137  _MoveCursor                        type
     00000137  _MoveCursor_start                  type
     0000015B  _GetCh                             type
     0000015B  _GetCh_start                       type
     0000015B  _MoveCursor_end                    type
     00000169  _GetCh_end                         type
     00000169  _main                              type
     00000169  _main_start                        type
     00000285  _main_end                          type
     0000031F  __clock                            crt0
     00000320  _exit                              crt0
     0000032F  _strchr                            _strchr
     0000032F  _strchr_start                      _strchr
     0000036D  _strchr_end                        _strchr
     0000036D  _strlen                            
ASxxxx Linker V03.00 + NoICE + sdld,  page 3.
Hexadecimal  [32-Bits]

Area                                    Addr        Size        Decimal Bytes (Attributes)
--------------------------------        ----        ----        ------- ----- ------------
_DATA                               0000037C    00000029 =          41. bytes (REL,CON)

      Value  Global                              Global Defined In Module
      -----  --------------------------------   ------------------------
     0000037C  _CX80_System_FNC_EntryPoint        type
     0000037E  _ReadLine                          type
     000003A4  _FileID                            type
ASxxxx Linker V03.00 + NoICE + sdld,  page 4.
Hexadecimal  [32-Bits]

Area                                    Addr        Size        Decimal Bytes (Attributes)
--------------------------------        ----        ----        ------- ----- ------------
_GSINIT                             000003A5    00000000 =           0. bytes (REL,CON)

      Value  Global                              Global Defined In Module
      -----  --------------------------------   ------------------------
     000003A5  gsinit                             crt0

ASxxxx Linker V03.00 + NoICE + sdld,  page 5.
Hexadecimal  [32-Bits]

Area                                    Addr        Size        Decimal Bytes (Attributes)
--------------------------------        ----        ----        ------- ----- ------------
_GSFINAL                            000003A5    00000001 =           1. bytes (REL,CON)

      Value  Global                              Global Defined In Module
      -----  --------------------------------   ------------------------
ASxxxx Linker V03.00 + NoICE + sdld,  page 6.
Hexadecimal  [32-Bits]

Area                                    Addr        Size        Decimal Bytes (Attributes)
--------------------------------        ----        ----        ------- ----- ------------
_HEADER0                            00000000    00000003 =           3. bytes (ABS,CON)

      Value  Global                              Global Defined In Module
      -----  --------------------------------   ------------------------
ASxxxx Linker V03.00 + NoICE + sdld,  page 7.
Hexadecimal  [32-Bits]

Area                                    Addr        Size        Decimal Bytes (Attributes)
--------------------------------        ----        ----        ------- ----- ------------
_HEADER1                            00000000    00000009 =           9. bytes (ABS,CON)

      Value  Global                              Global Defined In Module
      -----  --------------------------------   ------------------------
ASxxxx Linker V03.00 + NoICE + sdld,  page 8.

Files Linked                              [ module(s) ]

type.rel                                  [ type ]
crt0.rel                                  [ crt0 ]


Libraries Linked                          [ object file ]

C:\Program Files (x86)\SDCC\bin\..\lib\z80/z80.lib
                                          [ _strchr.rel ]
C:\Program Files (x86)\SDCC\bin\..\lib\z80/z80.lib
                                          [ strlen.rel ]

ASxxxx Linker V03.00 + NoICE + sdld,  page 9.

User Base Address Definitions

_CODE = 0x001a
_DATA = 0x0000

