
sterownik_oswietlenia.elf:     file format elf32-avr

Sections:
Idx Name          Size      VMA       LMA       File off  Algn
  0 .text         000007b0  00000000  00000000  00000094  2**1
                  CONTENTS, ALLOC, LOAD, READONLY, CODE
  1 .data         00000002  00800060  000007b0  00000844  2**0
                  CONTENTS, ALLOC, LOAD, DATA
  2 .bss          0000001e  00800062  00800062  00000846  2**0
                  ALLOC

Disassembly of section .text:

00000000 <__vectors>:
   0:	12 c0       	rjmp	.+36     	; 0x26 <__ctors_end>
   2:	7b c3       	rjmp	.+1782   	; 0x6fa <__vector_1>
   4:	2b c0       	rjmp	.+86     	; 0x5c <__bad_interrupt>
   6:	02 c1       	rjmp	.+516    	; 0x20c <__vector_3>
   8:	29 c0       	rjmp	.+82     	; 0x5c <__bad_interrupt>
   a:	39 c0       	rjmp	.+114    	; 0x7e <__vector_5>
   c:	27 c0       	rjmp	.+78     	; 0x5c <__bad_interrupt>
   e:	26 c0       	rjmp	.+76     	; 0x5c <__bad_interrupt>
  10:	25 c0       	rjmp	.+74     	; 0x5c <__bad_interrupt>
  12:	89 c3       	rjmp	.+1810   	; 0x726 <__vector_9>
  14:	23 c0       	rjmp	.+70     	; 0x5c <__bad_interrupt>
  16:	22 c0       	rjmp	.+68     	; 0x5c <__bad_interrupt>
  18:	21 c0       	rjmp	.+66     	; 0x5c <__bad_interrupt>
  1a:	20 c0       	rjmp	.+64     	; 0x5c <__bad_interrupt>
  1c:	e3 c0       	rjmp	.+454    	; 0x1e4 <__vector_14>
  1e:	1e c0       	rjmp	.+60     	; 0x5c <__bad_interrupt>
  20:	1d c0       	rjmp	.+58     	; 0x5c <__bad_interrupt>
  22:	1c c0       	rjmp	.+56     	; 0x5c <__bad_interrupt>
  24:	1b c0       	rjmp	.+54     	; 0x5c <__bad_interrupt>

00000026 <__ctors_end>:
  26:	11 24       	eor	r1, r1
  28:	1f be       	out	0x3f, r1	; 63
  2a:	cf e5       	ldi	r28, 0x5F	; 95
  2c:	d4 e0       	ldi	r29, 0x04	; 4
  2e:	de bf       	out	0x3e, r29	; 62
  30:	cd bf       	out	0x3d, r28	; 61

00000032 <__do_copy_data>:
  32:	10 e0       	ldi	r17, 0x00	; 0
  34:	a0 e6       	ldi	r26, 0x60	; 96
  36:	b0 e0       	ldi	r27, 0x00	; 0
  38:	e0 eb       	ldi	r30, 0xB0	; 176
  3a:	f7 e0       	ldi	r31, 0x07	; 7
  3c:	02 c0       	rjmp	.+4      	; 0x42 <.do_copy_data_start>

0000003e <.do_copy_data_loop>:
  3e:	05 90       	lpm	r0, Z+
  40:	0d 92       	st	X+, r0

00000042 <.do_copy_data_start>:
  42:	a2 36       	cpi	r26, 0x62	; 98
  44:	b1 07       	cpc	r27, r17
  46:	d9 f7       	brne	.-10     	; 0x3e <.do_copy_data_loop>

00000048 <__do_clear_bss>:
  48:	10 e0       	ldi	r17, 0x00	; 0
  4a:	a2 e6       	ldi	r26, 0x62	; 98
  4c:	b0 e0       	ldi	r27, 0x00	; 0
  4e:	01 c0       	rjmp	.+2      	; 0x52 <.do_clear_bss_start>

00000050 <.do_clear_bss_loop>:
  50:	1d 92       	st	X+, r1

00000052 <.do_clear_bss_start>:
  52:	a0 38       	cpi	r26, 0x80	; 128
  54:	b1 07       	cpc	r27, r17
  56:	e1 f7       	brne	.-8      	; 0x50 <.do_clear_bss_loop>
  58:	40 d1       	rcall	.+640    	; 0x2da <main>
  5a:	a8 c3       	rjmp	.+1872   	; 0x7ac <_exit>

0000005c <__bad_interrupt>:
  5c:	d1 cf       	rjmp	.-94     	; 0x0 <__vectors>

0000005e <init_IR>:
  5e:	b8 98       	cbi	0x17, 0	; 23
  60:	c0 9a       	sbi	0x18, 0	; 24
  62:	8e b5       	in	r24, 0x2e	; 46
  64:	82 60       	ori	r24, 0x02	; 2
  66:	8e bd       	out	0x2e, r24	; 46
  68:	8e b5       	in	r24, 0x2e	; 46
  6a:	8f 7b       	andi	r24, 0xBF	; 191
  6c:	8e bd       	out	0x2e, r24	; 46
  6e:	89 b7       	in	r24, 0x39	; 57
  70:	80 62       	ori	r24, 0x20	; 32
  72:	89 bf       	out	0x39, r24	; 57
  74:	10 92 72 00 	sts	0x0072, r1
  78:	10 92 71 00 	sts	0x0071, r1
  7c:	08 95       	ret

0000007e <__vector_5>:
  7e:	1f 92       	push	r1
  80:	0f 92       	push	r0
  82:	0f b6       	in	r0, 0x3f	; 63
  84:	0f 92       	push	r0
  86:	11 24       	eor	r1, r1
  88:	2f 93       	push	r18
  8a:	3f 93       	push	r19
  8c:	4f 93       	push	r20
  8e:	8f 93       	push	r24
  90:	9f 93       	push	r25
  92:	26 b5       	in	r18, 0x26	; 38
  94:	37 b5       	in	r19, 0x27	; 39
  96:	80 91 65 00 	lds	r24, 0x0065
  9a:	90 91 66 00 	lds	r25, 0x0066
  9e:	28 1b       	sub	r18, r24
  a0:	39 0b       	sbc	r19, r25
  a2:	86 b5       	in	r24, 0x26	; 38
  a4:	97 b5       	in	r25, 0x27	; 39
  a6:	90 93 66 00 	sts	0x0066, r25
  aa:	80 93 65 00 	sts	0x0065, r24
  ae:	42 ec       	ldi	r20, 0xC2	; 194
  b0:	20 36       	cpi	r18, 0x60	; 96
  b2:	34 07       	cpc	r19, r20
  b4:	20 f4       	brcc	.+8      	; 0xbe <__vector_5+0x40>
  b6:	81 e1       	ldi	r24, 0x11	; 17
  b8:	22 35       	cpi	r18, 0x52	; 82
  ba:	38 07       	cpc	r19, r24
  bc:	10 f4       	brcc	.+4      	; 0xc2 <__vector_5+0x44>
  be:	10 92 62 00 	sts	0x0062, r1
  c2:	80 91 62 00 	lds	r24, 0x0062
  c6:	88 23       	and	r24, r24
  c8:	11 f4       	brne	.+4      	; 0xce <__vector_5+0x50>
  ca:	10 92 72 00 	sts	0x0072, r1
  ce:	80 91 72 00 	lds	r24, 0x0072
  d2:	88 23       	and	r24, r24
  d4:	59 f4       	brne	.+22     	; 0xec <__vector_5+0x6e>
  d6:	10 92 71 00 	sts	0x0071, r1
  da:	10 92 64 00 	sts	0x0064, r1
  de:	10 92 63 00 	sts	0x0063, r1
  e2:	80 91 72 00 	lds	r24, 0x0072
  e6:	8f 5f       	subi	r24, 0xFF	; 255
  e8:	80 93 72 00 	sts	0x0072, r24
  ec:	80 91 72 00 	lds	r24, 0x0072
  f0:	88 23       	and	r24, r24
  f2:	19 f0       	breq	.+6      	; 0xfa <__vector_5+0x7c>
  f4:	81 e0       	ldi	r24, 0x01	; 1
  f6:	80 93 62 00 	sts	0x0062, r24
  fa:	80 91 62 00 	lds	r24, 0x0062
  fe:	81 30       	cpi	r24, 0x01	; 1
 100:	09 f0       	breq	.+2      	; 0x104 <__vector_5+0x86>
 102:	4f c0       	rjmp	.+158    	; 0x1a2 <__vector_5+0x124>
 104:	41 e1       	ldi	r20, 0x11	; 17
 106:	22 35       	cpi	r18, 0x52	; 82
 108:	34 07       	cpc	r19, r20
 10a:	20 f0       	brcs	.+8      	; 0x114 <__vector_5+0x96>
 10c:	8e e1       	ldi	r24, 0x1E	; 30
 10e:	2d 35       	cpi	r18, 0x5D	; 93
 110:	38 07       	cpc	r19, r24
 112:	18 f0       	brcs	.+6      	; 0x11a <__vector_5+0x9c>
 114:	10 92 62 00 	sts	0x0062, r1
 118:	25 c0       	rjmp	.+74     	; 0x164 <__vector_5+0xe6>
 11a:	c9 01       	movw	r24, r18
 11c:	82 55       	subi	r24, 0x52	; 82
 11e:	91 41       	sbci	r25, 0x11	; 17
 120:	81 52       	subi	r24, 0x21	; 33
 122:	93 40       	sbci	r25, 0x03	; 3
 124:	18 f4       	brcc	.+6      	; 0x12c <__vector_5+0xae>
 126:	80 91 72 00 	lds	r24, 0x0072
 12a:	1c c0       	rjmp	.+56     	; 0x164 <__vector_5+0xe6>
 12c:	2c 53       	subi	r18, 0x3C	; 60
 12e:	3b 41       	sbci	r19, 0x1B	; 27
 130:	21 52       	subi	r18, 0x21	; 33
 132:	33 40       	sbci	r19, 0x03	; 3
 134:	b8 f4       	brcc	.+46     	; 0x164 <__vector_5+0xe6>
 136:	20 91 72 00 	lds	r18, 0x0072
 13a:	8b e0       	ldi	r24, 0x0B	; 11
 13c:	90 e0       	ldi	r25, 0x00	; 0
 13e:	82 1b       	sub	r24, r18
 140:	91 09       	sbc	r25, r1
 142:	21 e0       	ldi	r18, 0x01	; 1
 144:	30 e0       	ldi	r19, 0x00	; 0
 146:	02 c0       	rjmp	.+4      	; 0x14c <__vector_5+0xce>
 148:	22 0f       	add	r18, r18
 14a:	33 1f       	adc	r19, r19
 14c:	8a 95       	dec	r24
 14e:	e2 f7       	brpl	.-8      	; 0x148 <__vector_5+0xca>
 150:	80 91 63 00 	lds	r24, 0x0063
 154:	90 91 64 00 	lds	r25, 0x0064
 158:	82 2b       	or	r24, r18
 15a:	93 2b       	or	r25, r19
 15c:	90 93 64 00 	sts	0x0064, r25
 160:	80 93 63 00 	sts	0x0063, r24
 164:	80 91 72 00 	lds	r24, 0x0072
 168:	8c 30       	cpi	r24, 0x0C	; 12
 16a:	b0 f0       	brcs	.+44     	; 0x198 <__vector_5+0x11a>
 16c:	80 91 71 00 	lds	r24, 0x0071
 170:	88 23       	and	r24, r24
 172:	91 f4       	brne	.+36     	; 0x198 <__vector_5+0x11a>
 174:	80 91 63 00 	lds	r24, 0x0063
 178:	90 91 64 00 	lds	r25, 0x0064
 17c:	9d 7f       	andi	r25, 0xFD	; 253
 17e:	90 93 64 00 	sts	0x0064, r25
 182:	80 93 63 00 	sts	0x0063, r24
 186:	90 93 74 00 	sts	0x0074, r25
 18a:	80 93 73 00 	sts	0x0073, r24
 18e:	81 e0       	ldi	r24, 0x01	; 1
 190:	80 93 71 00 	sts	0x0071, r24
 194:	10 92 62 00 	sts	0x0062, r1
 198:	80 91 72 00 	lds	r24, 0x0072
 19c:	8f 5f       	subi	r24, 0xFF	; 255
 19e:	80 93 72 00 	sts	0x0072, r24
 1a2:	9f 91       	pop	r25
 1a4:	8f 91       	pop	r24
 1a6:	4f 91       	pop	r20
 1a8:	3f 91       	pop	r19
 1aa:	2f 91       	pop	r18
 1ac:	0f 90       	pop	r0
 1ae:	0f be       	out	0x3f, r0	; 63
 1b0:	0f 90       	pop	r0
 1b2:	1f 90       	pop	r1
 1b4:	18 95       	reti

000001b6 <init_ADC>:
 1b6:	87 b1       	in	r24, 0x07	; 7
 1b8:	85 6c       	ori	r24, 0xC5	; 197
 1ba:	87 b9       	out	0x07, r24	; 7
 1bc:	86 b1       	in	r24, 0x06	; 6
 1be:	86 68       	ori	r24, 0x86	; 134
 1c0:	86 b9       	out	0x06, r24	; 6
 1c2:	86 b1       	in	r24, 0x06	; 6
 1c4:	88 62       	ori	r24, 0x28	; 40
 1c6:	86 b9       	out	0x06, r24	; 6
 1c8:	36 9a       	sbi	0x06, 6	; 6
 1ca:	08 95       	ret

000001cc <init_TIMER2>:
 1cc:	85 b5       	in	r24, 0x25	; 37
 1ce:	87 60       	ori	r24, 0x07	; 7
 1d0:	85 bd       	out	0x25, r24	; 37
 1d2:	85 b5       	in	r24, 0x25	; 37
 1d4:	88 60       	ori	r24, 0x08	; 8
 1d6:	85 bd       	out	0x25, r24	; 37
 1d8:	89 b7       	in	r24, 0x39	; 57
 1da:	80 68       	ori	r24, 0x80	; 128
 1dc:	89 bf       	out	0x39, r24	; 57
 1de:	8e e2       	ldi	r24, 0x2E	; 46
 1e0:	83 bd       	out	0x23, r24	; 35
 1e2:	08 95       	ret

000001e4 <__vector_14>:
 1e4:	1f 92       	push	r1
 1e6:	0f 92       	push	r0
 1e8:	0f b6       	in	r0, 0x3f	; 63
 1ea:	0f 92       	push	r0
 1ec:	11 24       	eor	r1, r1
 1ee:	8f 93       	push	r24
 1f0:	9f 93       	push	r25
 1f2:	84 b1       	in	r24, 0x04	; 4
 1f4:	95 b1       	in	r25, 0x05	; 5
 1f6:	90 93 7b 00 	sts	0x007B, r25
 1fa:	80 93 7a 00 	sts	0x007A, r24
 1fe:	9f 91       	pop	r25
 200:	8f 91       	pop	r24
 202:	0f 90       	pop	r0
 204:	0f be       	out	0x3f, r0	; 63
 206:	0f 90       	pop	r0
 208:	1f 90       	pop	r1
 20a:	18 95       	reti

0000020c <__vector_3>:
 20c:	1f 92       	push	r1
 20e:	0f 92       	push	r0
 210:	0f b6       	in	r0, 0x3f	; 63
 212:	0f 92       	push	r0
 214:	11 24       	eor	r1, r1
 216:	2f 93       	push	r18
 218:	8f 93       	push	r24
 21a:	9f 93       	push	r25
 21c:	80 91 7d 00 	lds	r24, 0x007D
 220:	88 23       	and	r24, r24
 222:	19 f0       	breq	.+6      	; 0x22a <__vector_3+0x1e>
 224:	81 50       	subi	r24, 0x01	; 1
 226:	80 93 7d 00 	sts	0x007D, r24
 22a:	80 91 78 00 	lds	r24, 0x0078
 22e:	88 23       	and	r24, r24
 230:	19 f0       	breq	.+6      	; 0x238 <__vector_3+0x2c>
 232:	81 50       	subi	r24, 0x01	; 1
 234:	80 93 78 00 	sts	0x0078, r24
 238:	80 91 75 00 	lds	r24, 0x0075
 23c:	88 23       	and	r24, r24
 23e:	19 f0       	breq	.+6      	; 0x246 <__vector_3+0x3a>
 240:	81 50       	subi	r24, 0x01	; 1
 242:	80 93 75 00 	sts	0x0075, r24
 246:	80 91 77 00 	lds	r24, 0x0077
 24a:	88 23       	and	r24, r24
 24c:	19 f0       	breq	.+6      	; 0x254 <__vector_3+0x48>
 24e:	81 50       	subi	r24, 0x01	; 1
 250:	80 93 77 00 	sts	0x0077, r24
 254:	80 91 7c 00 	lds	r24, 0x007C
 258:	88 23       	and	r24, r24
 25a:	19 f0       	breq	.+6      	; 0x262 <__vector_3+0x56>
 25c:	81 50       	subi	r24, 0x01	; 1
 25e:	80 93 7c 00 	sts	0x007C, r24
 262:	80 91 76 00 	lds	r24, 0x0076
 266:	88 23       	and	r24, r24
 268:	11 f5       	brne	.+68     	; 0x2ae <__vector_3+0xa2>
 26a:	80 91 68 00 	lds	r24, 0x0068
 26e:	90 91 69 00 	lds	r25, 0x0069
 272:	01 96       	adiw	r24, 0x01	; 1
 274:	90 93 69 00 	sts	0x0069, r25
 278:	80 93 68 00 	sts	0x0068, r24
 27c:	80 57       	subi	r24, 0x70	; 112
 27e:	97 41       	sbci	r25, 0x17	; 23
 280:	49 f4       	brne	.+18     	; 0x294 <__vector_3+0x88>
 282:	80 91 67 00 	lds	r24, 0x0067
 286:	8f 5f       	subi	r24, 0xFF	; 255
 288:	80 93 67 00 	sts	0x0067, r24
 28c:	10 92 69 00 	sts	0x0069, r1
 290:	10 92 68 00 	sts	0x0068, r1
 294:	80 91 67 00 	lds	r24, 0x0067
 298:	88 37       	cpi	r24, 0x78	; 120
 29a:	49 f4       	brne	.+18     	; 0x2ae <__vector_3+0xa2>
 29c:	81 e0       	ldi	r24, 0x01	; 1
 29e:	80 93 79 00 	sts	0x0079, r24
 2a2:	10 92 67 00 	sts	0x0067, r1
 2a6:	10 92 69 00 	sts	0x0069, r1
 2aa:	10 92 68 00 	sts	0x0068, r1
 2ae:	80 91 76 00 	lds	r24, 0x0076
 2b2:	88 23       	and	r24, r24
 2b4:	51 f0       	breq	.+20     	; 0x2ca <__vector_3+0xbe>
 2b6:	10 92 67 00 	sts	0x0067, r1
 2ba:	10 92 69 00 	sts	0x0069, r1
 2be:	10 92 68 00 	sts	0x0068, r1
 2c2:	10 92 79 00 	sts	0x0079, r1
 2c6:	10 92 76 00 	sts	0x0076, r1
 2ca:	9f 91       	pop	r25
 2cc:	8f 91       	pop	r24
 2ce:	2f 91       	pop	r18
 2d0:	0f 90       	pop	r0
 2d2:	0f be       	out	0x3f, r0	; 63
 2d4:	0f 90       	pop	r0
 2d6:	1f 90       	pop	r1
 2d8:	18 95       	reti

000002da <main>:
 2da:	bf 92       	push	r11
 2dc:	cf 92       	push	r12
 2de:	df 92       	push	r13
 2e0:	ef 92       	push	r14
 2e2:	ff 92       	push	r15
 2e4:	0f 93       	push	r16
 2e6:	1f 93       	push	r17
 2e8:	a0 9a       	sbi	0x14, 0	; 20
 2ea:	65 df       	rcall	.-310    	; 0x1b6 <init_ADC>
 2ec:	fc d1       	rcall	.+1016   	; 0x6e6 <init_interruptINT0>
 2ee:	b7 de       	rcall	.-658    	; 0x5e <init_IR>
 2f0:	fe d1       	rcall	.+1020   	; 0x6ee <init_TIMER0>
 2f2:	6c df       	rcall	.-296    	; 0x1cc <init_TIMER2>
 2f4:	a8 98       	cbi	0x15, 0	; 21
 2f6:	84 b3       	in	r24, 0x14	; 20
 2f8:	81 7f       	andi	r24, 0xF1	; 241
 2fa:	84 bb       	out	0x14, r24	; 20
 2fc:	85 b3       	in	r24, 0x15	; 21
 2fe:	8e 60       	ori	r24, 0x0E	; 14
 300:	85 bb       	out	0x15, r24	; 21
 302:	87 b3       	in	r24, 0x17	; 23
 304:	8e 60       	ori	r24, 0x0E	; 14
 306:	87 bb       	out	0x17, r24	; 23
 308:	78 94       	sei
 30a:	47 9a       	sbi	0x08, 7	; 8
 30c:	ff 24       	eor	r15, r15
 30e:	f3 94       	inc	r15
 310:	33 e0       	ldi	r19, 0x03	; 3
 312:	e3 2e       	mov	r14, r19
 314:	14 e6       	ldi	r17, 0x64	; 100
 316:	28 ec       	ldi	r18, 0xC8	; 200
 318:	c2 2e       	mov	r12, r18
 31a:	9a ef       	ldi	r25, 0xFA	; 250
 31c:	b9 2e       	mov	r11, r25
 31e:	8a e0       	ldi	r24, 0x0A	; 10
 320:	d8 2e       	mov	r13, r24
 322:	02 e0       	ldi	r16, 0x02	; 2
 324:	80 91 6a 00 	lds	r24, 0x006A
 328:	88 23       	and	r24, r24
 32a:	19 f0       	breq	.+6      	; 0x332 <main+0x58>
 32c:	81 30       	cpi	r24, 0x01	; 1
 32e:	e1 f7       	brne	.-8      	; 0x328 <main+0x4e>
 330:	b0 c0       	rjmp	.+352    	; 0x492 <__stack+0x33>
 332:	80 91 6d 00 	lds	r24, 0x006D
 336:	82 30       	cpi	r24, 0x02	; 2
 338:	21 f0       	breq	.+8      	; 0x342 <main+0x68>
 33a:	80 91 70 00 	lds	r24, 0x0070
 33e:	82 30       	cpi	r24, 0x02	; 2
 340:	31 f4       	brne	.+12     	; 0x34e <main+0x74>
 342:	10 93 7d 00 	sts	0x007D, r17
 346:	80 91 7d 00 	lds	r24, 0x007D
 34a:	88 23       	and	r24, r24
 34c:	e1 f7       	brne	.-8      	; 0x346 <main+0x6c>
 34e:	f0 92 76 00 	sts	0x0076, r15
 352:	88 b3       	in	r24, 0x18	; 24
 354:	89 7f       	andi	r24, 0xF9	; 249
 356:	88 bb       	out	0x18, r24	; 24
 358:	10 92 6d 00 	sts	0x006D, r1
 35c:	e0 92 70 00 	sts	0x0070, r14
 360:	10 93 60 00 	sts	0x0060, r17
 364:	80 e0       	ldi	r24, 0x00	; 0
 366:	b6 d1       	rcall	.+876    	; 0x6d4 <procent>
 368:	80 93 7f 00 	sts	0x007F, r24
 36c:	89 b7       	in	r24, 0x39	; 57
 36e:	80 62       	ori	r24, 0x20	; 32
 370:	89 bf       	out	0x39, r24	; 57
 372:	9b 99       	sbic	0x13, 3	; 19
 374:	1b c0       	rjmp	.+54     	; 0x3ac <main+0xd2>
 376:	80 91 70 00 	lds	r24, 0x0070
 37a:	83 30       	cpi	r24, 0x03	; 3
 37c:	b9 f4       	brne	.+46     	; 0x3ac <main+0xd2>
 37e:	80 91 7a 00 	lds	r24, 0x007A
 382:	90 91 7b 00 	lds	r25, 0x007B
 386:	85 58       	subi	r24, 0x85	; 133
 388:	93 40       	sbci	r25, 0x03	; 3
 38a:	80 f4       	brcc	.+32     	; 0x3ac <main+0xd2>
 38c:	9b 99       	sbic	0x13, 3	; 19
 38e:	0b c0       	rjmp	.+22     	; 0x3a6 <main+0xcc>
 390:	b0 92 7d 00 	sts	0x007D, r11
 394:	80 91 7d 00 	lds	r24, 0x007D
 398:	88 23       	and	r24, r24
 39a:	e1 f7       	brne	.-8      	; 0x394 <main+0xba>
 39c:	9b 99       	sbic	0x13, 3	; 19
 39e:	21 c0       	rjmp	.+66     	; 0x3e2 <main+0x108>
 3a0:	f0 92 70 00 	sts	0x0070, r15
 3a4:	1e c0       	rjmp	.+60     	; 0x3e2 <main+0x108>
 3a6:	10 92 70 00 	sts	0x0070, r1
 3aa:	1b c0       	rjmp	.+54     	; 0x3e2 <main+0x108>
 3ac:	9b 99       	sbic	0x13, 3	; 19
 3ae:	19 c0       	rjmp	.+50     	; 0x3e2 <main+0x108>
 3b0:	80 91 70 00 	lds	r24, 0x0070
 3b4:	83 30       	cpi	r24, 0x03	; 3
 3b6:	a9 f4       	brne	.+42     	; 0x3e2 <main+0x108>
 3b8:	80 91 7a 00 	lds	r24, 0x007A
 3bc:	90 91 7b 00 	lds	r25, 0x007B
 3c0:	85 58       	subi	r24, 0x85	; 133
 3c2:	93 40       	sbci	r25, 0x03	; 3
 3c4:	70 f0       	brcs	.+28     	; 0x3e2 <main+0x108>
 3c6:	c2 9a       	sbi	0x18, 2	; 24
 3c8:	10 93 7d 00 	sts	0x007D, r17
 3cc:	80 91 7d 00 	lds	r24, 0x007D
 3d0:	88 23       	and	r24, r24
 3d2:	e1 f7       	brne	.-8      	; 0x3cc <main+0xf2>
 3d4:	c2 98       	cbi	0x18, 2	; 24
 3d6:	10 93 7d 00 	sts	0x007D, r17
 3da:	80 91 7d 00 	lds	r24, 0x007D
 3de:	88 23       	and	r24, r24
 3e0:	e1 f7       	brne	.-8      	; 0x3da <main+0x100>
 3e2:	80 91 71 00 	lds	r24, 0x0071
 3e6:	81 30       	cpi	r24, 0x01	; 1
 3e8:	c1 f4       	brne	.+48     	; 0x41a <main+0x140>
 3ea:	80 91 73 00 	lds	r24, 0x0073
 3ee:	90 91 74 00 	lds	r25, 0x0074
 3f2:	86 56       	subi	r24, 0x66	; 102
 3f4:	95 40       	sbci	r25, 0x05	; 5
 3f6:	89 f4       	brne	.+34     	; 0x41a <main+0x140>
 3f8:	80 91 6d 00 	lds	r24, 0x006D
 3fc:	88 23       	and	r24, r24
 3fe:	69 f4       	brne	.+26     	; 0x41a <main+0x140>
 400:	80 91 7a 00 	lds	r24, 0x007A
 404:	90 91 7b 00 	lds	r25, 0x007B
 408:	85 58       	subi	r24, 0x85	; 133
 40a:	93 40       	sbci	r25, 0x03	; 3
 40c:	30 f4       	brcc	.+12     	; 0x41a <main+0x140>
 40e:	89 b7       	in	r24, 0x39	; 57
 410:	8f 7d       	andi	r24, 0xDF	; 223
 412:	89 bf       	out	0x39, r24	; 57
 414:	e0 92 6d 00 	sts	0x006D, r14
 418:	21 c0       	rjmp	.+66     	; 0x45c <main+0x182>
 41a:	80 91 71 00 	lds	r24, 0x0071
 41e:	81 30       	cpi	r24, 0x01	; 1
 420:	e9 f4       	brne	.+58     	; 0x45c <main+0x182>
 422:	80 91 73 00 	lds	r24, 0x0073
 426:	90 91 74 00 	lds	r25, 0x0074
 42a:	86 56       	subi	r24, 0x66	; 102
 42c:	95 40       	sbci	r25, 0x05	; 5
 42e:	b1 f4       	brne	.+44     	; 0x45c <main+0x182>
 430:	80 91 6d 00 	lds	r24, 0x006D
 434:	88 23       	and	r24, r24
 436:	91 f4       	brne	.+36     	; 0x45c <main+0x182>
 438:	80 91 7a 00 	lds	r24, 0x007A
 43c:	90 91 7b 00 	lds	r25, 0x007B
 440:	85 58       	subi	r24, 0x85	; 133
 442:	93 40       	sbci	r25, 0x03	; 3
 444:	58 f0       	brcs	.+22     	; 0x45c <main+0x182>
 446:	89 b7       	in	r24, 0x39	; 57
 448:	8f 7d       	andi	r24, 0xDF	; 223
 44a:	89 bf       	out	0x39, r24	; 57
 44c:	c2 9a       	sbi	0x18, 2	; 24
 44e:	10 93 7d 00 	sts	0x007D, r17
 452:	80 91 7d 00 	lds	r24, 0x007D
 456:	88 23       	and	r24, r24
 458:	e1 f7       	brne	.-8      	; 0x452 <main+0x178>
 45a:	c2 98       	cbi	0x18, 2	; 24
 45c:	80 91 6d 00 	lds	r24, 0x006D
 460:	83 30       	cpi	r24, 0x03	; 3
 462:	41 f4       	brne	.+16     	; 0x474 <__stack+0x15>
 464:	c0 92 78 00 	sts	0x0078, r12
 468:	80 91 78 00 	lds	r24, 0x0078
 46c:	88 23       	and	r24, r24
 46e:	e1 f7       	brne	.-8      	; 0x468 <__stack+0x9>
 470:	f0 92 6d 00 	sts	0x006D, r15
 474:	80 91 70 00 	lds	r24, 0x0070
 478:	81 30       	cpi	r24, 0x01	; 1
 47a:	29 f0       	breq	.+10     	; 0x486 <__stack+0x27>
 47c:	80 91 6d 00 	lds	r24, 0x006D
 480:	81 30       	cpi	r24, 0x01	; 1
 482:	09 f0       	breq	.+2      	; 0x486 <__stack+0x27>
 484:	4f cf       	rjmp	.-354    	; 0x324 <main+0x4a>
 486:	f0 92 6a 00 	sts	0x006A, r15
 48a:	88 b3       	in	r24, 0x18	; 24
 48c:	86 60       	ori	r24, 0x06	; 6
 48e:	88 bb       	out	0x18, r24	; 24
 490:	49 cf       	rjmp	.-366    	; 0x324 <main+0x4a>
 492:	10 92 76 00 	sts	0x0076, r1
 496:	80 91 70 00 	lds	r24, 0x0070
 49a:	81 30       	cpi	r24, 0x01	; 1
 49c:	21 f0       	breq	.+8      	; 0x4a6 <__stack+0x47>
 49e:	80 91 6d 00 	lds	r24, 0x006D
 4a2:	81 30       	cpi	r24, 0x01	; 1
 4a4:	59 f4       	brne	.+22     	; 0x4bc <__stack+0x5d>
 4a6:	10 93 7d 00 	sts	0x007D, r17
 4aa:	80 91 7d 00 	lds	r24, 0x007D
 4ae:	88 23       	and	r24, r24
 4b0:	e1 f7       	brne	.-8      	; 0x4aa <__stack+0x4b>
 4b2:	e0 92 70 00 	sts	0x0070, r14
 4b6:	10 92 6d 00 	sts	0x006D, r1
 4ba:	c2 98       	cbi	0x18, 2	; 24
 4bc:	8b b7       	in	r24, 0x3b	; 59
 4be:	80 64       	ori	r24, 0x40	; 64
 4c0:	8b bf       	out	0x3b, r24	; 59
 4c2:	10 92 71 00 	sts	0x0071, r1
 4c6:	10 92 74 00 	sts	0x0074, r1
 4ca:	10 92 73 00 	sts	0x0073, r1
 4ce:	80 91 60 00 	lds	r24, 0x0060
 4d2:	00 d1       	rcall	.+512    	; 0x6d4 <procent>
 4d4:	80 93 7f 00 	sts	0x007F, r24
 4d8:	89 b7       	in	r24, 0x39	; 57
 4da:	80 62       	ori	r24, 0x20	; 32
 4dc:	89 bf       	out	0x39, r24	; 57
 4de:	9b 99       	sbic	0x13, 3	; 19
 4e0:	11 c0       	rjmp	.+34     	; 0x504 <__stack+0xa5>
 4e2:	80 91 70 00 	lds	r24, 0x0070
 4e6:	83 30       	cpi	r24, 0x03	; 3
 4e8:	69 f4       	brne	.+26     	; 0x504 <__stack+0xa5>
 4ea:	9b 99       	sbic	0x13, 3	; 19
 4ec:	0d c0       	rjmp	.+26     	; 0x508 <__stack+0xa9>
 4ee:	c0 92 75 00 	sts	0x0075, r12
 4f2:	80 91 75 00 	lds	r24, 0x0075
 4f6:	88 23       	and	r24, r24
 4f8:	e1 f7       	brne	.-8      	; 0x4f2 <__stack+0x93>
 4fa:	9b 99       	sbic	0x13, 3	; 19
 4fc:	05 c0       	rjmp	.+10     	; 0x508 <__stack+0xa9>
 4fe:	00 93 70 00 	sts	0x0070, r16
 502:	02 c0       	rjmp	.+4      	; 0x508 <__stack+0xa9>
 504:	e0 92 70 00 	sts	0x0070, r14
 508:	20 91 71 00 	lds	r18, 0x0071
 50c:	21 30       	cpi	r18, 0x01	; 1
 50e:	81 f4       	brne	.+32     	; 0x530 <__stack+0xd1>
 510:	80 91 73 00 	lds	r24, 0x0073
 514:	90 91 74 00 	lds	r25, 0x0074
 518:	86 56       	subi	r24, 0x66	; 102
 51a:	95 40       	sbci	r25, 0x05	; 5
 51c:	49 f4       	brne	.+18     	; 0x530 <__stack+0xd1>
 51e:	80 91 6d 00 	lds	r24, 0x006D
 522:	88 23       	and	r24, r24
 524:	29 f4       	brne	.+10     	; 0x530 <__stack+0xd1>
 526:	20 93 6d 00 	sts	0x006D, r18
 52a:	89 b7       	in	r24, 0x39	; 57
 52c:	8f 7d       	andi	r24, 0xDF	; 223
 52e:	89 bf       	out	0x39, r24	; 57
 530:	80 91 6d 00 	lds	r24, 0x006D
 534:	81 30       	cpi	r24, 0x01	; 1
 536:	41 f4       	brne	.+16     	; 0x548 <__stack+0xe9>
 538:	d0 92 78 00 	sts	0x0078, r13
 53c:	80 91 78 00 	lds	r24, 0x0078
 540:	88 23       	and	r24, r24
 542:	e1 f7       	brne	.-8      	; 0x53c <__stack+0xdd>
 544:	00 93 6d 00 	sts	0x006D, r16
 548:	80 91 6d 00 	lds	r24, 0x006D
 54c:	82 30       	cpi	r24, 0x02	; 2
 54e:	21 f0       	breq	.+8      	; 0x558 <__stack+0xf9>
 550:	80 91 70 00 	lds	r24, 0x0070
 554:	82 30       	cpi	r24, 0x02	; 2
 556:	11 f4       	brne	.+4      	; 0x55c <__stack+0xfd>
 558:	10 92 6a 00 	sts	0x006A, r1
 55c:	80 91 71 00 	lds	r24, 0x0071
 560:	81 30       	cpi	r24, 0x01	; 1
 562:	11 f4       	brne	.+4      	; 0x568 <__stack+0x109>
 564:	80 93 76 00 	sts	0x0076, r24
 568:	80 91 79 00 	lds	r24, 0x0079
 56c:	88 23       	and	r24, r24
 56e:	41 f0       	breq	.+16     	; 0x580 <__stack+0x121>
 570:	00 93 6d 00 	sts	0x006D, r16
 574:	00 93 70 00 	sts	0x0070, r16
 578:	10 92 6a 00 	sts	0x006A, r1
 57c:	10 92 79 00 	sts	0x0079, r1
 580:	99 99       	sbic	0x13, 1	; 19
 582:	1b c0       	rjmp	.+54     	; 0x5ba <__stack+0x15b>
 584:	80 91 6e 00 	lds	r24, 0x006E
 588:	88 23       	and	r24, r24
 58a:	b9 f4       	brne	.+46     	; 0x5ba <__stack+0x15b>
 58c:	90 91 60 00 	lds	r25, 0x0060
 590:	99 23       	and	r25, r25
 592:	99 f0       	breq	.+38     	; 0x5ba <__stack+0x15b>
 594:	99 99       	sbic	0x13, 1	; 19
 596:	13 c0       	rjmp	.+38     	; 0x5be <__stack+0x15f>
 598:	d0 92 77 00 	sts	0x0077, r13
 59c:	80 91 77 00 	lds	r24, 0x0077
 5a0:	88 23       	and	r24, r24
 5a2:	e1 f7       	brne	.-8      	; 0x59c <__stack+0x13d>
 5a4:	99 99       	sbic	0x13, 1	; 19
 5a6:	0b c0       	rjmp	.+22     	; 0x5be <__stack+0x15f>
 5a8:	89 2f       	mov	r24, r25
 5aa:	81 50       	subi	r24, 0x01	; 1
 5ac:	80 93 60 00 	sts	0x0060, r24
 5b0:	86 30       	cpi	r24, 0x06	; 6
 5b2:	28 f4       	brcc	.+10     	; 0x5be <__stack+0x15f>
 5b4:	10 92 60 00 	sts	0x0060, r1
 5b8:	02 c0       	rjmp	.+4      	; 0x5be <__stack+0x15f>
 5ba:	10 92 6e 00 	sts	0x006E, r1
 5be:	20 91 71 00 	lds	r18, 0x0071
 5c2:	21 30       	cpi	r18, 0x01	; 1
 5c4:	b9 f4       	brne	.+46     	; 0x5f4 <__stack+0x195>
 5c6:	80 91 73 00 	lds	r24, 0x0073
 5ca:	90 91 74 00 	lds	r25, 0x0074
 5ce:	8a 56       	subi	r24, 0x6A	; 106
 5d0:	95 40       	sbci	r25, 0x05	; 5
 5d2:	81 f4       	brne	.+32     	; 0x5f4 <__stack+0x195>
 5d4:	80 91 60 00 	lds	r24, 0x0060
 5d8:	85 30       	cpi	r24, 0x05	; 5
 5da:	60 f0       	brcs	.+24     	; 0x5f4 <__stack+0x195>
 5dc:	80 91 6c 00 	lds	r24, 0x006C
 5e0:	88 23       	and	r24, r24
 5e2:	41 f4       	brne	.+16     	; 0x5f4 <__stack+0x195>
 5e4:	10 92 71 00 	sts	0x0071, r1
 5e8:	10 92 74 00 	sts	0x0074, r1
 5ec:	10 92 73 00 	sts	0x0073, r1
 5f0:	20 93 6c 00 	sts	0x006C, r18
 5f4:	80 91 6c 00 	lds	r24, 0x006C
 5f8:	81 30       	cpi	r24, 0x01	; 1
 5fa:	b1 f4       	brne	.+44     	; 0x628 <__stack+0x1c9>
 5fc:	80 93 7d 00 	sts	0x007D, r24
 600:	03 c0       	rjmp	.+6      	; 0x608 <__stack+0x1a9>
 602:	89 b7       	in	r24, 0x39	; 57
 604:	8f 7d       	andi	r24, 0xDF	; 223
 606:	89 bf       	out	0x39, r24	; 57
 608:	80 91 7d 00 	lds	r24, 0x007D
 60c:	88 23       	and	r24, r24
 60e:	c9 f7       	brne	.-14     	; 0x602 <__stack+0x1a3>
 610:	80 91 60 00 	lds	r24, 0x0060
 614:	82 50       	subi	r24, 0x02	; 2
 616:	80 93 60 00 	sts	0x0060, r24
 61a:	10 92 6c 00 	sts	0x006C, r1
 61e:	85 30       	cpi	r24, 0x05	; 5
 620:	18 f4       	brcc	.+6      	; 0x628 <__stack+0x1c9>
 622:	10 92 60 00 	sts	0x0060, r1
 626:	7e ce       	rjmp	.-772    	; 0x324 <main+0x4a>
 628:	9a 99       	sbic	0x13, 2	; 19
 62a:	1b c0       	rjmp	.+54     	; 0x662 <__stack+0x203>
 62c:	80 91 6f 00 	lds	r24, 0x006F
 630:	88 23       	and	r24, r24
 632:	b9 f4       	brne	.+46     	; 0x662 <__stack+0x203>
 634:	90 91 60 00 	lds	r25, 0x0060
 638:	94 36       	cpi	r25, 0x64	; 100
 63a:	98 f4       	brcc	.+38     	; 0x662 <__stack+0x203>
 63c:	9a 99       	sbic	0x13, 2	; 19
 63e:	13 c0       	rjmp	.+38     	; 0x666 <__stack+0x207>
 640:	d0 92 7c 00 	sts	0x007C, r13
 644:	80 91 7c 00 	lds	r24, 0x007C
 648:	88 23       	and	r24, r24
 64a:	e1 f7       	brne	.-8      	; 0x644 <__stack+0x1e5>
 64c:	9a 99       	sbic	0x13, 2	; 19
 64e:	0b c0       	rjmp	.+22     	; 0x666 <__stack+0x207>
 650:	89 2f       	mov	r24, r25
 652:	8f 5f       	subi	r24, 0xFF	; 255
 654:	80 93 60 00 	sts	0x0060, r24
 658:	81 36       	cpi	r24, 0x61	; 97
 65a:	28 f0       	brcs	.+10     	; 0x666 <__stack+0x207>
 65c:	10 93 60 00 	sts	0x0060, r17
 660:	02 c0       	rjmp	.+4      	; 0x666 <__stack+0x207>
 662:	10 92 6f 00 	sts	0x006F, r1
 666:	20 91 71 00 	lds	r18, 0x0071
 66a:	21 30       	cpi	r18, 0x01	; 1
 66c:	b9 f4       	brne	.+46     	; 0x69c <__stack+0x23d>
 66e:	80 91 73 00 	lds	r24, 0x0073
 672:	90 91 74 00 	lds	r25, 0x0074
 676:	88 56       	subi	r24, 0x68	; 104
 678:	95 40       	sbci	r25, 0x05	; 5
 67a:	81 f4       	brne	.+32     	; 0x69c <__stack+0x23d>
 67c:	80 91 6b 00 	lds	r24, 0x006B
 680:	88 23       	and	r24, r24
 682:	61 f4       	brne	.+24     	; 0x69c <__stack+0x23d>
 684:	80 91 60 00 	lds	r24, 0x0060
 688:	80 36       	cpi	r24, 0x60	; 96
 68a:	40 f4       	brcc	.+16     	; 0x69c <__stack+0x23d>
 68c:	10 92 71 00 	sts	0x0071, r1
 690:	10 92 74 00 	sts	0x0074, r1
 694:	10 92 73 00 	sts	0x0073, r1
 698:	20 93 6b 00 	sts	0x006B, r18
 69c:	80 91 6b 00 	lds	r24, 0x006B
 6a0:	81 30       	cpi	r24, 0x01	; 1
 6a2:	09 f0       	breq	.+2      	; 0x6a6 <__stack+0x247>
 6a4:	3f ce       	rjmp	.-898    	; 0x324 <main+0x4a>
 6a6:	80 93 7d 00 	sts	0x007D, r24
 6aa:	03 c0       	rjmp	.+6      	; 0x6b2 <__stack+0x253>
 6ac:	89 b7       	in	r24, 0x39	; 57
 6ae:	8f 7d       	andi	r24, 0xDF	; 223
 6b0:	89 bf       	out	0x39, r24	; 57
 6b2:	80 91 7d 00 	lds	r24, 0x007D
 6b6:	88 23       	and	r24, r24
 6b8:	c9 f7       	brne	.-14     	; 0x6ac <__stack+0x24d>
 6ba:	80 91 60 00 	lds	r24, 0x0060
 6be:	8e 5f       	subi	r24, 0xFE	; 254
 6c0:	80 93 60 00 	sts	0x0060, r24
 6c4:	10 92 6b 00 	sts	0x006B, r1
 6c8:	8f 35       	cpi	r24, 0x5F	; 95
 6ca:	08 f4       	brcc	.+2      	; 0x6ce <__stack+0x26f>
 6cc:	2b ce       	rjmp	.-938    	; 0x324 <main+0x4a>
 6ce:	10 93 60 00 	sts	0x0060, r17
 6d2:	28 ce       	rjmp	.-944    	; 0x324 <main+0x4a>

000006d4 <procent>:
 6d4:	97 ec       	ldi	r25, 0xC7	; 199
 6d6:	89 9f       	mul	r24, r25
 6d8:	c0 01       	movw	r24, r0
 6da:	11 24       	eor	r1, r1
 6dc:	64 e6       	ldi	r22, 0x64	; 100
 6de:	70 e0       	ldi	r23, 0x00	; 0
 6e0:	3e d0       	rcall	.+124    	; 0x75e <__divmodhi4>
 6e2:	86 2f       	mov	r24, r22
 6e4:	08 95       	ret

000006e6 <init_interruptINT0>:
 6e6:	85 b7       	in	r24, 0x35	; 53
 6e8:	83 60       	ori	r24, 0x03	; 3
 6ea:	85 bf       	out	0x35, r24	; 53
 6ec:	08 95       	ret

000006ee <init_TIMER0>:
 6ee:	89 b7       	in	r24, 0x39	; 57
 6f0:	81 60       	ori	r24, 0x01	; 1
 6f2:	89 bf       	out	0x39, r24	; 57
 6f4:	81 ed       	ldi	r24, 0xD1	; 209
 6f6:	82 bf       	out	0x32, r24	; 50
 6f8:	08 95       	ret

000006fa <__vector_1>:
 6fa:	1f 92       	push	r1
 6fc:	0f 92       	push	r0
 6fe:	0f b6       	in	r0, 0x3f	; 63
 700:	0f 92       	push	r0
 702:	11 24       	eor	r1, r1
 704:	8f 93       	push	r24
 706:	83 b7       	in	r24, 0x33	; 51
 708:	8d 7f       	andi	r24, 0xFD	; 253
 70a:	83 bf       	out	0x33, r24	; 51
 70c:	a8 98       	cbi	0x15, 0	; 21
 70e:	88 ec       	ldi	r24, 0xC8	; 200
 710:	80 93 7e 00 	sts	0x007E, r24
 714:	83 b7       	in	r24, 0x33	; 51
 716:	82 60       	ori	r24, 0x02	; 2
 718:	83 bf       	out	0x33, r24	; 51
 71a:	8f 91       	pop	r24
 71c:	0f 90       	pop	r0
 71e:	0f be       	out	0x3f, r0	; 63
 720:	0f 90       	pop	r0
 722:	1f 90       	pop	r1
 724:	18 95       	reti

00000726 <__vector_9>:
 726:	1f 92       	push	r1
 728:	0f 92       	push	r0
 72a:	0f b6       	in	r0, 0x3f	; 63
 72c:	0f 92       	push	r0
 72e:	11 24       	eor	r1, r1
 730:	8f 93       	push	r24
 732:	9f 93       	push	r25
 734:	81 ed       	ldi	r24, 0xD1	; 209
 736:	82 bf       	out	0x32, r24	; 50
 738:	90 91 7e 00 	lds	r25, 0x007E
 73c:	80 91 7f 00 	lds	r24, 0x007F
 740:	89 17       	cp	r24, r25
 742:	08 f0       	brcs	.+2      	; 0x746 <__vector_9+0x20>
 744:	a8 9a       	sbi	0x15, 0	; 21
 746:	80 91 7e 00 	lds	r24, 0x007E
 74a:	81 50       	subi	r24, 0x01	; 1
 74c:	80 93 7e 00 	sts	0x007E, r24
 750:	9f 91       	pop	r25
 752:	8f 91       	pop	r24
 754:	0f 90       	pop	r0
 756:	0f be       	out	0x3f, r0	; 63
 758:	0f 90       	pop	r0
 75a:	1f 90       	pop	r1
 75c:	18 95       	reti

0000075e <__divmodhi4>:
 75e:	97 fb       	bst	r25, 7
 760:	09 2e       	mov	r0, r25
 762:	07 26       	eor	r0, r23
 764:	0a d0       	rcall	.+20     	; 0x77a <__divmodhi4_neg1>
 766:	77 fd       	sbrc	r23, 7
 768:	04 d0       	rcall	.+8      	; 0x772 <__divmodhi4_neg2>
 76a:	0c d0       	rcall	.+24     	; 0x784 <__udivmodhi4>
 76c:	06 d0       	rcall	.+12     	; 0x77a <__divmodhi4_neg1>
 76e:	00 20       	and	r0, r0
 770:	1a f4       	brpl	.+6      	; 0x778 <__divmodhi4_exit>

00000772 <__divmodhi4_neg2>:
 772:	70 95       	com	r23
 774:	61 95       	neg	r22
 776:	7f 4f       	sbci	r23, 0xFF	; 255

00000778 <__divmodhi4_exit>:
 778:	08 95       	ret

0000077a <__divmodhi4_neg1>:
 77a:	f6 f7       	brtc	.-4      	; 0x778 <__divmodhi4_exit>
 77c:	90 95       	com	r25
 77e:	81 95       	neg	r24
 780:	9f 4f       	sbci	r25, 0xFF	; 255
 782:	08 95       	ret

00000784 <__udivmodhi4>:
 784:	aa 1b       	sub	r26, r26
 786:	bb 1b       	sub	r27, r27
 788:	51 e1       	ldi	r21, 0x11	; 17
 78a:	07 c0       	rjmp	.+14     	; 0x79a <__udivmodhi4_ep>

0000078c <__udivmodhi4_loop>:
 78c:	aa 1f       	adc	r26, r26
 78e:	bb 1f       	adc	r27, r27
 790:	a6 17       	cp	r26, r22
 792:	b7 07       	cpc	r27, r23
 794:	10 f0       	brcs	.+4      	; 0x79a <__udivmodhi4_ep>
 796:	a6 1b       	sub	r26, r22
 798:	b7 0b       	sbc	r27, r23

0000079a <__udivmodhi4_ep>:
 79a:	88 1f       	adc	r24, r24
 79c:	99 1f       	adc	r25, r25
 79e:	5a 95       	dec	r21
 7a0:	a9 f7       	brne	.-22     	; 0x78c <__udivmodhi4_loop>
 7a2:	80 95       	com	r24
 7a4:	90 95       	com	r25
 7a6:	bc 01       	movw	r22, r24
 7a8:	cd 01       	movw	r24, r26
 7aa:	08 95       	ret

000007ac <_exit>:
 7ac:	f8 94       	cli

000007ae <__stop_program>:
 7ae:	ff cf       	rjmp	.-2      	; 0x7ae <__stop_program>
