
AVRASM ver. 2.1.30  E:\B\avr\CODEVISION projects\SPWM3_1\List\SPWM3_1.asm Wed Oct 03 16:24:31 2012

                 
                 
                 ;CodeVisionAVR C Compiler V2.05.0 Professional
                 ;(C) Copyright 1998-2010 Pavel Haiduc, HP InfoTech s.r.l.
                 ;http://www.hpinfotech.com
                 
                 ;Chip type                : ATmega64
                 ;Program type             : Application
                 ;Clock frequency          : 8.000000 MHz
                 ;Memory model             : Small
                 ;Optimize for             : Size
                 ;(s)printf features       : int, width
                 ;(s)scanf features        : int, width
                 ;External RAM size        : 0
                 ;Data Stack size          : 1024 byte(s)
                 ;Heap size                : 0 byte(s)
                 ;Promote 'char' to 'int'  : No
                 ;'char' is unsigned       : Yes
                 ;8 bit enums              : Yes
                 ;global 'const' stored in FLASH: Yes
                 ;Enhanced core instructions    : On
                 ;Smart register allocation     : On
                 ;Automatic register allocation : On
                 
                 	#pragma AVRPART ADMIN PART_NAME ATmega64
                 	#pragma AVRPART MEMORY PROG_FLASH 65536
                 	#pragma AVRPART MEMORY EEPROM 2048
                 	#pragma AVRPART MEMORY INT_SRAM SIZE 4351
                 	#pragma AVRPART MEMORY INT_SRAM START_ADDR 0x100
                 
                 	#define CALL_SUPPORTED 1
                 
                 	.LISTMAC
                 	.EQU UDRE=0x5
                 	.EQU RXC=0x7
                 	.EQU USR=0xB
                 	.EQU UDR=0xC
                 	.EQU SPSR=0xE
                 	.EQU SPDR=0xF
                 	.EQU EERE=0x0
                 	.EQU EEWE=0x1
                 	.EQU EEMWE=0x2
                 	.EQU EECR=0x1C
                 	.EQU EEDR=0x1D
                 	.EQU EEARL=0x1E
                 	.EQU EEARH=0x1F
                 	.EQU WDTCR=0x21
                 	.EQU MCUCR=0x35
                 	.EQU SPL=0x3D
                 	.EQU SPH=0x3E
                 	.EQU SREG=0x3F
                 	.EQU XMCRA=0x6D
                 	.EQU XMCRB=0x6C
                 
                 	.DEF R0X0=R0
                 	.DEF R0X1=R1
                 	.DEF R0X2=R2
                 	.DEF R0X3=R3
                 	.DEF R0X4=R4
                 	.DEF R0X5=R5
                 	.DEF R0X6=R6
                 	.DEF R0X7=R7
                 	.DEF R0X8=R8
                 	.DEF R0X9=R9
                 	.DEF R0XA=R10
                 	.DEF R0XB=R11
                 	.DEF R0XC=R12
                 	.DEF R0XD=R13
                 	.DEF R0XE=R14
                 	.DEF R0XF=R15
                 	.DEF R0X10=R16
                 	.DEF R0X11=R17
                 	.DEF R0X12=R18
                 	.DEF R0X13=R19
                 	.DEF R0X14=R20
                 	.DEF R0X15=R21
                 	.DEF R0X16=R22
                 	.DEF R0X17=R23
                 	.DEF R0X18=R24
                 	.DEF R0X19=R25
                 	.DEF R0X1A=R26
                 	.DEF R0X1B=R27
                 	.DEF R0X1C=R28
                 	.DEF R0X1D=R29
                 	.DEF R0X1E=R30
                 	.DEF R0X1F=R31
                 
                 	.EQU __SRAM_START=0x0100
                 	.EQU __SRAM_END=0x10FF
                 	.EQU __DSTACK_SIZE=0x0400
                 	.EQU __HEAP_SIZE=0x0000
                 	.EQU __CLEAR_SRAM_SIZE=__SRAM_END-__SRAM_START+1
                 
                 	.MACRO __CPD1N
                 	CPI  R30,LOW(@0)
                 	LDI  R26,HIGH(@0)
                 	CPC  R31,R26
                 	LDI  R26,BYTE3(@0)
                 	CPC  R22,R26
                 	LDI  R26,BYTE4(@0)
                 	CPC  R23,R26
                 	.ENDM
                 
                 	.MACRO __CPD2N
                 	CPI  R26,LOW(@0)
                 	LDI  R30,HIGH(@0)
                 	CPC  R27,R30
                 	LDI  R30,BYTE3(@0)
                 	CPC  R24,R30
                 	LDI  R30,BYTE4(@0)
                 	CPC  R25,R30
                 	.ENDM
                 
                 	.MACRO __CPWRR
                 	CP   R@0,R@2
                 	CPC  R@1,R@3
                 	.ENDM
                 
                 	.MACRO __CPWRN
                 	CPI  R@0,LOW(@2)
                 	LDI  R30,HIGH(@2)
                 	CPC  R@1,R30
                 	.ENDM
                 
                 	.MACRO __ADDB1MN
                 	SUBI R30,LOW(-@0-(@1))
                 	.ENDM
                 
                 	.MACRO __ADDB2MN
                 	SUBI R26,LOW(-@0-(@1))
                 	.ENDM
                 
                 	.MACRO __ADDW1MN
                 	SUBI R30,LOW(-@0-(@1))
                 	SBCI R31,HIGH(-@0-(@1))
                 	.ENDM
                 
                 	.MACRO __ADDW2MN
                 	SUBI R26,LOW(-@0-(@1))
                 	SBCI R27,HIGH(-@0-(@1))
                 	.ENDM
                 
                 	.MACRO __ADDW1FN
                 	SUBI R30,LOW(-2*@0-(@1))
                 	SBCI R31,HIGH(-2*@0-(@1))
                 	.ENDM
                 
                 	.MACRO __ADDD1FN
                 	SUBI R30,LOW(-2*@0-(@1))
                 	SBCI R31,HIGH(-2*@0-(@1))
                 	SBCI R22,BYTE3(-2*@0-(@1))
                 	.ENDM
                 
                 	.MACRO __ADDD1N
                 	SUBI R30,LOW(-@0)
                 	SBCI R31,HIGH(-@0)
                 	SBCI R22,BYTE3(-@0)
                 	SBCI R23,BYTE4(-@0)
                 	.ENDM
                 
                 	.MACRO __ADDD2N
                 	SUBI R26,LOW(-@0)
                 	SBCI R27,HIGH(-@0)
                 	SBCI R24,BYTE3(-@0)
                 	SBCI R25,BYTE4(-@0)
                 	.ENDM
                 
                 	.MACRO __SUBD1N
                 	SUBI R30,LOW(@0)
                 	SBCI R31,HIGH(@0)
                 	SBCI R22,BYTE3(@0)
                 	SBCI R23,BYTE4(@0)
                 	.ENDM
                 
                 	.MACRO __SUBD2N
                 	SUBI R26,LOW(@0)
                 	SBCI R27,HIGH(@0)
                 	SBCI R24,BYTE3(@0)
                 	SBCI R25,BYTE4(@0)
                 	.ENDM
                 
                 	.MACRO __ANDBMNN
                 	LDS  R30,@0+(@1)
                 	ANDI R30,LOW(@2)
                 	STS  @0+(@1),R30
                 	.ENDM
                 
                 	.MACRO __ANDWMNN
                 	LDS  R30,@0+(@1)
                 	ANDI R30,LOW(@2)
                 	STS  @0+(@1),R30
                 	LDS  R30,@0+(@1)+1
                 	ANDI R30,HIGH(@2)
                 	STS  @0+(@1)+1,R30
                 	.ENDM
                 
                 	.MACRO __ANDD1N
                 	ANDI R30,LOW(@0)
                 	ANDI R31,HIGH(@0)
                 	ANDI R22,BYTE3(@0)
                 	ANDI R23,BYTE4(@0)
                 	.ENDM
                 
                 	.MACRO __ANDD2N
                 	ANDI R26,LOW(@0)
                 	ANDI R27,HIGH(@0)
                 	ANDI R24,BYTE3(@0)
                 	ANDI R25,BYTE4(@0)
                 	.ENDM
                 
                 	.MACRO __ORBMNN
                 	LDS  R30,@0+(@1)
                 	ORI  R30,LOW(@2)
                 	STS  @0+(@1),R30
                 	.ENDM
                 
                 	.MACRO __ORWMNN
                 	LDS  R30,@0+(@1)
                 	ORI  R30,LOW(@2)
                 	STS  @0+(@1),R30
                 	LDS  R30,@0+(@1)+1
                 	ORI  R30,HIGH(@2)
                 	STS  @0+(@1)+1,R30
                 	.ENDM
                 
                 	.MACRO __ORD1N
                 	ORI  R30,LOW(@0)
                 	ORI  R31,HIGH(@0)
                 	ORI  R22,BYTE3(@0)
                 	ORI  R23,BYTE4(@0)
                 	.ENDM
                 
                 	.MACRO __ORD2N
                 	ORI  R26,LOW(@0)
                 	ORI  R27,HIGH(@0)
                 	ORI  R24,BYTE3(@0)
                 	ORI  R25,BYTE4(@0)
                 	.ENDM
                 
                 	.MACRO __DELAY_USB
                 	LDI  R24,LOW(@0)
                 __DELAY_USB_LOOP:
                 	DEC  R24
                 	BRNE __DELAY_USB_LOOP
                 	.ENDM
                 
                 	.MACRO __DELAY_USW
                 	LDI  R24,LOW(@0)
                 	LDI  R25,HIGH(@0)
                 __DELAY_USW_LOOP:
                 	SBIW R24,1
                 	BRNE __DELAY_USW_LOOP
                 	.ENDM
                 
                 	.MACRO __GETD1S
                 	LDD  R30,Y+@0
                 	LDD  R31,Y+@0+1
                 	LDD  R22,Y+@0+2
                 	LDD  R23,Y+@0+3
                 	.ENDM
                 
                 	.MACRO __GETD2S
                 	LDD  R26,Y+@0
                 	LDD  R27,Y+@0+1
                 	LDD  R24,Y+@0+2
                 	LDD  R25,Y+@0+3
                 	.ENDM
                 
                 	.MACRO __PUTD1S
                 	STD  Y+@0,R30
                 	STD  Y+@0+1,R31
                 	STD  Y+@0+2,R22
                 	STD  Y+@0+3,R23
                 	.ENDM
                 
                 	.MACRO __PUTD2S
                 	STD  Y+@0,R26
                 	STD  Y+@0+1,R27
                 	STD  Y+@0+2,R24
                 	STD  Y+@0+3,R25
                 	.ENDM
                 
                 	.MACRO __PUTDZ2
                 	STD  Z+@0,R26
                 	STD  Z+@0+1,R27
                 	STD  Z+@0+2,R24
                 	STD  Z+@0+3,R25
                 	.ENDM
                 
                 	.MACRO __CLRD1S
                 	STD  Y+@0,R30
                 	STD  Y+@0+1,R30
                 	STD  Y+@0+2,R30
                 	STD  Y+@0+3,R30
                 	.ENDM
                 
                 	.MACRO __POINTB1MN
                 	LDI  R30,LOW(@0+(@1))
                 	.ENDM
                 
                 	.MACRO __POINTW1MN
                 	LDI  R30,LOW(@0+(@1))
                 	LDI  R31,HIGH(@0+(@1))
                 	.ENDM
                 
                 	.MACRO __POINTD1M
                 	LDI  R30,LOW(@0)
                 	LDI  R31,HIGH(@0)
                 	LDI  R22,BYTE3(@0)
                 	LDI  R23,BYTE4(@0)
                 	.ENDM
                 
                 	.MACRO __POINTW1FN
                 	LDI  R30,LOW(2*@0+(@1))
                 	LDI  R31,HIGH(2*@0+(@1))
                 	.ENDM
                 
                 	.MACRO __POINTD1FN
                 	LDI  R30,LOW(2*@0+(@1))
                 	LDI  R31,HIGH(2*@0+(@1))
                 	LDI  R22,BYTE3(2*@0+(@1))
                 	LDI  R23,BYTE4(2*@0+(@1))
                 	.ENDM
                 
                 	.MACRO __POINTB2MN
                 	LDI  R26,LOW(@0+(@1))
                 	.ENDM
                 
                 	.MACRO __POINTW2MN
                 	LDI  R26,LOW(@0+(@1))
                 	LDI  R27,HIGH(@0+(@1))
                 	.ENDM
                 
                 	.MACRO __POINTBRM
                 	LDI  R@0,LOW(@1)
                 	.ENDM
                 
                 	.MACRO __POINTWRM
                 	LDI  R@0,LOW(@2)
                 	LDI  R@1,HIGH(@2)
                 	.ENDM
                 
                 	.MACRO __POINTBRMN
                 	LDI  R@0,LOW(@1+(@2))
                 	.ENDM
                 
                 	.MACRO __POINTWRMN
                 	LDI  R@0,LOW(@2+(@3))
                 	LDI  R@1,HIGH(@2+(@3))
                 	.ENDM
                 
                 	.MACRO __POINTWRFN
                 	LDI  R@0,LOW(@2*2+(@3))
                 	LDI  R@1,HIGH(@2*2+(@3))
                 	.ENDM
                 
                 	.MACRO __GETD1N
                 	LDI  R30,LOW(@0)
                 	LDI  R31,HIGH(@0)
                 	LDI  R22,BYTE3(@0)
                 	LDI  R23,BYTE4(@0)
                 	.ENDM
                 
                 	.MACRO __GETD2N
                 	LDI  R26,LOW(@0)
                 	LDI  R27,HIGH(@0)
                 	LDI  R24,BYTE3(@0)
                 	LDI  R25,BYTE4(@0)
                 	.ENDM
                 
                 	.MACRO __GETB1MN
                 	LDS  R30,@0+(@1)
                 	.ENDM
                 
                 	.MACRO __GETB1HMN
                 	LDS  R31,@0+(@1)
                 	.ENDM
                 
                 	.MACRO __GETW1MN
                 	LDS  R30,@0+(@1)
                 	LDS  R31,@0+(@1)+1
                 	.ENDM
                 
                 	.MACRO __GETD1MN
                 	LDS  R30,@0+(@1)
                 	LDS  R31,@0+(@1)+1
                 	LDS  R22,@0+(@1)+2
                 	LDS  R23,@0+(@1)+3
                 	.ENDM
                 
                 	.MACRO __GETBRMN
                 	LDS  R@0,@1+(@2)
                 	.ENDM
                 
                 	.MACRO __GETWRMN
                 	LDS  R@0,@2+(@3)
                 	LDS  R@1,@2+(@3)+1
                 	.ENDM
                 
                 	.MACRO __GETWRZ
                 	LDD  R@0,Z+@2
                 	LDD  R@1,Z+@2+1
                 	.ENDM
                 
                 	.MACRO __GETD2Z
                 	LDD  R26,Z+@0
                 	LDD  R27,Z+@0+1
                 	LDD  R24,Z+@0+2
                 	LDD  R25,Z+@0+3
                 	.ENDM
                 
                 	.MACRO __GETB2MN
                 	LDS  R26,@0+(@1)
                 	.ENDM
                 
                 	.MACRO __GETW2MN
                 	LDS  R26,@0+(@1)
                 	LDS  R27,@0+(@1)+1
                 	.ENDM
                 
                 	.MACRO __GETD2MN
                 	LDS  R26,@0+(@1)
                 	LDS  R27,@0+(@1)+1
                 	LDS  R24,@0+(@1)+2
                 	LDS  R25,@0+(@1)+3
                 	.ENDM
                 
                 	.MACRO __PUTB1MN
                 	STS  @0+(@1),R30
                 	.ENDM
                 
                 	.MACRO __PUTW1MN
                 	STS  @0+(@1),R30
                 	STS  @0+(@1)+1,R31
                 	.ENDM
                 
                 	.MACRO __PUTD1MN
                 	STS  @0+(@1),R30
                 	STS  @0+(@1)+1,R31
                 	STS  @0+(@1)+2,R22
                 	STS  @0+(@1)+3,R23
                 	.ENDM
                 
                 	.MACRO __PUTB1EN
                 	LDI  R26,LOW(@0+(@1))
                 	LDI  R27,HIGH(@0+(@1))
                 	CALL __EEPROMWRB
                 	.ENDM
                 
                 	.MACRO __PUTW1EN
                 	LDI  R26,LOW(@0+(@1))
                 	LDI  R27,HIGH(@0+(@1))
                 	CALL __EEPROMWRW
                 	.ENDM
                 
                 	.MACRO __PUTD1EN
                 	LDI  R26,LOW(@0+(@1))
                 	LDI  R27,HIGH(@0+(@1))
                 	CALL __EEPROMWRD
                 	.ENDM
                 
                 	.MACRO __PUTBR0MN
                 	STS  @0+(@1),R0
                 	.ENDM
                 
                 	.MACRO __PUTBMRN
                 	STS  @0+(@1),R@2
                 	.ENDM
                 
                 	.MACRO __PUTWMRN
                 	STS  @0+(@1),R@2
                 	STS  @0+(@1)+1,R@3
                 	.ENDM
                 
                 	.MACRO __PUTBZR
                 	STD  Z+@1,R@0
                 	.ENDM
                 
                 	.MACRO __PUTWZR
                 	STD  Z+@2,R@0
                 	STD  Z+@2+1,R@1
                 	.ENDM
                 
                 	.MACRO __GETW1R
                 	MOV  R30,R@0
                 	MOV  R31,R@1
                 	.ENDM
                 
                 	.MACRO __GETW2R
                 	MOV  R26,R@0
                 	MOV  R27,R@1
                 	.ENDM
                 
                 	.MACRO __GETWRN
                 	LDI  R@0,LOW(@2)
                 	LDI  R@1,HIGH(@2)
                 	.ENDM
                 
                 	.MACRO __PUTW1R
                 	MOV  R@0,R30
                 	MOV  R@1,R31
                 	.ENDM
                 
                 	.MACRO __PUTW2R
                 	MOV  R@0,R26
                 	MOV  R@1,R27
                 	.ENDM
                 
                 	.MACRO __ADDWRN
                 	SUBI R@0,LOW(-@2)
                 	SBCI R@1,HIGH(-@2)
                 	.ENDM
                 
                 	.MACRO __ADDWRR
                 	ADD  R@0,R@2
                 	ADC  R@1,R@3
                 	.ENDM
                 
                 	.MACRO __SUBWRN
                 	SUBI R@0,LOW(@2)
                 	SBCI R@1,HIGH(@2)
                 	.ENDM
                 
                 	.MACRO __SUBWRR
                 	SUB  R@0,R@2
                 	SBC  R@1,R@3
                 	.ENDM
                 
                 	.MACRO __ANDWRN
                 	ANDI R@0,LOW(@2)
                 	ANDI R@1,HIGH(@2)
                 	.ENDM
                 
                 	.MACRO __ANDWRR
                 	AND  R@0,R@2
                 	AND  R@1,R@3
                 	.ENDM
                 
                 	.MACRO __ORWRN
                 	ORI  R@0,LOW(@2)
                 	ORI  R@1,HIGH(@2)
                 	.ENDM
                 
                 	.MACRO __ORWRR
                 	OR   R@0,R@2
                 	OR   R@1,R@3
                 	.ENDM
                 
                 	.MACRO __EORWRR
                 	EOR  R@0,R@2
                 	EOR  R@1,R@3
                 	.ENDM
                 
                 	.MACRO __GETWRS
                 	LDD  R@0,Y+@2
                 	LDD  R@1,Y+@2+1
                 	.ENDM
                 
                 	.MACRO __PUTBSR
                 	STD  Y+@1,R@0
                 	.ENDM
                 
                 	.MACRO __PUTWSR
                 	STD  Y+@2,R@0
                 	STD  Y+@2+1,R@1
                 	.ENDM
                 
                 	.MACRO __MOVEWRR
                 	MOV  R@0,R@2
                 	MOV  R@1,R@3
                 	.ENDM
                 
                 	.MACRO __INWR
                 	IN   R@0,@2
                 	IN   R@1,@2+1
                 	.ENDM
                 
                 	.MACRO __OUTWR
                 	OUT  @2+1,R@1
                 	OUT  @2,R@0
                 	.ENDM
                 
                 	.MACRO __CALL1MN
                 	LDS  R30,@0+(@1)
                 	LDS  R31,@0+(@1)+1
                 	ICALL
                 	.ENDM
                 
                 	.MACRO __CALL1FN
                 	LDI  R30,LOW(2*@0+(@1))
                 	LDI  R31,HIGH(2*@0+(@1))
                 	CALL __GETW1PF
                 	ICALL
                 	.ENDM
                 
                 	.MACRO __CALL2EN
                 	LDI  R26,LOW(@0+(@1))
                 	LDI  R27,HIGH(@0+(@1))
                 	CALL __EEPROMRDW
                 	ICALL
                 	.ENDM
                 
                 	.MACRO __GETW1STACK
                 	IN   R26,SPL
                 	IN   R27,SPH
                 	ADIW R26,@0+1
                 	LD   R30,X+
                 	LD   R31,X
                 	.ENDM
                 
                 	.MACRO __GETD1STACK
                 	IN   R26,SPL
                 	IN   R27,SPH
                 	ADIW R26,@0+1
                 	LD   R30,X+
                 	LD   R31,X+
                 	LD   R22,X
                 	.ENDM
                 
                 	.MACRO __NBST
                 	BST  R@0,@1
                 	IN   R30,SREG
                 	LDI  R31,0x40
                 	EOR  R30,R31
                 	OUT  SREG,R30
                 	.ENDM
                 
                 
                 	.MACRO __PUTB1SN
                 	LDD  R26,Y+@0
                 	LDD  R27,Y+@0+1
                 	SUBI R26,LOW(-@1)
                 	SBCI R27,HIGH(-@1)
                 	ST   X,R30
                 	.ENDM
                 
                 	.MACRO __PUTW1SN
                 	LDD  R26,Y+@0
                 	LDD  R27,Y+@0+1
                 	SUBI R26,LOW(-@1)
                 	SBCI R27,HIGH(-@1)
                 	ST   X+,R30
                 	ST   X,R31
                 	.ENDM
                 
                 	.MACRO __PUTD1SN
                 	LDD  R26,Y+@0
                 	LDD  R27,Y+@0+1
                 	SUBI R26,LOW(-@1)
                 	SBCI R27,HIGH(-@1)
                 	CALL __PUTDP1
                 	.ENDM
                 
                 	.MACRO __PUTB1SNS
                 	LDD  R26,Y+@0
                 	LDD  R27,Y+@0+1
                 	ADIW R26,@1
                 	ST   X,R30
                 	.ENDM
                 
                 	.MACRO __PUTW1SNS
                 	LDD  R26,Y+@0
                 	LDD  R27,Y+@0+1
                 	ADIW R26,@1
                 	ST   X+,R30
                 	ST   X,R31
                 	.ENDM
                 
                 	.MACRO __PUTD1SNS
                 	LDD  R26,Y+@0
                 	LDD  R27,Y+@0+1
                 	ADIW R26,@1
                 	CALL __PUTDP1
                 	.ENDM
                 
                 	.MACRO __PUTB1PMN
                 	LDS  R26,@0
                 	LDS  R27,@0+1
                 	SUBI R26,LOW(-@1)
                 	SBCI R27,HIGH(-@1)
                 	ST   X,R30
                 	.ENDM
                 
                 	.MACRO __PUTW1PMN
                 	LDS  R26,@0
                 	LDS  R27,@0+1
                 	SUBI R26,LOW(-@1)
                 	SBCI R27,HIGH(-@1)
                 	ST   X+,R30
                 	ST   X,R31
                 	.ENDM
                 
                 	.MACRO __PUTD1PMN
                 	LDS  R26,@0
                 	LDS  R27,@0+1
                 	SUBI R26,LOW(-@1)
                 	SBCI R27,HIGH(-@1)
                 	CALL __PUTDP1
                 	.ENDM
                 
                 	.MACRO __PUTB1PMNS
                 	LDS  R26,@0
                 	LDS  R27,@0+1
                 	ADIW R26,@1
                 	ST   X,R30
                 	.ENDM
                 
                 	.MACRO __PUTW1PMNS
                 	LDS  R26,@0
                 	LDS  R27,@0+1
                 	ADIW R26,@1
                 	ST   X+,R30
                 	ST   X,R31
                 	.ENDM
                 
                 	.MACRO __PUTD1PMNS
                 	LDS  R26,@0
                 	LDS  R27,@0+1
                 	ADIW R26,@1
                 	CALL __PUTDP1
                 	.ENDM
                 
                 	.MACRO __PUTB1RN
                 	MOVW R26,R@0
                 	SUBI R26,LOW(-@1)
                 	SBCI R27,HIGH(-@1)
                 	ST   X,R30
                 	.ENDM
                 
                 	.MACRO __PUTW1RN
                 	MOVW R26,R@0
                 	SUBI R26,LOW(-@1)
                 	SBCI R27,HIGH(-@1)
                 	ST   X+,R30
                 	ST   X,R31
                 	.ENDM
                 
                 	.MACRO __PUTD1RN
                 	MOVW R26,R@0
                 	SUBI R26,LOW(-@1)
                 	SBCI R27,HIGH(-@1)
                 	CALL __PUTDP1
                 	.ENDM
                 
                 	.MACRO __PUTB1RNS
                 	MOVW R26,R@0
                 	ADIW R26,@1
                 	ST   X,R30
                 	.ENDM
                 
                 	.MACRO __PUTW1RNS
                 	MOVW R26,R@0
                 	ADIW R26,@1
                 	ST   X+,R30
                 	ST   X,R31
                 	.ENDM
                 
                 	.MACRO __PUTD1RNS
                 	MOVW R26,R@0
                 	ADIW R26,@1
                 	CALL __PUTDP1
                 	.ENDM
                 
                 	.MACRO __PUTB1RON
                 	MOV  R26,R@0
                 	MOV  R27,R@1
                 	SUBI R26,LOW(-@2)
                 	SBCI R27,HIGH(-@2)
                 	ST   X,R30
                 	.ENDM
                 
                 	.MACRO __PUTW1RON
                 	MOV  R26,R@0
                 	MOV  R27,R@1
                 	SUBI R26,LOW(-@2)
                 	SBCI R27,HIGH(-@2)
                 	ST   X+,R30
                 	ST   X,R31
                 	.ENDM
                 
                 	.MACRO __PUTD1RON
                 	MOV  R26,R@0
                 	MOV  R27,R@1
                 	SUBI R26,LOW(-@2)
                 	SBCI R27,HIGH(-@2)
                 	CALL __PUTDP1
                 	.ENDM
                 
                 	.MACRO __PUTB1RONS
                 	MOV  R26,R@0
                 	MOV  R27,R@1
                 	ADIW R26,@2
                 	ST   X,R30
                 	.ENDM
                 
                 	.MACRO __PUTW1RONS
                 	MOV  R26,R@0
                 	MOV  R27,R@1
                 	ADIW R26,@2
                 	ST   X+,R30
                 	ST   X,R31
                 	.ENDM
                 
                 	.MACRO __PUTD1RONS
                 	MOV  R26,R@0
                 	MOV  R27,R@1
                 	ADIW R26,@2
                 	CALL __PUTDP1
                 	.ENDM
                 
                 
                 	.MACRO __GETB1SX
                 	MOVW R30,R28
                 	SUBI R30,LOW(-@0)
                 	SBCI R31,HIGH(-@0)
                 	LD   R30,Z
                 	.ENDM
                 
                 	.MACRO __GETB1HSX
                 	MOVW R30,R28
                 	SUBI R30,LOW(-@0)
                 	SBCI R31,HIGH(-@0)
                 	LD   R31,Z
                 	.ENDM
                 
                 	.MACRO __GETW1SX
                 	MOVW R30,R28
                 	SUBI R30,LOW(-@0)
                 	SBCI R31,HIGH(-@0)
                 	LD   R0,Z+
                 	LD   R31,Z
                 	MOV  R30,R0
                 	.ENDM
                 
                 	.MACRO __GETD1SX
                 	MOVW R30,R28
                 	SUBI R30,LOW(-@0)
                 	SBCI R31,HIGH(-@0)
                 	LD   R0,Z+
                 	LD   R1,Z+
                 	LD   R22,Z+
                 	LD   R23,Z
                 	MOVW R30,R0
                 	.ENDM
                 
                 	.MACRO __GETB2SX
                 	MOVW R26,R28
                 	SUBI R26,LOW(-@0)
                 	SBCI R27,HIGH(-@0)
                 	LD   R26,X
                 	.ENDM
                 
                 	.MACRO __GETW2SX
                 	MOVW R26,R28
                 	SUBI R26,LOW(-@0)
                 	SBCI R27,HIGH(-@0)
                 	LD   R0,X+
                 	LD   R27,X
                 	MOV  R26,R0
                 	.ENDM
                 
                 	.MACRO __GETD2SX
                 	MOVW R26,R28
                 	SUBI R26,LOW(-@0)
                 	SBCI R27,HIGH(-@0)
                 	LD   R0,X+
                 	LD   R1,X+
                 	LD   R24,X+
                 	LD   R25,X
                 	MOVW R26,R0
                 	.ENDM
                 
                 	.MACRO __GETBRSX
                 	MOVW R30,R28
                 	SUBI R30,LOW(-@1)
                 	SBCI R31,HIGH(-@1)
                 	LD   R@0,Z
                 	.ENDM
                 
                 	.MACRO __GETWRSX
                 	MOVW R30,R28
                 	SUBI R30,LOW(-@2)
                 	SBCI R31,HIGH(-@2)
                 	LD   R@0,Z+
                 	LD   R@1,Z
                 	.ENDM
                 
                 	.MACRO __GETBRSX2
                 	MOVW R26,R28
                 	SUBI R26,LOW(-@1)
                 	SBCI R27,HIGH(-@1)
                 	LD   R@0,X
                 	.ENDM
                 
                 	.MACRO __GETWRSX2
                 	MOVW R26,R28
                 	SUBI R26,LOW(-@2)
                 	SBCI R27,HIGH(-@2)
                 	LD   R@0,X+
                 	LD   R@1,X
                 	.ENDM
                 
                 	.MACRO __LSLW8SX
                 	MOVW R30,R28
                 	SUBI R30,LOW(-@0)
                 	SBCI R31,HIGH(-@0)
                 	LD   R31,Z
                 	CLR  R30
                 	.ENDM
                 
                 	.MACRO __PUTB1SX
                 	MOVW R26,R28
                 	SUBI R26,LOW(-@0)
                 	SBCI R27,HIGH(-@0)
                 	ST   X,R30
                 	.ENDM
                 
                 	.MACRO __PUTW1SX
                 	MOVW R26,R28
                 	SUBI R26,LOW(-@0)
                 	SBCI R27,HIGH(-@0)
                 	ST   X+,R30
                 	ST   X,R31
                 	.ENDM
                 
                 	.MACRO __PUTD1SX
                 	MOVW R26,R28
                 	SUBI R26,LOW(-@0)
                 	SBCI R27,HIGH(-@0)
                 	ST   X+,R30
                 	ST   X+,R31
                 	ST   X+,R22
                 	ST   X,R23
                 	.ENDM
                 
                 	.MACRO __CLRW1SX
                 	MOVW R26,R28
                 	SUBI R26,LOW(-@0)
                 	SBCI R27,HIGH(-@0)
                 	ST   X+,R30
                 	ST   X,R30
                 	.ENDM
                 
                 	.MACRO __CLRD1SX
                 	MOVW R26,R28
                 	SUBI R26,LOW(-@0)
                 	SBCI R27,HIGH(-@0)
                 	ST   X+,R30
                 	ST   X+,R30
                 	ST   X+,R30
                 	ST   X,R30
                 	.ENDM
                 
                 	.MACRO __PUTB2SX
                 	MOVW R30,R28
                 	SUBI R30,LOW(-@0)
                 	SBCI R31,HIGH(-@0)
                 	ST   Z,R26
                 	.ENDM
                 
                 	.MACRO __PUTW2SX
                 	MOVW R30,R28
                 	SUBI R30,LOW(-@0)
                 	SBCI R31,HIGH(-@0)
                 	ST   Z+,R26
                 	ST   Z,R27
                 	.ENDM
                 
                 	.MACRO __PUTD2SX
                 	MOVW R30,R28
                 	SUBI R30,LOW(-@0)
                 	SBCI R31,HIGH(-@0)
                 	ST   Z+,R26
                 	ST   Z+,R27
                 	ST   Z+,R24
                 	ST   Z,R25
                 	.ENDM
                 
                 	.MACRO __PUTBSRX
                 	MOVW R30,R28
                 	SUBI R30,LOW(-@1)
                 	SBCI R31,HIGH(-@1)
                 	ST   Z,R@0
                 	.ENDM
                 
                 	.MACRO __PUTWSRX
                 	MOVW R30,R28
                 	SUBI R30,LOW(-@2)
                 	SBCI R31,HIGH(-@2)
                 	ST   Z+,R@0
                 	ST   Z,R@1
                 	.ENDM
                 
                 	.MACRO __PUTB1SNX
                 	MOVW R26,R28
                 	SUBI R26,LOW(-@0)
                 	SBCI R27,HIGH(-@0)
                 	LD   R0,X+
                 	LD   R27,X
                 	MOV  R26,R0
                 	SUBI R26,LOW(-@1)
                 	SBCI R27,HIGH(-@1)
                 	ST   X,R30
                 	.ENDM
                 
                 	.MACRO __PUTW1SNX
                 	MOVW R26,R28
                 	SUBI R26,LOW(-@0)
                 	SBCI R27,HIGH(-@0)
                 	LD   R0,X+
                 	LD   R27,X
                 	MOV  R26,R0
                 	SUBI R26,LOW(-@1)
                 	SBCI R27,HIGH(-@1)
                 	ST   X+,R30
                 	ST   X,R31
                 	.ENDM
                 
                 	.MACRO __PUTD1SNX
                 	MOVW R26,R28
                 	SUBI R26,LOW(-@0)
                 	SBCI R27,HIGH(-@0)
                 	LD   R0,X+
                 	LD   R27,X
                 	MOV  R26,R0
                 	SUBI R26,LOW(-@1)
                 	SBCI R27,HIGH(-@1)
                 	ST   X+,R30
                 	ST   X+,R31
                 	ST   X+,R22
                 	ST   X,R23
                 	.ENDM
                 
                 	.MACRO __MULBRR
                 	MULS R@0,R@1
                 	MOVW R30,R0
                 	.ENDM
                 
                 	.MACRO __MULBRRU
                 	MUL  R@0,R@1
                 	MOVW R30,R0
                 	.ENDM
                 
                 	.MACRO __MULBRR0
                 	MULS R@0,R@1
                 	.ENDM
                 
                 	.MACRO __MULBRRU0
                 	MUL  R@0,R@1
                 	.ENDM
                 
                 	.MACRO __MULBNWRU
                 	LDI  R26,@2
                 	MUL  R26,R@0
                 	MOVW R30,R0
                 	MUL  R26,R@1
                 	ADD  R31,R0
                 	.ENDM
                 
                 	.CSEG
                 	.ORG 0x00
                 
                 ;START OF CODE MARKER
                 __START_OF_CODE:
                 
                 ;INTERRUPT VECTORS
000000 940c 04aa 	JMP  __RESET
000002 940c 0000 	JMP  0x00
000004 940c 0000 	JMP  0x00
000006 940c 0000 	JMP  0x00
000008 940c 0000 	JMP  0x00
00000a 940c 0000 	JMP  0x00
00000c 940c 0000 	JMP  0x00
00000e 940c 0000 	JMP  0x00
000010 940c 0000 	JMP  0x00
000012 940c 0000 	JMP  0x00
000014 940c 0000 	JMP  0x00
000016 940c 0000 	JMP  0x00
000018 940c 0000 	JMP  0x00
00001a 940c 0000 	JMP  0x00
00001c 940c 0000 	JMP  0x00
00001e 940c 0000 	JMP  0x00
000020 940c 0000 	JMP  0x00
000022 940c 0000 	JMP  0x00
000024 940c 0000 	JMP  0x00
000026 940c 0000 	JMP  0x00
000028 940c 0000 	JMP  0x00
00002a 940c 055b 	JMP  _adc_isr
00002c 940c 0000 	JMP  0x00
00002e 940c 0000 	JMP  0x00
000030 940c 0000 	JMP  0x00
000032 940c 0000 	JMP  0x00
000034 940c 04ca 	JMP  _timer3_comparea_isr
000036 940c 0000 	JMP  0x00
000038 940c 0000 	JMP  0x00
00003a 940c 0000 	JMP  0x00
00003c 940c 0000 	JMP  0x00
00003e 940c 0000 	JMP  0x00
000040 940c 0000 	JMP  0x00
000042 940c 0000 	JMP  0x00
000044 940c 0000 	JMP  0x00
                 
                 _sine:
000046 8380
000047 8986
000048 8f8c
000049 9592      	.DB  0x80,0x83,0x86,0x89,0x8C,0x8F,0x92,0x95
00004a 9c98
00004b a29f
00004c a8a5
00004d aeab      	.DB  0x98,0x9C,0x9F,0xA2,0xA5,0xA8,0xAB,0xAE
00004e b3b0
00004f b9b6
000050 bfbc
000051 c4c1      	.DB  0xB0,0xB3,0xB6,0xB9,0xBC,0xBF,0xC1,0xC4
000052 c9c7
000053 cecc
000054 d3d1
000055 d8d5      	.DB  0xC7,0xC9,0xCC,0xCE,0xD1,0xD3,0xD5,0xD8
000056 dcda
000057 e0de
000058 e4e2
000059 e8e6      	.DB  0xDA,0xDC,0xDE,0xE0,0xE2,0xE4,0xE6,0xE8
00005a ecea
00005b efed
00005c f2f0
00005d f5f3      	.DB  0xEA,0xEC,0xED,0xEF,0xF0,0xF2,0xF3,0xF5
00005e f7f6
00005f f9f8
000060 fbfa
000061 fcfc      	.DB  0xF6,0xF7,0xF8,0xF9,0xFA,0xFB,0xFC,0xFC
000062 fefd
000063 fffe
000064 ffff
000065 ffff      	.DB  0xFD,0xFE,0xFE,0xFF,0xFF,0xFF,0xFF,0xFF
000066 ffff
000067 ffff
000068 ffff
000069 fefe      	.DB  0xFF,0xFF,0xFF,0xFF,0xFF,0xFF,0xFE,0xFE
00006a fcfd
00006b fbfc
00006c f9fa
00006d f7f8      	.DB  0xFD,0xFC,0xFC,0xFB,0xFA,0xF9,0xF8,0xF7
00006e f5f6
00006f f2f3
000070 eff0
000071 eced      	.DB  0xF6,0xF5,0xF3,0xF2,0xF0,0xEF,0xED,0xEC
000072 e8ea
000073 e4e6
000074 e0e2
000075 dcde      	.DB  0xEA,0xE8,0xE6,0xE4,0xE2,0xE0,0xDE,0xDC
000076 d8da
000077 d3d5
000078 ced1
000079 c9cc      	.DB  0xDA,0xD8,0xD5,0xD3,0xD1,0xCE,0xCC,0xC9
00007a c4c7
00007b bfc1
00007c b9bc
00007d b3b6      	.DB  0xC7,0xC4,0xC1,0xBF,0xBC,0xB9,0xB6,0xB3
00007e aeb0
00007f a8ab
000080 a2a5
000081 9c9f      	.DB  0xB0,0xAE,0xAB,0xA8,0xA5,0xA2,0x9F,0x9C
000082 9598
000083 8f92
000084 898c
000085 8386      	.DB  0x98,0x95,0x92,0x8F,0x8C,0x89,0x86,0x83
000086 7c80
000087 7679
000088 7073
000089 6a6d      	.DB  0x80,0x7C,0x79,0x76,0x73,0x70,0x6D,0x6A
00008a 6367
00008b 5d60
00008c 575a
00008d 5154      	.DB  0x67,0x63,0x60,0x5D,0x5A,0x57,0x54,0x51
00008e 4c4f
00008f 4649
000090 4043
000091 3b3e      	.DB  0x4F,0x4C,0x49,0x46,0x43,0x40,0x3E,0x3B
000092 3638
000093 3133
000094 2c2e
000095 272a      	.DB  0x38,0x36,0x33,0x31,0x2E,0x2C,0x2A,0x27
000096 2325
000097 1f21
000098 1b1d
000099 1719      	.DB  0x25,0x23,0x21,0x1F,0x1D,0x1B,0x19,0x17
00009a 1315
00009b 1012
00009c 0d0f
00009d 0a0c      	.DB  0x15,0x13,0x12,0x10,0xF,0xD,0xC,0xA
00009e 0809
00009f 0607
0000a0 0405
0000a1 0303      	.DB  0x9,0x8,0x7,0x6,0x5,0x4,0x3,0x3
0000a2 0102
0000a3 0001
0000a4 0000
0000a5 0000      	.DB  0x2,0x1,0x1,0x0,0x0,0x0,0x0,0x0
0000a6 0000
0000a7 0000
0000a8 0000
0000a9 0101      	.DB  0x0,0x0,0x0,0x0,0x0,0x0,0x1,0x1
0000aa 0302
0000ab 0403
0000ac 0605
0000ad 0807      	.DB  0x2,0x3,0x3,0x4,0x5,0x6,0x7,0x8
0000ae 0a09
0000af 0d0c
0000b0 100f
0000b1 1312      	.DB  0x9,0xA,0xC,0xD,0xF,0x10,0x12,0x13
0000b2 1715
0000b3 1b19
0000b4 1f1d
0000b5 2321      	.DB  0x15,0x17,0x19,0x1B,0x1D,0x1F,0x21,0x23
0000b6 2725
0000b7 2c2a
0000b8 312e
0000b9 3633      	.DB  0x25,0x27,0x2A,0x2C,0x2E,0x31,0x33,0x36
0000ba 3b38
0000bb 403e
0000bc 4643
0000bd 4c49      	.DB  0x38,0x3B,0x3E,0x40,0x43,0x46,0x49,0x4C
0000be 514f
0000bf 5754
0000c0 5d5a
0000c1 6360      	.DB  0x4F,0x51,0x54,0x57,0x5A,0x5D,0x60,0x63
0000c2 6a67
0000c3 706d
0000c4 7673
0000c5 7c79      	.DB  0x67,0x6A,0x6D,0x70,0x73,0x76,0x79,0x7C
                 _Timer_Value:
0000c6 f424
0000c7 cb73
0000c8 ae63
0000c9 9896      	.DB  0x24,0xF4,0x73,0xCB,0x63,0xAE,0x96,0x98
0000ca 87a2
0000cb 7a12
0000cc 6ef9
0000cd 65ba      	.DB  0xA2,0x87,0x12,0x7A,0xF9,0x6E,0xBA,0x65
0000ce 5de6
0000cf 5731
0000d0 5161
0000d1 4c4b      	.DB  0xE6,0x5D,0x31,0x57,0x61,0x51,0x4B,0x4C
0000d2 47ce
0000d3 43d1
0000d4 403f
0000d5 3d09      	.DB  0xCE,0x47,0xD1,0x43,0x3F,0x40,0x9,0x3D
0000d6 3a21
0000d7 377d
0000d8 3513
0000d9 32dd      	.DB  0x21,0x3A,0x7D,0x37,0x13,0x35,0xDD,0x32
0000da 30d4
0000db 2ef3
0000dc 2d36
0000dd 2b99      	.DB  0xD4,0x30,0xF3,0x2E,0x36,0x2D,0x99,0x2B
0000de 2a18
0000df 28b1
0000e0 2761
0000e1 2626      	.DB  0x18,0x2A,0xB1,0x28,0x61,0x27,0x26,0x26
0000e2 24fe
0000e3 23e7
0000e4 22e1
0000e5 21e9      	.DB  0xFE,0x24,0xE7,0x23,0xE1,0x22,0xE9,0x21
0000e6 20fe
0000e7 2020
0000e8 1f4d
0000e9 1e84      	.DB  0xFE,0x20,0x20,0x20,0x4D,0x1F,0x84,0x1E
0000ea 1dc6
0000eb 1d10
0000ec 1c63
0000ed 1bbe      	.DB  0xC6,0x1D,0x10,0x1D,0x63,0x1C,0xBE,0x1B
0000ee 1b20
0000ef 1a89
0000f0 19f9
0000f1 196e      	.DB  0x20,0x1B,0x89,0x1A,0xF9,0x19,0x6E,0x19
0000f2 18ea
0000f3 186a
0000f4 17ef
0000f5 177a      	.DB  0xEA,0x18,0x6A,0x18,0xEF,0x17,0x7A,0x17
0000f6 1708
0000f7 169b
0000f8 1632
0000f9 15cc      	.DB  0x8,0x17,0x9B,0x16,0x32,0x16,0xCC,0x15
0000fa 156a
0000fb 150c
0000fc 14b1
0000fd 1458      	.DB  0x6A,0x15,0xC,0x15,0xB1,0x14,0x58,0x14
0000fe 1403
0000ff 13b0
000100 1360
000101 1313      	.DB  0x3,0x14,0xB0,0x13,0x60,0x13,0x13,0x13
000102 12c8
000103 127f
000104 1238
000105 11f4      	.DB  0xC8,0x12,0x7F,0x12,0x38,0x12,0xF4,0x11
000106 11b1
000107 1170
000108 1131
000109 10f4      	.DB  0xB1,0x11,0x70,0x11,0x31,0x11,0xF4,0x10
00010a 10b9
00010b 107f
00010c 1047
00010d 1010      	.DB  0xB9,0x10,0x7F,0x10,0x47,0x10,0x10,0x10
00010e 0fda
00010f 0fa6
000110 0f74
000111 0f42      	.DB  0xDA,0xF,0xA6,0xF,0x74,0xF,0x42,0xF
000112 0f12
000113 0ee3
000114 0eb5
000115 0e88      	.DB  0x12,0xF,0xE3,0xE,0xB5,0xE,0x88,0xE
000116 0e5c
000117 0e32
000118 0e08
000119 0ddf      	.DB  0x5C,0xE,0x32,0xE,0x8,0xE,0xDF,0xD
00011a 0db7
00011b 0d90
00011c 0d6a
00011d 0d45      	.DB  0xB7,0xD,0x90,0xD,0x6A,0xD,0x45,0xD
00011e 0d20
00011f 0cfc
000120 0cd9
000121 0cb7      	.DB  0x20,0xD,0xFC,0xC,0xD9,0xC,0xB7,0xC
000122 0c96
000123 0c75
000124 0c55
000125 0c35      	.DB  0x96,0xC,0x75,0xC,0x55,0xC,0x35,0xC
000126 0c16
000127 0bf8
000128 0bda
000129 0bbd      	.DB  0x16,0xC,0xF8,0xB,0xDA,0xB,0xBD,0xB
00012a 0ba0
00012b 0b84
00012c 0b69
00012d 0b4e      	.DB  0xA0,0xB,0x84,0xB,0x69,0xB,0x4E,0xB
00012e 0b33
00012f 0b19
000130 0aff
000131 0ae6      	.DB  0x33,0xB,0x19,0xB,0xFF,0xA,0xE6,0xA
000132 0acd
000133 0ab5
000134 0a9d
000135 0a86      	.DB  0xCD,0xA,0xB5,0xA,0x9D,0xA,0x86,0xA
000136 0a6f
000137 0a58
000138 0a42
000139 0a2c      	.DB  0x6F,0xA,0x58,0xA,0x42,0xA,0x2C,0xA
00013a 0a17
00013b 0a01
00013c 09ed
00013d 09d8      	.DB  0x17,0xA,0x1,0xA,0xED,0x9,0xD8,0x9
00013e 09c4
00013f 09b0
000140 099d
000141 0989      	.DB  0xC4,0x9,0xB0,0x9,0x9D,0x9,0x89,0x9
000142 0976
000143 0964
000144 0951
000145 093f      	.DB  0x76,0x9,0x64,0x9,0x51,0x9,0x3F,0x9
000146 092e
000147 091c
000148 090b
000149 08fa      	.DB  0x2E,0x9,0x1C,0x9,0xB,0x9,0xFA,0x8
00014a 08e9
00014b 08d8
00014c 08c8
00014d 08b8      	.DB  0xE9,0x8,0xD8,0x8,0xC8,0x8,0xB8,0x8
00014e 08a8
00014f 0899
000150 0889
000151 087a      	.DB  0xA8,0x8,0x99,0x8,0x89,0x8,0x7A,0x8
000152 086b
000153 085c
000154 084e
000155 083f      	.DB  0x6B,0x8,0x5C,0x8,0x4E,0x8,0x3F,0x8
000156 0831
000157 0823
000158 0816
000159 0808      	.DB  0x31,0x8,0x23,0x8,0x16,0x8,0x8,0x8
00015a 07fa
00015b 07ed
00015c 07e0
00015d 07d3      	.DB  0xFA,0x7,0xED,0x7,0xE0,0x7,0xD3,0x7
00015e 07c6
00015f 07ba
000160 07ad
000161 07a1      	.DB  0xC6,0x7,0xBA,0x7,0xAD,0x7,0xA1,0x7
000162 0795
000163 0789
000164 077d
000165 0771      	.DB  0x95,0x7,0x89,0x7,0x7D,0x7,0x71,0x7
000166 0766
000167 075b
000168 074f
000169 0744      	.DB  0x66,0x7,0x5B,0x7,0x4F,0x7,0x44,0x7
00016a 0739
00016b 072e
00016c 0723
00016d 0719      	.DB  0x39,0x7,0x2E,0x7,0x23,0x7,0x19,0x7
00016e 070e
00016f 0704
000170 06fa
000171 06f0      	.DB  0xE,0x7,0x4,0x7,0xFA,0x6,0xF0,0x6
000172 06e6
000173 06dc
000174 06d2
000175 06c8      	.DB  0xE6,0x6,0xDC,0x6,0xD2,0x6,0xC8,0x6
000176 06bf
000177 06b5
000178 06ac
000179 06a2      	.DB  0xBF,0x6,0xB5,0x6,0xAC,0x6,0xA2,0x6
00017a 0699
00017b 0690
00017c 0687
00017d 067e      	.DB  0x99,0x6,0x90,0x6,0x87,0x6,0x7E,0x6
00017e 0675
00017f 066d
000180 0664
000181 065c      	.DB  0x75,0x6,0x6D,0x6,0x64,0x6,0x5C,0x6
000182 0653
000183 064b
000184 0643
000185 063a      	.DB  0x53,0x6,0x4B,0x6,0x43,0x6,0x3A,0x6
000186 0632
000187 062a
000188 0622
000189 0c35      	.DB  0x32,0x6,0x2A,0x6,0x22,0x6,0x35,0xC
00018a 0c25
00018b 0c16
00018c 0c07
00018d 0bf8      	.DB  0x25,0xC,0x16,0xC,0x7,0xC,0xF8,0xB
00018e 0be9
00018f 0bda
000190 0bcb
000191 0bbd      	.DB  0xE9,0xB,0xDA,0xB,0xCB,0xB,0xBD,0xB
000192 0bae
000193 0ba0
000194 0b92
000195 0b84      	.DB  0xAE,0xB,0xA0,0xB,0x92,0xB,0x84,0xB
000196 0b76
000197 0b69
000198 0b5b
000199 0b4e      	.DB  0x76,0xB,0x69,0xB,0x5B,0xB,0x4E,0xB
00019a 0b40
00019b 0b33
00019c 0b26
00019d 0b19      	.DB  0x40,0xB,0x33,0xB,0x26,0xB,0x19,0xB
00019e 0b0c
00019f 0aff
0001a0 0af3
0001a1 0ae6      	.DB  0xC,0xB,0xFF,0xA,0xF3,0xA,0xE6,0xA
0001a2 0ada
0001a3 0acd
0001a4 0ac1
0001a5 0ab5      	.DB  0xDA,0xA,0xCD,0xA,0xC1,0xA,0xB5,0xA
0001a6 0aa9
0001a7 0a9d
0001a8 0a92
0001a9 0a86      	.DB  0xA9,0xA,0x9D,0xA,0x92,0xA,0x86,0xA
0001aa 0a7a
0001ab 0a6f
0001ac 0a64
0001ad 0a58      	.DB  0x7A,0xA,0x6F,0xA,0x64,0xA,0x58,0xA
0001ae 0a4d
0001af 0a42
0001b0 0a37
0001b1 0a2c      	.DB  0x4D,0xA,0x42,0xA,0x37,0xA,0x2C,0xA
0001b2 0a21
0001b3 0a17
0001b4 0a0c
0001b5 0a01      	.DB  0x21,0xA,0x17,0xA,0xC,0xA,0x1,0xA
0001b6 09f7
0001b7 09ed
0001b8 09e2
0001b9 09d8      	.DB  0xF7,0x9,0xED,0x9,0xE2,0x9,0xD8,0x9
0001ba 09ce
0001bb 09c4
0001bc 09ba
0001bd 09b0      	.DB  0xCE,0x9,0xC4,0x9,0xBA,0x9,0xB0,0x9
0001be 09a6
0001bf 099d
0001c0 0993
0001c1 0989      	.DB  0xA6,0x9,0x9D,0x9,0x93,0x9,0x89,0x9
0001c2 0980
0001c3 0976
0001c4 096d
0001c5 0964      	.DB  0x80,0x9,0x76,0x9,0x6D,0x9,0x64,0x9
0001c6 095b
0001c7 0951
0001c8 0948
0001c9 093f      	.DB  0x5B,0x9,0x51,0x9,0x48,0x9,0x3F,0x9
0001ca 0936
0001cb 092e
0001cc 0925
0001cd 091c      	.DB  0x36,0x9,0x2E,0x9,0x25,0x9,0x1C,0x9
0001ce 0913
0001cf 090b
0001d0 0902
0001d1 08fa      	.DB  0x13,0x9,0xB,0x9,0x2,0x9,0xFA,0x8
0001d2 08f1
0001d3 08e9
0001d4 08e1
0001d5 08d8      	.DB  0xF1,0x8,0xE9,0x8,0xE1,0x8,0xD8,0x8
0001d6 08d0
0001d7 08c8
0001d8 08c0
0001d9 08b8      	.DB  0xD0,0x8,0xC8,0x8,0xC0,0x8,0xB8,0x8
0001da 08b0
0001db 08a8
0001dc 08a0
0001dd 0899      	.DB  0xB0,0x8,0xA8,0x8,0xA0,0x8,0x99,0x8
0001de 0891
0001df 0889
0001e0 0882
0001e1 087a      	.DB  0x91,0x8,0x89,0x8,0x82,0x8,0x7A,0x8
0001e2 0873
0001e3 086b
0001e4 0864
0001e5 085c      	.DB  0x73,0x8,0x6B,0x8,0x64,0x8,0x5C,0x8
0001e6 0855
0001e7 084e
0001e8 0847
0001e9 083f      	.DB  0x55,0x8,0x4E,0x8,0x47,0x8,0x3F,0x8
0001ea 0838
0001eb 0831
0001ec 082a
0001ed 0823      	.DB  0x38,0x8,0x31,0x8,0x2A,0x8,0x23,0x8
0001ee 081c
0001ef 0816
0001f0 080f
0001f1 0808      	.DB  0x1C,0x8,0x16,0x8,0xF,0x8,0x8,0x8
0001f2 0801
0001f3 07fa
0001f4 07f4
0001f5 07ed      	.DB  0x1,0x8,0xFA,0x7,0xF4,0x7,0xED,0x7
0001f6 07e7
0001f7 07e0
0001f8 07da
0001f9 07d3      	.DB  0xE7,0x7,0xE0,0x7,0xDA,0x7,0xD3,0x7
0001fa 07cd
0001fb 07c6
0001fc 07c0
0001fd 07ba      	.DB  0xCD,0x7,0xC6,0x7,0xC0,0x7,0xBA,0x7
0001fe 07b4
0001ff 07ad
000200 07a7
000201 07a1      	.DB  0xB4,0x7,0xAD,0x7,0xA7,0x7,0xA1,0x7
000202 079b
000203 0795
000204 078f
000205 0789      	.DB  0x9B,0x7,0x95,0x7,0x8F,0x7,0x89,0x7
000206 0783
000207 077d
000208 0777
000209 0771      	.DB  0x83,0x7,0x7D,0x7,0x77,0x7,0x71,0x7
00020a 076c
00020b 0766
00020c 0760
00020d 075b      	.DB  0x6C,0x7,0x66,0x7,0x60,0x7,0x5B,0x7
00020e 0755
00020f 074f
000210 074a
000211 0744      	.DB  0x55,0x7,0x4F,0x7,0x4A,0x7,0x44,0x7
000212 073f
000213 0739
000214 0734
000215 072e      	.DB  0x3F,0x7,0x39,0x7,0x34,0x7,0x2E,0x7
000216 0729
000217 0723
000218 071e
000219 0719      	.DB  0x29,0x7,0x23,0x7,0x1E,0x7,0x19,0x7
00021a 0714
00021b 070e
00021c 0709
00021d 0704      	.DB  0x14,0x7,0xE,0x7,0x9,0x7,0x4,0x7
00021e 06ff
00021f 06fa
000220 06f5
000221 06f0      	.DB  0xFF,0x6,0xFA,0x6,0xF5,0x6,0xF0,0x6
000222 06eb
000223 06e6
000224 06e1
000225 06dc      	.DB  0xEB,0x6,0xE6,0x6,0xE1,0x6,0xDC,0x6
000226 06d7
000227 06d2
000228 06cd
000229 06c8      	.DB  0xD7,0x6,0xD2,0x6,0xCD,0x6,0xC8,0x6
00022a 06c3
00022b 06bf
00022c 06ba
00022d 06b5      	.DB  0xC3,0x6,0xBF,0x6,0xBA,0x6,0xB5,0x6
00022e 06b0
00022f 06ac
000230 06a7
000231 06a2      	.DB  0xB0,0x6,0xAC,0x6,0xA7,0x6,0xA2,0x6
000232 069e
000233 0699
000234 0695
000235 0690      	.DB  0x9E,0x6,0x99,0x6,0x95,0x6,0x90,0x6
000236 068c
000237 0687
000238 0683
000239 067e      	.DB  0x8C,0x6,0x87,0x6,0x83,0x6,0x7E,0x6
00023a 067a
00023b 0675
00023c 0671
00023d 066d      	.DB  0x7A,0x6,0x75,0x6,0x71,0x6,0x6D,0x6
00023e 0668
00023f 0664
000240 0660
000241 065c      	.DB  0x68,0x6,0x64,0x6,0x60,0x6,0x5C,0x6
000242 0657
000243 0653
000244 064f
000245 064b      	.DB  0x57,0x6,0x53,0x6,0x4F,0x6,0x4B,0x6
000246 0647
000247 0643
000248 063e
000249 063a      	.DB  0x47,0x6,0x43,0x6,0x3E,0x6,0x3A,0x6
00024a 0636
00024b 0632
00024c 062e
00024d 062a      	.DB  0x36,0x6,0x32,0x6,0x2E,0x6,0x2A,0x6
00024e 0626
00024f 0622
000250 061e
000251 0c35      	.DB  0x26,0x6,0x22,0x6,0x1E,0x6,0x35,0xC
000252 0c2d
000253 0c25
000254 0c1e
000255 0c16      	.DB  0x2D,0xC,0x25,0xC,0x1E,0xC,0x16,0xC
000256 0c0e
000257 0c07
000258 0bff
000259 0bf8      	.DB  0xE,0xC,0x7,0xC,0xFF,0xB,0xF8,0xB
00025a 0bf0
00025b 0be9
00025c 0be1
00025d 0bda      	.DB  0xF0,0xB,0xE9,0xB,0xE1,0xB,0xDA,0xB
00025e 0bd3
00025f 0bcb
000260 0bc4
000261 0bbd      	.DB  0xD3,0xB,0xCB,0xB,0xC4,0xB,0xBD,0xB
000262 0bb6
000263 0bae
000264 0ba7
000265 0ba0      	.DB  0xB6,0xB,0xAE,0xB,0xA7,0xB,0xA0,0xB
000266 0b99
000267 0b92
000268 0b8b
000269 0b84      	.DB  0x99,0xB,0x92,0xB,0x8B,0xB,0x84,0xB
00026a 0b7d
00026b 0b76
00026c 0b6f
00026d 0b69      	.DB  0x7D,0xB,0x76,0xB,0x6F,0xB,0x69,0xB
00026e 0b62
00026f 0b5b
000270 0b54
000271 0b4e      	.DB  0x62,0xB,0x5B,0xB,0x54,0xB,0x4E,0xB
000272 0b47
000273 0b40
000274 0b3a
000275 0b33      	.DB  0x47,0xB,0x40,0xB,0x3A,0xB,0x33,0xB
000276 0b2c
000277 0b26
000278 0b1f
000279 0b19      	.DB  0x2C,0xB,0x26,0xB,0x1F,0xB,0x19,0xB
00027a 0b12
00027b 0b0c
00027c 0b06
00027d 0aff      	.DB  0x12,0xB,0xC,0xB,0x6,0xB,0xFF,0xA
00027e 0af9
00027f 0af3
000280 0aec
000281 0ae6      	.DB  0xF9,0xA,0xF3,0xA,0xEC,0xA,0xE6,0xA
000282 0ae0
000283 0ada
000284 0ad4
000285 0acd      	.DB  0xE0,0xA,0xDA,0xA,0xD4,0xA,0xCD,0xA
000286 0ac7
000287 0ac1
000288 0abb
000289 0ab5      	.DB  0xC7,0xA,0xC1,0xA,0xBB,0xA,0xB5,0xA
00028a 0aaf
00028b 0aa9
00028c 0aa3
00028d 0a9d      	.DB  0xAF,0xA,0xA9,0xA,0xA3,0xA,0x9D,0xA
00028e 0a97
00028f 0a92
000290 0a8c
000291 0a86      	.DB  0x97,0xA,0x92,0xA,0x8C,0xA,0x86,0xA
000292 0a80
000293 0a7a
000294 0a75
000295 0a6f      	.DB  0x80,0xA,0x7A,0xA,0x75,0xA,0x6F,0xA
000296 0a69
000297 0a64
000298 0a5e
000299 0a58      	.DB  0x69,0xA,0x64,0xA,0x5E,0xA,0x58,0xA
00029a 0a53
00029b 0a4d
00029c 0a48
00029d 0a42      	.DB  0x53,0xA,0x4D,0xA,0x48,0xA,0x42,0xA
00029e 0a3d
00029f 0a37
0002a0 0a32
0002a1 0a2c      	.DB  0x3D,0xA,0x37,0xA,0x32,0xA,0x2C,0xA
0002a2 0a27
0002a3 0a21
0002a4 0a1c
0002a5 0a17      	.DB  0x27,0xA,0x21,0xA,0x1C,0xA,0x17,0xA
0002a6 0a11
0002a7 0a0c
0002a8 0a07
0002a9 0a01      	.DB  0x11,0xA,0xC,0xA,0x7,0xA,0x1,0xA
0002aa 09fc
0002ab 09f7
0002ac 09f2
0002ad 09ed      	.DB  0xFC,0x9,0xF7,0x9,0xF2,0x9,0xED,0x9
0002ae 09e7
0002af 09e2
0002b0 09dd
0002b1 09d8      	.DB  0xE7,0x9,0xE2,0x9,0xDD,0x9,0xD8,0x9
0002b2 09d3
0002b3 09ce
0002b4 09c9
0002b5 09c4      	.DB  0xD3,0x9,0xCE,0x9,0xC9,0x9,0xC4,0x9
0002b6 09bf
0002b7 09ba
0002b8 09b5
0002b9 09b0      	.DB  0xBF,0x9,0xBA,0x9,0xB5,0x9,0xB0,0x9
0002ba 09ab
0002bb 09a6
0002bc 09a1
0002bd 099d      	.DB  0xAB,0x9,0xA6,0x9,0xA1,0x9,0x9D,0x9
0002be 0998
0002bf 0993
0002c0 098e
0002c1 0989      	.DB  0x98,0x9,0x93,0x9,0x8E,0x9,0x89,0x9
0002c2 0985
0002c3 0980
0002c4 097b
0002c5 0976      	.DB  0x85,0x9,0x80,0x9,0x7B,0x9,0x76,0x9
0002c6 0972
0002c7 096d
0002c8 0968
0002c9 0964      	.DB  0x72,0x9,0x6D,0x9,0x68,0x9,0x64,0x9
0002ca 095f
0002cb 095b
0002cc 0956
0002cd 0951      	.DB  0x5F,0x9,0x5B,0x9,0x56,0x9,0x51,0x9
0002ce 094d
0002cf 0948
0002d0 0944
0002d1 093f      	.DB  0x4D,0x9,0x48,0x9,0x44,0x9,0x3F,0x9
0002d2 093b
0002d3 0936
0002d4 0932
0002d5 092e      	.DB  0x3B,0x9,0x36,0x9,0x32,0x9,0x2E,0x9
0002d6 0929
0002d7 0925
0002d8 0920
0002d9 091c      	.DB  0x29,0x9,0x25,0x9,0x20,0x9,0x1C,0x9
0002da 0918
0002db 0913
0002dc 090f
0002dd 090b      	.DB  0x18,0x9,0x13,0x9,0xF,0x9,0xB,0x9
0002de 0907
0002df 0902
0002e0 08fe
0002e1 08fa      	.DB  0x7,0x9,0x2,0x9,0xFE,0x8,0xFA,0x8
0002e2 08f6
0002e3 08f1
0002e4 08ed
0002e5 08e9      	.DB  0xF6,0x8,0xF1,0x8,0xED,0x8,0xE9,0x8
0002e6 08e5
0002e7 08e1
0002e8 08dd
0002e9 08d8      	.DB  0xE5,0x8,0xE1,0x8,0xDD,0x8,0xD8,0x8
0002ea 08d4
0002eb 08d0
0002ec 08cc
0002ed 08c8      	.DB  0xD4,0x8,0xD0,0x8,0xCC,0x8,0xC8,0x8
0002ee 08c4
0002ef 08c0
0002f0 08bc
0002f1 08b8      	.DB  0xC4,0x8,0xC0,0x8,0xBC,0x8,0xB8,0x8
0002f2 08b4
0002f3 08b0
0002f4 08ac
0002f5 08a8      	.DB  0xB4,0x8,0xB0,0x8,0xAC,0x8,0xA8,0x8
0002f6 08a4
0002f7 08a0
0002f8 089d
0002f9 0899      	.DB  0xA4,0x8,0xA0,0x8,0x9D,0x8,0x99,0x8
0002fa 0895
0002fb 0891
0002fc 088d
0002fd 0889      	.DB  0x95,0x8,0x91,0x8,0x8D,0x8,0x89,0x8
0002fe 0886
0002ff 0882
000300 087e
000301 087a      	.DB  0x86,0x8,0x82,0x8,0x7E,0x8,0x7A,0x8
000302 0876
000303 0873
000304 086f
000305 086b      	.DB  0x76,0x8,0x73,0x8,0x6F,0x8,0x6B,0x8
000306 0867
000307 0864
000308 0860
000309 085c      	.DB  0x67,0x8,0x64,0x8,0x60,0x8,0x5C,0x8
00030a 0859
00030b 0855
00030c 0851
00030d 084e      	.DB  0x59,0x8,0x55,0x8,0x51,0x8,0x4E,0x8
00030e 084a
00030f 0847
000310 0843
000311 083f      	.DB  0x4A,0x8,0x47,0x8,0x43,0x8,0x3F,0x8
000312 083c
000313 0838
000314 0835
000315 0831      	.DB  0x3C,0x8,0x38,0x8,0x35,0x8,0x31,0x8
000316 082e
000317 082a
000318 0827
000319 1047      	.DB  0x2E,0x8,0x2A,0x8,0x27,0x8,0x47,0x10
00031a 1040
00031b 1039
00031c 1032
00031d 102b      	.DB  0x40,0x10,0x39,0x10,0x32,0x10,0x2B,0x10
00031e 1024
00031f 101d
000320 1017
000321 1010      	.DB  0x24,0x10,0x1D,0x10,0x17,0x10,0x10,0x10
000322 1009
000323 1002
000324 0ffc
000325 0ff5      	.DB  0x9,0x10,0x2,0x10,0xFC,0xF,0xF5,0xF
000326 0fee
000327 0fe8
000328 0fe1
000329 0fda      	.DB  0xEE,0xF,0xE8,0xF,0xE1,0xF,0xDA,0xF
00032a 0fd4
00032b 0fcd
00032c 0fc7
00032d 0fc0      	.DB  0xD4,0xF,0xCD,0xF,0xC7,0xF,0xC0,0xF
00032e 0fba
00032f 0fb3
000330 0fad
000331 0fa6      	.DB  0xBA,0xF,0xB3,0xF,0xAD,0xF,0xA6,0xF
000332 0fa0
000333 0f9a
000334 0f93
000335 0f8d      	.DB  0xA0,0xF,0x9A,0xF,0x93,0xF,0x8D,0xF
000336 0f87
000337 0f80
000338 0f7a
000339 0f74      	.DB  0x87,0xF,0x80,0xF,0x7A,0xF,0x74,0xF
00033a 0f6d
00033b 0f67
00033c 0f61
00033d 0f5b      	.DB  0x6D,0xF,0x67,0xF,0x61,0xF,0x5B,0xF
00033e 0f55
00033f 0f4e
000340 0f48
000341 0f42      	.DB  0x55,0xF,0x4E,0xF,0x48,0xF,0x42,0xF
000342 0f3c
000343 0f36
000344 0f30
000345 0f2a      	.DB  0x3C,0xF,0x36,0xF,0x30,0xF,0x2A,0xF
000346 0f24
000347 0f1e
000348 0f18
000349 0f12      	.DB  0x24,0xF,0x1E,0xF,0x18,0xF,0x12,0xF
00034a 0f0c
00034b 0f06
00034c 0f00
00034d 0efa      	.DB  0xC,0xF,0x6,0xF,0x0,0xF,0xFA,0xE
00034e 0ef4
00034f 0eef
000350 0ee9
000351 0ee3      	.DB  0xF4,0xE,0xEF,0xE,0xE9,0xE,0xE3,0xE
000352 0edd
000353 0ed7
000354 0ed2
000355 0ecc      	.DB  0xDD,0xE,0xD7,0xE,0xD2,0xE,0xCC,0xE
000356 0ec6
000357 0ec0
000358 0ebb
000359 0eb5      	.DB  0xC6,0xE,0xC0,0xE,0xBB,0xE,0xB5,0xE
00035a 0eaf
00035b 0eaa
00035c 0ea4
00035d 0e9f      	.DB  0xAF,0xE,0xAA,0xE,0xA4,0xE,0x9F,0xE
00035e 0e99
00035f 0e93
000360 0e8e
000361 0e88      	.DB  0x99,0xE,0x93,0xE,0x8E,0xE,0x88,0xE
000362 0e83
000363 0e7d
000364 0e78
000365 0e72      	.DB  0x83,0xE,0x7D,0xE,0x78,0xE,0x72,0xE
000366 0e6d
000367 0e67
000368 0e62
000369 0e5c      	.DB  0x6D,0xE,0x67,0xE,0x62,0xE,0x5C,0xE
00036a 0e57
00036b 0e52
00036c 0e4c
00036d 0e47      	.DB  0x57,0xE,0x52,0xE,0x4C,0xE,0x47,0xE
00036e 0e42
00036f 0e3c
000370 0e37
000371 0e32      	.DB  0x42,0xE,0x3C,0xE,0x37,0xE,0x32,0xE
000372 0e2c
000373 0e27
000374 0e22
000375 0e1d      	.DB  0x2C,0xE,0x27,0xE,0x22,0xE,0x1D,0xE
000376 0e18
000377 0e12
000378 0e0d
000379 0e08      	.DB  0x18,0xE,0x12,0xE,0xD,0xE,0x8,0xE
00037a 0e03
00037b 0dfe
00037c 0df9
00037d 0df3      	.DB  0x3,0xE,0xFE,0xD,0xF9,0xD,0xF3,0xD
00037e 0dee
00037f 0de9
000380 0de4
000381 0ddf      	.DB  0xEE,0xD,0xE9,0xD,0xE4,0xD,0xDF,0xD
000382 0dda
000383 0dd5
000384 0dd0
000385 0dcb      	.DB  0xDA,0xD,0xD5,0xD,0xD0,0xD,0xCB,0xD
000386 0dc6
000387 0dc1
000388 0dbc
000389 0db7      	.DB  0xC6,0xD,0xC1,0xD,0xBC,0xD,0xB7,0xD
00038a 0db2
00038b 0dad
00038c 0da9
00038d 0da4      	.DB  0xB2,0xD,0xAD,0xD,0xA9,0xD,0xA4,0xD
00038e 0d9f
00038f 0d9a
000390 0d95
000391 0d90      	.DB  0x9F,0xD,0x9A,0xD,0x95,0xD,0x90,0xD
000392 0d8b
000393 0d87
000394 0d82
000395 0d7d      	.DB  0x8B,0xD,0x87,0xD,0x82,0xD,0x7D,0xD
000396 0d78
000397 0d74
000398 0d6f
000399 0d6a      	.DB  0x78,0xD,0x74,0xD,0x6F,0xD,0x6A,0xD
00039a 0d65
00039b 0d61
00039c 0d5c
00039d 0d57      	.DB  0x65,0xD,0x61,0xD,0x5C,0xD,0x57,0xD
00039e 0d53
00039f 0d4e
0003a0 0d49
0003a1 0d45      	.DB  0x53,0xD,0x4E,0xD,0x49,0xD,0x45,0xD
0003a2 0d40
0003a3 0d3c
0003a4 0d37
0003a5 0d32      	.DB  0x40,0xD,0x3C,0xD,0x37,0xD,0x32,0xD
0003a6 0d2e
0003a7 0d29
0003a8 0d25
0003a9 0d20      	.DB  0x2E,0xD,0x29,0xD,0x25,0xD,0x20,0xD
0003aa 0d1c
0003ab 0d17
0003ac 0d13
0003ad 0d0e      	.DB  0x1C,0xD,0x17,0xD,0x13,0xD,0xE,0xD
0003ae 0d0a
0003af 0d05
0003b0 0d01
0003b1 0cfc      	.DB  0xA,0xD,0x5,0xD,0x1,0xD,0xFC,0xC
0003b2 0cf8
0003b3 0cf4
0003b4 0cef
0003b5 0ceb      	.DB  0xF8,0xC,0xF4,0xC,0xEF,0xC,0xEB,0xC
0003b6 0ce7
0003b7 0ce2
0003b8 0cde
0003b9 0cd9      	.DB  0xE7,0xC,0xE2,0xC,0xDE,0xC,0xD9,0xC
0003ba 0cd5
0003bb 0cd1
0003bc 0ccd
0003bd 0cc8      	.DB  0xD5,0xC,0xD1,0xC,0xCD,0xC,0xC8,0xC
0003be 0cc4
0003bf 0cc0
0003c0 0cbb
0003c1 0cb7      	.DB  0xC4,0xC,0xC0,0xC,0xBB,0xC,0xB7,0xC
0003c2 0cb3
0003c3 0caf
0003c4 0cab
0003c5 0ca6      	.DB  0xB3,0xC,0xAF,0xC,0xAB,0xC,0xA6,0xC
0003c6 0ca2
0003c7 0c9e
0003c8 0c9a
0003c9 0c96      	.DB  0xA2,0xC,0x9E,0xC,0x9A,0xC,0x96,0xC
0003ca 0c92
0003cb 0c8d
0003cc 0c89
0003cd 0c85      	.DB  0x92,0xC,0x8D,0xC,0x89,0xC,0x85,0xC
0003ce 0c81
0003cf 0c7d
0003d0 0c79
0003d1 0c75      	.DB  0x81,0xC,0x7D,0xC,0x79,0xC,0x75,0xC
0003d2 0c71
0003d3 0c6d
0003d4 0c69
0003d5 0c65      	.DB  0x71,0xC,0x6D,0xC,0x69,0xC,0x65,0xC
0003d6 0c61
0003d7 0c5d
0003d8 0c59
0003d9 0c55      	.DB  0x61,0xC,0x5D,0xC,0x59,0xC,0x55,0xC
0003da 0c51
0003db 0c4d
0003dc 0c49
0003dd 0c45      	.DB  0x51,0xC,0x4D,0xC,0x49,0xC,0x45,0xC
0003de 0c41
0003df 0c3d
0003e0 0c39
0003e1 186a      	.DB  0x41,0xC,0x3D,0xC,0x39,0xC,0x6A,0x18
0003e2 1862
0003e3 185a
0003e4 1853
0003e5 184b      	.DB  0x62,0x18,0x5A,0x18,0x53,0x18,0x4B,0x18
0003e6 1843
0003e7 183b
0003e8 1834
0003e9 182c      	.DB  0x43,0x18,0x3B,0x18,0x34,0x18,0x2C,0x18
0003ea 1824
0003eb 181d
0003ec 1815
0003ed 180e      	.DB  0x24,0x18,0x1D,0x18,0x15,0x18,0xE,0x18
0003ee 1806
0003ef 17ff
0003f0 17f7
0003f1 17ef      	.DB  0x6,0x18,0xFF,0x17,0xF7,0x17,0xEF,0x17
0003f2 17e8
0003f3 17e0
0003f4 17d9
0003f5 17d2      	.DB  0xE8,0x17,0xE0,0x17,0xD9,0x17,0xD2,0x17
0003f6 17ca
0003f7 17c3
0003f8 17bb
0003f9 17b4      	.DB  0xCA,0x17,0xC3,0x17,0xBB,0x17,0xB4,0x17
0003fa 17ad
0003fb 17a5
0003fc 179e
0003fd 1797      	.DB  0xAD,0x17,0xA5,0x17,0x9E,0x17,0x97,0x17
0003fe 178f
0003ff 1788
000400 1781
000401 177a      	.DB  0x8F,0x17,0x88,0x17,0x81,0x17,0x7A,0x17
000402 1772
000403 176b
000404 1764
000405 175d      	.DB  0x72,0x17,0x6B,0x17,0x64,0x17,0x5D,0x17
000406 1756
000407 174f
000408 1747
000409 1740      	.DB  0x56,0x17,0x4F,0x17,0x47,0x17,0x40,0x17
00040a 1739
00040b 1732
00040c 172b
00040d 1724      	.DB  0x39,0x17,0x32,0x17,0x2B,0x17,0x24,0x17
00040e 171d
00040f 1716
000410 170f
000411 1708      	.DB  0x1D,0x17,0x16,0x17,0xF,0x17,0x8,0x17
000412 1701
000413 16fa
000414 16f3
000415 16ed      	.DB  0x1,0x17,0xFA,0x16,0xF3,0x16,0xED,0x16
000416 16e6
000417 16df
000418 16d8
000419 16d1      	.DB  0xE6,0x16,0xDF,0x16,0xD8,0x16,0xD1,0x16
00041a 16ca
00041b 16c4
00041c 16bd
00041d 16b6      	.DB  0xCA,0x16,0xC4,0x16,0xBD,0x16,0xB6,0x16
00041e 16af
00041f 16a8
000420 16a2
000421 169b      	.DB  0xAF,0x16,0xA8,0x16,0xA2,0x16,0x9B,0x16
000422 1694
000423 168e
000424 1687
000425 1680      	.DB  0x94,0x16,0x8E,0x16,0x87,0x16,0x80,0x16
000426 167a
000427 1673
000428 166d
000429 1666      	.DB  0x7A,0x16,0x73,0x16,0x6D,0x16,0x66,0x16
00042a 165f
00042b 1659
00042c 1652
00042d 164c      	.DB  0x5F,0x16,0x59,0x16,0x52,0x16,0x4C,0x16
00042e 1645
00042f 163f
000430 1638
000431 1632      	.DB  0x45,0x16,0x3F,0x16,0x38,0x16,0x32,0x16
000432 162b
000433 1625
000434 161f
000435 1618      	.DB  0x2B,0x16,0x25,0x16,0x1F,0x16,0x18,0x16
000436 1612
000437 160b
000438 1605
000439 15ff      	.DB  0x12,0x16,0xB,0x16,0x5,0x16,0xFF,0x15
00043a 15f8
00043b 15f2
00043c 15ec
00043d 15e5      	.DB  0xF8,0x15,0xF2,0x15,0xEC,0x15,0xE5,0x15
00043e 15df
00043f 15d9
000440 15d3
000441 15cc      	.DB  0xDF,0x15,0xD9,0x15,0xD3,0x15,0xCC,0x15
000442 15c6
000443 15c0
000444 15ba
000445 15b4      	.DB  0xC6,0x15,0xC0,0x15,0xBA,0x15,0xB4,0x15
000446 15ad
000447 15a7
000448 15a1
000449 159b      	.DB  0xAD,0x15,0xA7,0x15,0xA1,0x15,0x9B,0x15
00044a 1595
00044b 158f
00044c 1589
00044d 1583      	.DB  0x95,0x15,0x8F,0x15,0x89,0x15,0x83,0x15
00044e 157d
00044f 1577
000450 1570
000451 156a      	.DB  0x7D,0x15,0x77,0x15,0x70,0x15,0x6A,0x15
000452 1564
000453 155e
000454 1558
000455 1553      	.DB  0x64,0x15,0x5E,0x15,0x58,0x15,0x53,0x15
000456 154d
000457 1547
000458 1541
000459 153b      	.DB  0x4D,0x15,0x47,0x15,0x41,0x15,0x3B,0x15
00045a 1535
00045b 152f
00045c 1529
00045d 1523      	.DB  0x35,0x15,0x2F,0x15,0x29,0x15,0x23,0x15
00045e 151d
00045f 1518
000460 1512
000461 150c      	.DB  0x1D,0x15,0x18,0x15,0x12,0x15,0xC,0x15
000462 1506
000463 1500
000464 14fb
000465 14f5      	.DB  0x6,0x15,0x0,0x15,0xFB,0x14,0xF5,0x14
000466 14ef
000467 14e9
000468 14e4
000469 14de      	.DB  0xEF,0x14,0xE9,0x14,0xE4,0x14,0xDE,0x14
00046a 14d8
00046b 14d2
00046c 14cd
00046d 14c7      	.DB  0xD8,0x14,0xD2,0x14,0xCD,0x14,0xC7,0x14
00046e 14c1
00046f 14bc
000470 14b6
000471 14b1      	.DB  0xC1,0x14,0xBC,0x14,0xB6,0x14,0xB1,0x14
000472 14ab
000473 14a5
000474 14a0
000475 149a      	.DB  0xAB,0x14,0xA5,0x14,0xA0,0x14,0x9A,0x14
000476 1495
000477 148f
000478 148a
000479 1484      	.DB  0x95,0x14,0x8F,0x14,0x8A,0x14,0x84,0x14
00047a 147f
00047b 1479
00047c 1474
00047d 146e      	.DB  0x7F,0x14,0x79,0x14,0x74,0x14,0x6E,0x14
00047e 1469
00047f 1463
000480 145e
000481 1458      	.DB  0x69,0x14,0x63,0x14,0x5E,0x14,0x58,0x14
000482 1453
000483 144e
000484 1448
000485 1443      	.DB  0x53,0x14,0x4E,0x14,0x48,0x14,0x43,0x14
000486 143d
000487 1438
000488 1433
000489 142d      	.DB  0x3D,0x14,0x38,0x14,0x33,0x14,0x2D,0x14
00048a 1428
00048b 1423
00048c 141d
00048d 1418      	.DB  0x28,0x14,0x23,0x14,0x1D,0x14,0x18,0x14
00048e 1413
00048f 140d
000490 1408
000491 1403      	.DB  0x13,0x14,0xD,0x14,0x8,0x14,0x3,0x14
000492 13fe
000493 13f8
000494 13f3
000495 13ee      	.DB  0xFE,0x13,0xF8,0x13,0xF3,0x13,0xEE,0x13
000496 13e9
000497 13e4
000498 13de
000499 13d9      	.DB  0xE9,0x13,0xE4,0x13,0xDE,0x13,0xD9,0x13
00049a 13d4
00049b 13cf
00049c 13ca
00049d 13c5      	.DB  0xD4,0x13,0xCF,0x13,0xCA,0x13,0xC5,0x13
00049e 13c0
00049f 13bb
0004a0 13b5
0004a1 13b0      	.DB  0xC0,0x13,0xBB,0x13,0xB5,0x13,0xB0,0x13
0004a2 13ab
0004a3 13a6
0004a4 13a1
0004a5 139c      	.DB  0xAB,0x13,0xA6,0x13,0xA1,0x13,0x9C,0x13
0004a6 1397
0004a7 1392
0004a8 138d
0004a9 1388      	.DB  0x97,0x13,0x92,0x13,0x8D,0x13,0x88,0x13
                 
                 __RESET:
0004aa 94f8      	CLI
0004ab 27ee      	CLR  R30
0004ac bbec      	OUT  EECR,R30
                 
                 ;INTERRUPT VECTORS ARE PLACED
                 ;AT THE START OF FLASH
0004ad e0f1      	LDI  R31,1
0004ae bff5      	OUT  MCUCR,R31
0004af bfe5      	OUT  MCUCR,R30
0004b0 93e0 006c 	STS  XMCRB,R30
                 
                 ;DISABLE WATCHDOG
0004b2 e1f8      	LDI  R31,0x18
0004b3 bdf1      	OUT  WDTCR,R31
0004b4 bde1      	OUT  WDTCR,R30
                 
                 ;CLEAR R2-R14
0004b5 e08d      	LDI  R24,(14-2)+1
0004b6 e0a2      	LDI  R26,2
0004b7 27bb      	CLR  R27
                 __CLEAR_REG:
0004b8 93ed      	ST   X+,R30
0004b9 958a      	DEC  R24
0004ba f7e9      	BRNE __CLEAR_REG
                 
                 ;CLEAR SRAM
0004bb e080      	LDI  R24,LOW(__CLEAR_SRAM_SIZE)
0004bc e190      	LDI  R25,HIGH(__CLEAR_SRAM_SIZE)
0004bd e0a0      	LDI  R26,LOW(__SRAM_START)
0004be e0b1      	LDI  R27,HIGH(__SRAM_START)
                 __CLEAR_SRAM:
0004bf 93ed      	ST   X+,R30
0004c0 9701      	SBIW R24,1
0004c1 f7e9      	BRNE __CLEAR_SRAM
                 
                 ;HARDWARE STACK POINTER INITIALIZATION
0004c2 efef      	LDI  R30,LOW(__SRAM_END-__HEAP_SIZE)
0004c3 bfed      	OUT  SPL,R30
0004c4 e1e0      	LDI  R30,HIGH(__SRAM_END-__HEAP_SIZE)
0004c5 bfee      	OUT  SPH,R30
                 
                 ;DATA STACK POINTER INITIALIZATION
0004c6 e0c0      	LDI  R28,LOW(__SRAM_START+__DSTACK_SIZE)
0004c7 e0d5      	LDI  R29,HIGH(__SRAM_START+__DSTACK_SIZE)
                 
0004c8 940c 05da 	JMP  _main
                 
                 	.ESEG
                 	.ORG 0
                 
                 	.DSEG
                 	.ORG 0x500
                 
                 	.CSEG
                 ;/* Written by : OZHAN KD
                 ;   www.KnowledgePlus.ir
                 ;
                 ;   Oct 4, 2012
                 ;   Timer3 mode changed to Fast PWM (due to problems in frequency change)
                 ;   Modification in amplitude calculation
                 ;
                 ;   Jul 4,2012
                 ;   Bug fixed
                 ;
                 ;   Linear V/f curve
                 ;
                 ;   3 phase SPWM outputs on OCR1A,OCR1B,OCR1C V1.0 2011
                 ;   Carrier frequency = 15.6 KHz
                 ;   Sine frequency range = 0.5-100Hz with 0.1Hz step
                 ;   PWM resolution = 8bit
                 ;   mega64 oscillator frequency = 8MHz
                 ;   Frequency varies by applied voltage to ADC0(PF0)
                 ;   ADC Vref = AVcc
                 ;   ADC result<14 ---> output off
                 ;   ADC result: 14-1009 ---> f: 0.5 Hz - 100 Hz
                 ;   ADC result>1009 ---> f=100 Hz
                 ;*/
                 ;
                 ;#include <mega64.h>
                 	#ifndef __SLEEP_DEFINED__
                 	#define __SLEEP_DEFINED__
                 	.EQU __se_bit=0x20
                 	.EQU __sm_mask=0x1C
                 	.EQU __sm_powerdown=0x10
                 	.EQU __sm_powersave=0x18
                 	.EQU __sm_standby=0x14
                 	.EQU __sm_ext_standby=0x1C
                 	.EQU __sm_adc_noise_red=0x08
                 	.SET power_ctrl_reg=mcucr
                 	#endif
                 ;unsigned char A_calc(unsigned char,unsigned char);
                 ;
                 ;#define freq_Base 50U   // 50Hz
                 ;#define freq_Boost 10U  // 10Hz
                 ;#define A_Boost 25UL  //
                 ;#define f_Base (freq_Base * 10U -5U)
                 ;#define f_Boost (freq_Boost * 10U -5U)
                 ;#define N (255UL-A_Boost)
                 ;#define M (f_Base-f_Boost)
                 ;
                 ;volatile unsigned int speed;
                 ;
                 ;flash unsigned char sine[256]={
                 ;0x80,0x83,0x86,0x89,0x8c,0x8f,0x92,0x95,0x98,0x9c,0x9f,0xa2,0xa5,0xa8,0xab,0xae,
                 ;0xb0,0xb3,0xb6,0xb9,0xbc,0xbf,0xc1,0xc4,0xc7,0xc9,0xcc,0xce,0xd1,0xd3,0xd5,0xd8,
                 ;0xda,0xdc,0xde,0xe0,0xe2,0xe4,0xe6,0xe8,0xea,0xec,0xed,0xef,0xf0,0xf2,0xf3,0xf5,
                 ;0xf6,0xf7,0xf8,0xf9,0xfa,0xfb,0xfc,0xfc,0xfd,0xfe,0xfe,0xff,0xff,0xff,0xff,0xff,
                 ;0xff,0xff,0xff,0xff,0xff,0xff,0xfe,0xfe,0xfd,0xfc,0xfc,0xfb,0xfa,0xf9,0xf8,0xf7,
                 ;0xf6,0xf5,0xf3,0xf2,0xf0,0xef,0xed,0xec,0xea,0xe8,0xe6,0xe4,0xe2,0xe0,0xde,0xdc,
                 ;0xda,0xd8,0xd5,0xd3,0xd1,0xce,0xcc,0xc9,0xc7,0xc4,0xc1,0xbf,0xbc,0xb9,0xb6,0xb3,
                 ;0xb0,0xae,0xab,0xa8,0xa5,0xa2,0x9f,0x9c,0x98,0x95,0x92,0x8f,0x8c,0x89,0x86,0x83,
                 ;0x80,0x7c,0x79,0x76,0x73,0x70,0x6d,0x6a,0x67,0x63,0x60,0x5d,0x5a,0x57,0x54,0x51,
                 ;0x4f,0x4c,0x49,0x46,0x43,0x40,0x3e,0x3b,0x38,0x36,0x33,0x31,0x2e,0x2c,0x2a,0x27,
                 ;0x25,0x23,0x21,0x1f,0x1d,0x1b,0x19,0x17,0x15,0x13,0x12,0x10,0x0f,0x0d,0x0c,0x0a,
                 ;0x09,0x08,0x07,0x06,0x05,0x04,0x03,0x03,0x02,0x01,0x01,0x00,0x00,0x00,0x00,0x00,
                 ;0x00,0x00,0x00,0x00,0x00,0x00,0x01,0x01,0x02,0x03,0x03,0x04,0x05,0x06,0x07,0x08,
                 ;0x09,0x0a,0x0c,0x0d,0x0f,0x10,0x12,0x13,0x15,0x17,0x19,0x1b,0x1d,0x1f,0x21,0x23,
                 ;0x25,0x27,0x2a,0x2c,0x2e,0x31,0x33,0x36,0x38,0x3b,0x3e,0x40,0x43,0x46,0x49,0x4c,
                 ;0x4f,0x51,0x54,0x57,0x5a,0x5d,0x60,0x63,0x67,0x6a,0x6d,0x70,0x73,0x76,0x79,0x7c};
                 ;
                 ;flash unsigned int Timer_Value[996]={
                 ;62500 , 52083 , 44643 , 39062 , 34722 , 31250 , 28409 , 26042,
                 ;24038 , 22321 , 20833 , 19531 , 18382 , 17361 , 16447 , 15625,
                 ;14881 , 14205 , 13587 , 13021 , 12500 , 12019 , 11574 , 11161,
                 ;10776 , 10417 , 10081 , 9766 , 9470 , 9191 , 8929 , 8681,
                 ;8446 , 8224 , 8013 , 7812 , 7622 , 7440 , 7267 , 7102,
                 ;6944 , 6793 , 6649 , 6510 , 6378 , 6250 , 6127 , 6010,
                 ;5896 , 5787 , 5682 , 5580 , 5482 , 5388 , 5297 , 5208,
                 ;5123 , 5040 , 4960 , 4883 , 4808 , 4735 , 4664 , 4596,
                 ;4529 , 4464 , 4401 , 4340 , 4281 , 4223 , 4167 , 4112,
                 ;4058 , 4006 , 3956 , 3906 , 3858 , 3811 , 3765 , 3720,
                 ;3676 , 3634 , 3592 , 3551 , 3511 , 3472 , 3434 , 3397,
                 ;3360 , 3324 , 3289 , 3255 , 3222 , 3189 , 3157 , 3125,
                 ;3094 , 3064 , 3034 , 3005 , 2976 , 2948 , 2921 , 2894,
                 ;2867 , 2841 , 2815 , 2790 , 2765 , 2741 , 2717 , 2694,
                 ;2671 , 2648 , 2626 , 2604 , 2583 , 2561 , 2541 , 2520,
                 ;2500 , 2480 , 2461 , 2441 , 2422 , 2404 , 2385 , 2367,
                 ;2350 , 2332 , 2315 , 2298 , 2281 , 2264 , 2248 , 2232,
                 ;2216 , 2201 , 2185 , 2170 , 2155 , 2140 , 2126 , 2111,
                 ;2097 , 2083 , 2070 , 2056 , 2042 , 2029 , 2016 , 2003,
                 ;1990 , 1978 , 1965 , 1953 , 1941 , 1929 , 1917 , 1905,
                 ;1894 , 1883 , 1871 , 1860 , 1849 , 1838 , 1827 , 1817,
                 ;1806 , 1796 , 1786 , 1776 , 1766 , 1756 , 1746 , 1736,
                 ;1727 , 1717 , 1708 , 1698 , 1689 , 1680 , 1671 , 1662,
                 ;1653 , 1645 , 1636 , 1628 , 1619 , 1611 , 1603 , 1594,
                 ;1586 , 1578 , 1570 , 3125 , 3109 , 3094 , 3079 , 3064,
                 ;3049 , 3034 , 3019 , 3005 , 2990 , 2976 , 2962 , 2948,
                 ;2934 , 2921 , 2907 , 2894 , 2880 , 2867 , 2854 , 2841,
                 ;2828 , 2815 , 2803 , 2790 , 2778 , 2765 , 2753 , 2741,
                 ;2729 , 2717 , 2706 , 2694 , 2682 , 2671 , 2660 , 2648,
                 ;2637 , 2626 , 2615 , 2604 , 2593 , 2583 , 2572 , 2561,
                 ;2551 , 2541 , 2530 , 2520 , 2510 , 2500 , 2490 , 2480,
                 ;2470 , 2461 , 2451 , 2441 , 2432 , 2422 , 2413 , 2404,
                 ;2395 , 2385 , 2376 , 2367 , 2358 , 2350 , 2341 , 2332,
                 ;2323 , 2315 , 2306 , 2298 , 2289 , 2281 , 2273 , 2264,
                 ;2256 , 2248 , 2240 , 2232 , 2224 , 2216 , 2208 , 2201,
                 ;2193 , 2185 , 2178 , 2170 , 2163 , 2155 , 2148 , 2140,
                 ;2133 , 2126 , 2119 , 2111 , 2104 , 2097 , 2090 , 2083,
                 ;2076 , 2070 , 2063 , 2056 , 2049 , 2042 , 2036 , 2029,
                 ;2023 , 2016 , 2010 , 2003 , 1997 , 1990 , 1984 , 1978,
                 ;1972 , 1965 , 1959 , 1953 , 1947 , 1941 , 1935 , 1929,
                 ;1923 , 1917 , 1911 , 1905 , 1900 , 1894 , 1888 , 1883,
                 ;1877 , 1871 , 1866 , 1860 , 1855 , 1849 , 1844 , 1838,
                 ;1833 , 1827 , 1822 , 1817 , 1812 , 1806 , 1801 , 1796,
                 ;1791 , 1786 , 1781 , 1776 , 1771 , 1766 , 1761 , 1756,
                 ;1751 , 1746 , 1741 , 1736 , 1731 , 1727 , 1722 , 1717,
                 ;1712 , 1708 , 1703 , 1698 , 1694 , 1689 , 1685 , 1680,
                 ;1676 , 1671 , 1667 , 1662 , 1658 , 1653 , 1649 , 1645,
                 ;1640 , 1636 , 1632 , 1628 , 1623 , 1619 , 1615 , 1611,
                 ;1607 , 1603 , 1598 , 1594 , 1590 , 1586 , 1582 , 1578,
                 ;1574 , 1570 , 1566 , 3125 , 3117 , 3109 , 3102 , 3094,
                 ;3086 , 3079 , 3071 , 3064 , 3056 , 3049 , 3041 , 3034,
                 ;3027 , 3019 , 3012 , 3005 , 2998 , 2990 , 2983 , 2976,
                 ;2969 , 2962 , 2955 , 2948 , 2941 , 2934 , 2927 , 2921,
                 ;2914 , 2907 , 2900 , 2894 , 2887 , 2880 , 2874 , 2867,
                 ;2860 , 2854 , 2847 , 2841 , 2834 , 2828 , 2822 , 2815,
                 ;2809 , 2803 , 2796 , 2790 , 2784 , 2778 , 2772 , 2765,
                 ;2759 , 2753 , 2747 , 2741 , 2735 , 2729 , 2723 , 2717,
                 ;2711 , 2706 , 2700 , 2694 , 2688 , 2682 , 2677 , 2671,
                 ;2665 , 2660 , 2654 , 2648 , 2643 , 2637 , 2632 , 2626,
                 ;2621 , 2615 , 2610 , 2604 , 2599 , 2593 , 2588 , 2583,
                 ;2577 , 2572 , 2567 , 2561 , 2556 , 2551 , 2546 , 2541,
                 ;2535 , 2530 , 2525 , 2520 , 2515 , 2510 , 2505 , 2500,
                 ;2495 , 2490 , 2485 , 2480 , 2475 , 2470 , 2465 , 2461,
                 ;2456 , 2451 , 2446 , 2441 , 2437 , 2432 , 2427 , 2422,
                 ;2418 , 2413 , 2408 , 2404 , 2399 , 2395 , 2390 , 2385,
                 ;2381 , 2376 , 2372 , 2367 , 2363 , 2358 , 2354 , 2350,
                 ;2345 , 2341 , 2336 , 2332 , 2328 , 2323 , 2319 , 2315,
                 ;2311 , 2306 , 2302 , 2298 , 2294 , 2289 , 2285 , 2281,
                 ;2277 , 2273 , 2269 , 2264 , 2260 , 2256 , 2252 , 2248,
                 ;2244 , 2240 , 2236 , 2232 , 2228 , 2224 , 2220 , 2216,
                 ;2212 , 2208 , 2205 , 2201 , 2197 , 2193 , 2189 , 2185,
                 ;2182 , 2178 , 2174 , 2170 , 2166 , 2163 , 2159 , 2155,
                 ;2151 , 2148 , 2144 , 2140 , 2137 , 2133 , 2129 , 2126,
                 ;2122 , 2119 , 2115 , 2111 , 2108 , 2104 , 2101 , 2097,
                 ;2094 , 2090 , 2087 , 4167 , 4160 , 4153 , 4146 , 4139,
                 ;4132 , 4125 , 4119 , 4112 , 4105 , 4098 , 4092 , 4085,
                 ;4078 , 4072 , 4065 , 4058 , 4052 , 4045 , 4039 , 4032,
                 ;4026 , 4019 , 4013 , 4006 , 4000 , 3994 , 3987 , 3981,
                 ;3975 , 3968 , 3962 , 3956 , 3949 , 3943 , 3937 , 3931,
                 ;3925 , 3918 , 3912 , 3906 , 3900 , 3894 , 3888 , 3882,
                 ;3876 , 3870 , 3864 , 3858 , 3852 , 3846 , 3840 , 3834,
                 ;3828 , 3823 , 3817 , 3811 , 3805 , 3799 , 3794 , 3788,
                 ;3782 , 3776 , 3771 , 3765 , 3759 , 3754 , 3748 , 3743,
                 ;3737 , 3731 , 3726 , 3720 , 3715 , 3709 , 3704 , 3698,
                 ;3693 , 3687 , 3682 , 3676 , 3671 , 3666 , 3660 , 3655,
                 ;3650 , 3644 , 3639 , 3634 , 3628 , 3623 , 3618 , 3613,
                 ;3608 , 3602 , 3597 , 3592 , 3587 , 3582 , 3577 , 3571,
                 ;3566 , 3561 , 3556 , 3551 , 3546 , 3541 , 3536 , 3531,
                 ;3526 , 3521 , 3516 , 3511 , 3506 , 3501 , 3497 , 3492,
                 ;3487 , 3482 , 3477 , 3472 , 3467 , 3463 , 3458 , 3453,
                 ;3448 , 3444 , 3439 , 3434 , 3429 , 3425 , 3420 , 3415,
                 ;3411 , 3406 , 3401 , 3397 , 3392 , 3388 , 3383 , 3378,
                 ;3374 , 3369 , 3365 , 3360 , 3356 , 3351 , 3347 , 3342,
                 ;3338 , 3333 , 3329 , 3324 , 3320 , 3316 , 3311 , 3307,
                 ;3303 , 3298 , 3294 , 3289 , 3285 , 3281 , 3277 , 3272,
                 ;3268 , 3264 , 3259 , 3255 , 3251 , 3247 , 3243 , 3238,
                 ;3234 , 3230 , 3226 , 3222 , 3218 , 3213 , 3209 , 3205,
                 ;3201 , 3197 , 3193 , 3189 , 3185 , 3181 , 3177 , 3173,
                 ;3169 , 3165 , 3161 , 3157 , 3153 , 3149 , 3145 , 3141,
                 ;3137 , 3133 , 3129 , 6250 , 6242 , 6234 , 6227 , 6219,
                 ;6211 , 6203 , 6196 , 6188 , 6180 , 6173 , 6165 , 6158,
                 ;6150 , 6143 , 6135 , 6127 , 6120 , 6112 , 6105 , 6098,
                 ;6090 , 6083 , 6075 , 6068 , 6061 , 6053 , 6046 , 6039,
                 ;6031 , 6024 , 6017 , 6010 , 6002 , 5995 , 5988 , 5981,
                 ;5974 , 5967 , 5959 , 5952 , 5945 , 5938 , 5931 , 5924,
                 ;5917 , 5910 , 5903 , 5896 , 5889 , 5882 , 5875 , 5869,
                 ;5862 , 5855 , 5848 , 5841 , 5834 , 5828 , 5821 , 5814,
                 ;5807 , 5800 , 5794 , 5787 , 5780 , 5774 , 5767 , 5760,
                 ;5754 , 5747 , 5741 , 5734 , 5727 , 5721 , 5714 , 5708,
                 ;5701 , 5695 , 5688 , 5682 , 5675 , 5669 , 5663 , 5656,
                 ;5650 , 5643 , 5637 , 5631 , 5624 , 5618 , 5612 , 5605,
                 ;5599 , 5593 , 5587 , 5580 , 5574 , 5568 , 5562 , 5556,
                 ;5549 , 5543 , 5537 , 5531 , 5525 , 5519 , 5513 , 5507,
                 ;5501 , 5495 , 5488 , 5482 , 5476 , 5470 , 5464 , 5459,
                 ;5453 , 5447 , 5441 , 5435 , 5429 , 5423 , 5417 , 5411,
                 ;5405 , 5400 , 5394 , 5388 , 5382 , 5376 , 5371 , 5365,
                 ;5359 , 5353 , 5348 , 5342 , 5336 , 5330 , 5325 , 5319,
                 ;5313 , 5308 , 5302 , 5297 , 5291 , 5285 , 5280 , 5274,
                 ;5269 , 5263 , 5258 , 5252 , 5247 , 5241 , 5236 , 5230,
                 ;5225 , 5219 , 5214 , 5208 , 5203 , 5198 , 5192 , 5187,
                 ;5181 , 5176 , 5171 , 5165 , 5160 , 5155 , 5149 , 5144,
                 ;5139 , 5133 , 5128 , 5123 , 5118 , 5112 , 5107 , 5102,
                 ;5097 , 5092 , 5086 , 5081 , 5076 , 5071 , 5066 , 5061,
                 ;5056 , 5051 , 5045 , 5040 , 5035 , 5030 , 5025 , 5020,
                 ;5015 , 5010 , 5005 , 5000};
                 ;
                 ;interrupt [TIM3_COMPA] void timer3_comparea_isr(void)
                 ; 0000 00B8 {
                 
                 	.CSEG
                 _timer3_comparea_isr:
0004ca 920a      	ST   -Y,R0
0004cb 921a      	ST   -Y,R1
0004cc 92fa      	ST   -Y,R15
0004cd 936a      	ST   -Y,R22
0004ce 937a      	ST   -Y,R23
0004cf 938a      	ST   -Y,R24
0004d0 939a      	ST   -Y,R25
0004d1 93aa      	ST   -Y,R26
0004d2 93ba      	ST   -Y,R27
0004d3 93ea      	ST   -Y,R30
0004d4 93fa      	ST   -Y,R31
0004d5 b7ef      	IN   R30,SREG
0004d6 93ea      	ST   -Y,R30
                 ; 0000 00B9  static unsigned char index=0;
                 ; 0000 00BA  if (speed>794)index+=16;
0004d7 d14e      	RCALL SUBOPT_0x0
0004d8 31ab      	CPI  R26,LOW(0x31B)
0004d9 e0e3      	LDI  R30,HIGH(0x31B)
0004da 07be      	CPC  R27,R30
0004db f020      	BRLO _0x3
0004dc 91e0 0502 	LDS  R30,_index_S0000000000
0004de 5fe0      	SUBI R30,-LOW(16)
0004df c01e      	RJMP _0x1C
                 ; 0000 00BB  else if(speed>594)index+=8;
                 _0x3:
0004e0 d145      	RCALL SUBOPT_0x0
0004e1 35a3      	CPI  R26,LOW(0x253)
0004e2 e0e2      	LDI  R30,HIGH(0x253)
0004e3 07be      	CPC  R27,R30
0004e4 f020      	BRLO _0x5
0004e5 91e0 0502 	LDS  R30,_index_S0000000000
0004e7 5fe8      	SUBI R30,-LOW(8)
0004e8 c015      	RJMP _0x1C
                 ; 0000 00BC  else if(speed>394)index+=4;
                 _0x5:
0004e9 d13c      	RCALL SUBOPT_0x0
0004ea 38ab      	CPI  R26,LOW(0x18B)
0004eb e0e1      	LDI  R30,HIGH(0x18B)
0004ec 07be      	CPC  R27,R30
0004ed f020      	BRLO _0x7
0004ee 91e0 0502 	LDS  R30,_index_S0000000000
0004f0 5fec      	SUBI R30,-LOW(4)
0004f1 c00c      	RJMP _0x1C
                 ; 0000 00BD  else if(speed>194)index+=2;
                 _0x7:
0004f2 d133      	RCALL SUBOPT_0x0
0004f3 3ca3      	CPI  R26,LOW(0xC3)
0004f4 e0e0      	LDI  R30,HIGH(0xC3)
0004f5 07be      	CPC  R27,R30
0004f6 f020      	BRLO _0x9
0004f7 91e0 0502 	LDS  R30,_index_S0000000000
0004f9 5fee      	SUBI R30,-LOW(2)
0004fa c003      	RJMP _0x1C
                 ; 0000 00BE  else ++index;
                 _0x9:
0004fb 91e0 0502 	LDS  R30,_index_S0000000000
0004fd 5fef      	SUBI R30,-LOW(1)
                 _0x1C:
0004fe 93e0 0502 	STS  _index_S0000000000,R30
                 ; 0000 00BF 
                 ; 0000 00C0  if(speed>=f_Base)
000500 d125      	RCALL SUBOPT_0x0
000501 3eaf      	CPI  R26,LOW(0x1EF)
000502 e0e1      	LDI  R30,HIGH(0x1EF)
000503 07be      	CPC  R27,R30
000504 f050      	BRLO _0xB
                 ; 0000 00C1  {
                 ; 0000 00C2   OCR1A=sine[index];
000505 d125      	RCALL SUBOPT_0x1
000506 d128      	RCALL SUBOPT_0x2
000507 d12c      	RCALL SUBOPT_0x3
                 ; 0000 00C3   OCR1B=sine[(unsigned char)(index+84U)];
000508 d12e      	RCALL SUBOPT_0x4
000509 d125      	RCALL SUBOPT_0x2
00050a d131      	RCALL SUBOPT_0x5
                 ; 0000 00C4   OCR1CL=sine[(unsigned char)(index+170U)];
00050b d133      	RCALL SUBOPT_0x6
00050c 93e0 0078 	STS  120,R30
                 ; 0000 00C5  }
                 ; 0000 00C6  else if (speed<=f_Boost)
00050e c03e      	RJMP _0xC
                 _0xB:
00050f d116      	RCALL SUBOPT_0x0
000510 36a0      	CPI  R26,LOW(0x60)
000511 e0e0      	LDI  R30,HIGH(0x60)
000512 07be      	CPC  R27,R30
000513 f470      	BRSH _0xD
                 ; 0000 00C7  {
                 ; 0000 00C8   OCR1A=A_calc(sine[index],A_Boost);
000514 d116      	RCALL SUBOPT_0x1
000515 d131      	RCALL SUBOPT_0x7
000516 d11d      	RCALL SUBOPT_0x3
                 ; 0000 00C9   OCR1B=A_calc(sine[(unsigned char)(index+84U)],A_Boost);
000517 d11f      	RCALL SUBOPT_0x4
000518 d12e      	RCALL SUBOPT_0x7
000519 d122      	RCALL SUBOPT_0x5
                 ; 0000 00CA   OCR1CL=A_calc(sine[(unsigned char)(index+170U)],A_Boost);
00051a d124      	RCALL SUBOPT_0x6
00051b 93ea      	ST   -Y,R30
00051c e1e9      	LDI  R30,LOW(25)
00051d 93ea      	ST   -Y,R30
00051e d0de      	RCALL _A_calc
00051f 93e0 0078 	STS  120,R30
                 ; 0000 00CB  }
                 ; 0000 00CC  else
000521 c02b      	RJMP _0xE
                 _0xD:
                 ; 0000 00CD  {
                 ; 0000 00CE   unsigned long A;
                 ; 0000 00CF   A=((N*(unsigned long)(speed-f_Boost))/M)+A_Boost;
000522 9724      	SBIW R28,4
                 ;	A -> Y+0
000523 91e0 0500 	LDS  R30,_speed
000525 91f0 0501 	LDS  R31,_speed+1
000527 55ef      	SUBI R30,LOW(95)
000528 40f0      	SBCI R31,HIGH(95)
000529 2766      	CLR  R22
00052a 2777      	CLR  R23
                +
00052b eea6     +LDI R26 , LOW ( 0xE6 )
00052c e0b0     +LDI R27 , HIGH ( 0xE6 )
00052d e080     +LDI R24 , BYTE3 ( 0xE6 )
00052e e090     +LDI R25 , BYTE4 ( 0xE6 )
                 	__GETD2N 0xE6
00052f 940e 066a 	CALL __MULD12U
000531 01df      	MOVW R26,R30
000532 01cb      	MOVW R24,R22
                +
000533 e9e0     +LDI R30 , LOW ( 0x190 )
000534 e0f1     +LDI R31 , HIGH ( 0x190 )
000535 e060     +LDI R22 , BYTE3 ( 0x190 )
000536 e070     +LDI R23 , BYTE4 ( 0x190 )
                 	__GETD1N 0x190
000537 940e 068a 	CALL __DIVD21U
                +
000539 5ee7     +SUBI R30 , LOW ( - 25 )
00053a 4fff     +SBCI R31 , HIGH ( - 25 )
00053b 4f6f     +SBCI R22 , BYTE3 ( - 25 )
00053c 4f7f     +SBCI R23 , BYTE4 ( - 25 )
                 	__ADDD1N 25
00053d 940e 06b3 	CALL __PUTD1S0
                 ; 0000 00D0   OCR1A=A_calc(sine[index],(unsigned char)A);
00053f d0eb      	RCALL SUBOPT_0x1
000540 d10f      	RCALL SUBOPT_0x8
000541 d0f2      	RCALL SUBOPT_0x3
                 ; 0000 00D1   OCR1B=A_calc(sine[(unsigned char)(index+84U)],(unsigned char)A);
000542 d0f4      	RCALL SUBOPT_0x4
000543 d10c      	RCALL SUBOPT_0x8
000544 d0f7      	RCALL SUBOPT_0x5
                 ; 0000 00D2   OCR1CL=A_calc(sine[(unsigned char)(index+170U)],(unsigned char)A);
000545 d0f9      	RCALL SUBOPT_0x6
000546 93ea      	ST   -Y,R30
000547 81e9      	LDD  R30,Y+1
000548 93ea      	ST   -Y,R30
000549 d0b3      	RCALL _A_calc
00054a 93e0 0078 	STS  120,R30
                 ; 0000 00D3  }
00054c 9624      	ADIW R28,4
                 _0xE:
                 _0xC:
                 ; 0000 00D4 }
00054d 91e9      	LD   R30,Y+
00054e bfef      	OUT  SREG,R30
00054f 91f9      	LD   R31,Y+
000550 91e9      	LD   R30,Y+
000551 91b9      	LD   R27,Y+
000552 91a9      	LD   R26,Y+
000553 9199      	LD   R25,Y+
000554 9189      	LD   R24,Y+
000555 9179      	LD   R23,Y+
000556 9169      	LD   R22,Y+
000557 90f9      	LD   R15,Y+
000558 9019      	LD   R1,Y+
000559 9009      	LD   R0,Y+
00055a 9518      	RETI
                 ;
                 ;interrupt [ADC_INT] void adc_isr(void)
                 ; 0000 00D7 {
                 _adc_isr:
00055b 920a      	ST   -Y,R0
00055c 93aa      	ST   -Y,R26
00055d 93ba      	ST   -Y,R27
00055e 93ea      	ST   -Y,R30
00055f 93fa      	ST   -Y,R31
000560 b7ef      	IN   R30,SREG
000561 93ea      	ST   -Y,R30
                 ; 0000 00D8  static unsigned int adc_temp=0;
                 ; 0000 00D9  static unsigned char n=0;
                 ; 0000 00DA  adc_temp+=ADCW;
000562 b1e4      	IN   R30,0x4
000563 b1f5      	IN   R31,0x4+1
000564 91a0 0503 	LDS  R26,_adc_temp_S0000001000
000566 91b0 0504 	LDS  R27,_adc_temp_S0000001000+1
000568 0fea      	ADD  R30,R26
000569 1ffb      	ADC  R31,R27
00056a 93e0 0503 	STS  _adc_temp_S0000001000,R30
00056c 93f0 0504 	STS  _adc_temp_S0000001000+1,R31
                 ; 0000 00DB 
                 ; 0000 00DC  ADCSRA|=(1<<ADSC);
00056e 9a36      	SBI  0x6,6
                 ; 0000 00DD  if(++n==64)
00056f 91a0 0505 	LDS  R26,_n_S0000001000
000571 5faf      	SUBI R26,-LOW(1)
000572 93a0 0505 	STS  _n_S0000001000,R26
000574 34a0      	CPI  R26,LOW(0x40)
000575 f011      	BREQ PC+3
000576 940c 05d2 	JMP _0xF
                 ; 0000 00DE  {
                 ; 0000 00DF   unsigned int temp;
                 ; 0000 00E0   n=0;
000578 9722      	SBIW R28,2
                 ;	temp -> Y+0
000579 e0e0      	LDI  R30,LOW(0)
00057a 93e0 0505 	STS  _n_S0000001000,R30
                 ; 0000 00E1   temp=(adc_temp>>6);
00057c 91a0 0503 	LDS  R26,_adc_temp_S0000001000
00057e 91b0 0504 	LDS  R27,_adc_temp_S0000001000+1
000580 e0e6      	LDI  R30,LOW(6)
000581 940e 0659 	CALL __LSRW12
000583 83e8      	ST   Y,R30
000584 83f9      	STD  Y+1,R31
                 ; 0000 00E2   adc_temp=0;
000585 e0e0      	LDI  R30,LOW(0)
000586 93e0 0503 	STS  _adc_temp_S0000001000,R30
000588 93e0 0504 	STS  _adc_temp_S0000001000+1,R30
                 ; 0000 00E3   if(temp<14)
00058a 81a8      	LD   R26,Y
00058b 81b9      	LDD  R27,Y+1
00058c 971e      	SBIW R26,14
00058d f488      	BRSH _0x10
                 ; 0000 00E4   {
                 ; 0000 00E5    TCCR1A&=~((1<<COM1A1)|(1<<COM1B1)|(1<<COM1C1));
00058e b5ef      	IN   R30,0x2F
00058f 75e7      	ANDI R30,LOW(0x57)
000590 bdef      	OUT  0x2F,R30
                 ; 0000 00E6    TCCR3B&=~(1<<CS00);
000591 91e0 008a 	LDS  R30,138
000593 7fee      	ANDI R30,0xFE
000594 93e0 008a 	STS  138,R30
                 ; 0000 00E7    ETIMSK&=~(1<<OCIE3A);
000596 91e0 007d 	LDS  R30,125
000598 7eef      	ANDI R30,0xEF
000599 93e0 007d 	STS  125,R30
                 ; 0000 00E8    ETIFR=(1<<OCF3A);
00059b e1e0      	LDI  R30,LOW(16)
00059c 93e0 007c 	STS  124,R30
                 ; 0000 00E9   }
                 ; 0000 00EA   else
00059e c032      	RJMP _0x11
                 _0x10:
                 ; 0000 00EB   {
                 ; 0000 00EC    if (temp<1010)speed=temp-14;
00059f 81a8      	LD   R26,Y
0005a0 81b9      	LDD  R27,Y+1
0005a1 3fa2      	CPI  R26,LOW(0x3F2)
0005a2 e0e3      	LDI  R30,HIGH(0x3F2)
0005a3 07be      	CPC  R27,R30
0005a4 f420      	BRSH _0x12
0005a5 81e8      	LD   R30,Y
0005a6 81f9      	LDD  R31,Y+1
0005a7 973e      	SBIW R30,14
0005a8 c002      	RJMP _0x1D
                 ; 0000 00ED    else speed=995;
                 _0x12:
0005a9 eee3      	LDI  R30,LOW(995)
0005aa e0f3      	LDI  R31,HIGH(995)
                 _0x1D:
0005ab 93e0 0500 	STS  _speed,R30
0005ad 93f0 0501 	STS  _speed+1,R31
                 ; 0000 00EE    temp=(Timer_Value[speed]-1);
0005af 91e0 0500 	LDS  R30,_speed
0005b1 91f0 0501 	LDS  R31,_speed+1
0005b3 e8ac      	LDI  R26,LOW(_Timer_Value*2)
0005b4 e0b1      	LDI  R27,HIGH(_Timer_Value*2)
0005b5 0fee      	LSL  R30
0005b6 1fff      	ROL  R31
0005b7 0fea      	ADD  R30,R26
0005b8 1ffb      	ADC  R31,R27
0005b9 940e 06af 	CALL __GETW1PF
0005bb 9731      	SBIW R30,1
0005bc 83e8      	ST   Y,R30
0005bd 83f9      	STD  Y+1,R31
                 ; 0000 00EF    OCR3AH=(unsigned char)(temp>>8);
0005be 81e9      	LDD  R30,Y+1
0005bf 93e0 0087 	STS  135,R30
                 ; 0000 00F0    OCR3AL=(unsigned char)temp;
0005c1 81e8      	LD   R30,Y
0005c2 93e0 0086 	STS  134,R30
                 ; 0000 00F1    TCCR1A|=((1<<COM1A1)|(1<<COM1B1)|(1<<COM1C1));
0005c4 b5ef      	IN   R30,0x2F
0005c5 6ae8      	ORI  R30,LOW(0xA8)
0005c6 bdef      	OUT  0x2F,R30
                 ; 0000 00F2    TCCR3B|=(1<<CS00);
0005c7 91e0 008a 	LDS  R30,138
0005c9 60e1      	ORI  R30,1
0005ca 93e0 008a 	STS  138,R30
                 ; 0000 00F3    ETIMSK|=(1<<OCIE3A);
0005cc 91e0 007d 	LDS  R30,125
0005ce 61e0      	ORI  R30,0x10
0005cf 93e0 007d 	STS  125,R30
                 ; 0000 00F4   }
                 _0x11:
                 ; 0000 00F5  }
0005d1 9622      	ADIW R28,2
                 ; 0000 00F6 }
                 _0xF:
0005d2 91e9      	LD   R30,Y+
0005d3 bfef      	OUT  SREG,R30
0005d4 91f9      	LD   R31,Y+
0005d5 91e9      	LD   R30,Y+
0005d6 91b9      	LD   R27,Y+
0005d7 91a9      	LD   R26,Y+
0005d8 9009      	LD   R0,Y+
0005d9 9518      	RETI
                 ;
                 ;void main(void)
                 ; 0000 00F9 {
                 _main:
                 ; 0000 00FA  DDRB=(1<<PORTB7)|(1<<PORTB6)|(1<<PORTB5);
0005da eee0      	LDI  R30,LOW(224)
0005db bbe7      	OUT  0x17,R30
                 ; 0000 00FB  ADMUX=(1<<REFS0);
0005dc e4e0      	LDI  R30,LOW(64)
0005dd b9e7      	OUT  0x7,R30
                 ; 0000 00FC  ADCSRA=(1<<ADEN)|(1<<ADSC)|(1<<ADIE)|(1<<ADPS2)|(1<<ADPS1);
0005de ecee      	LDI  R30,LOW(206)
0005df b9e6      	OUT  0x6,R30
                 ; 0000 00FD  OCR1A=sine[0];
0005e0 e8ec      	LDI  R30,LOW(_sine*2)
0005e1 e0f0      	LDI  R31,HIGH(_sine*2)
0005e2 91e4      	LPM  R30,Z
0005e3 e0f0      	LDI  R31,0
0005e4 bdfb      	OUT  0x2A+1,R31
0005e5 bdea      	OUT  0x2A,R30
                 ; 0000 00FE  OCR1B=sine[84];
                +
0005e6 eee0     +LDI R30 , LOW ( 2 * _sine + ( 84 ) )
0005e7 e0f0     +LDI R31 , HIGH ( 2 * _sine + ( 84 ) )
                 	__POINTW1FN _sine,84
0005e8 91e4      	LPM  R30,Z
0005e9 e0f0      	LDI  R31,0
0005ea bdf9      	OUT  0x28+1,R31
0005eb bde8      	OUT  0x28,R30
                 ; 0000 00FF  OCR1CL=sine[170];
                +
0005ec e3e6     +LDI R30 , LOW ( 2 * _sine + ( 170 ) )
0005ed e0f1     +LDI R31 , HIGH ( 2 * _sine + ( 170 ) )
                 	__POINTW1FN _sine,170
0005ee 91e4      	LPM  R30,Z
0005ef 93e0 0078 	STS  120,R30
                 ; 0000 0100  TCCR1A=(1<<WGM30);
0005f1 e0e1      	LDI  R30,LOW(1)
0005f2 bdef      	OUT  0x2F,R30
                 ; 0000 0101  TCCR1B=(1<<CS00);
0005f3 bdee      	OUT  0x2E,R30
                 ; 0000 0102  TCCR3A=(1<<WGM31)|(1<<WGM30);
0005f4 e0e3      	LDI  R30,LOW(3)
0005f5 93e0 008b 	STS  139,R30
                 ; 0000 0103  TCCR3B=(1<<WGM33)|(1<<WGM32);
0005f7 e1e8      	LDI  R30,LOW(24)
0005f8 93e0 008a 	STS  138,R30
                 ; 0000 0104  #asm("sei")
0005fa 9478      	sei
                 ; 0000 0105  while (1);
                 _0x14:
0005fb cfff      	RJMP _0x14
                 ; 0000 0106 }
                 _0x17:
0005fc cfff      	RJMP _0x17
                 ;
                 ;unsigned char A_calc(unsigned char sine, unsigned char Ain)
                 ; 0000 0109 {
                 _A_calc:
                 ; 0000 010A  unsigned int sine_temp;
                 ; 0000 010B  unsigned char sine1;
                 ; 0000 010C  sine1=((sine<128)?~sine:sine);
0005fd 940e 06b8 	CALL __SAVELOCR4
                 ;	sine -> Y+5
                 ;	Ain -> Y+4
                 ;	sine_temp -> R16,R17
                 ;	sine1 -> R19
0005ff 81ad      	LDD  R26,Y+5
000600 38a0      	CPI  R26,LOW(0x80)
000601 f418      	BRSH _0x18
000602 81ed      	LDD  R30,Y+5
000603 95e0      	COM  R30
000604 c001      	RJMP _0x19
                 _0x18:
000605 81ed      	LDD  R30,Y+5
                 _0x19:
000606 2f3e      	MOV  R19,R30
                 ; 0000 010D  sine_temp=(((unsigned int)sine1)<<1);
000607 2fe3      	MOV  R30,R19
000608 e0f0      	LDI  R31,0
000609 0fee      	LSL  R30
00060a 1fff      	ROL  R31
00060b 018f      	MOVW R16,R30
                 ; 0000 010E  sine_temp-=255;
                +
00060c 5f0f     +SUBI R16 , LOW ( 255 )
00060d 4010     +SBCI R17 , HIGH ( 255 )
                 	__SUBWRN 16,17,255
                 ; 0000 010F  sine_temp*=Ain;
00060e 81ec      	LDD  R30,Y+4
00060f 01d8      	MOVW R26,R16
000610 e0f0      	LDI  R31,0
000611 940e 0662 	CALL __MULW12U
000613 018f      	MOVW R16,R30
                 ; 0000 0110  sine_temp>>=8;
000614 2f01      	MOV  R16,R17
000615 2711      	CLR  R17
                 ; 0000 0111  sine_temp+=255;
                +
000616 5001     +SUBI R16 , LOW ( - 255 )
000617 4f1f     +SBCI R17 , HIGH ( - 255 )
                 	__ADDWRN 16,17,255
                 ; 0000 0112  sine_temp>>=1;
000618 9516      	LSR  R17
000619 9507      	ROR  R16
                 ; 0000 0113  sine_temp++;
                +
00061a 5f0f     +SUBI R16 , LOW ( - 1 )
00061b 4f1f     +SBCI R17 , HIGH ( - 1 )
                 	__ADDWRN 16,17,1
                 ; 0000 0114  sine1=(unsigned char)sine_temp;
00061c 2f30      	MOV  R19,R16
                 ; 0000 0115  if (sine<128) sine1=~sine1;
00061d 81ad      	LDD  R26,Y+5
00061e 38a0      	CPI  R26,LOW(0x80)
00061f f408      	BRSH _0x1B
000620 9530      	COM  R19
                 ; 0000 0116  return sine1;
                 _0x1B:
000621 2fe3      	MOV  R30,R19
000622 940e 06bd 	CALL __LOADLOCR4
000624 9626      	ADIW R28,6
000625 9508      	RET
                 ; 0000 0117 }
                 
                 	.DSEG
                 _speed:
000500           	.BYTE 0x2
                 _index_S0000000000:
000502           	.BYTE 0x1
                 _adc_temp_S0000001000:
000503           	.BYTE 0x2
                 _n_S0000001000:
000505           	.BYTE 0x1
                 
                 	.CSEG
                 ;OPTIMIZER ADDED SUBROUTINE, CALLED 6 TIMES, CODE SIZE REDUCTION:7 WORDS
                 SUBOPT_0x0:
000626 91a0 0500 	LDS  R26,_speed
000628 91b0 0501 	LDS  R27,_speed+1
00062a 9508      	RET
                 
                 ;OPTIMIZER ADDED SUBROUTINE, CALLED 9 TIMES, CODE SIZE REDUCTION:21 WORDS
                 SUBOPT_0x1:
00062b 91e0 0502 	LDS  R30,_index_S0000000000
00062d e0f0      	LDI  R31,0
00062e 9508      	RET
                 
                 ;OPTIMIZER ADDED SUBROUTINE, CALLED 2 TIMES, CODE SIZE REDUCTION:1 WORDS
                 SUBOPT_0x2:
00062f 57e4      	SUBI R30,LOW(-_sine*2)
000630 4fff      	SBCI R31,HIGH(-_sine*2)
000631 91e4      	LPM  R30,Z
000632 e0f0      	LDI  R31,0
000633 9508      	RET
                 
                 ;OPTIMIZER ADDED SUBROUTINE, CALLED 3 TIMES, CODE SIZE REDUCTION:1 WORDS
                 SUBOPT_0x3:
000634 bdfb      	OUT  0x2A+1,R31
000635 bdea      	OUT  0x2A,R30
000636 cff4      	RJMP SUBOPT_0x1
                 
                 ;OPTIMIZER ADDED SUBROUTINE, CALLED 3 TIMES, CODE SIZE REDUCTION:9 WORDS
                 SUBOPT_0x4:
000637 5aec      	SUBI R30,LOW(-84)
000638 4fff      	SBCI R31,HIGH(-84)
000639 e0f0      	LDI  R31,0
00063a e0f0      	LDI  R31,0
00063b 9508      	RET
                 
                 ;OPTIMIZER ADDED SUBROUTINE, CALLED 3 TIMES, CODE SIZE REDUCTION:1 WORDS
                 SUBOPT_0x5:
00063c bdf9      	OUT  0x28+1,R31
00063d bde8      	OUT  0x28,R30
00063e cfec      	RJMP SUBOPT_0x1
                 
                 ;OPTIMIZER ADDED SUBROUTINE, CALLED 3 TIMES, CODE SIZE REDUCTION:15 WORDS
                 SUBOPT_0x6:
00063f 55e6      	SUBI R30,LOW(-170)
000640 4fff      	SBCI R31,HIGH(-170)
000641 e0f0      	LDI  R31,0
000642 e0f0      	LDI  R31,0
000643 57e4      	SUBI R30,LOW(-_sine*2)
000644 4fff      	SBCI R31,HIGH(-_sine*2)
000645 91e4      	LPM  R30,Z
000646 9508      	RET
                 
                 ;OPTIMIZER ADDED SUBROUTINE, CALLED 2 TIMES, CODE SIZE REDUCTION:6 WORDS
                 SUBOPT_0x7:
000647 57e4      	SUBI R30,LOW(-_sine*2)
000648 4fff      	SBCI R31,HIGH(-_sine*2)
000649 91e4      	LPM  R30,Z
00064a 93ea      	ST   -Y,R30
00064b e1e9      	LDI  R30,LOW(25)
00064c 93ea      	ST   -Y,R30
00064d dfaf      	RCALL _A_calc
00064e e0f0      	LDI  R31,0
00064f 9508      	RET
                 
                 ;OPTIMIZER ADDED SUBROUTINE, CALLED 2 TIMES, CODE SIZE REDUCTION:6 WORDS
                 SUBOPT_0x8:
000650 57e4      	SUBI R30,LOW(-_sine*2)
000651 4fff      	SBCI R31,HIGH(-_sine*2)
000652 91e4      	LPM  R30,Z
000653 93ea      	ST   -Y,R30
000654 81e9      	LDD  R30,Y+1
000655 93ea      	ST   -Y,R30
000656 dfa6      	RCALL _A_calc
000657 e0f0      	LDI  R31,0
000658 9508      	RET
                 
                 
                 	.CSEG
                 __LSRW12:
000659 23ee      	TST  R30
00065a 2e0e      	MOV  R0,R30
00065b 01fd      	MOVW R30,R26
00065c f021      	BREQ __LSRW12R
                 __LSRW12L:
00065d 95f6      	LSR  R31
00065e 95e7      	ROR  R30
00065f 940a      	DEC  R0
000660 f7e1      	BRNE __LSRW12L
                 __LSRW12R:
000661 9508      	RET
                 
                 __MULW12U:
000662 9ffa      	MUL  R31,R26
000663 2df0      	MOV  R31,R0
000664 9feb      	MUL  R30,R27
000665 0df0      	ADD  R31,R0
000666 9fea      	MUL  R30,R26
000667 2de0      	MOV  R30,R0
000668 0df1      	ADD  R31,R1
000669 9508      	RET
                 
                 __MULD12U:
00066a 9f7a      	MUL  R23,R26
00066b 2d70      	MOV  R23,R0
00066c 9f6b      	MUL  R22,R27
00066d 0d70      	ADD  R23,R0
00066e 9ff8      	MUL  R31,R24
00066f 0d70      	ADD  R23,R0
000670 9fe9      	MUL  R30,R25
000671 0d70      	ADD  R23,R0
000672 9f6a      	MUL  R22,R26
000673 2d60      	MOV  R22,R0
000674 0d71      	ADD  R23,R1
000675 9ffb      	MUL  R31,R27
000676 0d60      	ADD  R22,R0
000677 1d71      	ADC  R23,R1
000678 9fe8      	MUL  R30,R24
000679 0d60      	ADD  R22,R0
00067a 1d71      	ADC  R23,R1
00067b 2788      	CLR  R24
00067c 9ffa      	MUL  R31,R26
00067d 2df0      	MOV  R31,R0
00067e 0d61      	ADD  R22,R1
00067f 1f78      	ADC  R23,R24
000680 9feb      	MUL  R30,R27
000681 0df0      	ADD  R31,R0
000682 1d61      	ADC  R22,R1
000683 1f78      	ADC  R23,R24
000684 9fea      	MUL  R30,R26
000685 2de0      	MOV  R30,R0
000686 0df1      	ADD  R31,R1
000687 1f68      	ADC  R22,R24
000688 1f78      	ADC  R23,R24
000689 9508      	RET
                 
                 __DIVD21U:
00068a 933f      	PUSH R19
00068b 934f      	PUSH R20
00068c 935f      	PUSH R21
00068d 2400      	CLR  R0
00068e 2411      	CLR  R1
00068f 2744      	CLR  R20
000690 2755      	CLR  R21
000691 e230      	LDI  R19,32
                 __DIVD21U1:
000692 0faa      	LSL  R26
000693 1fbb      	ROL  R27
000694 1f88      	ROL  R24
000695 1f99      	ROL  R25
000696 1c00      	ROL  R0
000697 1c11      	ROL  R1
000698 1f44      	ROL  R20
000699 1f55      	ROL  R21
00069a 1a0e      	SUB  R0,R30
00069b 0a1f      	SBC  R1,R31
00069c 0b46      	SBC  R20,R22
00069d 0b57      	SBC  R21,R23
00069e f428      	BRCC __DIVD21U2
00069f 0e0e      	ADD  R0,R30
0006a0 1e1f      	ADC  R1,R31
0006a1 1f46      	ADC  R20,R22
0006a2 1f57      	ADC  R21,R23
0006a3 c001      	RJMP __DIVD21U3
                 __DIVD21U2:
0006a4 60a1      	SBR  R26,1
                 __DIVD21U3:
0006a5 953a      	DEC  R19
0006a6 f759      	BRNE __DIVD21U1
0006a7 01fd      	MOVW R30,R26
0006a8 01bc      	MOVW R22,R24
0006a9 01d0      	MOVW R26,R0
0006aa 01ca      	MOVW R24,R20
0006ab 915f      	POP  R21
0006ac 914f      	POP  R20
0006ad 913f      	POP  R19
0006ae 9508      	RET
                 
                 __GETW1PF:
0006af 9005      	LPM  R0,Z+
0006b0 91f4      	LPM  R31,Z
0006b1 2de0      	MOV  R30,R0
0006b2 9508      	RET
                 
                 __PUTD1S0:
0006b3 83e8      	ST   Y,R30
0006b4 83f9      	STD  Y+1,R31
0006b5 836a      	STD  Y+2,R22
0006b6 837b      	STD  Y+3,R23
0006b7 9508      	RET
                 
                 __SAVELOCR4:
0006b8 933a      	ST   -Y,R19
                 __SAVELOCR3:
0006b9 932a      	ST   -Y,R18
                 __SAVELOCR2:
0006ba 931a      	ST   -Y,R17
0006bb 930a      	ST   -Y,R16
0006bc 9508      	RET
                 
                 __LOADLOCR4:
0006bd 813b      	LDD  R19,Y+3
                 __LOADLOCR3:
0006be 812a      	LDD  R18,Y+2
                 __LOADLOCR2:
0006bf 8119      	LDD  R17,Y+1
0006c0 8108      	LD   R16,Y
0006c1 9508      	RET
                 
                 ;END OF CODE MARKER
                 __END_OF_CODE:


RESOURCE USE INFORMATION
------------------------

Notice:
The register and instruction counts are symbol table hit counts,
and hence implicitly used resources are not counted, eg, the
'lpm' instruction without operands implicitly uses r0 and z,
none of which are counted.

x,y,z are separate entities in the symbol table and are
counted separately from r26..r31 here.

.dseg memory usage only counts static data declared with .byte

ATmega64 register use summary:
r0 :  26 r1 :  13 r2 :   0 r3 :   0 r4 :   0 r5 :   0 r6 :   0 r7 :   0 
r8 :   0 r9 :   0 r10:   0 r11:   0 r12:   0 r13:   0 r14:   0 r15:   2 
r16:  11 r17:   8 r18:   2 r19:  11 r20:   7 r21:   6 r22:  18 r23:  19 
r24:  18 r25:   6 r26:  44 r27:  27 r28:   6 r29:   1 r30: 173 r31:  64 
x  :   2 y  :  75 z  :   9 
Registers used: 22 out of 35 (62.9%)

ATmega64 instruction use summary:
.lds  :   0 .lds.l:   0 .sts  :   0 .sts.l:   0 adc   :  12 add   :  14 
adiw  :   3 and   :   0 andi  :   3 asr   :   0 bclr  :   0 bld   :   0 
brbc  :   0 brbs  :   0 brcc  :   1 brcs  :   0 break :   0 breq  :   2 
brge  :   0 brhc  :   0 brhs  :   0 brid  :   0 brie  :   0 brlo  :   5 
brlt  :   0 brmi  :   0 brne  :   4 brpl  :   0 brsh  :   5 brtc  :   0 
brts  :   0 brvc  :   0 brvs  :   0 bset  :   0 bst   :   0 call  :   8 
cbi   :   0 cbr   :   0 clc   :   0 clh   :   0 cli   :   1 cln   :   0 
clr   :  10 cls   :   0 clt   :   0 clv   :   0 clz   :   0 com   :   2 
cp    :   0 cpc   :   7 cpi   :  10 cpse  :   0 dec   :   3 des   :   0 
eor   :   0 fmul  :   0 fmuls :   0 fmulsu:   0 icall :   0 ijmp  :   0 
in    :   6 inc   :   0 jmp   :  37 ld    :  23 ldd   :  14 ldi   :  62 
lds   :  21 lpm   :  17 lsl   :   3 lsr   :   2 mov   :  13 movw  :  10 
mul   :  13 muls  :   0 mulsu :   0 neg   :   0 nop   :   0 or    :   0 
ori   :   3 out   :  24 pop   :   3 push  :   3 rcall :  31 ret   :  16 
reti  :   2 rjmp  :  14 rol   :   9 ror   :   2 sbc   :   3 sbci  :  13 
sbi   :   1 sbic  :   0 sbis  :   0 sbiw  :   6 sbr   :   1 sbrc  :   0 
sbrs  :   0 sec   :   0 seh   :   0 sei   :   1 sen   :   0 ser   :   0 
ses   :   0 set   :   0 sev   :   0 sez   :   0 sleep :   0 spm   :   0 
st    :  35 std   :   5 sts   :  23 sub   :   1 subi  :  17 swap  :   0 
tst   :   1 wdr   :   0 
Instructions used: 50 out of 116 (43.1%)

ATmega64 memory use summary [bytes]:
Segment   Begin    End      Code   Data   Used    Size   Use%
---------------------------------------------------------------
[.cseg] 0x000000 0x000d84   1212   2248   3460   65536   5.3%
[.dseg] 0x000100 0x000506      0      6      6    4351   0.1%
[.eseg] 0x000000 0x000000      0      0      0    2048   0.0%

Assembly complete, 0 errors, 0 warnings
