
_T6963C_Drive_V100.elf:     file format elf32-avr

Sections:
Idx Name          Size      VMA       LMA       File off  Algn
  0 .data         0000000e  00800100  00000d84  00000e18  2**0
                  CONTENTS, ALLOC, LOAD, DATA
  1 .text         00000d84  00000000  00000000  00000094  2**1
                  CONTENTS, ALLOC, LOAD, READONLY, CODE
  2 .bss          00000029  0080010e  0080010e  00000e26  2**0
                  ALLOC
  3 .comment      0000005c  00000000  00000000  00000e26  2**0
                  CONTENTS, READONLY
  4 .note.gnu.avr.deviceinfo 0000003c  00000000  00000000  00000e84  2**2
                  CONTENTS, READONLY
  5 .debug_aranges 00000250  00000000  00000000  00000ec0  2**0
                  CONTENTS, READONLY, DEBUGGING
  6 .debug_info   00003979  00000000  00000000  00001110  2**0
                  CONTENTS, READONLY, DEBUGGING
  7 .debug_abbrev 000007d0  00000000  00000000  00004a89  2**0
                  CONTENTS, READONLY, DEBUGGING
  8 .debug_line   00001183  00000000  00000000  00005259  2**0
                  CONTENTS, READONLY, DEBUGGING
  9 .debug_frame  000007c4  00000000  00000000  000063dc  2**2
                  CONTENTS, READONLY, DEBUGGING
 10 .debug_str    0000110a  00000000  00000000  00006ba0  2**0
                  CONTENTS, READONLY, DEBUGGING
 11 .debug_loc    00002376  00000000  00000000  00007caa  2**0
                  CONTENTS, READONLY, DEBUGGING
 12 .debug_ranges 00000250  00000000  00000000  0000a020  2**0
                  CONTENTS, READONLY, DEBUGGING

Disassembly of section .text:

00000000 <__vectors>:
   0:	45 c0       	rjmp	.+138    	; 0x8c <__ctors_end>
   2:	00 00       	nop
   4:	60 c0       	rjmp	.+192    	; 0xc6 <__bad_interrupt>
   6:	00 00       	nop
   8:	5e c0       	rjmp	.+188    	; 0xc6 <__bad_interrupt>
   a:	00 00       	nop
   c:	5c c0       	rjmp	.+184    	; 0xc6 <__bad_interrupt>
   e:	00 00       	nop
  10:	5a c0       	rjmp	.+180    	; 0xc6 <__bad_interrupt>
  12:	00 00       	nop
  14:	58 c0       	rjmp	.+176    	; 0xc6 <__bad_interrupt>
  16:	00 00       	nop
  18:	56 c0       	rjmp	.+172    	; 0xc6 <__bad_interrupt>
  1a:	00 00       	nop
  1c:	54 c0       	rjmp	.+168    	; 0xc6 <__bad_interrupt>
  1e:	00 00       	nop
  20:	52 c0       	rjmp	.+164    	; 0xc6 <__bad_interrupt>
  22:	00 00       	nop
  24:	50 c0       	rjmp	.+160    	; 0xc6 <__bad_interrupt>
  26:	00 00       	nop
  28:	4e c0       	rjmp	.+156    	; 0xc6 <__bad_interrupt>
  2a:	00 00       	nop
  2c:	4c c0       	rjmp	.+152    	; 0xc6 <__bad_interrupt>
  2e:	00 00       	nop
  30:	4a c0       	rjmp	.+148    	; 0xc6 <__bad_interrupt>
  32:	00 00       	nop
  34:	48 c0       	rjmp	.+144    	; 0xc6 <__bad_interrupt>
  36:	00 00       	nop
  38:	46 c0       	rjmp	.+140    	; 0xc6 <__bad_interrupt>
  3a:	00 00       	nop
  3c:	10 c3       	rjmp	.+1568   	; 0x65e <__vector_15>
  3e:	00 00       	nop
  40:	42 c0       	rjmp	.+132    	; 0xc6 <__bad_interrupt>
  42:	00 00       	nop
  44:	40 c0       	rjmp	.+128    	; 0xc6 <__bad_interrupt>
  46:	00 00       	nop
  48:	3e c0       	rjmp	.+124    	; 0xc6 <__bad_interrupt>
  4a:	00 00       	nop
  4c:	3c c0       	rjmp	.+120    	; 0xc6 <__bad_interrupt>
  4e:	00 00       	nop
  50:	3a c0       	rjmp	.+116    	; 0xc6 <__bad_interrupt>
  52:	00 00       	nop
  54:	38 c0       	rjmp	.+112    	; 0xc6 <__bad_interrupt>
  56:	00 00       	nop
  58:	36 c0       	rjmp	.+108    	; 0xc6 <__bad_interrupt>
  5a:	00 00       	nop
  5c:	34 c0       	rjmp	.+104    	; 0xc6 <__bad_interrupt>
  5e:	00 00       	nop
  60:	32 c0       	rjmp	.+100    	; 0xc6 <__bad_interrupt>
  62:	00 00       	nop
  64:	30 c0       	rjmp	.+96     	; 0xc6 <__bad_interrupt>
  66:	00 00       	nop
  68:	2e c0       	rjmp	.+92     	; 0xc6 <__bad_interrupt>
  6a:	00 00       	nop
  6c:	2c c0       	rjmp	.+88     	; 0xc6 <__bad_interrupt>
  6e:	00 00       	nop
  70:	2a c0       	rjmp	.+84     	; 0xc6 <__bad_interrupt>
  72:	00 00       	nop
  74:	28 c0       	rjmp	.+80     	; 0xc6 <__bad_interrupt>
  76:	00 00       	nop
  78:	26 c0       	rjmp	.+76     	; 0xc6 <__bad_interrupt>
  7a:	00 00       	nop
  7c:	24 c0       	rjmp	.+72     	; 0xc6 <__bad_interrupt>
  7e:	00 00       	nop
  80:	22 c0       	rjmp	.+68     	; 0xc6 <__bad_interrupt>
  82:	00 00       	nop
  84:	20 c0       	rjmp	.+64     	; 0xc6 <__bad_interrupt>
  86:	00 00       	nop
  88:	1e c0       	rjmp	.+60     	; 0xc6 <__bad_interrupt>
	...

0000008c <__ctors_end>:
  8c:	11 24       	eor	r1, r1
  8e:	1f be       	out	0x3f, r1	; 63
  90:	cf ef       	ldi	r28, 0xFF	; 255
  92:	d0 e1       	ldi	r29, 0x10	; 16
  94:	de bf       	out	0x3e, r29	; 62
  96:	cd bf       	out	0x3d, r28	; 61

00000098 <__do_copy_data>:
  98:	11 e0       	ldi	r17, 0x01	; 1
  9a:	a0 e0       	ldi	r26, 0x00	; 0
  9c:	b1 e0       	ldi	r27, 0x01	; 1
  9e:	e4 e8       	ldi	r30, 0x84	; 132
  a0:	fd e0       	ldi	r31, 0x0D	; 13
  a2:	00 e0       	ldi	r16, 0x00	; 0
  a4:	0b bf       	out	0x3b, r16	; 59
  a6:	02 c0       	rjmp	.+4      	; 0xac <__do_copy_data+0x14>
  a8:	07 90       	elpm	r0, Z+
  aa:	0d 92       	st	X+, r0
  ac:	ae 30       	cpi	r26, 0x0E	; 14
  ae:	b1 07       	cpc	r27, r17
  b0:	d9 f7       	brne	.-10     	; 0xa8 <__do_copy_data+0x10>

000000b2 <__do_clear_bss>:
  b2:	21 e0       	ldi	r18, 0x01	; 1
  b4:	ae e0       	ldi	r26, 0x0E	; 14
  b6:	b1 e0       	ldi	r27, 0x01	; 1
  b8:	01 c0       	rjmp	.+2      	; 0xbc <.do_clear_bss_start>

000000ba <.do_clear_bss_loop>:
  ba:	1d 92       	st	X+, r1

000000bc <.do_clear_bss_start>:
  bc:	a7 33       	cpi	r26, 0x37	; 55
  be:	b2 07       	cpc	r27, r18
  c0:	e1 f7       	brne	.-8      	; 0xba <.do_clear_bss_loop>
  c2:	46 d2       	rcall	.+1164   	; 0x550 <main>
  c4:	5d c6       	rjmp	.+3258   	; 0xd80 <_exit>

000000c6 <__bad_interrupt>:
  c6:	9c cf       	rjmp	.-200    	; 0x0 <__vectors>

000000c8 <_ZL7delayMsj>:
{
	Line(xI,yI,xF,yI,color);
	Line(xI,yF,xF,yF,color);
	Line(xI,yI,xI,yF,color);
	Line(xF,yI,xF,yF,color);
}
  c8:	9c 01       	movw	r18, r24
  ca:	89 2b       	or	r24, r25
  cc:	41 f0       	breq	.+16     	; 0xde <_ZL7delayMsj+0x16>
  ce:	40 ea       	ldi	r20, 0xA0	; 160
  d0:	5f e0       	ldi	r21, 0x0F	; 15
  d2:	ca 01       	movw	r24, r20
  d4:	01 97       	sbiw	r24, 0x01	; 1
  d6:	f1 f7       	brne	.-4      	; 0xd4 <_ZL7delayMsj+0xc>
  d8:	21 50       	subi	r18, 0x01	; 1
  da:	31 09       	sbc	r19, r1
  dc:	d1 f7       	brne	.-12     	; 0xd2 <_ZL7delayMsj+0xa>
  de:	08 95       	ret

000000e0 <_ZN18class_T6963C_Drive13InterfaceReadEv>:
  e0:	95 98       	cbi	0x12, 5	; 18
  e2:	96 98       	cbi	0x12, 6	; 18
	...
  ec:	89 b3       	in	r24, 0x19	; 25
	...
  f6:	96 9a       	sbi	0x12, 6	; 18
  f8:	95 9a       	sbi	0x12, 5	; 18
  fa:	08 95       	ret

000000fc <_ZN18class_T6963C_Drive14InterfaceWriteEv>:
  fc:	95 98       	cbi	0x12, 5	; 18
  fe:	97 98       	cbi	0x12, 7	; 18
	...
 108:	97 9a       	sbi	0x12, 7	; 18
 10a:	95 9a       	sbi	0x12, 5	; 18
	...
 114:	1a ba       	out	0x1a, r1	; 26
 116:	8f ef       	ldi	r24, 0xFF	; 255
 118:	8b bb       	out	0x1b, r24	; 27
 11a:	08 95       	ret

0000011c <_ZN18class_T6963C_Drive19InterfaceStatusReadEv>:
 11c:	94 9a       	sbi	0x12, 4	; 18
 11e:	e0 cf       	rjmp	.-64     	; 0xe0 <_ZN18class_T6963C_Drive13InterfaceReadEv>
 120:	08 95       	ret

00000122 <_ZN18class_T6963C_Drive17InterfaceCmdWriteEh>:
 122:	6b bb       	out	0x1b, r22	; 27
 124:	2f ef       	ldi	r18, 0xFF	; 255
 126:	2a bb       	out	0x1a, r18	; 26
 128:	94 9a       	sbi	0x12, 4	; 18
 12a:	e8 cf       	rjmp	.-48     	; 0xfc <_ZN18class_T6963C_Drive14InterfaceWriteEv>
 12c:	08 95       	ret

0000012e <_ZN18class_T6963C_Drive18InterfaceDataWriteEh>:
 12e:	6b bb       	out	0x1b, r22	; 27
 130:	2f ef       	ldi	r18, 0xFF	; 255
 132:	2a bb       	out	0x1a, r18	; 26
 134:	94 98       	cbi	0x12, 4	; 18
 136:	e2 cf       	rjmp	.-60     	; 0xfc <_ZN18class_T6963C_Drive14InterfaceWriteEv>
 138:	08 95       	ret

0000013a <_ZN18class_T6963C_Drive12CanReadWriteEv>:
 13a:	cf 93       	push	r28
 13c:	df 93       	push	r29
 13e:	ec 01       	movw	r28, r24
 140:	ce 01       	movw	r24, r28
 142:	ec df       	rcall	.-40     	; 0x11c <_ZN18class_T6963C_Drive19InterfaceStatusReadEv>
 144:	83 70       	andi	r24, 0x03	; 3
 146:	83 30       	cpi	r24, 0x03	; 3
 148:	d9 f7       	brne	.-10     	; 0x140 <_ZN18class_T6963C_Drive12CanReadWriteEv+0x6>
 14a:	df 91       	pop	r29
 14c:	cf 91       	pop	r28
 14e:	08 95       	ret

00000150 <_ZN18class_T6963C_Drive12CanAutoWriteEv>:
 150:	cf 93       	push	r28
 152:	df 93       	push	r29
 154:	ec 01       	movw	r28, r24
 156:	ce 01       	movw	r24, r28
 158:	e1 df       	rcall	.-62     	; 0x11c <_ZN18class_T6963C_Drive19InterfaceStatusReadEv>
 15a:	83 ff       	sbrs	r24, 3
 15c:	fc cf       	rjmp	.-8      	; 0x156 <_ZN18class_T6963C_Drive12CanAutoWriteEv+0x6>
 15e:	df 91       	pop	r29
 160:	cf 91       	pop	r28
 162:	08 95       	ret

00000164 <_ZN18class_T6963C_Drive9DataWriteEh>:
 164:	1f 93       	push	r17
 166:	cf 93       	push	r28
 168:	df 93       	push	r29
 16a:	ec 01       	movw	r28, r24
 16c:	16 2f       	mov	r17, r22
 16e:	e5 df       	rcall	.-54     	; 0x13a <_ZN18class_T6963C_Drive12CanReadWriteEv>
 170:	61 2f       	mov	r22, r17
 172:	ce 01       	movw	r24, r28
 174:	dc df       	rcall	.-72     	; 0x12e <_ZN18class_T6963C_Drive18InterfaceDataWriteEh>
 176:	df 91       	pop	r29
 178:	cf 91       	pop	r28
 17a:	1f 91       	pop	r17
 17c:	08 95       	ret

0000017e <_ZN18class_T6963C_Drive8CmdWriteEh>:
 17e:	1f 93       	push	r17
 180:	cf 93       	push	r28
 182:	df 93       	push	r29
 184:	ec 01       	movw	r28, r24
 186:	16 2f       	mov	r17, r22
 188:	d8 df       	rcall	.-80     	; 0x13a <_ZN18class_T6963C_Drive12CanReadWriteEv>
 18a:	61 2f       	mov	r22, r17
 18c:	ce 01       	movw	r24, r28
 18e:	c9 df       	rcall	.-110    	; 0x122 <_ZN18class_T6963C_Drive17InterfaceCmdWriteEh>
 190:	df 91       	pop	r29
 192:	cf 91       	pop	r28
 194:	1f 91       	pop	r17
 196:	08 95       	ret

00000198 <_ZN18class_T6963C_Drive13DataAutoWriteEh>:
 198:	1f 93       	push	r17
 19a:	cf 93       	push	r28
 19c:	df 93       	push	r29
 19e:	ec 01       	movw	r28, r24
 1a0:	16 2f       	mov	r17, r22
 1a2:	d6 df       	rcall	.-84     	; 0x150 <_ZN18class_T6963C_Drive12CanAutoWriteEv>
 1a4:	61 2f       	mov	r22, r17
 1a6:	ce 01       	movw	r24, r28
 1a8:	c2 df       	rcall	.-124    	; 0x12e <_ZN18class_T6963C_Drive18InterfaceDataWriteEh>
 1aa:	df 91       	pop	r29
 1ac:	cf 91       	pop	r28
 1ae:	1f 91       	pop	r17
 1b0:	08 95       	ret

000001b2 <_ZN18class_T6963C_Drive5ResetEv>:
 1b2:	84 e6       	ldi	r24, 0x64	; 100
 1b4:	90 e0       	ldi	r25, 0x00	; 0
 1b6:	88 df       	rcall	.-240    	; 0xc8 <_ZL7delayMsj>
 1b8:	91 98       	cbi	0x12, 1	; 18
 1ba:	81 e0       	ldi	r24, 0x01	; 1
 1bc:	90 e0       	ldi	r25, 0x00	; 0
 1be:	84 df       	rcall	.-248    	; 0xc8 <_ZL7delayMsj>
 1c0:	91 9a       	sbi	0x12, 1	; 18
 1c2:	81 e0       	ldi	r24, 0x01	; 1
 1c4:	90 e0       	ldi	r25, 0x00	; 0
 1c6:	80 cf       	rjmp	.-256    	; 0xc8 <_ZL7delayMsj>
 1c8:	08 95       	ret

000001ca <_ZN18class_T6963C_Drive8LocateRCEaa>:
 1ca:	0f 93       	push	r16
 1cc:	1f 93       	push	r17
 1ce:	cf 93       	push	r28
 1d0:	df 93       	push	r29
 1d2:	ec 01       	movw	r28, r24
 1d4:	6c 83       	std	Y+4, r22	; 0x04
 1d6:	4d 83       	std	Y+5, r20	; 0x05
 1d8:	16 16       	cp	r1, r22
 1da:	0c f0       	brlt	.+2      	; 0x1de <_ZN18class_T6963C_Drive8LocateRCEaa+0x14>
 1dc:	3b c0       	rjmp	.+118    	; 0x254 <_ZN18class_T6963C_Drive8LocateRCEaa+0x8a>
 1de:	14 16       	cp	r1, r20
 1e0:	dc f5       	brge	.+118    	; 0x258 <_ZN18class_T6963C_Drive8LocateRCEaa+0x8e>
 1e2:	e6 2f       	mov	r30, r22
 1e4:	06 2e       	mov	r0, r22
 1e6:	00 0c       	add	r0, r0
 1e8:	ff 0b       	sbc	r31, r31
 1ea:	8e 81       	ldd	r24, Y+6	; 0x06
 1ec:	90 e0       	ldi	r25, 0x00	; 0
 1ee:	8e 17       	cp	r24, r30
 1f0:	9f 07       	cpc	r25, r31
 1f2:	a4 f1       	brlt	.+104    	; 0x25c <_ZN18class_T6963C_Drive8LocateRCEaa+0x92>
 1f4:	04 2e       	mov	r0, r20
 1f6:	00 0c       	add	r0, r0
 1f8:	55 0b       	sbc	r21, r21
 1fa:	2f 81       	ldd	r18, Y+7	; 0x07
 1fc:	30 e0       	ldi	r19, 0x00	; 0
 1fe:	24 17       	cp	r18, r20
 200:	35 07       	cpc	r19, r21
 202:	74 f1       	brlt	.+92     	; 0x260 <_ZN18class_T6963C_Drive8LocateRCEaa+0x96>
 204:	95 95       	asr	r25
 206:	87 95       	ror	r24
 208:	8e 17       	cp	r24, r30
 20a:	9f 07       	cpc	r25, r31
 20c:	24 f4       	brge	.+8      	; 0x216 <_ZN18class_T6963C_Drive8LocateRCEaa+0x4c>
 20e:	68 1b       	sub	r22, r24
 210:	00 e0       	ldi	r16, 0x00	; 0
 212:	10 e8       	ldi	r17, 0x80	; 128
 214:	02 c0       	rjmp	.+4      	; 0x21a <_ZN18class_T6963C_Drive8LocateRCEaa+0x50>
 216:	00 e0       	ldi	r16, 0x00	; 0
 218:	10 e0       	ldi	r17, 0x00	; 0
 21a:	06 2e       	mov	r0, r22
 21c:	00 0c       	add	r0, r0
 21e:	77 0b       	sbc	r23, r23
 220:	61 50       	subi	r22, 0x01	; 1
 222:	71 09       	sbc	r23, r1
 224:	26 9f       	mul	r18, r22
 226:	c0 01       	movw	r24, r0
 228:	27 9f       	mul	r18, r23
 22a:	90 0d       	add	r25, r0
 22c:	36 9f       	mul	r19, r22
 22e:	90 0d       	add	r25, r0
 230:	11 24       	eor	r1, r1
 232:	41 50       	subi	r20, 0x01	; 1
 234:	51 09       	sbc	r21, r1
 236:	48 0f       	add	r20, r24
 238:	59 1f       	adc	r21, r25
 23a:	04 0f       	add	r16, r20
 23c:	15 1f       	adc	r17, r21
 23e:	60 2f       	mov	r22, r16
 240:	ce 01       	movw	r24, r28
 242:	90 df       	rcall	.-224    	; 0x164 <_ZN18class_T6963C_Drive9DataWriteEh>
 244:	61 2f       	mov	r22, r17
 246:	ce 01       	movw	r24, r28
 248:	8d df       	rcall	.-230    	; 0x164 <_ZN18class_T6963C_Drive9DataWriteEh>
 24a:	64 e2       	ldi	r22, 0x24	; 36
 24c:	ce 01       	movw	r24, r28
 24e:	97 df       	rcall	.-210    	; 0x17e <_ZN18class_T6963C_Drive8CmdWriteEh>
 250:	81 e0       	ldi	r24, 0x01	; 1
 252:	07 c0       	rjmp	.+14     	; 0x262 <_ZN18class_T6963C_Drive8LocateRCEaa+0x98>
 254:	80 e0       	ldi	r24, 0x00	; 0
 256:	05 c0       	rjmp	.+10     	; 0x262 <_ZN18class_T6963C_Drive8LocateRCEaa+0x98>
 258:	80 e0       	ldi	r24, 0x00	; 0
 25a:	03 c0       	rjmp	.+6      	; 0x262 <_ZN18class_T6963C_Drive8LocateRCEaa+0x98>
 25c:	80 e0       	ldi	r24, 0x00	; 0
 25e:	01 c0       	rjmp	.+2      	; 0x262 <_ZN18class_T6963C_Drive8LocateRCEaa+0x98>
 260:	80 e0       	ldi	r24, 0x00	; 0
 262:	df 91       	pop	r29
 264:	cf 91       	pop	r28
 266:	1f 91       	pop	r17
 268:	0f 91       	pop	r16
 26a:	08 95       	ret

0000026c <_ZN18class_T6963C_Drive8FillTextEv>:
 26c:	ff 92       	push	r15
 26e:	0f 93       	push	r16
 270:	1f 93       	push	r17
 272:	cf 93       	push	r28
 274:	df 93       	push	r29
 276:	ec 01       	movw	r28, r24
 278:	60 eb       	ldi	r22, 0xB0	; 176
 27a:	81 df       	rcall	.-254    	; 0x17e <_ZN18class_T6963C_Drive8CmdWriteEh>
 27c:	8e 81       	ldd	r24, Y+6	; 0x06
 27e:	90 e0       	ldi	r25, 0x00	; 0
 280:	95 95       	asr	r25
 282:	87 95       	ror	r24
 284:	18 16       	cp	r1, r24
 286:	19 06       	cpc	r1, r25
 288:	ac f0       	brlt	.+42     	; 0x2b4 <_ZN18class_T6963C_Drive8FillTextEv+0x48>
 28a:	1a c0       	rjmp	.+52     	; 0x2c0 <_ZN18class_T6963C_Drive8FillTextEv+0x54>
 28c:	1f 2d       	mov	r17, r15
 28e:	68 85       	ldd	r22, Y+8	; 0x08
 290:	60 52       	subi	r22, 0x20	; 32
 292:	ce 01       	movw	r24, r28
 294:	81 df       	rcall	.-254    	; 0x198 <_ZN18class_T6963C_Drive13DataAutoWriteEh>
 296:	1f 5f       	subi	r17, 0xFF	; 255
 298:	8f 81       	ldd	r24, Y+7	; 0x07
 29a:	18 17       	cp	r17, r24
 29c:	c0 f3       	brcs	.-16     	; 0x28e <_ZN18class_T6963C_Drive8FillTextEv+0x22>
 29e:	0f 5f       	subi	r16, 0xFF	; 255
 2a0:	20 2f       	mov	r18, r16
 2a2:	30 e0       	ldi	r19, 0x00	; 0
 2a4:	8e 81       	ldd	r24, Y+6	; 0x06
 2a6:	90 e0       	ldi	r25, 0x00	; 0
 2a8:	95 95       	asr	r25
 2aa:	87 95       	ror	r24
 2ac:	28 17       	cp	r18, r24
 2ae:	39 07       	cpc	r19, r25
 2b0:	1c f0       	brlt	.+6      	; 0x2b8 <_ZN18class_T6963C_Drive8FillTextEv+0x4c>
 2b2:	06 c0       	rjmp	.+12     	; 0x2c0 <_ZN18class_T6963C_Drive8FillTextEv+0x54>
 2b4:	00 e0       	ldi	r16, 0x00	; 0
 2b6:	f1 2c       	mov	r15, r1
 2b8:	8f 81       	ldd	r24, Y+7	; 0x07
 2ba:	81 11       	cpse	r24, r1
 2bc:	e7 cf       	rjmp	.-50     	; 0x28c <_ZN18class_T6963C_Drive8FillTextEv+0x20>
 2be:	ef cf       	rjmp	.-34     	; 0x29e <_ZN18class_T6963C_Drive8FillTextEv+0x32>
 2c0:	62 eb       	ldi	r22, 0xB2	; 178
 2c2:	ce 01       	movw	r24, r28
 2c4:	5c df       	rcall	.-328    	; 0x17e <_ZN18class_T6963C_Drive8CmdWriteEh>
 2c6:	df 91       	pop	r29
 2c8:	cf 91       	pop	r28
 2ca:	1f 91       	pop	r17
 2cc:	0f 91       	pop	r16
 2ce:	ff 90       	pop	r15
 2d0:	08 95       	ret

000002d2 <_ZN18class_T6963C_Drive7ClsTextEv>:
 2d2:	cf 93       	push	r28
 2d4:	df 93       	push	r29
 2d6:	ec 01       	movw	r28, r24
 2d8:	60 e0       	ldi	r22, 0x00	; 0
 2da:	44 df       	rcall	.-376    	; 0x164 <_ZN18class_T6963C_Drive9DataWriteEh>
 2dc:	60 e0       	ldi	r22, 0x00	; 0
 2de:	ce 01       	movw	r24, r28
 2e0:	41 df       	rcall	.-382    	; 0x164 <_ZN18class_T6963C_Drive9DataWriteEh>
 2e2:	64 e2       	ldi	r22, 0x24	; 36
 2e4:	ce 01       	movw	r24, r28
 2e6:	4b df       	rcall	.-362    	; 0x17e <_ZN18class_T6963C_Drive8CmdWriteEh>
 2e8:	ce 01       	movw	r24, r28
 2ea:	c0 df       	rcall	.-128    	; 0x26c <_ZN18class_T6963C_Drive8FillTextEv>
 2ec:	60 e0       	ldi	r22, 0x00	; 0
 2ee:	ce 01       	movw	r24, r28
 2f0:	39 df       	rcall	.-398    	; 0x164 <_ZN18class_T6963C_Drive9DataWriteEh>
 2f2:	60 e8       	ldi	r22, 0x80	; 128
 2f4:	ce 01       	movw	r24, r28
 2f6:	36 df       	rcall	.-404    	; 0x164 <_ZN18class_T6963C_Drive9DataWriteEh>
 2f8:	64 e2       	ldi	r22, 0x24	; 36
 2fa:	ce 01       	movw	r24, r28
 2fc:	40 df       	rcall	.-384    	; 0x17e <_ZN18class_T6963C_Drive8CmdWriteEh>
 2fe:	ce 01       	movw	r24, r28
 300:	b5 df       	rcall	.-150    	; 0x26c <_ZN18class_T6963C_Drive8FillTextEv>
 302:	81 e0       	ldi	r24, 0x01	; 1
 304:	8d 83       	std	Y+5, r24	; 0x05
 306:	8c 83       	std	Y+4, r24	; 0x04
 308:	df 91       	pop	r29
 30a:	cf 91       	pop	r28
 30c:	08 95       	ret

0000030e <_ZN18class_T6963C_Drive9FillGraphEv>:
 30e:	ef 92       	push	r14
 310:	ff 92       	push	r15
 312:	0f 93       	push	r16
 314:	1f 93       	push	r17
 316:	cf 93       	push	r28
 318:	df 93       	push	r29
 31a:	8c 01       	movw	r16, r24
 31c:	64 eb       	ldi	r22, 0xB4	; 180
 31e:	2f df       	rcall	.-418    	; 0x17e <_ZN18class_T6963C_Drive8CmdWriteEh>
 320:	f8 01       	movw	r30, r16
 322:	27 81       	ldd	r18, Z+7	; 0x07
 324:	82 85       	ldd	r24, Z+10	; 0x0a
 326:	93 85       	ldd	r25, Z+11	; 0x0b
 328:	28 9f       	mul	r18, r24
 32a:	70 01       	movw	r14, r0
 32c:	29 9f       	mul	r18, r25
 32e:	f0 0c       	add	r15, r0
 330:	11 24       	eor	r1, r1
 332:	ff 20       	and	r15, r15
 334:	1c f4       	brge	.+6      	; 0x33c <_ZN18class_T6963C_Drive9FillGraphEv+0x2e>
 336:	ff ef       	ldi	r31, 0xFF	; 255
 338:	ef 1a       	sub	r14, r31
 33a:	ff 0a       	sbc	r15, r31
 33c:	f5 94       	asr	r15
 33e:	e7 94       	ror	r14
 340:	e1 14       	cp	r14, r1
 342:	f1 04       	cpc	r15, r1
 344:	51 f0       	breq	.+20     	; 0x35a <_ZN18class_T6963C_Drive9FillGraphEv+0x4c>
 346:	c0 e0       	ldi	r28, 0x00	; 0
 348:	d0 e0       	ldi	r29, 0x00	; 0
 34a:	f8 01       	movw	r30, r16
 34c:	61 85       	ldd	r22, Z+9	; 0x09
 34e:	c8 01       	movw	r24, r16
 350:	23 df       	rcall	.-442    	; 0x198 <_ZN18class_T6963C_Drive13DataAutoWriteEh>
 352:	21 96       	adiw	r28, 0x01	; 1
 354:	ec 16       	cp	r14, r28
 356:	fd 06       	cpc	r15, r29
 358:	c1 f7       	brne	.-16     	; 0x34a <_ZN18class_T6963C_Drive9FillGraphEv+0x3c>
 35a:	62 eb       	ldi	r22, 0xB2	; 178
 35c:	c8 01       	movw	r24, r16
 35e:	0f df       	rcall	.-482    	; 0x17e <_ZN18class_T6963C_Drive8CmdWriteEh>
 360:	df 91       	pop	r29
 362:	cf 91       	pop	r28
 364:	1f 91       	pop	r17
 366:	0f 91       	pop	r16
 368:	ff 90       	pop	r15
 36a:	ef 90       	pop	r14
 36c:	08 95       	ret

0000036e <_ZN18class_T6963C_Drive8ClsGraphEv>:
 36e:	cf 93       	push	r28
 370:	df 93       	push	r29
 372:	ec 01       	movw	r28, r24
 374:	60 e0       	ldi	r22, 0x00	; 0
 376:	f6 de       	rcall	.-532    	; 0x164 <_ZN18class_T6963C_Drive9DataWriteEh>
 378:	68 e0       	ldi	r22, 0x08	; 8
 37a:	ce 01       	movw	r24, r28
 37c:	f3 de       	rcall	.-538    	; 0x164 <_ZN18class_T6963C_Drive9DataWriteEh>
 37e:	64 e2       	ldi	r22, 0x24	; 36
 380:	ce 01       	movw	r24, r28
 382:	fd de       	rcall	.-518    	; 0x17e <_ZN18class_T6963C_Drive8CmdWriteEh>
 384:	ce 01       	movw	r24, r28
 386:	c3 df       	rcall	.-122    	; 0x30e <_ZN18class_T6963C_Drive9FillGraphEv>
 388:	60 e0       	ldi	r22, 0x00	; 0
 38a:	ce 01       	movw	r24, r28
 38c:	eb de       	rcall	.-554    	; 0x164 <_ZN18class_T6963C_Drive9DataWriteEh>
 38e:	68 e8       	ldi	r22, 0x88	; 136
 390:	ce 01       	movw	r24, r28
 392:	e8 de       	rcall	.-560    	; 0x164 <_ZN18class_T6963C_Drive9DataWriteEh>
 394:	64 e2       	ldi	r22, 0x24	; 36
 396:	ce 01       	movw	r24, r28
 398:	f2 de       	rcall	.-540    	; 0x17e <_ZN18class_T6963C_Drive8CmdWriteEh>
 39a:	ce 01       	movw	r24, r28
 39c:	b8 df       	rcall	.-144    	; 0x30e <_ZN18class_T6963C_Drive9FillGraphEv>
 39e:	df 91       	pop	r29
 3a0:	cf 91       	pop	r28
 3a2:	08 95       	ret

000003a4 <_ZN18class_T6963C_Drive10PutsSelectEPKcb>:
 3a4:	ef 92       	push	r14
 3a6:	ff 92       	push	r15
 3a8:	0f 93       	push	r16
 3aa:	1f 93       	push	r17
 3ac:	cf 93       	push	r28
 3ae:	df 93       	push	r29
 3b0:	ec 01       	movw	r28, r24
 3b2:	8b 01       	movw	r16, r22
 3b4:	f4 2e       	mov	r15, r20
 3b6:	4d 81       	ldd	r20, Y+5	; 0x05
 3b8:	6c 81       	ldd	r22, Y+4	; 0x04
 3ba:	07 df       	rcall	.-498    	; 0x1ca <_ZN18class_T6963C_Drive8LocateRCEaa>
 3bc:	60 eb       	ldi	r22, 0xB0	; 176
 3be:	ce 01       	movw	r24, r28
 3c0:	de de       	rcall	.-580    	; 0x17e <_ZN18class_T6963C_Drive8CmdWriteEh>
 3c2:	ee 24       	eor	r14, r14
 3c4:	e3 94       	inc	r14
 3c6:	ff 20       	and	r15, r15
 3c8:	19 f0       	breq	.+6      	; 0x3d0 <_ZN18class_T6963C_Drive10PutsSelectEPKcb+0x2c>
 3ca:	f8 01       	movw	r30, r16
 3cc:	80 81       	ld	r24, Z
 3ce:	02 c0       	rjmp	.+4      	; 0x3d4 <_ZN18class_T6963C_Drive10PutsSelectEPKcb+0x30>
 3d0:	f8 01       	movw	r30, r16
 3d2:	84 91       	lpm	r24, Z
 3d4:	88 23       	and	r24, r24
 3d6:	09 f4       	brne	.+2      	; 0x3da <_ZN18class_T6963C_Drive10PutsSelectEPKcb+0x36>
 3d8:	3a c0       	rjmp	.+116    	; 0x44e <_ZN18class_T6963C_Drive10PutsSelectEPKcb+0xaa>
 3da:	8a 30       	cpi	r24, 0x0A	; 10
 3dc:	19 f0       	breq	.+6      	; 0x3e4 <_ZN18class_T6963C_Drive10PutsSelectEPKcb+0x40>
 3de:	8d 30       	cpi	r24, 0x0D	; 13
 3e0:	79 f0       	breq	.+30     	; 0x400 <_ZN18class_T6963C_Drive10PutsSelectEPKcb+0x5c>
 3e2:	1a c0       	rjmp	.+52     	; 0x418 <_ZN18class_T6963C_Drive10PutsSelectEPKcb+0x74>
 3e4:	8c 81       	ldd	r24, Y+4	; 0x04
 3e6:	8f 5f       	subi	r24, 0xFF	; 255
 3e8:	8c 83       	std	Y+4, r24	; 0x04
 3ea:	62 eb       	ldi	r22, 0xB2	; 178
 3ec:	ce 01       	movw	r24, r28
 3ee:	c7 de       	rcall	.-626    	; 0x17e <_ZN18class_T6963C_Drive8CmdWriteEh>
 3f0:	4d 81       	ldd	r20, Y+5	; 0x05
 3f2:	6c 81       	ldd	r22, Y+4	; 0x04
 3f4:	ce 01       	movw	r24, r28
 3f6:	e9 de       	rcall	.-558    	; 0x1ca <_ZN18class_T6963C_Drive8LocateRCEaa>
 3f8:	60 eb       	ldi	r22, 0xB0	; 176
 3fa:	ce 01       	movw	r24, r28
 3fc:	c0 de       	rcall	.-640    	; 0x17e <_ZN18class_T6963C_Drive8CmdWriteEh>
 3fe:	24 c0       	rjmp	.+72     	; 0x448 <_ZN18class_T6963C_Drive10PutsSelectEPKcb+0xa4>
 400:	ed 82       	std	Y+5, r14	; 0x05
 402:	62 eb       	ldi	r22, 0xB2	; 178
 404:	ce 01       	movw	r24, r28
 406:	bb de       	rcall	.-650    	; 0x17e <_ZN18class_T6963C_Drive8CmdWriteEh>
 408:	4d 81       	ldd	r20, Y+5	; 0x05
 40a:	6c 81       	ldd	r22, Y+4	; 0x04
 40c:	ce 01       	movw	r24, r28
 40e:	dd de       	rcall	.-582    	; 0x1ca <_ZN18class_T6963C_Drive8LocateRCEaa>
 410:	60 eb       	ldi	r22, 0xB0	; 176
 412:	ce 01       	movw	r24, r28
 414:	b4 de       	rcall	.-664    	; 0x17e <_ZN18class_T6963C_Drive8CmdWriteEh>
 416:	18 c0       	rjmp	.+48     	; 0x448 <_ZN18class_T6963C_Drive10PutsSelectEPKcb+0xa4>
 418:	60 ee       	ldi	r22, 0xE0	; 224
 41a:	68 0f       	add	r22, r24
 41c:	ce 01       	movw	r24, r28
 41e:	bc de       	rcall	.-648    	; 0x198 <_ZN18class_T6963C_Drive13DataAutoWriteEh>
 420:	8d 81       	ldd	r24, Y+5	; 0x05
 422:	8f 5f       	subi	r24, 0xFF	; 255
 424:	8d 83       	std	Y+5, r24	; 0x05
 426:	9f 81       	ldd	r25, Y+7	; 0x07
 428:	98 17       	cp	r25, r24
 42a:	70 f4       	brcc	.+28     	; 0x448 <_ZN18class_T6963C_Drive10PutsSelectEPKcb+0xa4>
 42c:	ed 82       	std	Y+5, r14	; 0x05
 42e:	8c 81       	ldd	r24, Y+4	; 0x04
 430:	8f 5f       	subi	r24, 0xFF	; 255
 432:	8c 83       	std	Y+4, r24	; 0x04
 434:	62 eb       	ldi	r22, 0xB2	; 178
 436:	ce 01       	movw	r24, r28
 438:	a2 de       	rcall	.-700    	; 0x17e <_ZN18class_T6963C_Drive8CmdWriteEh>
 43a:	4d 81       	ldd	r20, Y+5	; 0x05
 43c:	6c 81       	ldd	r22, Y+4	; 0x04
 43e:	ce 01       	movw	r24, r28
 440:	c4 de       	rcall	.-632    	; 0x1ca <_ZN18class_T6963C_Drive8LocateRCEaa>
 442:	60 eb       	ldi	r22, 0xB0	; 176
 444:	ce 01       	movw	r24, r28
 446:	9b de       	rcall	.-714    	; 0x17e <_ZN18class_T6963C_Drive8CmdWriteEh>
 448:	0f 5f       	subi	r16, 0xFF	; 255
 44a:	1f 4f       	sbci	r17, 0xFF	; 255
 44c:	bc cf       	rjmp	.-136    	; 0x3c6 <_ZN18class_T6963C_Drive10PutsSelectEPKcb+0x22>
 44e:	62 eb       	ldi	r22, 0xB2	; 178
 450:	ce 01       	movw	r24, r28
 452:	95 de       	rcall	.-726    	; 0x17e <_ZN18class_T6963C_Drive8CmdWriteEh>
 454:	df 91       	pop	r29
 456:	cf 91       	pop	r28
 458:	1f 91       	pop	r17
 45a:	0f 91       	pop	r16
 45c:	ff 90       	pop	r15
 45e:	ef 90       	pop	r14
 460:	08 95       	ret

00000462 <_ZN18class_T6963C_Drive4PutSEPKc>:
 462:	41 e0       	ldi	r20, 0x01	; 1
 464:	9f cf       	rjmp	.-194    	; 0x3a4 <_ZN18class_T6963C_Drive10PutsSelectEPKcb>
 466:	08 95       	ret

00000468 <_ZN18class_T6963C_Drive4InitEv>:
//	| OUTPUT  :  true if present else false											|
//	| REMARKS :  interrupts are disabled during initialization then restored		|
//	+-------------------------------------------------------------------------------+

uint8_t class_T6963C_Drive::Init()
{
 468:	1f 93       	push	r17
 46a:	cf 93       	push	r28
 46c:	df 93       	push	r29
 46e:	ec 01       	movw	r28, r24
	uint8_t sreg;
	//save SREG state
	sreg=SREG;
 470:	1f b7       	in	r17, 0x3f	; 63
	cli();
 472:	f8 94       	cli
	//set Rows and Cols
	//Set display data port as input with pull up
	_T6963C_DATA_OUTPUT=0xff;
 474:	8f ef       	ldi	r24, 0xFF	; 255
 476:	8b bb       	out	0x1b, r24	; 27
	_T6963C_DATA_DIR=0x00;
 478:	1a ba       	out	0x1a, r1	; 26
	//Set RW as output hi state
	_T6963C_WR_OUTPUT|=(1<<_T6963C_WR_BIT);
 47a:	97 9a       	sbi	0x12, 7	; 18
	_T6963C_WR_DIR|=(1<<_T6963C_WR_BIT);
 47c:	8f 9a       	sbi	0x11, 7	; 17
	//Set RD as output hi state
	_T6963C_RD_OUTPUT|=(1<<_T6963C_RD_BIT);
 47e:	96 9a       	sbi	0x12, 6	; 18
	_T6963C_RD_DIR|=(1<<_T6963C_RD_BIT);
 480:	8e 9a       	sbi	0x11, 6	; 17
	//Set CE as output hi state
	_T6963C_CE_OUTPUT|=(1<<_T6963C_CE_BIT);
 482:	95 9a       	sbi	0x12, 5	; 18
	_T6963C_CE_DIR|=(1<<_T6963C_CE_BIT);
 484:	8d 9a       	sbi	0x11, 5	; 17
	//Set CD as output hi state
	_T6963C_CD_OUTPUT|=(1<<_T6963C_CD_BIT);
 486:	94 9a       	sbi	0x12, 4	; 18
	_T6963C_CD_DIR|=(1<<_T6963C_CD_BIT);
 488:	8c 9a       	sbi	0x11, 4	; 17
	//Set RESET as output hi state
	_T6963C_RESET_OUTPUT|=(1<<_T6963C_RESET_BIT);
 48a:	91 9a       	sbi	0x12, 1	; 18
	_T6963C_RESET_DIR|=(1<<_T6963C_RESET_BIT);
 48c:	89 9a       	sbi	0x11, 1	; 17
	//Reset display
	Reset();
 48e:	ce 01       	movw	r24, r28
 490:	90 de       	rcall	.-736    	; 0x1b2 <_ZN18class_T6963C_Drive5ResetEv>
	//Set Text Home Address
	DataWrite((uint8_t)_T6963C_TEXT_ADDRESS);
 492:	60 e0       	ldi	r22, 0x00	; 0
 494:	ce 01       	movw	r24, r28
 496:	66 de       	rcall	.-820    	; 0x164 <_ZN18class_T6963C_Drive9DataWriteEh>
	DataWrite((uint8_t)(_T6963C_TEXT_ADDRESS>>8));
 498:	60 e0       	ldi	r22, 0x00	; 0
 49a:	ce 01       	movw	r24, r28
 49c:	63 de       	rcall	.-826    	; 0x164 <_ZN18class_T6963C_Drive9DataWriteEh>
	CmdWrite(_T6963C_SETCONTROLWORD+_T6963C_TEXTHOMEADDR);
 49e:	60 e4       	ldi	r22, 0x40	; 64
 4a0:	ce 01       	movw	r24, r28
 4a2:	6d de       	rcall	.-806    	; 0x17e <_ZN18class_T6963C_Drive8CmdWriteEh>
	//Set Text Area
	DataWrite((uint8_t)_Text_Cols);
 4a4:	6f 81       	ldd	r22, Y+7	; 0x07
 4a6:	ce 01       	movw	r24, r28
 4a8:	5d de       	rcall	.-838    	; 0x164 <_ZN18class_T6963C_Drive9DataWriteEh>
	DataWrite(0);
 4aa:	60 e0       	ldi	r22, 0x00	; 0
 4ac:	ce 01       	movw	r24, r28
 4ae:	5a de       	rcall	.-844    	; 0x164 <_ZN18class_T6963C_Drive9DataWriteEh>
	CmdWrite(_T6963C_SETCONTROLWORD+_T6963C_TEXTAREA);
 4b0:	61 e4       	ldi	r22, 0x41	; 65
 4b2:	ce 01       	movw	r24, r28
 4b4:	64 de       	rcall	.-824    	; 0x17e <_ZN18class_T6963C_Drive8CmdWriteEh>
	//Set Graph Home Address
	DataWrite((uint8_t)_T6963C_GRAPH_ADDR);
 4b6:	60 e0       	ldi	r22, 0x00	; 0
 4b8:	ce 01       	movw	r24, r28
 4ba:	54 de       	rcall	.-856    	; 0x164 <_ZN18class_T6963C_Drive9DataWriteEh>
	DataWrite((uint8_t)(_T6963C_GRAPH_ADDR>>8));
 4bc:	68 e0       	ldi	r22, 0x08	; 8
 4be:	ce 01       	movw	r24, r28
 4c0:	51 de       	rcall	.-862    	; 0x164 <_ZN18class_T6963C_Drive9DataWriteEh>
	CmdWrite(_T6963C_SETCONTROLWORD+_T6963C_GRAPHHOMEADDR);
 4c2:	62 e4       	ldi	r22, 0x42	; 66
 4c4:	ce 01       	movw	r24, r28
 4c6:	5b de       	rcall	.-842    	; 0x17e <_ZN18class_T6963C_Drive8CmdWriteEh>
	//Set Graph Area
	DataWrite((uint8_t)_Text_Cols);
 4c8:	6f 81       	ldd	r22, Y+7	; 0x07
 4ca:	ce 01       	movw	r24, r28
 4cc:	4b de       	rcall	.-874    	; 0x164 <_ZN18class_T6963C_Drive9DataWriteEh>
	DataWrite((uint8_t)0);
 4ce:	60 e0       	ldi	r22, 0x00	; 0
 4d0:	ce 01       	movw	r24, r28
 4d2:	48 de       	rcall	.-880    	; 0x164 <_ZN18class_T6963C_Drive9DataWriteEh>
	CmdWrite(_T6963C_SETCONTROLWORD+_T6963C_GRAPHAREA);
 4d4:	63 e4       	ldi	r22, 0x43	; 67
 4d6:	ce 01       	movw	r24, r28
 4d8:	52 de       	rcall	.-860    	; 0x17e <_ZN18class_T6963C_Drive8CmdWriteEh>
	//Set Mode
	CmdWrite(_T6963C_MODESET+_T6963C_CGROM+_T6963C_ORMODE);
 4da:	60 e8       	ldi	r22, 0x80	; 128
 4dc:	ce 01       	movw	r24, r28
 4de:	4f de       	rcall	.-866    	; 0x17e <_ZN18class_T6963C_Drive8CmdWriteEh>
	//Set Offset
	DataWrite(0);
 4e0:	60 e0       	ldi	r22, 0x00	; 0
 4e2:	ce 01       	movw	r24, r28
 4e4:	3f de       	rcall	.-898    	; 0x164 <_ZN18class_T6963C_Drive9DataWriteEh>
	DataWrite(0);
 4e6:	60 e0       	ldi	r22, 0x00	; 0
 4e8:	ce 01       	movw	r24, r28
 4ea:	3c de       	rcall	.-904    	; 0x164 <_ZN18class_T6963C_Drive9DataWriteEh>
	CmdWrite(_T6963C_REGISTERSSETTING+_T6963C_OFFSETREGISTER);
 4ec:	62 e2       	ldi	r22, 0x22	; 34
 4ee:	ce 01       	movw	r24, r28
 4f0:	46 de       	rcall	.-884    	; 0x17e <_ZN18class_T6963C_Drive8CmdWriteEh>
	//Set Text ON, Graphics OFF,Cursor OFF
	CmdWrite(_T6963C_DISPLAYMODE+_T6963C_TEXTONGRAPHON+_T6963C_BLINKOFF);
 4f2:	6e e9       	ldi	r22, 0x9E	; 158
 4f4:	ce 01       	movw	r24, r28
 4f6:	43 de       	rcall	.-890    	; 0x17e <_ZN18class_T6963C_Drive8CmdWriteEh>
	//Clear Text Area
	ClsText();
 4f8:	ce 01       	movw	r24, r28
 4fa:	eb de       	rcall	.-554    	; 0x2d2 <_ZN18class_T6963C_Drive7ClsTextEv>
	ClsGraph();
 4fc:	ce 01       	movw	r24, r28
 4fe:	37 df       	rcall	.-402    	; 0x36e <_ZN18class_T6963C_Drive8ClsGraphEv>
	//Set Address Pointer
	DataWrite(0);
 500:	60 e0       	ldi	r22, 0x00	; 0
 502:	ce 01       	movw	r24, r28
 504:	2f de       	rcall	.-930    	; 0x164 <_ZN18class_T6963C_Drive9DataWriteEh>
	DataWrite(0);
 506:	60 e0       	ldi	r22, 0x00	; 0
 508:	ce 01       	movw	r24, r28
 50a:	2c de       	rcall	.-936    	; 0x164 <_ZN18class_T6963C_Drive9DataWriteEh>
	CmdWrite(_T6963C_REGISTERSSETTING+_T6963C_ADDRESSPOINTER);
 50c:	64 e2       	ldi	r22, 0x24	; 36
 50e:	ce 01       	movw	r24, r28
 510:	36 de       	rcall	.-916    	; 0x17e <_ZN18class_T6963C_Drive8CmdWriteEh>
	//restore SREG state
	SREG=sreg;
 512:	1f bf       	out	0x3f, r17	; 63
	//return  present status
	return true;
}
 514:	81 e0       	ldi	r24, 0x01	; 1
 516:	df 91       	pop	r29
 518:	cf 91       	pop	r28
 51a:	1f 91       	pop	r17
 51c:	08 95       	ret

0000051e <_ZN18class_T6963C_DriveC1Ev>:
//	| NAME    :												     					|
//	| INPUT   :																		|
//	| OUTPUT  :																		|
//	| REMARKS :																		|
//	+-------------------------------------------------------------------------------+
class_T6963C_Drive::class_T6963C_Drive()
 51e:	fc 01       	movw	r30, r24
 520:	80 e2       	ldi	r24, 0x20	; 32
 522:	80 83       	st	Z, r24
 524:	98 e0       	ldi	r25, 0x08	; 8
 526:	91 83       	std	Z+1, r25	; 0x01
 528:	91 e0       	ldi	r25, 0x01	; 1
 52a:	94 83       	std	Z+4, r25	; 0x04
 52c:	95 83       	std	Z+5, r25	; 0x05
 52e:	90 e1       	ldi	r25, 0x10	; 16
 530:	96 83       	std	Z+6, r25	; 0x06
 532:	94 e1       	ldi	r25, 0x14	; 20
 534:	97 83       	std	Z+7, r25	; 0x07
 536:	80 87       	std	Z+8, r24	; 0x08
 538:	11 86       	std	Z+9, r1	; 0x09
 53a:	80 ea       	ldi	r24, 0xA0	; 160
 53c:	90 e0       	ldi	r25, 0x00	; 0
 53e:	93 87       	std	Z+11, r25	; 0x0b
 540:	82 87       	std	Z+10, r24	; 0x0a
 542:	80 e8       	ldi	r24, 0x80	; 128
 544:	90 e0       	ldi	r25, 0x00	; 0
 546:	95 87       	std	Z+13, r25	; 0x0d
 548:	84 87       	std	Z+12, r24	; 0x0c
{
	Init();
 54a:	cf 01       	movw	r24, r30
 54c:	8d cf       	rjmp	.-230    	; 0x468 <_ZN18class_T6963C_Drive4InitEv>
 54e:	08 95       	ret

00000550 <main>:
*/

char bf[20];

int main()
{
 550:	cf 93       	push	r28
 552:	df 93       	push	r29
 554:	cd b7       	in	r28, 0x3d	; 61
 556:	de b7       	in	r29, 0x3e	; 62
 558:	69 97       	sbiw	r28, 0x19	; 25
 55a:	0f b6       	in	r0, 0x3f	; 63
 55c:	f8 94       	cli
 55e:	de bf       	out	0x3e, r29	; 62
 560:	0f be       	out	0x3f, r0	; 63
 562:	cd bf       	out	0x3d, r28	; 61
	class_T6963C_Drive t69;
 564:	ce 01       	movw	r24, r28
 566:	01 96       	adiw	r24, 0x01	; 1
 568:	da df       	rcall	.-76     	; 0x51e <_ZN18class_T6963C_DriveC1Ev>
	class_Time	time;
 56a:	ce 01       	movw	r24, r28
 56c:	0f 96       	adiw	r24, 0x0f	; 15
 56e:	69 d0       	rcall	.+210    	; 0x642 <_ZN10class_TimeC1Ev>
	
	long r=0;
	
	sei();
 570:	78 94       	sei
	
	t69.ClsText();
 572:	ce 01       	movw	r24, r28
 574:	01 96       	adiw	r24, 0x01	; 1
 576:	ad de       	rcall	.-678    	; 0x2d2 <_ZN18class_T6963C_Drive7ClsTextEv>
int main()
{
	class_T6963C_Drive t69;
	class_Time	time;
	
	long r=0;
 578:	1e 8a       	std	Y+22, r1	; 0x16
 57a:	1f 8a       	std	Y+23, r1	; 0x17
 57c:	18 8e       	std	Y+24, r1	; 0x18
 57e:	19 8e       	std	Y+25, r1	; 0x19
	
	sei();
	
	t69.ClsText();
for(;;){
	for(uint8_t i=1;i<=16;i++)
 580:	01 e0       	ldi	r16, 0x01	; 1
	{
		t69.LocateRC(i,1);
		sprintf(bf,"Counting(%lu)",r++);
 582:	0f 2e       	mov	r0, r31
 584:	f0 e0       	ldi	r31, 0x00	; 0
 586:	8f 2e       	mov	r8, r31
 588:	f1 e0       	ldi	r31, 0x01	; 1
 58a:	9f 2e       	mov	r9, r31
 58c:	f0 2d       	mov	r31, r0
 58e:	0f 2e       	mov	r0, r31
 590:	fe e0       	ldi	r31, 0x0E	; 14
 592:	af 2e       	mov	r10, r31
 594:	f1 e0       	ldi	r31, 0x01	; 1
 596:	bf 2e       	mov	r11, r31
 598:	f0 2d       	mov	r31, r0
 59a:	2a 2c       	mov	r2, r10
 59c:	3b 2c       	mov	r3, r11
int main()
{
	class_T6963C_Drive t69;
	class_Time	time;
	
	long r=0;
 59e:	ce 88       	ldd	r12, Y+22	; 0x16
 5a0:	df 88       	ldd	r13, Y+23	; 0x17
 5a2:	e8 8c       	ldd	r14, Y+24	; 0x18
 5a4:	f9 8c       	ldd	r15, Y+25	; 0x19
	
	sei();
	
	t69.ClsText();
for(;;){
	for(uint8_t i=1;i<=16;i++)
 5a6:	10 2f       	mov	r17, r16
	{
		t69.LocateRC(i,1);
 5a8:	40 2f       	mov	r20, r16
 5aa:	61 2f       	mov	r22, r17
 5ac:	ce 01       	movw	r24, r28
 5ae:	01 96       	adiw	r24, 0x01	; 1
 5b0:	0c de       	rcall	.-1000   	; 0x1ca <_ZN18class_T6963C_Drive8LocateRCEaa>
		sprintf(bf,"Counting(%lu)",r++);
 5b2:	26 01       	movw	r4, r12
 5b4:	37 01       	movw	r6, r14
 5b6:	8f ef       	ldi	r24, 0xFF	; 255
 5b8:	48 1a       	sub	r4, r24
 5ba:	58 0a       	sbc	r5, r24
 5bc:	68 0a       	sbc	r6, r24
 5be:	78 0a       	sbc	r7, r24
 5c0:	ff 92       	push	r15
 5c2:	ef 92       	push	r14
 5c4:	df 92       	push	r13
 5c6:	cf 92       	push	r12
 5c8:	9f 92       	push	r9
 5ca:	8f 92       	push	r8
 5cc:	bf 92       	push	r11
 5ce:	af 92       	push	r10
 5d0:	0e d1       	rcall	.+540    	; 0x7ee <sprintf>
		t69.PutS(bf);	
 5d2:	62 2d       	mov	r22, r2
 5d4:	73 2d       	mov	r23, r3
 5d6:	ce 01       	movw	r24, r28
 5d8:	01 96       	adiw	r24, 0x01	; 1
 5da:	43 df       	rcall	.-378    	; 0x462 <_ZN18class_T6963C_Drive4PutSEPKc>
		time.DelayMillisByInterrupt(10);
 5dc:	4a e0       	ldi	r20, 0x0A	; 10
 5de:	50 e0       	ldi	r21, 0x00	; 0
 5e0:	60 e0       	ldi	r22, 0x00	; 0
 5e2:	70 e0       	ldi	r23, 0x00	; 0
 5e4:	ce 01       	movw	r24, r28
 5e6:	0f 96       	adiw	r24, 0x0f	; 15
 5e8:	da d0       	rcall	.+436    	; 0x79e <_ZN10class_Time22DelayMillisByInterruptEm>
	
	sei();
	
	t69.ClsText();
for(;;){
	for(uint8_t i=1;i<=16;i++)
 5ea:	1f 5f       	subi	r17, 0xFF	; 255
	{
		t69.LocateRC(i,1);
		sprintf(bf,"Counting(%lu)",r++);
 5ec:	73 01       	movw	r14, r6
 5ee:	62 01       	movw	r12, r4
	
	sei();
	
	t69.ClsText();
for(;;){
	for(uint8_t i=1;i<=16;i++)
 5f0:	0f b6       	in	r0, 0x3f	; 63
 5f2:	f8 94       	cli
 5f4:	de bf       	out	0x3e, r29	; 62
 5f6:	0f be       	out	0x3f, r0	; 63
 5f8:	cd bf       	out	0x3d, r28	; 61
 5fa:	11 31       	cpi	r17, 0x11	; 17
 5fc:	a9 f6       	brne	.-86     	; 0x5a8 <main+0x58>
 5fe:	8e 89       	ldd	r24, Y+22	; 0x16
 600:	9f 89       	ldd	r25, Y+23	; 0x17
 602:	a8 8d       	ldd	r26, Y+24	; 0x18
 604:	b9 8d       	ldd	r27, Y+25	; 0x19
 606:	40 96       	adiw	r24, 0x10	; 16
 608:	a1 1d       	adc	r26, r1
 60a:	b1 1d       	adc	r27, r1
 60c:	8e 8b       	std	Y+22, r24	; 0x16
 60e:	9f 8b       	std	Y+23, r25	; 0x17
 610:	a8 8f       	std	Y+24, r26	; 0x18
 612:	b9 8f       	std	Y+25, r27	; 0x19
 614:	c4 cf       	rjmp	.-120    	; 0x59e <main+0x4e>

00000616 <_ZN10class_Time10InitializeEv>:
//	| REMARKS :  								                                    |
//	+-------------------------------------------------------------------------------+
uint32_t class_Time::GetElapsed(uint32_t * timeVariable)
{
	return (GetMilliseconds()-*timeVariable);				//Get difference between actual tick and save tick
}
 616:	9f b7       	in	r25, 0x3f	; 63
 618:	f8 94       	cli
 61a:	83 b7       	in	r24, 0x33	; 51
 61c:	87 7b       	andi	r24, 0xB7	; 183
 61e:	83 bf       	out	0x33, r24	; 51
 620:	83 b7       	in	r24, 0x33	; 51
 622:	88 60       	ori	r24, 0x08	; 8
 624:	83 bf       	out	0x33, r24	; 51
 626:	83 b7       	in	r24, 0x33	; 51
 628:	88 7f       	andi	r24, 0xF8	; 248
 62a:	83 bf       	out	0x33, r24	; 51
 62c:	83 b7       	in	r24, 0x33	; 51
 62e:	86 60       	ori	r24, 0x06	; 6
 630:	83 bf       	out	0x33, r24	; 51
 632:	81 e3       	ldi	r24, 0x31	; 49
 634:	81 bf       	out	0x31, r24	; 49
 636:	12 be       	out	0x32, r1	; 50
 638:	87 b7       	in	r24, 0x37	; 55
 63a:	82 60       	ori	r24, 0x02	; 2
 63c:	87 bf       	out	0x37, r24	; 55
 63e:	9f bf       	out	0x3f, r25	; 63
 640:	08 95       	ret

00000642 <_ZN10class_TimeC1Ev>:
 642:	cf 93       	push	r28
 644:	cf b7       	in	r28, 0x3f	; 63
 646:	f8 94       	cli
 648:	20 91 2a 01 	lds	r18, 0x012A
 64c:	21 11       	cpse	r18, r1
 64e:	04 c0       	rjmp	.+8      	; 0x658 <_ZN10class_TimeC1Ev+0x16>
 650:	21 e0       	ldi	r18, 0x01	; 1
 652:	20 93 2a 01 	sts	0x012A, r18
 656:	df df       	rcall	.-66     	; 0x616 <_ZN10class_Time10InitializeEv>
 658:	cf bf       	out	0x3f, r28	; 63
 65a:	cf 91       	pop	r28
 65c:	08 95       	ret

0000065e <__vector_15>:
 65e:	1f 92       	push	r1
 660:	0f 92       	push	r0
 662:	0f b6       	in	r0, 0x3f	; 63
 664:	0f 92       	push	r0
 666:	11 24       	eor	r1, r1
 668:	0b b6       	in	r0, 0x3b	; 59
 66a:	0f 92       	push	r0
 66c:	2f 93       	push	r18
 66e:	3f 93       	push	r19
 670:	4f 93       	push	r20
 672:	5f 93       	push	r21
 674:	6f 93       	push	r22
 676:	7f 93       	push	r23
 678:	8f 93       	push	r24
 67a:	9f 93       	push	r25
 67c:	af 93       	push	r26
 67e:	bf 93       	push	r27
 680:	ef 93       	push	r30
 682:	ff 93       	push	r31
 684:	78 94       	sei
 686:	e2 e2       	ldi	r30, 0x22	; 34
 688:	f1 e0       	ldi	r31, 0x01	; 1
 68a:	21 85       	ldd	r18, Z+9	; 0x09
 68c:	32 85       	ldd	r19, Z+10	; 0x0a
 68e:	43 85       	ldd	r20, Z+11	; 0x0b
 690:	54 85       	ldd	r21, Z+12	; 0x0c
 692:	65 85       	ldd	r22, Z+13	; 0x0d
 694:	76 85       	ldd	r23, Z+14	; 0x0e
 696:	87 85       	ldd	r24, Z+15	; 0x0f
 698:	90 89       	ldd	r25, Z+16	; 0x10
 69a:	24 53       	subi	r18, 0x34	; 52
 69c:	33 43       	sbci	r19, 0x33	; 51
 69e:	43 43       	sbci	r20, 0x33	; 51
 6a0:	5f 4f       	sbci	r21, 0xFF	; 255
 6a2:	6f 4f       	sbci	r22, 0xFF	; 255
 6a4:	7f 4f       	sbci	r23, 0xFF	; 255
 6a6:	8f 4f       	sbci	r24, 0xFF	; 255
 6a8:	9f 4f       	sbci	r25, 0xFF	; 255
 6aa:	21 87       	std	Z+9, r18	; 0x09
 6ac:	32 87       	std	Z+10, r19	; 0x0a
 6ae:	43 87       	std	Z+11, r20	; 0x0b
 6b0:	54 87       	std	Z+12, r21	; 0x0c
 6b2:	65 87       	std	Z+13, r22	; 0x0d
 6b4:	76 87       	std	Z+14, r23	; 0x0e
 6b6:	87 87       	std	Z+15, r24	; 0x0f
 6b8:	90 8b       	std	Z+16, r25	; 0x10
 6ba:	87 81       	ldd	r24, Z+7	; 0x07
 6bc:	88 23       	and	r24, r24
 6be:	39 f0       	breq	.+14     	; 0x6ce <__vector_15+0x70>
 6c0:	e0 91 35 01 	lds	r30, 0x0135
 6c4:	f0 91 36 01 	lds	r31, 0x0136
 6c8:	30 97       	sbiw	r30, 0x00	; 0
 6ca:	09 f0       	breq	.+2      	; 0x6ce <__vector_15+0x70>
 6cc:	09 95       	icall
 6ce:	80 91 28 01 	lds	r24, 0x0128
 6d2:	88 23       	and	r24, r24
 6d4:	d9 f1       	breq	.+118    	; 0x74c <__vector_15+0xee>
 6d6:	e2 e2       	ldi	r30, 0x22	; 34
 6d8:	f1 e0       	ldi	r31, 0x01	; 1
 6da:	83 81       	ldd	r24, Z+3	; 0x03
 6dc:	94 81       	ldd	r25, Z+4	; 0x04
 6de:	01 96       	adiw	r24, 0x01	; 1
 6e0:	94 83       	std	Z+4, r25	; 0x04
 6e2:	83 83       	std	Z+3, r24	; 0x03
 6e4:	83 81       	ldd	r24, Z+3	; 0x03
 6e6:	94 81       	ldd	r25, Z+4	; 0x04
 6e8:	8d 37       	cpi	r24, 0x7D	; 125
 6ea:	91 05       	cpc	r25, r1
 6ec:	78 f1       	brcs	.+94     	; 0x74c <__vector_15+0xee>
 6ee:	14 82       	std	Z+4, r1	; 0x04
 6f0:	13 82       	std	Z+3, r1	; 0x03
 6f2:	85 81       	ldd	r24, Z+5	; 0x05
 6f4:	8f 5f       	subi	r24, 0xFF	; 255
 6f6:	85 83       	std	Z+5, r24	; 0x05
 6f8:	85 81       	ldd	r24, Z+5	; 0x05
 6fa:	8a 30       	cpi	r24, 0x0A	; 10
 6fc:	b8 f0       	brcs	.+46     	; 0x72c <__vector_15+0xce>
 6fe:	15 82       	std	Z+5, r1	; 0x05
 700:	82 81       	ldd	r24, Z+2	; 0x02
 702:	8f 5f       	subi	r24, 0xFF	; 255
 704:	82 83       	std	Z+2, r24	; 0x02
 706:	82 81       	ldd	r24, Z+2	; 0x02
 708:	8c 33       	cpi	r24, 0x3C	; 60
 70a:	80 f0       	brcs	.+32     	; 0x72c <__vector_15+0xce>
 70c:	12 82       	std	Z+2, r1	; 0x02
 70e:	81 81       	ldd	r24, Z+1	; 0x01
 710:	8f 5f       	subi	r24, 0xFF	; 255
 712:	81 83       	std	Z+1, r24	; 0x01
 714:	81 81       	ldd	r24, Z+1	; 0x01
 716:	8c 33       	cpi	r24, 0x3C	; 60
 718:	48 f0       	brcs	.+18     	; 0x72c <__vector_15+0xce>
 71a:	11 82       	std	Z+1, r1	; 0x01
 71c:	80 81       	ld	r24, Z
 71e:	8f 5f       	subi	r24, 0xFF	; 255
 720:	80 83       	st	Z, r24
 722:	80 81       	ld	r24, Z
 724:	88 31       	cpi	r24, 0x18	; 24
 726:	10 f0       	brcs	.+4      	; 0x72c <__vector_15+0xce>
 728:	10 92 22 01 	sts	0x0122, r1
 72c:	e0 91 33 01 	lds	r30, 0x0133
 730:	f0 91 34 01 	lds	r31, 0x0134
 734:	30 97       	sbiw	r30, 0x00	; 0
 736:	51 f0       	breq	.+20     	; 0x74c <__vector_15+0xee>
 738:	a2 e2       	ldi	r26, 0x22	; 34
 73a:	b1 e0       	ldi	r27, 0x01	; 1
 73c:	12 96       	adiw	r26, 0x02	; 2
 73e:	4c 91       	ld	r20, X
 740:	12 97       	sbiw	r26, 0x02	; 2
 742:	11 96       	adiw	r26, 0x01	; 1
 744:	6c 91       	ld	r22, X
 746:	11 97       	sbiw	r26, 0x01	; 1
 748:	8c 91       	ld	r24, X
 74a:	09 95       	icall
 74c:	ff 91       	pop	r31
 74e:	ef 91       	pop	r30
 750:	bf 91       	pop	r27
 752:	af 91       	pop	r26
 754:	9f 91       	pop	r25
 756:	8f 91       	pop	r24
 758:	7f 91       	pop	r23
 75a:	6f 91       	pop	r22
 75c:	5f 91       	pop	r21
 75e:	4f 91       	pop	r20
 760:	3f 91       	pop	r19
 762:	2f 91       	pop	r18
 764:	0f 90       	pop	r0
 766:	0b be       	out	0x3b, r0	; 59
 768:	0f 90       	pop	r0
 76a:	0f be       	out	0x3f, r0	; 63
 76c:	0f 90       	pop	r0
 76e:	1f 90       	pop	r1
 770:	18 95       	reti

00000772 <_ZN10class_Time15GetMillisecondsEv>:
 772:	0f 93       	push	r16
 774:	1f 93       	push	r17
 776:	e2 e2       	ldi	r30, 0x22	; 34
 778:	f1 e0       	ldi	r31, 0x01	; 1
 77a:	78 94       	sei
 77c:	04 85       	ldd	r16, Z+12	; 0x0c
 77e:	15 85       	ldd	r17, Z+13	; 0x0d
 780:	26 85       	ldd	r18, Z+14	; 0x0e
 782:	37 85       	ldd	r19, Z+15	; 0x0f
 784:	78 94       	sei
 786:	64 85       	ldd	r22, Z+12	; 0x0c
 788:	75 85       	ldd	r23, Z+13	; 0x0d
 78a:	86 85       	ldd	r24, Z+14	; 0x0e
 78c:	97 85       	ldd	r25, Z+15	; 0x0f
 78e:	06 17       	cp	r16, r22
 790:	17 07       	cpc	r17, r23
 792:	28 07       	cpc	r18, r24
 794:	39 07       	cpc	r19, r25
 796:	89 f7       	brne	.-30     	; 0x77a <_ZN10class_Time15GetMillisecondsEv+0x8>
 798:	1f 91       	pop	r17
 79a:	0f 91       	pop	r16
 79c:	08 95       	ret

0000079e <_ZN10class_Time22DelayMillisByInterruptEm>:
//	| INPUT   :  timeMs in milliseconds					                            |
//	| OUTPUT  :  								                                    |
//	| REMARKS :  								                                    |
//	+-------------------------------------------------------------------------------+
void	class_Time::DelayMillisByInterrupt(uint32_t timeMs)
{
 79e:	8f 92       	push	r8
 7a0:	9f 92       	push	r9
 7a2:	af 92       	push	r10
 7a4:	bf 92       	push	r11
 7a6:	cf 92       	push	r12
 7a8:	df 92       	push	r13
 7aa:	ef 92       	push	r14
 7ac:	ff 92       	push	r15
 7ae:	cf 93       	push	r28
 7b0:	df 93       	push	r29
 7b2:	ec 01       	movw	r28, r24
 7b4:	4a 01       	movw	r8, r20
 7b6:	5b 01       	movw	r10, r22
	uint32_t tmp1,tmp2;

	tmp1=GetMilliseconds();             					//get actual tick value
 7b8:	dc df       	rcall	.-72     	; 0x772 <_ZN10class_Time15GetMillisecondsEv>
 7ba:	6b 01       	movw	r12, r22
 7bc:	7c 01       	movw	r14, r24
	do{
		tmp2=GetMilliseconds();
 7be:	ce 01       	movw	r24, r28
 7c0:	d8 df       	rcall	.-80     	; 0x772 <_ZN10class_Time15GetMillisecondsEv>
	} while ((tmp2-tmp1)<timeMs);							//wait reach a predefined value tick
 7c2:	dc 01       	movw	r26, r24
 7c4:	cb 01       	movw	r24, r22
 7c6:	8c 19       	sub	r24, r12
 7c8:	9d 09       	sbc	r25, r13
 7ca:	ae 09       	sbc	r26, r14
 7cc:	bf 09       	sbc	r27, r15
void	class_Time::DelayMillisByInterrupt(uint32_t timeMs)
{
	uint32_t tmp1,tmp2;

	tmp1=GetMilliseconds();             					//get actual tick value
	do{
 7ce:	88 15       	cp	r24, r8
 7d0:	99 05       	cpc	r25, r9
 7d2:	aa 05       	cpc	r26, r10
 7d4:	bb 05       	cpc	r27, r11
 7d6:	98 f3       	brcs	.-26     	; 0x7be <_ZN10class_Time22DelayMillisByInterruptEm+0x20>
		tmp2=GetMilliseconds();
	} while ((tmp2-tmp1)<timeMs);							//wait reach a predefined value tick
}
 7d8:	df 91       	pop	r29
 7da:	cf 91       	pop	r28
 7dc:	ff 90       	pop	r15
 7de:	ef 90       	pop	r14
 7e0:	df 90       	pop	r13
 7e2:	cf 90       	pop	r12
 7e4:	bf 90       	pop	r11
 7e6:	af 90       	pop	r10
 7e8:	9f 90       	pop	r9
 7ea:	8f 90       	pop	r8
 7ec:	08 95       	ret

000007ee <sprintf>:
 7ee:	0f 93       	push	r16
 7f0:	1f 93       	push	r17
 7f2:	cf 93       	push	r28
 7f4:	df 93       	push	r29
 7f6:	cd b7       	in	r28, 0x3d	; 61
 7f8:	de b7       	in	r29, 0x3e	; 62
 7fa:	2e 97       	sbiw	r28, 0x0e	; 14
 7fc:	0f b6       	in	r0, 0x3f	; 63
 7fe:	f8 94       	cli
 800:	de bf       	out	0x3e, r29	; 62
 802:	0f be       	out	0x3f, r0	; 63
 804:	cd bf       	out	0x3d, r28	; 61
 806:	0d 89       	ldd	r16, Y+21	; 0x15
 808:	1e 89       	ldd	r17, Y+22	; 0x16
 80a:	86 e0       	ldi	r24, 0x06	; 6
 80c:	8c 83       	std	Y+4, r24	; 0x04
 80e:	1a 83       	std	Y+2, r17	; 0x02
 810:	09 83       	std	Y+1, r16	; 0x01
 812:	8f ef       	ldi	r24, 0xFF	; 255
 814:	9f e7       	ldi	r25, 0x7F	; 127
 816:	9e 83       	std	Y+6, r25	; 0x06
 818:	8d 83       	std	Y+5, r24	; 0x05
 81a:	ae 01       	movw	r20, r28
 81c:	47 5e       	subi	r20, 0xE7	; 231
 81e:	5f 4f       	sbci	r21, 0xFF	; 255
 820:	6f 89       	ldd	r22, Y+23	; 0x17
 822:	78 8d       	ldd	r23, Y+24	; 0x18
 824:	ce 01       	movw	r24, r28
 826:	01 96       	adiw	r24, 0x01	; 1
 828:	11 d0       	rcall	.+34     	; 0x84c <vfprintf>
 82a:	2f 81       	ldd	r18, Y+7	; 0x07
 82c:	38 85       	ldd	r19, Y+8	; 0x08
 82e:	f8 01       	movw	r30, r16
 830:	e2 0f       	add	r30, r18
 832:	f3 1f       	adc	r31, r19
 834:	10 82       	st	Z, r1
 836:	2e 96       	adiw	r28, 0x0e	; 14
 838:	0f b6       	in	r0, 0x3f	; 63
 83a:	f8 94       	cli
 83c:	de bf       	out	0x3e, r29	; 62
 83e:	0f be       	out	0x3f, r0	; 63
 840:	cd bf       	out	0x3d, r28	; 61
 842:	df 91       	pop	r29
 844:	cf 91       	pop	r28
 846:	1f 91       	pop	r17
 848:	0f 91       	pop	r16
 84a:	08 95       	ret

0000084c <vfprintf>:
 84c:	2f 92       	push	r2
 84e:	3f 92       	push	r3
 850:	4f 92       	push	r4
 852:	5f 92       	push	r5
 854:	6f 92       	push	r6
 856:	7f 92       	push	r7
 858:	8f 92       	push	r8
 85a:	9f 92       	push	r9
 85c:	af 92       	push	r10
 85e:	bf 92       	push	r11
 860:	cf 92       	push	r12
 862:	df 92       	push	r13
 864:	ef 92       	push	r14
 866:	ff 92       	push	r15
 868:	0f 93       	push	r16
 86a:	1f 93       	push	r17
 86c:	cf 93       	push	r28
 86e:	df 93       	push	r29
 870:	cd b7       	in	r28, 0x3d	; 61
 872:	de b7       	in	r29, 0x3e	; 62
 874:	2c 97       	sbiw	r28, 0x0c	; 12
 876:	0f b6       	in	r0, 0x3f	; 63
 878:	f8 94       	cli
 87a:	de bf       	out	0x3e, r29	; 62
 87c:	0f be       	out	0x3f, r0	; 63
 87e:	cd bf       	out	0x3d, r28	; 61
 880:	7c 01       	movw	r14, r24
 882:	6b 01       	movw	r12, r22
 884:	8a 01       	movw	r16, r20
 886:	fc 01       	movw	r30, r24
 888:	17 82       	std	Z+7, r1	; 0x07
 88a:	16 82       	std	Z+6, r1	; 0x06
 88c:	83 81       	ldd	r24, Z+3	; 0x03
 88e:	81 ff       	sbrs	r24, 1
 890:	b0 c1       	rjmp	.+864    	; 0xbf2 <vfprintf+0x3a6>
 892:	ce 01       	movw	r24, r28
 894:	01 96       	adiw	r24, 0x01	; 1
 896:	4c 01       	movw	r8, r24
 898:	f7 01       	movw	r30, r14
 89a:	93 81       	ldd	r25, Z+3	; 0x03
 89c:	f6 01       	movw	r30, r12
 89e:	93 fd       	sbrc	r25, 3
 8a0:	85 91       	lpm	r24, Z+
 8a2:	93 ff       	sbrs	r25, 3
 8a4:	81 91       	ld	r24, Z+
 8a6:	6f 01       	movw	r12, r30
 8a8:	88 23       	and	r24, r24
 8aa:	09 f4       	brne	.+2      	; 0x8ae <vfprintf+0x62>
 8ac:	9e c1       	rjmp	.+828    	; 0xbea <vfprintf+0x39e>
 8ae:	85 32       	cpi	r24, 0x25	; 37
 8b0:	39 f4       	brne	.+14     	; 0x8c0 <vfprintf+0x74>
 8b2:	93 fd       	sbrc	r25, 3
 8b4:	85 91       	lpm	r24, Z+
 8b6:	93 ff       	sbrs	r25, 3
 8b8:	81 91       	ld	r24, Z+
 8ba:	6f 01       	movw	r12, r30
 8bc:	85 32       	cpi	r24, 0x25	; 37
 8be:	21 f4       	brne	.+8      	; 0x8c8 <vfprintf+0x7c>
 8c0:	b7 01       	movw	r22, r14
 8c2:	90 e0       	ldi	r25, 0x00	; 0
 8c4:	c7 d1       	rcall	.+910    	; 0xc54 <fputc>
 8c6:	e8 cf       	rjmp	.-48     	; 0x898 <vfprintf+0x4c>
 8c8:	51 2c       	mov	r5, r1
 8ca:	31 2c       	mov	r3, r1
 8cc:	20 e0       	ldi	r18, 0x00	; 0
 8ce:	20 32       	cpi	r18, 0x20	; 32
 8d0:	a0 f4       	brcc	.+40     	; 0x8fa <vfprintf+0xae>
 8d2:	8b 32       	cpi	r24, 0x2B	; 43
 8d4:	69 f0       	breq	.+26     	; 0x8f0 <vfprintf+0xa4>
 8d6:	30 f4       	brcc	.+12     	; 0x8e4 <vfprintf+0x98>
 8d8:	80 32       	cpi	r24, 0x20	; 32
 8da:	59 f0       	breq	.+22     	; 0x8f2 <vfprintf+0xa6>
 8dc:	83 32       	cpi	r24, 0x23	; 35
 8de:	69 f4       	brne	.+26     	; 0x8fa <vfprintf+0xae>
 8e0:	20 61       	ori	r18, 0x10	; 16
 8e2:	2c c0       	rjmp	.+88     	; 0x93c <vfprintf+0xf0>
 8e4:	8d 32       	cpi	r24, 0x2D	; 45
 8e6:	39 f0       	breq	.+14     	; 0x8f6 <vfprintf+0xaa>
 8e8:	80 33       	cpi	r24, 0x30	; 48
 8ea:	39 f4       	brne	.+14     	; 0x8fa <vfprintf+0xae>
 8ec:	21 60       	ori	r18, 0x01	; 1
 8ee:	26 c0       	rjmp	.+76     	; 0x93c <vfprintf+0xf0>
 8f0:	22 60       	ori	r18, 0x02	; 2
 8f2:	24 60       	ori	r18, 0x04	; 4
 8f4:	23 c0       	rjmp	.+70     	; 0x93c <vfprintf+0xf0>
 8f6:	28 60       	ori	r18, 0x08	; 8
 8f8:	21 c0       	rjmp	.+66     	; 0x93c <vfprintf+0xf0>
 8fa:	27 fd       	sbrc	r18, 7
 8fc:	27 c0       	rjmp	.+78     	; 0x94c <vfprintf+0x100>
 8fe:	30 ed       	ldi	r19, 0xD0	; 208
 900:	38 0f       	add	r19, r24
 902:	3a 30       	cpi	r19, 0x0A	; 10
 904:	78 f4       	brcc	.+30     	; 0x924 <vfprintf+0xd8>
 906:	26 ff       	sbrs	r18, 6
 908:	06 c0       	rjmp	.+12     	; 0x916 <vfprintf+0xca>
 90a:	fa e0       	ldi	r31, 0x0A	; 10
 90c:	5f 9e       	mul	r5, r31
 90e:	30 0d       	add	r19, r0
 910:	11 24       	eor	r1, r1
 912:	53 2e       	mov	r5, r19
 914:	13 c0       	rjmp	.+38     	; 0x93c <vfprintf+0xf0>
 916:	8a e0       	ldi	r24, 0x0A	; 10
 918:	38 9e       	mul	r3, r24
 91a:	30 0d       	add	r19, r0
 91c:	11 24       	eor	r1, r1
 91e:	33 2e       	mov	r3, r19
 920:	20 62       	ori	r18, 0x20	; 32
 922:	0c c0       	rjmp	.+24     	; 0x93c <vfprintf+0xf0>
 924:	8e 32       	cpi	r24, 0x2E	; 46
 926:	21 f4       	brne	.+8      	; 0x930 <vfprintf+0xe4>
 928:	26 fd       	sbrc	r18, 6
 92a:	5f c1       	rjmp	.+702    	; 0xbea <vfprintf+0x39e>
 92c:	20 64       	ori	r18, 0x40	; 64
 92e:	06 c0       	rjmp	.+12     	; 0x93c <vfprintf+0xf0>
 930:	8c 36       	cpi	r24, 0x6C	; 108
 932:	11 f4       	brne	.+4      	; 0x938 <vfprintf+0xec>
 934:	20 68       	ori	r18, 0x80	; 128
 936:	02 c0       	rjmp	.+4      	; 0x93c <vfprintf+0xf0>
 938:	88 36       	cpi	r24, 0x68	; 104
 93a:	41 f4       	brne	.+16     	; 0x94c <vfprintf+0x100>
 93c:	f6 01       	movw	r30, r12
 93e:	93 fd       	sbrc	r25, 3
 940:	85 91       	lpm	r24, Z+
 942:	93 ff       	sbrs	r25, 3
 944:	81 91       	ld	r24, Z+
 946:	6f 01       	movw	r12, r30
 948:	81 11       	cpse	r24, r1
 94a:	c1 cf       	rjmp	.-126    	; 0x8ce <vfprintf+0x82>
 94c:	98 2f       	mov	r25, r24
 94e:	9f 7d       	andi	r25, 0xDF	; 223
 950:	95 54       	subi	r25, 0x45	; 69
 952:	93 30       	cpi	r25, 0x03	; 3
 954:	28 f4       	brcc	.+10     	; 0x960 <vfprintf+0x114>
 956:	0c 5f       	subi	r16, 0xFC	; 252
 958:	1f 4f       	sbci	r17, 0xFF	; 255
 95a:	ff e3       	ldi	r31, 0x3F	; 63
 95c:	f9 83       	std	Y+1, r31	; 0x01
 95e:	0d c0       	rjmp	.+26     	; 0x97a <vfprintf+0x12e>
 960:	83 36       	cpi	r24, 0x63	; 99
 962:	31 f0       	breq	.+12     	; 0x970 <vfprintf+0x124>
 964:	83 37       	cpi	r24, 0x73	; 115
 966:	71 f0       	breq	.+28     	; 0x984 <vfprintf+0x138>
 968:	83 35       	cpi	r24, 0x53	; 83
 96a:	09 f0       	breq	.+2      	; 0x96e <vfprintf+0x122>
 96c:	57 c0       	rjmp	.+174    	; 0xa1c <vfprintf+0x1d0>
 96e:	21 c0       	rjmp	.+66     	; 0x9b2 <vfprintf+0x166>
 970:	f8 01       	movw	r30, r16
 972:	80 81       	ld	r24, Z
 974:	89 83       	std	Y+1, r24	; 0x01
 976:	0e 5f       	subi	r16, 0xFE	; 254
 978:	1f 4f       	sbci	r17, 0xFF	; 255
 97a:	44 24       	eor	r4, r4
 97c:	43 94       	inc	r4
 97e:	51 2c       	mov	r5, r1
 980:	54 01       	movw	r10, r8
 982:	14 c0       	rjmp	.+40     	; 0x9ac <vfprintf+0x160>
 984:	38 01       	movw	r6, r16
 986:	f2 e0       	ldi	r31, 0x02	; 2
 988:	6f 0e       	add	r6, r31
 98a:	71 1c       	adc	r7, r1
 98c:	f8 01       	movw	r30, r16
 98e:	a0 80       	ld	r10, Z
 990:	b1 80       	ldd	r11, Z+1	; 0x01
 992:	26 ff       	sbrs	r18, 6
 994:	03 c0       	rjmp	.+6      	; 0x99c <vfprintf+0x150>
 996:	65 2d       	mov	r22, r5
 998:	70 e0       	ldi	r23, 0x00	; 0
 99a:	02 c0       	rjmp	.+4      	; 0x9a0 <vfprintf+0x154>
 99c:	6f ef       	ldi	r22, 0xFF	; 255
 99e:	7f ef       	ldi	r23, 0xFF	; 255
 9a0:	c5 01       	movw	r24, r10
 9a2:	2c 87       	std	Y+12, r18	; 0x0c
 9a4:	4c d1       	rcall	.+664    	; 0xc3e <strnlen>
 9a6:	2c 01       	movw	r4, r24
 9a8:	83 01       	movw	r16, r6
 9aa:	2c 85       	ldd	r18, Y+12	; 0x0c
 9ac:	2f 77       	andi	r18, 0x7F	; 127
 9ae:	22 2e       	mov	r2, r18
 9b0:	16 c0       	rjmp	.+44     	; 0x9de <vfprintf+0x192>
 9b2:	38 01       	movw	r6, r16
 9b4:	f2 e0       	ldi	r31, 0x02	; 2
 9b6:	6f 0e       	add	r6, r31
 9b8:	71 1c       	adc	r7, r1
 9ba:	f8 01       	movw	r30, r16
 9bc:	a0 80       	ld	r10, Z
 9be:	b1 80       	ldd	r11, Z+1	; 0x01
 9c0:	26 ff       	sbrs	r18, 6
 9c2:	03 c0       	rjmp	.+6      	; 0x9ca <vfprintf+0x17e>
 9c4:	65 2d       	mov	r22, r5
 9c6:	70 e0       	ldi	r23, 0x00	; 0
 9c8:	02 c0       	rjmp	.+4      	; 0x9ce <vfprintf+0x182>
 9ca:	6f ef       	ldi	r22, 0xFF	; 255
 9cc:	7f ef       	ldi	r23, 0xFF	; 255
 9ce:	c5 01       	movw	r24, r10
 9d0:	2c 87       	std	Y+12, r18	; 0x0c
 9d2:	2a d1       	rcall	.+596    	; 0xc28 <strnlen_P>
 9d4:	2c 01       	movw	r4, r24
 9d6:	2c 85       	ldd	r18, Y+12	; 0x0c
 9d8:	20 68       	ori	r18, 0x80	; 128
 9da:	22 2e       	mov	r2, r18
 9dc:	83 01       	movw	r16, r6
 9de:	23 fc       	sbrc	r2, 3
 9e0:	19 c0       	rjmp	.+50     	; 0xa14 <vfprintf+0x1c8>
 9e2:	83 2d       	mov	r24, r3
 9e4:	90 e0       	ldi	r25, 0x00	; 0
 9e6:	48 16       	cp	r4, r24
 9e8:	59 06       	cpc	r5, r25
 9ea:	a0 f4       	brcc	.+40     	; 0xa14 <vfprintf+0x1c8>
 9ec:	b7 01       	movw	r22, r14
 9ee:	80 e2       	ldi	r24, 0x20	; 32
 9f0:	90 e0       	ldi	r25, 0x00	; 0
 9f2:	30 d1       	rcall	.+608    	; 0xc54 <fputc>
 9f4:	3a 94       	dec	r3
 9f6:	f5 cf       	rjmp	.-22     	; 0x9e2 <vfprintf+0x196>
 9f8:	f5 01       	movw	r30, r10
 9fa:	27 fc       	sbrc	r2, 7
 9fc:	85 91       	lpm	r24, Z+
 9fe:	27 fe       	sbrs	r2, 7
 a00:	81 91       	ld	r24, Z+
 a02:	5f 01       	movw	r10, r30
 a04:	b7 01       	movw	r22, r14
 a06:	90 e0       	ldi	r25, 0x00	; 0
 a08:	25 d1       	rcall	.+586    	; 0xc54 <fputc>
 a0a:	31 10       	cpse	r3, r1
 a0c:	3a 94       	dec	r3
 a0e:	f1 e0       	ldi	r31, 0x01	; 1
 a10:	4f 1a       	sub	r4, r31
 a12:	51 08       	sbc	r5, r1
 a14:	41 14       	cp	r4, r1
 a16:	51 04       	cpc	r5, r1
 a18:	79 f7       	brne	.-34     	; 0x9f8 <vfprintf+0x1ac>
 a1a:	de c0       	rjmp	.+444    	; 0xbd8 <vfprintf+0x38c>
 a1c:	84 36       	cpi	r24, 0x64	; 100
 a1e:	11 f0       	breq	.+4      	; 0xa24 <vfprintf+0x1d8>
 a20:	89 36       	cpi	r24, 0x69	; 105
 a22:	31 f5       	brne	.+76     	; 0xa70 <vfprintf+0x224>
 a24:	f8 01       	movw	r30, r16
 a26:	27 ff       	sbrs	r18, 7
 a28:	07 c0       	rjmp	.+14     	; 0xa38 <vfprintf+0x1ec>
 a2a:	60 81       	ld	r22, Z
 a2c:	71 81       	ldd	r23, Z+1	; 0x01
 a2e:	82 81       	ldd	r24, Z+2	; 0x02
 a30:	93 81       	ldd	r25, Z+3	; 0x03
 a32:	0c 5f       	subi	r16, 0xFC	; 252
 a34:	1f 4f       	sbci	r17, 0xFF	; 255
 a36:	08 c0       	rjmp	.+16     	; 0xa48 <vfprintf+0x1fc>
 a38:	60 81       	ld	r22, Z
 a3a:	71 81       	ldd	r23, Z+1	; 0x01
 a3c:	07 2e       	mov	r0, r23
 a3e:	00 0c       	add	r0, r0
 a40:	88 0b       	sbc	r24, r24
 a42:	99 0b       	sbc	r25, r25
 a44:	0e 5f       	subi	r16, 0xFE	; 254
 a46:	1f 4f       	sbci	r17, 0xFF	; 255
 a48:	2f 76       	andi	r18, 0x6F	; 111
 a4a:	72 2e       	mov	r7, r18
 a4c:	97 ff       	sbrs	r25, 7
 a4e:	09 c0       	rjmp	.+18     	; 0xa62 <vfprintf+0x216>
 a50:	90 95       	com	r25
 a52:	80 95       	com	r24
 a54:	70 95       	com	r23
 a56:	61 95       	neg	r22
 a58:	7f 4f       	sbci	r23, 0xFF	; 255
 a5a:	8f 4f       	sbci	r24, 0xFF	; 255
 a5c:	9f 4f       	sbci	r25, 0xFF	; 255
 a5e:	20 68       	ori	r18, 0x80	; 128
 a60:	72 2e       	mov	r7, r18
 a62:	2a e0       	ldi	r18, 0x0A	; 10
 a64:	30 e0       	ldi	r19, 0x00	; 0
 a66:	a4 01       	movw	r20, r8
 a68:	2d d1       	rcall	.+602    	; 0xcc4 <__ultoa_invert>
 a6a:	a8 2e       	mov	r10, r24
 a6c:	a8 18       	sub	r10, r8
 a6e:	43 c0       	rjmp	.+134    	; 0xaf6 <vfprintf+0x2aa>
 a70:	85 37       	cpi	r24, 0x75	; 117
 a72:	29 f4       	brne	.+10     	; 0xa7e <vfprintf+0x232>
 a74:	2f 7e       	andi	r18, 0xEF	; 239
 a76:	b2 2e       	mov	r11, r18
 a78:	2a e0       	ldi	r18, 0x0A	; 10
 a7a:	30 e0       	ldi	r19, 0x00	; 0
 a7c:	25 c0       	rjmp	.+74     	; 0xac8 <vfprintf+0x27c>
 a7e:	f2 2f       	mov	r31, r18
 a80:	f9 7f       	andi	r31, 0xF9	; 249
 a82:	bf 2e       	mov	r11, r31
 a84:	8f 36       	cpi	r24, 0x6F	; 111
 a86:	c1 f0       	breq	.+48     	; 0xab8 <vfprintf+0x26c>
 a88:	18 f4       	brcc	.+6      	; 0xa90 <vfprintf+0x244>
 a8a:	88 35       	cpi	r24, 0x58	; 88
 a8c:	79 f0       	breq	.+30     	; 0xaac <vfprintf+0x260>
 a8e:	ad c0       	rjmp	.+346    	; 0xbea <vfprintf+0x39e>
 a90:	80 37       	cpi	r24, 0x70	; 112
 a92:	19 f0       	breq	.+6      	; 0xa9a <vfprintf+0x24e>
 a94:	88 37       	cpi	r24, 0x78	; 120
 a96:	21 f0       	breq	.+8      	; 0xaa0 <vfprintf+0x254>
 a98:	a8 c0       	rjmp	.+336    	; 0xbea <vfprintf+0x39e>
 a9a:	2f 2f       	mov	r18, r31
 a9c:	20 61       	ori	r18, 0x10	; 16
 a9e:	b2 2e       	mov	r11, r18
 aa0:	b4 fe       	sbrs	r11, 4
 aa2:	0d c0       	rjmp	.+26     	; 0xabe <vfprintf+0x272>
 aa4:	8b 2d       	mov	r24, r11
 aa6:	84 60       	ori	r24, 0x04	; 4
 aa8:	b8 2e       	mov	r11, r24
 aaa:	09 c0       	rjmp	.+18     	; 0xabe <vfprintf+0x272>
 aac:	24 ff       	sbrs	r18, 4
 aae:	0a c0       	rjmp	.+20     	; 0xac4 <vfprintf+0x278>
 ab0:	9f 2f       	mov	r25, r31
 ab2:	96 60       	ori	r25, 0x06	; 6
 ab4:	b9 2e       	mov	r11, r25
 ab6:	06 c0       	rjmp	.+12     	; 0xac4 <vfprintf+0x278>
 ab8:	28 e0       	ldi	r18, 0x08	; 8
 aba:	30 e0       	ldi	r19, 0x00	; 0
 abc:	05 c0       	rjmp	.+10     	; 0xac8 <vfprintf+0x27c>
 abe:	20 e1       	ldi	r18, 0x10	; 16
 ac0:	30 e0       	ldi	r19, 0x00	; 0
 ac2:	02 c0       	rjmp	.+4      	; 0xac8 <vfprintf+0x27c>
 ac4:	20 e1       	ldi	r18, 0x10	; 16
 ac6:	32 e0       	ldi	r19, 0x02	; 2
 ac8:	f8 01       	movw	r30, r16
 aca:	b7 fe       	sbrs	r11, 7
 acc:	07 c0       	rjmp	.+14     	; 0xadc <vfprintf+0x290>
 ace:	60 81       	ld	r22, Z
 ad0:	71 81       	ldd	r23, Z+1	; 0x01
 ad2:	82 81       	ldd	r24, Z+2	; 0x02
 ad4:	93 81       	ldd	r25, Z+3	; 0x03
 ad6:	0c 5f       	subi	r16, 0xFC	; 252
 ad8:	1f 4f       	sbci	r17, 0xFF	; 255
 ada:	06 c0       	rjmp	.+12     	; 0xae8 <vfprintf+0x29c>
 adc:	60 81       	ld	r22, Z
 ade:	71 81       	ldd	r23, Z+1	; 0x01
 ae0:	80 e0       	ldi	r24, 0x00	; 0
 ae2:	90 e0       	ldi	r25, 0x00	; 0
 ae4:	0e 5f       	subi	r16, 0xFE	; 254
 ae6:	1f 4f       	sbci	r17, 0xFF	; 255
 ae8:	a4 01       	movw	r20, r8
 aea:	ec d0       	rcall	.+472    	; 0xcc4 <__ultoa_invert>
 aec:	a8 2e       	mov	r10, r24
 aee:	a8 18       	sub	r10, r8
 af0:	fb 2d       	mov	r31, r11
 af2:	ff 77       	andi	r31, 0x7F	; 127
 af4:	7f 2e       	mov	r7, r31
 af6:	76 fe       	sbrs	r7, 6
 af8:	0b c0       	rjmp	.+22     	; 0xb10 <vfprintf+0x2c4>
 afa:	37 2d       	mov	r19, r7
 afc:	3e 7f       	andi	r19, 0xFE	; 254
 afe:	a5 14       	cp	r10, r5
 b00:	50 f4       	brcc	.+20     	; 0xb16 <vfprintf+0x2ca>
 b02:	74 fe       	sbrs	r7, 4
 b04:	0a c0       	rjmp	.+20     	; 0xb1a <vfprintf+0x2ce>
 b06:	72 fc       	sbrc	r7, 2
 b08:	08 c0       	rjmp	.+16     	; 0xb1a <vfprintf+0x2ce>
 b0a:	37 2d       	mov	r19, r7
 b0c:	3e 7e       	andi	r19, 0xEE	; 238
 b0e:	05 c0       	rjmp	.+10     	; 0xb1a <vfprintf+0x2ce>
 b10:	ba 2c       	mov	r11, r10
 b12:	37 2d       	mov	r19, r7
 b14:	03 c0       	rjmp	.+6      	; 0xb1c <vfprintf+0x2d0>
 b16:	ba 2c       	mov	r11, r10
 b18:	01 c0       	rjmp	.+2      	; 0xb1c <vfprintf+0x2d0>
 b1a:	b5 2c       	mov	r11, r5
 b1c:	34 ff       	sbrs	r19, 4
 b1e:	0d c0       	rjmp	.+26     	; 0xb3a <vfprintf+0x2ee>
 b20:	fe 01       	movw	r30, r28
 b22:	ea 0d       	add	r30, r10
 b24:	f1 1d       	adc	r31, r1
 b26:	80 81       	ld	r24, Z
 b28:	80 33       	cpi	r24, 0x30	; 48
 b2a:	11 f4       	brne	.+4      	; 0xb30 <vfprintf+0x2e4>
 b2c:	39 7e       	andi	r19, 0xE9	; 233
 b2e:	09 c0       	rjmp	.+18     	; 0xb42 <vfprintf+0x2f6>
 b30:	32 ff       	sbrs	r19, 2
 b32:	06 c0       	rjmp	.+12     	; 0xb40 <vfprintf+0x2f4>
 b34:	b3 94       	inc	r11
 b36:	b3 94       	inc	r11
 b38:	04 c0       	rjmp	.+8      	; 0xb42 <vfprintf+0x2f6>
 b3a:	83 2f       	mov	r24, r19
 b3c:	86 78       	andi	r24, 0x86	; 134
 b3e:	09 f0       	breq	.+2      	; 0xb42 <vfprintf+0x2f6>
 b40:	b3 94       	inc	r11
 b42:	33 fd       	sbrc	r19, 3
 b44:	12 c0       	rjmp	.+36     	; 0xb6a <vfprintf+0x31e>
 b46:	30 ff       	sbrs	r19, 0
 b48:	06 c0       	rjmp	.+12     	; 0xb56 <vfprintf+0x30a>
 b4a:	5a 2c       	mov	r5, r10
 b4c:	b3 14       	cp	r11, r3
 b4e:	18 f4       	brcc	.+6      	; 0xb56 <vfprintf+0x30a>
 b50:	53 0c       	add	r5, r3
 b52:	5b 18       	sub	r5, r11
 b54:	b3 2c       	mov	r11, r3
 b56:	b3 14       	cp	r11, r3
 b58:	60 f4       	brcc	.+24     	; 0xb72 <vfprintf+0x326>
 b5a:	b7 01       	movw	r22, r14
 b5c:	80 e2       	ldi	r24, 0x20	; 32
 b5e:	90 e0       	ldi	r25, 0x00	; 0
 b60:	3c 87       	std	Y+12, r19	; 0x0c
 b62:	78 d0       	rcall	.+240    	; 0xc54 <fputc>
 b64:	b3 94       	inc	r11
 b66:	3c 85       	ldd	r19, Y+12	; 0x0c
 b68:	f6 cf       	rjmp	.-20     	; 0xb56 <vfprintf+0x30a>
 b6a:	b3 14       	cp	r11, r3
 b6c:	10 f4       	brcc	.+4      	; 0xb72 <vfprintf+0x326>
 b6e:	3b 18       	sub	r3, r11
 b70:	01 c0       	rjmp	.+2      	; 0xb74 <vfprintf+0x328>
 b72:	31 2c       	mov	r3, r1
 b74:	34 ff       	sbrs	r19, 4
 b76:	11 c0       	rjmp	.+34     	; 0xb9a <vfprintf+0x34e>
 b78:	b7 01       	movw	r22, r14
 b7a:	80 e3       	ldi	r24, 0x30	; 48
 b7c:	90 e0       	ldi	r25, 0x00	; 0
 b7e:	3c 87       	std	Y+12, r19	; 0x0c
 b80:	69 d0       	rcall	.+210    	; 0xc54 <fputc>
 b82:	3c 85       	ldd	r19, Y+12	; 0x0c
 b84:	32 ff       	sbrs	r19, 2
 b86:	16 c0       	rjmp	.+44     	; 0xbb4 <vfprintf+0x368>
 b88:	31 fd       	sbrc	r19, 1
 b8a:	03 c0       	rjmp	.+6      	; 0xb92 <vfprintf+0x346>
 b8c:	88 e7       	ldi	r24, 0x78	; 120
 b8e:	90 e0       	ldi	r25, 0x00	; 0
 b90:	02 c0       	rjmp	.+4      	; 0xb96 <vfprintf+0x34a>
 b92:	88 e5       	ldi	r24, 0x58	; 88
 b94:	90 e0       	ldi	r25, 0x00	; 0
 b96:	b7 01       	movw	r22, r14
 b98:	0c c0       	rjmp	.+24     	; 0xbb2 <vfprintf+0x366>
 b9a:	83 2f       	mov	r24, r19
 b9c:	86 78       	andi	r24, 0x86	; 134
 b9e:	51 f0       	breq	.+20     	; 0xbb4 <vfprintf+0x368>
 ba0:	31 ff       	sbrs	r19, 1
 ba2:	02 c0       	rjmp	.+4      	; 0xba8 <vfprintf+0x35c>
 ba4:	8b e2       	ldi	r24, 0x2B	; 43
 ba6:	01 c0       	rjmp	.+2      	; 0xbaa <vfprintf+0x35e>
 ba8:	80 e2       	ldi	r24, 0x20	; 32
 baa:	37 fd       	sbrc	r19, 7
 bac:	8d e2       	ldi	r24, 0x2D	; 45
 bae:	b7 01       	movw	r22, r14
 bb0:	90 e0       	ldi	r25, 0x00	; 0
 bb2:	50 d0       	rcall	.+160    	; 0xc54 <fputc>
 bb4:	a5 14       	cp	r10, r5
 bb6:	30 f4       	brcc	.+12     	; 0xbc4 <vfprintf+0x378>
 bb8:	b7 01       	movw	r22, r14
 bba:	80 e3       	ldi	r24, 0x30	; 48
 bbc:	90 e0       	ldi	r25, 0x00	; 0
 bbe:	4a d0       	rcall	.+148    	; 0xc54 <fputc>
 bc0:	5a 94       	dec	r5
 bc2:	f8 cf       	rjmp	.-16     	; 0xbb4 <vfprintf+0x368>
 bc4:	aa 94       	dec	r10
 bc6:	f4 01       	movw	r30, r8
 bc8:	ea 0d       	add	r30, r10
 bca:	f1 1d       	adc	r31, r1
 bcc:	80 81       	ld	r24, Z
 bce:	b7 01       	movw	r22, r14
 bd0:	90 e0       	ldi	r25, 0x00	; 0
 bd2:	40 d0       	rcall	.+128    	; 0xc54 <fputc>
 bd4:	a1 10       	cpse	r10, r1
 bd6:	f6 cf       	rjmp	.-20     	; 0xbc4 <vfprintf+0x378>
 bd8:	33 20       	and	r3, r3
 bda:	09 f4       	brne	.+2      	; 0xbde <vfprintf+0x392>
 bdc:	5d ce       	rjmp	.-838    	; 0x898 <vfprintf+0x4c>
 bde:	b7 01       	movw	r22, r14
 be0:	80 e2       	ldi	r24, 0x20	; 32
 be2:	90 e0       	ldi	r25, 0x00	; 0
 be4:	37 d0       	rcall	.+110    	; 0xc54 <fputc>
 be6:	3a 94       	dec	r3
 be8:	f7 cf       	rjmp	.-18     	; 0xbd8 <vfprintf+0x38c>
 bea:	f7 01       	movw	r30, r14
 bec:	86 81       	ldd	r24, Z+6	; 0x06
 bee:	97 81       	ldd	r25, Z+7	; 0x07
 bf0:	02 c0       	rjmp	.+4      	; 0xbf6 <vfprintf+0x3aa>
 bf2:	8f ef       	ldi	r24, 0xFF	; 255
 bf4:	9f ef       	ldi	r25, 0xFF	; 255
 bf6:	2c 96       	adiw	r28, 0x0c	; 12
 bf8:	0f b6       	in	r0, 0x3f	; 63
 bfa:	f8 94       	cli
 bfc:	de bf       	out	0x3e, r29	; 62
 bfe:	0f be       	out	0x3f, r0	; 63
 c00:	cd bf       	out	0x3d, r28	; 61
 c02:	df 91       	pop	r29
 c04:	cf 91       	pop	r28
 c06:	1f 91       	pop	r17
 c08:	0f 91       	pop	r16
 c0a:	ff 90       	pop	r15
 c0c:	ef 90       	pop	r14
 c0e:	df 90       	pop	r13
 c10:	cf 90       	pop	r12
 c12:	bf 90       	pop	r11
 c14:	af 90       	pop	r10
 c16:	9f 90       	pop	r9
 c18:	8f 90       	pop	r8
 c1a:	7f 90       	pop	r7
 c1c:	6f 90       	pop	r6
 c1e:	5f 90       	pop	r5
 c20:	4f 90       	pop	r4
 c22:	3f 90       	pop	r3
 c24:	2f 90       	pop	r2
 c26:	08 95       	ret

00000c28 <strnlen_P>:
 c28:	fc 01       	movw	r30, r24
 c2a:	05 90       	lpm	r0, Z+
 c2c:	61 50       	subi	r22, 0x01	; 1
 c2e:	70 40       	sbci	r23, 0x00	; 0
 c30:	01 10       	cpse	r0, r1
 c32:	d8 f7       	brcc	.-10     	; 0xc2a <strnlen_P+0x2>
 c34:	80 95       	com	r24
 c36:	90 95       	com	r25
 c38:	8e 0f       	add	r24, r30
 c3a:	9f 1f       	adc	r25, r31
 c3c:	08 95       	ret

00000c3e <strnlen>:
 c3e:	fc 01       	movw	r30, r24
 c40:	61 50       	subi	r22, 0x01	; 1
 c42:	70 40       	sbci	r23, 0x00	; 0
 c44:	01 90       	ld	r0, Z+
 c46:	01 10       	cpse	r0, r1
 c48:	d8 f7       	brcc	.-10     	; 0xc40 <strnlen+0x2>
 c4a:	80 95       	com	r24
 c4c:	90 95       	com	r25
 c4e:	8e 0f       	add	r24, r30
 c50:	9f 1f       	adc	r25, r31
 c52:	08 95       	ret

00000c54 <fputc>:
 c54:	0f 93       	push	r16
 c56:	1f 93       	push	r17
 c58:	cf 93       	push	r28
 c5a:	df 93       	push	r29
 c5c:	fb 01       	movw	r30, r22
 c5e:	23 81       	ldd	r18, Z+3	; 0x03
 c60:	21 fd       	sbrc	r18, 1
 c62:	03 c0       	rjmp	.+6      	; 0xc6a <fputc+0x16>
 c64:	8f ef       	ldi	r24, 0xFF	; 255
 c66:	9f ef       	ldi	r25, 0xFF	; 255
 c68:	28 c0       	rjmp	.+80     	; 0xcba <fputc+0x66>
 c6a:	22 ff       	sbrs	r18, 2
 c6c:	16 c0       	rjmp	.+44     	; 0xc9a <fputc+0x46>
 c6e:	46 81       	ldd	r20, Z+6	; 0x06
 c70:	57 81       	ldd	r21, Z+7	; 0x07
 c72:	24 81       	ldd	r18, Z+4	; 0x04
 c74:	35 81       	ldd	r19, Z+5	; 0x05
 c76:	42 17       	cp	r20, r18
 c78:	53 07       	cpc	r21, r19
 c7a:	44 f4       	brge	.+16     	; 0xc8c <fputc+0x38>
 c7c:	a0 81       	ld	r26, Z
 c7e:	b1 81       	ldd	r27, Z+1	; 0x01
 c80:	9d 01       	movw	r18, r26
 c82:	2f 5f       	subi	r18, 0xFF	; 255
 c84:	3f 4f       	sbci	r19, 0xFF	; 255
 c86:	31 83       	std	Z+1, r19	; 0x01
 c88:	20 83       	st	Z, r18
 c8a:	8c 93       	st	X, r24
 c8c:	26 81       	ldd	r18, Z+6	; 0x06
 c8e:	37 81       	ldd	r19, Z+7	; 0x07
 c90:	2f 5f       	subi	r18, 0xFF	; 255
 c92:	3f 4f       	sbci	r19, 0xFF	; 255
 c94:	37 83       	std	Z+7, r19	; 0x07
 c96:	26 83       	std	Z+6, r18	; 0x06
 c98:	10 c0       	rjmp	.+32     	; 0xcba <fputc+0x66>
 c9a:	eb 01       	movw	r28, r22
 c9c:	09 2f       	mov	r16, r25
 c9e:	18 2f       	mov	r17, r24
 ca0:	00 84       	ldd	r0, Z+8	; 0x08
 ca2:	f1 85       	ldd	r31, Z+9	; 0x09
 ca4:	e0 2d       	mov	r30, r0
 ca6:	09 95       	icall
 ca8:	89 2b       	or	r24, r25
 caa:	e1 f6       	brne	.-72     	; 0xc64 <fputc+0x10>
 cac:	8e 81       	ldd	r24, Y+6	; 0x06
 cae:	9f 81       	ldd	r25, Y+7	; 0x07
 cb0:	01 96       	adiw	r24, 0x01	; 1
 cb2:	9f 83       	std	Y+7, r25	; 0x07
 cb4:	8e 83       	std	Y+6, r24	; 0x06
 cb6:	81 2f       	mov	r24, r17
 cb8:	90 2f       	mov	r25, r16
 cba:	df 91       	pop	r29
 cbc:	cf 91       	pop	r28
 cbe:	1f 91       	pop	r17
 cc0:	0f 91       	pop	r16
 cc2:	08 95       	ret

00000cc4 <__ultoa_invert>:
 cc4:	fa 01       	movw	r30, r20
 cc6:	aa 27       	eor	r26, r26
 cc8:	28 30       	cpi	r18, 0x08	; 8
 cca:	51 f1       	breq	.+84     	; 0xd20 <__ultoa_invert+0x5c>
 ccc:	20 31       	cpi	r18, 0x10	; 16
 cce:	81 f1       	breq	.+96     	; 0xd30 <__ultoa_invert+0x6c>
 cd0:	e8 94       	clt
 cd2:	6f 93       	push	r22
 cd4:	6e 7f       	andi	r22, 0xFE	; 254
 cd6:	6e 5f       	subi	r22, 0xFE	; 254
 cd8:	7f 4f       	sbci	r23, 0xFF	; 255
 cda:	8f 4f       	sbci	r24, 0xFF	; 255
 cdc:	9f 4f       	sbci	r25, 0xFF	; 255
 cde:	af 4f       	sbci	r26, 0xFF	; 255
 ce0:	b1 e0       	ldi	r27, 0x01	; 1
 ce2:	3e d0       	rcall	.+124    	; 0xd60 <__ultoa_invert+0x9c>
 ce4:	b4 e0       	ldi	r27, 0x04	; 4
 ce6:	3c d0       	rcall	.+120    	; 0xd60 <__ultoa_invert+0x9c>
 ce8:	67 0f       	add	r22, r23
 cea:	78 1f       	adc	r23, r24
 cec:	89 1f       	adc	r24, r25
 cee:	9a 1f       	adc	r25, r26
 cf0:	a1 1d       	adc	r26, r1
 cf2:	68 0f       	add	r22, r24
 cf4:	79 1f       	adc	r23, r25
 cf6:	8a 1f       	adc	r24, r26
 cf8:	91 1d       	adc	r25, r1
 cfa:	a1 1d       	adc	r26, r1
 cfc:	6a 0f       	add	r22, r26
 cfe:	71 1d       	adc	r23, r1
 d00:	81 1d       	adc	r24, r1
 d02:	91 1d       	adc	r25, r1
 d04:	a1 1d       	adc	r26, r1
 d06:	20 d0       	rcall	.+64     	; 0xd48 <__ultoa_invert+0x84>
 d08:	09 f4       	brne	.+2      	; 0xd0c <__ultoa_invert+0x48>
 d0a:	68 94       	set
 d0c:	3f 91       	pop	r19
 d0e:	2a e0       	ldi	r18, 0x0A	; 10
 d10:	26 9f       	mul	r18, r22
 d12:	11 24       	eor	r1, r1
 d14:	30 19       	sub	r19, r0
 d16:	30 5d       	subi	r19, 0xD0	; 208
 d18:	31 93       	st	Z+, r19
 d1a:	de f6       	brtc	.-74     	; 0xcd2 <__ultoa_invert+0xe>
 d1c:	cf 01       	movw	r24, r30
 d1e:	08 95       	ret
 d20:	46 2f       	mov	r20, r22
 d22:	47 70       	andi	r20, 0x07	; 7
 d24:	40 5d       	subi	r20, 0xD0	; 208
 d26:	41 93       	st	Z+, r20
 d28:	b3 e0       	ldi	r27, 0x03	; 3
 d2a:	0f d0       	rcall	.+30     	; 0xd4a <__ultoa_invert+0x86>
 d2c:	c9 f7       	brne	.-14     	; 0xd20 <__ultoa_invert+0x5c>
 d2e:	f6 cf       	rjmp	.-20     	; 0xd1c <__ultoa_invert+0x58>
 d30:	46 2f       	mov	r20, r22
 d32:	4f 70       	andi	r20, 0x0F	; 15
 d34:	40 5d       	subi	r20, 0xD0	; 208
 d36:	4a 33       	cpi	r20, 0x3A	; 58
 d38:	18 f0       	brcs	.+6      	; 0xd40 <__ultoa_invert+0x7c>
 d3a:	49 5d       	subi	r20, 0xD9	; 217
 d3c:	31 fd       	sbrc	r19, 1
 d3e:	40 52       	subi	r20, 0x20	; 32
 d40:	41 93       	st	Z+, r20
 d42:	02 d0       	rcall	.+4      	; 0xd48 <__ultoa_invert+0x84>
 d44:	a9 f7       	brne	.-22     	; 0xd30 <__ultoa_invert+0x6c>
 d46:	ea cf       	rjmp	.-44     	; 0xd1c <__ultoa_invert+0x58>
 d48:	b4 e0       	ldi	r27, 0x04	; 4
 d4a:	a6 95       	lsr	r26
 d4c:	97 95       	ror	r25
 d4e:	87 95       	ror	r24
 d50:	77 95       	ror	r23
 d52:	67 95       	ror	r22
 d54:	ba 95       	dec	r27
 d56:	c9 f7       	brne	.-14     	; 0xd4a <__ultoa_invert+0x86>
 d58:	00 97       	sbiw	r24, 0x00	; 0
 d5a:	61 05       	cpc	r22, r1
 d5c:	71 05       	cpc	r23, r1
 d5e:	08 95       	ret
 d60:	9b 01       	movw	r18, r22
 d62:	ac 01       	movw	r20, r24
 d64:	0a 2e       	mov	r0, r26
 d66:	06 94       	lsr	r0
 d68:	57 95       	ror	r21
 d6a:	47 95       	ror	r20
 d6c:	37 95       	ror	r19
 d6e:	27 95       	ror	r18
 d70:	ba 95       	dec	r27
 d72:	c9 f7       	brne	.-14     	; 0xd66 <__ultoa_invert+0xa2>
 d74:	62 0f       	add	r22, r18
 d76:	73 1f       	adc	r23, r19
 d78:	84 1f       	adc	r24, r20
 d7a:	95 1f       	adc	r25, r21
 d7c:	a0 1d       	adc	r26, r0
 d7e:	08 95       	ret

00000d80 <_exit>:
 d80:	f8 94       	cli

00000d82 <__stop_program>:
 d82:	ff cf       	rjmp	.-2      	; 0xd82 <__stop_program>
