
_T6963C_Drive_V141.elf:     file format elf32-avr

Sections:
Idx Name          Size      VMA       LMA       File off  Algn
  0 .data         00000206  00800100  00008ac4  00008b58  2**0
                  CONTENTS, ALLOC, LOAD, DATA
  1 .text         00008ac4  00000000  00000000  00000094  2**1
                  CONTENTS, ALLOC, LOAD, READONLY, CODE
  2 .bss          00000195  00800306  00800306  00008d5e  2**0
                  ALLOC
  3 .comment      0000005c  00000000  00000000  00008d5e  2**0
                  CONTENTS, READONLY
  4 .note.gnu.avr.deviceinfo 0000003c  00000000  00000000  00008dbc  2**2
                  CONTENTS, READONLY
  5 .debug_aranges 000004e8  00000000  00000000  00008df8  2**0
                  CONTENTS, READONLY, DEBUGGING
  6 .debug_info   0000c738  00000000  00000000  000092e0  2**0
                  CONTENTS, READONLY, DEBUGGING
  7 .debug_abbrev 00001128  00000000  00000000  00015a18  2**0
                  CONTENTS, READONLY, DEBUGGING
  8 .debug_line   000036f7  00000000  00000000  00016b40  2**0
                  CONTENTS, READONLY, DEBUGGING
  9 .debug_frame  000017ac  00000000  00000000  0001a238  2**2
                  CONTENTS, READONLY, DEBUGGING
 10 .debug_str    000035d1  00000000  00000000  0001b9e4  2**0
                  CONTENTS, READONLY, DEBUGGING
 11 .debug_loc    00009de4  00000000  00000000  0001efb5  2**0
                  CONTENTS, READONLY, DEBUGGING
 12 .debug_ranges 000008b8  00000000  00000000  00028d99  2**0
                  CONTENTS, READONLY, DEBUGGING

Disassembly of section .text:

00000000 <__vectors>:
       0:	0c 94 c6 1c 	jmp	0x398c	; 0x398c <__dtors_end>
       4:	0c 94 f0 1c 	jmp	0x39e0	; 0x39e0 <__bad_interrupt>
       8:	0c 94 f0 1c 	jmp	0x39e0	; 0x39e0 <__bad_interrupt>
       c:	0c 94 f0 1c 	jmp	0x39e0	; 0x39e0 <__bad_interrupt>
      10:	0c 94 f0 1c 	jmp	0x39e0	; 0x39e0 <__bad_interrupt>
      14:	0c 94 f0 1c 	jmp	0x39e0	; 0x39e0 <__bad_interrupt>
      18:	0c 94 f0 1c 	jmp	0x39e0	; 0x39e0 <__bad_interrupt>
      1c:	0c 94 f0 1c 	jmp	0x39e0	; 0x39e0 <__bad_interrupt>
      20:	0c 94 f0 1c 	jmp	0x39e0	; 0x39e0 <__bad_interrupt>
      24:	0c 94 f0 1c 	jmp	0x39e0	; 0x39e0 <__bad_interrupt>
      28:	0c 94 f0 1c 	jmp	0x39e0	; 0x39e0 <__bad_interrupt>
      2c:	0c 94 f0 1c 	jmp	0x39e0	; 0x39e0 <__bad_interrupt>
      30:	0c 94 f0 1c 	jmp	0x39e0	; 0x39e0 <__bad_interrupt>
      34:	0c 94 f0 1c 	jmp	0x39e0	; 0x39e0 <__bad_interrupt>
      38:	0c 94 f0 1c 	jmp	0x39e0	; 0x39e0 <__bad_interrupt>
      3c:	0c 94 75 40 	jmp	0x80ea	; 0x80ea <__vector_15>
      40:	0c 94 f0 1c 	jmp	0x39e0	; 0x39e0 <__bad_interrupt>
      44:	0c 94 f0 1c 	jmp	0x39e0	; 0x39e0 <__bad_interrupt>
      48:	0c 94 f0 1c 	jmp	0x39e0	; 0x39e0 <__bad_interrupt>
      4c:	0c 94 f0 1c 	jmp	0x39e0	; 0x39e0 <__bad_interrupt>
      50:	0c 94 f0 1c 	jmp	0x39e0	; 0x39e0 <__bad_interrupt>
      54:	0c 94 f0 1c 	jmp	0x39e0	; 0x39e0 <__bad_interrupt>
      58:	0c 94 f0 1c 	jmp	0x39e0	; 0x39e0 <__bad_interrupt>
      5c:	0c 94 f0 1c 	jmp	0x39e0	; 0x39e0 <__bad_interrupt>
      60:	0c 94 f0 1c 	jmp	0x39e0	; 0x39e0 <__bad_interrupt>
      64:	0c 94 f0 1c 	jmp	0x39e0	; 0x39e0 <__bad_interrupt>
      68:	0c 94 f0 1c 	jmp	0x39e0	; 0x39e0 <__bad_interrupt>
      6c:	0c 94 f0 1c 	jmp	0x39e0	; 0x39e0 <__bad_interrupt>
      70:	0c 94 f0 1c 	jmp	0x39e0	; 0x39e0 <__bad_interrupt>
      74:	0c 94 f0 1c 	jmp	0x39e0	; 0x39e0 <__bad_interrupt>
      78:	0c 94 f0 1c 	jmp	0x39e0	; 0x39e0 <__bad_interrupt>
      7c:	0c 94 f0 1c 	jmp	0x39e0	; 0x39e0 <__bad_interrupt>
      80:	0c 94 f0 1c 	jmp	0x39e0	; 0x39e0 <__bad_interrupt>
      84:	0c 94 f0 1c 	jmp	0x39e0	; 0x39e0 <__bad_interrupt>
      88:	0c 94 f0 1c 	jmp	0x39e0	; 0x39e0 <__bad_interrupt>
      8c:	f3 27       	eor	r31, r19
      8e:	f7 27       	eor	r31, r23
      90:	fb 27       	eor	r31, r27
      92:	0b 28       	or	r0, r11
      94:	0f 28       	or	r0, r15
      96:	ff 27       	eor	r31, r31
      98:	03 28       	or	r0, r3
      9a:	07 28       	or	r0, r7
      9c:	13 28       	or	r1, r3
      9e:	cd 2a       	or	r12, r29
      a0:	d1 2a       	or	r13, r17
      a2:	d5 2a       	or	r13, r21
      a4:	e5 2a       	or	r14, r21
      a6:	e9 2a       	or	r14, r25
      a8:	d9 2a       	or	r13, r25
      aa:	dd 2a       	or	r13, r29
      ac:	e1 2a       	or	r14, r17
      ae:	ed 2a       	or	r14, r29

000000b0 <__trampolines_end>:
	...
      b8:	20 20       	and	r2, r0
      ba:	20 20       	and	r2, r0
      bc:	20 00       	.word	0x0020	; ????
      be:	20 00       	.word	0x0020	; ????
      c0:	50 50       	subi	r21, 0x00	; 0
      c2:	50 00       	.word	0x0050	; ????
      c4:	00 00       	nop
      c6:	00 00       	nop
      c8:	50 50       	subi	r21, 0x00	; 0
      ca:	f8 50       	subi	r31, 0x08	; 8
      cc:	f8 50       	subi	r31, 0x08	; 8
      ce:	50 00       	.word	0x0050	; ????
      d0:	20 78       	andi	r18, 0x80	; 128
      d2:	a0 70       	andi	r26, 0x00	; 0
      d4:	28 f0       	brcs	.+10     	; 0xe0 <__trampolines_end+0x30>
      d6:	20 00       	.word	0x0020	; ????
      d8:	c0 c8       	rjmp	.-3712   	; 0xfffff25a <__eeprom_end+0xff7ef25a>
      da:	10 20       	and	r1, r0
      dc:	40 98       	cbi	0x08, 0	; 8
      de:	18 00       	.word	0x0018	; ????
      e0:	40 a0       	ldd	r4, Z+32	; 0x20
      e2:	40 a8       	ldd	r4, Z+48	; 0x30
      e4:	90 98       	cbi	0x12, 0	; 18
      e6:	60 00       	.word	0x0060	; ????
      e8:	10 20       	and	r1, r0
      ea:	40 00       	.word	0x0040	; ????
      ec:	00 00       	nop
      ee:	00 00       	nop
      f0:	10 20       	and	r1, r0
      f2:	40 40       	sbci	r20, 0x00	; 0
      f4:	40 20       	and	r4, r0
      f6:	10 00       	.word	0x0010	; ????
      f8:	40 20       	and	r4, r0
      fa:	10 10       	cpse	r1, r0
      fc:	10 20       	and	r1, r0
      fe:	40 00       	.word	0x0040	; ????
     100:	20 a8       	ldd	r2, Z+48	; 0x30
     102:	70 20       	and	r7, r0
     104:	70 a8       	ldd	r7, Z+48	; 0x30
     106:	20 00       	.word	0x0020	; ????
     108:	00 20       	and	r0, r0
     10a:	20 f8       	bld	r2, 0
     10c:	20 20       	and	r2, r0
     10e:	00 00       	nop
     110:	00 00       	nop
     112:	00 00       	nop
     114:	00 20       	and	r0, r0
     116:	20 40       	sbci	r18, 0x00	; 0
     118:	00 00       	nop
     11a:	00 78       	andi	r16, 0x80	; 128
	...
     124:	00 60       	ori	r16, 0x00	; 0
     126:	60 00       	.word	0x0060	; ????
     128:	00 00       	nop
     12a:	08 10       	cpse	r0, r8
     12c:	20 40       	sbci	r18, 0x00	; 0
     12e:	80 00       	.word	0x0080	; ????
     130:	70 88       	ldd	r7, Z+16	; 0x10
     132:	98 a8       	ldd	r9, Y+48	; 0x30
     134:	c8 88       	ldd	r12, Y+16	; 0x10
     136:	70 00       	.word	0x0070	; ????
     138:	20 60       	ori	r18, 0x00	; 0
     13a:	a0 20       	and	r10, r0
     13c:	20 20       	and	r2, r0
     13e:	f8 00       	.word	0x00f8	; ????
     140:	70 88       	ldd	r7, Z+16	; 0x10
     142:	08 10       	cpse	r0, r8
     144:	60 80       	ld	r6, Z
     146:	f8 00       	.word	0x00f8	; ????
     148:	70 88       	ldd	r7, Z+16	; 0x10
     14a:	08 30       	cpi	r16, 0x08	; 8
     14c:	08 88       	ldd	r0, Y+16	; 0x10
     14e:	70 00       	.word	0x0070	; ????
     150:	10 30       	cpi	r17, 0x00	; 0
     152:	50 90 f8 10 	lds	r5, 0x10F8
     156:	10 00       	.word	0x0010	; ????
     158:	f8 80       	ld	r15, Y
     15a:	e0 10       	cpse	r14, r0
     15c:	08 10       	cpse	r0, r8
     15e:	e0 00       	.word	0x00e0	; ????
     160:	30 40       	sbci	r19, 0x00	; 0
     162:	80 f0       	brcs	.+32     	; 0x184 <__trampolines_end+0xd4>
     164:	88 88       	ldd	r8, Y+16	; 0x10
     166:	70 00       	.word	0x0070	; ????
     168:	f8 88       	ldd	r15, Y+16	; 0x10
     16a:	10 20       	and	r1, r0
     16c:	20 20       	and	r2, r0
     16e:	20 00       	.word	0x0020	; ????
     170:	70 88       	ldd	r7, Z+16	; 0x10
     172:	88 70       	andi	r24, 0x08	; 8
     174:	88 88       	ldd	r8, Y+16	; 0x10
     176:	70 00       	.word	0x0070	; ????
     178:	70 88       	ldd	r7, Z+16	; 0x10
     17a:	88 78       	andi	r24, 0x88	; 136
     17c:	08 10       	cpse	r0, r8
     17e:	60 00       	.word	0x0060	; ????
     180:	00 00       	nop
     182:	20 00       	.word	0x0020	; ????
     184:	00 20       	and	r0, r0
     186:	00 00       	nop
     188:	00 00       	nop
     18a:	20 00       	.word	0x0020	; ????
     18c:	00 20       	and	r0, r0
     18e:	20 40       	sbci	r18, 0x00	; 0
     190:	18 30       	cpi	r17, 0x08	; 8
     192:	60 c0       	rjmp	.+192    	; 0x254 <__trampolines_end+0x1a4>
     194:	60 30       	cpi	r22, 0x00	; 0
     196:	18 00       	.word	0x0018	; ????
     198:	00 00       	nop
     19a:	f8 00       	.word	0x00f8	; ????
     19c:	f8 00       	.word	0x00f8	; ????
     19e:	00 00       	nop
     1a0:	c0 60       	ori	r28, 0x00	; 0
     1a2:	30 18       	sub	r3, r0
     1a4:	30 60       	ori	r19, 0x00	; 0
     1a6:	c0 00       	.word	0x00c0	; ????
     1a8:	70 88       	ldd	r7, Z+16	; 0x10
     1aa:	08 10       	cpse	r0, r8
     1ac:	20 00       	.word	0x0020	; ????
     1ae:	20 00       	.word	0x0020	; ????
     1b0:	70 88       	ldd	r7, Z+16	; 0x10
     1b2:	08 48       	sbci	r16, 0x88	; 136
     1b4:	a8 a8       	ldd	r10, Y+48	; 0x30
     1b6:	70 00       	.word	0x0070	; ????
     1b8:	20 50       	subi	r18, 0x00	; 0
     1ba:	88 88       	ldd	r8, Y+16	; 0x10
     1bc:	f8 88       	ldd	r15, Y+16	; 0x10
     1be:	88 00       	.word	0x0088	; ????
     1c0:	f0 48       	sbci	r31, 0x80	; 128
     1c2:	48 70       	andi	r20, 0x08	; 8
     1c4:	48 48       	sbci	r20, 0x88	; 136
     1c6:	f0 00       	.word	0x00f0	; ????
     1c8:	30 48       	sbci	r19, 0x80	; 128
     1ca:	80 80       	ld	r8, Z
     1cc:	80 48       	sbci	r24, 0x80	; 128
     1ce:	30 00       	.word	0x0030	; ????
     1d0:	e0 50       	subi	r30, 0x00	; 0
     1d2:	48 48       	sbci	r20, 0x88	; 136
     1d4:	48 50       	subi	r20, 0x08	; 8
     1d6:	e0 00       	.word	0x00e0	; ????
     1d8:	f8 80       	ld	r15, Y
     1da:	80 f0       	brcs	.+32     	; 0x1fc <__trampolines_end+0x14c>
     1dc:	80 80       	ld	r8, Z
     1de:	f8 00       	.word	0x00f8	; ????
     1e0:	f8 80       	ld	r15, Y
     1e2:	80 f0       	brcs	.+32     	; 0x204 <__trampolines_end+0x154>
     1e4:	80 80       	ld	r8, Z
     1e6:	80 00       	.word	0x0080	; ????
     1e8:	70 88       	ldd	r7, Z+16	; 0x10
     1ea:	80 b8       	out	0x00, r8	; 0
     1ec:	88 88       	ldd	r8, Y+16	; 0x10
     1ee:	70 00       	.word	0x0070	; ????
     1f0:	88 88       	ldd	r8, Y+16	; 0x10
     1f2:	88 f8       	.word	0xf888	; ????
     1f4:	88 88       	ldd	r8, Y+16	; 0x10
     1f6:	88 00       	.word	0x0088	; ????
     1f8:	70 20       	and	r7, r0
     1fa:	20 20       	and	r2, r0
     1fc:	20 20       	and	r2, r0
     1fe:	70 00       	.word	0x0070	; ????
     200:	38 10       	cpse	r3, r8
     202:	10 10       	cpse	r1, r0
     204:	90 90 60 00 	lds	r9, 0x0060
     208:	88 90       	.word	0x9088	; ????
     20a:	a0 c0       	rjmp	.+320    	; 0x34c <__trampolines_end+0x29c>
     20c:	a0 90 88 00 	lds	r10, 0x0088
     210:	80 80       	ld	r8, Z
     212:	80 80       	ld	r8, Z
     214:	80 80       	ld	r8, Z
     216:	f8 00       	.word	0x00f8	; ????
     218:	88 d8       	rcall	.-3824   	; 0xfffff32a <__eeprom_end+0xff7ef32a>
     21a:	a8 a8       	ldd	r10, Y+48	; 0x30
     21c:	88 88       	ldd	r8, Y+16	; 0x10
     21e:	88 00       	.word	0x0088	; ????
     220:	88 c8       	rjmp	.-3824   	; 0xfffff332 <__eeprom_end+0xff7ef332>
     222:	c8 a8       	ldd	r12, Y+48	; 0x30
     224:	98 98       	cbi	0x13, 0	; 19
     226:	88 00       	.word	0x0088	; ????
     228:	70 88       	ldd	r7, Z+16	; 0x10
     22a:	88 88       	ldd	r8, Y+16	; 0x10
     22c:	88 88       	ldd	r8, Y+16	; 0x10
     22e:	70 00       	.word	0x0070	; ????
     230:	f0 88       	ldd	r15, Z+16	; 0x10
     232:	88 f0       	brcs	.+34     	; 0x256 <__trampolines_end+0x1a6>
     234:	80 80       	ld	r8, Z
     236:	80 00       	.word	0x0080	; ????
     238:	70 88       	ldd	r7, Z+16	; 0x10
     23a:	88 88       	ldd	r8, Y+16	; 0x10
     23c:	a8 90       	.word	0x90a8	; ????
     23e:	68 00       	.word	0x0068	; ????
     240:	f0 88       	ldd	r15, Z+16	; 0x10
     242:	88 f0       	brcs	.+34     	; 0x266 <__trampolines_end+0x1b6>
     244:	a0 90 88 00 	lds	r10, 0x0088
     248:	70 88       	ldd	r7, Z+16	; 0x10
     24a:	80 70       	andi	r24, 0x00	; 0
     24c:	08 88       	ldd	r0, Y+16	; 0x10
     24e:	70 00       	.word	0x0070	; ????
     250:	f8 20       	and	r15, r8
     252:	20 20       	and	r2, r0
     254:	20 20       	and	r2, r0
     256:	20 00       	.word	0x0020	; ????
     258:	88 88       	ldd	r8, Y+16	; 0x10
     25a:	88 88       	ldd	r8, Y+16	; 0x10
     25c:	88 88       	ldd	r8, Y+16	; 0x10
     25e:	70 00       	.word	0x0070	; ????
     260:	88 88       	ldd	r8, Y+16	; 0x10
     262:	88 88       	ldd	r8, Y+16	; 0x10
     264:	50 50       	subi	r21, 0x00	; 0
     266:	20 00       	.word	0x0020	; ????
     268:	88 88       	ldd	r8, Y+16	; 0x10
     26a:	88 a8       	ldd	r8, Y+48	; 0x30
     26c:	a8 d8       	rcall	.-3760   	; 0xfffff3be <__eeprom_end+0xff7ef3be>
     26e:	88 00       	.word	0x0088	; ????
     270:	88 88       	ldd	r8, Y+16	; 0x10
     272:	50 20       	and	r5, r0
     274:	50 88       	ldd	r5, Z+16	; 0x10
     276:	88 00       	.word	0x0088	; ????
     278:	88 88       	ldd	r8, Y+16	; 0x10
     27a:	88 70       	andi	r24, 0x08	; 8
     27c:	20 20       	and	r2, r0
     27e:	20 00       	.word	0x0020	; ????
     280:	f8 08       	sbc	r15, r8
     282:	10 20       	and	r1, r0
     284:	40 80       	ld	r4, Z
     286:	f8 00       	.word	0x00f8	; ????
     288:	70 40       	sbci	r23, 0x00	; 0
     28a:	40 40       	sbci	r20, 0x00	; 0
     28c:	40 40       	sbci	r20, 0x00	; 0
     28e:	70 00       	.word	0x0070	; ????
     290:	00 00       	nop
     292:	80 40       	sbci	r24, 0x00	; 0
     294:	20 10       	cpse	r2, r0
     296:	08 00       	.word	0x0008	; ????
     298:	70 10       	cpse	r7, r0
     29a:	10 10       	cpse	r1, r0
     29c:	10 10       	cpse	r1, r0
     29e:	70 00       	.word	0x0070	; ????
     2a0:	20 50       	subi	r18, 0x00	; 0
     2a2:	88 00       	.word	0x0088	; ????
	...
     2ac:	00 00       	nop
     2ae:	f8 00       	.word	0x00f8	; ????
     2b0:	80 40       	sbci	r24, 0x00	; 0
     2b2:	20 00       	.word	0x0020	; ????
     2b4:	00 00       	nop
     2b6:	00 00       	nop
     2b8:	00 00       	nop
     2ba:	70 08       	sbc	r7, r0
     2bc:	78 88       	ldd	r7, Y+16	; 0x10
     2be:	78 00       	.word	0x0078	; ????
     2c0:	80 80       	ld	r8, Z
     2c2:	b0 c8       	rjmp	.-3744   	; 0xfffff424 <__eeprom_end+0xff7ef424>
     2c4:	88 c8       	rjmp	.-3824   	; 0xfffff3d6 <__eeprom_end+0xff7ef3d6>
     2c6:	b0 00       	.word	0x00b0	; ????
     2c8:	00 00       	nop
     2ca:	70 88       	ldd	r7, Z+16	; 0x10
     2cc:	80 88       	ldd	r8, Z+16	; 0x10
     2ce:	70 00       	.word	0x0070	; ????
     2d0:	08 08       	sbc	r0, r8
     2d2:	68 98       	cbi	0x0d, 0	; 13
     2d4:	88 98       	cbi	0x11, 0	; 17
     2d6:	68 00       	.word	0x0068	; ????
     2d8:	00 00       	nop
     2da:	70 88       	ldd	r7, Z+16	; 0x10
     2dc:	f8 80       	ld	r15, Y
     2de:	70 00       	.word	0x0070	; ????
     2e0:	10 28       	or	r1, r0
     2e2:	20 f8       	bld	r2, 0
     2e4:	20 20       	and	r2, r0
     2e6:	20 00       	.word	0x0020	; ????
     2e8:	00 00       	nop
     2ea:	68 98       	cbi	0x0d, 0	; 13
     2ec:	98 68       	ori	r25, 0x88	; 136
     2ee:	08 70       	andi	r16, 0x08	; 8
     2f0:	80 80       	ld	r8, Z
     2f2:	f0 88       	ldd	r15, Z+16	; 0x10
     2f4:	88 88       	ldd	r8, Y+16	; 0x10
     2f6:	88 00       	.word	0x0088	; ????
     2f8:	20 00       	.word	0x0020	; ????
     2fa:	60 20       	and	r6, r0
     2fc:	20 20       	and	r2, r0
     2fe:	70 00       	.word	0x0070	; ????
     300:	10 00       	.word	0x0010	; ????
     302:	30 10       	cpse	r3, r0
     304:	10 10       	cpse	r1, r0
     306:	90 60       	ori	r25, 0x00	; 0
     308:	40 40       	sbci	r20, 0x00	; 0
     30a:	48 50       	subi	r20, 0x08	; 8
     30c:	60 50       	subi	r22, 0x00	; 0
     30e:	48 00       	.word	0x0048	; ????
     310:	60 20       	and	r6, r0
     312:	20 20       	and	r2, r0
     314:	20 20       	and	r2, r0
     316:	70 00       	.word	0x0070	; ????
     318:	00 00       	nop
     31a:	d0 a8       	ldd	r13, Z+48	; 0x30
     31c:	a8 a8       	ldd	r10, Y+48	; 0x30
     31e:	a8 00       	.word	0x00a8	; ????
     320:	00 00       	nop
     322:	b0 c8       	rjmp	.-3744   	; 0xfffff484 <__eeprom_end+0xff7ef484>
     324:	88 88       	ldd	r8, Y+16	; 0x10
     326:	88 00       	.word	0x0088	; ????
     328:	00 00       	nop
     32a:	70 88       	ldd	r7, Z+16	; 0x10
     32c:	88 88       	ldd	r8, Y+16	; 0x10
     32e:	70 00       	.word	0x0070	; ????
     330:	00 00       	nop
     332:	b0 c8       	rjmp	.-3744   	; 0xfffff494 <__eeprom_end+0xff7ef494>
     334:	c8 b0       	in	r12, 0x08	; 8
     336:	80 80       	ld	r8, Z
     338:	00 00       	nop
     33a:	68 98       	cbi	0x0d, 0	; 13
     33c:	98 68       	ori	r25, 0x88	; 136
     33e:	08 08       	sbc	r0, r8
     340:	00 00       	nop
     342:	b0 c8       	rjmp	.-3744   	; 0xfffff4a4 <__eeprom_end+0xff7ef4a4>
     344:	80 80       	ld	r8, Z
     346:	80 00       	.word	0x0080	; ????
     348:	00 00       	nop
     34a:	78 80       	ld	r7, Y
     34c:	70 08       	sbc	r7, r0
     34e:	f0 00       	.word	0x00f0	; ????
     350:	40 40       	sbci	r20, 0x00	; 0
     352:	f0 40       	sbci	r31, 0x00	; 0
     354:	40 48       	sbci	r20, 0x80	; 128
     356:	30 00       	.word	0x0030	; ????
     358:	00 00       	nop
     35a:	90 90 90 90 	lds	r9, 0x9090
     35e:	68 00       	.word	0x0068	; ????
     360:	00 00       	nop
     362:	88 88       	ldd	r8, Y+16	; 0x10
     364:	88 50       	subi	r24, 0x08	; 8
     366:	20 00       	.word	0x0020	; ????
     368:	00 00       	nop
     36a:	88 a8       	ldd	r8, Y+48	; 0x30
     36c:	a8 a8       	ldd	r10, Y+48	; 0x30
     36e:	50 00       	.word	0x0050	; ????
     370:	00 00       	nop
     372:	88 50       	subi	r24, 0x08	; 8
     374:	20 50       	subi	r18, 0x00	; 0
     376:	88 00       	.word	0x0088	; ????
     378:	00 00       	nop
     37a:	88 88       	ldd	r8, Y+16	; 0x10
     37c:	98 68       	ori	r25, 0x88	; 136
     37e:	08 70       	andi	r16, 0x08	; 8
     380:	00 00       	nop
     382:	f8 10       	cpse	r15, r8
     384:	20 40       	sbci	r18, 0x00	; 0
     386:	f8 00       	.word	0x00f8	; ????
     388:	18 20       	and	r1, r8
     38a:	20 40       	sbci	r18, 0x00	; 0
     38c:	20 20       	and	r2, r0
     38e:	18 00       	.word	0x0018	; ????
     390:	20 20       	and	r2, r0
     392:	20 00       	.word	0x0020	; ????
     394:	20 20       	and	r2, r0
     396:	20 00       	.word	0x0020	; ????
     398:	c0 20       	and	r12, r0
     39a:	20 10       	cpse	r2, r0
     39c:	20 20       	and	r2, r0
     39e:	c0 00       	.word	0x00c0	; ????
     3a0:	40 a8       	ldd	r4, Z+48	; 0x30
     3a2:	10 00       	.word	0x0010	; ????
     3a4:	00 00       	nop
	...

000003a8 <_ZL23_T6963C_F_PATTERN_SOLID>:
     3a8:	ff ff ff ff ff ff ff ff                             ........

000003b0 <_ZL21_T6963C_F_PATTERN_BOX>:
     3b0:	00 7c 44 44 44 7c 00 00                             .|DDD|..

000003b8 <_ZL23_T6963C_F_PATTERN_POINT>:
     3b8:	88 00 00 00 88 00 00 00                             ........

000003c0 <_ZL24_T6963C_F_PATTERN_CIRCLE>:
     3c0:	00 18 24 42 42 24 18 00                             ..$BB$..

000003c8 <_ZL31_T6963C_F_PATTERN_DIAGONAL_GRID>:
     3c8:	81 42 24 18 18 24 42 81                             .B$..$B.

000003d0 <_ZL22_T6963C_F_PATTERN_GRID>:
     3d0:	08 08 08 ff 08 08 08 08                             ........

000003d8 <_ZL27_T6963C_F_PATTERN_BACKSLASH>:
     3d8:	08 04 02 01 80 40 20 10                             .....@ .

000003e0 <_ZL23_T6963C_F_PATTERN_SLASH>:
     3e0:	10 20 40 80 01 02 04 08                             . @.....

000003e8 <_ZL23_T6963C_F_PATTERN_EMPTY>:
	...

000003f0 <_ZZ4mainE3__c_18>:
     3f0:	42 61 6c 6c 20 41 6e 69 6d 61 74 69 6f 6e 20 75     Ball Animation u
     400:	73 69 6e 67 0d 0a 20 20 20 20 47 72 61 70 68 20     sing..    Graph 
     410:	50 61 67 65 73 0d 0a 20 20 20 20 61 6e 64 20 42     Pages..    and B
     420:	69 74 4d 61 70 00                                   itMap.

00000426 <_ZZ4mainE3__c_17>:
     426:	53 75 70 70 6f 72 74 20 4c 61 72 67 65 0d 0a 20     Support Large.. 
     436:	20 20 20 42 69 74 4d 61 70 20 74 6f 20 44 72 61        BitMap to Dra
     446:	77 0d 0a 20 20 20 20 53 69 7a 65 20 3c 20 33 32     w..    Size < 32
     456:	4b 62 79 74 65 73 00                                Kbytes.

0000045d <_ZZ4mainE3__c_16>:
     45d:	43 6f 70 79 20 42 69 74 4d 61 70 0d 0a 20 20 20     Copy BitMap..   
     46d:	20 75 73 69 6e 67 0d 0a 20 20 20 20 53 65 74 50      using..    SetP
     47d:	69 78 65 6c 2f 47 65 74 50 69 78 65 6c 00           ixel/GetPixel.

0000048b <_ZZ4mainE3__c_15>:
     48b:	44 72 61 77 20 42 69 74 4d 61 70 73 00              Draw BitMaps.

00000498 <_ZZ4mainE3__c_14>:
     498:	44 72 61 77 20 43 69 72 63 6c 65 73 20 20 26 20     Draw Circles  & 
     4a8:	42 6f 78 65 73 0d 0a 20 20 20 20 77 69 74 68 20     Boxes..    with 
     4b8:	20 6d 6f 76 69 6e 67 20 50 61 74 74 65 72 6e 73      moving Patterns
     4c8:	0d 0a 20 20 20 20 61 6e 64 20 50 65 6e 73 20 4c     ..    and Pens L
     4d8:	6f 77 20 73 70 65 65 64 00                          ow speed.

000004e1 <_ZZ4mainE3__c_13>:
     4e1:	44 72 61 77 20 43 69 72 63 6c 65 73 20 20 26 20     Draw Circles  & 
     4f1:	42 6f 78 65 73 0d 0a 20 20 20 20 77 69 74 68 20     Boxes..    with 
     501:	20 6d 6f 76 69 6e 67 20 50 61 74 74 65 72 6e 73      moving Patterns
     511:	0d 0a 20 20 20 20 61 6e 64 20 50 65 6e 73 20 46     ..    and Pens F
     521:	75 6c 6c 20 73 70 65 65 64 00                       ull speed.

0000052b <_ZZ4mainE3__c_12>:
     52b:	44 72 61 77 20 45 6c 6c 69 70 73 65 73 0d 0a 20     Draw Ellipses.. 
     53b:	20 20 20 50 65 72 66 6f 72 6d 61 6e 63 65 00           Performance.

0000054a <_ZZ4mainE3__c_11>:
     54a:	44 72 61 77 20 43 69 72 63 6c 65 0d 0a 20 20 20     Draw Circle..   
     55a:	20 50 65 72 66 6f 72 6d 61 6e 63 65 00               Performance.

00000567 <_ZZ4mainE3__c_10>:
     567:	44 72 61 77 20 42 6f 78 65 73 0a 0d 20 20 20 20     Draw Boxes..    
     577:	50 65 72 66 6f 72 6d 61 6e 63 65 00                 Performance.

00000583 <_ZZ4mainE3__c_9>:
     583:	44 72 61 77 20 4c 69 6e 65 0a 0d 20 20 20 20 50     Draw Line..    P
     593:	65 72 66 6f 72 6d 61 6e 63 65 00                    erformance.

0000059e <_ZZ4mainE3__c_8>:
     59e:	44 72 61 77 20 50 69 78 65 6c 73 0d 0a 20 20 20     Draw Pixels..   
     5ae:	20 50 65 72 66 6f 72 6d 61 6e 63 65 00               Performance.

000005bb <_ZZ4mainE3__c_7>:
     5bb:	44 72 61 77 20 45 6c 6c 69 70 73 65 73 0d 0a 20     Draw Ellipses.. 
     5cb:	20 20 20 77 69 74 68 20 50 61 74 74 65 72 6e 73        with Patterns
	...

000005dc <_ZZ4mainE3__c_6>:
     5dc:	44 72 61 77 20 43 69 72 63 6c 65 73 0d 0a 20 20     Draw Circles..  
     5ec:	20 20 77 69 74 68 20 50 61 74 74 65 72 6e 73 00       with Patterns.

000005fc <_ZZ4mainE3__c_5>:
     5fc:	44 72 61 77 20 42 6f 78 65 73 0d 0a 20 20 20 20     Draw Boxes..    
     60c:	77 69 74 68 20 50 61 74 74 65 72 6e 73 00           with Patterns.

0000061a <_ZZ4mainE3__c_4>:
     61a:	44 72 61 77 20 4c 69 6e 65 73 20 77 69 74 68 0d     Draw Lines with.
     62a:	0a 20 20 20 20 50 65 6e 73 20 50 61 74 74 65 72     .    Pens Patter
     63a:	6e 73 00                                            ns.

0000063d <_ZZ4mainE3__c_3>:
     63d:	47 72 61 70 68 20 54 65 78 74 0d 0a 20 20 20 20     Graph Text..    
     64d:	77 69 74 68 20 53 63 61 6c 65 73 00                 with Scales.

00000659 <_ZZ4mainE3__c_2>:
     659:	47 72 61 70 68 20 74 65 78 74 20 6d 61 79 20 62     Graph text may b
     669:	65 0a 0d 20 20 20 20 4c 49 4e 45 2c 53 4f 4c 49     e..    LINE,SOLI
     679:	44 2c 49 4e 56 45 52 54 45 44 00                    D,INVERTED.

00000684 <_ZZ4mainE3__c_1>:
     684:	48 61 72 64 77 61 72 65 20 61 6e 64 20 47 72 61     Hardware and Gra
     694:	70 68 0d 0a 20 20 20 20 63 68 61 72 61 63 74 65     ph..    characte
     6a4:	72 73 20 67 65 6e 65 72 61 74 6f 72 00              rs generator.

000006b1 <_ZZ4mainE3__c_0>:
     6b1:	44 69 73 70 6c 61 79 0d 0a 20 20 20 20 49 6e 69     Display..    Ini
     6c1:	74 69 61 6c 69 7a 61 74 69 6f 6e 0d 0a 20 20 20     tialization..   
     6d1:	20 61 6e 64 0a 0d 20 20 20 20 46 65 61 74 75 72      and..    Featur
     6e1:	65 73 00                                            es.

000006e4 <_ZZ4mainE3__c>:
     6e4:	44 72 69 76 65 20 50 72 65 73 65 6e 74 61 74 69     Drive Presentati
     6f4:	6f 6e 0a 0d 20 20 20 20 56 65 72 73 69 6f 6e 20     on..    Version 
     704:	61 6e 64 20 41 75 74 68 6f 72 00                    and Author.

0000070f <_ZZ21Demo_Graph_Text_ScalePKcmE3__c_2>:
     70f:	41 42 43 00                                         ABC.

00000713 <_ZZ21Demo_Graph_Text_ScalePKcmE3__c_1>:
     713:	41 42 43 00                                         ABC.

00000717 <_ZZ21Demo_Graph_Text_ScalePKcmE3__c_0>:
     717:	41 42 43 00                                         ABC.

0000071b <_ZZ21Demo_Graph_Text_ScalePKcmE3__c>:
     71b:	41 42 43 00                                         ABC.

0000071f <_ZZ21Demo_Text_Graph_TypesPKcmE3__c_1>:
     71f:	54 68 69 73 20 61 20 54 65 78 74 20 53 4f 4c 49     This a Text SOLI
     72f:	44 20 49 6e 76 65 72 74 65 64 0d 0a 0d 0a 00        D Inverted.....

0000073e <_ZZ21Demo_Text_Graph_TypesPKcmE3__c_0>:
     73e:	54 68 69 73 20 61 20 54 65 78 74 20 53 4f 4c 49     This a Text SOLI
     74e:	44 20 4e 6f 72 6d 61 6c 0d 0a 0d 0a 20 00           D Normal.... .

0000075c <_ZZ21Demo_Text_Graph_TypesPKcmE3__c>:
     75c:	54 68 69 73 20 61 20 54 65 78 74 20 4c 49 4e 45     This a Text LINE
     76c:	0d 0a 0d 0a 20 00                                   .... .

00000772 <_ZZ10Demo_TextsPKcmE3__c_0>:
     772:	54 68 69 73 20 61 20 74 65 78 74 0d 0a 20 67 72     This a text.. gr
     782:	61 70 68 20 67 65 6e 65 72 61 74 65 0d 0a 0d 0a     aph generate....
     792:	20 41 42 43 44 45 46 47 48 49 4a 4b 4c 2e 2e 2e      ABCDEFGHIJKL...
	...

000007a3 <_ZZ10Demo_TextsPKcmE3__c>:
     7a3:	54 68 69 73 20 61 20 74 65 78 74 0d 0a 20 68 61     This a text.. ha
     7b3:	72 64 77 61 72 65 20 67 65 6e 65 72 61 74 65 0d     rdware generate.
     7c3:	0a 0d 0a 20 41 42 43 44 45 46 47 48 49 4a 4b 4c     ... ABCDEFGHIJKL
     7d3:	2e 2e 2e 00                                         ....

000007d7 <_ZZ17Demo_PresentationPKcmE3__c_0>:
     7d7:	0d 0a 20 4d 61 64 65 20 77 69 74 68 20 41 74 6d     .. Made with Atm
     7e7:	65 6c 20 53 74 75 64 69 6f 20 37 0d 0a 20 42 79     el Studio 7.. By
     7f7:	20 4a 6f 61 6f 20 44 b4 41 72 74 61 67 6e 61 6e      Joao D.Artagnan
     807:	20 41 2e 20 4f 2e 0d 0a 20 42 72 61 73 69 6c 69      A. O... Brasili
     817:	61 20 42 72 61 7a 69 6c 0d 0a 20 4a 61 6e 75 61     a Brazil.. Janua
     827:	72 79 2c 20 32 30 2c 20 32 30 31 36 00              ry, 20, 2016.

00000834 <_ZZ17Demo_PresentationPKcmE3__c>:
     834:	54 6f 73 68 69 62 61 20 54 36 39 36 33 43 0d 0a     Toshiba T6963C..
     844:	20 44 69 73 70 6c 61 79 20 44 72 69 76 65 20 61      Display Drive a
     854:	6e 64 20 0d 0a 20 41 74 6d 65 6c 20 41 56 52 20     nd .. Atmel AVR 
     864:	41 54 4d 65 67 61 31 32 38 0d 0a 20 56 65 72 73     ATMega128.. Vers
     874:	69 6f 6e 20 00                                      ion .

00000879 <_ZZ17Demo_Clear_ScreenvE3__c>:
     879:	20 00                                                .

0000087b <_ZL8BMP_Ball>:
     87b:	42 4d 01 00 30 00 30 00 06 00 20 01 00 00 00 00     BM..0.0... .....
     88b:	00 00 00 00 07 fc 00 00 00 00 7c 0f 80 00 00 01     ..........|.....
     89b:	c2 4f e0 00 00 0f 08 0f f8 00 00 18 20 0f fc 00     .O.......... ...
     8ab:	00 30 80 97 fe 00 00 e0 0a 01 ff 00 01 9c 00 00     .0..............
     8bb:	7f 80 01 37 e2 40 3f 80 03 2f e0 08 1f c0 02 5f     ...7.@?../....._
     8cb:	c8 00 00 60 06 be c2 40 00 10 04 7f e4 00 08 30     ...`...@.......0
     8db:	05 bf e0 00 00 18 0a 7b e1 10 08 18 0a df c4 80     .......{........
     8eb:	00 0c 1b ff e0 00 08 04 13 ff e4 92 00 06 11 ff     ................
     8fb:	90 00 00 02 34 fe 22 40 00 02 29 f9 12 10 28 03     ....4."@..)...(.
     90b:	20 72 48 81 78 03 32 88 20 47 bc 01 69 14 84 9d      rH.x.2. G..i...
     91b:	ee 01 24 21 49 1f fe 01 20 92 10 1f bb 01 21 44     ..$!I... .....!D
     92b:	22 5e ef 89 22 11 48 9f ff 81 34 4a 04 1e db 81     "^..".H...4J....
     93b:	10 a0 91 1f ff 01 11 05 48 9d ef 01 1a 48 04 1f     ........H....H..
     94b:	be 02 0c 02 49 1e fc 02 0c 61 20 5f fc 22 04 f0     ....I....a _."..
     95b:	12 0f f8 04 07 ec 20 93 f1 04 01 fa 02 40 08 08     ...... ......@..
     96b:	01 df 8d 04 80 10 00 fb c0 10 08 20 00 fd a4 40     ........... ...@
     97b:	40 40 00 7f e0 89 00 80 00 3f e2 00 03 00 00 1f     @@.......?......
     98b:	e4 12 0c 00 00 07 e0 40 38 00 00 00 e1 00 70 00     .......@8.....p.
     99b:	00 00 18 01 80 00 00 00 0f fe 00 00                 ............

000009a7 <_ZL16BMP_guarda_chuva>:
     9a7:	42 4d 01 00 34 00 2e 00 07 00 42 01 00 00 00 20     BM..4.....B.... 
     9b7:	00 00 0f 00 00 00 20 00 00 0f 00 00 00 20 00 00     ...... ...... ..
     9c7:	0f 00 00 0f ff 80 00 0f 00 00 7f ff f0 00 0f 00     ................
     9d7:	03 ff ff fe 00 0f 00 07 ff ff ff 00 0f 00 1f ff     ................
     9e7:	ff ff c0 0f 00 3f ff ff ff e0 0f 00 7f ff ff ff     .....?..........
     9f7:	f0 0f 00 ff ff ff ff f8 0f 01 ff ff ff ff fc 0f     ................
     a07:	03 ff ff ff ff fe 0f 03 ff ff ff ff fe 0f 07 ff     ................
     a17:	ff ff ff ff 0f 07 ff ff ff ff ff 0f 0f ff ff ff     ................
     a27:	ff ff 8f 0f ff ff ff ff ff 8f 0c 0f c0 f8 1f 81     ................
     a37:	8f 18 03 00 70 07 00 cf 10 03 00 20 02 00 4f 10     ....p...... ..O.
     a47:	00 00 20 00 00 0f 00 00 00 20 00 00 0f 00 00 00     .. ...... ......
     a57:	20 00 00 0f 00 00 00 20 00 00 0f 00 00 00 20 00      ...... ...... .
     a67:	00 0f 00 00 00 20 00 00 0f 00 00 00 20 00 00 0f     ..... ...... ...
     a77:	00 00 00 20 00 00 0f 00 00 00 20 00 00 0f 00 00     ... ...... .....
     a87:	00 20 00 00 0f 00 00 00 20 00 00 0f 00 00 00 20     . ...... ...... 
     a97:	00 00 0f 00 00 00 20 00 00 0f 00 00 00 20 00 00     ...... ...... ..
     aa7:	0f 00 00 00 20 00 00 0f 00 00 00 20 00 00 0f 00     .... ...... ....
     ab7:	00 00 20 00 00 0f 00 00 00 20 00 00 0f 00 00 00     .. ...... ......
     ac7:	20 00 00 0f 00 00 00 20 00 00 0f 00 00 00 20 00      ...... ...... .
     ad7:	00 0f 00 00 00 20 00 00 0f 00 00 0c 20 00 00 0f     ..... ...... ...
     ae7:	00 00 0c 60 00 00 0f 00 00 07 c0 00 00 0f           ...`..........

00000af5 <_ZL7BMP_AVR>:
     af5:	42 4d 01 00 34 00 2e 00 07 00 42 01 00 00 00 00     BM..4.....B.....
     b05:	00 00 0f 00 00 00 00 80 00 0f 00 00 00 7f f0 00     ................
     b15:	0f 00 00 0f ff f8 00 0f 00 01 ff ff fc 00 0f 00     ................
     b25:	3f ff ff fe 00 0f 00 ff ff ff fe 00 0f 03 ff ff     ?...............
     b35:	ff 0f 00 0f 03 ff ff fc 0f 80 0f 03 ff ff cc c7     ................
     b45:	80 0f 03 ff e3 cc 0f c0 0f 03 fe 30 cc 0f e0 0f     ...........0....
     b55:	03 fe 18 c8 8f e0 0f 0b fc 04 08 c7 f0 0f 0f fc     ................
     b65:	43 08 ff f8 0f 0d fc 41 8f ff fc 0f 0f fc 08 4f     C......A.......O
     b75:	ff fc 0f 0f fc 7f ff ff fe 0f 3e fc ff ff ff ff     ..........>.....
     b85:	0f 0f ff ff ff ff ff 0f 3f ff ff ff ff ff 8f 0b     ........?.......
     b95:	ff ff ff ff ff 8f 07 ff ff ff ff ff 8f 17 ff ff     ................
     ba5:	ff ff ff 8f 07 ff ff ff ff ff 8f 1b ff ff ff ff     ................
     bb5:	ff 8f 0b ff ff ff ff ff 6f 07 7f ff ff ff 4d 0f     ........o.....M.
     bc5:	0b bf ff ff fb 05 0f 04 ff ff ff f8 25 0f 05 6f     ............%..o
     bd5:	ff ff 20 44 0f 01 bf ff fc 00 60 0f 05 2f ff a4     .. D......`../..
     be5:	00 60 0f 01 0f fd 80 00 21 0f 03 cf f0 00 0c 63     .`......!......c
     bf5:	0f 02 07 80 20 08 68 0f 01 47 90 21 05 80 0f 01     .... .h..G.!....
     c05:	07 80 21 10 b0 0f 01 a3 e0 20 34 80 0f 00 81 20     ..!...... 4.... 
     c15:	16 40 00 0f 00 00 20 02 40 00 0f 00 00 22 40 00     .@.... .@...."@.
     c25:	00 0f 00 00 00 d0 00 00 0f 00 00 00 40 00 00 0f     ............@...
     c35:	00 00 10 00 00 00 0f 00 00 00 00 00 00 0f           ..............

00000c43 <_ZL6BMP_et>:
     c43:	42 4d 01 00 34 00 2e 00 07 00 42 01 00 00 0e 00     BM..4.....B.....
     c53:	00 00 0f 00 07 ff fe 00 00 0f 00 3f ff ff e0 00     ...........?....
     c63:	0f 00 fc 00 03 f8 00 0f 03 e0 00 00 3e 00 0f 07     ............>...
     c73:	80 00 00 0f 00 0f 0f 00 00 00 03 80 0f 1e 00 00     ................
     c83:	00 01 c0 0f 1e 00 00 00 00 e0 0f 1e 00 00 00 00     ................
     c93:	60 0f 3e 00 00 00 00 60 0f 3e 00 00 00 c0 60 0f     `.>....`.>....`.
     ca3:	7f 00 01 f0 00 60 0f 7f 80 06 0f 00 60 0f fb c0     .....`......`...
     cb3:	18 ff 82 60 0f 7e e0 03 ff 02 e0 0f 7f f0 07 ff     ...`.~..........
     cc3:	02 c0 0f 3f f0 0f fe 07 80 0f 3f f0 1f f8 0f 00     ...?......?.....
     cd3:	0f 1f f0 3f f0 1c 00 0f 0f f0 3f 80 18 00 1f 07     ...?......?.....
     ce3:	f0 00 00 18 00 7f 03 f0 00 00 18 00 7f 00 f0 00     ................
     cf3:	00 70 01 7f 00 7e 00 07 c0 06 6f 00 38 30 1f 80     .p...~....o.80..
     d03:	1c cf 00 18 30 6f 80 73 0f 00 0f f0 1d 80 ce 0f     ....0o.s........
     d13:	00 0c 08 78 c3 38 0f 00 06 09 f8 7c e0 0f 00 03     ...x.8.....|....
     d23:	0f f0 19 e0 0f 00 01 fb e0 20 7f cf 00 00 07 81     ......... ......
     d33:	cf 33 cf 00 00 0e 06 0f 92 cf 00 00 7c 0c 0b 9a     .3..........|...
     d43:	cf 00 0f ff 08 03 9a cf 00 7f c0 18 03 b6 8f 00     ................
     d53:	fc 00 19 87 6e 8f 03 90 00 13 fc 9d 0f 03 b0 00     ....n...........
     d63:	33 f9 36 0f 07 20 00 33 f2 ec 0f 06 20 00 20 2d     3.6.. .3.... . -
     d73:	90 0f 04 20 00 c4 29 60 0f 00 00 01 80 3b c0 0f     ... ..)`.....;..
     d83:	00 00 04 10 3f 80 0f 00 00 08 e0 3c 00 0f           ....?......<..

00000d91 <_ZL8BMP_GATO>:
     d91:	42 4d 01 00 34 00 2e 00 07 00 42 01 00 00 00 00     BM..4.....B.....
     da1:	00 00 0f 00 00 00 00 00 00 0f 00 00 00 00 00 00     ................
     db1:	0f 00 00 00 00 00 00 0f 00 00 00 00 00 00 0f 00     ................
     dc1:	00 00 00 00 00 0f 00 10 00 00 40 00 0f 00 18 00     ..........@.....
     dd1:	00 40 00 0f 00 38 00 00 e0 00 0f 00 3c 00 01 e0     .@...8......<...
     de1:	00 0f 00 3c 7f f9 e0 00 0f 00 3f ff ff e0 00 0f     ...<......?.....
     df1:	00 3f ff ff e0 00 0f 00 7f ff ff f0 00 0f 00 ff     .?..............
     e01:	ff ff f8 00 0f 01 ff ff ff fc 00 0f 03 bf 7f ef     ................
     e11:	9e 00 0f 07 3f 3f df ce 00 0f 0e 3f 1f 9f c6 00     ....??.....?....
     e21:	0f 0e 3f 1f 1f c7 00 0f 0e 3f 1f 9f c7 00 0f 0f     ..?......?......
     e31:	3f 3f cf cf 00 0f 0f fe 7f e7 9e 7c 0f 0f fd ff     ??.........|....
     e41:	fe 7e ff 0f 07 ff ff ff ff c3 8f 03 ff ff ff fd     .~..............
     e51:	81 cf 03 ff ff ff fb 00 6f 00 ff ff ff e3 00 6f     ........o......o
     e61:	00 3f ff ff 83 00 6f 00 0f ff ff 03 00 6f 00 00     .?....o......o..
     e71:	07 c0 03 01 cf 00 00 07 c0 03 0f 0f 00 00 07 e0     ................
     e81:	03 00 0f 00 00 07 e0 03 00 0f 00 00 07 f0 06 00     ................
     e91:	0f 00 00 07 f8 06 00 0f 00 00 0f f8 1c 00 0f 00     ................
     ea1:	00 0f fc 38 00 0f 00 00 0f fc f0 00 0f 00 00 0f     ...8............
     eb1:	ff c0 00 0f 00 00 1f fc 00 00 0f 00 00 0f f8 00     ................
     ec1:	00 0f 00 00 00 00 00 00 0f 00 00 00 00 00 00 0f     ................
     ed1:	00 00 00 00 00 00 0f 00 00 00 00 00 00 0f           ..............

00000edf <_ZL9BMP_Sonic>:
     edf:	42 4d 01 00 34 00 2e 00 07 00 42 01 00 00 00 00     BM..4.....B.....
     eef:	00 00 0f 00 00 00 60 00 00 0f 00 00 00 f0 00 00     ......`.........
     eff:	0f 00 00 01 fe 00 00 0f 00 00 7f df f0 01 0f 00     ................
     f0f:	03 ff cf fe 03 0f 00 0f ff cf ff 87 0f 00 3f ff     ..............?.
     f1f:	c7 ff ff 0f 00 ff ff c7 ff ff 0f 01 ff ff ff ff     ................
     f2f:	ff 0f 03 ff ff ff ff fe 0f 00 1f ff ff ff fe 0f     ................
     f3f:	00 7f ff ff ff ff 0f 00 ff ff ff ff ff 0f 01 ff     ................
     f4f:	ff ff ff ff 8f 03 ff ff ff ff ff 8f 07 ff ff ff     ................
     f5f:	ff ff cf 0f ff ff fc ff ff cf 0f ff ff f0 3f ff     ..............?.
     f6f:	ff 1f ff ff e0 1f ff ff 3f ff ff c0 0f ff ff 3f     ........?......?
     f7f:	ff ff c0 07 ff df 7f ff ff c0 87 ff 1f 7f ff ff     ................
     f8f:	c0 43 fe 1f 7d ff ff c0 81 ff 1f 73 ff ff c1 c1     .C..}......s....
     f9f:	ff 0f c3 ff ff a1 c0 ff 0f 03 ff ff 10 c0 07 2f     .............../
     faf:	03 ff ff 01 00 01 2f 03 ff ff 04 00 7c 4f 03 ff     ....../.....|O..
     fbf:	ff a2 06 3b 8f 03 ff ff 90 00 3f 8f 03 ff c0 c8     ...;......?.....
     fcf:	00 0f 0f 03 ff 00 62 00 02 0f 03 fe 00 30 70 0c     ......b......0p.
     fdf:	0f 03 fc 00 04 00 30 0f 03 f8 00 01 c3 c0 0f 01     ......0.........
     fef:	f8 00 00 00 00 0f 01 f0 00 00 00 00 0f 01 f0 00     ................
     fff:	00 00 00 0f 00 f0 00 00 00 00 0f 00 70 00 00 00     ............p...
    100f:	00 0f 00 70 00 00 00 00 0f 00 30 00 00 00 00 0f     ...p......0.....
    101f:	00 10 00 00 00 00 0f 00 00 00 00 00 00 0f           ..............

0000102d <_ZL14BMP_mario_bros>:
    102d:	42 4d 01 00 34 00 2e 00 07 00 42 01 00 00 00 00     BM..4.....B.....
    103d:	00 00 0f 00 00 00 00 00 00 0f 00 00 00 00 00 00     ................
    104d:	0f 00 00 00 38 00 00 0f 00 00 00 7e 00 00 0f 00     ....8......~....
    105d:	00 01 83 00 00 0f 00 00 3d 41 80 00 0f 00 00 ef     ........=A......
    106d:	9f c0 00 0f 00 01 87 77 e0 00 0f 00 01 1f d7 e0     .......w........
    107d:	00 0f 00 01 3f ff e0 00 0f 00 01 5f ff f0 00 0f     ....?......_....
    108d:	00 01 06 7f f0 00 0f 00 00 83 3f f0 00 0f 00 00     ..........?.....
    109d:	8f 1f f8 00 0f 00 00 51 31 fc 00 0f 00 00 60 20     .......Q1.....` 
    10ad:	fe 00 0f 00 00 20 21 fe 00 0f 00 00 20 03 ce 00     ..... !..... ...
    10bd:	0f 00 00 30 3b 86 00 0f 00 00 19 f9 04 00 0f 00     ...0;...........
    10cd:	00 0f f0 44 00 0f 00 00 0f e0 2c 00 0f 00 00 07     ...D......,.....
    10dd:	e0 18 00 0f 00 00 07 e1 f0 00 0f 00 00 07 63 e0     ..............c.
    10ed:	00 0f 00 00 f1 cf f8 00 0f 00 00 fb ff fe 00 0f     ................
    10fd:	00 01 ff ff f3 00 0f 00 02 ff df c1 00 0f 00 02     ................
    110d:	fb 8f c0 80 0f 00 02 fb 8f c0 80 0f 00 03 ff df     ................
    111d:	c5 80 0f 00 01 7f ff c4 80 0f 00 01 ff ff d0 80     ................
    112d:	0f 00 00 bf ff e1 80 0f 00 00 ff ff f7 00 0f 00     ................
    113d:	00 79 ff fc 00 0f 00 00 00 ff f4 00 0f 00 00 00     .y..............
    114d:	03 f4 00 0f 00 00 00 03 f4 00 0f 00 00 00 03 fc     ................
    115d:	00 0f 00 00 00 01 fc 00 0f 00 00 00 01 f8 00 0f     ................
    116d:	00 00 00 01 f0 00 0f 00 00 00 00 00 00 0f           ..............

0000117b <_ZL14BMP_borboletas>:
    117b:	42 4d 01 00 40 01 00 01 28 00 00 28 00 00 00 00     BM..@...(..(....
	...
    11f3:	00 00 00 01 00 00 00 00 00 00 00 00 00 00 00 00     ................
	...
    121b:	00 00 00 07 80 00 00 00 00 00 00 00 00 00 00 00     ................
    122b:	00 00 01 c0 00 00 00 00 00 00 00 00 00 00 00 00     ................
	...
    1243:	00 00 00 07 a0 00 00 00 00 00 00 00 00 00 00 00     ................
    1253:	00 00 04 60 00 00 00 00 00 60 00 00 00 00 00 00     ...`.....`......
	...
    126b:	00 00 00 07 50 00 00 00 00 00 00 00 00 00 00 00     ....P...........
    127b:	00 00 08 30 00 00 00 00 00 f0 00 00 00 00 00 00     ...0............
	...
    1293:	00 00 00 04 98 00 00 00 00 00 00 00 00 00 00 00     ................
    12a3:	00 00 10 30 00 00 00 00 01 f8 00 00 00 00 00 00     ...0............
	...
    12bb:	00 00 00 04 68 00 00 00 00 00 00 00 00 00 00 00     ....h...........
    12cb:	00 00 28 10 00 00 00 00 01 f8 00 00 00 00 00 00     ..(.............
	...
    12e3:	00 00 00 06 94 00 00 00 00 00 00 00 00 00 00 00     ................
    12f3:	00 00 40 30 00 00 00 00 03 bc 00 00 00 00 00 00     ..@0............
	...
    130b:	00 00 00 06 82 00 00 00 00 00 00 00 00 00 00 00     ................
    131b:	00 00 00 88 00 00 00 00 03 fc 00 00 00 00 00 00     ................
	...
    1333:	00 00 00 07 28 00 00 00 00 00 00 00 00 00 00 00     ....(...........
    1343:	00 00 80 08 00 00 00 00 03 fc 00 00 00 00 00 00     ................
    1353:	01 c0 00 00 00 00 0f 00 00 00 00 06 95 00 00 00     ................
	...
    136b:	00 01 00 88 00 00 00 00 07 fe 0e 00 00 00 00 00     ................
    137b:	03 f0 00 00 00 00 3f 80 00 00 00 06 62 00 00 00     ......?.....b...
	...
    1393:	00 02 00 0c 00 00 00 00 07 b6 3f 00 00 00 00 00     ..........?.....
    13a3:	07 fc 00 00 00 00 ff 80 00 00 00 00 8b 80 00 00     ................
	...
    13bb:	00 01 44 44 00 00 00 00 07 be 7f 80 00 00 00 00     ..DD............
    13cb:	07 fe 00 00 00 01 ff 80 00 00 00 06 17 00 00 00     ................
	...
    13e3:	00 04 10 0e 00 00 00 00 07 7f b7 80 00 00 00 00     ................
    13f3:	07 ff 80 00 00 02 ff 80 00 00 00 01 67 40 00 00     ............g@..
	...
    140b:	00 0c 00 03 00 00 00 00 07 df ff 80 00 00 00 00     ................
    141b:	07 c2 c1 c0 02 04 87 80 00 00 00 0d 98 40 00 00     .............@..
	...
    1433:	00 0a 60 03 00 00 00 00 0e 8b ff 80 00 00 00 00     ..`.............
    1443:	03 cc 20 00 00 09 67 80 00 00 00 12 56 80 00 00     .. ...g.....V...
	...
    145b:	00 04 8b 07 00 00 00 00 0c df ef 80 00 00 00 00     ................
    146b:	07 ed 10 00 20 30 6b 80 00 00 00 31 32 a0 00 00     .... 0k....12...
	...
    1483:	00 11 04 01 00 00 00 00 0f ff 9d 80 00 00 00 00     ................
    1493:	07 90 18 00 00 24 13 c0 00 00 00 24 80 60 00 00     .....$.....$.`..
	...
    14ab:	00 00 00 51 80 00 00 00 1f cf fd 80 00 00 00 00     ...Q............
    14bb:	01 80 e4 04 00 5c 07 40 00 00 00 46 7f 40 00 00     .....\.@...F.@..
	...
    14d3:	00 04 40 02 80 00 00 00 1f d8 cf 80 00 00 00 00     ..@.............
    14e3:	0d e0 7a 04 00 b8 0f 40 00 00 00 32 60 a0 00 00     ..z....@...2`...
	...
    14fb:	04 28 02 0c 80 00 00 00 1a bc cd 80 00 00 00 00     .(..............
    150b:	01 90 8f 00 81 46 37 40 00 00 00 89 c5 20 00 00     .....F7@..... ..
	...
    1523:	04 20 00 03 80 00 00 00 1a af ff c0 00 00 00 00     . ..............
    1533:	07 8f e3 80 83 8f e3 40 00 00 00 ac 86 50 00 00     .......@.....P..
	...
    154b:	00 21 20 01 00 00 00 00 17 bf dd c0 00 00 00 00     .! .............
    155b:	07 a1 61 80 87 19 03 80 00 00 00 91 49 a1 00 00     ..a.........I...
    156b:	00 00 00 00 00 00 00 01 80 00 00 84 00 00 00 00     ................
    157b:	1f ff 89 e0 00 00 00 00 03 ac cc c2 86 46 67 80     .............Fg.
    158b:	00 00 00 46 89 50 00 00 00 00 00 00 00 00 00 00     ...F.P..........
    159b:	20 00 00 20 00 00 00 00 1f eb 1e e0 00 00 00 00      .. ............
    15ab:	01 e9 0a 62 8d c9 7f 00 00 00 00 29 0d 30 00 00     ...b.......).0..
	...
    15c3:	00 02 11 fe 00 00 00 00 1c be 3f d0 00 00 00 00     ..........?.....
    15d3:	01 e2 33 a0 0e a8 8e 00 00 00 00 04 19 50 00 00     ..3..........P..
    15e3:	00 00 00 00 00 00 7f c0 07 00 0c 00 80 00 00 00     ................
    15f3:	18 fe 61 f0 00 00 00 00 00 61 1d f3 3e 79 0c 00     ..a......a..>y..
    1603:	00 00 00 03 0a b0 00 00 00 00 00 00 00 1c 00 07     ................
    1613:	07 e1 00 51 00 00 00 00 18 f4 81 f0 00 00 00 00     ...Q............
    1623:	00 31 d0 7b bc 26 10 00 00 00 01 bf cd 60 02 00     .1.{.&.......`..
    1633:	19 bf 00 00 01 84 03 04 63 ec 60 00 30 00 00 00     ........c.`.0...
    1643:	19 c7 07 f0 00 00 00 00 00 0f ff bb bb ff c0 00     ................
    1653:	00 00 04 00 fa d0 00 07 9f 40 d0 00 04 80 40 41     .........@....@A
    1663:	1f e0 00 00 d0 00 00 00 19 84 0c 68 00 00 00 00     ...........h....
    1673:	00 00 09 db f7 00 00 00 00 00 0d 01 89 50 00 7b     .............P.{
    1683:	27 06 6c 00 08 00 0c 00 13 f1 87 c0 18 00 00 00     '.l.............
    1693:	1b 84 30 70 00 00 00 00 00 00 08 7f ec a0 00 00     ..0p............
    16a3:	00 00 02 7b 8e b2 43 54 41 b0 dc 00 08 04 04 80     ...{..CTA.......
    16b3:	01 f1 00 08 18 00 00 00 1b 88 c0 f0 00 00 00 00     ................
    16c3:	00 00 74 6f cc 5c 00 00 00 00 08 03 95 6f 16 a9     ..to.\.......o..
    16d3:	9a 0e 1c 00 04 00 80 42 82 fa 00 02 78 00 00 00     .......B....x...
    16e3:	1b 8b 03 e0 00 00 00 00 00 7f cc 6f ec 47 f8 00     ...........o.G..
    16f3:	00 00 0f 09 c6 ef bd 53 0c 70 38 00 02 00 00 00     .......S.p8.....
    1703:	08 7c 04 00 30 00 00 00 1b 0c 0f 80 00 00 00 00     .|..0...........
    1713:	01 f6 03 d7 d6 80 df 00 00 00 00 35 c9 be d2 ac     ...........5....
    1723:	99 87 e0 00 01 88 88 00 00 3e 00 20 0c 00 00 00     .........>. ....
    1733:	1b 18 1f 80 00 00 00 00 07 90 e1 27 c3 1a 17 80     ...........'....
    1743:	00 00 0c 01 e9 3e b6 98 e4 36 00 00 00 e0 10 00     .....>...6......
    1753:	03 fe 00 00 38 00 00 00 0f 30 3f f0 00 00 00 00     ....8....0?.....
    1763:	07 82 32 6b ec 9a c3 c6 00 00 03 27 ea 7f d9 70     ..2k.......'...p
    1773:	f3 88 00 00 00 24 40 20 14 3e 00 00 b8 00 00 00     .....$@ .>......
    1783:	0f 70 7f f8 00 00 00 00 ff 29 62 7b 2c 0c 2b fe     .p.......)b{,.+.
    1793:	00 00 18 28 e1 f4 c2 41 8e 30 00 00 00 18 00 00     ...(...A.0......
    17a3:	e0 0f 00 00 18 00 00 00 2f e0 f7 ed 00 00 00 00     ......../.......
    17b3:	ff ad 01 bb 3f 01 47 ec 00 00 05 12 e3 fd 3f 87     ....?.G.......?.
    17c3:	00 80 00 00 00 04 08 02 01 03 80 00 78 00 00 04     ............x...
    17d3:	26 47 f2 3f 60 00 00 00 0f fe 82 11 30 82 7f e0     &G.?`.......0...
    17e3:	00 00 06 00 6f f3 52 08 f1 00 00 00 00 07 04 04     ....o.R.........
    17f3:	10 01 c0 00 30 00 00 01 06 0f b8 7f f0 00 00 00     ....0...........
    1803:	0f f9 05 70 19 91 3f e0 00 00 00 96 5f f4 83 b9     ...p..?....._...
    1813:	1b 00 00 00 00 03 80 48 10 01 e0 01 e0 00 00 00     .......H........
    1823:	66 be 31 81 f0 00 00 00 0f f1 30 60 0c 31 9f e0     f.1.......0`.1..
    1833:	00 00 0d 04 ff e8 06 c4 a4 00 00 00 00 00 c0 18     ................
    1843:	00 00 f8 00 c0 00 00 00 7e 78 7e 01 f0 00 00 00     ........~x~.....
    1853:	0f f0 b0 a0 0a 1a 3f e0 00 00 02 88 7d e1 ff 69     ......?.....}..i
    1863:	90 00 00 00 00 00 72 42 20 00 e2 03 80 00 00 00     ......rB .......
    1873:	7f d3 98 7e 3c 00 00 00 0f f9 11 40 05 11 7f e0     ...~<......@....
    1883:	00 00 00 49 f1 ef ff 2c 48 00 00 00 00 00 34 90     ...I...,H.....4.
    1893:	00 00 01 87 80 00 00 00 3f fc 07 80 34 00 00 00     ........?...4...
    18a3:	0f ff cc c0 04 4f ff c0 00 00 03 03 e1 df fc a1     .....O..........
    18b3:	30 00 00 00 00 00 0f 10 20 00 00 32 00 00 00 00     0....... ..2....
    18c3:	3f e0 00 76 3c 00 00 00 07 ff e1 80 03 0f ff 80     ?..v<...........
    18d3:	00 00 00 c7 81 d6 08 00 80 00 00 00 00 00 00 00     ................
    18e3:	00 08 00 04 00 00 00 00 3f e0 00 31 fc 00 00 00     ........?..1....
    18f3:	01 ff ff 00 01 ff fe 00 00 00 00 30 03 dd 51 40     ...........0..Q@
	...
    190b:	80 00 00 00 00 00 00 00 1f e7 ff e0 3c 00 00 00     ............<...
    191b:	00 1f fc 00 00 ff e0 00 00 00 00 00 03 82 16 90     ................
    192b:	00 00 00 00 00 00 00 12 00 00 00 00 00 00 00 00     ................
    193b:	1f f8 0c 18 7c 00 00 00 00 0f f0 00 00 1d c0 00     ....|...........
    194b:	00 00 00 00 03 a2 a8 28 00 00 00 00 00 00 00 16     .......(........
	...
    1963:	07 e4 07 07 f8 00 00 00 00 04 00 00 00 00 40 00     ..............@.
    1973:	00 00 00 00 03 4c c0 28 00 00 00 00 00 00 00 08     .....L.(........
    1983:	20 00 00 00 00 00 00 00 03 f1 80 c1 f0 00 00 00      ...............
    1993:	00 0c 00 00 00 00 e0 00 00 00 00 00 01 10 00 60     ...............`
    19a3:	00 00 00 00 00 00 00 0e 80 00 00 00 00 00 00 00     ................
    19b3:	01 fa 70 71 f0 00 00 00 00 1e 00 00 00 00 f0 00     ..pq............
    19c3:	00 00 00 00 00 00 05 20 00 00 00 00 00 00 00 07     ....... ........
    19d3:	c0 02 00 00 00 00 00 00 00 f8 18 09 f0 00 00 00     ................
    19e3:	00 1e 00 00 00 00 f0 00 00 00 00 00 01 aa 95 c0     ................
    19f3:	00 00 00 00 00 00 00 01 df b7 80 00 00 00 00 00     ................
    1a03:	00 7e 46 0f e0 00 00 00 00 1c 00 00 00 00 70 00     .~F...........p.
    1a13:	00 00 00 00 01 22 29 00 00 00 00 00 00 00 00 00     .....").........
    1a23:	79 be 00 00 00 00 00 00 00 3f a1 0f c0 00 00 00     y........?......
	...
    1a3f:	00 48 a8 00 00 00 00 00 00 00 00 00 1f e0 00 00     .H..............
    1a4f:	00 00 00 00 00 1e f8 df c0 00 00 00 00 00 00 00     ................
	...
    1a67:	00 5d 88 00 00 00 00 00 00 00 00 00 00 00 00 00     .]..............
    1a77:	00 00 00 00 00 0f 3e 7f 00 00 00 00 00 00 00 00     ......>.........
	...
    1aa3:	00 0f 8f fe 00 00 00 00 00 00 00 00 00 00 00 00     ................
	...
    1acb:	00 07 83 fc 00 00 00 00 00 00 00 00 00 00 00 00     ................
	...
    1af3:	00 01 80 70 00 00 00 00 00 00 00 00 00 00 00 00     ...p............
	...
    1bfb:	3c 00 00 00 00 00 00 00 00 00 00 00 00 00 00 00     <...............
	...
    1c23:	df 00 00 00 00 00 00 00 00 00 00 00 00 00 00 00     ................
	...
    1c47:	00 00 00 03 89 00 00 00 00 00 00 00 00 00 00 00     ................
	...
    1c6f:	00 00 00 06 03 80 00 00 00 00 00 00 00 00 00 00     ................
	...
    1c97:	00 00 00 19 0f 80 00 00 00 00 00 00 00 00 00 00     ................
	...
    1cb7:	00 00 00 01 e0 00 00 00 00 00 00 3a 23 80 00 00     ...........:#...
	...
    1cdf:	00 00 00 0e 70 00 00 00 00 00 00 60 43 80 00 00     ....p......`C...
	...
    1d07:	00 00 00 23 f0 00 00 00 00 01 00 c5 cb 80 00 00     ...#............
	...
    1d1f:	00 00 0f fc 00 00 00 00 00 00 00 00 00 00 00 00     ................
    1d2f:	00 00 00 9f f8 00 00 00 00 01 01 84 33 80 00 00     ............3...
    1d3f:	00 03 f0 00 00 00 00 00 00 00 1b db 80 00 00 00     ................
	...
    1d57:	00 00 01 c1 c8 00 00 00 00 01 03 90 07 80 00 00     ................
    1d67:	00 07 fc 00 00 00 00 00 00 00 0d e5 e0 00 00 00     ................
	...
    1d7f:	00 00 05 01 fc 00 00 00 00 01 03 00 3d c0 00 00     ............=...
    1d8f:	00 07 ff 00 00 00 00 00 00 00 0e f3 bc 00 00 00     ................
	...
    1da7:	00 00 0c 39 c8 00 00 00 00 01 07 0e 05 f0 00 00     ...9............
    1db7:	00 07 f0 80 00 00 00 00 00 00 07 ff 9f 00 00 00     ................
	...
    1dcf:	00 00 19 81 d0 00 00 00 10 01 07 80 c1 30 00 00     .............0..
    1ddf:	00 04 50 20 00 00 00 00 00 00 01 bd f9 f0 00 00     ..P ............
	...
    1df7:	00 00 e8 33 f0 00 00 00 04 00 19 ff fe 60 00 00     ...3.........`..
    1e07:	00 04 00 90 01 00 00 00 00 00 01 fe 19 88 00 00     ................
	...
    1e1f:	00 01 e3 03 e0 00 00 00 01 00 11 f8 04 60 00 00     .............`..
    1e2f:	00 04 00 28 00 00 00 00 00 00 00 de 18 8e 00 00     ...(............
	...
    1e47:	08 03 88 ff e0 00 00 00 00 80 03 80 06 c0 00 00     ................
    1e57:	00 04 00 06 00 00 00 00 00 00 00 7f 84 8f 00 00     ................
	...
    1e6f:	00 0e 4f ef c0 00 00 60 00 20 26 00 0f e0 00 00     ..O....`. &.....
    1e7f:	00 04 39 09 00 00 00 00 00 00 00 37 87 87 80 00     ..9........7....
    1e8f:	40 00 00 00 00 00 00 00 00 09 6c 0d 00 00 7f df     @.........l.....
    1e9f:	e0 00 3c 10 fb 20 00 00 00 04 08 00 00 00 00 00     ..<.. ..........
    1eaf:	00 00 00 1f c0 87 40 00 00 00 00 03 e3 00 00 00     ......@.........
    1ebf:	00 28 90 1f c0 01 80 00 fe 00 38 01 81 e0 00 00     .(........8.....
    1ecf:	00 04 00 00 80 00 40 00 00 00 00 1f e3 87 30 08     ......@.......0.
    1edf:	00 00 00 03 f9 fc 10 00 10 77 67 8f c0 03 80 80     .........wg.....
    1eef:	70 c3 70 1c 33 e0 00 00 00 04 00 10 40 00 00 00     p.p.3.......@...
    1eff:	00 00 00 0f f0 c7 39 c0 00 00 00 03 f0 03 82 00     ......9.........
    1f0f:	20 ce e0 1c 00 03 80 74 70 33 70 e0 07 80 00 00      ......tp3p.....
    1f1f:	00 04 00 08 a0 00 00 00 00 00 00 07 f8 c7 19 80     ................
    1f2f:	00 00 00 03 f1 e1 f8 80 00 29 00 1e 00 00 47 00     .........)....G.
    1f3f:	ff fd e3 08 3f 00 00 00 00 04 02 04 10 00 00 00     ....?...........
    1f4f:	00 00 00 07 f8 c7 1f 80 00 00 00 03 f8 00 0e 00     ................
    1f5f:	01 d4 01 7f 00 03 c1 0c 7f 7f fe 01 fc 00 00 00     ................
    1f6f:	00 02 00 10 21 04 00 00 00 00 00 03 ff 03 1f c0     ....!...........
    1f7f:	00 00 00 03 f8 1e 01 c2 03 4e 00 3b 00 01 c3 81     .........N.;....
    1f8f:	e0 13 fc 3f e0 00 00 00 00 01 00 00 08 00 00 00     ...?............
    1f9f:	00 00 00 01 ff 03 1f ff c0 00 00 01 d9 01 ff 78     ...............x
    1faf:	c6 a0 fe ff 00 01 f4 07 80 03 ff ff f0 00 00 00     ................
    1fbf:	00 00 78 00 05 e0 00 00 00 00 00 00 3f 02 1f e0     ..x.........?...
    1fcf:	38 00 00 00 fe 4d 40 0c f5 e0 00 36 00 00 79 9e     8....M@....6..y.
    1fdf:	0c 1f fc e0 fc 00 00 00 00 03 18 e0 0f e0 3f fc     ..............?.
    1fef:	00 00 00 00 3f 82 3f c1 ff 00 00 00 79 a0 1e 03     ....?.?.....y...
    1fff:	ff 07 80 7c 00 00 39 9c 00 f3 fc 7f cf 00 00 00     ...|..9.........
    200f:	00 0c 78 0e bf e3 80 00 f0 00 00 00 7f 86 3f 83     ..x...........?.
    201f:	f0 c0 00 00 1f c0 c0 ff fe 00 ff c0 00 00 1d 30     ...............0
    202f:	06 0f fe 28 9f 80 00 00 00 10 04 01 ff f0 40 00     ...(..........@.
    203f:	3e 00 00 00 7f 86 3f 07 c0 f8 00 00 0f 66 02 19     >.....?......f..
    204f:	fd f0 06 00 00 00 0c 30 28 1d bb 9c c3 80 00 00     .......0(.......
    205f:	00 00 40 18 7f f8 00 00 3f 00 00 00 df 82 7f 0f     ..@.....?.......
    206f:	01 dc 00 00 01 f8 18 46 fe f0 01 80 00 00 0f e1     .......F........
    207f:	e2 38 fd c7 1f 80 00 00 00 20 00 00 7f f8 00 00     .8....... ......
    208f:	1f 80 00 00 7f 82 7e 1e 07 0f 80 00 01 fc 62 19     ......~.......b.
    209f:	7f 08 70 e0 00 00 0c 3e 08 e4 dc 7f c7 80 00 00     ..p....>........
    20af:	00 20 02 00 7f f0 02 10 9f 80 00 00 7f c6 7c 38     . ............|8
    20bf:	1e 1e 40 00 00 ef 01 8d 7f 85 06 e8 00 00 0f 3c     ..@............<
    20cf:	83 c4 dc 1f 6b 80 00 00 00 20 20 00 ff fc 10 00     ....k....  .....
    20df:	0f 80 00 00 3f ec f8 70 3d fd 70 00 00 3f c6 62     ....?..p=.p..?.b
    20ef:	bf 42 60 ec 00 00 03 f8 0f 90 ce 07 9f 80 00 00     .B`.............
    20ff:	00 00 00 80 ff d3 00 07 07 00 00 00 5f f4 f1 c8     ............_...
    210f:	60 93 f4 00 00 1f e2 16 1f b0 04 7c 00 00 00 4f     `..........|...O
    211f:	ff 05 86 01 be 60 00 00 00 10 02 00 9f e4 c0 01     .....`..........
    212f:	02 00 00 00 6f fd f3 00 00 0a 56 00 00 06 dc 02     ....o.....V.....
    213f:	1f ac 21 7e 00 00 00 7b ee c1 02 00 c3 60 00 00     ..!~...{.....`..
    214f:	00 18 00 00 1f e0 64 40 04 00 00 00 3f ff f6 76     ......d@....?..v
    215f:	02 41 6b 00 00 01 cc 48 6f d5 00 ea 00 00 00 3f     .Ak....Ho......?
    216f:	0e 67 00 00 c9 e0 00 00 00 08 00 44 7d a1 08 10     .g.........D}...
    217f:	08 00 00 00 1f ff ec 47 ff ff ff 80 00 00 0d 84     .......G........
    218f:	6f c2 44 f4 00 00 00 00 0c 5f 00 00 6c e0 00 00     o.D......_..l...
    219f:	00 04 00 00 7c 80 02 00 30 00 00 00 1f ff f2 0f     ....|...0.......
    21af:	ff ff ff c0 00 00 1e 24 df 89 21 ec 00 00 00 00     .......$..!.....
    21bf:	0c 12 00 00 74 f0 00 00 00 02 00 11 7c 10 01 00     ....t.......|...
    21cf:	00 00 00 00 27 fb ff ff ff ff db 40 00 00 16 01     ....'......@....
    21df:	53 80 11 d4 00 00 00 00 1c 13 00 00 7f f0 00 00     S...............
    21ef:	00 00 80 06 74 11 1b 80 40 00 00 00 3f ff ff ff     ....t...@...?...
    21ff:	ff ff ff c0 00 00 12 49 47 80 8b ec 00 00 00 00     .......IG.......
    220f:	0c a1 00 00 3f 98 00 00 00 00 70 08 74 00 43 71     ....?.....p.t.Cq
    221f:	80 00 00 00 0f fb ff ff ff ff ff c0 00 00 1f 88     ................
    222f:	4a 84 47 b8 00 00 00 00 0f 95 00 00 3f 1c 00 00     J.G.........?...
    223f:	00 00 0f e0 e0 02 01 80 00 00 00 00 07 f9 ff ff     ................
    224f:	f0 00 00 00 00 00 0d da 09 22 6f 58 00 00 00 00     ........."oX....
    225f:	07 95 80 00 01 0e 00 00 00 00 00 00 e0 00 22 30     .............."0
    226f:	00 00 00 00 0f fb ff ff 40 00 00 00 00 00 0f f2     ........@.......
    227f:	00 a2 ff 30 00 00 00 00 03 f1 c0 00 00 0f 80 00     ...0............
    228f:	00 00 00 00 42 00 01 30 00 00 00 00 1b d7 ff ff     ....B..0........
    229f:	c0 00 00 00 00 00 07 ba 04 ff ff e0 00 00 00 00     ................
    22af:	01 d2 c0 00 00 07 e0 00 00 00 00 00 02 00 00 10     ................
    22bf:	00 00 00 00 3f b7 ff fc 00 00 00 00 00 00 03 7e     ....?..........~
    22cf:	7f ff 99 e0 00 00 00 00 01 90 e0 00 00 01 f8 00     ................
    22df:	00 00 00 00 00 00 20 00 00 00 00 00 30 2f ff f8     ...... .....0/..
    22ef:	00 00 00 00 00 00 01 a7 ff 7f 6c c0 00 00 00 00     ..........l.....
    22ff:	01 90 e0 00 00 00 00 00 00 00 00 00 01 00 00 00     ................
    230f:	00 00 00 00 40 0f ff 98 00 00 00 00 00 00 00 3b     ....@..........;
    231f:	fc cd fe 80 00 00 00 00 01 f1 e0 00 00 00 00 00     ................
    232f:	00 00 00 00 00 81 00 10 00 00 00 00 40 07 ff 00     ............@...
    233f:	00 00 00 00 00 00 00 3e 23 c1 c6 00 00 00 00 00     .......>#.......
    234f:	00 7f c0 00 00 00 00 00 00 00 00 00 00 c0 00 30     ...............0
    235f:	00 00 00 00 80 07 70 00 00 00 00 00 00 00 00 07     ......p.........
    236f:	f7 00 00 00 00 00 00 00 00 3f c0 00 00 00 00 00     .........?......
    237f:	00 00 00 00 00 20 00 40 00 00 00 01 00 08 60 00     ..... .@......`.
    238f:	00 00 00 00 00 00 00 06 f7 00 00 00 00 00 00 00     ................
    239f:	00 1c 80 00 00 00 00 00 00 00 00 00 00 08 01 80     ................
    23af:	00 00 00 00 00 08 60 00 00 00 00 00 00 00 00 03     ......`.........
    23bf:	30 00 00 00 00 00 00 00 00 18 00 00 00 00 00 00     0...............
    23cf:	00 00 00 00 00 03 de 00 00 00 00 00 00 00 40 00     ..............@.
	...
    23ef:	00 1c 00 00 00 00 00 00 00 00 00 00 00 00 00 00     ................
    23ff:	00 00 00 00 00 00 40 00 00 00 00 00 00 00 00 00     ......@.........
	...
    2417:	00 1c 00 00 00 00 00 00 00 00 00 00 00 00 00 00     ................
	...
    243f:	00 0c 00 00 00 00 00 00 00 00 00 00 00 00 00 00     ................
	...
    2467:	00 1e 00 00 00 00 00 00 00 00 00 00 00 00 00 00     ................
	...
    248f:	00 1e 00 00 00 00 00 00 00 00 00 00 00 00 00 00     ................
	...
    24b7:	00 1c 00 00 00 00 00 00 00 00 00 00 00 00 00 00     ................
	...
    24df:	00 1c 00 00 00 00 00 00 00 00 00 00 00 00 00 00     ................
	...
    2507:	00 30 00 00 00 00 00 00 00 00 00 00 00 00 00 00     .0..............
	...
    2537:	00 00 c0 00 00 00 00 00 00 00 00 00 00 00 00 00     ................
	...
    2557:	00 00 01 00 00 00 00 00 00 03 78 00 00 00 00 00     ..........x.....
	...
    257f:	00 00 00 40 00 00 00 00 00 03 f4 00 00 00 00 00     ...@............
	...
    25a7:	00 00 00 20 00 00 00 00 00 03 df 00 00 78 00 00     ... .........x..
	...
    25d7:	00 03 fb 80 00 f8 00 00 00 00 00 00 00 00 00 00     ................
	...
    25f7:	00 00 00 10 00 00 00 00 00 07 9f c0 00 f0 00 00     ................
	...
    261f:	00 00 00 08 00 00 00 00 00 07 d7 e0 0e e0 00 00     ................
	...
    2647:	00 00 00 08 00 00 00 00 00 07 bf c0 03 c0 01 c0     ................
	...
    2677:	00 07 bf f8 03 80 01 f0 00 00 00 00 00 00 00 00     ................
    2687:	00 00 00 00 00 00 00 70 00 00 03 c0 00 00 00 00     .......p........
    2697:	00 00 00 04 00 00 00 00 00 07 ef f8 03 00 00 f0     ................
    26a7:	00 00 00 0e 00 00 00 00 00 00 01 c0 00 00 01 82     ................
    26b7:	00 00 08 60 00 00 00 00 00 00 08 02 00 00 00 00     ...`............
    26c7:	00 03 77 fc 03 00 00 e0 00 00 00 3f e0 00 00 00     ..w........?....
    26d7:	00 00 1f f0 00 00 00 01 80 00 00 00 00 00 00 00     ................
    26e7:	00 00 00 a1 00 00 00 00 00 03 f1 ea 02 00 00 c0     ................
    26f7:	00 00 00 3f f8 00 00 00 00 00 7f f8 00 00 00 00     ...?............
    2707:	00 00 60 00 00 00 00 00 00 00 01 00 80 00 00 00     ..`.............
    2717:	00 07 e0 7f 02 00 00 f8 00 00 00 61 ff 00 00 00     ...........a....
    2727:	00 03 fc 38 00 00 00 00 40 00 00 00 00 00 00 00     ...8....@.......
    2737:	00 00 10 14 20 00 00 00 00 07 78 27 82 00 00 f0     .... .....x'....
    2747:	00 00 00 72 07 80 00 00 00 07 c3 38 00 00 00 00     ...r.......8....
	...
    275f:	00 00 10 02 00 00 00 00 00 03 c3 01 82 00 01 c0     ................
    276f:	00 00 00 26 01 e0 00 00 00 1e 00 d8 00 00 00 00     ...&............
    277f:	00 00 80 00 00 00 00 00 00 00 02 02 08 00 00 00     ................
    278f:	00 05 80 60 82 00 01 80 00 00 00 23 a9 f0 05 06     ...`.......#....
    279f:	80 3c bf 10 00 00 00 00 20 00 80 00 00 00 00 00     .<...... .......
    27af:	00 00 00 02 40 00 00 00 00 07 c0 00 e2 00 03 00     ....@...........
    27bf:	00 00 00 21 80 f8 00 80 80 fe 07 30 00 00 00 00     ...!.......0....
    27cf:	30 01 00 00 00 00 00 00 00 00 00 00 00 00 00 00     0...............
    27df:	00 06 f0 10 62 00 02 00 00 72 00 1b ff 86 05 0a     ....b....r......
    27ef:	81 87 f7 70 00 00 00 00 00 01 00 00 00 00 00 00     ...p............
    27ff:	00 00 02 00 20 00 00 00 00 07 ee 08 20 00 04 00     .... ....... ...
    280f:	2f fd 80 1b 43 3b 03 0b 02 63 0b 60 00 00 00 00     /...C;...c.`....
    281f:	08 06 00 00 00 00 00 00 00 00 92 00 20 00 00 00     ............ ...
    282f:	00 07 c0 c8 11 00 08 03 ff 9f c0 19 37 3e 80 40     ............7>.@
    283f:	0d e3 ba 20 00 00 00 00 04 00 00 00 00 00 00 00     ... ............
    284f:	00 00 80 00 00 00 00 00 00 07 80 0c 11 00 30 0c     ..............0.
    285f:	fe fe c0 19 21 87 40 00 1b c6 12 60 00 00 00 00     ....!.@....`....
    286f:	02 08 00 00 00 00 00 00 00 00 09 00 00 10 00 00     ................
    287f:	00 07 c0 02 18 00 40 7f 7f af c0 1f 10 e0 b0 00     ......@.........
    288f:	34 1c 22 e0 00 00 00 00 01 10 00 00 00 00 00 00     4.".............
    289f:	00 00 29 00 08 26 00 00 00 03 f0 01 0c 00 81 ff     ..)..&..........
    28af:	ff e7 80 19 f8 3e 18 00 23 f0 7f 60 00 00 00 00     .....>..#..`....
    28bf:	00 20 00 00 00 00 00 00 00 00 29 00 30 81 00 00     . ........).0...
    28cf:	00 00 fe 00 8c 02 07 80 ff ef 80 11 0c 03 ec 00     ................
    28df:	de 00 43 30 00 00 00 00 00 c0 00 00 00 00 00 00     ..C0............
    28ef:	00 00 20 00 02 04 00 00 00 00 1f c0 45 a0 3c 01     .. .........E.<.
    28ff:	03 4f 00 3a 04 00 3e 01 f0 01 81 30 00 0f ff fc     .O.:..>....0....
    290f:	00 e0 07 ff fe 00 00 00 00 00 00 80 00 00 20 00     .............. .
    291f:	00 00 cf f0 26 68 60 00 01 fe 00 3f ff 00 0e 79     ....&h`....?...y
    292f:	c0 03 ff f0 00 ff f2 3f 80 e0 7f 8b ff e0 00 00     .......?........
    293f:	00 00 01 80 00 00 00 00 00 06 fd fc 17 ed 80 0f     ................
    294f:	01 9c 00 63 01 c0 07 7b 00 06 03 38 03 9f df dc     ...c...{...8....
    295f:	f0 e1 ef 77 fe 38 00 00 00 00 14 00 00 02 10 00     ...w.8..........
    296f:	00 1f 80 ff 07 fe 00 40 3f e8 00 62 c0 3f 01 b7     .......@?..b.?..
    297f:	03 f0 05 18 05 9f dd ff cd f7 7f f7 3f 24 00 00     ............?$..
    298f:	00 00 04 80 00 10 00 00 00 07 c0 37 e7 fc 0f 80     ...........7....
    299f:	03 b0 00 e2 31 e3 fd 86 fe 1e 31 08 06 bf 7d ff     ....1.....1...}.
    29af:	fb fb ff f3 df a4 00 00 00 00 28 00 53 00 00 00     ..........(.S...
    29bf:	00 3f 00 c0 1f f8 80 08 06 e0 00 e6 06 01 07 b7     .?..............
    29cf:	02 01 c1 88 03 7e f1 df f9 f3 fe 73 cf d8 00 00     .....~.....s....
    29df:	04 00 00 01 00 80 00 00 00 38 00 00 1f f0 00 03     .........8......
    29ef:	07 c0 00 f9 07 8f c1 a7 1f c3 43 78 01 70 7d fe     ..........Cx.p}.
    29ff:	7b ff cf f3 c5 b0 00 00 08 00 94 80 00 00 60 00     {.............`.
    2a0f:	00 7d 04 00 1f f9 00 00 79 80 00 79 b9 e0 0f 6f     .}......y..y...o
    2a1f:	c0 1e 74 38 01 7c f9 ff ff fd ff f3 e7 e0 00 00     ..t8.|..........
    2a2f:	00 00 0a 00 04 00 00 00 00 60 00 02 1f f3 fc 00     .........`......
    2a3f:	7f 00 00 38 e0 00 ff ef fc 00 1c 78 00 2e 31 ff     ...8.......x..1.
    2a4f:	fb f3 ff f1 0e 80 00 00 00 00 07 00 40 06 00 00     ............@...
    2a5f:	00 f0 20 60 1f f0 7f f0 7f 00 00 3d 30 03 fc ee     .. `.......=0...
    2a6f:	ff 00 23 f0 00 0a 03 ff f3 f1 ff f8 02 00 00 00     ..#.............
    2a7f:	01 00 3b 84 00 00 40 00 00 78 10 00 1f e0 0f ff     ..;...@..x......
    2a8f:	3e 00 00 1e 07 ff e1 ee 1f ff 81 c0 00 05 b7 fe     >...............
    2a9f:	63 f8 cf ff 3c 00 00 00 20 2d 07 c0 00 00 00 00     c...<... -......
    2aaf:	00 78 01 00 1f 80 1f bf f8 00 00 07 ff 34 c3 bf     .x...........4..
    2abf:	0c fb ff 80 00 00 7f f8 40 f8 83 ff 80 00 00 00     ........@.......
    2acf:	09 00 20 f0 b0 00 00 00 00 7c 86 00 1f 00 08 7b     .. ......|.....{
    2adf:	f0 00 00 00 00 db 86 b6 83 24 00 00 00 01 3f e4     .........$....?.
    2aef:	30 e0 86 ef a0 00 00 20 84 02 00 dc 00 0f e0 00     0...... ........
    2aff:	00 7f 08 10 7f 00 00 14 00 00 00 00 03 fb 08 b4     ................
    2b0f:	42 ff 00 00 00 00 0c dc 21 e0 07 66 40 00 00 06     B.......!..f@...
    2b1f:	20 10 04 27 00 00 00 00 00 7a 10 00 03 00 00 0e      ..'.....z......
    2b2f:	00 00 00 00 04 43 30 b6 21 18 80 00 00 00 21 9f     .....C0.!.....!.
    2b3f:	80 e0 7f 31 80 00 04 00 11 00 00 27 b0 00 80 00     ...1.......'....
    2b4f:	00 2f 80 81 3d 00 80 45 00 00 00 00 08 83 60 96     ./..=..E......`.
    2b5f:	19 04 40 00 00 00 3d 87 92 e0 38 77 00 00 00 40     ..@...=...8w...@
    2b6f:	00 00 00 02 c2 c8 00 00 00 1f c1 02 3d 00 40 1f     ............=.@.
    2b7f:	00 00 00 00 1f 03 c1 96 0f 03 e0 00 00 00 1f e0     ................
    2b8f:	12 e1 00 7f 00 00 00 00 00 00 00 11 70 00 00 00     ............p...
    2b9f:	00 1f e4 08 3c 00 40 0f 80 00 00 00 19 18 81 16     ....<.@.........
    2baf:	0c 62 60 00 00 00 12 40 32 e9 81 ca 00 00 00 04     .b`....@2.......
    2bbf:	00 00 00 08 80 00 00 00 00 0f fc 10 20 08 10 07     ............ ...
    2bcf:	80 00 00 00 39 40 c3 03 0c 1a 20 00 00 00 03 7e     ....9@.... ....~
    2bdf:	fa e9 ef 9c 00 00 00 00 00 00 00 00 00 00 00 00     ................
    2bef:	00 03 7f 80 70 00 44 07 80 00 00 00 1b 81 47 03     ....p.D.......G.
    2bff:	9a 07 e0 00 00 00 01 c7 fe ef fe 70 00 00 00 04     ...........p....
    2c0f:	00 00 08 04 40 00 00 00 00 01 f3 80 60 84 44 07     ....@.......`.D.
    2c1f:	80 00 00 00 1d 86 3b 03 61 02 60 00 00 00 00 67     ......;.a.`....g
    2c2f:	fe cf fe 60 00 00 00 00 80 00 00 00 00 00 00 00     ...`............
    2c3f:	00 00 7e 00 00 04 00 07 00 00 00 00 1c 8c 33 01     ..~...........3.
    2c4f:	20 c4 60 00 00 00 00 b8 fc 4f e3 a0 00 00 30 00      .`......O....0.
    2c5f:	48 00 00 00 20 00 00 00 00 00 00 00 00 40 00 47     H... ........@.G
    2c6f:	00 00 00 00 0e 48 26 01 10 6d c0 00 00 00 00 5c     .....H&..m.....\
    2c7f:	8c 06 2f 80 00 00 07 20 08 14 00 42 10 00 00 00     ../.... ...B....
    2c8f:	00 00 00 00 00 00 20 3f 00 00 00 00 07 f8 46 01     ...... ?......F.
    2c9f:	8c 3f 80 00 00 00 00 0f 8c 06 3a 00 00 00 00 06     .?........:.....
    2caf:	00 00 04 01 00 00 00 00 00 00 00 00 00 20 02 3f     ............. .?
    2cbf:	00 00 00 00 03 c0 86 01 c4 27 80 00 00 00 00 07     .........'......
    2ccf:	fc 07 dc 00 00 00 00 00 80 00 05 20 00 00 00 00     ........... ....
    2cdf:	00 00 00 00 00 3e 23 fc 00 00 00 00 01 89 0e 00     .....>#.........
    2cef:	c2 06 00 00 00 00 00 00 40 00 80 00 00 00 00 00     ........@.......
    2cff:	20 00 02 80 88 00 00 00 00 00 00 00 00 3e ff fc      ............>..
    2d0f:	00 00 00 00 00 cb 0c 00 e1 24 00 00 00 00 00 00     .........$......
	...
    2d27:	0a 04 00 90 08 00 00 00 00 00 00 00 00 1b fb f0     ................
    2d37:	00 00 00 00 00 4c 38 00 e1 cc 00 00 00 00 00 00     .....L8.........
	...
    2d4f:	00 00 00 08 40 00 00 00 00 00 00 00 00 0f bf 80     ....@...........
    2d5f:	00 00 00 00 00 6c 78 00 78 d8 00 00 00 00 00 00     .....lx.x.......
	...
    2d77:	00 00 00 44 08 00 00 00 00 00 00 00 00 03 fc 00     ...D............
    2d87:	00 00 00 00 00 3c f0 00 3e d0 00 00 00 00 00 00     .....<..>.......
	...
    2d9f:	00 02 00 00 00 00 00 00 00 00 00 00 00 00 00 00     ................
    2daf:	00 00 00 00 00 1f f0 00 1f e0 00 00 00 00 00 00     ................
	...
    2dc7:	00 00 20 21 20 00 00 00 00 00 00 00 00 00 00 00     .. ! ...........
    2dd7:	00 00 00 00 00 0f c0 00 1f c0 00 00 00 00 00 00     ................
	...
    2def:	00 01 20 00 80 00 00 00 00 00 00 00 00 00 00 00     .. .............
    2dff:	00 00 00 00 00 03 80 00 07 00 00 00 00 00 00 00     ................
	...
    2e17:	00 00 40 18 00 00 00 00 00 00 00 00 00 00 00 00     ..@.............
	...
    2e3f:	00 00 22 00 00 00 00 00 00 00 00 00 00 00 00 00     ..".............
	...
    2e67:	00 00 02 00 00 00 00 00 00 00 00 00 00 00 00 00     ................
	...
    2f3b:	00 7c 00 00 00 00 00 00 00 03 c0 00 00 00 00 00     .|..............
    2f4b:	00 00 00 20 00 00 00 00 00 00 00 00 00 00 00 00     ... ............
	...
    2f63:	00 fe 00 00 00 00 00 00 00 0f e0 00 00 00 00 00     ................
    2f73:	00 00 00 7c 00 00 00 00 00 00 00 00 00 00 00 00     ...|............
	...
    2f8b:	01 ff 80 00 00 00 00 00 00 1f 70 00 00 00 00 00     ..........p.....
    2f9b:	00 00 01 fc 00 00 00 00 00 00 00 00 00 00 00 00     ................
	...
    2fb3:	01 ff c0 00 00 00 00 00 00 3d f8 00 00 00 00 00     .........=......
    2fc3:	00 00 03 5a 00 00 00 00 00 00 00 00 00 00 00 00     ...Z............
	...
    2fdb:	03 ff e0 00 00 00 00 00 00 78 fc 00 00 00 00 00     .........x......
    2feb:	00 00 07 cf 00 00 00 00 00 00 00 00 00 00 00 00     ................
	...
    3003:	03 ff f0 00 00 00 00 00 00 fd fe 00 00 00 00 00     ................
    3013:	00 00 0f e5 80 00 00 00 00 00 00 00 00 00 00 00     ................
	...
    302b:	03 ff f8 00 00 00 00 00 00 e7 fe 00 00 00 00 00     ................
    303b:	00 00 0f ff 80 00 00 00 00 00 00 00 00 00 00 00     ................
	...
    3053:	03 f3 fc 00 00 00 00 00 00 df ff 00 00 00 00 00     ................
    3063:	00 00 1e 7a c0 00 00 00 00 00 00 00 00 00 00 00     ...z............
	...
    307b:	03 c3 be 00 00 00 00 00 01 f7 ff 00 00 00 00 00     ................
    308b:	00 00 3e 37 40 00 00 00 00 00 00 00 00 00 00 00     ..>7@...........
	...
    30a3:	03 03 ff 80 00 00 00 00 01 c7 ff 80 00 00 00 00     ................
    30b3:	00 00 3d fd e0 00 00 00 00 00 00 00 00 00 00 00     ..=.............
	...
    30cb:	07 3f ff 80 00 00 00 00 03 ff ff 80 00 00 00 00     .?..............
    30db:	00 00 3d de e0 00 00 00 00 00 00 1f 80 00 00 00     ..=.............
    30eb:	00 00 0f c0 00 00 00 00 02 3d ff c0 00 00 00 00     .........=......
    30fb:	03 ff ff 80 00 00 00 00 00 00 7c 6d 30 00 00 00     ..........|m0...
    310b:	00 00 00 33 f0 00 00 00 00 00 fe c0 00 00 00 00     ...3............
    311b:	01 ff ff e0 00 00 00 00 03 bf ff 80 00 00 00 00     ................
    312b:	00 00 77 f1 90 00 00 00 00 00 00 30 fe 00 00 00     ..w........0....
    313b:	00 03 fc 40 00 00 00 00 01 ff ef e0 00 00 00 00     ...@............
    314b:	07 7f ff 80 00 00 00 00 00 00 f3 fa d0 10 00 00     ................
    315b:	00 00 00 3c ff 80 00 00 00 0f f1 c0 00 00 00 00     ...<............
    316b:	03 ff fd f0 00 00 00 00 07 bf fd c0 00 00 00 00     ................
    317b:	00 00 fc e4 40 10 00 00 00 00 00 1f ed e0 00 00     ....@...........
    318b:	00 3d 3f c0 00 00 00 00 03 ff 7b 70 00 00 00 00     .=?.......{p....
    319b:	07 bf ff c0 00 00 00 00 00 00 fe 60 08 10 00 00     ...........`....
    31ab:	00 00 00 1f e1 f0 00 00 00 fc 3f c0 00 00 00 00     ..........?.....
    31bb:	03 ff b7 e0 00 00 00 00 07 ff ff c0 00 00 00 00     ................
    31cb:	00 00 eb a6 e8 10 00 00 00 00 00 0c 70 dc 00 00     ............p...
    31db:	01 90 71 80 00 00 00 00 03 ff 6d 80 00 00 00 00     ..q.......m.....
    31eb:	07 ff ff c0 00 00 00 00 00 00 6d e5 f8 10 00 00     ..........m.....
    31fb:	00 00 00 0e 7f 26 00 00 07 27 f3 80 00 00 00 00     .....&...'......
    320b:	03 ff db 43 90 00 00 00 06 ff ff e0 00 00 00 00     ...C............
    321b:	00 00 79 c0 28 10 00 00 00 00 00 0f f2 f3 00 00     ..y.(...........
    322b:	0c f6 7f 00 00 00 00 00 01 fe 4e bf f8 00 00 00     ..........N.....
    323b:	06 ff ff e0 00 00 00 00 00 00 2f c2 28 10 00 00     ........../.(...
    324b:	00 00 00 0f f9 0c c2 04 1b 88 ff 00 00 00 00 00     ................
    325b:	01 f7 b5 ff ff 00 00 00 07 ff f7 c0 00 00 00 00     ................
    326b:	00 07 fb 60 28 00 00 00 00 00 00 0f e2 43 66 8b     ...`(........Cf.
    327b:	3c 16 3f 00 00 00 00 00 01 fd 46 ed 7f 00 00 00     <.?.......F.....
    328b:	07 ff ff e0 00 00 00 00 00 19 fd d8 14 10 00 00     ................
    329b:	00 00 00 06 38 c0 f0 10 78 09 e3 00 00 00 00 00     ....8...x.......
    32ab:	01 fb 9f bd c7 80 00 00 03 ff fd e0 00 00 00 00     ................
    32bb:	00 16 27 84 14 00 00 00 00 00 00 06 71 3e 38 00     ..'.........q>8.
    32cb:	c3 f8 73 00 00 00 00 00 01 f7 7f d3 87 e0 00 00     ..s.............
    32db:	00 ff ff c1 00 00 00 00 00 6f 9b c2 04 00 00 00     .........o......
    32eb:	00 00 00 07 f4 20 fc 41 f0 02 7f 00 00 00 00 00     ..... .A........
    32fb:	00 ff dd de 0f e0 00 00 7e 3f ff c0 00 00 00 00     ........~?......
    330b:	00 78 24 91 04 10 00 00 00 00 00 07 f1 4f fc 03     .x$..........O..
    331b:	ff 80 fe 00 00 00 00 00 08 ff fb 28 40 e0 00 01     ...........(@...
    332b:	bf cf ff 40 00 00 00 00 00 58 09 68 c4 00 00 02     ...@.....X.h....
    333b:	00 00 00 07 ff f8 0e 07 80 ff fe 00 00 00 00 00     ................
    334b:	04 ff ff 71 80 e0 00 01 ff f7 fd c0 00 00 00 00     ...q............
    335b:	00 a1 02 9e 4c 00 00 78 00 00 00 03 8e 01 03 64     ....L..x.......d
    336b:	08 07 0e 00 00 00 00 00 00 3f ef fe 01 b0 00 03     .........?......
    337b:	ff ff f7 82 00 00 00 00 00 e0 0c 66 a4 40 00 00     ...........f.@..
    338b:	00 00 00 01 fc 0f 03 ac 0f 01 fc 00 00 00 00 00     ................
    339b:	01 3f fa 1f ef f0 00 02 7f ff fc 86 00 00 00 00     .?..............
    33ab:	00 b1 f0 fb 54 70 00 00 00 00 00 01 fe 30 c1 bc     ....Tp.......0..
    33bb:	10 e3 fc 00 00 00 00 00 00 3f fb 78 80 80 00 03     .........?.x....
    33cb:	ff ff f9 84 00 00 00 00 00 e0 06 05 b4 e0 00 00     ................
    33db:	00 00 00 00 df e0 1f ef c0 3f 90 00 00 00 00 00     .........?......
    33eb:	00 1f d5 fb 01 e0 00 07 ff ff ff 88 00 00 00 00     ................
    33fb:	00 90 03 02 6f 80 00 00 00 00 00 00 67 07 ff af     ....o.......g...
    340b:	ff 0f 70 00 00 00 00 00 00 0f fb ef 01 e0 00 05     ..p.............
    341b:	ff fa ff 89 c1 00 00 00 00 7a 10 40 bc 80 00 00     .........z.@....
    342b:	00 00 00 00 1f fc 07 af 83 ff c0 00 00 00 00 00     ................
    343b:	e0 2f ff d0 0f e0 00 07 ff ff ff 7c 00 00 00 00     ./.........|....
    344b:	00 48 00 3e 39 ff af 3f 00 00 00 00 07 e2 fb ac     .H.>9..?........
    345b:	d0 3e 00 00 00 00 00 00 08 ff fe 00 03 80 00 07     .>..............
    346b:	ff ff ff 70 01 00 00 00 00 7c 06 00 7b 8d f9 a0     ...p.....|..{...
    347b:	f8 00 00 00 07 85 db 8e bd 0f 00 00 00 00 00 00     ................
    348b:	00 33 f9 48 07 80 00 07 ff fe 7f f0 00 00 00 00     .3.H............
    349b:	00 1e 00 00 77 f0 00 f5 1f 00 00 00 0e 1f 25 8f     ....w.........%.
    34ab:	67 c7 80 00 00 00 00 05 ff f9 fd 87 cf 00 00 07     g...............
    34bb:	ff ff ff ff f0 00 00 00 00 16 00 36 7c a6 00 c3     ...........6|...
    34cb:	3d e0 00 00 17 f0 e7 45 30 7f 80 00 00 00 00 7f     =......E0.......
    34db:	ff ff f5 00 3f 00 00 07 ff ff ff f0 bf f0 00 00     ....?...........
    34eb:	00 0c 06 03 bd 59 00 c4 f7 b0 00 00 0f c9 8b 54     .....Y.........T
    34fb:	8c 3f 40 00 00 00 07 ff ff ff ff fc fc 00 00 03     .?@.............
    350b:	ff ff df fe 7e ff 00 00 00 03 e0 9f f0 b4 42 71     ....~.........Bq
    351b:	dd 78 00 00 1c 13 1a 44 86 41 40 00 00 00 6f ff     .x.....D.A@...o.
    352b:	ff ff fc 0f c0 00 00 03 ff ff ff f3 6f ff e0 00     ............o...
    353b:	00 01 ef e7 c8 5a 20 6d fe 3c 00 00 1e 4e 7a 56     .....Z m.<...NzV
    354b:	d3 93 80 00 00 01 df ff 9f ff df 00 00 00 00 01     ................
    355b:	bf ff f7 ff ff ff fc 00 00 00 00 0f d2 2f 08 03     ............./..
    356b:	3f f8 00 00 0f 30 92 62 62 ef 00 00 00 07 cf fc     ?....0.bb.......
    357b:	ef ff ef c0 00 00 00 00 ff f7 ff ff ff ff ff 00     ................
    358b:	00 00 00 1f c1 16 84 7d ff f8 00 00 0f e0 b6 03     .......}........
    359b:	09 3f 00 00 00 1f 8f ff ff ef d5 f0 00 00 00 00     .?..............
    35ab:	7f 8f fe ff ff ff ff 80 00 00 00 3f 61 09 67 df     ...........?a.g.
    35bb:	63 e0 00 00 0b 85 24 03 2c 0f 00 00 00 3f 9f ff     c.....$.,....?..
    35cb:	ff 6d b8 70 00 00 00 00 30 1f ff 7f ff ff ff e0     .m.p....0.......
    35db:	00 00 00 3c 41 8c ae e7 33 c0 00 00 0f cf d4 03     ...<A...3.......
    35eb:	33 8f 00 00 00 7f 3f ef 6f 79 a6 00 00 00 00 00     3.....?.oy......
    35fb:	00 3f 7f df ff ff ff f0 00 00 00 38 41 0b 77 73     .?.........8A.ws
    360b:	df c0 00 00 03 f9 7c 01 94 fe 00 00 00 bf bf fe     ......|.........
    361b:	ff ef 17 00 00 00 00 00 00 7c ff df ff ff ff f8     .........|......
    362b:	00 00 00 00 40 49 9f 1e ff 80 00 00 00 fc 8c 00     ....@I..........
    363b:	8b f8 00 00 01 ff 1f bd bd ef 13 80 00 00 00 00     ................
    364b:	00 f8 ff ff ff ff ff fc 00 00 00 00 42 34 4d bc     ............B4M.
    365b:	fe 00 00 00 00 ff 98 00 ce f0 00 00 01 ff 37 ed     ..............7.
    366b:	cf f5 09 80 00 00 00 00 00 c3 ff ff ff ff ff fc     ................
    367b:	00 00 00 00 d2 46 a6 af f8 00 00 00 00 7d 38 00     .....F.......}8.
    368b:	cb f0 00 00 01 ff ff 76 3d bb 84 c0 00 00 00 00     .......v=.......
    369b:	00 03 ff ff 7f ff ff f7 00 00 00 00 50 48 4f ff     ............PHO.
    36ab:	c0 00 00 00 00 0f 30 00 6f 80 00 00 00 ff bf a8     ......0.o.......
    36bb:	fb 6e c1 c0 00 00 00 00 00 07 ff ff bf ff ff a7     .n..............
    36cb:	00 00 00 00 62 01 27 5c 00 00 00 00 00 1f f0 00     ....b.'\........
    36db:	7f 80 00 00 00 7f ff f5 db 7e 62 20 00 00 00 00     .........~b ....
    36eb:	00 07 ff ff df ff ec be 00 00 00 00 20 01 17 00     ............ ...
    36fb:	00 00 00 00 00 3d e0 00 3f e0 00 00 00 1f ff c2     .....=..?.......
    370b:	9b de 01 e0 00 00 00 00 00 0f ff ff df fb 66 fc     ..............f.
    371b:	00 00 00 00 60 40 17 00 00 00 00 00 00 3c 00 00     ....`@.......<..
    372b:	01 e0 00 00 00 03 ff ff 9e 4e 21 e0 00 00 00 00     .........N!.....
    373b:	00 0f ff ff df f3 75 f8 00 00 00 00 50 04 89 00     ......u.....P...
    374b:	00 00 00 00 00 3c 00 00 01 e0 00 00 00 00 7f ff     .....<..........
    375b:	1e 48 19 40 00 00 00 00 00 07 ff ff ce fe fb f0     .H.@............
    376b:	00 00 00 00 3c 04 1e 00 00 00 00 00 00 78 00 00     ....<........x..
    377b:	00 f0 00 00 00 00 07 fe 1c c9 0b c0 00 00 00 00     ................
    378b:	00 05 ff ff c7 ff ff 80 00 00 00 00 1b 40 66 00     .............@f.
    379b:	00 00 00 00 00 78 00 00 00 d0 00 00 00 00 00 78     .....x.........x
    37ab:	1d c8 87 c0 00 00 00 00 00 07 ff ff c1 ff 00 00     ................
    37bb:	00 00 00 00 0e f6 f8 00 00 00 00 00 00 58 00 00     .............X..
    37cb:	00 90 00 00 00 00 00 00 1e 88 af 80 00 00 00 00     ................
    37db:	00 03 ff ff 80 00 00 00 00 00 00 00 03 4b 30 00     .............K0.
    37eb:	00 00 00 00 00 48 00 00 00 90 00 00 00 00 00 00     .....H..........
    37fb:	1f 08 07 00 00 00 00 00 00 00 ff ef 80 00 00 00     ................
    380b:	00 00 00 00 00 fb c0 00 00 00 00 00 00 4c 00 00     .............L..
    381b:	00 90 00 00 00 00 00 00 0f 80 5e 00 00 00 00 00     ..........^.....
    382b:	00 00 7f ff 00 00 00 00 00 00 00 00 00 00 00 00     ................
    383b:	00 00 00 00 00 2c 00 00 01 a0 00 00 00 00 00 00     .....,..........
    384b:	07 e9 7c 00 00 00 00 00 00 00 03 f0 00 00 00 00     ..|.............
	...
    3867:	00 38 00 00 00 e0 00 00 00 00 00 00 01 ff f8 00     .8..............
	...
    389b:	00 ff f0 00 00 00 00 00 00 00 00 00 00 00 00 00     ................
	...
    38c3:	00 1f 80 00 00 00 00 00 00 00 00 00 00 00 00 00     ................
	...

00003988 <__ctors_start>:
    3988:	85 3d       	cpi	r24, 0xD5	; 213

0000398a <__ctors_end>:
    398a:	95 3d       	cpi	r25, 0xD5	; 213

0000398c <__dtors_end>:
    398c:	11 24       	eor	r1, r1
    398e:	1f be       	out	0x3f, r1	; 63
    3990:	cf ef       	ldi	r28, 0xFF	; 255
    3992:	d0 e1       	ldi	r29, 0x10	; 16
    3994:	de bf       	out	0x3e, r29	; 62
    3996:	cd bf       	out	0x3d, r28	; 61

00003998 <__do_copy_data>:
    3998:	13 e0       	ldi	r17, 0x03	; 3
    399a:	a0 e0       	ldi	r26, 0x00	; 0
    399c:	b1 e0       	ldi	r27, 0x01	; 1
    399e:	e4 ec       	ldi	r30, 0xC4	; 196
    39a0:	fa e8       	ldi	r31, 0x8A	; 138
    39a2:	00 e0       	ldi	r16, 0x00	; 0
    39a4:	0b bf       	out	0x3b, r16	; 59
    39a6:	02 c0       	rjmp	.+4      	; 0x39ac <__do_copy_data+0x14>
    39a8:	07 90       	elpm	r0, Z+
    39aa:	0d 92       	st	X+, r0
    39ac:	a6 30       	cpi	r26, 0x06	; 6
    39ae:	b1 07       	cpc	r27, r17
    39b0:	d9 f7       	brne	.-10     	; 0x39a8 <__do_copy_data+0x10>

000039b2 <__do_clear_bss>:
    39b2:	24 e0       	ldi	r18, 0x04	; 4
    39b4:	a6 e0       	ldi	r26, 0x06	; 6
    39b6:	b3 e0       	ldi	r27, 0x03	; 3
    39b8:	01 c0       	rjmp	.+2      	; 0x39bc <.do_clear_bss_start>

000039ba <.do_clear_bss_loop>:
    39ba:	1d 92       	st	X+, r1

000039bc <.do_clear_bss_start>:
    39bc:	ab 39       	cpi	r26, 0x9B	; 155
    39be:	b2 07       	cpc	r27, r18
    39c0:	e1 f7       	brne	.-8      	; 0x39ba <.do_clear_bss_loop>

000039c2 <__do_global_ctors>:
    39c2:	1c e1       	ldi	r17, 0x1C	; 28
    39c4:	c5 ec       	ldi	r28, 0xC5	; 197
    39c6:	dc e1       	ldi	r29, 0x1C	; 28
    39c8:	04 c0       	rjmp	.+8      	; 0x39d2 <__do_global_ctors+0x10>
    39ca:	21 97       	sbiw	r28, 0x01	; 1
    39cc:	fe 01       	movw	r30, r28
    39ce:	0e 94 cb 41 	call	0x8396	; 0x8396 <__tablejump2__>
    39d2:	c4 3c       	cpi	r28, 0xC4	; 196
    39d4:	d1 07       	cpc	r29, r17
    39d6:	c9 f7       	brne	.-14     	; 0x39ca <__do_global_ctors+0x8>
    39d8:	0e 94 6e 3f 	call	0x7edc	; 0x7edc <main>
    39dc:	0c 94 56 45 	jmp	0x8aac	; 0x8aac <__do_global_dtors>

000039e0 <__bad_interrupt>:
    39e0:	0c 94 00 00 	jmp	0	; 0x0 <__vectors>

000039e4 <_ZN16class_GraphBasic8SetPixelEiih>:
//	| INPUT   :  px,py coords at radius with pen					                |
//	| OUTPUT  :                                                                     |
//	| REMARKS : using Bresenham algorithm                       	                |
//	+-------------------------------------------------------------------------------+
void class_GraphBasic::CircleIntern(int px,int py,int radius,Pen pen,Pixel pixel)
{
    39e4:	08 95       	ret

000039e6 <_ZN16class_GraphBasic8GetPixelEii>:
    39e6:	80 e0       	ldi	r24, 0x00	; 0
    39e8:	08 95       	ret

000039ea <_ZN16class_GraphBasic12DrawHorzLineEiii9_enum_Pen>:
    39ea:	08 95       	ret

000039ec <_ZN16class_GraphBasic12UnInitializeEv>:
    39ec:	8f b7       	in	r24, 0x3f	; 63
    39ee:	f8 94       	cli
    39f0:	8f bf       	out	0x3f, r24	; 63
    39f2:	08 95       	ret

000039f4 <_ZN16class_GraphBasicC1Eiiii>:
    39f4:	0f 93       	push	r16
    39f6:	1f 93       	push	r17
    39f8:	fc 01       	movw	r30, r24
    39fa:	80 e1       	ldi	r24, 0x10	; 16
    39fc:	91 e0       	ldi	r25, 0x01	; 1
    39fe:	91 83       	std	Z+1, r25	; 0x01
    3a00:	80 83       	st	Z, r24
    3a02:	13 82       	std	Z+3, r1	; 0x03
    3a04:	12 82       	std	Z+2, r1	; 0x02
    3a06:	81 e0       	ldi	r24, 0x01	; 1
    3a08:	90 e0       	ldi	r25, 0x00	; 0
    3a0a:	95 83       	std	Z+5, r25	; 0x05
    3a0c:	84 83       	std	Z+4, r24	; 0x04
    3a0e:	97 83       	std	Z+7, r25	; 0x07
    3a10:	86 83       	std	Z+6, r24	; 0x06
    3a12:	11 86       	std	Z+9, r1	; 0x09
    3a14:	10 86       	std	Z+8, r1	; 0x08
    3a16:	13 86       	std	Z+11, r1	; 0x0b
    3a18:	12 86       	std	Z+10, r1	; 0x0a
    3a1a:	95 87       	std	Z+13, r25	; 0x0d
    3a1c:	84 87       	std	Z+12, r24	; 0x0c
    3a1e:	97 87       	std	Z+15, r25	; 0x0f
    3a20:	86 87       	std	Z+14, r24	; 0x0e
    3a22:	8f b7       	in	r24, 0x3f	; 63
    3a24:	f8 94       	cli
    3a26:	75 83       	std	Z+5, r23	; 0x05
    3a28:	64 83       	std	Z+4, r22	; 0x04
    3a2a:	57 83       	std	Z+7, r21	; 0x07
    3a2c:	46 83       	std	Z+6, r20	; 0x06
    3a2e:	35 87       	std	Z+13, r19	; 0x0d
    3a30:	24 87       	std	Z+12, r18	; 0x0c
    3a32:	17 87       	std	Z+15, r17	; 0x0f
    3a34:	06 87       	std	Z+14, r16	; 0x0e
    3a36:	8f bf       	out	0x3f, r24	; 63
    3a38:	1f 91       	pop	r17
    3a3a:	0f 91       	pop	r16
    3a3c:	08 95       	ret

00003a3e <_ZN16class_GraphBasicD1Ev>:
    3a3e:	cf 93       	push	r28
    3a40:	20 e1       	ldi	r18, 0x10	; 16
    3a42:	31 e0       	ldi	r19, 0x01	; 1
    3a44:	fc 01       	movw	r30, r24
    3a46:	31 83       	std	Z+1, r19	; 0x01
    3a48:	20 83       	st	Z, r18
    3a4a:	cf b7       	in	r28, 0x3f	; 63
    3a4c:	f8 94       	cli
    3a4e:	ce df       	rcall	.-100    	; 0x39ec <_ZN16class_GraphBasic12UnInitializeEv>
    3a50:	cf bf       	out	0x3f, r28	; 63
    3a52:	cf 91       	pop	r28
    3a54:	08 95       	ret

00003a56 <_ZN16class_GraphBasic11DrawBoxFullEiiii9_enum_Pen>:
    3a56:	6f 92       	push	r6
    3a58:	7f 92       	push	r7
    3a5a:	8f 92       	push	r8
    3a5c:	9f 92       	push	r9
    3a5e:	af 92       	push	r10
    3a60:	bf 92       	push	r11
    3a62:	cf 92       	push	r12
    3a64:	df 92       	push	r13
    3a66:	ef 92       	push	r14
    3a68:	ff 92       	push	r15
    3a6a:	0f 93       	push	r16
    3a6c:	1f 93       	push	r17
    3a6e:	cf 93       	push	r28
    3a70:	df 93       	push	r29
    3a72:	5c 01       	movw	r10, r24
    3a74:	4b 01       	movw	r8, r22
    3a76:	ea 01       	movw	r28, r20
    3a78:	39 01       	movw	r6, r18
    3a7a:	68 01       	movw	r12, r16
    3a7c:	04 17       	cp	r16, r20
    3a7e:	15 07       	cpc	r17, r21
    3a80:	24 f4       	brge	.+8      	; 0x3a8a <_ZN16class_GraphBasic11DrawBoxFullEiiii9_enum_Pen+0x34>
    3a82:	8d 2f       	mov	r24, r29
    3a84:	e8 01       	movw	r28, r16
    3a86:	c4 2e       	mov	r12, r20
    3a88:	d8 2e       	mov	r13, r24
    3a8a:	d7 ff       	sbrs	r29, 7
    3a8c:	02 c0       	rjmp	.+4      	; 0x3a92 <_ZN16class_GraphBasic11DrawBoxFullEiiii9_enum_Pen+0x3c>
    3a8e:	d7 fc       	sbrc	r13, 7
    3a90:	1c c0       	rjmp	.+56     	; 0x3aca <_ZN16class_GraphBasic11DrawBoxFullEiiii9_enum_Pen+0x74>
    3a92:	d5 01       	movw	r26, r10
    3a94:	1e 96       	adiw	r26, 0x0e	; 14
    3a96:	8d 91       	ld	r24, X+
    3a98:	9c 91       	ld	r25, X
    3a9a:	1f 97       	sbiw	r26, 0x0f	; 15
    3a9c:	c8 17       	cp	r28, r24
    3a9e:	d9 07       	cpc	r29, r25
    3aa0:	1c f0       	brlt	.+6      	; 0x3aa8 <_ZN16class_GraphBasic11DrawBoxFullEiiii9_enum_Pen+0x52>
    3aa2:	c8 16       	cp	r12, r24
    3aa4:	d9 06       	cpc	r13, r25
    3aa6:	8c f4       	brge	.+34     	; 0x3aca <_ZN16class_GraphBasic11DrawBoxFullEiiii9_enum_Pen+0x74>
    3aa8:	cc 16       	cp	r12, r28
    3aaa:	dd 06       	cpc	r13, r29
    3aac:	74 f0       	brlt	.+28     	; 0x3aca <_ZN16class_GraphBasic11DrawBoxFullEiiii9_enum_Pen+0x74>
    3aae:	d5 01       	movw	r26, r10
    3ab0:	ed 91       	ld	r30, X+
    3ab2:	fc 91       	ld	r31, X
    3ab4:	01 90       	ld	r0, Z+
    3ab6:	f0 81       	ld	r31, Z
    3ab8:	e0 2d       	mov	r30, r0
    3aba:	87 01       	movw	r16, r14
    3abc:	93 01       	movw	r18, r6
    3abe:	a4 01       	movw	r20, r8
    3ac0:	be 01       	movw	r22, r28
    3ac2:	c5 01       	movw	r24, r10
    3ac4:	09 95       	icall
    3ac6:	21 96       	adiw	r28, 0x01	; 1
    3ac8:	ef cf       	rjmp	.-34     	; 0x3aa8 <_ZN16class_GraphBasic11DrawBoxFullEiiii9_enum_Pen+0x52>
    3aca:	df 91       	pop	r29
    3acc:	cf 91       	pop	r28
    3ace:	1f 91       	pop	r17
    3ad0:	0f 91       	pop	r16
    3ad2:	ff 90       	pop	r15
    3ad4:	ef 90       	pop	r14
    3ad6:	df 90       	pop	r13
    3ad8:	cf 90       	pop	r12
    3ada:	bf 90       	pop	r11
    3adc:	af 90       	pop	r10
    3ade:	9f 90       	pop	r9
    3ae0:	8f 90       	pop	r8
    3ae2:	7f 90       	pop	r7
    3ae4:	6f 90       	pop	r6
    3ae6:	08 95       	ret

00003ae8 <_ZN16class_GraphBasic8DrawLineEiiii9_enum_Pen>:
    3ae8:	2f 92       	push	r2
    3aea:	3f 92       	push	r3
    3aec:	4f 92       	push	r4
    3aee:	5f 92       	push	r5
    3af0:	6f 92       	push	r6
    3af2:	7f 92       	push	r7
    3af4:	8f 92       	push	r8
    3af6:	9f 92       	push	r9
    3af8:	af 92       	push	r10
    3afa:	bf 92       	push	r11
    3afc:	cf 92       	push	r12
    3afe:	df 92       	push	r13
    3b00:	ef 92       	push	r14
    3b02:	ff 92       	push	r15
    3b04:	0f 93       	push	r16
    3b06:	1f 93       	push	r17
    3b08:	cf 93       	push	r28
    3b0a:	df 93       	push	r29
    3b0c:	cd b7       	in	r28, 0x3d	; 61
    3b0e:	de b7       	in	r29, 0x3e	; 62
    3b10:	28 97       	sbiw	r28, 0x08	; 8
    3b12:	0f b6       	in	r0, 0x3f	; 63
    3b14:	f8 94       	cli
    3b16:	de bf       	out	0x3e, r29	; 62
    3b18:	0f be       	out	0x3f, r0	; 63
    3b1a:	cd bf       	out	0x3d, r28	; 61
    3b1c:	4c 01       	movw	r8, r24
    3b1e:	78 87       	std	Y+8, r23	; 0x08
    3b20:	6f 83       	std	Y+7, r22	; 0x07
    3b22:	6a 01       	movw	r12, r20
    3b24:	b8 01       	movw	r22, r16
    3b26:	dc 01       	movw	r26, r24
    3b28:	19 96       	adiw	r26, 0x09	; 9
    3b2a:	3c 93       	st	X, r19
    3b2c:	2e 93       	st	-X, r18
    3b2e:	18 97       	sbiw	r26, 0x08	; 8
    3b30:	1b 96       	adiw	r26, 0x0b	; 11
    3b32:	1c 93       	st	X, r17
    3b34:	0e 93       	st	-X, r16
    3b36:	1a 97       	sbiw	r26, 0x0a	; 10
    3b38:	89 01       	movw	r16, r18
    3b3a:	ef 81       	ldd	r30, Y+7	; 0x07
    3b3c:	f8 85       	ldd	r31, Y+8	; 0x08
    3b3e:	0e 1b       	sub	r16, r30
    3b40:	1f 0b       	sbc	r17, r31
    3b42:	f8 01       	movw	r30, r16
    3b44:	17 ff       	sbrs	r17, 7
    3b46:	04 c0       	rjmp	.+8      	; 0x3b50 <_ZN16class_GraphBasic8DrawLineEiiii9_enum_Pen+0x68>
    3b48:	ee 27       	eor	r30, r30
    3b4a:	ff 27       	eor	r31, r31
    3b4c:	e0 1b       	sub	r30, r16
    3b4e:	f1 0b       	sbc	r31, r17
    3b50:	af 01       	movw	r20, r30
    3b52:	db 01       	movw	r26, r22
    3b54:	ac 19       	sub	r26, r12
    3b56:	bd 09       	sbc	r27, r13
    3b58:	cd 01       	movw	r24, r26
    3b5a:	b7 ff       	sbrs	r27, 7
    3b5c:	04 c0       	rjmp	.+8      	; 0x3b66 <_ZN16class_GraphBasic8DrawLineEiiii9_enum_Pen+0x7e>
    3b5e:	88 27       	eor	r24, r24
    3b60:	99 27       	eor	r25, r25
    3b62:	8a 1b       	sub	r24, r26
    3b64:	9b 0b       	sbc	r25, r27
    3b66:	e8 17       	cp	r30, r24
    3b68:	f9 07       	cpc	r31, r25
    3b6a:	4c f0       	brlt	.+18     	; 0x3b7e <_ZN16class_GraphBasic8DrawLineEiiii9_enum_Pen+0x96>
    3b6c:	a1 2c       	mov	r10, r1
    3b6e:	b1 2c       	mov	r11, r1
    3b70:	01 15       	cp	r16, r1
    3b72:	11 05       	cpc	r17, r1
    3b74:	b1 f0       	breq	.+44     	; 0x3ba2 <_ZN16class_GraphBasic8DrawLineEiiii9_enum_Pen+0xba>
    3b76:	64 f4       	brge	.+24     	; 0x3b90 <_ZN16class_GraphBasic8DrawLineEiiii9_enum_Pen+0xa8>
    3b78:	0f ef       	ldi	r16, 0xFF	; 255
    3b7a:	1f ef       	ldi	r17, 0xFF	; 255
    3b7c:	14 c0       	rjmp	.+40     	; 0x3ba6 <_ZN16class_GraphBasic8DrawLineEiiii9_enum_Pen+0xbe>
    3b7e:	ac 01       	movw	r20, r24
    3b80:	cf 01       	movw	r24, r30
    3b82:	10 97       	sbiw	r26, 0x00	; 0
    3b84:	41 f0       	breq	.+16     	; 0x3b96 <_ZN16class_GraphBasic8DrawLineEiiii9_enum_Pen+0xae>
    3b86:	54 f4       	brge	.+20     	; 0x3b9c <_ZN16class_GraphBasic8DrawLineEiiii9_enum_Pen+0xb4>
    3b88:	aa 24       	eor	r10, r10
    3b8a:	aa 94       	dec	r10
    3b8c:	ba 2c       	mov	r11, r10
    3b8e:	09 c0       	rjmp	.+18     	; 0x3ba2 <_ZN16class_GraphBasic8DrawLineEiiii9_enum_Pen+0xba>
    3b90:	01 e0       	ldi	r16, 0x01	; 1
    3b92:	10 e0       	ldi	r17, 0x00	; 0
    3b94:	08 c0       	rjmp	.+16     	; 0x3ba6 <_ZN16class_GraphBasic8DrawLineEiiii9_enum_Pen+0xbe>
    3b96:	a1 2c       	mov	r10, r1
    3b98:	b1 2c       	mov	r11, r1
    3b9a:	03 c0       	rjmp	.+6      	; 0x3ba2 <_ZN16class_GraphBasic8DrawLineEiiii9_enum_Pen+0xba>
    3b9c:	aa 24       	eor	r10, r10
    3b9e:	a3 94       	inc	r10
    3ba0:	b1 2c       	mov	r11, r1
    3ba2:	00 e0       	ldi	r16, 0x00	; 0
    3ba4:	10 e0       	ldi	r17, 0x00	; 0
    3ba6:	af 81       	ldd	r26, Y+7	; 0x07
    3ba8:	b8 85       	ldd	r27, Y+8	; 0x08
    3baa:	2a 17       	cp	r18, r26
    3bac:	3b 07       	cpc	r19, r27
    3bae:	2c f0       	brlt	.+10     	; 0x3bba <_ZN16class_GraphBasic8DrawLineEiiii9_enum_Pen+0xd2>
    3bb0:	e1 e0       	ldi	r30, 0x01	; 1
    3bb2:	f0 e0       	ldi	r31, 0x00	; 0
    3bb4:	fa 83       	std	Y+2, r31	; 0x02
    3bb6:	e9 83       	std	Y+1, r30	; 0x01
    3bb8:	04 c0       	rjmp	.+8      	; 0x3bc2 <_ZN16class_GraphBasic8DrawLineEiiii9_enum_Pen+0xda>
    3bba:	2f ef       	ldi	r18, 0xFF	; 255
    3bbc:	3f ef       	ldi	r19, 0xFF	; 255
    3bbe:	3a 83       	std	Y+2, r19	; 0x02
    3bc0:	29 83       	std	Y+1, r18	; 0x01
    3bc2:	6c 15       	cp	r22, r12
    3bc4:	7d 05       	cpc	r23, r13
    3bc6:	2c f0       	brlt	.+10     	; 0x3bd2 <_ZN16class_GraphBasic8DrawLineEiiii9_enum_Pen+0xea>
    3bc8:	a1 e0       	ldi	r26, 0x01	; 1
    3bca:	b0 e0       	ldi	r27, 0x00	; 0
    3bcc:	bc 83       	std	Y+4, r27	; 0x04
    3bce:	ab 83       	std	Y+3, r26	; 0x03
    3bd0:	04 c0       	rjmp	.+8      	; 0x3bda <_ZN16class_GraphBasic8DrawLineEiiii9_enum_Pen+0xf2>
    3bd2:	ef ef       	ldi	r30, 0xFF	; 255
    3bd4:	ff ef       	ldi	r31, 0xFF	; 255
    3bd6:	fc 83       	std	Y+4, r31	; 0x04
    3bd8:	eb 83       	std	Y+3, r30	; 0x03
    3bda:	1c 01       	movw	r2, r24
    3bdc:	22 0c       	add	r2, r2
    3bde:	33 1c       	adc	r3, r3
    3be0:	31 01       	movw	r6, r2
    3be2:	64 1a       	sub	r6, r20
    3be4:	75 0a       	sbc	r7, r21
    3be6:	84 1b       	sub	r24, r20
    3be8:	95 0b       	sbc	r25, r21
    3bea:	9c 01       	movw	r18, r24
    3bec:	22 0f       	add	r18, r18
    3bee:	33 1f       	adc	r19, r19
    3bf0:	3e 83       	std	Y+6, r19	; 0x06
    3bf2:	2d 83       	std	Y+5, r18	; 0x05
    3bf4:	27 01       	movw	r4, r14
    3bf6:	7a 01       	movw	r14, r20
    3bf8:	44 0c       	add	r4, r4
    3bfa:	55 1c       	adc	r5, r5
    3bfc:	85 2d       	mov	r24, r5
    3bfe:	99 27       	eor	r25, r25
    3c00:	48 2a       	or	r4, r24
    3c02:	59 2a       	or	r5, r25
    3c04:	d4 01       	movw	r26, r8
    3c06:	ed 91       	ld	r30, X+
    3c08:	fc 91       	ld	r31, X
    3c0a:	02 80       	ldd	r0, Z+2	; 0x02
    3c0c:	f3 81       	ldd	r31, Z+3	; 0x03
    3c0e:	e0 2d       	mov	r30, r0
    3c10:	24 2d       	mov	r18, r4
    3c12:	a6 01       	movw	r20, r12
    3c14:	6f 81       	ldd	r22, Y+7	; 0x07
    3c16:	78 85       	ldd	r23, Y+8	; 0x08
    3c18:	c4 01       	movw	r24, r8
    3c1a:	09 95       	icall
    3c1c:	ef 81       	ldd	r30, Y+7	; 0x07
    3c1e:	f8 85       	ldd	r31, Y+8	; 0x08
    3c20:	16 14       	cp	r1, r6
    3c22:	17 04       	cpc	r1, r7
    3c24:	7c f4       	brge	.+30     	; 0x3c44 <_ZN16class_GraphBasic8DrawLineEiiii9_enum_Pen+0x15c>
    3c26:	29 81       	ldd	r18, Y+1	; 0x01
    3c28:	3a 81       	ldd	r19, Y+2	; 0x02
    3c2a:	e2 0f       	add	r30, r18
    3c2c:	f3 1f       	adc	r31, r19
    3c2e:	f8 87       	std	Y+8, r31	; 0x08
    3c30:	ef 83       	std	Y+7, r30	; 0x07
    3c32:	8b 81       	ldd	r24, Y+3	; 0x03
    3c34:	9c 81       	ldd	r25, Y+4	; 0x04
    3c36:	c8 0e       	add	r12, r24
    3c38:	d9 1e       	adc	r13, r25
    3c3a:	ad 81       	ldd	r26, Y+5	; 0x05
    3c3c:	be 81       	ldd	r27, Y+6	; 0x06
    3c3e:	6a 0e       	add	r6, r26
    3c40:	7b 1e       	adc	r7, r27
    3c42:	08 c0       	rjmp	.+16     	; 0x3c54 <_ZN16class_GraphBasic8DrawLineEiiii9_enum_Pen+0x16c>
    3c44:	e0 0f       	add	r30, r16
    3c46:	f1 1f       	adc	r31, r17
    3c48:	f8 87       	std	Y+8, r31	; 0x08
    3c4a:	ef 83       	std	Y+7, r30	; 0x07
    3c4c:	ca 0c       	add	r12, r10
    3c4e:	db 1c       	adc	r13, r11
    3c50:	62 0c       	add	r6, r2
    3c52:	73 1c       	adc	r7, r3
    3c54:	f1 e0       	ldi	r31, 0x01	; 1
    3c56:	ef 1a       	sub	r14, r31
    3c58:	f1 08       	sbc	r15, r1
    3c5a:	70 f6       	brcc	.-100    	; 0x3bf8 <_ZN16class_GraphBasic8DrawLineEiiii9_enum_Pen+0x110>
    3c5c:	28 96       	adiw	r28, 0x08	; 8
    3c5e:	0f b6       	in	r0, 0x3f	; 63
    3c60:	f8 94       	cli
    3c62:	de bf       	out	0x3e, r29	; 62
    3c64:	0f be       	out	0x3f, r0	; 63
    3c66:	cd bf       	out	0x3d, r28	; 61
    3c68:	df 91       	pop	r29
    3c6a:	cf 91       	pop	r28
    3c6c:	1f 91       	pop	r17
    3c6e:	0f 91       	pop	r16
    3c70:	ff 90       	pop	r15
    3c72:	ef 90       	pop	r14
    3c74:	df 90       	pop	r13
    3c76:	cf 90       	pop	r12
    3c78:	bf 90       	pop	r11
    3c7a:	af 90       	pop	r10
    3c7c:	9f 90       	pop	r9
    3c7e:	8f 90       	pop	r8
    3c80:	7f 90       	pop	r7
    3c82:	6f 90       	pop	r6
    3c84:	5f 90       	pop	r5
    3c86:	4f 90       	pop	r4
    3c88:	3f 90       	pop	r3
    3c8a:	2f 90       	pop	r2
    3c8c:	08 95       	ret

00003c8e <_ZN16class_GraphBasic12DrawVertLineEiii9_enum_Pen>:
    3c8e:	ef 92       	push	r14
    3c90:	ff 92       	push	r15
    3c92:	0f 93       	push	r16
    3c94:	1f 93       	push	r17
    3c96:	78 01       	movw	r14, r16
    3c98:	89 01       	movw	r16, r18
    3c9a:	9b 01       	movw	r18, r22
    3c9c:	25 df       	rcall	.-438    	; 0x3ae8 <_ZN16class_GraphBasic8DrawLineEiiii9_enum_Pen>
    3c9e:	1f 91       	pop	r17
    3ca0:	0f 91       	pop	r16
    3ca2:	ff 90       	pop	r15
    3ca4:	ef 90       	pop	r14
    3ca6:	08 95       	ret

00003ca8 <_ZN16class_GraphBasic7DrawBoxEiiii9_enum_Penb>:
    3ca8:	2f 92       	push	r2
    3caa:	3f 92       	push	r3
    3cac:	4f 92       	push	r4
    3cae:	5f 92       	push	r5
    3cb0:	6f 92       	push	r6
    3cb2:	7f 92       	push	r7
    3cb4:	8f 92       	push	r8
    3cb6:	9f 92       	push	r9
    3cb8:	af 92       	push	r10
    3cba:	bf 92       	push	r11
    3cbc:	cf 92       	push	r12
    3cbe:	df 92       	push	r13
    3cc0:	ef 92       	push	r14
    3cc2:	ff 92       	push	r15
    3cc4:	0f 93       	push	r16
    3cc6:	1f 93       	push	r17
    3cc8:	cf 93       	push	r28
    3cca:	df 93       	push	r29
    3ccc:	00 d0       	rcall	.+0      	; 0x3cce <_ZN16class_GraphBasic7DrawBoxEiiii9_enum_Penb+0x26>
    3cce:	1f 92       	push	r1
    3cd0:	cd b7       	in	r28, 0x3d	; 61
    3cd2:	de b7       	in	r29, 0x3e	; 62
    3cd4:	9b 83       	std	Y+3, r25	; 0x03
    3cd6:	8a 83       	std	Y+2, r24	; 0x02
    3cd8:	4b 01       	movw	r8, r22
    3cda:	1a 01       	movw	r2, r20
    3cdc:	59 01       	movw	r10, r18
    3cde:	28 01       	movw	r4, r16
    3ce0:	37 01       	movw	r6, r14
    3ce2:	c9 82       	std	Y+1, r12	; 0x01
    3ce4:	dc 01       	movw	r26, r24
    3ce6:	19 96       	adiw	r26, 0x09	; 9
    3ce8:	3c 93       	st	X, r19
    3cea:	2e 93       	st	-X, r18
    3cec:	18 97       	sbiw	r26, 0x08	; 8
    3cee:	1b 96       	adiw	r26, 0x0b	; 11
    3cf0:	1c 93       	st	X, r17
    3cf2:	0e 93       	st	-X, r16
    3cf4:	1a 97       	sbiw	r26, 0x0a	; 10
    3cf6:	12 96       	adiw	r26, 0x02	; 2
    3cf8:	cd 90       	ld	r12, X+
    3cfa:	dc 90       	ld	r13, X
    3cfc:	13 97       	sbiw	r26, 0x03	; 3
    3cfe:	b1 e0       	ldi	r27, 0x01	; 1
    3d00:	cb 16       	cp	r12, r27
    3d02:	d1 04       	cpc	r13, r1
    3d04:	09 f4       	brne	.+2      	; 0x3d08 <_ZN16class_GraphBasic7DrawBoxEiiii9_enum_Penb+0x60>
    3d06:	56 c0       	rjmp	.+172    	; 0x3db4 <_ZN16class_GraphBasic7DrawBoxEiiii9_enum_Penb+0x10c>
    3d08:	e2 e0       	ldi	r30, 0x02	; 2
    3d0a:	ce 16       	cp	r12, r30
    3d0c:	d1 04       	cpc	r13, r1
    3d0e:	31 f0       	breq	.+12     	; 0x3d1c <_ZN16class_GraphBasic7DrawBoxEiiii9_enum_Penb+0x74>
    3d10:	c1 14       	cp	r12, r1
    3d12:	d1 04       	cpc	r13, r1
    3d14:	09 f0       	breq	.+2      	; 0x3d18 <_ZN16class_GraphBasic7DrawBoxEiiii9_enum_Penb+0x70>
    3d16:	51 c0       	rjmp	.+162    	; 0x3dba <_ZN16class_GraphBasic7DrawBoxEiiii9_enum_Penb+0x112>
    3d18:	dc 01       	movw	r26, r24
    3d1a:	24 c0       	rjmp	.+72     	; 0x3d64 <_ZN16class_GraphBasic7DrawBoxEiiii9_enum_Penb+0xbc>
    3d1c:	26 17       	cp	r18, r22
    3d1e:	37 07       	cpc	r19, r23
    3d20:	24 f4       	brge	.+8      	; 0x3d2a <_ZN16class_GraphBasic7DrawBoxEiiii9_enum_Penb+0x82>
    3d22:	89 2d       	mov	r24, r9
    3d24:	49 01       	movw	r8, r18
    3d26:	a6 2e       	mov	r10, r22
    3d28:	b8 2e       	mov	r11, r24
    3d2a:	c5 01       	movw	r24, r10
    3d2c:	88 19       	sub	r24, r8
    3d2e:	99 09       	sbc	r25, r9
    3d30:	03 97       	sbiw	r24, 0x03	; 3
    3d32:	84 f0       	brlt	.+32     	; 0x3d54 <_ZN16class_GraphBasic7DrawBoxEiiii9_enum_Penb+0xac>
    3d34:	73 01       	movw	r14, r6
    3d36:	82 01       	movw	r16, r4
    3d38:	01 50       	subi	r16, 0x01	; 1
    3d3a:	11 09       	sbc	r17, r1
    3d3c:	95 01       	movw	r18, r10
    3d3e:	21 50       	subi	r18, 0x01	; 1
    3d40:	31 09       	sbc	r19, r1
    3d42:	a1 01       	movw	r20, r2
    3d44:	4f 5f       	subi	r20, 0xFF	; 255
    3d46:	5f 4f       	sbci	r21, 0xFF	; 255
    3d48:	b4 01       	movw	r22, r8
    3d4a:	6f 5f       	subi	r22, 0xFF	; 255
    3d4c:	7f 4f       	sbci	r23, 0xFF	; 255
    3d4e:	8a 81       	ldd	r24, Y+2	; 0x02
    3d50:	9b 81       	ldd	r25, Y+3	; 0x03
    3d52:	81 de       	rcall	.-766    	; 0x3a56 <_ZN16class_GraphBasic11DrawBoxFullEiiii9_enum_Pen>
    3d54:	b9 81       	ldd	r27, Y+1	; 0x01
    3d56:	bb 23       	and	r27, r27
    3d58:	81 f1       	breq	.+96     	; 0x3dba <_ZN16class_GraphBasic7DrawBoxEiiii9_enum_Penb+0x112>
    3d5a:	ea 81       	ldd	r30, Y+2	; 0x02
    3d5c:	fb 81       	ldd	r31, Y+3	; 0x03
    3d5e:	13 82       	std	Z+3, r1	; 0x03
    3d60:	12 82       	std	Z+2, r1	; 0x02
    3d62:	df 01       	movw	r26, r30
    3d64:	ed 91       	ld	r30, X+
    3d66:	fc 91       	ld	r31, X
    3d68:	11 97       	sbiw	r26, 0x01	; 1
    3d6a:	01 90       	ld	r0, Z+
    3d6c:	f0 81       	ld	r31, Z
    3d6e:	e0 2d       	mov	r30, r0
    3d70:	83 01       	movw	r16, r6
    3d72:	95 01       	movw	r18, r10
    3d74:	a4 01       	movw	r20, r8
    3d76:	b1 01       	movw	r22, r2
    3d78:	cd 01       	movw	r24, r26
    3d7a:	09 95       	icall
    3d7c:	aa 81       	ldd	r26, Y+2	; 0x02
    3d7e:	bb 81       	ldd	r27, Y+3	; 0x03
    3d80:	ed 91       	ld	r30, X+
    3d82:	fc 91       	ld	r31, X
    3d84:	11 97       	sbiw	r26, 0x01	; 1
    3d86:	01 90       	ld	r0, Z+
    3d88:	f0 81       	ld	r31, Z
    3d8a:	e0 2d       	mov	r30, r0
    3d8c:	95 01       	movw	r18, r10
    3d8e:	a4 01       	movw	r20, r8
    3d90:	b2 01       	movw	r22, r4
    3d92:	cd 01       	movw	r24, r26
    3d94:	09 95       	icall
    3d96:	73 01       	movw	r14, r6
    3d98:	82 01       	movw	r16, r4
    3d9a:	94 01       	movw	r18, r8
    3d9c:	a1 01       	movw	r20, r2
    3d9e:	b4 01       	movw	r22, r8
    3da0:	8a 81       	ldd	r24, Y+2	; 0x02
    3da2:	9b 81       	ldd	r25, Y+3	; 0x03
    3da4:	a1 de       	rcall	.-702    	; 0x3ae8 <_ZN16class_GraphBasic8DrawLineEiiii9_enum_Pen>
    3da6:	95 01       	movw	r18, r10
    3da8:	a1 01       	movw	r20, r2
    3daa:	b5 01       	movw	r22, r10
    3dac:	8a 81       	ldd	r24, Y+2	; 0x02
    3dae:	9b 81       	ldd	r25, Y+3	; 0x03
    3db0:	9b de       	rcall	.-714    	; 0x3ae8 <_ZN16class_GraphBasic8DrawLineEiiii9_enum_Pen>
    3db2:	03 c0       	rjmp	.+6      	; 0x3dba <_ZN16class_GraphBasic7DrawBoxEiiii9_enum_Penb+0x112>
    3db4:	8a 81       	ldd	r24, Y+2	; 0x02
    3db6:	9b 81       	ldd	r25, Y+3	; 0x03
    3db8:	4e de       	rcall	.-868    	; 0x3a56 <_ZN16class_GraphBasic11DrawBoxFullEiiii9_enum_Pen>
    3dba:	ea 81       	ldd	r30, Y+2	; 0x02
    3dbc:	fb 81       	ldd	r31, Y+3	; 0x03
    3dbe:	d3 82       	std	Z+3, r13	; 0x03
    3dc0:	c2 82       	std	Z+2, r12	; 0x02
    3dc2:	0f 90       	pop	r0
    3dc4:	0f 90       	pop	r0
    3dc6:	0f 90       	pop	r0
    3dc8:	df 91       	pop	r29
    3dca:	cf 91       	pop	r28
    3dcc:	1f 91       	pop	r17
    3dce:	0f 91       	pop	r16
    3dd0:	ff 90       	pop	r15
    3dd2:	ef 90       	pop	r14
    3dd4:	df 90       	pop	r13
    3dd6:	cf 90       	pop	r12
    3dd8:	bf 90       	pop	r11
    3dda:	af 90       	pop	r10
    3ddc:	9f 90       	pop	r9
    3dde:	8f 90       	pop	r8
    3de0:	7f 90       	pop	r7
    3de2:	6f 90       	pop	r6
    3de4:	5f 90       	pop	r5
    3de6:	4f 90       	pop	r4
    3de8:	3f 90       	pop	r3
    3dea:	2f 90       	pop	r2
    3dec:	08 95       	ret

00003dee <_ZN16class_GraphBasic10DrawLineToEii9_enum_Pen>:
    3dee:	ef 92       	push	r14
    3df0:	ff 92       	push	r15
    3df2:	0f 93       	push	r16
    3df4:	1f 93       	push	r17
    3df6:	fb 01       	movw	r30, r22
    3df8:	8a 01       	movw	r16, r20
    3dfa:	dc 01       	movw	r26, r24
    3dfc:	1a 96       	adiw	r26, 0x0a	; 10
    3dfe:	4d 91       	ld	r20, X+
    3e00:	5c 91       	ld	r21, X
    3e02:	1b 97       	sbiw	r26, 0x0b	; 11
    3e04:	18 96       	adiw	r26, 0x08	; 8
    3e06:	6d 91       	ld	r22, X+
    3e08:	7c 91       	ld	r23, X
    3e0a:	19 97       	sbiw	r26, 0x09	; 9
    3e0c:	79 01       	movw	r14, r18
    3e0e:	9f 01       	movw	r18, r30
    3e10:	6b de       	rcall	.-810    	; 0x3ae8 <_ZN16class_GraphBasic8DrawLineEiiii9_enum_Pen>
    3e12:	1f 91       	pop	r17
    3e14:	0f 91       	pop	r16
    3e16:	ff 90       	pop	r15
    3e18:	ef 90       	pop	r14
    3e1a:	08 95       	ret

00003e1c <_ZN16class_GraphBasic6PlotP4Eiiii9_enum_Penh>:
//	| OUTPUT  :                                                                     |
//	| REMARKS :                                              		                |
//	+-------------------------------------------------------------------------------+

void class_GraphBasic::PlotP4(int xc,int yc,int x,int y,Pen pen,Pixel pixel)
{
    3e1c:	4f 92       	push	r4
    3e1e:	5f 92       	push	r5
    3e20:	6f 92       	push	r6
    3e22:	7f 92       	push	r7
    3e24:	8f 92       	push	r8
    3e26:	9f 92       	push	r9
    3e28:	af 92       	push	r10
    3e2a:	bf 92       	push	r11
    3e2c:	cf 92       	push	r12
    3e2e:	df 92       	push	r13
    3e30:	ef 92       	push	r14
    3e32:	ff 92       	push	r15
    3e34:	0f 93       	push	r16
    3e36:	1f 93       	push	r17
    3e38:	cf 93       	push	r28
    3e3a:	df 93       	push	r29
    3e3c:	ec 01       	movw	r28, r24
    3e3e:	4b 01       	movw	r8, r22
    3e40:	5a 01       	movw	r10, r20
    3e42:	29 01       	movw	r4, r18
    3e44:	38 01       	movw	r6, r16
	switch (GetDrawMode())
    3e46:	8a 81       	ldd	r24, Y+2	; 0x02
    3e48:	9b 81       	ldd	r25, Y+3	; 0x03
    3e4a:	00 97       	sbiw	r24, 0x00	; 0
    3e4c:	51 f1       	breq	.+84     	; 0x3ea2 <_ZN16class_GraphBasic6PlotP4Eiiii9_enum_Penh+0x86>
    3e4e:	97 fd       	sbrc	r25, 7
    3e50:	6a c0       	rjmp	.+212    	; 0x3f26 <_ZN16class_GraphBasic6PlotP4Eiiii9_enum_Penh+0x10a>
    3e52:	03 97       	sbiw	r24, 0x03	; 3
    3e54:	0c f0       	brlt	.+2      	; 0x3e58 <_ZN16class_GraphBasic6PlotP4Eiiii9_enum_Penh+0x3c>
    3e56:	67 c0       	rjmp	.+206    	; 0x3f26 <_ZN16class_GraphBasic6PlotP4Eiiii9_enum_Penh+0x10a>
			SetPixel(xc+x,yc-y,pixel);
			SetPixel(xc-x,yc-y,pixel);
		break;
		case DrawMode::SOLID:
		case DrawMode::PATTERN:
			DrawHorzLine(yc+y,xc-x+1,xc+x-1,pen);
    3e58:	6b 01       	movw	r12, r22
    3e5a:	c2 0e       	add	r12, r18
    3e5c:	d3 1e       	adc	r13, r19
    3e5e:	81 e0       	ldi	r24, 0x01	; 1
    3e60:	c8 1a       	sub	r12, r24
    3e62:	d1 08       	sbc	r13, r1
    3e64:	82 1a       	sub	r8, r18
    3e66:	93 0a       	sbc	r9, r19
    3e68:	8f ef       	ldi	r24, 0xFF	; 255
    3e6a:	88 1a       	sub	r8, r24
    3e6c:	98 0a       	sbc	r9, r24
    3e6e:	e8 81       	ld	r30, Y
    3e70:	f9 81       	ldd	r31, Y+1	; 0x01
    3e72:	ba 01       	movw	r22, r20
    3e74:	60 0f       	add	r22, r16
    3e76:	71 1f       	adc	r23, r17
    3e78:	01 90       	ld	r0, Z+
    3e7a:	f0 81       	ld	r31, Z
    3e7c:	e0 2d       	mov	r30, r0
    3e7e:	87 01       	movw	r16, r14
    3e80:	96 01       	movw	r18, r12
    3e82:	a4 01       	movw	r20, r8
    3e84:	ce 01       	movw	r24, r28
    3e86:	09 95       	icall
			DrawHorzLine(yc-y,xc-x+1,xc+x-1,pen);
    3e88:	e8 81       	ld	r30, Y
    3e8a:	f9 81       	ldd	r31, Y+1	; 0x01
    3e8c:	b5 01       	movw	r22, r10
    3e8e:	66 19       	sub	r22, r6
    3e90:	77 09       	sbc	r23, r7
    3e92:	01 90       	ld	r0, Z+
    3e94:	f0 81       	ld	r31, Z
    3e96:	e0 2d       	mov	r30, r0
    3e98:	96 01       	movw	r18, r12
    3e9a:	a4 01       	movw	r20, r8
    3e9c:	ce 01       	movw	r24, r28
    3e9e:	09 95       	icall
		break;
    3ea0:	42 c0       	rjmp	.+132    	; 0x3f26 <_ZN16class_GraphBasic6PlotP4Eiiii9_enum_Penh+0x10a>
void class_GraphBasic::PlotP4(int xc,int yc,int x,int y,Pen pen,Pixel pixel)
{
	switch (GetDrawMode())
	{
		case DrawMode::LINE:
			SetPixel(xc+x,yc+y,pixel);
    3ea2:	8a 01       	movw	r16, r20
    3ea4:	06 0d       	add	r16, r6
    3ea6:	17 1d       	adc	r17, r7
    3ea8:	7b 01       	movw	r14, r22
    3eaa:	e2 0e       	add	r14, r18
    3eac:	f3 1e       	adc	r15, r19
    3eae:	e8 81       	ld	r30, Y
    3eb0:	f9 81       	ldd	r31, Y+1	; 0x01
    3eb2:	02 80       	ldd	r0, Z+2	; 0x02
    3eb4:	f3 81       	ldd	r31, Z+3	; 0x03
    3eb6:	e0 2d       	mov	r30, r0
    3eb8:	2c 2d       	mov	r18, r12
    3eba:	a8 01       	movw	r20, r16
    3ebc:	b7 01       	movw	r22, r14
    3ebe:	ce 01       	movw	r24, r28
    3ec0:	09 95       	icall
			SetPixel(xc-x,yc+y,pixel);
    3ec2:	84 18       	sub	r8, r4
    3ec4:	95 08       	sbc	r9, r5
    3ec6:	e8 81       	ld	r30, Y
    3ec8:	f9 81       	ldd	r31, Y+1	; 0x01
    3eca:	02 80       	ldd	r0, Z+2	; 0x02
    3ecc:	f3 81       	ldd	r31, Z+3	; 0x03
    3ece:	e0 2d       	mov	r30, r0
    3ed0:	2c 2d       	mov	r18, r12
    3ed2:	a8 01       	movw	r20, r16
    3ed4:	b4 01       	movw	r22, r8
    3ed6:	ce 01       	movw	r24, r28
    3ed8:	09 95       	icall
			SetPixel(xc+x,yc-y,pixel);
    3eda:	a6 18       	sub	r10, r6
    3edc:	b7 08       	sbc	r11, r7
    3ede:	e8 81       	ld	r30, Y
    3ee0:	f9 81       	ldd	r31, Y+1	; 0x01
    3ee2:	02 80       	ldd	r0, Z+2	; 0x02
    3ee4:	f3 81       	ldd	r31, Z+3	; 0x03
    3ee6:	e0 2d       	mov	r30, r0
    3ee8:	2c 2d       	mov	r18, r12
    3eea:	a5 01       	movw	r20, r10
    3eec:	b7 01       	movw	r22, r14
    3eee:	ce 01       	movw	r24, r28
    3ef0:	09 95       	icall
			SetPixel(xc-x,yc-y,pixel);
    3ef2:	e8 81       	ld	r30, Y
    3ef4:	f9 81       	ldd	r31, Y+1	; 0x01
    3ef6:	02 80       	ldd	r0, Z+2	; 0x02
    3ef8:	f3 81       	ldd	r31, Z+3	; 0x03
    3efa:	e0 2d       	mov	r30, r0
    3efc:	2c 2d       	mov	r18, r12
    3efe:	a5 01       	movw	r20, r10
    3f00:	b4 01       	movw	r22, r8
    3f02:	ce 01       	movw	r24, r28
		case DrawMode::PATTERN:
			DrawHorzLine(yc+y,xc-x+1,xc+x-1,pen);
			DrawHorzLine(yc-y,xc-x+1,xc+x-1,pen);
		break;
	}
}
    3f04:	df 91       	pop	r29
    3f06:	cf 91       	pop	r28
    3f08:	1f 91       	pop	r17
    3f0a:	0f 91       	pop	r16
    3f0c:	ff 90       	pop	r15
    3f0e:	ef 90       	pop	r14
    3f10:	df 90       	pop	r13
    3f12:	cf 90       	pop	r12
    3f14:	bf 90       	pop	r11
    3f16:	af 90       	pop	r10
    3f18:	9f 90       	pop	r9
    3f1a:	8f 90       	pop	r8
    3f1c:	7f 90       	pop	r7
    3f1e:	6f 90       	pop	r6
    3f20:	5f 90       	pop	r5
    3f22:	4f 90       	pop	r4
	{
		case DrawMode::LINE:
			SetPixel(xc+x,yc+y,pixel);
			SetPixel(xc-x,yc+y,pixel);
			SetPixel(xc+x,yc-y,pixel);
			SetPixel(xc-x,yc-y,pixel);
    3f24:	09 94       	ijmp
		case DrawMode::PATTERN:
			DrawHorzLine(yc+y,xc-x+1,xc+x-1,pen);
			DrawHorzLine(yc-y,xc-x+1,xc+x-1,pen);
		break;
	}
}
    3f26:	df 91       	pop	r29
    3f28:	cf 91       	pop	r28
    3f2a:	1f 91       	pop	r17
    3f2c:	0f 91       	pop	r16
    3f2e:	ff 90       	pop	r15
    3f30:	ef 90       	pop	r14
    3f32:	df 90       	pop	r13
    3f34:	cf 90       	pop	r12
    3f36:	bf 90       	pop	r11
    3f38:	af 90       	pop	r10
    3f3a:	9f 90       	pop	r9
    3f3c:	8f 90       	pop	r8
    3f3e:	7f 90       	pop	r7
    3f40:	6f 90       	pop	r6
    3f42:	5f 90       	pop	r5
    3f44:	4f 90       	pop	r4
    3f46:	08 95       	ret

00003f48 <_ZN16class_GraphBasic17DrawEllipseInternEiiii9_enum_Penh>:
//	| OUTPUT  :                                                                     |
//	| REMARKS : using Bresenham algorithm                       	                |
//	|			pixel defines color of circle border, Pen used in DrawMode::Solid	|
//	+-------------------------------------------------------------------------------+
void class_GraphBasic::DrawEllipseIntern(int xc,int yc, int rx, int ry,Pen pen,Pixel pixel)
{
    3f48:	2f 92       	push	r2
    3f4a:	3f 92       	push	r3
    3f4c:	4f 92       	push	r4
    3f4e:	5f 92       	push	r5
    3f50:	6f 92       	push	r6
    3f52:	7f 92       	push	r7
    3f54:	8f 92       	push	r8
    3f56:	9f 92       	push	r9
    3f58:	af 92       	push	r10
    3f5a:	bf 92       	push	r11
    3f5c:	cf 92       	push	r12
    3f5e:	df 92       	push	r13
    3f60:	ef 92       	push	r14
    3f62:	ff 92       	push	r15
    3f64:	0f 93       	push	r16
    3f66:	1f 93       	push	r17
    3f68:	cf 93       	push	r28
    3f6a:	df 93       	push	r29
    3f6c:	cd b7       	in	r28, 0x3d	; 61
    3f6e:	de b7       	in	r29, 0x3e	; 62
    3f70:	a7 97       	sbiw	r28, 0x27	; 39
    3f72:	0f b6       	in	r0, 0x3f	; 63
    3f74:	f8 94       	cli
    3f76:	de bf       	out	0x3e, r29	; 62
    3f78:	0f be       	out	0x3f, r0	; 63
    3f7a:	cd bf       	out	0x3d, r28	; 61
    3f7c:	9f a3       	std	Y+39, r25	; 0x27
    3f7e:	8e a3       	std	Y+38, r24	; 0x26
    3f80:	7a 8f       	std	Y+26, r23	; 0x1a
    3f82:	69 8f       	std	Y+25, r22	; 0x19
    3f84:	5c 8f       	std	Y+28, r21	; 0x1c
    3f86:	4b 8f       	std	Y+27, r20	; 0x1b
    3f88:	58 01       	movw	r10, r16
    3f8a:	fe 8e       	std	Y+30, r15	; 0x1e
    3f8c:	ed 8e       	std	Y+29, r14	; 0x1d
    3f8e:	cf 8e       	std	Y+31, r12	; 0x1f
	long int rx2=rx*rx,
    3f90:	22 9f       	mul	r18, r18
    3f92:	10 01       	movw	r2, r0
    3f94:	23 9f       	mul	r18, r19
    3f96:	30 0c       	add	r3, r0
    3f98:	30 0c       	add	r3, r0
    3f9a:	11 24       	eor	r1, r1
    3f9c:	91 01       	movw	r18, r2
    3f9e:	03 2c       	mov	r0, r3
    3fa0:	00 0c       	add	r0, r0
    3fa2:	44 0b       	sbc	r20, r20
    3fa4:	55 0b       	sbc	r21, r21
    3fa6:	29 8b       	std	Y+17, r18	; 0x11
    3fa8:	3a 8b       	std	Y+18, r19	; 0x12
    3faa:	4b 8b       	std	Y+19, r20	; 0x13
    3fac:	5c 8b       	std	Y+20, r21	; 0x14
			 ry2=ry*ry,
    3fae:	00 9f       	mul	r16, r16
    3fb0:	a0 01       	movw	r20, r0
    3fb2:	01 9f       	mul	r16, r17
    3fb4:	50 0d       	add	r21, r0
    3fb6:	50 0d       	add	r21, r0
    3fb8:	11 24       	eor	r1, r1
    3fba:	59 a3       	std	Y+33, r21	; 0x21
    3fbc:	48 a3       	std	Y+32, r20	; 0x20
    3fbe:	2a 01       	movw	r4, r20
    3fc0:	55 0f       	add	r21, r21
    3fc2:	66 08       	sbc	r6, r6
    3fc4:	77 08       	sbc	r7, r7
			 tworx2=2*rx2,
    3fc6:	89 89       	ldd	r24, Y+17	; 0x11
    3fc8:	9a 89       	ldd	r25, Y+18	; 0x12
    3fca:	ab 89       	ldd	r26, Y+19	; 0x13
    3fcc:	bc 89       	ldd	r27, Y+20	; 0x14
    3fce:	88 0f       	add	r24, r24
    3fd0:	99 1f       	adc	r25, r25
    3fd2:	aa 1f       	adc	r26, r26
    3fd4:	bb 1f       	adc	r27, r27
    3fd6:	8d 8b       	std	Y+21, r24	; 0x15
    3fd8:	9e 8b       	std	Y+22, r25	; 0x16
    3fda:	af 8b       	std	Y+23, r26	; 0x17
    3fdc:	b8 8f       	std	Y+24, r27	; 0x18
			 twory2=2*ry2,
    3fde:	a3 01       	movw	r20, r6
    3fe0:	92 01       	movw	r18, r4
    3fe2:	22 0f       	add	r18, r18
    3fe4:	33 1f       	adc	r19, r19
    3fe6:	44 1f       	adc	r20, r20
    3fe8:	55 1f       	adc	r21, r21
    3fea:	2a a3       	std	Y+34, r18	; 0x22
    3fec:	3b a3       	std	Y+35, r19	; 0x23
    3fee:	4c a3       	std	Y+36, r20	; 0x24
    3ff0:	5d a3       	std	Y+37, r21	; 0x25
			 p,x=0,y=ry,px=twory2*x,py=tworx2*y;
    3ff2:	c8 01       	movw	r24, r16
    3ff4:	01 2e       	mov	r0, r17
    3ff6:	00 0c       	add	r0, r0
    3ff8:	aa 0b       	sbc	r26, r26
    3ffa:	bb 0b       	sbc	r27, r27
    3ffc:	89 83       	std	Y+1, r24	; 0x01
    3ffe:	9a 83       	std	Y+2, r25	; 0x02
    4000:	ab 83       	std	Y+3, r26	; 0x03
    4002:	bc 83       	std	Y+4, r27	; 0x04
    4004:	2d 89       	ldd	r18, Y+21	; 0x15
    4006:	3e 89       	ldd	r19, Y+22	; 0x16
    4008:	4f 89       	ldd	r20, Y+23	; 0x17
    400a:	58 8d       	ldd	r21, Y+24	; 0x18
    400c:	bc 01       	movw	r22, r24
    400e:	cd 01       	movw	r24, r26
    4010:	0e 94 87 41 	call	0x830e	; 0x830e <__mulsi3>
    4014:	6d 87       	std	Y+13, r22	; 0x0d
    4016:	7e 87       	std	Y+14, r23	; 0x0e
    4018:	8f 87       	std	Y+15, r24	; 0x0f
    401a:	98 8b       	std	Y+16, r25	; 0x10
	
	PlotP4(xc,yc,x,y,pen,pixel);
    401c:	20 e0       	ldi	r18, 0x00	; 0
    401e:	30 e0       	ldi	r19, 0x00	; 0
    4020:	4b 8d       	ldd	r20, Y+27	; 0x1b
    4022:	5c 8d       	ldd	r21, Y+28	; 0x1c
    4024:	69 8d       	ldd	r22, Y+25	; 0x19
    4026:	7a 8d       	ldd	r23, Y+26	; 0x1a
    4028:	8e a1       	ldd	r24, Y+38	; 0x26
    402a:	9f a1       	ldd	r25, Y+39	; 0x27
    402c:	f7 de       	rcall	.-530    	; 0x3e1c <_ZN16class_GraphBasic6PlotP4Eiiii9_enum_Penh>
	//p=(ry2-(rx2*ry)+(0.25*rx2));
	p=(ry2-(rx2*ry)+(rx2>>2));
    402e:	91 01       	movw	r18, r2
    4030:	d5 01       	movw	r26, r10
    4032:	0e 94 d4 41 	call	0x83a8	; 0x83a8 <__mulhisi3>
    4036:	53 01       	movw	r10, r6
    4038:	42 01       	movw	r8, r4
    403a:	86 1a       	sub	r8, r22
    403c:	97 0a       	sbc	r9, r23
    403e:	a8 0a       	sbc	r10, r24
    4040:	b9 0a       	sbc	r11, r25
    4042:	89 89       	ldd	r24, Y+17	; 0x11
    4044:	9a 89       	ldd	r25, Y+18	; 0x12
    4046:	ab 89       	ldd	r26, Y+19	; 0x13
    4048:	bc 89       	ldd	r27, Y+20	; 0x14
    404a:	72 e0       	ldi	r23, 0x02	; 2
    404c:	b5 95       	asr	r27
    404e:	a7 95       	ror	r26
    4050:	97 95       	ror	r25
    4052:	87 95       	ror	r24
    4054:	7a 95       	dec	r23
    4056:	d1 f7       	brne	.-12     	; 0x404c <_ZN16class_GraphBasic17DrawEllipseInternEiiii9_enum_Penh+0x104>
    4058:	88 0e       	add	r8, r24
    405a:	99 1e       	adc	r9, r25
    405c:	aa 1e       	adc	r10, r26
    405e:	bb 1e       	adc	r11, r27
{
	long int rx2=rx*rx,
			 ry2=ry*ry,
			 tworx2=2*rx2,
			 twory2=2*ry2,
			 p,x=0,y=ry,px=twory2*x,py=tworx2*y;
    4060:	19 86       	std	Y+9, r1	; 0x09
    4062:	1a 86       	std	Y+10, r1	; 0x0a
    4064:	1b 86       	std	Y+11, r1	; 0x0b
    4066:	1c 86       	std	Y+12, r1	; 0x0c
    4068:	1d 82       	std	Y+5, r1	; 0x05
    406a:	1e 82       	std	Y+6, r1	; 0x06
    406c:	1f 82       	std	Y+7, r1	; 0x07
    406e:	18 86       	std	Y+8, r1	; 0x08
	
	PlotP4(xc,yc,x,y,pen,pixel);
	//p=(ry2-(rx2*ry)+(0.25*rx2));
	p=(ry2-(rx2*ry)+(rx2>>2));
	while(px<py)
    4070:	29 85       	ldd	r18, Y+9	; 0x09
    4072:	3a 85       	ldd	r19, Y+10	; 0x0a
    4074:	4b 85       	ldd	r20, Y+11	; 0x0b
    4076:	5c 85       	ldd	r21, Y+12	; 0x0c
    4078:	8d 85       	ldd	r24, Y+13	; 0x0d
    407a:	9e 85       	ldd	r25, Y+14	; 0x0e
    407c:	af 85       	ldd	r26, Y+15	; 0x0f
    407e:	b8 89       	ldd	r27, Y+16	; 0x10
    4080:	28 17       	cp	r18, r24
    4082:	39 07       	cpc	r19, r25
    4084:	4a 07       	cpc	r20, r26
    4086:	5b 07       	cpc	r21, r27
    4088:	0c f0       	brlt	.+2      	; 0x408c <_ZN16class_GraphBasic17DrawEllipseInternEiiii9_enum_Penh+0x144>
    408a:	5d c0       	rjmp	.+186    	; 0x4146 <_ZN16class_GraphBasic17DrawEllipseInternEiiii9_enum_Penh+0x1fe>
	{
		x++;
    408c:	2d 81       	ldd	r18, Y+5	; 0x05
    408e:	3e 81       	ldd	r19, Y+6	; 0x06
    4090:	4f 81       	ldd	r20, Y+7	; 0x07
    4092:	58 85       	ldd	r21, Y+8	; 0x08
    4094:	2f 5f       	subi	r18, 0xFF	; 255
    4096:	3f 4f       	sbci	r19, 0xFF	; 255
    4098:	4f 4f       	sbci	r20, 0xFF	; 255
    409a:	5f 4f       	sbci	r21, 0xFF	; 255
    409c:	2d 83       	std	Y+5, r18	; 0x05
    409e:	3e 83       	std	Y+6, r19	; 0x06
    40a0:	4f 83       	std	Y+7, r20	; 0x07
    40a2:	58 87       	std	Y+8, r21	; 0x08
		px+=twory2;
    40a4:	89 85       	ldd	r24, Y+9	; 0x09
    40a6:	9a 85       	ldd	r25, Y+10	; 0x0a
    40a8:	ab 85       	ldd	r26, Y+11	; 0x0b
    40aa:	bc 85       	ldd	r27, Y+12	; 0x0c
    40ac:	2a a1       	ldd	r18, Y+34	; 0x22
    40ae:	3b a1       	ldd	r19, Y+35	; 0x23
    40b0:	4c a1       	ldd	r20, Y+36	; 0x24
    40b2:	5d a1       	ldd	r21, Y+37	; 0x25
    40b4:	82 0f       	add	r24, r18
    40b6:	93 1f       	adc	r25, r19
    40b8:	a4 1f       	adc	r26, r20
    40ba:	b5 1f       	adc	r27, r21
    40bc:	89 87       	std	Y+9, r24	; 0x09
    40be:	9a 87       	std	Y+10, r25	; 0x0a
    40c0:	ab 87       	std	Y+11, r26	; 0x0b
    40c2:	bc 87       	std	Y+12, r27	; 0x0c
		if(p<0)
    40c4:	b7 fe       	sbrs	r11, 7
    40c6:	05 c0       	rjmp	.+10     	; 0x40d2 <_ZN16class_GraphBasic17DrawEllipseInternEiiii9_enum_Penh+0x18a>
    40c8:	84 0d       	add	r24, r4
    40ca:	95 1d       	adc	r25, r5
    40cc:	a6 1d       	adc	r26, r6
    40ce:	b7 1d       	adc	r27, r7
    40d0:	27 c0       	rjmp	.+78     	; 0x4120 <_ZN16class_GraphBasic17DrawEllipseInternEiiii9_enum_Penh+0x1d8>
			p+=ry2+px;
		else
		{
			y--;
    40d2:	89 81       	ldd	r24, Y+1	; 0x01
    40d4:	9a 81       	ldd	r25, Y+2	; 0x02
    40d6:	ab 81       	ldd	r26, Y+3	; 0x03
    40d8:	bc 81       	ldd	r27, Y+4	; 0x04
    40da:	01 97       	sbiw	r24, 0x01	; 1
    40dc:	a1 09       	sbc	r26, r1
    40de:	b1 09       	sbc	r27, r1
    40e0:	89 83       	std	Y+1, r24	; 0x01
    40e2:	9a 83       	std	Y+2, r25	; 0x02
    40e4:	ab 83       	std	Y+3, r26	; 0x03
    40e6:	bc 83       	std	Y+4, r27	; 0x04
			py-=tworx2;
    40e8:	2d 85       	ldd	r18, Y+13	; 0x0d
    40ea:	3e 85       	ldd	r19, Y+14	; 0x0e
    40ec:	4f 85       	ldd	r20, Y+15	; 0x0f
    40ee:	58 89       	ldd	r21, Y+16	; 0x10
    40f0:	8d 89       	ldd	r24, Y+21	; 0x15
    40f2:	9e 89       	ldd	r25, Y+22	; 0x16
    40f4:	af 89       	ldd	r26, Y+23	; 0x17
    40f6:	b8 8d       	ldd	r27, Y+24	; 0x18
    40f8:	28 1b       	sub	r18, r24
    40fa:	39 0b       	sbc	r19, r25
    40fc:	4a 0b       	sbc	r20, r26
    40fe:	5b 0b       	sbc	r21, r27
    4100:	2d 87       	std	Y+13, r18	; 0x0d
    4102:	3e 87       	std	Y+14, r19	; 0x0e
    4104:	4f 87       	std	Y+15, r20	; 0x0f
    4106:	58 8b       	std	Y+16, r21	; 0x10
    4108:	89 85       	ldd	r24, Y+9	; 0x09
    410a:	9a 85       	ldd	r25, Y+10	; 0x0a
    410c:	ab 85       	ldd	r26, Y+11	; 0x0b
    410e:	bc 85       	ldd	r27, Y+12	; 0x0c
    4110:	84 0d       	add	r24, r4
    4112:	95 1d       	adc	r25, r5
    4114:	a6 1d       	adc	r26, r6
    4116:	b7 1d       	adc	r27, r7
			p+=ry2+px-py;
    4118:	82 1b       	sub	r24, r18
    411a:	93 0b       	sbc	r25, r19
    411c:	a4 0b       	sbc	r26, r20
    411e:	b5 0b       	sbc	r27, r21
    4120:	88 0e       	add	r8, r24
    4122:	99 1e       	adc	r9, r25
    4124:	aa 1e       	adc	r10, r26
    4126:	bb 1e       	adc	r11, r27
		}
		PlotP4(xc,yc,x,y,pen,pixel);
    4128:	cf 8c       	ldd	r12, Y+31	; 0x1f
    412a:	ed 8c       	ldd	r14, Y+29	; 0x1d
    412c:	fe 8c       	ldd	r15, Y+30	; 0x1e
    412e:	09 81       	ldd	r16, Y+1	; 0x01
    4130:	1a 81       	ldd	r17, Y+2	; 0x02
    4132:	2d 81       	ldd	r18, Y+5	; 0x05
    4134:	3e 81       	ldd	r19, Y+6	; 0x06
    4136:	4b 8d       	ldd	r20, Y+27	; 0x1b
    4138:	5c 8d       	ldd	r21, Y+28	; 0x1c
    413a:	69 8d       	ldd	r22, Y+25	; 0x19
    413c:	7a 8d       	ldd	r23, Y+26	; 0x1a
    413e:	8e a1       	ldd	r24, Y+38	; 0x26
    4140:	9f a1       	ldd	r25, Y+39	; 0x27
    4142:	6c de       	rcall	.-808    	; 0x3e1c <_ZN16class_GraphBasic6PlotP4Eiiii9_enum_Penh>
    4144:	95 cf       	rjmp	.-214    	; 0x4070 <_ZN16class_GraphBasic17DrawEllipseInternEiiii9_enum_Penh+0x128>
	}
	//p=(ry2*(x+0.5)*(x+0.5)+(rx2*(y-1)*(y-1))-(rx2*ry2));
	p=(ry2*(x)*(x)+(rx2*(y-1)*(y-1))-(rx2*ry2));
    4146:	c9 80       	ldd	r12, Y+1	; 0x01
    4148:	da 80       	ldd	r13, Y+2	; 0x02
    414a:	eb 80       	ldd	r14, Y+3	; 0x03
    414c:	fc 80       	ldd	r15, Y+4	; 0x04
    414e:	91 e0       	ldi	r25, 0x01	; 1
    4150:	c9 1a       	sub	r12, r25
    4152:	d1 08       	sbc	r13, r1
    4154:	e1 08       	sbc	r14, r1
    4156:	f1 08       	sbc	r15, r1
    4158:	a3 01       	movw	r20, r6
    415a:	92 01       	movw	r18, r4
    415c:	6d 81       	ldd	r22, Y+5	; 0x05
    415e:	7e 81       	ldd	r23, Y+6	; 0x06
    4160:	8f 81       	ldd	r24, Y+7	; 0x07
    4162:	98 85       	ldd	r25, Y+8	; 0x08
    4164:	0e 94 87 41 	call	0x830e	; 0x830e <__mulsi3>
    4168:	9b 01       	movw	r18, r22
    416a:	ac 01       	movw	r20, r24
    416c:	6d 81       	ldd	r22, Y+5	; 0x05
    416e:	7e 81       	ldd	r23, Y+6	; 0x06
    4170:	8f 81       	ldd	r24, Y+7	; 0x07
    4172:	98 85       	ldd	r25, Y+8	; 0x08
    4174:	0e 94 87 41 	call	0x830e	; 0x830e <__mulsi3>
    4178:	4b 01       	movw	r8, r22
    417a:	5c 01       	movw	r10, r24
    417c:	29 89       	ldd	r18, Y+17	; 0x11
    417e:	3a 89       	ldd	r19, Y+18	; 0x12
    4180:	4b 89       	ldd	r20, Y+19	; 0x13
    4182:	5c 89       	ldd	r21, Y+20	; 0x14
    4184:	c7 01       	movw	r24, r14
    4186:	b6 01       	movw	r22, r12
    4188:	0e 94 87 41 	call	0x830e	; 0x830e <__mulsi3>
    418c:	9b 01       	movw	r18, r22
    418e:	ac 01       	movw	r20, r24
    4190:	c7 01       	movw	r24, r14
    4192:	b6 01       	movw	r22, r12
    4194:	0e 94 87 41 	call	0x830e	; 0x830e <__mulsi3>
    4198:	86 0e       	add	r8, r22
    419a:	97 1e       	adc	r9, r23
    419c:	a8 1e       	adc	r10, r24
    419e:	b9 1e       	adc	r11, r25
    41a0:	91 01       	movw	r18, r2
    41a2:	a8 a1       	ldd	r26, Y+32	; 0x20
    41a4:	b9 a1       	ldd	r27, Y+33	; 0x21
    41a6:	0e 94 d4 41 	call	0x83a8	; 0x83a8 <__mulhisi3>
    41aa:	86 1a       	sub	r8, r22
    41ac:	97 0a       	sbc	r9, r23
    41ae:	a8 0a       	sbc	r10, r24
    41b0:	b9 0a       	sbc	r11, r25
    41b2:	4d 88       	ldd	r4, Y+21	; 0x15
    41b4:	5e 88       	ldd	r5, Y+22	; 0x16
    41b6:	6f 88       	ldd	r6, Y+23	; 0x17
    41b8:	78 8c       	ldd	r7, Y+24	; 0x18
    41ba:	2d 85       	ldd	r18, Y+13	; 0x0d
    41bc:	3e 85       	ldd	r19, Y+14	; 0x0e
    41be:	4f 85       	ldd	r20, Y+15	; 0x0f
    41c0:	58 89       	ldd	r21, Y+16	; 0x10
    41c2:	42 1a       	sub	r4, r18
    41c4:	53 0a       	sbc	r5, r19
    41c6:	64 0a       	sbc	r6, r20
    41c8:	75 0a       	sbc	r7, r21
    41ca:	89 89       	ldd	r24, Y+17	; 0x11
    41cc:	9a 89       	ldd	r25, Y+18	; 0x12
    41ce:	ab 89       	ldd	r26, Y+19	; 0x13
    41d0:	bc 89       	ldd	r27, Y+20	; 0x14
    41d2:	48 0e       	add	r4, r24
    41d4:	59 1e       	adc	r5, r25
    41d6:	6a 1e       	adc	r6, r26
    41d8:	7b 1e       	adc	r7, r27
	while(y>0)
    41da:	89 81       	ldd	r24, Y+1	; 0x01
    41dc:	9a 81       	ldd	r25, Y+2	; 0x02
    41de:	ab 81       	ldd	r26, Y+3	; 0x03
    41e0:	bc 81       	ldd	r27, Y+4	; 0x04
    41e2:	18 16       	cp	r1, r24
    41e4:	19 06       	cpc	r1, r25
    41e6:	1a 06       	cpc	r1, r26
    41e8:	1b 06       	cpc	r1, r27
    41ea:	0c f0       	brlt	.+2      	; 0x41ee <_ZN16class_GraphBasic17DrawEllipseInternEiiii9_enum_Penh+0x2a6>
    41ec:	52 c0       	rjmp	.+164    	; 0x4292 <_ZN16class_GraphBasic17DrawEllipseInternEiiii9_enum_Penh+0x34a>
	{
		y--;
    41ee:	29 81       	ldd	r18, Y+1	; 0x01
    41f0:	3a 81       	ldd	r19, Y+2	; 0x02
    41f2:	4b 81       	ldd	r20, Y+3	; 0x03
    41f4:	5c 81       	ldd	r21, Y+4	; 0x04
    41f6:	21 50       	subi	r18, 0x01	; 1
    41f8:	31 09       	sbc	r19, r1
    41fa:	41 09       	sbc	r20, r1
    41fc:	51 09       	sbc	r21, r1
    41fe:	29 83       	std	Y+1, r18	; 0x01
    4200:	3a 83       	std	Y+2, r19	; 0x02
    4202:	4b 83       	std	Y+3, r20	; 0x03
    4204:	5c 83       	std	Y+4, r21	; 0x04
		py-=tworx2;
			if(p>0)
    4206:	18 14       	cp	r1, r8
    4208:	19 04       	cpc	r1, r9
    420a:	1a 04       	cpc	r1, r10
    420c:	1b 04       	cpc	r1, r11
    420e:	2c f4       	brge	.+10     	; 0x421a <_ZN16class_GraphBasic17DrawEllipseInternEiiii9_enum_Penh+0x2d2>
		p+=rx2-py;
    4210:	84 0c       	add	r8, r4
    4212:	95 1c       	adc	r9, r5
    4214:	a6 1c       	adc	r10, r6
    4216:	b7 1c       	adc	r11, r7
    4218:	25 c0       	rjmp	.+74     	; 0x4264 <_ZN16class_GraphBasic17DrawEllipseInternEiiii9_enum_Penh+0x31c>
		else
		{
			x++;
    421a:	8d 81       	ldd	r24, Y+5	; 0x05
    421c:	9e 81       	ldd	r25, Y+6	; 0x06
    421e:	af 81       	ldd	r26, Y+7	; 0x07
    4220:	b8 85       	ldd	r27, Y+8	; 0x08
    4222:	01 96       	adiw	r24, 0x01	; 1
    4224:	a1 1d       	adc	r26, r1
    4226:	b1 1d       	adc	r27, r1
    4228:	8d 83       	std	Y+5, r24	; 0x05
    422a:	9e 83       	std	Y+6, r25	; 0x06
    422c:	af 83       	std	Y+7, r26	; 0x07
    422e:	b8 87       	std	Y+8, r27	; 0x08
			px+=twory2;
    4230:	29 85       	ldd	r18, Y+9	; 0x09
    4232:	3a 85       	ldd	r19, Y+10	; 0x0a
    4234:	4b 85       	ldd	r20, Y+11	; 0x0b
    4236:	5c 85       	ldd	r21, Y+12	; 0x0c
    4238:	8a a1       	ldd	r24, Y+34	; 0x22
    423a:	9b a1       	ldd	r25, Y+35	; 0x23
    423c:	ac a1       	ldd	r26, Y+36	; 0x24
    423e:	bd a1       	ldd	r27, Y+37	; 0x25
    4240:	28 0f       	add	r18, r24
    4242:	39 1f       	adc	r19, r25
    4244:	4a 1f       	adc	r20, r26
    4246:	5b 1f       	adc	r21, r27
    4248:	29 87       	std	Y+9, r18	; 0x09
    424a:	3a 87       	std	Y+10, r19	; 0x0a
    424c:	4b 87       	std	Y+11, r20	; 0x0b
    424e:	5c 87       	std	Y+12, r21	; 0x0c
			p+=rx2-py+px;
    4250:	da 01       	movw	r26, r20
    4252:	c9 01       	movw	r24, r18
    4254:	84 0d       	add	r24, r4
    4256:	95 1d       	adc	r25, r5
    4258:	a6 1d       	adc	r26, r6
    425a:	b7 1d       	adc	r27, r7
    425c:	88 0e       	add	r8, r24
    425e:	99 1e       	adc	r9, r25
    4260:	aa 1e       	adc	r10, r26
    4262:	bb 1e       	adc	r11, r27
		}
		PlotP4(xc,yc,x,y,pen,pixel);
    4264:	cf 8c       	ldd	r12, Y+31	; 0x1f
    4266:	ed 8c       	ldd	r14, Y+29	; 0x1d
    4268:	fe 8c       	ldd	r15, Y+30	; 0x1e
    426a:	09 81       	ldd	r16, Y+1	; 0x01
    426c:	1a 81       	ldd	r17, Y+2	; 0x02
    426e:	2d 81       	ldd	r18, Y+5	; 0x05
    4270:	3e 81       	ldd	r19, Y+6	; 0x06
    4272:	4b 8d       	ldd	r20, Y+27	; 0x1b
    4274:	5c 8d       	ldd	r21, Y+28	; 0x1c
    4276:	69 8d       	ldd	r22, Y+25	; 0x19
    4278:	7a 8d       	ldd	r23, Y+26	; 0x1a
    427a:	8e a1       	ldd	r24, Y+38	; 0x26
    427c:	9f a1       	ldd	r25, Y+39	; 0x27
    427e:	ce dd       	rcall	.-1124   	; 0x3e1c <_ZN16class_GraphBasic6PlotP4Eiiii9_enum_Penh>
    4280:	2d 89       	ldd	r18, Y+21	; 0x15
    4282:	3e 89       	ldd	r19, Y+22	; 0x16
    4284:	4f 89       	ldd	r20, Y+23	; 0x17
    4286:	58 8d       	ldd	r21, Y+24	; 0x18
    4288:	42 0e       	add	r4, r18
    428a:	53 1e       	adc	r5, r19
    428c:	64 1e       	adc	r6, r20
    428e:	75 1e       	adc	r7, r21
    4290:	a4 cf       	rjmp	.-184    	; 0x41da <_ZN16class_GraphBasic17DrawEllipseInternEiiii9_enum_Penh+0x292>
	}
}
    4292:	a7 96       	adiw	r28, 0x27	; 39
    4294:	0f b6       	in	r0, 0x3f	; 63
    4296:	f8 94       	cli
    4298:	de bf       	out	0x3e, r29	; 62
    429a:	0f be       	out	0x3f, r0	; 63
    429c:	cd bf       	out	0x3d, r28	; 61
    429e:	df 91       	pop	r29
    42a0:	cf 91       	pop	r28
    42a2:	1f 91       	pop	r17
    42a4:	0f 91       	pop	r16
    42a6:	ff 90       	pop	r15
    42a8:	ef 90       	pop	r14
    42aa:	df 90       	pop	r13
    42ac:	cf 90       	pop	r12
    42ae:	bf 90       	pop	r11
    42b0:	af 90       	pop	r10
    42b2:	9f 90       	pop	r9
    42b4:	8f 90       	pop	r8
    42b6:	7f 90       	pop	r7
    42b8:	6f 90       	pop	r6
    42ba:	5f 90       	pop	r5
    42bc:	4f 90       	pop	r4
    42be:	3f 90       	pop	r3
    42c0:	2f 90       	pop	r2
    42c2:	08 95       	ret

000042c4 <_ZN16class_GraphBasic11DrawEllipseEiiii9_enum_Penhb>:
//	| OUTPUT  :                                                                     |
//	| REMARKS : using Bresenham algorithm                       	                |
//	|			pixel defines color of circle border, Pen used in DrawMode::Solid	|
//	+-------------------------------------------------------------------------------+
void class_GraphBasic::DrawEllipse(int xc,int yc, int rx, int ry,Pen pen,Pixel pixel,bool border)
{
    42c4:	2f 92       	push	r2
    42c6:	3f 92       	push	r3
    42c8:	4f 92       	push	r4
    42ca:	5f 92       	push	r5
    42cc:	6f 92       	push	r6
    42ce:	7f 92       	push	r7
    42d0:	8f 92       	push	r8
    42d2:	9f 92       	push	r9
    42d4:	af 92       	push	r10
    42d6:	bf 92       	push	r11
    42d8:	cf 92       	push	r12
    42da:	df 92       	push	r13
    42dc:	ef 92       	push	r14
    42de:	ff 92       	push	r15
    42e0:	0f 93       	push	r16
    42e2:	1f 93       	push	r17
    42e4:	cf 93       	push	r28
    42e6:	df 93       	push	r29
    42e8:	00 d0       	rcall	.+0      	; 0x42ea <_ZN16class_GraphBasic11DrawEllipseEiiii9_enum_Penhb+0x26>
    42ea:	1f 92       	push	r1
    42ec:	cd b7       	in	r28, 0x3d	; 61
    42ee:	de b7       	in	r29, 0x3e	; 62
    42f0:	9b 83       	std	Y+3, r25	; 0x03
    42f2:	8a 83       	std	Y+2, r24	; 0x02
    42f4:	1b 01       	movw	r2, r22
    42f6:	4a 01       	movw	r8, r20
    42f8:	39 01       	movw	r6, r18
    42fa:	a9 82       	std	Y+1, r10	; 0x01
    42fc:	fc 01       	movw	r30, r24
    42fe:	a2 80       	ldd	r10, Z+2	; 0x02
    4300:	b3 80       	ldd	r11, Z+3	; 0x03
	DrawMode dm;
	
	dm=this->GetDrawMode();
	
	switch (this->_DrawMode)
    4302:	b7 fc       	sbrc	r11, 7
    4304:	1e c0       	rjmp	.+60     	; 0x4342 <_ZN16class_GraphBasic11DrawEllipseEiiii9_enum_Penhb+0x7e>
    4306:	f2 e0       	ldi	r31, 0x02	; 2
    4308:	af 16       	cp	r10, r31
    430a:	b1 04       	cpc	r11, r1
    430c:	2c f0       	brlt	.+10     	; 0x4318 <_ZN16class_GraphBasic11DrawEllipseEiiii9_enum_Penhb+0x54>
    430e:	82 e0       	ldi	r24, 0x02	; 2
    4310:	a8 16       	cp	r10, r24
    4312:	b1 04       	cpc	r11, r1
    4314:	21 f0       	breq	.+8      	; 0x431e <_ZN16class_GraphBasic11DrawEllipseEiiii9_enum_Penhb+0x5a>
    4316:	15 c0       	rjmp	.+42     	; 0x4342 <_ZN16class_GraphBasic11DrawEllipseEiiii9_enum_Penhb+0x7e>
	{
		case DrawMode::LINE:
		case DrawMode::SOLID:
			DrawEllipseIntern(xc,yc,rx,ry,pen,pixel);
    4318:	8a 81       	ldd	r24, Y+2	; 0x02
    431a:	9b 81       	ldd	r25, Y+3	; 0x03
    431c:	11 c0       	rjmp	.+34     	; 0x4340 <_ZN16class_GraphBasic11DrawEllipseEiiii9_enum_Penhb+0x7c>
		break;
		case DrawMode::PATTERN:
			DrawEllipseIntern(xc,yc,rx,ry,Pen::Black,pixel);
    431e:	ee 24       	eor	r14, r14
    4320:	ea 94       	dec	r14
    4322:	f1 2c       	mov	r15, r1
    4324:	8a 81       	ldd	r24, Y+2	; 0x02
    4326:	9b 81       	ldd	r25, Y+3	; 0x03
    4328:	0f de       	rcall	.-994    	; 0x3f48 <_ZN16class_GraphBasic17DrawEllipseInternEiiii9_enum_Penh>
			if (border)
    432a:	e9 81       	ldd	r30, Y+1	; 0x01
    432c:	ee 23       	and	r30, r30
    432e:	49 f0       	breq	.+18     	; 0x4342 <_ZN16class_GraphBasic11DrawEllipseEiiii9_enum_Penhb+0x7e>
			{
				this->_DrawMode=DrawMode::LINE;
    4330:	ea 81       	ldd	r30, Y+2	; 0x02
    4332:	fb 81       	ldd	r31, Y+3	; 0x03
    4334:	13 82       	std	Z+3, r1	; 0x03
    4336:	12 82       	std	Z+2, r1	; 0x02
				DrawEllipseIntern(xc,yc,rx,ry,Pen::Black,pixel);
    4338:	93 01       	movw	r18, r6
    433a:	a4 01       	movw	r20, r8
    433c:	b1 01       	movw	r22, r2
    433e:	cf 01       	movw	r24, r30
    4340:	03 de       	rcall	.-1018   	; 0x3f48 <_ZN16class_GraphBasic17DrawEllipseInternEiiii9_enum_Penh>
			}
		break;
	}
	
	this->_DrawMode=dm;
    4342:	ea 81       	ldd	r30, Y+2	; 0x02
    4344:	fb 81       	ldd	r31, Y+3	; 0x03
    4346:	b3 82       	std	Z+3, r11	; 0x03
    4348:	a2 82       	std	Z+2, r10	; 0x02
}
    434a:	0f 90       	pop	r0
    434c:	0f 90       	pop	r0
    434e:	0f 90       	pop	r0
    4350:	df 91       	pop	r29
    4352:	cf 91       	pop	r28
    4354:	1f 91       	pop	r17
    4356:	0f 91       	pop	r16
    4358:	ff 90       	pop	r15
    435a:	ef 90       	pop	r14
    435c:	df 90       	pop	r13
    435e:	cf 90       	pop	r12
    4360:	bf 90       	pop	r11
    4362:	af 90       	pop	r10
    4364:	9f 90       	pop	r9
    4366:	8f 90       	pop	r8
    4368:	7f 90       	pop	r7
    436a:	6f 90       	pop	r6
    436c:	5f 90       	pop	r5
    436e:	4f 90       	pop	r4
    4370:	3f 90       	pop	r3
    4372:	2f 90       	pop	r2
    4374:	08 95       	ret

00004376 <_ZN16class_GraphBasic10DrawCircleEiii9_enum_Penhb>:
//	| OUTPUT  :                                                                     |
//	| REMARKS : using Bresenham algorithm                       	                |
//	|			pixel defines color of circle border, Pen used in DrawMode::Solid	|
//	+-------------------------------------------------------------------------------+
void class_GraphBasic::DrawCircle(int px,int py,int radius,Pen pen,Pixel pixel,bool border)
{
    4376:	af 92       	push	r10
    4378:	cf 92       	push	r12
    437a:	ef 92       	push	r14
    437c:	ff 92       	push	r15
    437e:	0f 93       	push	r16
    4380:	1f 93       	push	r17
		break;
	}
	
	this->_DrawMode=dm;
#else
	DrawEllipse(px,py,radius,radius,pen,pixel,border);
    4382:	ac 2c       	mov	r10, r12
    4384:	ce 2c       	mov	r12, r14
    4386:	78 01       	movw	r14, r16
    4388:	89 01       	movw	r16, r18
    438a:	9c df       	rcall	.-200    	; 0x42c4 <_ZN16class_GraphBasic11DrawEllipseEiiii9_enum_Penhb>
#endif
}
    438c:	1f 91       	pop	r17
    438e:	0f 91       	pop	r16
    4390:	ff 90       	pop	r15
    4392:	ef 90       	pop	r14
    4394:	cf 90       	pop	r12
    4396:	af 90       	pop	r10
    4398:	08 95       	ret

0000439a <_ZL7delayMsj>:
	}
	else
	{
		return 0xff;
	}
}
    439a:	9c 01       	movw	r18, r24
    439c:	40 ea       	ldi	r20, 0xA0	; 160
    439e:	5f e0       	ldi	r21, 0x0F	; 15
    43a0:	21 15       	cp	r18, r1
    43a2:	31 05       	cpc	r19, r1
    43a4:	31 f0       	breq	.+12     	; 0x43b2 <_ZL7delayMsj+0x18>
    43a6:	ca 01       	movw	r24, r20
    43a8:	01 97       	sbiw	r24, 0x01	; 1
    43aa:	f1 f7       	brne	.-4      	; 0x43a8 <_ZL7delayMsj+0xe>
    43ac:	21 50       	subi	r18, 0x01	; 1
    43ae:	31 09       	sbc	r19, r1
    43b0:	f7 cf       	rjmp	.-18     	; 0x43a0 <_ZL7delayMsj+0x6>
    43b2:	08 95       	ret

000043b4 <_ZN23class_T6963C_Drive_V14113InterfaceReadEv>:
    43b4:	95 98       	cbi	0x12, 5	; 18
    43b6:	00 00       	nop
    43b8:	96 98       	cbi	0x12, 6	; 18
	...
    43c2:	00 00       	nop
    43c4:	89 b3       	in	r24, 0x19	; 25
	...
    43ce:	96 9a       	sbi	0x12, 6	; 18
    43d0:	00 00       	nop
    43d2:	95 9a       	sbi	0x12, 5	; 18
    43d4:	08 95       	ret

000043d6 <_ZN23class_T6963C_Drive_V14114InterfaceWriteEv>:
    43d6:	95 98       	cbi	0x12, 5	; 18
    43d8:	00 00       	nop
    43da:	97 98       	cbi	0x12, 7	; 18
	...
    43e4:	97 9a       	sbi	0x12, 7	; 18
    43e6:	00 00       	nop
    43e8:	95 9a       	sbi	0x12, 5	; 18
    43ea:	00 00       	nop
    43ec:	00 00       	nop
    43ee:	1a ba       	out	0x1a, r1	; 26
    43f0:	8f ef       	ldi	r24, 0xFF	; 255
    43f2:	8b bb       	out	0x1b, r24	; 27
    43f4:	00 00       	nop
    43f6:	00 00       	nop
    43f8:	08 95       	ret

000043fa <_ZN23class_T6963C_Drive_V14119InterfaceStatusReadEv>:
    43fa:	94 9a       	sbi	0x12, 4	; 18
    43fc:	db cf       	rjmp	.-74     	; 0x43b4 <_ZN23class_T6963C_Drive_V14113InterfaceReadEv>

000043fe <_ZN23class_T6963C_Drive_V14117InterfaceDataReadEv>:
    43fe:	94 98       	cbi	0x12, 4	; 18
    4400:	d9 cf       	rjmp	.-78     	; 0x43b4 <_ZN23class_T6963C_Drive_V14113InterfaceReadEv>

00004402 <_ZN23class_T6963C_Drive_V14117InterfaceCmdWriteEh>:
    4402:	6b bb       	out	0x1b, r22	; 27
    4404:	2f ef       	ldi	r18, 0xFF	; 255
    4406:	2a bb       	out	0x1a, r18	; 26
    4408:	94 9a       	sbi	0x12, 4	; 18
    440a:	e5 cf       	rjmp	.-54     	; 0x43d6 <_ZN23class_T6963C_Drive_V14114InterfaceWriteEv>

0000440c <_ZN23class_T6963C_Drive_V14118InterfaceDataWriteEh>:
    440c:	6b bb       	out	0x1b, r22	; 27
    440e:	2f ef       	ldi	r18, 0xFF	; 255
    4410:	2a bb       	out	0x1a, r18	; 26
    4412:	94 98       	cbi	0x12, 4	; 18
    4414:	e0 cf       	rjmp	.-64     	; 0x43d6 <_ZN23class_T6963C_Drive_V14114InterfaceWriteEv>

00004416 <_ZN23class_T6963C_Drive_V14112CanReadWriteEv>:
    4416:	cf 93       	push	r28
    4418:	df 93       	push	r29
    441a:	ec 01       	movw	r28, r24
    441c:	ce 01       	movw	r24, r28
    441e:	ed df       	rcall	.-38     	; 0x43fa <_ZN23class_T6963C_Drive_V14119InterfaceStatusReadEv>
    4420:	83 70       	andi	r24, 0x03	; 3
    4422:	83 30       	cpi	r24, 0x03	; 3
    4424:	d9 f7       	brne	.-10     	; 0x441c <_ZN23class_T6963C_Drive_V14112CanReadWriteEv+0x6>
    4426:	df 91       	pop	r29
    4428:	cf 91       	pop	r28
    442a:	08 95       	ret

0000442c <_ZN23class_T6963C_Drive_V14112CanAutoWriteEv>:
    442c:	cf 93       	push	r28
    442e:	df 93       	push	r29
    4430:	ec 01       	movw	r28, r24
    4432:	ce 01       	movw	r24, r28
    4434:	e2 df       	rcall	.-60     	; 0x43fa <_ZN23class_T6963C_Drive_V14119InterfaceStatusReadEv>
    4436:	83 ff       	sbrs	r24, 3
    4438:	fc cf       	rjmp	.-8      	; 0x4432 <_ZN23class_T6963C_Drive_V14112CanAutoWriteEv+0x6>
    443a:	df 91       	pop	r29
    443c:	cf 91       	pop	r28
    443e:	08 95       	ret

00004440 <_ZN23class_T6963C_Drive_V1419DataWriteEh>:
    4440:	0f 93       	push	r16
    4442:	1f 93       	push	r17
    4444:	cf 93       	push	r28
    4446:	df 93       	push	r29
    4448:	1f 92       	push	r1
    444a:	cd b7       	in	r28, 0x3d	; 61
    444c:	de b7       	in	r29, 0x3e	; 62
    444e:	8c 01       	movw	r16, r24
    4450:	69 83       	std	Y+1, r22	; 0x01
    4452:	e1 df       	rcall	.-62     	; 0x4416 <_ZN23class_T6963C_Drive_V14112CanReadWriteEv>
    4454:	69 81       	ldd	r22, Y+1	; 0x01
    4456:	c8 01       	movw	r24, r16
    4458:	0f 90       	pop	r0
    445a:	df 91       	pop	r29
    445c:	cf 91       	pop	r28
    445e:	1f 91       	pop	r17
    4460:	0f 91       	pop	r16
    4462:	d4 cf       	rjmp	.-88     	; 0x440c <_ZN23class_T6963C_Drive_V14118InterfaceDataWriteEh>

00004464 <_ZN23class_T6963C_Drive_V1418DataReadEv>:
    4464:	cf 93       	push	r28
    4466:	df 93       	push	r29
    4468:	ec 01       	movw	r28, r24
    446a:	d5 df       	rcall	.-86     	; 0x4416 <_ZN23class_T6963C_Drive_V14112CanReadWriteEv>
    446c:	ce 01       	movw	r24, r28
    446e:	df 91       	pop	r29
    4470:	cf 91       	pop	r28
    4472:	c5 cf       	rjmp	.-118    	; 0x43fe <_ZN23class_T6963C_Drive_V14117InterfaceDataReadEv>

00004474 <_ZN23class_T6963C_Drive_V1418CmdWriteEh>:
    4474:	0f 93       	push	r16
    4476:	1f 93       	push	r17
    4478:	cf 93       	push	r28
    447a:	df 93       	push	r29
    447c:	1f 92       	push	r1
    447e:	cd b7       	in	r28, 0x3d	; 61
    4480:	de b7       	in	r29, 0x3e	; 62
    4482:	8c 01       	movw	r16, r24
    4484:	69 83       	std	Y+1, r22	; 0x01
    4486:	c7 df       	rcall	.-114    	; 0x4416 <_ZN23class_T6963C_Drive_V14112CanReadWriteEv>
    4488:	69 81       	ldd	r22, Y+1	; 0x01
    448a:	c8 01       	movw	r24, r16
    448c:	0f 90       	pop	r0
    448e:	df 91       	pop	r29
    4490:	cf 91       	pop	r28
    4492:	1f 91       	pop	r17
    4494:	0f 91       	pop	r16
    4496:	b5 cf       	rjmp	.-150    	; 0x4402 <_ZN23class_T6963C_Drive_V14117InterfaceCmdWriteEh>

00004498 <_ZN23class_T6963C_Drive_V14113DataAutoWriteEh>:
    4498:	0f 93       	push	r16
    449a:	1f 93       	push	r17
    449c:	cf 93       	push	r28
    449e:	df 93       	push	r29
    44a0:	1f 92       	push	r1
    44a2:	cd b7       	in	r28, 0x3d	; 61
    44a4:	de b7       	in	r29, 0x3e	; 62
    44a6:	8c 01       	movw	r16, r24
    44a8:	69 83       	std	Y+1, r22	; 0x01
    44aa:	c0 df       	rcall	.-128    	; 0x442c <_ZN23class_T6963C_Drive_V14112CanAutoWriteEv>
    44ac:	69 81       	ldd	r22, Y+1	; 0x01
    44ae:	c8 01       	movw	r24, r16
    44b0:	0f 90       	pop	r0
    44b2:	df 91       	pop	r29
    44b4:	cf 91       	pop	r28
    44b6:	1f 91       	pop	r17
    44b8:	0f 91       	pop	r16
    44ba:	a8 cf       	rjmp	.-176    	; 0x440c <_ZN23class_T6963C_Drive_V14118InterfaceDataWriteEh>

000044bc <_ZN23class_T6963C_Drive_V14113BlinkLEDErrorEj>:
    44bc:	eb 01       	movw	r28, r22
    44be:	b8 9a       	sbi	0x17, 0	; 23
    44c0:	11 e0       	ldi	r17, 0x01	; 1
    44c2:	98 b3       	in	r25, 0x18	; 24
    44c4:	91 27       	eor	r25, r17
    44c6:	98 bb       	out	0x18, r25	; 24
    44c8:	ce 01       	movw	r24, r28
    44ca:	67 df       	rcall	.-306    	; 0x439a <_ZL7delayMsj>
    44cc:	fa cf       	rjmp	.-12     	; 0x44c2 <_ZN23class_T6963C_Drive_V14113BlinkLEDErrorEj+0x6>

000044ce <_ZN23class_T6963C_Drive_V1415ResetEv>:
    44ce:	84 e6       	ldi	r24, 0x64	; 100
    44d0:	90 e0       	ldi	r25, 0x00	; 0
    44d2:	63 df       	rcall	.-314    	; 0x439a <_ZL7delayMsj>
    44d4:	91 98       	cbi	0x12, 1	; 18
    44d6:	81 e0       	ldi	r24, 0x01	; 1
    44d8:	90 e0       	ldi	r25, 0x00	; 0
    44da:	5f df       	rcall	.-322    	; 0x439a <_ZL7delayMsj>
    44dc:	91 9a       	sbi	0x12, 1	; 18
    44de:	81 e0       	ldi	r24, 0x01	; 1
    44e0:	90 e0       	ldi	r25, 0x00	; 0
    44e2:	5b cf       	rjmp	.-330    	; 0x439a <_ZL7delayMsj>

000044e4 <_ZN23class_T6963C_Drive_V14114SetTextAddressEj>:
    44e4:	0f 93       	push	r16
    44e6:	1f 93       	push	r17
    44e8:	cf 93       	push	r28
    44ea:	df 93       	push	r29
    44ec:	1f 92       	push	r1
    44ee:	cd b7       	in	r28, 0x3d	; 61
    44f0:	de b7       	in	r29, 0x3e	; 62
    44f2:	8c 01       	movw	r16, r24
    44f4:	79 83       	std	Y+1, r23	; 0x01
    44f6:	a4 df       	rcall	.-184    	; 0x4440 <_ZN23class_T6963C_Drive_V1419DataWriteEh>
    44f8:	79 81       	ldd	r23, Y+1	; 0x01
    44fa:	67 2f       	mov	r22, r23
    44fc:	c8 01       	movw	r24, r16
    44fe:	a0 df       	rcall	.-192    	; 0x4440 <_ZN23class_T6963C_Drive_V1419DataWriteEh>
    4500:	60 e4       	ldi	r22, 0x40	; 64
    4502:	c8 01       	movw	r24, r16
    4504:	0f 90       	pop	r0
    4506:	df 91       	pop	r29
    4508:	cf 91       	pop	r28
    450a:	1f 91       	pop	r17
    450c:	0f 91       	pop	r16
    450e:	b2 cf       	rjmp	.-156    	; 0x4474 <_ZN23class_T6963C_Drive_V1418CmdWriteEh>

00004510 <_ZN23class_T6963C_Drive_V14111SetTextAreaEh>:
    4510:	cf 93       	push	r28
    4512:	df 93       	push	r29
    4514:	ec 01       	movw	r28, r24
    4516:	94 df       	rcall	.-216    	; 0x4440 <_ZN23class_T6963C_Drive_V1419DataWriteEh>
    4518:	60 e0       	ldi	r22, 0x00	; 0
    451a:	ce 01       	movw	r24, r28
    451c:	91 df       	rcall	.-222    	; 0x4440 <_ZN23class_T6963C_Drive_V1419DataWriteEh>
    451e:	61 e4       	ldi	r22, 0x41	; 65
    4520:	ce 01       	movw	r24, r28
    4522:	df 91       	pop	r29
    4524:	cf 91       	pop	r28
    4526:	a6 cf       	rjmp	.-180    	; 0x4474 <_ZN23class_T6963C_Drive_V1418CmdWriteEh>

00004528 <_ZN23class_T6963C_Drive_V14115SetGraphAddressEj>:
    4528:	0f 93       	push	r16
    452a:	1f 93       	push	r17
    452c:	cf 93       	push	r28
    452e:	df 93       	push	r29
    4530:	1f 92       	push	r1
    4532:	cd b7       	in	r28, 0x3d	; 61
    4534:	de b7       	in	r29, 0x3e	; 62
    4536:	8c 01       	movw	r16, r24
    4538:	79 83       	std	Y+1, r23	; 0x01
    453a:	82 df       	rcall	.-252    	; 0x4440 <_ZN23class_T6963C_Drive_V1419DataWriteEh>
    453c:	79 81       	ldd	r23, Y+1	; 0x01
    453e:	67 2f       	mov	r22, r23
    4540:	c8 01       	movw	r24, r16
    4542:	7e df       	rcall	.-260    	; 0x4440 <_ZN23class_T6963C_Drive_V1419DataWriteEh>
    4544:	62 e4       	ldi	r22, 0x42	; 66
    4546:	c8 01       	movw	r24, r16
    4548:	0f 90       	pop	r0
    454a:	df 91       	pop	r29
    454c:	cf 91       	pop	r28
    454e:	1f 91       	pop	r17
    4550:	0f 91       	pop	r16
    4552:	90 cf       	rjmp	.-224    	; 0x4474 <_ZN23class_T6963C_Drive_V1418CmdWriteEh>

00004554 <_ZN23class_T6963C_Drive_V14112SetGraphAreaEh>:
    4554:	cf 93       	push	r28
    4556:	df 93       	push	r29
    4558:	ec 01       	movw	r28, r24
    455a:	72 df       	rcall	.-284    	; 0x4440 <_ZN23class_T6963C_Drive_V1419DataWriteEh>
    455c:	60 e0       	ldi	r22, 0x00	; 0
    455e:	ce 01       	movw	r24, r28
    4560:	6f df       	rcall	.-290    	; 0x4440 <_ZN23class_T6963C_Drive_V1419DataWriteEh>
    4562:	63 e4       	ldi	r22, 0x43	; 67
    4564:	ce 01       	movw	r24, r28
    4566:	df 91       	pop	r29
    4568:	cf 91       	pop	r28
    456a:	84 cf       	rjmp	.-248    	; 0x4474 <_ZN23class_T6963C_Drive_V1418CmdWriteEh>

0000456c <_ZN23class_T6963C_Drive_V14117SetAddressPointerEj>:
    456c:	0f 93       	push	r16
    456e:	1f 93       	push	r17
    4570:	cf 93       	push	r28
    4572:	df 93       	push	r29
    4574:	1f 92       	push	r1
    4576:	cd b7       	in	r28, 0x3d	; 61
    4578:	de b7       	in	r29, 0x3e	; 62
    457a:	8c 01       	movw	r16, r24
    457c:	79 83       	std	Y+1, r23	; 0x01
    457e:	60 df       	rcall	.-320    	; 0x4440 <_ZN23class_T6963C_Drive_V1419DataWriteEh>
    4580:	79 81       	ldd	r23, Y+1	; 0x01
    4582:	67 2f       	mov	r22, r23
    4584:	c8 01       	movw	r24, r16
    4586:	5c df       	rcall	.-328    	; 0x4440 <_ZN23class_T6963C_Drive_V1419DataWriteEh>
    4588:	64 e2       	ldi	r22, 0x24	; 36
    458a:	c8 01       	movw	r24, r16
    458c:	0f 90       	pop	r0
    458e:	df 91       	pop	r29
    4590:	cf 91       	pop	r28
    4592:	1f 91       	pop	r17
    4594:	0f 91       	pop	r16
    4596:	6e cf       	rjmp	.-292    	; 0x4474 <_ZN23class_T6963C_Drive_V1418CmdWriteEh>

00004598 <_ZN23class_T6963C_Drive_V14112SetCursorPosEhh>:
    4598:	0f 93       	push	r16
    459a:	1f 93       	push	r17
    459c:	cf 93       	push	r28
    459e:	44 23       	and	r20, r20
    45a0:	79 f1       	breq	.+94     	; 0x4600 <_ZN23class_T6963C_Drive_V14112SetCursorPosEhh+0x68>
    45a2:	fc 01       	movw	r30, r24
    45a4:	22 89       	ldd	r18, Z+18	; 0x12
    45a6:	24 17       	cp	r18, r20
    45a8:	58 f1       	brcs	.+86     	; 0x4600 <_ZN23class_T6963C_Drive_V14112SetCursorPosEhh+0x68>
    45aa:	66 23       	and	r22, r22
    45ac:	49 f1       	breq	.+82     	; 0x4600 <_ZN23class_T6963C_Drive_V14112SetCursorPosEhh+0x68>
    45ae:	20 89       	ldd	r18, Z+16	; 0x10
    45b0:	26 17       	cp	r18, r22
    45b2:	30 f1       	brcs	.+76     	; 0x4600 <_ZN23class_T6963C_Drive_V14112SetCursorPosEhh+0x68>
    45b4:	c6 2f       	mov	r28, r22
    45b6:	8c 01       	movw	r16, r24
    45b8:	fc 01       	movw	r30, r24
    45ba:	87 a9       	ldd	r24, Z+55	; 0x37
    45bc:	90 ad       	ldd	r25, Z+56	; 0x38
    45be:	00 97       	sbiw	r24, 0x00	; 0
    45c0:	71 f4       	brne	.+28     	; 0x45de <_ZN23class_T6963C_Drive_V14112SetCursorPosEhh+0x46>
    45c2:	6f ef       	ldi	r22, 0xFF	; 255
    45c4:	64 0f       	add	r22, r20
    45c6:	c8 01       	movw	r24, r16
    45c8:	3b df       	rcall	.-394    	; 0x4440 <_ZN23class_T6963C_Drive_V1419DataWriteEh>
    45ca:	6f ef       	ldi	r22, 0xFF	; 255
    45cc:	6c 0f       	add	r22, r28
    45ce:	c8 01       	movw	r24, r16
    45d0:	37 df       	rcall	.-402    	; 0x4440 <_ZN23class_T6963C_Drive_V1419DataWriteEh>
    45d2:	61 e2       	ldi	r22, 0x21	; 33
    45d4:	c8 01       	movw	r24, r16
    45d6:	cf 91       	pop	r28
    45d8:	1f 91       	pop	r17
    45da:	0f 91       	pop	r16
    45dc:	4b cf       	rjmp	.-362    	; 0x4474 <_ZN23class_T6963C_Drive_V1418CmdWriteEh>
    45de:	01 97       	sbiw	r24, 0x01	; 1
    45e0:	79 f4       	brne	.+30     	; 0x4600 <_ZN23class_T6963C_Drive_V14112SetCursorPosEhh+0x68>
    45e2:	6f ef       	ldi	r22, 0xFF	; 255
    45e4:	64 0f       	add	r22, r20
    45e6:	c8 01       	movw	r24, r16
    45e8:	2b df       	rcall	.-426    	; 0x4440 <_ZN23class_T6963C_Drive_V1419DataWriteEh>
    45ea:	f8 01       	movw	r30, r16
    45ec:	80 89       	ldd	r24, Z+16	; 0x10
    45ee:	86 95       	lsr	r24
    45f0:	8c 17       	cp	r24, r28
    45f2:	58 f7       	brcc	.-42     	; 0x45ca <_ZN23class_T6963C_Drive_V14112SetCursorPosEhh+0x32>
    45f4:	80 89       	ldd	r24, Z+16	; 0x10
    45f6:	86 95       	lsr	r24
    45f8:	6c 2f       	mov	r22, r28
    45fa:	68 1b       	sub	r22, r24
    45fc:	61 5f       	subi	r22, 0xF1	; 241
    45fe:	e7 cf       	rjmp	.-50     	; 0x45ce <_ZN23class_T6963C_Drive_V14112SetCursorPosEhh+0x36>
    4600:	cf 91       	pop	r28
    4602:	1f 91       	pop	r17
    4604:	0f 91       	pop	r16
    4606:	08 95       	ret

00004608 <_ZN23class_T6963C_Drive_V14114SetCGRAMOffsetEj>:
    4608:	cf 93       	push	r28
    460a:	df 93       	push	r29
    460c:	ec 01       	movw	r28, r24
    460e:	60 e0       	ldi	r22, 0x00	; 0
    4610:	17 df       	rcall	.-466    	; 0x4440 <_ZN23class_T6963C_Drive_V1419DataWriteEh>
    4612:	62 e2       	ldi	r22, 0x22	; 34
    4614:	ce 01       	movw	r24, r28
    4616:	df 91       	pop	r29
    4618:	cf 91       	pop	r28
    461a:	2c cf       	rjmp	.-424    	; 0x4474 <_ZN23class_T6963C_Drive_V1418CmdWriteEh>

0000461c <_ZN23class_T6963C_Drive_V14116SetModeAutoWriteEv>:
    461c:	60 eb       	ldi	r22, 0xB0	; 176
    461e:	2a cf       	rjmp	.-428    	; 0x4474 <_ZN23class_T6963C_Drive_V1418CmdWriteEh>

00004620 <_ZN23class_T6963C_Drive_V14116SetModeAutoResetEv>:
    4620:	62 eb       	ldi	r22, 0xB2	; 178
    4622:	28 cf       	rjmp	.-432    	; 0x4474 <_ZN23class_T6963C_Drive_V1418CmdWriteEh>

00004624 <_ZN23class_T6963C_Drive_V14114SetDisplayModeE25_enum_T6963C_DisplayModesb>:
    4624:	fc 01       	movw	r30, r24
    4626:	81 ad       	ldd	r24, Z+57	; 0x39
    4628:	80 fd       	sbrc	r24, 0
    462a:	02 c0       	rjmp	.+4      	; 0x4630 <_ZN23class_T6963C_Drive_V14114SetDisplayModeE25_enum_T6963C_DisplayModesb+0xc>
    462c:	90 e0       	ldi	r25, 0x00	; 0
    462e:	01 c0       	rjmp	.+2      	; 0x4632 <_ZN23class_T6963C_Drive_V14114SetDisplayModeE25_enum_T6963C_DisplayModesb+0xe>
    4630:	94 e0       	ldi	r25, 0x04	; 4
    4632:	81 ad       	ldd	r24, Z+57	; 0x39
    4634:	81 fd       	sbrc	r24, 1
    4636:	98 60       	ori	r25, 0x08	; 8
    4638:	81 ad       	ldd	r24, Z+57	; 0x39
    463a:	82 ff       	sbrs	r24, 2
    463c:	02 c0       	rjmp	.+4      	; 0x4642 <_ZN23class_T6963C_Drive_V14114SetDisplayModeE25_enum_T6963C_DisplayModesb+0x1e>
    463e:	92 60       	ori	r25, 0x02	; 2
    4640:	01 c0       	rjmp	.+2      	; 0x4644 <_ZN23class_T6963C_Drive_V14114SetDisplayModeE25_enum_T6963C_DisplayModesb+0x20>
    4642:	9d 7f       	andi	r25, 0xFD	; 253
    4644:	81 ad       	ldd	r24, Z+57	; 0x39
    4646:	83 ff       	sbrs	r24, 3
    4648:	02 c0       	rjmp	.+4      	; 0x464e <_ZN23class_T6963C_Drive_V14114SetDisplayModeE25_enum_T6963C_DisplayModesb+0x2a>
    464a:	91 60       	ori	r25, 0x01	; 1
    464c:	01 c0       	rjmp	.+2      	; 0x4650 <_ZN23class_T6963C_Drive_V14114SetDisplayModeE25_enum_T6963C_DisplayModesb+0x2c>
    464e:	9e 7f       	andi	r25, 0xFE	; 254
    4650:	61 30       	cpi	r22, 0x01	; 1
    4652:	71 05       	cpc	r23, r1
    4654:	f9 f0       	breq	.+62     	; 0x4694 <_ZN23class_T6963C_Drive_V14114SetDisplayModeE25_enum_T6963C_DisplayModesb+0x70>
    4656:	1c f4       	brge	.+6      	; 0x465e <_ZN23class_T6963C_Drive_V14114SetDisplayModeE25_enum_T6963C_DisplayModesb+0x3a>
    4658:	67 2b       	or	r22, r23
    465a:	31 f1       	breq	.+76     	; 0x46a8 <_ZN23class_T6963C_Drive_V14114SetDisplayModeE25_enum_T6963C_DisplayModesb+0x84>
    465c:	2e c0       	rjmp	.+92     	; 0x46ba <_ZN23class_T6963C_Drive_V14114SetDisplayModeE25_enum_T6963C_DisplayModesb+0x96>
    465e:	62 30       	cpi	r22, 0x02	; 2
    4660:	71 05       	cpc	r23, r1
    4662:	21 f0       	breq	.+8      	; 0x466c <_ZN23class_T6963C_Drive_V14114SetDisplayModeE25_enum_T6963C_DisplayModesb+0x48>
    4664:	63 30       	cpi	r22, 0x03	; 3
    4666:	71 05       	cpc	r23, r1
    4668:	59 f0       	breq	.+22     	; 0x4680 <_ZN23class_T6963C_Drive_V14114SetDisplayModeE25_enum_T6963C_DisplayModesb+0x5c>
    466a:	27 c0       	rjmp	.+78     	; 0x46ba <_ZN23class_T6963C_Drive_V14114SetDisplayModeE25_enum_T6963C_DisplayModesb+0x96>
    466c:	81 ad       	ldd	r24, Z+57	; 0x39
    466e:	40 fb       	bst	r20, 0
    4670:	80 f9       	bld	r24, 0
    4672:	81 af       	std	Z+57, r24	; 0x39
    4674:	44 23       	and	r20, r20
    4676:	11 f0       	breq	.+4      	; 0x467c <_ZN23class_T6963C_Drive_V14114SetDisplayModeE25_enum_T6963C_DisplayModesb+0x58>
    4678:	94 60       	ori	r25, 0x04	; 4
    467a:	1f c0       	rjmp	.+62     	; 0x46ba <_ZN23class_T6963C_Drive_V14114SetDisplayModeE25_enum_T6963C_DisplayModesb+0x96>
    467c:	9b 7f       	andi	r25, 0xFB	; 251
    467e:	1d c0       	rjmp	.+58     	; 0x46ba <_ZN23class_T6963C_Drive_V14114SetDisplayModeE25_enum_T6963C_DisplayModesb+0x96>
    4680:	81 ad       	ldd	r24, Z+57	; 0x39
    4682:	40 fb       	bst	r20, 0
    4684:	81 f9       	bld	r24, 1
    4686:	81 af       	std	Z+57, r24	; 0x39
    4688:	44 23       	and	r20, r20
    468a:	11 f0       	breq	.+4      	; 0x4690 <_ZN23class_T6963C_Drive_V14114SetDisplayModeE25_enum_T6963C_DisplayModesb+0x6c>
    468c:	98 60       	ori	r25, 0x08	; 8
    468e:	15 c0       	rjmp	.+42     	; 0x46ba <_ZN23class_T6963C_Drive_V14114SetDisplayModeE25_enum_T6963C_DisplayModesb+0x96>
    4690:	97 7f       	andi	r25, 0xF7	; 247
    4692:	13 c0       	rjmp	.+38     	; 0x46ba <_ZN23class_T6963C_Drive_V14114SetDisplayModeE25_enum_T6963C_DisplayModesb+0x96>
    4694:	81 ad       	ldd	r24, Z+57	; 0x39
    4696:	40 fb       	bst	r20, 0
    4698:	82 f9       	bld	r24, 2
    469a:	81 af       	std	Z+57, r24	; 0x39
    469c:	44 23       	and	r20, r20
    469e:	11 f0       	breq	.+4      	; 0x46a4 <_ZN23class_T6963C_Drive_V14114SetDisplayModeE25_enum_T6963C_DisplayModesb+0x80>
    46a0:	92 60       	ori	r25, 0x02	; 2
    46a2:	0b c0       	rjmp	.+22     	; 0x46ba <_ZN23class_T6963C_Drive_V14114SetDisplayModeE25_enum_T6963C_DisplayModesb+0x96>
    46a4:	9d 7f       	andi	r25, 0xFD	; 253
    46a6:	09 c0       	rjmp	.+18     	; 0x46ba <_ZN23class_T6963C_Drive_V14114SetDisplayModeE25_enum_T6963C_DisplayModesb+0x96>
    46a8:	81 ad       	ldd	r24, Z+57	; 0x39
    46aa:	40 fb       	bst	r20, 0
    46ac:	83 f9       	bld	r24, 3
    46ae:	81 af       	std	Z+57, r24	; 0x39
    46b0:	44 23       	and	r20, r20
    46b2:	11 f0       	breq	.+4      	; 0x46b8 <_ZN23class_T6963C_Drive_V14114SetDisplayModeE25_enum_T6963C_DisplayModesb+0x94>
    46b4:	91 60       	ori	r25, 0x01	; 1
    46b6:	01 c0       	rjmp	.+2      	; 0x46ba <_ZN23class_T6963C_Drive_V14114SetDisplayModeE25_enum_T6963C_DisplayModesb+0x96>
    46b8:	9e 7f       	andi	r25, 0xFE	; 254
    46ba:	60 e9       	ldi	r22, 0x90	; 144
    46bc:	69 0f       	add	r22, r25
    46be:	cf 01       	movw	r24, r30
    46c0:	d9 ce       	rjmp	.-590    	; 0x4474 <_ZN23class_T6963C_Drive_V1418CmdWriteEh>

000046c2 <_ZN23class_T6963C_Drive_V1417FillRAMEjjh>:
    46c2:	df 92       	push	r13
    46c4:	ef 92       	push	r14
    46c6:	ff 92       	push	r15
    46c8:	0f 93       	push	r16
    46ca:	1f 93       	push	r17
    46cc:	cf 93       	push	r28
    46ce:	df 93       	push	r29
    46d0:	41 15       	cp	r20, r1
    46d2:	51 05       	cpc	r21, r1
    46d4:	d1 f0       	breq	.+52     	; 0x470a <_ZN23class_T6963C_Drive_V1417FillRAMEjjh+0x48>
    46d6:	d2 2e       	mov	r13, r18
    46d8:	8a 01       	movw	r16, r20
    46da:	ec 01       	movw	r28, r24
    46dc:	47 df       	rcall	.-370    	; 0x456c <_ZN23class_T6963C_Drive_V14117SetAddressPointerEj>
    46de:	ce 01       	movw	r24, r28
    46e0:	9d df       	rcall	.-198    	; 0x461c <_ZN23class_T6963C_Drive_V14116SetModeAutoWriteEv>
    46e2:	e1 2c       	mov	r14, r1
    46e4:	f1 2c       	mov	r15, r1
    46e6:	6d 2d       	mov	r22, r13
    46e8:	ce 01       	movw	r24, r28
    46ea:	d6 de       	rcall	.-596    	; 0x4498 <_ZN23class_T6963C_Drive_V14113DataAutoWriteEh>
    46ec:	8f ef       	ldi	r24, 0xFF	; 255
    46ee:	e8 1a       	sub	r14, r24
    46f0:	f8 0a       	sbc	r15, r24
    46f2:	e0 16       	cp	r14, r16
    46f4:	f1 06       	cpc	r15, r17
    46f6:	b9 f7       	brne	.-18     	; 0x46e6 <_ZN23class_T6963C_Drive_V1417FillRAMEjjh+0x24>
    46f8:	ce 01       	movw	r24, r28
    46fa:	df 91       	pop	r29
    46fc:	cf 91       	pop	r28
    46fe:	1f 91       	pop	r17
    4700:	0f 91       	pop	r16
    4702:	ff 90       	pop	r15
    4704:	ef 90       	pop	r14
    4706:	df 90       	pop	r13
    4708:	8b cf       	rjmp	.-234    	; 0x4620 <_ZN23class_T6963C_Drive_V14116SetModeAutoResetEv>
    470a:	df 91       	pop	r29
    470c:	cf 91       	pop	r28
    470e:	1f 91       	pop	r17
    4710:	0f 91       	pop	r16
    4712:	ff 90       	pop	r15
    4714:	ef 90       	pop	r14
    4716:	df 90       	pop	r13
    4718:	08 95       	ret

0000471a <_ZN23class_T6963C_Drive_V1417ClsTextEv>:
    471a:	0f 93       	push	r16
    471c:	1f 93       	push	r17
    471e:	cf 93       	push	r28
    4720:	df 93       	push	r29
    4722:	ec 01       	movw	r28, r24
    4724:	8c 89       	ldd	r24, Y+20	; 0x14
    4726:	80 32       	cpi	r24, 0x20	; 32
    4728:	b0 f0       	brcs	.+44     	; 0x4756 <_ZN23class_T6963C_Drive_V1417ClsTextEv+0x3c>
    472a:	8c 89       	ldd	r24, Y+20	; 0x14
    472c:	8f 39       	cpi	r24, 0x9F	; 159
    472e:	98 f4       	brcc	.+38     	; 0x4756 <_ZN23class_T6963C_Drive_V1417ClsTextEv+0x3c>
    4730:	8f 89       	ldd	r24, Y+23	; 0x17
    4732:	81 30       	cpi	r24, 0x01	; 1
    4734:	99 f5       	brne	.+102    	; 0x479c <_ZN23class_T6963C_Drive_V1417ClsTextEv+0x82>
    4736:	0f 8d       	ldd	r16, Y+31	; 0x1f
    4738:	18 a1       	ldd	r17, Y+32	; 0x20
    473a:	8f a9       	ldd	r24, Y+55	; 0x37
    473c:	98 ad       	ldd	r25, Y+56	; 0x38
    473e:	00 97       	sbiw	r24, 0x00	; 0
    4740:	a9 f4       	brne	.+42     	; 0x476c <_ZN23class_T6963C_Drive_V1417ClsTextEv+0x52>
    4742:	2c 89       	ldd	r18, Y+20	; 0x14
    4744:	88 89       	ldd	r24, Y+16	; 0x10
    4746:	49 89       	ldd	r20, Y+17	; 0x11
    4748:	20 52       	subi	r18, 0x20	; 32
    474a:	84 9f       	mul	r24, r20
    474c:	a0 01       	movw	r20, r0
    474e:	11 24       	eor	r1, r1
    4750:	b8 01       	movw	r22, r16
    4752:	ce 01       	movw	r24, r28
    4754:	b6 df       	rcall	.-148    	; 0x46c2 <_ZN23class_T6963C_Drive_V1417FillRAMEjjh>
    4756:	81 e0       	ldi	r24, 0x01	; 1
    4758:	90 e0       	ldi	r25, 0x00	; 0
    475a:	9e a7       	std	Y+46, r25	; 0x2e
    475c:	8d a7       	std	Y+45, r24	; 0x2d
    475e:	9c a7       	std	Y+44, r25	; 0x2c
    4760:	8b a7       	std	Y+43, r24	; 0x2b
    4762:	df 91       	pop	r29
    4764:	cf 91       	pop	r28
    4766:	1f 91       	pop	r17
    4768:	0f 91       	pop	r16
    476a:	08 95       	ret
    476c:	01 97       	sbiw	r24, 0x01	; 1
    476e:	99 f7       	brne	.-26     	; 0x4756 <_ZN23class_T6963C_Drive_V1417ClsTextEv+0x3c>
    4770:	2c 89       	ldd	r18, Y+20	; 0x14
    4772:	48 89       	ldd	r20, Y+16	; 0x10
    4774:	46 95       	lsr	r20
    4776:	89 89       	ldd	r24, Y+17	; 0x11
    4778:	20 52       	subi	r18, 0x20	; 32
    477a:	48 9f       	mul	r20, r24
    477c:	a0 01       	movw	r20, r0
    477e:	11 24       	eor	r1, r1
    4780:	b8 01       	movw	r22, r16
    4782:	ce 01       	movw	r24, r28
    4784:	9e df       	rcall	.-196    	; 0x46c2 <_ZN23class_T6963C_Drive_V1417FillRAMEjjh>
    4786:	2c 89       	ldd	r18, Y+20	; 0x14
    4788:	48 89       	ldd	r20, Y+16	; 0x10
    478a:	46 95       	lsr	r20
    478c:	89 89       	ldd	r24, Y+17	; 0x11
    478e:	20 52       	subi	r18, 0x20	; 32
    4790:	48 9f       	mul	r20, r24
    4792:	a0 01       	movw	r20, r0
    4794:	11 24       	eor	r1, r1
    4796:	b8 01       	movw	r22, r16
    4798:	70 68       	ori	r23, 0x80	; 128
    479a:	db cf       	rjmp	.-74     	; 0x4752 <_ZN23class_T6963C_Drive_V1417ClsTextEv+0x38>
    479c:	82 30       	cpi	r24, 0x02	; 2
    479e:	19 f4       	brne	.+6      	; 0x47a6 <_ZN23class_T6963C_Drive_V1417ClsTextEv+0x8c>
    47a0:	09 a1       	ldd	r16, Y+33	; 0x21
    47a2:	1a a1       	ldd	r17, Y+34	; 0x22
    47a4:	ca cf       	rjmp	.-108    	; 0x473a <_ZN23class_T6963C_Drive_V1417ClsTextEv+0x20>
    47a6:	00 e0       	ldi	r16, 0x00	; 0
    47a8:	10 e0       	ldi	r17, 0x00	; 0
    47aa:	c7 cf       	rjmp	.-114    	; 0x473a <_ZN23class_T6963C_Drive_V1417ClsTextEv+0x20>

000047ac <_ZN23class_T6963C_Drive_V14112DataWriteIncEh>:
    47ac:	cf 93       	push	r28
    47ae:	df 93       	push	r29
    47b0:	ec 01       	movw	r28, r24
    47b2:	46 de       	rcall	.-884    	; 0x4440 <_ZN23class_T6963C_Drive_V1419DataWriteEh>
    47b4:	60 ec       	ldi	r22, 0xC0	; 192
    47b6:	ce 01       	movw	r24, r28
    47b8:	df 91       	pop	r29
    47ba:	cf 91       	pop	r28
    47bc:	5b ce       	rjmp	.-842    	; 0x4474 <_ZN23class_T6963C_Drive_V1418CmdWriteEh>

000047be <_ZN23class_T6963C_Drive_V14115DataWriteNoMoveEh>:
    47be:	cf 93       	push	r28
    47c0:	df 93       	push	r29
    47c2:	ec 01       	movw	r28, r24
    47c4:	3d de       	rcall	.-902    	; 0x4440 <_ZN23class_T6963C_Drive_V1419DataWriteEh>
    47c6:	64 ec       	ldi	r22, 0xC4	; 196
    47c8:	ce 01       	movw	r24, r28
    47ca:	df 91       	pop	r29
    47cc:	cf 91       	pop	r28
    47ce:	52 ce       	rjmp	.-860    	; 0x4474 <_ZN23class_T6963C_Drive_V1418CmdWriteEh>

000047d0 <_ZN23class_T6963C_Drive_V14114DataReadNoMoveEv>:
    47d0:	cf 93       	push	r28
    47d2:	df 93       	push	r29
    47d4:	ec 01       	movw	r28, r24
    47d6:	65 ec       	ldi	r22, 0xC5	; 197
    47d8:	4d de       	rcall	.-870    	; 0x4474 <_ZN23class_T6963C_Drive_V1418CmdWriteEh>
    47da:	ce 01       	movw	r24, r28
    47dc:	df 91       	pop	r29
    47de:	cf 91       	pop	r28
    47e0:	41 ce       	rjmp	.-894    	; 0x4464 <_ZN23class_T6963C_Drive_V1418DataReadEv>

000047e2 <_ZN23class_T6963C_Drive_V1419SetOrModeEv>:
    47e2:	60 e8       	ldi	r22, 0x80	; 128
    47e4:	47 ce       	rjmp	.-882    	; 0x4474 <_ZN23class_T6963C_Drive_V1418CmdWriteEh>

000047e6 <_ZN23class_T6963C_Drive_V14116SetInternalCGROMEv>:
    47e6:	60 e8       	ldi	r22, 0x80	; 128
    47e8:	45 ce       	rjmp	.-886    	; 0x4474 <_ZN23class_T6963C_Drive_V1418CmdWriteEh>

000047ea <_ZN23class_T6963C_Drive_V14116CheckRAMPositionEj>:
    47ea:	cf 93       	push	r28
    47ec:	df 93       	push	r29
    47ee:	ec 01       	movw	r28, r24
    47f0:	bd de       	rcall	.-646    	; 0x456c <_ZN23class_T6963C_Drive_V14117SetAddressPointerEj>
    47f2:	6a ea       	ldi	r22, 0xAA	; 170
    47f4:	ce 01       	movw	r24, r28
    47f6:	e3 df       	rcall	.-58     	; 0x47be <_ZN23class_T6963C_Drive_V14115DataWriteNoMoveEh>
    47f8:	ce 01       	movw	r24, r28
    47fa:	ea df       	rcall	.-44     	; 0x47d0 <_ZN23class_T6963C_Drive_V14114DataReadNoMoveEv>
    47fc:	8a 3a       	cpi	r24, 0xAA	; 170
    47fe:	71 f4       	brne	.+28     	; 0x481c <_ZN23class_T6963C_Drive_V14116CheckRAMPositionEj+0x32>
    4800:	65 e5       	ldi	r22, 0x55	; 85
    4802:	ce 01       	movw	r24, r28
    4804:	dc df       	rcall	.-72     	; 0x47be <_ZN23class_T6963C_Drive_V14115DataWriteNoMoveEh>
    4806:	ce 01       	movw	r24, r28
    4808:	e3 df       	rcall	.-58     	; 0x47d0 <_ZN23class_T6963C_Drive_V14114DataReadNoMoveEv>
    480a:	85 35       	cpi	r24, 0x55	; 85
    480c:	39 f4       	brne	.+14     	; 0x481c <_ZN23class_T6963C_Drive_V14116CheckRAMPositionEj+0x32>
    480e:	60 e0       	ldi	r22, 0x00	; 0
    4810:	ce 01       	movw	r24, r28
    4812:	d5 df       	rcall	.-86     	; 0x47be <_ZN23class_T6963C_Drive_V14115DataWriteNoMoveEh>
    4814:	ce 01       	movw	r24, r28
    4816:	dc df       	rcall	.-72     	; 0x47d0 <_ZN23class_T6963C_Drive_V14114DataReadNoMoveEv>
    4818:	91 e0       	ldi	r25, 0x01	; 1
    481a:	81 11       	cpse	r24, r1
    481c:	90 e0       	ldi	r25, 0x00	; 0
    481e:	89 2f       	mov	r24, r25
    4820:	df 91       	pop	r29
    4822:	cf 91       	pop	r28
    4824:	08 95       	ret

00004826 <_ZN23class_T6963C_Drive_V14118GetComputedRAMSizeEv>:
    4826:	ef 92       	push	r14
    4828:	ff 92       	push	r15
    482a:	0f 93       	push	r16
    482c:	1f 93       	push	r17
    482e:	cf 93       	push	r28
    4830:	df 93       	push	r29
    4832:	ec 01       	movw	r28, r24
    4834:	60 e0       	ldi	r22, 0x00	; 0
    4836:	70 e0       	ldi	r23, 0x00	; 0
    4838:	d8 df       	rcall	.-80     	; 0x47ea <_ZN23class_T6963C_Drive_V14116CheckRAMPositionEj>
    483a:	88 23       	and	r24, r24
    483c:	09 f4       	brne	.+2      	; 0x4840 <_ZN23class_T6963C_Drive_V14118GetComputedRAMSizeEv+0x1a>
    483e:	80 c0       	rjmp	.+256    	; 0x4940 <_ZN23class_T6963C_Drive_V14118GetComputedRAMSizeEv+0x11a>
    4840:	61 e3       	ldi	r22, 0x31	; 49
    4842:	ce 01       	movw	r24, r28
    4844:	bc df       	rcall	.-136    	; 0x47be <_ZN23class_T6963C_Drive_V14115DataWriteNoMoveEh>
    4846:	61 e0       	ldi	r22, 0x01	; 1
    4848:	70 e0       	ldi	r23, 0x00	; 0
    484a:	ce 01       	movw	r24, r28
    484c:	ce df       	rcall	.-100    	; 0x47ea <_ZN23class_T6963C_Drive_V14116CheckRAMPositionEj>
    484e:	88 23       	and	r24, r24
    4850:	09 f4       	brne	.+2      	; 0x4854 <_ZN23class_T6963C_Drive_V14118GetComputedRAMSizeEv+0x2e>
    4852:	76 c0       	rjmp	.+236    	; 0x4940 <_ZN23class_T6963C_Drive_V14118GetComputedRAMSizeEv+0x11a>
    4854:	61 e4       	ldi	r22, 0x41	; 65
    4856:	ce 01       	movw	r24, r28
    4858:	b2 df       	rcall	.-156    	; 0x47be <_ZN23class_T6963C_Drive_V14115DataWriteNoMoveEh>
    485a:	62 e0       	ldi	r22, 0x02	; 2
    485c:	70 e0       	ldi	r23, 0x00	; 0
    485e:	ce 01       	movw	r24, r28
    4860:	c4 df       	rcall	.-120    	; 0x47ea <_ZN23class_T6963C_Drive_V14116CheckRAMPositionEj>
    4862:	88 23       	and	r24, r24
    4864:	09 f4       	brne	.+2      	; 0x4868 <_ZN23class_T6963C_Drive_V14118GetComputedRAMSizeEv+0x42>
    4866:	6c c0       	rjmp	.+216    	; 0x4940 <_ZN23class_T6963C_Drive_V14118GetComputedRAMSizeEv+0x11a>
    4868:	69 e5       	ldi	r22, 0x59	; 89
    486a:	ce 01       	movw	r24, r28
    486c:	a8 df       	rcall	.-176    	; 0x47be <_ZN23class_T6963C_Drive_V14115DataWriteNoMoveEh>
    486e:	63 e0       	ldi	r22, 0x03	; 3
    4870:	70 e0       	ldi	r23, 0x00	; 0
    4872:	ce 01       	movw	r24, r28
    4874:	ba df       	rcall	.-140    	; 0x47ea <_ZN23class_T6963C_Drive_V14116CheckRAMPositionEj>
    4876:	88 23       	and	r24, r24
    4878:	09 f4       	brne	.+2      	; 0x487c <_ZN23class_T6963C_Drive_V14118GetComputedRAMSizeEv+0x56>
    487a:	62 c0       	rjmp	.+196    	; 0x4940 <_ZN23class_T6963C_Drive_V14118GetComputedRAMSizeEv+0x11a>
    487c:	66 e2       	ldi	r22, 0x26	; 38
    487e:	ce 01       	movw	r24, r28
    4880:	9e df       	rcall	.-196    	; 0x47be <_ZN23class_T6963C_Drive_V14115DataWriteNoMoveEh>
    4882:	04 e0       	ldi	r16, 0x04	; 4
    4884:	10 e0       	ldi	r17, 0x00	; 0
    4886:	b8 01       	movw	r22, r16
    4888:	ce 01       	movw	r24, r28
    488a:	70 de       	rcall	.-800    	; 0x456c <_ZN23class_T6963C_Drive_V14117SetAddressPointerEj>
    488c:	ce 01       	movw	r24, r28
    488e:	a0 df       	rcall	.-192    	; 0x47d0 <_ZN23class_T6963C_Drive_V14114DataReadNoMoveEv>
    4890:	98 01       	movw	r18, r16
    4892:	2f 5f       	subi	r18, 0xFF	; 255
    4894:	3f 4f       	sbci	r19, 0xFF	; 255
    4896:	79 01       	movw	r14, r18
    4898:	81 33       	cpi	r24, 0x31	; 49
    489a:	f1 f4       	brne	.+60     	; 0x48d8 <_ZN23class_T6963C_Drive_V14118GetComputedRAMSizeEv+0xb2>
    489c:	b9 01       	movw	r22, r18
    489e:	ce 01       	movw	r24, r28
    48a0:	65 de       	rcall	.-822    	; 0x456c <_ZN23class_T6963C_Drive_V14117SetAddressPointerEj>
    48a2:	ce 01       	movw	r24, r28
    48a4:	95 df       	rcall	.-214    	; 0x47d0 <_ZN23class_T6963C_Drive_V14114DataReadNoMoveEv>
    48a6:	81 34       	cpi	r24, 0x41	; 65
    48a8:	21 f0       	breq	.+8      	; 0x48b2 <_ZN23class_T6963C_Drive_V14118GetComputedRAMSizeEv+0x8c>
    48aa:	b8 01       	movw	r22, r16
    48ac:	ce 01       	movw	r24, r28
    48ae:	5e de       	rcall	.-836    	; 0x456c <_ZN23class_T6963C_Drive_V14117SetAddressPointerEj>
    48b0:	13 c0       	rjmp	.+38     	; 0x48d8 <_ZN23class_T6963C_Drive_V14118GetComputedRAMSizeEv+0xb2>
    48b2:	b8 01       	movw	r22, r16
    48b4:	6e 5f       	subi	r22, 0xFE	; 254
    48b6:	7f 4f       	sbci	r23, 0xFF	; 255
    48b8:	ce 01       	movw	r24, r28
    48ba:	58 de       	rcall	.-848    	; 0x456c <_ZN23class_T6963C_Drive_V14117SetAddressPointerEj>
    48bc:	ce 01       	movw	r24, r28
    48be:	88 df       	rcall	.-240    	; 0x47d0 <_ZN23class_T6963C_Drive_V14114DataReadNoMoveEv>
    48c0:	89 35       	cpi	r24, 0x59	; 89
    48c2:	99 f7       	brne	.-26     	; 0x48aa <_ZN23class_T6963C_Drive_V14118GetComputedRAMSizeEv+0x84>
    48c4:	b8 01       	movw	r22, r16
    48c6:	6d 5f       	subi	r22, 0xFD	; 253
    48c8:	7f 4f       	sbci	r23, 0xFF	; 255
    48ca:	ce 01       	movw	r24, r28
    48cc:	4f de       	rcall	.-866    	; 0x456c <_ZN23class_T6963C_Drive_V14117SetAddressPointerEj>
    48ce:	ce 01       	movw	r24, r28
    48d0:	7f df       	rcall	.-258    	; 0x47d0 <_ZN23class_T6963C_Drive_V14114DataReadNoMoveEv>
    48d2:	86 32       	cpi	r24, 0x26	; 38
    48d4:	51 f7       	brne	.-44     	; 0x48aa <_ZN23class_T6963C_Drive_V14118GetComputedRAMSizeEv+0x84>
    48d6:	03 c0       	rjmp	.+6      	; 0x48de <_ZN23class_T6963C_Drive_V14118GetComputedRAMSizeEv+0xb8>
    48d8:	87 01       	movw	r16, r14
    48da:	ef 28       	or	r14, r15
    48dc:	a1 f6       	brne	.-88     	; 0x4886 <_ZN23class_T6963C_Drive_V14118GetComputedRAMSizeEv+0x60>
    48de:	8f a9       	ldd	r24, Y+55	; 0x37
    48e0:	98 ad       	ldd	r25, Y+56	; 0x38
    48e2:	00 97       	sbiw	r24, 0x00	; 0
    48e4:	19 f0       	breq	.+6      	; 0x48ec <_ZN23class_T6963C_Drive_V14118GetComputedRAMSizeEv+0xc6>
    48e6:	01 97       	sbiw	r24, 0x01	; 1
    48e8:	a9 f0       	breq	.+42     	; 0x4914 <_ZN23class_T6963C_Drive_V14118GetComputedRAMSizeEv+0xee>
    48ea:	2a c0       	rjmp	.+84     	; 0x4940 <_ZN23class_T6963C_Drive_V14118GetComputedRAMSizeEv+0x11a>
    48ec:	38 89       	ldd	r19, Y+16	; 0x10
    48ee:	29 89       	ldd	r18, Y+17	; 0x11
    48f0:	89 89       	ldd	r24, Y+17	; 0x11
    48f2:	98 89       	ldd	r25, Y+16	; 0x10
    48f4:	89 9f       	mul	r24, r25
    48f6:	c0 01       	movw	r24, r0
    48f8:	11 24       	eor	r1, r1
    48fa:	73 e0       	ldi	r23, 0x03	; 3
    48fc:	88 0f       	add	r24, r24
    48fe:	99 1f       	adc	r25, r25
    4900:	7a 95       	dec	r23
    4902:	e1 f7       	brne	.-8      	; 0x48fc <_ZN23class_T6963C_Drive_V14118GetComputedRAMSizeEv+0xd6>
    4904:	32 9f       	mul	r19, r18
    4906:	80 0d       	add	r24, r0
    4908:	91 1d       	adc	r25, r1
    490a:	11 24       	eor	r1, r1
    490c:	08 17       	cp	r16, r24
    490e:	19 07       	cpc	r17, r25
    4910:	d0 f4       	brcc	.+52     	; 0x4946 <_ZN23class_T6963C_Drive_V14118GetComputedRAMSizeEv+0x120>
    4912:	16 c0       	rjmp	.+44     	; 0x4940 <_ZN23class_T6963C_Drive_V14118GetComputedRAMSizeEv+0x11a>
    4914:	c8 01       	movw	r24, r16
    4916:	88 0f       	add	r24, r24
    4918:	99 1f       	adc	r25, r25
    491a:	58 89       	ldd	r21, Y+16	; 0x10
    491c:	49 89       	ldd	r20, Y+17	; 0x11
    491e:	29 89       	ldd	r18, Y+17	; 0x11
    4920:	38 89       	ldd	r19, Y+16	; 0x10
    4922:	23 9f       	mul	r18, r19
    4924:	90 01       	movw	r18, r0
    4926:	11 24       	eor	r1, r1
    4928:	63 e0       	ldi	r22, 0x03	; 3
    492a:	22 0f       	add	r18, r18
    492c:	33 1f       	adc	r19, r19
    492e:	6a 95       	dec	r22
    4930:	e1 f7       	brne	.-8      	; 0x492a <_ZN23class_T6963C_Drive_V14118GetComputedRAMSizeEv+0x104>
    4932:	54 9f       	mul	r21, r20
    4934:	20 0d       	add	r18, r0
    4936:	31 1d       	adc	r19, r1
    4938:	11 24       	eor	r1, r1
    493a:	82 17       	cp	r24, r18
    493c:	93 07       	cpc	r25, r19
    493e:	20 f4       	brcc	.+8      	; 0x4948 <_ZN23class_T6963C_Drive_V14118GetComputedRAMSizeEv+0x122>
    4940:	80 e0       	ldi	r24, 0x00	; 0
    4942:	90 e0       	ldi	r25, 0x00	; 0
    4944:	01 c0       	rjmp	.+2      	; 0x4948 <_ZN23class_T6963C_Drive_V14118GetComputedRAMSizeEv+0x122>
    4946:	c8 01       	movw	r24, r16
    4948:	df 91       	pop	r29
    494a:	cf 91       	pop	r28
    494c:	1f 91       	pop	r17
    494e:	0f 91       	pop	r16
    4950:	ff 90       	pop	r15
    4952:	ef 90       	pop	r14
    4954:	08 95       	ret

00004956 <_ZN23class_T6963C_Drive_V141D1Ev>:
    4956:	2a e1       	ldi	r18, 0x1A	; 26
    4958:	31 e0       	ldi	r19, 0x01	; 1
    495a:	fc 01       	movw	r30, r24
    495c:	31 83       	std	Z+1, r19	; 0x01
    495e:	20 83       	st	Z, r18
    4960:	6e c8       	rjmp	.-3876   	; 0x3a3e <_ZN16class_GraphBasicD1Ev>

00004962 <_ZN23class_T6963C_Drive_V14119DrawPatternWithMaskEhh9_enum_Penb>:
    4962:	ff 92       	push	r15
    4964:	0f 93       	push	r16
    4966:	1f 93       	push	r17
    4968:	cf 93       	push	r28
    496a:	df 93       	push	r29
    496c:	ec 01       	movw	r28, r24
    496e:	ea 81       	ldd	r30, Y+2	; 0x02
    4970:	fb 81       	ldd	r31, Y+3	; 0x03
    4972:	f7 fd       	sbrc	r31, 7
    4974:	38 c0       	rjmp	.+112    	; 0x49e6 <_ZN23class_T6963C_Drive_V14119DrawPatternWithMaskEhh9_enum_Penb+0x84>
    4976:	90 2f       	mov	r25, r16
    4978:	f2 2e       	mov	r15, r18
    497a:	14 2f       	mov	r17, r20
    497c:	06 2f       	mov	r16, r22
    497e:	e2 30       	cpi	r30, 0x02	; 2
    4980:	f1 05       	cpc	r31, r1
    4982:	1c f0       	brlt	.+6      	; 0x498a <_ZN23class_T6963C_Drive_V14119DrawPatternWithMaskEhh9_enum_Penb+0x28>
    4984:	32 97       	sbiw	r30, 0x02	; 2
    4986:	91 f0       	breq	.+36     	; 0x49ac <_ZN23class_T6963C_Drive_V14119DrawPatternWithMaskEhh9_enum_Penb+0x4a>
    4988:	2e c0       	rjmp	.+92     	; 0x49e6 <_ZN23class_T6963C_Drive_V14119DrawPatternWithMaskEhh9_enum_Penb+0x84>
    498a:	99 23       	and	r25, r25
    498c:	11 f0       	breq	.+4      	; 0x4992 <_ZN23class_T6963C_Drive_V14119DrawPatternWithMaskEhh9_enum_Penb+0x30>
    498e:	62 2f       	mov	r22, r18
    4990:	10 c0       	rjmp	.+32     	; 0x49b2 <_ZN23class_T6963C_Drive_V14119DrawPatternWithMaskEhh9_enum_Penb+0x50>
    4992:	6f 3f       	cpi	r22, 0xFF	; 255
    4994:	11 f4       	brne	.+4      	; 0x499a <_ZN23class_T6963C_Drive_V14119DrawPatternWithMaskEhh9_enum_Penb+0x38>
    4996:	62 2f       	mov	r22, r18
    4998:	1f c0       	rjmp	.+62     	; 0x49d8 <_ZN23class_T6963C_Drive_V14119DrawPatternWithMaskEhh9_enum_Penb+0x76>
    499a:	ce 01       	movw	r24, r28
    499c:	19 df       	rcall	.-462    	; 0x47d0 <_ZN23class_T6963C_Drive_V14114DataReadNoMoveEv>
    499e:	60 2f       	mov	r22, r16
    49a0:	60 95       	com	r22
    49a2:	86 23       	and	r24, r22
    49a4:	f0 22       	and	r15, r16
    49a6:	68 2f       	mov	r22, r24
    49a8:	6f 29       	or	r22, r15
    49aa:	16 c0       	rjmp	.+44     	; 0x49d8 <_ZN23class_T6963C_Drive_V14119DrawPatternWithMaskEhh9_enum_Penb+0x76>
    49ac:	99 23       	and	r25, r25
    49ae:	41 f0       	breq	.+16     	; 0x49c0 <_ZN23class_T6963C_Drive_V14119DrawPatternWithMaskEhh9_enum_Penb+0x5e>
    49b0:	64 2f       	mov	r22, r20
    49b2:	ce 01       	movw	r24, r28
    49b4:	df 91       	pop	r29
    49b6:	cf 91       	pop	r28
    49b8:	1f 91       	pop	r17
    49ba:	0f 91       	pop	r16
    49bc:	ff 90       	pop	r15
    49be:	6c cd       	rjmp	.-1320   	; 0x4498 <_ZN23class_T6963C_Drive_V14113DataAutoWriteEh>
    49c0:	6f 3f       	cpi	r22, 0xFF	; 255
    49c2:	11 f4       	brne	.+4      	; 0x49c8 <_ZN23class_T6963C_Drive_V14119DrawPatternWithMaskEhh9_enum_Penb+0x66>
    49c4:	64 2f       	mov	r22, r20
    49c6:	08 c0       	rjmp	.+16     	; 0x49d8 <_ZN23class_T6963C_Drive_V14119DrawPatternWithMaskEhh9_enum_Penb+0x76>
    49c8:	ce 01       	movw	r24, r28
    49ca:	02 df       	rcall	.-508    	; 0x47d0 <_ZN23class_T6963C_Drive_V14114DataReadNoMoveEv>
    49cc:	60 2f       	mov	r22, r16
    49ce:	60 95       	com	r22
    49d0:	86 23       	and	r24, r22
    49d2:	10 23       	and	r17, r16
    49d4:	68 2f       	mov	r22, r24
    49d6:	61 2b       	or	r22, r17
    49d8:	ce 01       	movw	r24, r28
    49da:	df 91       	pop	r29
    49dc:	cf 91       	pop	r28
    49de:	1f 91       	pop	r17
    49e0:	0f 91       	pop	r16
    49e2:	ff 90       	pop	r15
    49e4:	e3 ce       	rjmp	.-570    	; 0x47ac <_ZN23class_T6963C_Drive_V14112DataWriteIncEh>
    49e6:	df 91       	pop	r29
    49e8:	cf 91       	pop	r28
    49ea:	1f 91       	pop	r17
    49ec:	0f 91       	pop	r16
    49ee:	ff 90       	pop	r15
    49f0:	08 95       	ret

000049f2 <_ZN23class_T6963C_Drive_V14112DrawHorzLineEiii9_enum_Pen>:
    49f2:	6f 92       	push	r6
    49f4:	7f 92       	push	r7
    49f6:	8f 92       	push	r8
    49f8:	9f 92       	push	r9
    49fa:	af 92       	push	r10
    49fc:	bf 92       	push	r11
    49fe:	cf 92       	push	r12
    4a00:	df 92       	push	r13
    4a02:	ef 92       	push	r14
    4a04:	ff 92       	push	r15
    4a06:	0f 93       	push	r16
    4a08:	1f 93       	push	r17
    4a0a:	cf 93       	push	r28
    4a0c:	df 93       	push	r29
    4a0e:	1f 92       	push	r1
    4a10:	cd b7       	in	r28, 0x3d	; 61
    4a12:	de b7       	in	r29, 0x3e	; 62
    4a14:	3c 01       	movw	r6, r24
    4a16:	4b 01       	movw	r8, r22
    4a18:	5a 01       	movw	r10, r20
    4a1a:	69 01       	movw	r12, r18
    4a1c:	78 01       	movw	r14, r16
    4a1e:	24 17       	cp	r18, r20
    4a20:	35 07       	cpc	r19, r21
    4a22:	24 f4       	brge	.+8      	; 0x4a2c <_ZN23class_T6963C_Drive_V14112DrawHorzLineEiii9_enum_Pen+0x3a>
    4a24:	ca 01       	movw	r24, r20
    4a26:	59 01       	movw	r10, r18
    4a28:	6a 01       	movw	r12, r20
    4a2a:	02 c0       	rjmp	.+4      	; 0x4a30 <_ZN23class_T6963C_Drive_V14112DrawHorzLineEiii9_enum_Pen+0x3e>
    4a2c:	80 e0       	ldi	r24, 0x00	; 0
    4a2e:	90 e0       	ldi	r25, 0x00	; 0
    4a30:	f3 01       	movw	r30, r6
    4a32:	26 ad       	ldd	r18, Z+62	; 0x3e
    4a34:	37 ad       	ldd	r19, Z+63	; 0x3f
    4a36:	82 16       	cp	r8, r18
    4a38:	93 06       	cpc	r9, r19
    4a3a:	0c f4       	brge	.+2      	; 0x4a3e <_ZN23class_T6963C_Drive_V14112DrawHorzLineEiii9_enum_Pen+0x4c>
    4a3c:	b6 c0       	rjmp	.+364    	; 0x4baa <_ZN23class_T6963C_Drive_V14112DrawHorzLineEiii9_enum_Pen+0x1b8>
    4a3e:	e0 5c       	subi	r30, 0xC0	; 192
    4a40:	ff 4f       	sbci	r31, 0xFF	; 255
    4a42:	20 81       	ld	r18, Z
    4a44:	31 81       	ldd	r19, Z+1	; 0x01
    4a46:	28 15       	cp	r18, r8
    4a48:	39 05       	cpc	r19, r9
    4a4a:	0c f4       	brge	.+2      	; 0x4a4e <_ZN23class_T6963C_Drive_V14112DrawHorzLineEiii9_enum_Pen+0x5c>
    4a4c:	ae c0       	rjmp	.+348    	; 0x4baa <_ZN23class_T6963C_Drive_V14112DrawHorzLineEiii9_enum_Pen+0x1b8>
    4a4e:	f3 01       	movw	r30, r6
    4a50:	22 8d       	ldd	r18, Z+26	; 0x1a
    4a52:	21 30       	cpi	r18, 0x01	; 1
    4a54:	31 f0       	breq	.+12     	; 0x4a62 <_ZN23class_T6963C_Drive_V14112DrawHorzLineEiii9_enum_Pen+0x70>
    4a56:	22 30       	cpi	r18, 0x02	; 2
    4a58:	41 f4       	brne	.+16     	; 0x4a6a <_ZN23class_T6963C_Drive_V14112DrawHorzLineEiii9_enum_Pen+0x78>
    4a5a:	f3 01       	movw	r30, r6
    4a5c:	65 a1       	ldd	r22, Z+37	; 0x25
    4a5e:	76 a1       	ldd	r23, Z+38	; 0x26
    4a60:	06 c0       	rjmp	.+12     	; 0x4a6e <_ZN23class_T6963C_Drive_V14112DrawHorzLineEiii9_enum_Pen+0x7c>
    4a62:	f3 01       	movw	r30, r6
    4a64:	63 a1       	ldd	r22, Z+35	; 0x23
    4a66:	74 a1       	ldd	r23, Z+36	; 0x24
    4a68:	02 c0       	rjmp	.+4      	; 0x4a6e <_ZN23class_T6963C_Drive_V14112DrawHorzLineEiii9_enum_Pen+0x7c>
    4a6a:	60 e0       	ldi	r22, 0x00	; 0
    4a6c:	70 e0       	ldi	r23, 0x00	; 0
    4a6e:	f3 01       	movw	r30, r6
    4a70:	27 a9       	ldd	r18, Z+55	; 0x37
    4a72:	30 ad       	ldd	r19, Z+56	; 0x38
    4a74:	21 30       	cpi	r18, 0x01	; 1
    4a76:	31 05       	cpc	r19, r1
    4a78:	91 f4       	brne	.+36     	; 0x4a9e <_ZN23class_T6963C_Drive_V14112DrawHorzLineEiii9_enum_Pen+0xac>
    4a7a:	85 a9       	ldd	r24, Z+53	; 0x35
    4a7c:	96 a9       	ldd	r25, Z+54	; 0x36
    4a7e:	95 95       	asr	r25
    4a80:	87 95       	ror	r24
    4a82:	88 16       	cp	r8, r24
    4a84:	99 06       	cpc	r9, r25
    4a86:	4c f0       	brlt	.+18     	; 0x4a9a <_ZN23class_T6963C_Drive_V14112DrawHorzLineEiii9_enum_Pen+0xa8>
    4a88:	85 a9       	ldd	r24, Z+53	; 0x35
    4a8a:	96 a9       	ldd	r25, Z+54	; 0x36
    4a8c:	95 95       	asr	r25
    4a8e:	87 95       	ror	r24
    4a90:	88 1a       	sub	r8, r24
    4a92:	99 0a       	sbc	r9, r25
    4a94:	80 e0       	ldi	r24, 0x00	; 0
    4a96:	90 e8       	ldi	r25, 0x80	; 128
    4a98:	02 c0       	rjmp	.+4      	; 0x4a9e <_ZN23class_T6963C_Drive_V14112DrawHorzLineEiii9_enum_Pen+0xac>
    4a9a:	80 e0       	ldi	r24, 0x00	; 0
    4a9c:	90 e0       	ldi	r25, 0x00	; 0
    4a9e:	f3 01       	movw	r30, r6
    4aa0:	22 ad       	ldd	r18, Z+58	; 0x3a
    4aa2:	33 ad       	ldd	r19, Z+59	; 0x3b
    4aa4:	a2 16       	cp	r10, r18
    4aa6:	b3 06       	cpc	r11, r19
    4aa8:	34 f4       	brge	.+12     	; 0x4ab6 <_ZN23class_T6963C_Drive_V14112DrawHorzLineEiii9_enum_Pen+0xc4>
    4aaa:	22 ad       	ldd	r18, Z+58	; 0x3a
    4aac:	33 ad       	ldd	r19, Z+59	; 0x3b
    4aae:	c2 16       	cp	r12, r18
    4ab0:	d3 06       	cpc	r13, r19
    4ab2:	0c f4       	brge	.+2      	; 0x4ab6 <_ZN23class_T6963C_Drive_V14112DrawHorzLineEiii9_enum_Pen+0xc4>
    4ab4:	7a c0       	rjmp	.+244    	; 0x4baa <_ZN23class_T6963C_Drive_V14112DrawHorzLineEiii9_enum_Pen+0x1b8>
    4ab6:	f3 01       	movw	r30, r6
    4ab8:	24 ad       	ldd	r18, Z+60	; 0x3c
    4aba:	35 ad       	ldd	r19, Z+61	; 0x3d
    4abc:	2a 15       	cp	r18, r10
    4abe:	3b 05       	cpc	r19, r11
    4ac0:	3c f4       	brge	.+14     	; 0x4ad0 <_ZN23class_T6963C_Drive_V14112DrawHorzLineEiii9_enum_Pen+0xde>
    4ac2:	f3 01       	movw	r30, r6
    4ac4:	24 ad       	ldd	r18, Z+60	; 0x3c
    4ac6:	35 ad       	ldd	r19, Z+61	; 0x3d
    4ac8:	2c 15       	cp	r18, r12
    4aca:	3d 05       	cpc	r19, r13
    4acc:	0c f4       	brge	.+2      	; 0x4ad0 <_ZN23class_T6963C_Drive_V14112DrawHorzLineEiii9_enum_Pen+0xde>
    4ace:	6d c0       	rjmp	.+218    	; 0x4baa <_ZN23class_T6963C_Drive_V14112DrawHorzLineEiii9_enum_Pen+0x1b8>
    4ad0:	f3 01       	movw	r30, r6
    4ad2:	22 ad       	ldd	r18, Z+58	; 0x3a
    4ad4:	33 ad       	ldd	r19, Z+59	; 0x3b
    4ad6:	a2 16       	cp	r10, r18
    4ad8:	b3 06       	cpc	r11, r19
    4ada:	1c f4       	brge	.+6      	; 0x4ae2 <_ZN23class_T6963C_Drive_V14112DrawHorzLineEiii9_enum_Pen+0xf0>
    4adc:	f3 01       	movw	r30, r6
    4ade:	a2 ac       	ldd	r10, Z+58	; 0x3a
    4ae0:	b3 ac       	ldd	r11, Z+59	; 0x3b
    4ae2:	f3 01       	movw	r30, r6
    4ae4:	24 ad       	ldd	r18, Z+60	; 0x3c
    4ae6:	35 ad       	ldd	r19, Z+61	; 0x3d
    4ae8:	2c 15       	cp	r18, r12
    4aea:	3d 05       	cpc	r19, r13
    4aec:	14 f4       	brge	.+4      	; 0x4af2 <_ZN23class_T6963C_Drive_V14112DrawHorzLineEiii9_enum_Pen+0x100>
    4aee:	c4 ac       	ldd	r12, Z+60	; 0x3c
    4af0:	d5 ac       	ldd	r13, Z+61	; 0x3d
    4af2:	f3 01       	movw	r30, r6
    4af4:	21 89       	ldd	r18, Z+17	; 0x11
    4af6:	86 0f       	add	r24, r22
    4af8:	97 1f       	adc	r25, r23
    4afa:	28 9d       	mul	r18, r8
    4afc:	b0 01       	movw	r22, r0
    4afe:	29 9d       	mul	r18, r9
    4b00:	70 0d       	add	r23, r0
    4b02:	11 24       	eor	r1, r1
    4b04:	95 01       	movw	r18, r10
    4b06:	43 e0       	ldi	r20, 0x03	; 3
    4b08:	35 95       	asr	r19
    4b0a:	27 95       	ror	r18
    4b0c:	4a 95       	dec	r20
    4b0e:	e1 f7       	brne	.-8      	; 0x4b08 <_ZN23class_T6963C_Drive_V14112DrawHorzLineEiii9_enum_Pen+0x116>
    4b10:	26 0f       	add	r18, r22
    4b12:	37 1f       	adc	r19, r23
    4b14:	bc 01       	movw	r22, r24
    4b16:	62 0f       	add	r22, r18
    4b18:	73 1f       	adc	r23, r19
    4b1a:	c3 01       	movw	r24, r6
    4b1c:	27 dd       	rcall	.-1458   	; 0x456c <_ZN23class_T6963C_Drive_V14117SetAddressPointerEj>
    4b1e:	f7 e0       	ldi	r31, 0x07	; 7
    4b20:	8f 22       	and	r8, r31
    4b22:	99 24       	eor	r9, r9
    4b24:	86 0c       	add	r8, r6
    4b26:	97 1c       	adc	r9, r7
    4b28:	f4 01       	movw	r30, r8
    4b2a:	ee 5b       	subi	r30, 0xBE	; 190
    4b2c:	ff 4f       	sbci	r31, 0xFF	; 255
    4b2e:	10 81       	ld	r17, Z
    4b30:	2a 2d       	mov	r18, r10
    4b32:	27 70       	andi	r18, 0x07	; 7
    4b34:	80 e8       	ldi	r24, 0x80	; 128
    4b36:	90 e0       	ldi	r25, 0x00	; 0
    4b38:	02 c0       	rjmp	.+4      	; 0x4b3e <_ZN23class_T6963C_Drive_V14112DrawHorzLineEiii9_enum_Pen+0x14c>
    4b3a:	95 95       	asr	r25
    4b3c:	87 95       	ror	r24
    4b3e:	2a 95       	dec	r18
    4b40:	e2 f7       	brpl	.-8      	; 0x4b3a <_ZN23class_T6963C_Drive_V14112DrawHorzLineEiii9_enum_Pen+0x148>
    4b42:	ca 18       	sub	r12, r10
    4b44:	db 08       	sbc	r13, r11
    4b46:	9f ef       	ldi	r25, 0xFF	; 255
    4b48:	c9 1a       	sub	r12, r25
    4b4a:	d9 0a       	sbc	r13, r25
    4b4c:	a1 2c       	mov	r10, r1
    4b4e:	b1 2c       	mov	r11, r1
    4b50:	91 2c       	mov	r9, r1
    4b52:	60 e0       	ldi	r22, 0x00	; 0
    4b54:	ac 14       	cp	r10, r12
    4b56:	bd 04       	cpc	r11, r13
    4b58:	e8 f4       	brcc	.+58     	; 0x4b94 <_ZN23class_T6963C_Drive_V14112DrawHorzLineEiii9_enum_Pen+0x1a2>
    4b5a:	68 2b       	or	r22, r24
    4b5c:	90 e0       	ldi	r25, 0x00	; 0
    4b5e:	95 95       	asr	r25
    4b60:	87 95       	ror	r24
    4b62:	00 97       	sbiw	r24, 0x00	; 0
    4b64:	99 f4       	brne	.+38     	; 0x4b8c <_ZN23class_T6963C_Drive_V14112DrawHorzLineEiii9_enum_Pen+0x19a>
    4b66:	99 20       	and	r9, r9
    4b68:	31 f0       	breq	.+12     	; 0x4b76 <_ZN23class_T6963C_Drive_V14112DrawHorzLineEiii9_enum_Pen+0x184>
    4b6a:	01 e0       	ldi	r16, 0x01	; 1
    4b6c:	97 01       	movw	r18, r14
    4b6e:	41 2f       	mov	r20, r17
    4b70:	c3 01       	movw	r24, r6
    4b72:	f7 de       	rcall	.-530    	; 0x4962 <_ZN23class_T6963C_Drive_V14119DrawPatternWithMaskEhh9_enum_Penb>
    4b74:	09 c0       	rjmp	.+18     	; 0x4b88 <_ZN23class_T6963C_Drive_V14112DrawHorzLineEiii9_enum_Pen+0x196>
    4b76:	00 e0       	ldi	r16, 0x00	; 0
    4b78:	97 01       	movw	r18, r14
    4b7a:	41 2f       	mov	r20, r17
    4b7c:	c3 01       	movw	r24, r6
    4b7e:	f1 de       	rcall	.-542    	; 0x4962 <_ZN23class_T6963C_Drive_V14119DrawPatternWithMaskEhh9_enum_Penb>
    4b80:	c3 01       	movw	r24, r6
    4b82:	4c dd       	rcall	.-1384   	; 0x461c <_ZN23class_T6963C_Drive_V14116SetModeAutoWriteEv>
    4b84:	99 24       	eor	r9, r9
    4b86:	93 94       	inc	r9
    4b88:	60 e0       	ldi	r22, 0x00	; 0
    4b8a:	80 e8       	ldi	r24, 0x80	; 128
    4b8c:	ef ef       	ldi	r30, 0xFF	; 255
    4b8e:	ae 1a       	sub	r10, r30
    4b90:	be 0a       	sbc	r11, r30
    4b92:	e0 cf       	rjmp	.-64     	; 0x4b54 <_ZN23class_T6963C_Drive_V14112DrawHorzLineEiii9_enum_Pen+0x162>
    4b94:	c3 01       	movw	r24, r6
    4b96:	69 83       	std	Y+1, r22	; 0x01
    4b98:	43 dd       	rcall	.-1402   	; 0x4620 <_ZN23class_T6963C_Drive_V14116SetModeAutoResetEv>
    4b9a:	69 81       	ldd	r22, Y+1	; 0x01
    4b9c:	66 23       	and	r22, r22
    4b9e:	29 f0       	breq	.+10     	; 0x4baa <_ZN23class_T6963C_Drive_V14112DrawHorzLineEiii9_enum_Pen+0x1b8>
    4ba0:	00 e0       	ldi	r16, 0x00	; 0
    4ba2:	97 01       	movw	r18, r14
    4ba4:	41 2f       	mov	r20, r17
    4ba6:	c3 01       	movw	r24, r6
    4ba8:	dc de       	rcall	.-584    	; 0x4962 <_ZN23class_T6963C_Drive_V14119DrawPatternWithMaskEhh9_enum_Penb>
    4baa:	0f 90       	pop	r0
    4bac:	df 91       	pop	r29
    4bae:	cf 91       	pop	r28
    4bb0:	1f 91       	pop	r17
    4bb2:	0f 91       	pop	r16
    4bb4:	ff 90       	pop	r15
    4bb6:	ef 90       	pop	r14
    4bb8:	df 90       	pop	r13
    4bba:	cf 90       	pop	r12
    4bbc:	bf 90       	pop	r11
    4bbe:	af 90       	pop	r10
    4bc0:	9f 90       	pop	r9
    4bc2:	8f 90       	pop	r8
    4bc4:	7f 90       	pop	r7
    4bc6:	6f 90       	pop	r6
    4bc8:	08 95       	ret

00004bca <_ZN23class_T6963C_Drive_V1418LocateXYEii>:
    4bca:	0f 93       	push	r16
    4bcc:	1f 93       	push	r17
    4bce:	cf 93       	push	r28
    4bd0:	df 93       	push	r29
    4bd2:	ec 01       	movw	r28, r24
    4bd4:	78 ab       	std	Y+48, r23	; 0x30
    4bd6:	6f a7       	std	Y+47, r22	; 0x2f
    4bd8:	5a ab       	std	Y+50, r21	; 0x32
    4bda:	49 ab       	std	Y+49, r20	; 0x31
    4bdc:	8a ad       	ldd	r24, Y+58	; 0x3a
    4bde:	9b ad       	ldd	r25, Y+59	; 0x3b
    4be0:	68 17       	cp	r22, r24
    4be2:	79 07       	cpc	r23, r25
    4be4:	94 f0       	brlt	.+36     	; 0x4c0a <_ZN23class_T6963C_Drive_V1418LocateXYEii+0x40>
    4be6:	8c ad       	ldd	r24, Y+60	; 0x3c
    4be8:	9d ad       	ldd	r25, Y+61	; 0x3d
    4bea:	86 17       	cp	r24, r22
    4bec:	97 07       	cpc	r25, r23
    4bee:	6c f0       	brlt	.+26     	; 0x4c0a <_ZN23class_T6963C_Drive_V1418LocateXYEii+0x40>
    4bf0:	8e ad       	ldd	r24, Y+62	; 0x3e
    4bf2:	9f ad       	ldd	r25, Y+63	; 0x3f
    4bf4:	48 17       	cp	r20, r24
    4bf6:	59 07       	cpc	r21, r25
    4bf8:	44 f0       	brlt	.+16     	; 0x4c0a <_ZN23class_T6963C_Drive_V1418LocateXYEii+0x40>
    4bfa:	fe 01       	movw	r30, r28
    4bfc:	e0 5c       	subi	r30, 0xC0	; 192
    4bfe:	ff 4f       	sbci	r31, 0xFF	; 255
    4c00:	80 81       	ld	r24, Z
    4c02:	91 81       	ldd	r25, Z+1	; 0x01
    4c04:	84 17       	cp	r24, r20
    4c06:	95 07       	cpc	r25, r21
    4c08:	14 f4       	brge	.+4      	; 0x4c0e <_ZN23class_T6963C_Drive_V1418LocateXYEii+0x44>
    4c0a:	80 e0       	ldi	r24, 0x00	; 0
    4c0c:	4a c0       	rjmp	.+148    	; 0x4ca2 <_ZN23class_T6963C_Drive_V1418LocateXYEii+0xd8>
    4c0e:	8a 8d       	ldd	r24, Y+26	; 0x1a
    4c10:	81 30       	cpi	r24, 0x01	; 1
    4c12:	19 f4       	brne	.+6      	; 0x4c1a <_ZN23class_T6963C_Drive_V1418LocateXYEii+0x50>
    4c14:	8b a1       	ldd	r24, Y+35	; 0x23
    4c16:	9c a1       	ldd	r25, Y+36	; 0x24
    4c18:	05 c0       	rjmp	.+10     	; 0x4c24 <_ZN23class_T6963C_Drive_V1418LocateXYEii+0x5a>
    4c1a:	82 30       	cpi	r24, 0x02	; 2
    4c1c:	09 f0       	breq	.+2      	; 0x4c20 <_ZN23class_T6963C_Drive_V1418LocateXYEii+0x56>
    4c1e:	3e c0       	rjmp	.+124    	; 0x4c9c <_ZN23class_T6963C_Drive_V1418LocateXYEii+0xd2>
    4c20:	8d a1       	ldd	r24, Y+37	; 0x25
    4c22:	9e a1       	ldd	r25, Y+38	; 0x26
    4c24:	2f a9       	ldd	r18, Y+55	; 0x37
    4c26:	38 ad       	ldd	r19, Y+56	; 0x38
    4c28:	21 30       	cpi	r18, 0x01	; 1
    4c2a:	31 05       	cpc	r19, r1
    4c2c:	81 f4       	brne	.+32     	; 0x4c4e <_ZN23class_T6963C_Drive_V1418LocateXYEii+0x84>
    4c2e:	2d a9       	ldd	r18, Y+53	; 0x35
    4c30:	3e a9       	ldd	r19, Y+54	; 0x36
    4c32:	35 95       	asr	r19
    4c34:	27 95       	ror	r18
    4c36:	42 17       	cp	r20, r18
    4c38:	53 07       	cpc	r21, r19
    4c3a:	4c f0       	brlt	.+18     	; 0x4c4e <_ZN23class_T6963C_Drive_V1418LocateXYEii+0x84>
    4c3c:	2d a9       	ldd	r18, Y+53	; 0x35
    4c3e:	3e a9       	ldd	r19, Y+54	; 0x36
    4c40:	35 95       	asr	r19
    4c42:	27 95       	ror	r18
    4c44:	42 1b       	sub	r20, r18
    4c46:	53 0b       	sbc	r21, r19
    4c48:	00 e0       	ldi	r16, 0x00	; 0
    4c4a:	10 e8       	ldi	r17, 0x80	; 128
    4c4c:	02 c0       	rjmp	.+4      	; 0x4c52 <_ZN23class_T6963C_Drive_V1418LocateXYEii+0x88>
    4c4e:	00 e0       	ldi	r16, 0x00	; 0
    4c50:	10 e0       	ldi	r17, 0x00	; 0
    4c52:	29 89       	ldd	r18, Y+17	; 0x11
    4c54:	80 0f       	add	r24, r16
    4c56:	91 1f       	adc	r25, r17
    4c58:	24 9f       	mul	r18, r20
    4c5a:	80 01       	movw	r16, r0
    4c5c:	25 9f       	mul	r18, r21
    4c5e:	10 0d       	add	r17, r0
    4c60:	11 24       	eor	r1, r1
    4c62:	23 e0       	ldi	r18, 0x03	; 3
    4c64:	75 95       	asr	r23
    4c66:	67 95       	ror	r22
    4c68:	2a 95       	dec	r18
    4c6a:	e1 f7       	brne	.-8      	; 0x4c64 <_ZN23class_T6963C_Drive_V1418LocateXYEii+0x9a>
    4c6c:	60 0f       	add	r22, r16
    4c6e:	71 1f       	adc	r23, r17
    4c70:	8c 01       	movw	r16, r24
    4c72:	06 0f       	add	r16, r22
    4c74:	17 1f       	adc	r17, r23
    4c76:	80 91 06 03 	lds	r24, 0x0306
    4c7a:	90 91 07 03 	lds	r25, 0x0307
    4c7e:	08 17       	cp	r16, r24
    4c80:	19 07       	cpc	r17, r25
    4c82:	19 f0       	breq	.+6      	; 0x4c8a <_ZN23class_T6963C_Drive_V1418LocateXYEii+0xc0>
    4c84:	b8 01       	movw	r22, r16
    4c86:	ce 01       	movw	r24, r28
    4c88:	71 dc       	rcall	.-1822   	; 0x456c <_ZN23class_T6963C_Drive_V14117SetAddressPointerEj>
    4c8a:	b8 01       	movw	r22, r16
    4c8c:	ce 01       	movw	r24, r28
    4c8e:	6e dc       	rcall	.-1828   	; 0x456c <_ZN23class_T6963C_Drive_V14117SetAddressPointerEj>
    4c90:	10 93 07 03 	sts	0x0307, r17
    4c94:	00 93 06 03 	sts	0x0306, r16
    4c98:	81 e0       	ldi	r24, 0x01	; 1
    4c9a:	03 c0       	rjmp	.+6      	; 0x4ca2 <_ZN23class_T6963C_Drive_V1418LocateXYEii+0xd8>
    4c9c:	80 e0       	ldi	r24, 0x00	; 0
    4c9e:	90 e0       	ldi	r25, 0x00	; 0
    4ca0:	c1 cf       	rjmp	.-126    	; 0x4c24 <_ZN23class_T6963C_Drive_V1418LocateXYEii+0x5a>
    4ca2:	df 91       	pop	r29
    4ca4:	cf 91       	pop	r28
    4ca6:	1f 91       	pop	r17
    4ca8:	0f 91       	pop	r16
    4caa:	08 95       	ret

00004cac <_ZN23class_T6963C_Drive_V1418SetPixelEiih>:
    4cac:	ef 92       	push	r14
    4cae:	ff 92       	push	r15
    4cb0:	0f 93       	push	r16
    4cb2:	1f 93       	push	r17
    4cb4:	cf 93       	push	r28
    4cb6:	df 93       	push	r29
    4cb8:	1f 92       	push	r1
    4cba:	cd b7       	in	r28, 0x3d	; 61
    4cbc:	de b7       	in	r29, 0x3e	; 62
    4cbe:	8c 01       	movw	r16, r24
    4cc0:	7b 01       	movw	r14, r22
    4cc2:	fc 01       	movw	r30, r24
    4cc4:	70 ab       	std	Z+48, r23	; 0x30
    4cc6:	67 a7       	std	Z+47, r22	; 0x2f
    4cc8:	52 ab       	std	Z+50, r21	; 0x32
    4cca:	41 ab       	std	Z+49, r20	; 0x31
    4ccc:	29 83       	std	Y+1, r18	; 0x01
    4cce:	7d df       	rcall	.-262    	; 0x4bca <_ZN23class_T6963C_Drive_V1418LocateXYEii>
    4cd0:	29 81       	ldd	r18, Y+1	; 0x01
    4cd2:	88 23       	and	r24, r24
    4cd4:	91 f0       	breq	.+36     	; 0x4cfa <_ZN23class_T6963C_Drive_V1418SetPixelEiih+0x4e>
    4cd6:	6e 2d       	mov	r22, r14
    4cd8:	67 70       	andi	r22, 0x07	; 7
    4cda:	60 95       	com	r22
    4cdc:	20 ff       	sbrs	r18, 0
    4cde:	02 c0       	rjmp	.+4      	; 0x4ce4 <_ZN23class_T6963C_Drive_V1418SetPixelEiih+0x38>
    4ce0:	68 6f       	ori	r22, 0xF8	; 248
    4ce2:	02 c0       	rjmp	.+4      	; 0x4ce8 <_ZN23class_T6963C_Drive_V1418SetPixelEiih+0x3c>
    4ce4:	67 70       	andi	r22, 0x07	; 7
    4ce6:	60 51       	subi	r22, 0x10	; 16
    4ce8:	c8 01       	movw	r24, r16
    4cea:	0f 90       	pop	r0
    4cec:	df 91       	pop	r29
    4cee:	cf 91       	pop	r28
    4cf0:	1f 91       	pop	r17
    4cf2:	0f 91       	pop	r16
    4cf4:	ff 90       	pop	r15
    4cf6:	ef 90       	pop	r14
    4cf8:	bd cb       	rjmp	.-2182   	; 0x4474 <_ZN23class_T6963C_Drive_V1418CmdWriteEh>
    4cfa:	0f 90       	pop	r0
    4cfc:	df 91       	pop	r29
    4cfe:	cf 91       	pop	r28
    4d00:	1f 91       	pop	r17
    4d02:	0f 91       	pop	r16
    4d04:	ff 90       	pop	r15
    4d06:	ef 90       	pop	r14
    4d08:	08 95       	ret

00004d0a <_ZN23class_T6963C_Drive_V1418GetPixelEii>:
    4d0a:	0f 93       	push	r16
    4d0c:	1f 93       	push	r17
    4d0e:	cf 93       	push	r28
    4d10:	df 93       	push	r29
    4d12:	8c 01       	movw	r16, r24
    4d14:	eb 01       	movw	r28, r22
    4d16:	59 df       	rcall	.-334    	; 0x4bca <_ZN23class_T6963C_Drive_V1418LocateXYEii>
    4d18:	88 23       	and	r24, r24
    4d1a:	89 f0       	breq	.+34     	; 0x4d3e <_ZN23class_T6963C_Drive_V1418GetPixelEii+0x34>
    4d1c:	c8 01       	movw	r24, r16
    4d1e:	58 dd       	rcall	.-1360   	; 0x47d0 <_ZN23class_T6963C_Drive_V14114DataReadNoMoveEv>
    4d20:	90 e0       	ldi	r25, 0x00	; 0
    4d22:	c7 70       	andi	r28, 0x07	; 7
    4d24:	dd 27       	eor	r29, r29
    4d26:	20 e8       	ldi	r18, 0x80	; 128
    4d28:	30 e0       	ldi	r19, 0x00	; 0
    4d2a:	02 c0       	rjmp	.+4      	; 0x4d30 <_ZN23class_T6963C_Drive_V1418GetPixelEii+0x26>
    4d2c:	35 95       	asr	r19
    4d2e:	27 95       	ror	r18
    4d30:	ca 95       	dec	r28
    4d32:	e2 f7       	brpl	.-8      	; 0x4d2c <_ZN23class_T6963C_Drive_V1418GetPixelEii+0x22>
    4d34:	28 23       	and	r18, r24
    4d36:	39 23       	and	r19, r25
    4d38:	81 e0       	ldi	r24, 0x01	; 1
    4d3a:	23 2b       	or	r18, r19
    4d3c:	09 f4       	brne	.+2      	; 0x4d40 <_ZN23class_T6963C_Drive_V1418GetPixelEii+0x36>
    4d3e:	80 e0       	ldi	r24, 0x00	; 0
    4d40:	df 91       	pop	r29
    4d42:	cf 91       	pop	r28
    4d44:	1f 91       	pop	r17
    4d46:	0f 91       	pop	r16
    4d48:	08 95       	ret

00004d4a <_ZN23class_T6963C_Drive_V1418LocateRCEaa>:
    4d4a:	dc 01       	movw	r26, r24
    4d4c:	e6 2f       	mov	r30, r22
    4d4e:	06 2e       	mov	r0, r22
    4d50:	00 0c       	add	r0, r0
    4d52:	ff 0b       	sbc	r31, r31
    4d54:	9c 96       	adiw	r26, 0x2c	; 44
    4d56:	fc 93       	st	X, r31
    4d58:	ee 93       	st	-X, r30
    4d5a:	9b 97       	sbiw	r26, 0x2b	; 43
    4d5c:	24 2f       	mov	r18, r20
    4d5e:	04 2e       	mov	r0, r20
    4d60:	00 0c       	add	r0, r0
    4d62:	33 0b       	sbc	r19, r19
    4d64:	9e 96       	adiw	r26, 0x2e	; 46
    4d66:	3c 93       	st	X, r19
    4d68:	2e 93       	st	-X, r18
    4d6a:	9d 97       	sbiw	r26, 0x2d	; 45
    4d6c:	16 16       	cp	r1, r22
    4d6e:	84 f4       	brge	.+32     	; 0x4d90 <_ZN23class_T6963C_Drive_V1418LocateRCEaa+0x46>
    4d70:	14 16       	cp	r1, r20
    4d72:	74 f4       	brge	.+28     	; 0x4d90 <_ZN23class_T6963C_Drive_V1418LocateRCEaa+0x46>
    4d74:	50 96       	adiw	r26, 0x10	; 16
    4d76:	8c 91       	ld	r24, X
    4d78:	50 97       	sbiw	r26, 0x10	; 16
    4d7a:	90 e0       	ldi	r25, 0x00	; 0
    4d7c:	8e 17       	cp	r24, r30
    4d7e:	9f 07       	cpc	r25, r31
    4d80:	3c f0       	brlt	.+14     	; 0x4d90 <_ZN23class_T6963C_Drive_V1418LocateRCEaa+0x46>
    4d82:	52 96       	adiw	r26, 0x12	; 18
    4d84:	8c 91       	ld	r24, X
    4d86:	52 97       	sbiw	r26, 0x12	; 18
    4d88:	90 e0       	ldi	r25, 0x00	; 0
    4d8a:	82 17       	cp	r24, r18
    4d8c:	93 07       	cpc	r25, r19
    4d8e:	14 f4       	brge	.+4      	; 0x4d94 <_ZN23class_T6963C_Drive_V1418LocateRCEaa+0x4a>
    4d90:	80 e0       	ldi	r24, 0x00	; 0
    4d92:	08 95       	ret
    4d94:	57 96       	adiw	r26, 0x17	; 23
    4d96:	8c 91       	ld	r24, X
    4d98:	57 97       	sbiw	r26, 0x17	; 23
    4d9a:	81 30       	cpi	r24, 0x01	; 1
    4d9c:	29 f4       	brne	.+10     	; 0x4da8 <_ZN23class_T6963C_Drive_V1418LocateRCEaa+0x5e>
    4d9e:	5f 96       	adiw	r26, 0x1f	; 31
    4da0:	4d 91       	ld	r20, X+
    4da2:	5c 91       	ld	r21, X
    4da4:	90 97       	sbiw	r26, 0x20	; 32
    4da6:	07 c0       	rjmp	.+14     	; 0x4db6 <_ZN23class_T6963C_Drive_V1418LocateRCEaa+0x6c>
    4da8:	82 30       	cpi	r24, 0x02	; 2
    4daa:	09 f0       	breq	.+2      	; 0x4dae <_ZN23class_T6963C_Drive_V1418LocateRCEaa+0x64>
    4dac:	4a c0       	rjmp	.+148    	; 0x4e42 <_ZN23class_T6963C_Drive_V1418LocateRCEaa+0xf8>
    4dae:	91 96       	adiw	r26, 0x21	; 33
    4db0:	4d 91       	ld	r20, X+
    4db2:	5c 91       	ld	r21, X
    4db4:	92 97       	sbiw	r26, 0x22	; 34
    4db6:	d7 96       	adiw	r26, 0x37	; 55
    4db8:	8d 91       	ld	r24, X+
    4dba:	9c 91       	ld	r25, X
    4dbc:	d8 97       	sbiw	r26, 0x38	; 56
    4dbe:	00 97       	sbiw	r24, 0x00	; 0
    4dc0:	19 f0       	breq	.+6      	; 0x4dc8 <_ZN23class_T6963C_Drive_V1418LocateRCEaa+0x7e>
    4dc2:	01 97       	sbiw	r24, 0x01	; 1
    4dc4:	89 f0       	breq	.+34     	; 0x4de8 <_ZN23class_T6963C_Drive_V1418LocateRCEaa+0x9e>
    4dc6:	3b c0       	rjmp	.+118    	; 0x4e3e <_ZN23class_T6963C_Drive_V1418LocateRCEaa+0xf4>
    4dc8:	51 96       	adiw	r26, 0x11	; 17
    4dca:	8c 91       	ld	r24, X
    4dcc:	51 97       	sbiw	r26, 0x11	; 17
    4dce:	31 97       	sbiw	r30, 0x01	; 1
    4dd0:	8e 9f       	mul	r24, r30
    4dd2:	b0 01       	movw	r22, r0
    4dd4:	8f 9f       	mul	r24, r31
    4dd6:	70 0d       	add	r23, r0
    4dd8:	11 24       	eor	r1, r1
    4dda:	21 50       	subi	r18, 0x01	; 1
    4ddc:	31 09       	sbc	r19, r1
    4dde:	62 0f       	add	r22, r18
    4de0:	73 1f       	adc	r23, r19
    4de2:	64 0f       	add	r22, r20
    4de4:	75 1f       	adc	r23, r21
    4de6:	29 c0       	rjmp	.+82     	; 0x4e3a <_ZN23class_T6963C_Drive_V1418LocateRCEaa+0xf0>
    4de8:	50 96       	adiw	r26, 0x10	; 16
    4dea:	8c 91       	ld	r24, X
    4dec:	50 97       	sbiw	r26, 0x10	; 16
    4dee:	90 e0       	ldi	r25, 0x00	; 0
    4df0:	95 95       	asr	r25
    4df2:	87 95       	ror	r24
    4df4:	8e 17       	cp	r24, r30
    4df6:	9f 07       	cpc	r25, r31
    4df8:	4c f4       	brge	.+18     	; 0x4e0c <_ZN23class_T6963C_Drive_V1418LocateRCEaa+0xc2>
    4dfa:	50 96       	adiw	r26, 0x10	; 16
    4dfc:	8c 91       	ld	r24, X
    4dfe:	50 97       	sbiw	r26, 0x10	; 16
    4e00:	86 95       	lsr	r24
    4e02:	6e 2f       	mov	r22, r30
    4e04:	68 1b       	sub	r22, r24
    4e06:	e0 e0       	ldi	r30, 0x00	; 0
    4e08:	f0 e8       	ldi	r31, 0x80	; 128
    4e0a:	02 c0       	rjmp	.+4      	; 0x4e10 <_ZN23class_T6963C_Drive_V1418LocateRCEaa+0xc6>
    4e0c:	e0 e0       	ldi	r30, 0x00	; 0
    4e0e:	f0 e0       	ldi	r31, 0x00	; 0
    4e10:	51 96       	adiw	r26, 0x11	; 17
    4e12:	8c 91       	ld	r24, X
    4e14:	51 97       	sbiw	r26, 0x11	; 17
    4e16:	e4 0f       	add	r30, r20
    4e18:	f5 1f       	adc	r31, r21
    4e1a:	46 2f       	mov	r20, r22
    4e1c:	66 0f       	add	r22, r22
    4e1e:	55 0b       	sbc	r21, r21
    4e20:	41 50       	subi	r20, 0x01	; 1
    4e22:	51 09       	sbc	r21, r1
    4e24:	84 9f       	mul	r24, r20
    4e26:	b0 01       	movw	r22, r0
    4e28:	85 9f       	mul	r24, r21
    4e2a:	70 0d       	add	r23, r0
    4e2c:	11 24       	eor	r1, r1
    4e2e:	21 50       	subi	r18, 0x01	; 1
    4e30:	31 09       	sbc	r19, r1
    4e32:	62 0f       	add	r22, r18
    4e34:	73 1f       	adc	r23, r19
    4e36:	6e 0f       	add	r22, r30
    4e38:	7f 1f       	adc	r23, r31
    4e3a:	cd 01       	movw	r24, r26
    4e3c:	97 db       	rcall	.-2258   	; 0x456c <_ZN23class_T6963C_Drive_V14117SetAddressPointerEj>
    4e3e:	81 e0       	ldi	r24, 0x01	; 1
    4e40:	08 95       	ret
    4e42:	40 e0       	ldi	r20, 0x00	; 0
    4e44:	50 e0       	ldi	r21, 0x00	; 0
    4e46:	b7 cf       	rjmp	.-146    	; 0x4db6 <_ZN23class_T6963C_Drive_V1418LocateRCEaa+0x6c>

00004e48 <_ZN23class_T6963C_Drive_V1414PutCEc>:
    4e48:	1f 93       	push	r17
    4e4a:	cf 93       	push	r28
    4e4c:	df 93       	push	r29
    4e4e:	ec 01       	movw	r28, r24
    4e50:	16 2f       	mov	r17, r22
    4e52:	4d a5       	ldd	r20, Y+45	; 0x2d
    4e54:	5e a5       	ldd	r21, Y+46	; 0x2e
    4e56:	6b a5       	ldd	r22, Y+43	; 0x2b
    4e58:	7c a5       	ldd	r23, Y+44	; 0x2c
    4e5a:	77 df       	rcall	.-274    	; 0x4d4a <_ZN23class_T6963C_Drive_V1418LocateRCEaa>
    4e5c:	60 ee       	ldi	r22, 0xE0	; 224
    4e5e:	61 0f       	add	r22, r17
    4e60:	6f 37       	cpi	r22, 0x7F	; 127
    4e62:	d8 f4       	brcc	.+54     	; 0x4e9a <_ZN23class_T6963C_Drive_V1414PutCEc+0x52>
    4e64:	ce 01       	movw	r24, r28
    4e66:	ab dc       	rcall	.-1706   	; 0x47be <_ZN23class_T6963C_Drive_V14115DataWriteNoMoveEh>
    4e68:	8d a5       	ldd	r24, Y+45	; 0x2d
    4e6a:	9e a5       	ldd	r25, Y+46	; 0x2e
    4e6c:	01 96       	adiw	r24, 0x01	; 1
    4e6e:	9e a7       	std	Y+46, r25	; 0x2e
    4e70:	8d a7       	std	Y+45, r24	; 0x2d
    4e72:	2d a5       	ldd	r18, Y+45	; 0x2d
    4e74:	3e a5       	ldd	r19, Y+46	; 0x2e
    4e76:	8a 89       	ldd	r24, Y+18	; 0x12
    4e78:	90 e0       	ldi	r25, 0x00	; 0
    4e7a:	82 17       	cp	r24, r18
    4e7c:	93 07       	cpc	r25, r19
    4e7e:	4c f4       	brge	.+18     	; 0x4e92 <_ZN23class_T6963C_Drive_V1414PutCEc+0x4a>
    4e80:	81 e0       	ldi	r24, 0x01	; 1
    4e82:	90 e0       	ldi	r25, 0x00	; 0
    4e84:	9e a7       	std	Y+46, r25	; 0x2e
    4e86:	8d a7       	std	Y+45, r24	; 0x2d
    4e88:	8b a5       	ldd	r24, Y+43	; 0x2b
    4e8a:	9c a5       	ldd	r25, Y+44	; 0x2c
    4e8c:	01 96       	adiw	r24, 0x01	; 1
    4e8e:	9c a7       	std	Y+44, r25	; 0x2c
    4e90:	8b a7       	std	Y+43, r24	; 0x2b
    4e92:	8a a5       	ldd	r24, Y+42	; 0x2a
    4e94:	88 23       	and	r24, r24
    4e96:	c1 f0       	breq	.+48     	; 0x4ec8 <_ZN23class_T6963C_Drive_V1414PutCEc+0x80>
    4e98:	0e c0       	rjmp	.+28     	; 0x4eb6 <_ZN23class_T6963C_Drive_V1414PutCEc+0x6e>
    4e9a:	1a 30       	cpi	r17, 0x0A	; 10
    4e9c:	39 f0       	breq	.+14     	; 0x4eac <_ZN23class_T6963C_Drive_V1414PutCEc+0x64>
    4e9e:	1d 30       	cpi	r17, 0x0D	; 13
    4ea0:	51 f4       	brne	.+20     	; 0x4eb6 <_ZN23class_T6963C_Drive_V1414PutCEc+0x6e>
    4ea2:	81 e0       	ldi	r24, 0x01	; 1
    4ea4:	90 e0       	ldi	r25, 0x00	; 0
    4ea6:	9e a7       	std	Y+46, r25	; 0x2e
    4ea8:	8d a7       	std	Y+45, r24	; 0x2d
    4eaa:	05 c0       	rjmp	.+10     	; 0x4eb6 <_ZN23class_T6963C_Drive_V1414PutCEc+0x6e>
    4eac:	8b a5       	ldd	r24, Y+43	; 0x2b
    4eae:	9c a5       	ldd	r25, Y+44	; 0x2c
    4eb0:	01 96       	adiw	r24, 0x01	; 1
    4eb2:	9c a7       	std	Y+44, r25	; 0x2c
    4eb4:	8b a7       	std	Y+43, r24	; 0x2b
    4eb6:	4d a5       	ldd	r20, Y+45	; 0x2d
    4eb8:	5e a5       	ldd	r21, Y+46	; 0x2e
    4eba:	6b a5       	ldd	r22, Y+43	; 0x2b
    4ebc:	7c a5       	ldd	r23, Y+44	; 0x2c
    4ebe:	ce 01       	movw	r24, r28
    4ec0:	df 91       	pop	r29
    4ec2:	cf 91       	pop	r28
    4ec4:	1f 91       	pop	r17
    4ec6:	68 cb       	rjmp	.-2352   	; 0x4598 <_ZN23class_T6963C_Drive_V14112SetCursorPosEhh>
    4ec8:	df 91       	pop	r29
    4eca:	cf 91       	pop	r28
    4ecc:	1f 91       	pop	r17
    4ece:	08 95       	ret

00004ed0 <_ZN23class_T6963C_Drive_V1415PutSFEPKc>:
    4ed0:	0f 93       	push	r16
    4ed2:	1f 93       	push	r17
    4ed4:	cf 93       	push	r28
    4ed6:	df 93       	push	r29
    4ed8:	8c 01       	movw	r16, r24
    4eda:	fb 01       	movw	r30, r22
    4edc:	64 91       	lpm	r22, Z
    4ede:	ef 01       	movw	r28, r30
    4ee0:	21 96       	adiw	r28, 0x01	; 1
    4ee2:	66 23       	and	r22, r22
    4ee4:	21 f0       	breq	.+8      	; 0x4eee <_ZN23class_T6963C_Drive_V1415PutSFEPKc+0x1e>
    4ee6:	c8 01       	movw	r24, r16
    4ee8:	af df       	rcall	.-162    	; 0x4e48 <_ZN23class_T6963C_Drive_V1414PutCEc>
    4eea:	fe 01       	movw	r30, r28
    4eec:	f7 cf       	rjmp	.-18     	; 0x4edc <_ZN23class_T6963C_Drive_V1415PutSFEPKc+0xc>
    4eee:	df 91       	pop	r29
    4ef0:	cf 91       	pop	r28
    4ef2:	1f 91       	pop	r17
    4ef4:	0f 91       	pop	r16
    4ef6:	08 95       	ret

00004ef8 <_ZN23class_T6963C_Drive_V14117SetTextActivePageEh>:
    4ef8:	66 23       	and	r22, r22
    4efa:	29 f0       	breq	.+10     	; 0x4f06 <_ZN23class_T6963C_Drive_V14117SetTextActivePageEh+0xe>
    4efc:	fc 01       	movw	r30, r24
    4efe:	20 8d       	ldd	r18, Z+24	; 0x18
    4f00:	26 17       	cp	r18, r22
    4f02:	08 f0       	brcs	.+2      	; 0x4f06 <_ZN23class_T6963C_Drive_V14117SetTextActivePageEh+0xe>
    4f04:	67 8b       	std	Z+23, r22	; 0x17
    4f06:	08 95       	ret

00004f08 <_ZN23class_T6963C_Drive_V14118SetGraphActivePageEh>:
    4f08:	66 23       	and	r22, r22
    4f0a:	29 f0       	breq	.+10     	; 0x4f16 <_ZN23class_T6963C_Drive_V14118SetGraphActivePageEh+0xe>
    4f0c:	fc 01       	movw	r30, r24
    4f0e:	23 8d       	ldd	r18, Z+27	; 0x1b
    4f10:	26 17       	cp	r18, r22
    4f12:	08 f0       	brcs	.+2      	; 0x4f16 <_ZN23class_T6963C_Drive_V14118SetGraphActivePageEh+0xe>
    4f14:	62 8f       	std	Z+26, r22	; 0x1a
    4f16:	08 95       	ret

00004f18 <_ZN23class_T6963C_Drive_V14119SetGraphVisiblePageEh>:
    4f18:	66 23       	and	r22, r22
    4f1a:	89 f0       	breq	.+34     	; 0x4f3e <_ZN23class_T6963C_Drive_V14119SetGraphVisiblePageEh+0x26>
    4f1c:	fc 01       	movw	r30, r24
    4f1e:	20 8d       	ldd	r18, Z+24	; 0x18
    4f20:	26 17       	cp	r18, r22
    4f22:	08 f4       	brcc	.+2      	; 0x4f26 <_ZN23class_T6963C_Drive_V14119SetGraphVisiblePageEh+0xe>
    4f24:	08 95       	ret
    4f26:	61 30       	cpi	r22, 0x01	; 1
    4f28:	21 f4       	brne	.+8      	; 0x4f32 <_ZN23class_T6963C_Drive_V14119SetGraphVisiblePageEh+0x1a>
    4f2a:	fc 01       	movw	r30, r24
    4f2c:	63 a1       	ldd	r22, Z+35	; 0x23
    4f2e:	74 a1       	ldd	r23, Z+36	; 0x24
    4f30:	05 c0       	rjmp	.+10     	; 0x4f3c <_ZN23class_T6963C_Drive_V14119SetGraphVisiblePageEh+0x24>
    4f32:	62 30       	cpi	r22, 0x02	; 2
    4f34:	21 f4       	brne	.+8      	; 0x4f3e <_ZN23class_T6963C_Drive_V14119SetGraphVisiblePageEh+0x26>
    4f36:	fc 01       	movw	r30, r24
    4f38:	65 a1       	ldd	r22, Z+37	; 0x25
    4f3a:	76 a1       	ldd	r23, Z+38	; 0x26
    4f3c:	f5 ca       	rjmp	.-2582   	; 0x4528 <_ZN23class_T6963C_Drive_V14115SetGraphAddressEj>
    4f3e:	08 95       	ret

00004f40 <_ZN23class_T6963C_Drive_V14114GetDrawPatternER15_T6963C_Pattern>:
    4f40:	ac 01       	movw	r20, r24
    4f42:	20 e0       	ldi	r18, 0x00	; 0
    4f44:	30 e0       	ldi	r19, 0x00	; 0
    4f46:	fa 01       	movw	r30, r20
    4f48:	e2 0f       	add	r30, r18
    4f4a:	f3 1f       	adc	r31, r19
    4f4c:	ee 5b       	subi	r30, 0xBE	; 190
    4f4e:	ff 4f       	sbci	r31, 0xFF	; 255
    4f50:	90 81       	ld	r25, Z
    4f52:	fb 01       	movw	r30, r22
    4f54:	91 93       	st	Z+, r25
    4f56:	bf 01       	movw	r22, r30
    4f58:	2f 5f       	subi	r18, 0xFF	; 255
    4f5a:	3f 4f       	sbci	r19, 0xFF	; 255
    4f5c:	28 30       	cpi	r18, 0x08	; 8
    4f5e:	31 05       	cpc	r19, r1
    4f60:	91 f7       	brne	.-28     	; 0x4f46 <_ZN23class_T6963C_Drive_V14114GetDrawPatternER15_T6963C_Pattern+0x6>
    4f62:	08 95       	ret

00004f64 <_ZN23class_T6963C_Drive_V14114SetDrawPatternE15_T6963C_Pattern>:
    4f64:	ef 92       	push	r14
    4f66:	ff 92       	push	r15
    4f68:	0f 93       	push	r16
    4f6a:	1f 93       	push	r17
    4f6c:	cf 93       	push	r28
    4f6e:	df 93       	push	r29
    4f70:	cd b7       	in	r28, 0x3d	; 61
    4f72:	de b7       	in	r29, 0x3e	; 62
    4f74:	28 97       	sbiw	r28, 0x08	; 8
    4f76:	0f b6       	in	r0, 0x3f	; 63
    4f78:	f8 94       	cli
    4f7a:	de bf       	out	0x3e, r29	; 62
    4f7c:	0f be       	out	0x3f, r0	; 63
    4f7e:	cd bf       	out	0x3d, r28	; 61
    4f80:	7c 01       	movw	r14, r24
    4f82:	09 83       	std	Y+1, r16	; 0x01
    4f84:	1a 83       	std	Y+2, r17	; 0x02
    4f86:	2b 83       	std	Y+3, r18	; 0x03
    4f88:	3c 83       	std	Y+4, r19	; 0x04
    4f8a:	4d 83       	std	Y+5, r20	; 0x05
    4f8c:	5e 83       	std	Y+6, r21	; 0x06
    4f8e:	6f 83       	std	Y+7, r22	; 0x07
    4f90:	78 87       	std	Y+8, r23	; 0x08
    4f92:	de 01       	movw	r26, r28
    4f94:	11 96       	adiw	r26, 0x01	; 1
    4f96:	20 e0       	ldi	r18, 0x00	; 0
    4f98:	30 e0       	ldi	r19, 0x00	; 0
    4f9a:	9d 91       	ld	r25, X+
    4f9c:	f7 01       	movw	r30, r14
    4f9e:	e2 0f       	add	r30, r18
    4fa0:	f3 1f       	adc	r31, r19
    4fa2:	ee 5b       	subi	r30, 0xBE	; 190
    4fa4:	ff 4f       	sbci	r31, 0xFF	; 255
    4fa6:	90 83       	st	Z, r25
    4fa8:	2f 5f       	subi	r18, 0xFF	; 255
    4faa:	3f 4f       	sbci	r19, 0xFF	; 255
    4fac:	28 30       	cpi	r18, 0x08	; 8
    4fae:	31 05       	cpc	r19, r1
    4fb0:	a1 f7       	brne	.-24     	; 0x4f9a <_ZN23class_T6963C_Drive_V14114SetDrawPatternE15_T6963C_Pattern+0x36>
    4fb2:	28 96       	adiw	r28, 0x08	; 8
    4fb4:	0f b6       	in	r0, 0x3f	; 63
    4fb6:	f8 94       	cli
    4fb8:	de bf       	out	0x3e, r29	; 62
    4fba:	0f be       	out	0x3f, r0	; 63
    4fbc:	cd bf       	out	0x3d, r28	; 61
    4fbe:	df 91       	pop	r29
    4fc0:	cf 91       	pop	r28
    4fc2:	1f 91       	pop	r17
    4fc4:	0f 91       	pop	r16
    4fc6:	ff 90       	pop	r15
    4fc8:	ef 90       	pop	r14
    4fca:	08 95       	ret

00004fcc <_ZN23class_T6963C_Drive_V14118SetDrawPatternTypeE21_enum_T6963C_patterns>:
    4fcc:	40 e0       	ldi	r20, 0x00	; 0
    4fce:	50 e0       	ldi	r21, 0x00	; 0
    4fd0:	69 30       	cpi	r22, 0x09	; 9
    4fd2:	71 05       	cpc	r23, r1
    4fd4:	80 f5       	brcc	.+96     	; 0x5036 <_ZN23class_T6963C_Drive_V14118SetDrawPatternTypeE21_enum_T6963C_patterns+0x6a>
    4fd6:	fb 01       	movw	r30, r22
    4fd8:	ea 5b       	subi	r30, 0xBA	; 186
    4fda:	ff 4f       	sbci	r31, 0xFF	; 255
    4fdc:	9c 01       	movw	r18, r24
    4fde:	24 0f       	add	r18, r20
    4fe0:	35 1f       	adc	r19, r21
    4fe2:	0c 94 cb 41 	jmp	0x8396	; 0x8396 <__tablejump2__>
    4fe6:	fa 01       	movw	r30, r20
    4fe8:	e8 51       	subi	r30, 0x18	; 24
    4fea:	fc 4f       	sbci	r31, 0xFC	; 252
    4fec:	1f c0       	rjmp	.+62     	; 0x502c <_ZN23class_T6963C_Drive_V14118SetDrawPatternTypeE21_enum_T6963C_patterns+0x60>
    4fee:	fa 01       	movw	r30, r20
    4ff0:	e0 52       	subi	r30, 0x20	; 32
    4ff2:	fc 4f       	sbci	r31, 0xFC	; 252
    4ff4:	1b c0       	rjmp	.+54     	; 0x502c <_ZN23class_T6963C_Drive_V14118SetDrawPatternTypeE21_enum_T6963C_patterns+0x60>
    4ff6:	fa 01       	movw	r30, r20
    4ff8:	e8 52       	subi	r30, 0x28	; 40
    4ffa:	fc 4f       	sbci	r31, 0xFC	; 252
    4ffc:	17 c0       	rjmp	.+46     	; 0x502c <_ZN23class_T6963C_Drive_V14118SetDrawPatternTypeE21_enum_T6963C_patterns+0x60>
    4ffe:	fa 01       	movw	r30, r20
    5000:	e0 54       	subi	r30, 0x40	; 64
    5002:	fc 4f       	sbci	r31, 0xFC	; 252
    5004:	13 c0       	rjmp	.+38     	; 0x502c <_ZN23class_T6963C_Drive_V14118SetDrawPatternTypeE21_enum_T6963C_patterns+0x60>
    5006:	fa 01       	movw	r30, r20
    5008:	e8 54       	subi	r30, 0x48	; 72
    500a:	fc 4f       	sbci	r31, 0xFC	; 252
    500c:	0f c0       	rjmp	.+30     	; 0x502c <_ZN23class_T6963C_Drive_V14118SetDrawPatternTypeE21_enum_T6963C_patterns+0x60>
    500e:	fa 01       	movw	r30, r20
    5010:	e0 55       	subi	r30, 0x50	; 80
    5012:	fc 4f       	sbci	r31, 0xFC	; 252
    5014:	0b c0       	rjmp	.+22     	; 0x502c <_ZN23class_T6963C_Drive_V14118SetDrawPatternTypeE21_enum_T6963C_patterns+0x60>
    5016:	fa 01       	movw	r30, r20
    5018:	e0 53       	subi	r30, 0x30	; 48
    501a:	fc 4f       	sbci	r31, 0xFC	; 252
    501c:	07 c0       	rjmp	.+14     	; 0x502c <_ZN23class_T6963C_Drive_V14118SetDrawPatternTypeE21_enum_T6963C_patterns+0x60>
    501e:	fa 01       	movw	r30, r20
    5020:	e8 53       	subi	r30, 0x38	; 56
    5022:	fc 4f       	sbci	r31, 0xFC	; 252
    5024:	03 c0       	rjmp	.+6      	; 0x502c <_ZN23class_T6963C_Drive_V14118SetDrawPatternTypeE21_enum_T6963C_patterns+0x60>
    5026:	fa 01       	movw	r30, r20
    5028:	e8 55       	subi	r30, 0x58	; 88
    502a:	fc 4f       	sbci	r31, 0xFC	; 252
    502c:	e4 91       	lpm	r30, Z
    502e:	d9 01       	movw	r26, r18
    5030:	ae 5b       	subi	r26, 0xBE	; 190
    5032:	bf 4f       	sbci	r27, 0xFF	; 255
    5034:	ec 93       	st	X, r30
    5036:	4f 5f       	subi	r20, 0xFF	; 255
    5038:	5f 4f       	sbci	r21, 0xFF	; 255
    503a:	48 30       	cpi	r20, 0x08	; 8
    503c:	51 05       	cpc	r21, r1
    503e:	41 f6       	brne	.-112    	; 0x4fd0 <_ZN23class_T6963C_Drive_V14118SetDrawPatternTypeE21_enum_T6963C_patterns+0x4>
    5040:	08 95       	ret

00005042 <_ZN23class_T6963C_Drive_V1418ClsGraphEv>:
    5042:	8f 92       	push	r8
    5044:	9f 92       	push	r9
    5046:	af 92       	push	r10
    5048:	bf 92       	push	r11
    504a:	cf 92       	push	r12
    504c:	ef 92       	push	r14
    504e:	ff 92       	push	r15
    5050:	0f 93       	push	r16
    5052:	1f 93       	push	r17
    5054:	cf 93       	push	r28
    5056:	df 93       	push	r29
    5058:	cd b7       	in	r28, 0x3d	; 61
    505a:	de b7       	in	r29, 0x3e	; 62
    505c:	60 97       	sbiw	r28, 0x10	; 16
    505e:	0f b6       	in	r0, 0x3f	; 63
    5060:	f8 94       	cli
    5062:	de bf       	out	0x3e, r29	; 62
    5064:	0f be       	out	0x3f, r0	; 63
    5066:	cd bf       	out	0x3d, r28	; 61
    5068:	5c 01       	movw	r10, r24
    506a:	be 01       	movw	r22, r28
    506c:	67 5f       	subi	r22, 0xF7	; 247
    506e:	7f 4f       	sbci	r23, 0xFF	; 255
    5070:	67 df       	rcall	.-306    	; 0x4f40 <_ZN23class_T6963C_Drive_V14114GetDrawPatternER15_T6963C_Pattern>
    5072:	60 e0       	ldi	r22, 0x00	; 0
    5074:	70 e0       	ldi	r23, 0x00	; 0
    5076:	c5 01       	movw	r24, r10
    5078:	a9 df       	rcall	.-174    	; 0x4fcc <_ZN23class_T6963C_Drive_V14118SetDrawPatternTypeE21_enum_T6963C_patterns>
    507a:	f5 01       	movw	r30, r10
    507c:	82 80       	ldd	r8, Z+2	; 0x02
    507e:	93 80       	ldd	r9, Z+3	; 0x03
    5080:	82 e0       	ldi	r24, 0x02	; 2
    5082:	90 e0       	ldi	r25, 0x00	; 0
    5084:	93 83       	std	Z+3, r25	; 0x03
    5086:	82 83       	std	Z+2, r24	; 0x02
    5088:	e0 5c       	subi	r30, 0xC0	; 192
    508a:	ff 4f       	sbci	r31, 0xFF	; 255
    508c:	00 81       	ld	r16, Z
    508e:	11 81       	ldd	r17, Z+1	; 0x01
    5090:	f5 01       	movw	r30, r10
    5092:	24 ad       	ldd	r18, Z+60	; 0x3c
    5094:	35 ad       	ldd	r19, Z+61	; 0x3d
    5096:	46 ad       	ldd	r20, Z+62	; 0x3e
    5098:	57 ad       	ldd	r21, Z+63	; 0x3f
    509a:	62 ad       	ldd	r22, Z+58	; 0x3a
    509c:	73 ad       	ldd	r23, Z+59	; 0x3b
    509e:	cc 24       	eor	r12, r12
    50a0:	c3 94       	inc	r12
    50a2:	e1 2c       	mov	r14, r1
    50a4:	f1 2c       	mov	r15, r1
    50a6:	c5 01       	movw	r24, r10
    50a8:	0e 94 54 1e 	call	0x3ca8	; 0x3ca8 <_ZN16class_GraphBasic7DrawBoxEiiii9_enum_Penb>
    50ac:	f5 01       	movw	r30, r10
    50ae:	93 82       	std	Z+3, r9	; 0x03
    50b0:	82 82       	std	Z+2, r8	; 0x02
    50b2:	88 e0       	ldi	r24, 0x08	; 8
    50b4:	fe 01       	movw	r30, r28
    50b6:	39 96       	adiw	r30, 0x09	; 9
    50b8:	de 01       	movw	r26, r28
    50ba:	11 96       	adiw	r26, 0x01	; 1
    50bc:	01 90       	ld	r0, Z+
    50be:	0d 92       	st	X+, r0
    50c0:	8a 95       	dec	r24
    50c2:	e1 f7       	brne	.-8      	; 0x50bc <_ZN23class_T6963C_Drive_V1418ClsGraphEv+0x7a>
    50c4:	fe 01       	movw	r30, r28
    50c6:	31 96       	adiw	r30, 0x01	; 1
    50c8:	80 e0       	ldi	r24, 0x00	; 0
    50ca:	90 e0       	ldi	r25, 0x00	; 0
    50cc:	21 91       	ld	r18, Z+
    50ce:	d5 01       	movw	r26, r10
    50d0:	a8 0f       	add	r26, r24
    50d2:	b9 1f       	adc	r27, r25
    50d4:	ae 5b       	subi	r26, 0xBE	; 190
    50d6:	bf 4f       	sbci	r27, 0xFF	; 255
    50d8:	2c 93       	st	X, r18
    50da:	01 96       	adiw	r24, 0x01	; 1
    50dc:	88 30       	cpi	r24, 0x08	; 8
    50de:	91 05       	cpc	r25, r1
    50e0:	a9 f7       	brne	.-22     	; 0x50cc <_ZN23class_T6963C_Drive_V1418ClsGraphEv+0x8a>
    50e2:	f5 01       	movw	r30, r10
    50e4:	12 aa       	std	Z+50, r1	; 0x32
    50e6:	11 aa       	std	Z+49, r1	; 0x31
    50e8:	10 aa       	std	Z+48, r1	; 0x30
    50ea:	17 a6       	std	Z+47, r1	; 0x2f
    50ec:	60 96       	adiw	r28, 0x10	; 16
    50ee:	0f b6       	in	r0, 0x3f	; 63
    50f0:	f8 94       	cli
    50f2:	de bf       	out	0x3e, r29	; 62
    50f4:	0f be       	out	0x3f, r0	; 63
    50f6:	cd bf       	out	0x3d, r28	; 61
    50f8:	df 91       	pop	r29
    50fa:	cf 91       	pop	r28
    50fc:	1f 91       	pop	r17
    50fe:	0f 91       	pop	r16
    5100:	ff 90       	pop	r15
    5102:	ef 90       	pop	r14
    5104:	cf 90       	pop	r12
    5106:	bf 90       	pop	r11
    5108:	af 90       	pop	r10
    510a:	9f 90       	pop	r9
    510c:	8f 90       	pop	r8
    510e:	08 95       	ret

00005110 <_ZN23class_T6963C_Drive_V14119InterfaceInitializeEhhh21_enum_T6963C_ScanMode>:
    5110:	ff 92       	push	r15
    5112:	0f 93       	push	r16
    5114:	1f 93       	push	r17
    5116:	cf 93       	push	r28
    5118:	df 93       	push	r29
    511a:	ec 01       	movw	r28, r24
    511c:	ff b6       	in	r15, 0x3f	; 63
    511e:	f8 94       	cli
    5120:	8f ef       	ldi	r24, 0xFF	; 255
    5122:	8b bb       	out	0x1b, r24	; 27
    5124:	1a ba       	out	0x1a, r1	; 26
    5126:	97 9a       	sbi	0x12, 7	; 18
    5128:	8f 9a       	sbi	0x11, 7	; 17
    512a:	96 9a       	sbi	0x12, 6	; 18
    512c:	8e 9a       	sbi	0x11, 6	; 17
    512e:	95 9a       	sbi	0x12, 5	; 18
    5130:	8d 9a       	sbi	0x11, 5	; 17
    5132:	94 9a       	sbi	0x12, 4	; 18
    5134:	8c 9a       	sbi	0x11, 4	; 17
    5136:	91 9a       	sbi	0x12, 1	; 18
    5138:	89 9a       	sbi	0x11, 1	; 17
    513a:	18 af       	std	Y+56, r17	; 0x38
    513c:	0f ab       	std	Y+55, r16	; 0x37
    513e:	68 8b       	std	Y+16, r22	; 0x10
    5140:	49 8b       	std	Y+17, r20	; 0x11
    5142:	2a 8b       	std	Y+18, r18	; 0x12
    5144:	6b 8b       	std	Y+19, r22	; 0x13
    5146:	ce 01       	movw	r24, r28
    5148:	c2 d9       	rcall	.-3196   	; 0x44ce <_ZN23class_T6963C_Drive_V1415ResetEv>
    514a:	60 e0       	ldi	r22, 0x00	; 0
    514c:	70 e0       	ldi	r23, 0x00	; 0
    514e:	ce 01       	movw	r24, r28
    5150:	4c db       	rcall	.-2408   	; 0x47ea <_ZN23class_T6963C_Drive_V14116CheckRAMPositionEj>
    5152:	18 2f       	mov	r17, r24
    5154:	81 11       	cpse	r24, r1
    5156:	02 c0       	rjmp	.+4      	; 0x515c <_ZN23class_T6963C_Drive_V14119InterfaceInitializeEhhh21_enum_T6963C_ScanMode+0x4c>
    5158:	10 e0       	ldi	r17, 0x00	; 0
    515a:	a0 c1       	rjmp	.+832    	; 0x549c <_ZN23class_T6963C_Drive_V14119InterfaceInitializeEhhh21_enum_T6963C_ScanMode+0x38c>
    515c:	40 e0       	ldi	r20, 0x00	; 0
    515e:	62 e0       	ldi	r22, 0x02	; 2
    5160:	70 e0       	ldi	r23, 0x00	; 0
    5162:	ce 01       	movw	r24, r28
    5164:	5f da       	rcall	.-2882   	; 0x4624 <_ZN23class_T6963C_Drive_V14114SetDisplayModeE25_enum_T6963C_DisplayModesb>
    5166:	40 e0       	ldi	r20, 0x00	; 0
    5168:	63 e0       	ldi	r22, 0x03	; 3
    516a:	70 e0       	ldi	r23, 0x00	; 0
    516c:	ce 01       	movw	r24, r28
    516e:	5a da       	rcall	.-2892   	; 0x4624 <_ZN23class_T6963C_Drive_V14114SetDisplayModeE25_enum_T6963C_DisplayModesb>
    5170:	ce 01       	movw	r24, r28
    5172:	59 db       	rcall	.-2382   	; 0x4826 <_ZN23class_T6963C_Drive_V14118GetComputedRAMSizeEv>
    5174:	9e 8f       	std	Y+30, r25	; 0x1e
    5176:	8d 8f       	std	Y+29, r24	; 0x1d
    5178:	89 2b       	or	r24, r25
    517a:	71 f3       	breq	.-36     	; 0x5158 <_ZN23class_T6963C_Drive_V14119InterfaceInitializeEhhh21_enum_T6963C_ScanMode+0x48>
    517c:	8f a9       	ldd	r24, Y+55	; 0x37
    517e:	98 ad       	ldd	r25, Y+56	; 0x38
    5180:	00 97       	sbiw	r24, 0x00	; 0
    5182:	21 f0       	breq	.+8      	; 0x518c <_ZN23class_T6963C_Drive_V14119InterfaceInitializeEhhh21_enum_T6963C_ScanMode+0x7c>
    5184:	01 97       	sbiw	r24, 0x01	; 1
    5186:	09 f4       	brne	.+2      	; 0x518a <_ZN23class_T6963C_Drive_V14119InterfaceInitializeEhhh21_enum_T6963C_ScanMode+0x7a>
    5188:	6f c0       	rjmp	.+222    	; 0x5268 <_ZN23class_T6963C_Drive_V14119InterfaceInitializeEhhh21_enum_T6963C_ScanMode+0x158>
    518a:	05 c1       	rjmp	.+522    	; 0x5396 <_ZN23class_T6963C_Drive_V14119InterfaceInitializeEhhh21_enum_T6963C_ScanMode+0x286>
    518c:	18 a6       	std	Y+40, r1	; 0x28
    518e:	1f a2       	std	Y+39, r1	; 0x27
    5190:	18 a2       	std	Y+32, r1	; 0x20
    5192:	1f 8e       	std	Y+31, r1	; 0x1f
    5194:	8f 8d       	ldd	r24, Y+31	; 0x1f
    5196:	98 a1       	ldd	r25, Y+32	; 0x20
    5198:	38 89       	ldd	r19, Y+16	; 0x10
    519a:	29 89       	ldd	r18, Y+17	; 0x11
    519c:	32 9f       	mul	r19, r18
    519e:	80 0d       	add	r24, r0
    51a0:	91 1d       	adc	r25, r1
    51a2:	11 24       	eor	r1, r1
    51a4:	9a a3       	std	Y+34, r25	; 0x22
    51a6:	89 a3       	std	Y+33, r24	; 0x21
    51a8:	29 a1       	ldd	r18, Y+33	; 0x21
    51aa:	3a a1       	ldd	r19, Y+34	; 0x22
    51ac:	8d 8d       	ldd	r24, Y+29	; 0x1d
    51ae:	9e 8d       	ldd	r25, Y+30	; 0x1e
    51b0:	28 17       	cp	r18, r24
    51b2:	39 07       	cpc	r19, r25
    51b4:	10 f4       	brcc	.+4      	; 0x51ba <_ZN23class_T6963C_Drive_V14119InterfaceInitializeEhhh21_enum_T6963C_ScanMode+0xaa>
    51b6:	81 e0       	ldi	r24, 0x01	; 1
    51b8:	88 8f       	std	Y+24, r24	; 0x18
    51ba:	89 a1       	ldd	r24, Y+33	; 0x21
    51bc:	9a a1       	ldd	r25, Y+34	; 0x22
    51be:	38 89       	ldd	r19, Y+16	; 0x10
    51c0:	29 89       	ldd	r18, Y+17	; 0x11
    51c2:	32 9f       	mul	r19, r18
    51c4:	80 0d       	add	r24, r0
    51c6:	91 1d       	adc	r25, r1
    51c8:	11 24       	eor	r1, r1
    51ca:	9c a3       	std	Y+36, r25	; 0x24
    51cc:	8b a3       	std	Y+35, r24	; 0x23
    51ce:	2b a1       	ldd	r18, Y+35	; 0x23
    51d0:	3c a1       	ldd	r19, Y+36	; 0x24
    51d2:	8d 8d       	ldd	r24, Y+29	; 0x1d
    51d4:	9e 8d       	ldd	r25, Y+30	; 0x1e
    51d6:	28 17       	cp	r18, r24
    51d8:	39 07       	cpc	r19, r25
    51da:	18 f4       	brcc	.+6      	; 0x51e2 <_ZN23class_T6963C_Drive_V14119InterfaceInitializeEhhh21_enum_T6963C_ScanMode+0xd2>
    51dc:	88 8d       	ldd	r24, Y+24	; 0x18
    51de:	8f 5f       	subi	r24, 0xFF	; 255
    51e0:	88 8f       	std	Y+24, r24	; 0x18
    51e2:	8b a1       	ldd	r24, Y+35	; 0x23
    51e4:	9c a1       	ldd	r25, Y+36	; 0x24
    51e6:	28 89       	ldd	r18, Y+16	; 0x10
    51e8:	69 89       	ldd	r22, Y+17	; 0x11
    51ea:	48 e0       	ldi	r20, 0x08	; 8
    51ec:	24 9f       	mul	r18, r20
    51ee:	90 01       	movw	r18, r0
    51f0:	11 24       	eor	r1, r1
    51f2:	62 9f       	mul	r22, r18
    51f4:	a0 01       	movw	r20, r0
    51f6:	63 9f       	mul	r22, r19
    51f8:	50 0d       	add	r21, r0
    51fa:	11 24       	eor	r1, r1
    51fc:	84 0f       	add	r24, r20
    51fe:	95 1f       	adc	r25, r21
    5200:	9e a3       	std	Y+38, r25	; 0x26
    5202:	8d a3       	std	Y+37, r24	; 0x25
    5204:	2d a1       	ldd	r18, Y+37	; 0x25
    5206:	3e a1       	ldd	r19, Y+38	; 0x26
    5208:	8d 8d       	ldd	r24, Y+29	; 0x1d
    520a:	9e 8d       	ldd	r25, Y+30	; 0x1e
    520c:	28 17       	cp	r18, r24
    520e:	39 07       	cpc	r19, r25
    5210:	10 f4       	brcc	.+4      	; 0x5216 <_ZN23class_T6963C_Drive_V14119InterfaceInitializeEhhh21_enum_T6963C_ScanMode+0x106>
    5212:	81 e0       	ldi	r24, 0x01	; 1
    5214:	8b 8f       	std	Y+27, r24	; 0x1b
    5216:	8d a1       	ldd	r24, Y+37	; 0x25
    5218:	9e a1       	ldd	r25, Y+38	; 0x26
    521a:	28 89       	ldd	r18, Y+16	; 0x10
    521c:	e9 89       	ldd	r30, Y+17	; 0x11
    521e:	4d 8d       	ldd	r20, Y+29	; 0x1d
    5220:	5e 8d       	ldd	r21, Y+30	; 0x1e
    5222:	68 e0       	ldi	r22, 0x08	; 8
    5224:	26 9f       	mul	r18, r22
    5226:	90 01       	movw	r18, r0
    5228:	11 24       	eor	r1, r1
    522a:	e2 9f       	mul	r30, r18
    522c:	b0 01       	movw	r22, r0
    522e:	e3 9f       	mul	r30, r19
    5230:	70 0d       	add	r23, r0
    5232:	11 24       	eor	r1, r1
    5234:	86 0f       	add	r24, r22
    5236:	97 1f       	adc	r25, r23
    5238:	84 17       	cp	r24, r20
    523a:	95 07       	cpc	r25, r21
    523c:	08 f4       	brcc	.+2      	; 0x5240 <_ZN23class_T6963C_Drive_V14119InterfaceInitializeEhhh21_enum_T6963C_ScanMode+0x130>
    523e:	81 c0       	rjmp	.+258    	; 0x5342 <_ZN23class_T6963C_Drive_V14119InterfaceInitializeEhhh21_enum_T6963C_ScanMode+0x232>
    5240:	18 a2       	std	Y+32, r1	; 0x20
    5242:	1f 8e       	std	Y+31, r1	; 0x1f
    5244:	89 89       	ldd	r24, Y+17	; 0x11
    5246:	98 89       	ldd	r25, Y+16	; 0x10
    5248:	89 9f       	mul	r24, r25
    524a:	c0 01       	movw	r24, r0
    524c:	11 24       	eor	r1, r1
    524e:	9c a3       	std	Y+36, r25	; 0x24
    5250:	8b a3       	std	Y+35, r24	; 0x23
    5252:	81 e0       	ldi	r24, 0x01	; 1
    5254:	8b 8f       	std	Y+27, r24	; 0x1b
    5256:	88 8f       	std	Y+24, r24	; 0x18
    5258:	8b a1       	ldd	r24, Y+35	; 0x23
    525a:	9c a1       	ldd	r25, Y+36	; 0x24
    525c:	28 89       	ldd	r18, Y+16	; 0x10
    525e:	e9 89       	ldd	r30, Y+17	; 0x11
    5260:	4d 8d       	ldd	r20, Y+29	; 0x1d
    5262:	5e 8d       	ldd	r21, Y+30	; 0x1e
    5264:	68 e0       	ldi	r22, 0x08	; 8
    5266:	89 c0       	rjmp	.+274    	; 0x537a <_ZN23class_T6963C_Drive_V14119InterfaceInitializeEhhh21_enum_T6963C_ScanMode+0x26a>
    5268:	18 a6       	std	Y+40, r1	; 0x28
    526a:	1f a2       	std	Y+39, r1	; 0x27
    526c:	18 a2       	std	Y+32, r1	; 0x20
    526e:	1f 8e       	std	Y+31, r1	; 0x1f
    5270:	8f 8d       	ldd	r24, Y+31	; 0x1f
    5272:	98 a1       	ldd	r25, Y+32	; 0x20
    5274:	28 89       	ldd	r18, Y+16	; 0x10
    5276:	69 89       	ldd	r22, Y+17	; 0x11
    5278:	30 e0       	ldi	r19, 0x00	; 0
    527a:	35 95       	asr	r19
    527c:	27 95       	ror	r18
    527e:	62 9f       	mul	r22, r18
    5280:	a0 01       	movw	r20, r0
    5282:	63 9f       	mul	r22, r19
    5284:	50 0d       	add	r21, r0
    5286:	11 24       	eor	r1, r1
    5288:	84 0f       	add	r24, r20
    528a:	95 1f       	adc	r25, r21
    528c:	9a a3       	std	Y+34, r25	; 0x22
    528e:	89 a3       	std	Y+33, r24	; 0x21
    5290:	29 a1       	ldd	r18, Y+33	; 0x21
    5292:	3a a1       	ldd	r19, Y+34	; 0x22
    5294:	8d 8d       	ldd	r24, Y+29	; 0x1d
    5296:	9e 8d       	ldd	r25, Y+30	; 0x1e
    5298:	96 95       	lsr	r25
    529a:	87 95       	ror	r24
    529c:	28 17       	cp	r18, r24
    529e:	39 07       	cpc	r19, r25
    52a0:	10 f4       	brcc	.+4      	; 0x52a6 <_ZN23class_T6963C_Drive_V14119InterfaceInitializeEhhh21_enum_T6963C_ScanMode+0x196>
    52a2:	81 e0       	ldi	r24, 0x01	; 1
    52a4:	88 8f       	std	Y+24, r24	; 0x18
    52a6:	89 a1       	ldd	r24, Y+33	; 0x21
    52a8:	9a a1       	ldd	r25, Y+34	; 0x22
    52aa:	28 89       	ldd	r18, Y+16	; 0x10
    52ac:	69 89       	ldd	r22, Y+17	; 0x11
    52ae:	30 e0       	ldi	r19, 0x00	; 0
    52b0:	35 95       	asr	r19
    52b2:	27 95       	ror	r18
    52b4:	62 9f       	mul	r22, r18
    52b6:	a0 01       	movw	r20, r0
    52b8:	63 9f       	mul	r22, r19
    52ba:	50 0d       	add	r21, r0
    52bc:	11 24       	eor	r1, r1
    52be:	84 0f       	add	r24, r20
    52c0:	95 1f       	adc	r25, r21
    52c2:	9c a3       	std	Y+36, r25	; 0x24
    52c4:	8b a3       	std	Y+35, r24	; 0x23
    52c6:	2b a1       	ldd	r18, Y+35	; 0x23
    52c8:	3c a1       	ldd	r19, Y+36	; 0x24
    52ca:	8d 8d       	ldd	r24, Y+29	; 0x1d
    52cc:	9e 8d       	ldd	r25, Y+30	; 0x1e
    52ce:	96 95       	lsr	r25
    52d0:	87 95       	ror	r24
    52d2:	28 17       	cp	r18, r24
    52d4:	39 07       	cpc	r19, r25
    52d6:	18 f4       	brcc	.+6      	; 0x52de <_ZN23class_T6963C_Drive_V14119InterfaceInitializeEhhh21_enum_T6963C_ScanMode+0x1ce>
    52d8:	88 8d       	ldd	r24, Y+24	; 0x18
    52da:	8f 5f       	subi	r24, 0xFF	; 255
    52dc:	88 8f       	std	Y+24, r24	; 0x18
    52de:	8b a1       	ldd	r24, Y+35	; 0x23
    52e0:	9c a1       	ldd	r25, Y+36	; 0x24
    52e2:	28 89       	ldd	r18, Y+16	; 0x10
    52e4:	69 89       	ldd	r22, Y+17	; 0x11
    52e6:	44 e0       	ldi	r20, 0x04	; 4
    52e8:	24 9f       	mul	r18, r20
    52ea:	90 01       	movw	r18, r0
    52ec:	11 24       	eor	r1, r1
    52ee:	62 9f       	mul	r22, r18
    52f0:	a0 01       	movw	r20, r0
    52f2:	63 9f       	mul	r22, r19
    52f4:	50 0d       	add	r21, r0
    52f6:	11 24       	eor	r1, r1
    52f8:	84 0f       	add	r24, r20
    52fa:	95 1f       	adc	r25, r21
    52fc:	9e a3       	std	Y+38, r25	; 0x26
    52fe:	8d a3       	std	Y+37, r24	; 0x25
    5300:	2d a1       	ldd	r18, Y+37	; 0x25
    5302:	3e a1       	ldd	r19, Y+38	; 0x26
    5304:	8d 8d       	ldd	r24, Y+29	; 0x1d
    5306:	9e 8d       	ldd	r25, Y+30	; 0x1e
    5308:	96 95       	lsr	r25
    530a:	87 95       	ror	r24
    530c:	28 17       	cp	r18, r24
    530e:	39 07       	cpc	r19, r25
    5310:	10 f4       	brcc	.+4      	; 0x5316 <_ZN23class_T6963C_Drive_V14119InterfaceInitializeEhhh21_enum_T6963C_ScanMode+0x206>
    5312:	81 e0       	ldi	r24, 0x01	; 1
    5314:	8b 8f       	std	Y+27, r24	; 0x1b
    5316:	2d a1       	ldd	r18, Y+37	; 0x25
    5318:	3e a1       	ldd	r19, Y+38	; 0x26
    531a:	48 89       	ldd	r20, Y+16	; 0x10
    531c:	e9 89       	ldd	r30, Y+17	; 0x11
    531e:	8d 8d       	ldd	r24, Y+29	; 0x1d
    5320:	9e 8d       	ldd	r25, Y+30	; 0x1e
    5322:	64 e0       	ldi	r22, 0x04	; 4
    5324:	46 9f       	mul	r20, r22
    5326:	a0 01       	movw	r20, r0
    5328:	11 24       	eor	r1, r1
    532a:	e4 9f       	mul	r30, r20
    532c:	b0 01       	movw	r22, r0
    532e:	e5 9f       	mul	r30, r21
    5330:	70 0d       	add	r23, r0
    5332:	11 24       	eor	r1, r1
    5334:	26 0f       	add	r18, r22
    5336:	37 1f       	adc	r19, r23
    5338:	96 95       	lsr	r25
    533a:	87 95       	ror	r24
    533c:	28 17       	cp	r18, r24
    533e:	39 07       	cpc	r19, r25
    5340:	20 f4       	brcc	.+8      	; 0x534a <_ZN23class_T6963C_Drive_V14119InterfaceInitializeEhhh21_enum_T6963C_ScanMode+0x23a>
    5342:	8b 8d       	ldd	r24, Y+27	; 0x1b
    5344:	8f 5f       	subi	r24, 0xFF	; 255
    5346:	8b 8f       	std	Y+27, r24	; 0x1b
    5348:	26 c0       	rjmp	.+76     	; 0x5396 <_ZN23class_T6963C_Drive_V14119InterfaceInitializeEhhh21_enum_T6963C_ScanMode+0x286>
    534a:	18 a2       	std	Y+32, r1	; 0x20
    534c:	1f 8e       	std	Y+31, r1	; 0x1f
    534e:	49 89       	ldd	r20, Y+17	; 0x11
    5350:	28 89       	ldd	r18, Y+16	; 0x10
    5352:	30 e0       	ldi	r19, 0x00	; 0
    5354:	35 95       	asr	r19
    5356:	27 95       	ror	r18
    5358:	42 9f       	mul	r20, r18
    535a:	c0 01       	movw	r24, r0
    535c:	43 9f       	mul	r20, r19
    535e:	90 0d       	add	r25, r0
    5360:	11 24       	eor	r1, r1
    5362:	9c a3       	std	Y+36, r25	; 0x24
    5364:	8b a3       	std	Y+35, r24	; 0x23
    5366:	81 e0       	ldi	r24, 0x01	; 1
    5368:	8b 8f       	std	Y+27, r24	; 0x1b
    536a:	88 8f       	std	Y+24, r24	; 0x18
    536c:	8b a1       	ldd	r24, Y+35	; 0x23
    536e:	9c a1       	ldd	r25, Y+36	; 0x24
    5370:	28 89       	ldd	r18, Y+16	; 0x10
    5372:	e9 89       	ldd	r30, Y+17	; 0x11
    5374:	4d 8d       	ldd	r20, Y+29	; 0x1d
    5376:	5e 8d       	ldd	r21, Y+30	; 0x1e
    5378:	64 e0       	ldi	r22, 0x04	; 4
    537a:	26 9f       	mul	r18, r22
    537c:	90 01       	movw	r18, r0
    537e:	11 24       	eor	r1, r1
    5380:	e2 9f       	mul	r30, r18
    5382:	b0 01       	movw	r22, r0
    5384:	e3 9f       	mul	r30, r19
    5386:	70 0d       	add	r23, r0
    5388:	11 24       	eor	r1, r1
    538a:	86 0f       	add	r24, r22
    538c:	97 1f       	adc	r25, r23
    538e:	48 17       	cp	r20, r24
    5390:	59 07       	cpc	r21, r25
    5392:	08 f4       	brcc	.+2      	; 0x5396 <_ZN23class_T6963C_Drive_V14119InterfaceInitializeEhhh21_enum_T6963C_ScanMode+0x286>
    5394:	e1 ce       	rjmp	.-574    	; 0x5158 <_ZN23class_T6963C_Drive_V14119InterfaceInitializeEhhh21_enum_T6963C_ScanMode+0x48>
    5396:	81 e0       	ldi	r24, 0x01	; 1
    5398:	8f 8b       	std	Y+23, r24	; 0x17
    539a:	8e 8b       	std	Y+22, r24	; 0x16
    539c:	8a 8f       	std	Y+26, r24	; 0x1a
    539e:	89 8f       	std	Y+25, r24	; 0x19
    53a0:	8a 89       	ldd	r24, Y+18	; 0x12
    53a2:	28 e0       	ldi	r18, 0x08	; 8
    53a4:	82 9f       	mul	r24, r18
    53a6:	c0 01       	movw	r24, r0
    53a8:	11 24       	eor	r1, r1
    53aa:	9c ab       	std	Y+52, r25	; 0x34
    53ac:	8b ab       	std	Y+51, r24	; 0x33
    53ae:	88 89       	ldd	r24, Y+16	; 0x10
    53b0:	48 e0       	ldi	r20, 0x08	; 8
    53b2:	84 9f       	mul	r24, r20
    53b4:	c0 01       	movw	r24, r0
    53b6:	11 24       	eor	r1, r1
    53b8:	9e ab       	std	Y+54, r25	; 0x36
    53ba:	8d ab       	std	Y+53, r24	; 0x35
    53bc:	1b ae       	std	Y+59, r1	; 0x3b
    53be:	1a ae       	std	Y+58, r1	; 0x3a
    53c0:	1f ae       	std	Y+63, r1	; 0x3f
    53c2:	1e ae       	std	Y+62, r1	; 0x3e
    53c4:	8b a9       	ldd	r24, Y+51	; 0x33
    53c6:	9c a9       	ldd	r25, Y+52	; 0x34
    53c8:	01 97       	sbiw	r24, 0x01	; 1
    53ca:	9d af       	std	Y+61, r25	; 0x3d
    53cc:	8c af       	std	Y+60, r24	; 0x3c
    53ce:	8d a9       	ldd	r24, Y+53	; 0x35
    53d0:	9e a9       	ldd	r25, Y+54	; 0x36
    53d2:	01 97       	sbiw	r24, 0x01	; 1
    53d4:	fe 01       	movw	r30, r28
    53d6:	e0 5c       	subi	r30, 0xC0	; 192
    53d8:	ff 4f       	sbci	r31, 0xFF	; 255
    53da:	91 83       	std	Z+1, r25	; 0x01
    53dc:	80 83       	st	Z, r24
    53de:	6f 8d       	ldd	r22, Y+31	; 0x1f
    53e0:	78 a1       	ldd	r23, Y+32	; 0x20
    53e2:	ce 01       	movw	r24, r28
    53e4:	7f d8       	rcall	.-3842   	; 0x44e4 <_ZN23class_T6963C_Drive_V14114SetTextAddressEj>
    53e6:	6a 89       	ldd	r22, Y+18	; 0x12
    53e8:	ce 01       	movw	r24, r28
    53ea:	92 d8       	rcall	.-3804   	; 0x4510 <_ZN23class_T6963C_Drive_V14111SetTextAreaEh>
    53ec:	6b a1       	ldd	r22, Y+35	; 0x23
    53ee:	7c a1       	ldd	r23, Y+36	; 0x24
    53f0:	ce 01       	movw	r24, r28
    53f2:	9a d8       	rcall	.-3788   	; 0x4528 <_ZN23class_T6963C_Drive_V14115SetGraphAddressEj>
    53f4:	6a 89       	ldd	r22, Y+18	; 0x12
    53f6:	ce 01       	movw	r24, r28
    53f8:	ad d8       	rcall	.-3750   	; 0x4554 <_ZN23class_T6963C_Drive_V14112SetGraphAreaEh>
    53fa:	ce 01       	movw	r24, r28
    53fc:	f4 d9       	rcall	.-3096   	; 0x47e6 <_ZN23class_T6963C_Drive_V14116SetInternalCGROMEv>
    53fe:	ce 01       	movw	r24, r28
    5400:	f0 d9       	rcall	.-3104   	; 0x47e2 <_ZN23class_T6963C_Drive_V1419SetOrModeEv>
    5402:	60 e0       	ldi	r22, 0x00	; 0
    5404:	70 e0       	ldi	r23, 0x00	; 0
    5406:	ce 01       	movw	r24, r28
    5408:	ff d8       	rcall	.-3586   	; 0x4608 <_ZN23class_T6963C_Drive_V14114SetCGRAMOffsetEj>
    540a:	41 e0       	ldi	r20, 0x01	; 1
    540c:	62 e0       	ldi	r22, 0x02	; 2
    540e:	70 e0       	ldi	r23, 0x00	; 0
    5410:	ce 01       	movw	r24, r28
    5412:	08 d9       	rcall	.-3568   	; 0x4624 <_ZN23class_T6963C_Drive_V14114SetDisplayModeE25_enum_T6963C_DisplayModesb>
    5414:	41 e0       	ldi	r20, 0x01	; 1
    5416:	63 e0       	ldi	r22, 0x03	; 3
    5418:	70 e0       	ldi	r23, 0x00	; 0
    541a:	ce 01       	movw	r24, r28
    541c:	03 d9       	rcall	.-3578   	; 0x4624 <_ZN23class_T6963C_Drive_V14114SetDisplayModeE25_enum_T6963C_DisplayModesb>
    541e:	41 e0       	ldi	r20, 0x01	; 1
    5420:	61 e0       	ldi	r22, 0x01	; 1
    5422:	70 e0       	ldi	r23, 0x00	; 0
    5424:	ce 01       	movw	r24, r28
    5426:	fe d8       	rcall	.-3588   	; 0x4624 <_ZN23class_T6963C_Drive_V14114SetDisplayModeE25_enum_T6963C_DisplayModesb>
    5428:	41 e0       	ldi	r20, 0x01	; 1
    542a:	60 e0       	ldi	r22, 0x00	; 0
    542c:	70 e0       	ldi	r23, 0x00	; 0
    542e:	ce 01       	movw	r24, r28
    5430:	f9 d8       	rcall	.-3598   	; 0x4624 <_ZN23class_T6963C_Drive_V14114SetDisplayModeE25_enum_T6963C_DisplayModesb>
    5432:	88 8d       	ldd	r24, Y+24	; 0x18
    5434:	81 30       	cpi	r24, 0x01	; 1
    5436:	39 f0       	breq	.+14     	; 0x5446 <_ZN23class_T6963C_Drive_V14119InterfaceInitializeEhhh21_enum_T6963C_ScanMode+0x336>
    5438:	82 30       	cpi	r24, 0x02	; 2
    543a:	51 f4       	brne	.+20     	; 0x5450 <_ZN23class_T6963C_Drive_V14119InterfaceInitializeEhhh21_enum_T6963C_ScanMode+0x340>
    543c:	62 e0       	ldi	r22, 0x02	; 2
    543e:	ce 01       	movw	r24, r28
    5440:	5b dd       	rcall	.-1354   	; 0x4ef8 <_ZN23class_T6963C_Drive_V14117SetTextActivePageEh>
    5442:	ce 01       	movw	r24, r28
    5444:	6a d9       	rcall	.-3372   	; 0x471a <_ZN23class_T6963C_Drive_V1417ClsTextEv>
    5446:	61 e0       	ldi	r22, 0x01	; 1
    5448:	ce 01       	movw	r24, r28
    544a:	56 dd       	rcall	.-1364   	; 0x4ef8 <_ZN23class_T6963C_Drive_V14117SetTextActivePageEh>
    544c:	ce 01       	movw	r24, r28
    544e:	65 d9       	rcall	.-3382   	; 0x471a <_ZN23class_T6963C_Drive_V1417ClsTextEv>
    5450:	8b 8d       	ldd	r24, Y+27	; 0x1b
    5452:	81 30       	cpi	r24, 0x01	; 1
    5454:	39 f0       	breq	.+14     	; 0x5464 <_ZN23class_T6963C_Drive_V14119InterfaceInitializeEhhh21_enum_T6963C_ScanMode+0x354>
    5456:	82 30       	cpi	r24, 0x02	; 2
    5458:	51 f4       	brne	.+20     	; 0x546e <_ZN23class_T6963C_Drive_V14119InterfaceInitializeEhhh21_enum_T6963C_ScanMode+0x35e>
    545a:	62 e0       	ldi	r22, 0x02	; 2
    545c:	ce 01       	movw	r24, r28
    545e:	54 dd       	rcall	.-1368   	; 0x4f08 <_ZN23class_T6963C_Drive_V14118SetGraphActivePageEh>
    5460:	ce 01       	movw	r24, r28
    5462:	ef dd       	rcall	.-1058   	; 0x5042 <_ZN23class_T6963C_Drive_V1418ClsGraphEv>
    5464:	61 e0       	ldi	r22, 0x01	; 1
    5466:	ce 01       	movw	r24, r28
    5468:	4f dd       	rcall	.-1378   	; 0x4f08 <_ZN23class_T6963C_Drive_V14118SetGraphActivePageEh>
    546a:	ce 01       	movw	r24, r28
    546c:	ea dd       	rcall	.-1068   	; 0x5042 <_ZN23class_T6963C_Drive_V1418ClsGraphEv>
    546e:	60 e0       	ldi	r22, 0x00	; 0
    5470:	70 e0       	ldi	r23, 0x00	; 0
    5472:	ce 01       	movw	r24, r28
    5474:	7b d8       	rcall	.-3850   	; 0x456c <_ZN23class_T6963C_Drive_V14117SetAddressPointerEj>
    5476:	1a aa       	std	Y+50, r1	; 0x32
    5478:	19 aa       	std	Y+49, r1	; 0x31
    547a:	18 aa       	std	Y+48, r1	; 0x30
    547c:	1f a6       	std	Y+47, r1	; 0x2f
    547e:	81 e0       	ldi	r24, 0x01	; 1
    5480:	90 e0       	ldi	r25, 0x00	; 0
    5482:	9e a7       	std	Y+46, r25	; 0x2e
    5484:	8d a7       	std	Y+45, r24	; 0x2d
    5486:	9c a7       	std	Y+44, r25	; 0x2c
    5488:	8b a7       	std	Y+43, r24	; 0x2b
    548a:	60 ea       	ldi	r22, 0xA0	; 160
    548c:	ce 01       	movw	r24, r28
    548e:	0e 94 3a 22 	call	0x4474	; 0x4474 <_ZN23class_T6963C_Drive_V1418CmdWriteEh>
    5492:	41 e0       	ldi	r20, 0x01	; 1
    5494:	61 e0       	ldi	r22, 0x01	; 1
    5496:	ce 01       	movw	r24, r28
    5498:	7f d8       	rcall	.-3842   	; 0x4598 <_ZN23class_T6963C_Drive_V14112SetCursorPosEhh>
    549a:	ff be       	out	0x3f, r15	; 63
    549c:	81 2f       	mov	r24, r17
    549e:	df 91       	pop	r29
    54a0:	cf 91       	pop	r28
    54a2:	1f 91       	pop	r17
    54a4:	0f 91       	pop	r16
    54a6:	ff 90       	pop	r15
    54a8:	08 95       	ret

000054aa <_ZN23class_T6963C_Drive_V141C1Ehhh21_enum_T6963C_ScanMode>:
    54aa:	bf 92       	push	r11
    54ac:	cf 92       	push	r12
    54ae:	df 92       	push	r13
    54b0:	ef 92       	push	r14
    54b2:	ff 92       	push	r15
    54b4:	0f 93       	push	r16
    54b6:	1f 93       	push	r17
    54b8:	cf 93       	push	r28
    54ba:	df 93       	push	r29
    54bc:	ec 01       	movw	r28, r24
    54be:	f6 2e       	mov	r15, r22
    54c0:	b4 2e       	mov	r11, r20
    54c2:	e2 2e       	mov	r14, r18
    54c4:	68 01       	movw	r12, r16
    54c6:	70 e0       	ldi	r23, 0x00	; 0
    54c8:	8b 01       	movw	r16, r22
    54ca:	83 e0       	ldi	r24, 0x03	; 3
    54cc:	00 0f       	add	r16, r16
    54ce:	11 1f       	adc	r17, r17
    54d0:	8a 95       	dec	r24
    54d2:	e1 f7       	brne	.-8      	; 0x54cc <_ZN23class_T6963C_Drive_V141C1Ehhh21_enum_T6963C_ScanMode+0x22>
    54d4:	42 2f       	mov	r20, r18
    54d6:	50 e0       	ldi	r21, 0x00	; 0
    54d8:	9a 01       	movw	r18, r20
    54da:	93 e0       	ldi	r25, 0x03	; 3
    54dc:	22 0f       	add	r18, r18
    54de:	33 1f       	adc	r19, r19
    54e0:	9a 95       	dec	r25
    54e2:	e1 f7       	brne	.-8      	; 0x54dc <_ZN23class_T6963C_Drive_V141C1Ehhh21_enum_T6963C_ScanMode+0x32>
    54e4:	ce 01       	movw	r24, r28
    54e6:	0e 94 fa 1c 	call	0x39f4	; 0x39f4 <_ZN16class_GraphBasicC1Eiiii>
    54ea:	8a e1       	ldi	r24, 0x1A	; 26
    54ec:	91 e0       	ldi	r25, 0x01	; 1
    54ee:	99 83       	std	Y+1, r25	; 0x01
    54f0:	88 83       	st	Y, r24
    54f2:	80 e2       	ldi	r24, 0x20	; 32
    54f4:	8c 8b       	std	Y+20, r24	; 0x14
    54f6:	1d 8a       	std	Y+21, r1	; 0x15
    54f8:	81 e0       	ldi	r24, 0x01	; 1
    54fa:	8e 8b       	std	Y+22, r24	; 0x16
    54fc:	8f 8b       	std	Y+23, r24	; 0x17
    54fe:	88 8f       	std	Y+24, r24	; 0x18
    5500:	89 8f       	std	Y+25, r24	; 0x19
    5502:	8a 8f       	std	Y+26, r24	; 0x1a
    5504:	8b 8f       	std	Y+27, r24	; 0x1b
    5506:	8c 8f       	std	Y+28, r24	; 0x1c
    5508:	1e 8e       	std	Y+30, r1	; 0x1e
    550a:	1d 8e       	std	Y+29, r1	; 0x1d
    550c:	18 a2       	std	Y+32, r1	; 0x20
    550e:	1f 8e       	std	Y+31, r1	; 0x1f
    5510:	1a a2       	std	Y+34, r1	; 0x22
    5512:	19 a2       	std	Y+33, r1	; 0x21
    5514:	1c a2       	std	Y+36, r1	; 0x24
    5516:	1b a2       	std	Y+35, r1	; 0x23
    5518:	1e a2       	std	Y+38, r1	; 0x26
    551a:	1d a2       	std	Y+37, r1	; 0x25
    551c:	18 a6       	std	Y+40, r1	; 0x28
    551e:	1f a2       	std	Y+39, r1	; 0x27
    5520:	19 a6       	std	Y+41, r1	; 0x29
    5522:	8a a7       	std	Y+42, r24	; 0x2a
    5524:	81 e0       	ldi	r24, 0x01	; 1
    5526:	90 e0       	ldi	r25, 0x00	; 0
    5528:	9c a7       	std	Y+44, r25	; 0x2c
    552a:	8b a7       	std	Y+43, r24	; 0x2b
    552c:	9e a7       	std	Y+46, r25	; 0x2e
    552e:	8d a7       	std	Y+45, r24	; 0x2d
    5530:	18 aa       	std	Y+48, r1	; 0x30
    5532:	1f a6       	std	Y+47, r1	; 0x2f
    5534:	1a aa       	std	Y+50, r1	; 0x32
    5536:	19 aa       	std	Y+49, r1	; 0x31
    5538:	1c aa       	std	Y+52, r1	; 0x34
    553a:	1b aa       	std	Y+51, r1	; 0x33
    553c:	1e aa       	std	Y+54, r1	; 0x36
    553e:	1d aa       	std	Y+53, r1	; 0x35
    5540:	fe 01       	movw	r30, r28
    5542:	fa 96       	adiw	r30, 0x3a	; 58
    5544:	88 e0       	ldi	r24, 0x08	; 8
    5546:	df 01       	movw	r26, r30
    5548:	1d 92       	st	X+, r1
    554a:	8a 95       	dec	r24
    554c:	e9 f7       	brne	.-6      	; 0x5548 <_ZN23class_T6963C_Drive_V141C1Ehhh21_enum_T6963C_ScanMode+0x9e>
    554e:	de 01       	movw	r26, r28
    5550:	ae 5b       	subi	r26, 0xBE	; 190
    5552:	bf 4f       	sbci	r27, 0xFF	; 255
    5554:	88 e0       	ldi	r24, 0x08	; 8
    5556:	e4 e0       	ldi	r30, 0x04	; 4
    5558:	f1 e0       	ldi	r31, 0x01	; 1
    555a:	01 90       	ld	r0, Z+
    555c:	0d 92       	st	X+, r0
    555e:	8a 95       	dec	r24
    5560:	e1 f7       	brne	.-8      	; 0x555a <_ZN23class_T6963C_Drive_V141C1Ehhh21_enum_T6963C_ScanMode+0xb0>
    5562:	86 01       	movw	r16, r12
    5564:	2e 2d       	mov	r18, r14
    5566:	4b 2d       	mov	r20, r11
    5568:	6f 2d       	mov	r22, r15
    556a:	ce 01       	movw	r24, r28
    556c:	d1 dd       	rcall	.-1118   	; 0x5110 <_ZN23class_T6963C_Drive_V14119InterfaceInitializeEhhh21_enum_T6963C_ScanMode>
    556e:	89 a7       	std	Y+41, r24	; 0x29
    5570:	df 91       	pop	r29
    5572:	cf 91       	pop	r28
    5574:	1f 91       	pop	r17
    5576:	0f 91       	pop	r16
    5578:	ff 90       	pop	r15
    557a:	ef 90       	pop	r14
    557c:	df 90       	pop	r13
    557e:	cf 90       	pop	r12
    5580:	bf 90       	pop	r11
    5582:	08 95       	ret

00005584 <_ZN23class_T6963C_Drive_V14118GetDrawPatternTypeE21_enum_T6963C_patternsR15_T6963C_Pattern>:
    5584:	da 01       	movw	r26, r20
    5586:	80 e0       	ldi	r24, 0x00	; 0
    5588:	90 e0       	ldi	r25, 0x00	; 0
    558a:	69 30       	cpi	r22, 0x09	; 9
    558c:	71 05       	cpc	r23, r1
    558e:	50 f5       	brcc	.+84     	; 0x55e4 <_ZN23class_T6963C_Drive_V14118GetDrawPatternTypeE21_enum_T6963C_patternsR15_T6963C_Pattern+0x60>
    5590:	fb 01       	movw	r30, r22
    5592:	e1 5b       	subi	r30, 0xB1	; 177
    5594:	ff 4f       	sbci	r31, 0xFF	; 255
    5596:	0c 94 cb 41 	jmp	0x8396	; 0x8396 <__tablejump2__>
    559a:	fc 01       	movw	r30, r24
    559c:	e8 51       	subi	r30, 0x18	; 24
    559e:	fc 4f       	sbci	r31, 0xFC	; 252
    55a0:	1f c0       	rjmp	.+62     	; 0x55e0 <_ZN23class_T6963C_Drive_V14118GetDrawPatternTypeE21_enum_T6963C_patternsR15_T6963C_Pattern+0x5c>
    55a2:	fc 01       	movw	r30, r24
    55a4:	e0 52       	subi	r30, 0x20	; 32
    55a6:	fc 4f       	sbci	r31, 0xFC	; 252
    55a8:	1b c0       	rjmp	.+54     	; 0x55e0 <_ZN23class_T6963C_Drive_V14118GetDrawPatternTypeE21_enum_T6963C_patternsR15_T6963C_Pattern+0x5c>
    55aa:	fc 01       	movw	r30, r24
    55ac:	e8 52       	subi	r30, 0x28	; 40
    55ae:	fc 4f       	sbci	r31, 0xFC	; 252
    55b0:	17 c0       	rjmp	.+46     	; 0x55e0 <_ZN23class_T6963C_Drive_V14118GetDrawPatternTypeE21_enum_T6963C_patternsR15_T6963C_Pattern+0x5c>
    55b2:	fc 01       	movw	r30, r24
    55b4:	e0 54       	subi	r30, 0x40	; 64
    55b6:	fc 4f       	sbci	r31, 0xFC	; 252
    55b8:	13 c0       	rjmp	.+38     	; 0x55e0 <_ZN23class_T6963C_Drive_V14118GetDrawPatternTypeE21_enum_T6963C_patternsR15_T6963C_Pattern+0x5c>
    55ba:	fc 01       	movw	r30, r24
    55bc:	e8 54       	subi	r30, 0x48	; 72
    55be:	fc 4f       	sbci	r31, 0xFC	; 252
    55c0:	0f c0       	rjmp	.+30     	; 0x55e0 <_ZN23class_T6963C_Drive_V14118GetDrawPatternTypeE21_enum_T6963C_patternsR15_T6963C_Pattern+0x5c>
    55c2:	fc 01       	movw	r30, r24
    55c4:	e0 55       	subi	r30, 0x50	; 80
    55c6:	fc 4f       	sbci	r31, 0xFC	; 252
    55c8:	0b c0       	rjmp	.+22     	; 0x55e0 <_ZN23class_T6963C_Drive_V14118GetDrawPatternTypeE21_enum_T6963C_patternsR15_T6963C_Pattern+0x5c>
    55ca:	fc 01       	movw	r30, r24
    55cc:	e0 53       	subi	r30, 0x30	; 48
    55ce:	fc 4f       	sbci	r31, 0xFC	; 252
    55d0:	07 c0       	rjmp	.+14     	; 0x55e0 <_ZN23class_T6963C_Drive_V14118GetDrawPatternTypeE21_enum_T6963C_patternsR15_T6963C_Pattern+0x5c>
    55d2:	fc 01       	movw	r30, r24
    55d4:	e8 53       	subi	r30, 0x38	; 56
    55d6:	fc 4f       	sbci	r31, 0xFC	; 252
    55d8:	03 c0       	rjmp	.+6      	; 0x55e0 <_ZN23class_T6963C_Drive_V14118GetDrawPatternTypeE21_enum_T6963C_patternsR15_T6963C_Pattern+0x5c>
    55da:	fc 01       	movw	r30, r24
    55dc:	e8 55       	subi	r30, 0x58	; 88
    55de:	fc 4f       	sbci	r31, 0xFC	; 252
    55e0:	e4 91       	lpm	r30, Z
    55e2:	ec 93       	st	X, r30
    55e4:	01 96       	adiw	r24, 0x01	; 1
    55e6:	11 96       	adiw	r26, 0x01	; 1
    55e8:	88 30       	cpi	r24, 0x08	; 8
    55ea:	91 05       	cpc	r25, r1
    55ec:	71 f6       	brne	.-100    	; 0x558a <_ZN23class_T6963C_Drive_V14118GetDrawPatternTypeE21_enum_T6963C_patternsR15_T6963C_Pattern+0x6>
    55ee:	08 95       	ret

000055f0 <_ZN23class_T6963C_Drive_V1419SetWindowEiiii>:
    55f0:	0f 93       	push	r16
    55f2:	1f 93       	push	r17
    55f4:	fc 01       	movw	r30, r24
    55f6:	26 17       	cp	r18, r22
    55f8:	37 07       	cpc	r19, r23
    55fa:	2c f4       	brge	.+10     	; 0x5606 <_ZN23class_T6963C_Drive_V1419SetWindowEiiii+0x16>
    55fc:	96 2f       	mov	r25, r22
    55fe:	87 2f       	mov	r24, r23
    5600:	b9 01       	movw	r22, r18
    5602:	29 2f       	mov	r18, r25
    5604:	38 2f       	mov	r19, r24
    5606:	04 17       	cp	r16, r20
    5608:	15 07       	cpc	r17, r21
    560a:	2c f4       	brge	.+10     	; 0x5616 <_ZN23class_T6963C_Drive_V1419SetWindowEiiii+0x26>
    560c:	94 2f       	mov	r25, r20
    560e:	85 2f       	mov	r24, r21
    5610:	a8 01       	movw	r20, r16
    5612:	09 2f       	mov	r16, r25
    5614:	18 2f       	mov	r17, r24
    5616:	77 ff       	sbrs	r23, 7
    5618:	02 c0       	rjmp	.+4      	; 0x561e <_ZN23class_T6963C_Drive_V1419SetWindowEiiii+0x2e>
    561a:	60 e0       	ldi	r22, 0x00	; 0
    561c:	70 e0       	ldi	r23, 0x00	; 0
    561e:	83 a9       	ldd	r24, Z+51	; 0x33
    5620:	94 a9       	ldd	r25, Z+52	; 0x34
    5622:	28 17       	cp	r18, r24
    5624:	39 07       	cpc	r19, r25
    5626:	24 f0       	brlt	.+8      	; 0x5630 <_ZN23class_T6963C_Drive_V1419SetWindowEiiii+0x40>
    5628:	23 a9       	ldd	r18, Z+51	; 0x33
    562a:	34 a9       	ldd	r19, Z+52	; 0x34
    562c:	21 50       	subi	r18, 0x01	; 1
    562e:	31 09       	sbc	r19, r1
    5630:	57 ff       	sbrs	r21, 7
    5632:	02 c0       	rjmp	.+4      	; 0x5638 <_ZN23class_T6963C_Drive_V1419SetWindowEiiii+0x48>
    5634:	40 e0       	ldi	r20, 0x00	; 0
    5636:	50 e0       	ldi	r21, 0x00	; 0
    5638:	85 a9       	ldd	r24, Z+53	; 0x35
    563a:	96 a9       	ldd	r25, Z+54	; 0x36
    563c:	08 17       	cp	r16, r24
    563e:	19 07       	cpc	r17, r25
    5640:	24 f0       	brlt	.+8      	; 0x564a <_ZN23class_T6963C_Drive_V1419SetWindowEiiii+0x5a>
    5642:	05 a9       	ldd	r16, Z+53	; 0x35
    5644:	16 a9       	ldd	r17, Z+54	; 0x36
    5646:	01 50       	subi	r16, 0x01	; 1
    5648:	11 09       	sbc	r17, r1
    564a:	73 af       	std	Z+59, r23	; 0x3b
    564c:	62 af       	std	Z+58, r22	; 0x3a
    564e:	35 af       	std	Z+61, r19	; 0x3d
    5650:	24 af       	std	Z+60, r18	; 0x3c
    5652:	57 af       	std	Z+63, r21	; 0x3f
    5654:	46 af       	std	Z+62, r20	; 0x3e
    5656:	e0 5c       	subi	r30, 0xC0	; 192
    5658:	ff 4f       	sbci	r31, 0xFF	; 255
    565a:	11 83       	std	Z+1, r17	; 0x01
    565c:	00 83       	st	Z, r16
    565e:	1f 91       	pop	r17
    5660:	0f 91       	pop	r16
    5662:	08 95       	ret

00005664 <_ZN23class_T6963C_Drive_V1419GetWindowERiS0_S0_S0_>:
    5664:	0f 93       	push	r16
    5666:	1f 93       	push	r17
    5668:	fc 01       	movw	r30, r24
    566a:	82 ad       	ldd	r24, Z+58	; 0x3a
    566c:	93 ad       	ldd	r25, Z+59	; 0x3b
    566e:	db 01       	movw	r26, r22
    5670:	8d 93       	st	X+, r24
    5672:	9c 93       	st	X, r25
    5674:	84 ad       	ldd	r24, Z+60	; 0x3c
    5676:	95 ad       	ldd	r25, Z+61	; 0x3d
    5678:	d9 01       	movw	r26, r18
    567a:	8d 93       	st	X+, r24
    567c:	9c 93       	st	X, r25
    567e:	86 ad       	ldd	r24, Z+62	; 0x3e
    5680:	97 ad       	ldd	r25, Z+63	; 0x3f
    5682:	da 01       	movw	r26, r20
    5684:	8d 93       	st	X+, r24
    5686:	9c 93       	st	X, r25
    5688:	e0 5c       	subi	r30, 0xC0	; 192
    568a:	ff 4f       	sbci	r31, 0xFF	; 255
    568c:	80 81       	ld	r24, Z
    568e:	91 81       	ldd	r25, Z+1	; 0x01
    5690:	f8 01       	movw	r30, r16
    5692:	91 83       	std	Z+1, r25	; 0x01
    5694:	80 83       	st	Z, r24
    5696:	1f 91       	pop	r17
    5698:	0f 91       	pop	r16
    569a:	08 95       	ret

0000569c <_ZN23class_T6963C_Drive_V14111GetBMPWidthEPKh>:
    569c:	fb 01       	movw	r30, r22
    569e:	84 91       	lpm	r24, Z
    56a0:	82 34       	cpi	r24, 0x42	; 66
    56a2:	91 f4       	brne	.+36     	; 0x56c8 <_ZN23class_T6963C_Drive_V14111GetBMPWidthEPKh+0x2c>
    56a4:	31 96       	adiw	r30, 0x01	; 1
    56a6:	e4 91       	lpm	r30, Z
    56a8:	ed 34       	cpi	r30, 0x4D	; 77
    56aa:	71 f4       	brne	.+28     	; 0x56c8 <_ZN23class_T6963C_Drive_V14111GetBMPWidthEPKh+0x2c>
    56ac:	fb 01       	movw	r30, r22
    56ae:	34 96       	adiw	r30, 0x04	; 4
    56b0:	84 91       	lpm	r24, Z
    56b2:	28 2f       	mov	r18, r24
    56b4:	30 e0       	ldi	r19, 0x00	; 0
    56b6:	31 96       	adiw	r30, 0x01	; 1
    56b8:	64 91       	lpm	r22, Z
    56ba:	86 2f       	mov	r24, r22
    56bc:	90 e0       	ldi	r25, 0x00	; 0
    56be:	98 2f       	mov	r25, r24
    56c0:	88 27       	eor	r24, r24
    56c2:	82 0f       	add	r24, r18
    56c4:	93 1f       	adc	r25, r19
    56c6:	08 95       	ret
    56c8:	80 e0       	ldi	r24, 0x00	; 0
    56ca:	90 e0       	ldi	r25, 0x00	; 0
    56cc:	08 95       	ret

000056ce <_ZN23class_T6963C_Drive_V14112GetBMPHeightEPKh>:
    56ce:	fb 01       	movw	r30, r22
    56d0:	84 91       	lpm	r24, Z
    56d2:	82 34       	cpi	r24, 0x42	; 66
    56d4:	91 f4       	brne	.+36     	; 0x56fa <_ZN23class_T6963C_Drive_V14112GetBMPHeightEPKh+0x2c>
    56d6:	31 96       	adiw	r30, 0x01	; 1
    56d8:	e4 91       	lpm	r30, Z
    56da:	ed 34       	cpi	r30, 0x4D	; 77
    56dc:	71 f4       	brne	.+28     	; 0x56fa <_ZN23class_T6963C_Drive_V14112GetBMPHeightEPKh+0x2c>
    56de:	fb 01       	movw	r30, r22
    56e0:	36 96       	adiw	r30, 0x06	; 6
    56e2:	84 91       	lpm	r24, Z
    56e4:	28 2f       	mov	r18, r24
    56e6:	30 e0       	ldi	r19, 0x00	; 0
    56e8:	31 96       	adiw	r30, 0x01	; 1
    56ea:	64 91       	lpm	r22, Z
    56ec:	86 2f       	mov	r24, r22
    56ee:	90 e0       	ldi	r25, 0x00	; 0
    56f0:	98 2f       	mov	r25, r24
    56f2:	88 27       	eor	r24, r24
    56f4:	82 0f       	add	r24, r18
    56f6:	93 1f       	adc	r25, r19
    56f8:	08 95       	ret
    56fa:	80 e0       	ldi	r24, 0x00	; 0
    56fc:	90 e0       	ldi	r25, 0x00	; 0
    56fe:	08 95       	ret

00005700 <_ZN23class_T6963C_Drive_V14110DrawBitMapEiiPKh>:
//	|		     bmp Valid Bit Map in Flash											|
//	| OUTPUT  :  return true if BMP Drawn in display ok								|
//	| REMARKS :																		|
//	+-------------------------------------------------------------------------------+
bool	class_T6963C_Drive_V141::DrawBitMap(int x,int y,BitMap *bmp)
{
    5700:	2f 92       	push	r2
    5702:	3f 92       	push	r3
    5704:	4f 92       	push	r4
    5706:	5f 92       	push	r5
    5708:	6f 92       	push	r6
    570a:	7f 92       	push	r7
    570c:	8f 92       	push	r8
    570e:	9f 92       	push	r9
    5710:	af 92       	push	r10
    5712:	bf 92       	push	r11
    5714:	cf 92       	push	r12
    5716:	df 92       	push	r13
    5718:	ef 92       	push	r14
    571a:	ff 92       	push	r15
    571c:	0f 93       	push	r16
    571e:	1f 93       	push	r17
    5720:	cf 93       	push	r28
    5722:	df 93       	push	r29
    5724:	cd b7       	in	r28, 0x3d	; 61
    5726:	de b7       	in	r29, 0x3e	; 62
    5728:	65 97       	sbiw	r28, 0x15	; 21
    572a:	0f b6       	in	r0, 0x3f	; 63
    572c:	f8 94       	cli
    572e:	de bf       	out	0x3e, r29	; 62
    5730:	0f be       	out	0x3f, r0	; 63
    5732:	cd bf       	out	0x3d, r28	; 61
    5734:	9d 8b       	std	Y+21, r25	; 0x15
    5736:	8c 8b       	std	Y+20, r24	; 0x14
    5738:	7a 01       	movw	r14, r20
    573a:	dc 01       	movw	r26, r24
    573c:	12 96       	adiw	r26, 0x02	; 2
    573e:	0d 90       	ld	r0, X+
    5740:	bc 91       	ld	r27, X
    5742:	a0 2d       	mov	r26, r0
    5744:	b8 87       	std	Y+8, r27	; 0x08
    5746:	af 83       	std	Y+7, r26	; 0x07
	static
	#endif
	bool	bAutoWrite;
	DrawMode dm=GetDrawMode();
	//get signature
	if (pgm_read_byte(bmp++)!='B')	return false;					//no 'B' signature return
    5748:	f9 01       	movw	r30, r18
    574a:	84 91       	lpm	r24, Z
    574c:	82 34       	cpi	r24, 0x42	; 66
    574e:	09 f0       	breq	.+2      	; 0x5752 <_ZN23class_T6963C_Drive_V14110DrawBitMapEiiPKh+0x52>
    5750:	80 c0       	rjmp	.+256    	; 0x5852 <_ZN23class_T6963C_Drive_V14110DrawBitMapEiiPKh+0x152>
    5752:	31 96       	adiw	r30, 0x01	; 1
	if (pgm_read_byte(bmp++)!='M')	return false;					//no 'M' signature return
    5754:	e4 91       	lpm	r30, Z
    5756:	ed 34       	cpi	r30, 0x4D	; 77
    5758:	09 f0       	breq	.+2      	; 0x575c <_ZN23class_T6963C_Drive_V14110DrawBitMapEiiPKh+0x5c>
    575a:	7b c0       	rjmp	.+246    	; 0x5852 <_ZN23class_T6963C_Drive_V14110DrawBitMapEiiPKh+0x152>
    575c:	f9 01       	movw	r30, r18
    575e:	32 96       	adiw	r30, 0x02	; 2
	//Check if bmp 1 Bit deep
	{
		uint16_t tmp;
		tmp=pgm_read_byte(bmp++);
    5760:	e4 91       	lpm	r30, Z
    5762:	8e 2f       	mov	r24, r30
    5764:	90 e0       	ldi	r25, 0x00	; 0
    5766:	f9 01       	movw	r30, r18
    5768:	33 96       	adiw	r30, 0x03	; 3
		tmp+=pgm_read_byte(bmp++)<<8;
    576a:	e4 91       	lpm	r30, Z
    576c:	f0 e0       	ldi	r31, 0x00	; 0
    576e:	fe 2f       	mov	r31, r30
    5770:	ee 27       	eor	r30, r30
    5772:	8e 0f       	add	r24, r30
    5774:	9f 1f       	adc	r25, r31
		if (tmp!=1) return false;									//Return if Bit Deep not equal 0
    5776:	01 97       	sbiw	r24, 0x01	; 1
    5778:	09 f0       	breq	.+2      	; 0x577c <_ZN23class_T6963C_Drive_V14110DrawBitMapEiiPKh+0x7c>
    577a:	6b c0       	rjmp	.+214    	; 0x5852 <_ZN23class_T6963C_Drive_V14110DrawBitMapEiiPKh+0x152>
	if (pgm_read_byte(bmp++)!='M')	return false;					//no 'M' signature return
	//Check if bmp 1 Bit deep
	{
		uint16_t tmp;
		tmp=pgm_read_byte(bmp++);
		tmp+=pgm_read_byte(bmp++)<<8;
    577c:	f9 01       	movw	r30, r18
    577e:	34 96       	adiw	r30, 0x04	; 4
		if (tmp!=1) return false;									//Return if Bit Deep not equal 0
	}
	//Get bmp Width in Pixels
	widthBmp=pgm_read_byte(bmp++);
    5780:	44 91       	lpm	r20, Z
    5782:	84 2f       	mov	r24, r20
    5784:	90 e0       	ldi	r25, 0x00	; 0
    5786:	31 96       	adiw	r30, 0x01	; 1
	widthBmp+=pgm_read_byte(bmp++)<<8;
    5788:	e4 91       	lpm	r30, Z
    578a:	4e 2f       	mov	r20, r30
    578c:	50 e0       	ldi	r21, 0x00	; 0
    578e:	54 2f       	mov	r21, r20
    5790:	44 27       	eor	r20, r20
    5792:	48 0f       	add	r20, r24
    5794:	59 1f       	adc	r21, r25
	if (widthBmp==0)	return false;								//return if width in pixel equal 0
    5796:	41 15       	cp	r20, r1
    5798:	51 05       	cpc	r21, r1
    579a:	09 f4       	brne	.+2      	; 0x579e <_ZN23class_T6963C_Drive_V14110DrawBitMapEiiPKh+0x9e>
    579c:	5a c0       	rjmp	.+180    	; 0x5852 <_ZN23class_T6963C_Drive_V14110DrawBitMapEiiPKh+0x152>
		tmp+=pgm_read_byte(bmp++)<<8;
		if (tmp!=1) return false;									//Return if Bit Deep not equal 0
	}
	//Get bmp Width in Pixels
	widthBmp=pgm_read_byte(bmp++);
	widthBmp+=pgm_read_byte(bmp++)<<8;
    579e:	f9 01       	movw	r30, r18
    57a0:	36 96       	adiw	r30, 0x06	; 6
	if (widthBmp==0)	return false;								//return if width in pixel equal 0
	//Get bmp Height in Pixels
	heightBmp=pgm_read_byte(bmp++);
    57a2:	e4 91       	lpm	r30, Z
    57a4:	ae 2f       	mov	r26, r30
    57a6:	b0 e0       	ldi	r27, 0x00	; 0
    57a8:	f9 01       	movw	r30, r18
    57aa:	37 96       	adiw	r30, 0x07	; 7
	heightBmp+=pgm_read_byte(bmp++)<<8;
    57ac:	84 91       	lpm	r24, Z
    57ae:	90 e0       	ldi	r25, 0x00	; 0
    57b0:	98 2f       	mov	r25, r24
    57b2:	88 27       	eor	r24, r24
    57b4:	8a 0f       	add	r24, r26
    57b6:	9b 1f       	adc	r25, r27
	if (heightBmp==0) return false;								//return if height in pixel equal 0
    57b8:	00 97       	sbiw	r24, 0x00	; 0
    57ba:	09 f4       	brne	.+2      	; 0x57be <_ZN23class_T6963C_Drive_V14110DrawBitMapEiiPKh+0xbe>
    57bc:	4a c0       	rjmp	.+148    	; 0x5852 <_ZN23class_T6963C_Drive_V14110DrawBitMapEiiPKh+0x152>
	widthBmp=pgm_read_byte(bmp++);
	widthBmp+=pgm_read_byte(bmp++)<<8;
	if (widthBmp==0)	return false;								//return if width in pixel equal 0
	//Get bmp Height in Pixels
	heightBmp=pgm_read_byte(bmp++);
	heightBmp+=pgm_read_byte(bmp++)<<8;
    57be:	31 96       	adiw	r30, 0x01	; 1
	if (heightBmp==0) return false;								//return if height in pixel equal 0
	//Get Width in Bytes
	widthBytes=pgm_read_byte(bmp++);
    57c0:	e4 91       	lpm	r30, Z
    57c2:	ae 2f       	mov	r26, r30
    57c4:	b0 e0       	ldi	r27, 0x00	; 0
    57c6:	f9 01       	movw	r30, r18
    57c8:	39 96       	adiw	r30, 0x09	; 9
	widthBytes+=pgm_read_byte(bmp++)<<8;
    57ca:	e4 91       	lpm	r30, Z
    57cc:	f0 e0       	ldi	r31, 0x00	; 0
    57ce:	fe 2f       	mov	r31, r30
    57d0:	ee 27       	eor	r30, r30
    57d2:	4f 01       	movw	r8, r30
    57d4:	8a 0e       	add	r8, r26
    57d6:	9b 1e       	adc	r9, r27
	if (widthBytes==0) return false;								//return if size in bytes equal 0
    57d8:	81 14       	cp	r8, r1
    57da:	91 04       	cpc	r9, r1
    57dc:	09 f4       	brne	.+2      	; 0x57e0 <_ZN23class_T6963C_Drive_V14110DrawBitMapEiiPKh+0xe0>
    57de:	39 c0       	rjmp	.+114    	; 0x5852 <_ZN23class_T6963C_Drive_V14110DrawBitMapEiiPKh+0x152>
	heightBmp=pgm_read_byte(bmp++);
	heightBmp+=pgm_read_byte(bmp++)<<8;
	if (heightBmp==0) return false;								//return if height in pixel equal 0
	//Get Width in Bytes
	widthBytes=pgm_read_byte(bmp++);
	widthBytes+=pgm_read_byte(bmp++)<<8;
    57e0:	f9 01       	movw	r30, r18
    57e2:	3a 96       	adiw	r30, 0x0a	; 10
	if (widthBytes==0) return false;								//return if size in bytes equal 0
	//Get bmp Size in Bytes
	sizeBytes=pgm_read_byte(bmp++);
    57e4:	e4 91       	lpm	r30, Z
    57e6:	ae 2f       	mov	r26, r30
    57e8:	b0 e0       	ldi	r27, 0x00	; 0
    57ea:	f9 01       	movw	r30, r18
    57ec:	3b 96       	adiw	r30, 0x0b	; 11
	sizeBytes+=pgm_read_byte(bmp++)<<8;
    57ee:	e4 91       	lpm	r30, Z
    57f0:	f0 e0       	ldi	r31, 0x00	; 0
    57f2:	fe 2f       	mov	r31, r30
    57f4:	ee 27       	eor	r30, r30
    57f6:	ae 0f       	add	r26, r30
    57f8:	bf 1f       	adc	r27, r31
	if (sizeBytes==0)	return false;								//return if size equal 0
    57fa:	ab 2b       	or	r26, r27
    57fc:	51 f1       	breq	.+84     	; 0x5852 <_ZN23class_T6963C_Drive_V14110DrawBitMapEiiPKh+0x152>
	//after this positioi bmp-->to image data
	//Translate x,y,bitmap.width,bitmap height	to xI,yI,xf,yF coordinates
	xI=x;
	yI=y;
	xF=xI+widthBmp-1;
    57fe:	46 0f       	add	r20, r22
    5800:	57 1f       	adc	r21, r23
    5802:	41 50       	subi	r20, 0x01	; 1
    5804:	51 09       	sbc	r21, r1
	//										|  bmp   |
	//										|		 |
	//										+--------+
	//
	//check case #1
	if (xI<_Window.xMin && xF<_Window.xMin) return false;			//bmp is below display minX coordinate then return
    5806:	ac 89       	ldd	r26, Y+20	; 0x14
    5808:	bd 89       	ldd	r27, Y+21	; 0x15
    580a:	da 96       	adiw	r26, 0x3a	; 58
    580c:	ed 91       	ld	r30, X+
    580e:	fc 91       	ld	r31, X
    5810:	db 97       	sbiw	r26, 0x3b	; 59
    5812:	6e 17       	cp	r22, r30
    5814:	7f 07       	cpc	r23, r31
    5816:	3c f4       	brge	.+14     	; 0x5826 <_ZN23class_T6963C_Drive_V14110DrawBitMapEiiPKh+0x126>
    5818:	da 96       	adiw	r26, 0x3a	; 58
    581a:	ed 91       	ld	r30, X+
    581c:	fc 91       	ld	r31, X
    581e:	db 97       	sbiw	r26, 0x3b	; 59
    5820:	4e 17       	cp	r20, r30
    5822:	5f 07       	cpc	r21, r31
    5824:	b4 f0       	brlt	.+44     	; 0x5852 <_ZN23class_T6963C_Drive_V14110DrawBitMapEiiPKh+0x152>
	//after this positioi bmp-->to image data
	//Translate x,y,bitmap.width,bitmap height	to xI,yI,xf,yF coordinates
	xI=x;
	yI=y;
	xF=xI+widthBmp-1;
	yF=yI+heightBmp-1;
    5826:	f7 01       	movw	r30, r14
    5828:	e8 0f       	add	r30, r24
    582a:	f9 1f       	adc	r31, r25
    582c:	31 97       	sbiw	r30, 0x01	; 1
	//										+--------+
	//
	//check case #1
	if (xI<_Window.xMin && xF<_Window.xMin) return false;			//bmp is below display minX coordinate then return
	//check case #2
	if (yI<_Window.yMin && yF<_Window.yMin) return false;			//bmp is below display minY coordinate then return
    582e:	ac 89       	ldd	r26, Y+20	; 0x14
    5830:	bd 89       	ldd	r27, Y+21	; 0x15
    5832:	de 96       	adiw	r26, 0x3e	; 62
    5834:	8d 91       	ld	r24, X+
    5836:	9c 91       	ld	r25, X
    5838:	df 97       	sbiw	r26, 0x3f	; 63
    583a:	e8 16       	cp	r14, r24
    583c:	f9 06       	cpc	r15, r25
    583e:	5c f4       	brge	.+22     	; 0x5856 <_ZN23class_T6963C_Drive_V14110DrawBitMapEiiPKh+0x156>
    5840:	ac 89       	ldd	r26, Y+20	; 0x14
    5842:	bd 89       	ldd	r27, Y+21	; 0x15
    5844:	de 96       	adiw	r26, 0x3e	; 62
    5846:	8d 91       	ld	r24, X+
    5848:	9c 91       	ld	r25, X
    584a:	df 97       	sbiw	r26, 0x3f	; 63
    584c:	e8 17       	cp	r30, r24
    584e:	f9 07       	cpc	r31, r25
    5850:	14 f4       	brge	.+4      	; 0x5856 <_ZN23class_T6963C_Drive_V14110DrawBitMapEiiPKh+0x156>
	static
	#endif
	bool	bAutoWrite;
	DrawMode dm=GetDrawMode();
	//get signature
	if (pgm_read_byte(bmp++)!='B')	return false;					//no 'B' signature return
    5852:	80 e0       	ldi	r24, 0x00	; 0
    5854:	85 c1       	rjmp	.+778    	; 0x5b60 <_ZN23class_T6963C_Drive_V14110DrawBitMapEiiPKh+0x460>
	//check case #1
	if (xI<_Window.xMin && xF<_Window.xMin) return false;			//bmp is below display minX coordinate then return
	//check case #2
	if (yI<_Window.yMin && yF<_Window.yMin) return false;			//bmp is below display minY coordinate then return
	//check case #3
	if (xI>_Window.xMax && xF>_Window.xMax) return false;			//bmp is above display maxX coordinate then return
    5856:	ac 89       	ldd	r26, Y+20	; 0x14
    5858:	bd 89       	ldd	r27, Y+21	; 0x15
    585a:	dc 96       	adiw	r26, 0x3c	; 60
    585c:	8d 91       	ld	r24, X+
    585e:	9c 91       	ld	r25, X
    5860:	dd 97       	sbiw	r26, 0x3d	; 61
    5862:	86 17       	cp	r24, r22
    5864:	97 07       	cpc	r25, r23
    5866:	4c f4       	brge	.+18     	; 0x587a <_ZN23class_T6963C_Drive_V14110DrawBitMapEiiPKh+0x17a>
    5868:	ac 89       	ldd	r26, Y+20	; 0x14
    586a:	bd 89       	ldd	r27, Y+21	; 0x15
    586c:	dc 96       	adiw	r26, 0x3c	; 60
    586e:	8d 91       	ld	r24, X+
    5870:	9c 91       	ld	r25, X
    5872:	dd 97       	sbiw	r26, 0x3d	; 61
    5874:	84 17       	cp	r24, r20
    5876:	95 07       	cpc	r25, r21
    5878:	64 f3       	brlt	.-40     	; 0x5852 <_ZN23class_T6963C_Drive_V14110DrawBitMapEiiPKh+0x152>
	//check case #4
	if (yI>_Window.yMax && yF>_Window.yMax) return false;			//bmp is above display maxY coordinate then return
    587a:	cc 88       	ldd	r12, Y+20	; 0x14
    587c:	dd 88       	ldd	r13, Y+21	; 0x15
    587e:	b0 e4       	ldi	r27, 0x40	; 64
    5880:	cb 0e       	add	r12, r27
    5882:	d1 1c       	adc	r13, r1
    5884:	d6 01       	movw	r26, r12
    5886:	8d 91       	ld	r24, X+
    5888:	9c 91       	ld	r25, X
    588a:	8e 15       	cp	r24, r14
    588c:	9f 05       	cpc	r25, r15
    588e:	34 f4       	brge	.+12     	; 0x589c <_ZN23class_T6963C_Drive_V14110DrawBitMapEiiPKh+0x19c>
    5890:	d6 01       	movw	r26, r12
    5892:	8d 91       	ld	r24, X+
    5894:	9c 91       	ld	r25, X
    5896:	8e 17       	cp	r24, r30
    5898:	9f 07       	cpc	r25, r31
    589a:	dc f2       	brlt	.-74     	; 0x5852 <_ZN23class_T6963C_Drive_V14110DrawBitMapEiiPKh+0x152>
	//saturate xF if need
	if (xF>this->_Window.xMax) xF=this->_Window.xMax;
    589c:	ac 89       	ldd	r26, Y+20	; 0x14
    589e:	bd 89       	ldd	r27, Y+21	; 0x15
    58a0:	dc 96       	adiw	r26, 0x3c	; 60
    58a2:	8d 91       	ld	r24, X+
    58a4:	9c 91       	ld	r25, X
    58a6:	dd 97       	sbiw	r26, 0x3d	; 61
    58a8:	84 17       	cp	r24, r20
    58aa:	95 07       	cpc	r25, r21
    58ac:	34 f4       	brge	.+12     	; 0x58ba <_ZN23class_T6963C_Drive_V14110DrawBitMapEiiPKh+0x1ba>
    58ae:	ac 89       	ldd	r26, Y+20	; 0x14
    58b0:	bd 89       	ldd	r27, Y+21	; 0x15
    58b2:	dc 96       	adiw	r26, 0x3c	; 60
    58b4:	4d 91       	ld	r20, X+
    58b6:	5c 91       	ld	r21, X
    58b8:	dd 97       	sbiw	r26, 0x3d	; 61
	if (yF>this->_Window.yMax) yF=this->_Window.yMax;
    58ba:	d6 01       	movw	r26, r12
    58bc:	8d 91       	ld	r24, X+
    58be:	9c 91       	ld	r25, X
    58c0:	11 97       	sbiw	r26, 0x01	; 1
    58c2:	8e 17       	cp	r24, r30
    58c4:	9f 07       	cpc	r25, r31
    58c6:	14 f4       	brge	.+4      	; 0x58cc <_ZN23class_T6963C_Drive_V14110DrawBitMapEiiPKh+0x1cc>
    58c8:	ed 91       	ld	r30, X+
    58ca:	fc 91       	ld	r31, X
	//compute xS and xD
	if (xI<this->_Window.xMin)
    58cc:	ac 89       	ldd	r26, Y+20	; 0x14
    58ce:	bd 89       	ldd	r27, Y+21	; 0x15
    58d0:	da 96       	adiw	r26, 0x3a	; 58
    58d2:	8d 91       	ld	r24, X+
    58d4:	9c 91       	ld	r25, X
    58d6:	db 97       	sbiw	r26, 0x3b	; 59
    58d8:	68 17       	cp	r22, r24
    58da:	79 07       	cpc	r23, r25
    58dc:	5c f4       	brge	.+22     	; 0x58f4 <_ZN23class_T6963C_Drive_V14110DrawBitMapEiiPKh+0x1f4>
	{
		xS=this->_Window.xMin-xI;
    58de:	da 96       	adiw	r26, 0x3a	; 58
    58e0:	8d 91       	ld	r24, X+
    58e2:	9c 91       	ld	r25, X
    58e4:	db 97       	sbiw	r26, 0x3b	; 59
    58e6:	86 1b       	sub	r24, r22
    58e8:	97 0b       	sbc	r25, r23
		xD=this->_Window.xMin;
    58ea:	da 96       	adiw	r26, 0x3a	; 58
    58ec:	6d 91       	ld	r22, X+
    58ee:	7c 91       	ld	r23, X
    58f0:	db 97       	sbiw	r26, 0x3b	; 59
    58f2:	02 c0       	rjmp	.+4      	; 0x58f8 <_ZN23class_T6963C_Drive_V14110DrawBitMapEiiPKh+0x1f8>
	}
	else
	{
		xS=0;
    58f4:	80 e0       	ldi	r24, 0x00	; 0
    58f6:	90 e0       	ldi	r25, 0x00	; 0
		xD=xI;
	}
	//compute width draw
	widthDraw=xF-xD+1;
    58f8:	da 01       	movw	r26, r20
    58fa:	a6 1b       	sub	r26, r22
    58fc:	b7 0b       	sbc	r27, r23
    58fe:	ba 87       	std	Y+10, r27	; 0x0a
    5900:	a9 87       	std	Y+9, r26	; 0x09
	//compute yS and yD
	if (yI<this->_Window.yMin)
    5902:	ac 89       	ldd	r26, Y+20	; 0x14
    5904:	bd 89       	ldd	r27, Y+21	; 0x15
    5906:	de 96       	adiw	r26, 0x3e	; 62
    5908:	4d 91       	ld	r20, X+
    590a:	5c 91       	ld	r21, X
    590c:	df 97       	sbiw	r26, 0x3f	; 63
    590e:	e4 16       	cp	r14, r20
    5910:	f5 06       	cpc	r15, r21
    5912:	5c f4       	brge	.+22     	; 0x592a <_ZN23class_T6963C_Drive_V14110DrawBitMapEiiPKh+0x22a>
	{
		yS=this->_Window.yMin-yI;
    5914:	de 96       	adiw	r26, 0x3e	; 62
    5916:	4d 91       	ld	r20, X+
    5918:	5c 91       	ld	r21, X
    591a:	df 97       	sbiw	r26, 0x3f	; 63
    591c:	4e 19       	sub	r20, r14
    591e:	5f 09       	sbc	r21, r15
		yD=this->_Window.yMin;
    5920:	de 96       	adiw	r26, 0x3e	; 62
    5922:	ed 90       	ld	r14, X+
    5924:	fc 90       	ld	r15, X
    5926:	df 97       	sbiw	r26, 0x3f	; 63
    5928:	02 c0       	rjmp	.+4      	; 0x592e <_ZN23class_T6963C_Drive_V14110DrawBitMapEiiPKh+0x22e>
	}
	else
	{
		yS=0;
    592a:	40 e0       	ldi	r20, 0x00	; 0
    592c:	50 e0       	ldi	r21, 0x00	; 0
		yD=yI;
	}
	//compute height draw
	heightDraw=yF-yD+1;
    592e:	df 01       	movw	r26, r30
    5930:	ae 19       	sub	r26, r14
    5932:	bf 09       	sbc	r27, r15
    5934:	bc 87       	std	Y+12, r27	; 0x0c
    5936:	ab 87       	std	Y+11, r26	; 0x0b
	//Set according Active Page
	switch (this->_GraphActivePage)
    5938:	ac 89       	ldd	r26, Y+20	; 0x14
    593a:	bd 89       	ldd	r27, Y+21	; 0x15
    593c:	5a 96       	adiw	r26, 0x1a	; 26
    593e:	ec 91       	ld	r30, X
    5940:	e1 30       	cpi	r30, 0x01	; 1
    5942:	59 f0       	breq	.+22     	; 0x595a <_ZN23class_T6963C_Drive_V14110DrawBitMapEiiPKh+0x25a>
    5944:	e2 30       	cpi	r30, 0x02	; 2
    5946:	89 f4       	brne	.+34     	; 0x596a <_ZN23class_T6963C_Drive_V14110DrawBitMapEiiPKh+0x26a>
	{
		case 1:
			acPage=this->_GraphStartAddress;
		break;
		case 2:
			acPage=this->_GraphStartAddress2;
    5948:	ac 89       	ldd	r26, Y+20	; 0x14
    594a:	bd 89       	ldd	r27, Y+21	; 0x15
    594c:	95 96       	adiw	r26, 0x25	; 37
    594e:	0d 90       	ld	r0, X+
    5950:	bc 91       	ld	r27, X
    5952:	a0 2d       	mov	r26, r0
    5954:	ba 83       	std	Y+2, r27	; 0x02
    5956:	a9 83       	std	Y+1, r26	; 0x01
		break;
    5958:	0a c0       	rjmp	.+20     	; 0x596e <_ZN23class_T6963C_Drive_V14110DrawBitMapEiiPKh+0x26e>
	heightDraw=yF-yD+1;
	//Set according Active Page
	switch (this->_GraphActivePage)
	{
		case 1:
			acPage=this->_GraphStartAddress;
    595a:	ec 89       	ldd	r30, Y+20	; 0x14
    595c:	fd 89       	ldd	r31, Y+21	; 0x15
    595e:	03 a0       	ldd	r0, Z+35	; 0x23
    5960:	f4 a1       	ldd	r31, Z+36	; 0x24
    5962:	e0 2d       	mov	r30, r0
    5964:	fa 83       	std	Y+2, r31	; 0x02
    5966:	e9 83       	std	Y+1, r30	; 0x01
		break;
    5968:	02 c0       	rjmp	.+4      	; 0x596e <_ZN23class_T6963C_Drive_V14110DrawBitMapEiiPKh+0x26e>
	int16_t widthBmp,heightBmp,										//Width and Height of BitMap
	widthDraw,heightDraw;									//Width and Height of Drawable area
	#ifdef _T6963C_TEST_MODE_
	static
	#endif
	uint16_t widthBytes,sizeBytes,addrBmp=0,addrDraw,acPage=0,scanPage=0;
    596a:	1a 82       	std	Y+2, r1	; 0x02
    596c:	19 82       	std	Y+1, r1	; 0x01
	widthBytes=pgm_read_byte(bmp++);
	widthBytes+=pgm_read_byte(bmp++)<<8;
	if (widthBytes==0) return false;								//return if size in bytes equal 0
	//Get bmp Size in Bytes
	sizeBytes=pgm_read_byte(bmp++);
	sizeBytes+=pgm_read_byte(bmp++)<<8;
    596e:	f9 01       	movw	r30, r18
    5970:	3c 96       	adiw	r30, 0x0c	; 12
    5972:	fe 83       	std	Y+6, r31	; 0x06
    5974:	ed 83       	std	Y+5, r30	; 0x05
			}
			break;
		}
		//Compute Draw and Bitmap start position
		addrBmp=(yS*widthBytes)+(xS>>3);
		bmpMask=0x80>>(xS&7);
    5976:	fc 01       	movw	r30, r24
    5978:	e7 70       	andi	r30, 0x07	; 7
    597a:	ff 27       	eor	r31, r31
    597c:	20 e8       	ldi	r18, 0x80	; 128
    597e:	30 e0       	ldi	r19, 0x00	; 0
    5980:	d9 01       	movw	r26, r18
    5982:	02 c0       	rjmp	.+4      	; 0x5988 <_ZN23class_T6963C_Drive_V14110DrawBitMapEiiPKh+0x288>
    5984:	b5 95       	asr	r27
    5986:	a7 95       	ror	r26
    5988:	ea 95       	dec	r30
    598a:	e2 f7       	brpl	.-8      	; 0x5984 <_ZN23class_T6963C_Drive_V14110DrawBitMapEiiPKh+0x284>
    598c:	ad 87       	std	Y+13, r26	; 0x0d
		bmpBits=0;
		yS++;
		addrDraw=(yScan*this->_HardwareCols)+(xD>>3)+acPage+scanPage;
    598e:	fb 01       	movw	r30, r22
    5990:	a3 e0       	ldi	r26, 0x03	; 3
    5992:	f5 95       	asr	r31
    5994:	e7 95       	ror	r30
    5996:	aa 95       	dec	r26
    5998:	e1 f7       	brne	.-8      	; 0x5992 <_ZN23class_T6963C_Drive_V14110DrawBitMapEiiPKh+0x292>
    599a:	ff 87       	std	Y+15, r31	; 0x0f
    599c:	ee 87       	std	Y+14, r30	; 0x0e
		yD++;
		SetAddressPointer(addrDraw);
		
		//Compute start mask
		MaskMove=0x80>>(xD&7);
    599e:	67 70       	andi	r22, 0x07	; 7
    59a0:	77 27       	eor	r23, r23
    59a2:	02 c0       	rjmp	.+4      	; 0x59a8 <_ZN23class_T6963C_Drive_V14110DrawBitMapEiiPKh+0x2a8>
    59a4:	35 95       	asr	r19
    59a6:	27 95       	ror	r18
    59a8:	6a 95       	dec	r22
    59aa:	e2 f7       	brpl	.-8      	; 0x59a4 <_ZN23class_T6963C_Drive_V14110DrawBitMapEiiPKh+0x2a4>
    59ac:	28 8b       	std	Y+16, r18	; 0x10
    59ae:	48 9d       	mul	r20, r8
    59b0:	90 01       	movw	r18, r0
    59b2:	49 9d       	mul	r20, r9
    59b4:	30 0d       	add	r19, r0
    59b6:	58 9d       	mul	r21, r8
    59b8:	30 0d       	add	r19, r0
    59ba:	11 24       	eor	r1, r1
				scanPage=_T6963C_PAGE1;
			}
			break;
		}
		//Compute Draw and Bitmap start position
		addrBmp=(yS*widthBytes)+(xS>>3);
    59bc:	b3 e0       	ldi	r27, 0x03	; 3
    59be:	95 95       	asr	r25
    59c0:	87 95       	ror	r24
    59c2:	ba 95       	dec	r27
    59c4:	e1 f7       	brne	.-8      	; 0x59be <_ZN23class_T6963C_Drive_V14110DrawBitMapEiiPKh+0x2be>
    59c6:	a9 01       	movw	r20, r18
    59c8:	48 0f       	add	r20, r24
    59ca:	59 1f       	adc	r21, r25
    59cc:	5a 8b       	std	Y+18, r21	; 0x12
    59ce:	49 8b       	std	Y+17, r20	; 0x11
	}

	////////////////////////////////////////////
	//Main Draw BitMap loop
	////////////////////////////////////////////
	for(int y=0;y<heightDraw;y++)
    59d0:	41 2c       	mov	r4, r1
    59d2:	51 2c       	mov	r5, r1
    59d4:	c1 2c       	mov	r12, r1
    59d6:	d1 2c       	mov	r13, r1
	int16_t widthBmp,heightBmp,										//Width and Height of BitMap
	widthDraw,heightDraw;									//Width and Height of Drawable area
	#ifdef _T6963C_TEST_MODE_
	static
	#endif
	uint16_t widthBytes,sizeBytes,addrBmp=0,addrDraw,acPage=0,scanPage=0;
    59d8:	1c 82       	std	Y+4, r1	; 0x04
    59da:	1b 82       	std	Y+3, r1	; 0x03
    59dc:	c6 01       	movw	r24, r12
    59de:	8e 0d       	add	r24, r14
    59e0:	9f 1d       	adc	r25, r15
	}

	////////////////////////////////////////////
	//Main Draw BitMap loop
	////////////////////////////////////////////
	for(int y=0;y<heightDraw;y++)
    59e2:	eb 85       	ldd	r30, Y+11	; 0x0b
    59e4:	fc 85       	ldd	r31, Y+12	; 0x0c
    59e6:	ec 15       	cp	r30, r12
    59e8:	fd 05       	cpc	r31, r13
    59ea:	0c f4       	brge	.+2      	; 0x59ee <_ZN23class_T6963C_Drive_V14110DrawBitMapEiiPKh+0x2ee>
    59ec:	b0 c0       	rjmp	.+352    	; 0x5b4e <_ZN23class_T6963C_Drive_V14110DrawBitMapEiiPKh+0x44e>
	{
		//according scanMode
		yScan=yD;
		switch (_ScanMode)
    59ee:	ac 89       	ldd	r26, Y+20	; 0x14
    59f0:	bd 89       	ldd	r27, Y+21	; 0x15
    59f2:	d7 96       	adiw	r26, 0x37	; 55
    59f4:	2d 91       	ld	r18, X+
    59f6:	3c 91       	ld	r19, X
    59f8:	d8 97       	sbiw	r26, 0x38	; 56
    59fa:	21 30       	cpi	r18, 0x01	; 1
    59fc:	31 05       	cpc	r19, r1
    59fe:	c1 f4       	brne	.+48     	; 0x5a30 <_ZN23class_T6963C_Drive_V14110DrawBitMapEiiPKh+0x330>
			break;
			case _T6963C_ScanMode::DUAL:
			//assume page 0
			scanPage=_T6963C_PAGE0;
			//check if in page 1
			if (yScan>=(_GraphHeight>>1))
    5a00:	d5 96       	adiw	r26, 0x35	; 53
    5a02:	2d 91       	ld	r18, X+
    5a04:	3c 91       	ld	r19, X
    5a06:	d6 97       	sbiw	r26, 0x36	; 54
    5a08:	35 95       	asr	r19
    5a0a:	27 95       	ror	r18
    5a0c:	82 17       	cp	r24, r18
    5a0e:	93 07       	cpc	r25, r19
    5a10:	6c f0       	brlt	.+26     	; 0x5a2c <_ZN23class_T6963C_Drive_V14110DrawBitMapEiiPKh+0x32c>
			{
				//yes, set page 1
				yScan-=(_GraphHeight>>1);
    5a12:	d5 96       	adiw	r26, 0x35	; 53
    5a14:	2d 91       	ld	r18, X+
    5a16:	3c 91       	ld	r19, X
    5a18:	d6 97       	sbiw	r26, 0x36	; 54
    5a1a:	35 95       	asr	r19
    5a1c:	27 95       	ror	r18
    5a1e:	82 1b       	sub	r24, r18
    5a20:	93 0b       	sbc	r25, r19
				scanPage=_T6963C_PAGE1;
    5a22:	e0 e0       	ldi	r30, 0x00	; 0
    5a24:	f0 e8       	ldi	r31, 0x80	; 128
    5a26:	fc 83       	std	Y+4, r31	; 0x04
    5a28:	eb 83       	std	Y+3, r30	; 0x03
    5a2a:	02 c0       	rjmp	.+4      	; 0x5a30 <_ZN23class_T6963C_Drive_V14110DrawBitMapEiiPKh+0x330>
			case _T6963C_ScanMode::SINGLE:
			//none need
			break;
			case _T6963C_ScanMode::DUAL:
			//assume page 0
			scanPage=_T6963C_PAGE0;
    5a2c:	1c 82       	std	Y+4, r1	; 0x04
    5a2e:	1b 82       	std	Y+3, r1	; 0x03
    5a30:	a9 88       	ldd	r10, Y+17	; 0x11
    5a32:	ba 88       	ldd	r11, Y+18	; 0x12
    5a34:	a4 0c       	add	r10, r4
    5a36:	b5 1c       	adc	r11, r5
		//Compute Draw and Bitmap start position
		addrBmp=(yS*widthBytes)+(xS>>3);
		bmpMask=0x80>>(xS&7);
		bmpBits=0;
		yS++;
		addrDraw=(yScan*this->_HardwareCols)+(xD>>3)+acPage+scanPage;
    5a38:	ac 89       	ldd	r26, Y+20	; 0x14
    5a3a:	bd 89       	ldd	r27, Y+21	; 0x15
    5a3c:	51 96       	adiw	r26, 0x11	; 17
    5a3e:	2c 91       	ld	r18, X
    5a40:	51 97       	sbiw	r26, 0x11	; 17
    5a42:	28 9f       	mul	r18, r24
    5a44:	b0 01       	movw	r22, r0
    5a46:	29 9f       	mul	r18, r25
    5a48:	70 0d       	add	r23, r0
    5a4a:	11 24       	eor	r1, r1
    5a4c:	ee 85       	ldd	r30, Y+14	; 0x0e
    5a4e:	ff 85       	ldd	r31, Y+15	; 0x0f
    5a50:	6e 0f       	add	r22, r30
    5a52:	7f 1f       	adc	r23, r31
    5a54:	8b 81       	ldd	r24, Y+3	; 0x03
    5a56:	9c 81       	ldd	r25, Y+4	; 0x04
    5a58:	29 81       	ldd	r18, Y+1	; 0x01
    5a5a:	3a 81       	ldd	r19, Y+2	; 0x02
    5a5c:	82 0f       	add	r24, r18
    5a5e:	93 1f       	adc	r25, r19
    5a60:	68 0f       	add	r22, r24
    5a62:	79 1f       	adc	r23, r25
		yD++;
		SetAddressPointer(addrDraw);
    5a64:	cd 01       	movw	r24, r26
    5a66:	0e 94 b6 22 	call	0x456c	; 0x456c <_ZN23class_T6963C_Drive_V14117SetAddressPointerEj>
		///@brief 		<td><img src="_Photos\Circle_Pattern.jpg" style="width:64px;height:48px;"></td>
		///@brief 		<td><img src="_Photos\Ellipse_Pattern.jpg" style="width:64px;height:48px;"></td>
		///@brief 	</tr>
		///@brief </table>		
		//	+-------------------------------------------------------------------------------+
		void inline SetDrawMode(DrawMode drawMode) {_DrawMode=drawMode; }
    5a6a:	e2 e0       	ldi	r30, 0x02	; 2
    5a6c:	f0 e0       	ldi	r31, 0x00	; 0
    5a6e:	ac 89       	ldd	r26, Y+20	; 0x14
    5a70:	bd 89       	ldd	r27, Y+21	; 0x15
    5a72:	13 96       	adiw	r26, 0x03	; 3
    5a74:	fc 93       	st	X, r31
    5a76:	ee 93       	st	-X, r30
    5a78:	12 97       	sbiw	r26, 0x02	; 2
    5a7a:	ed 81       	ldd	r30, Y+5	; 0x05
    5a7c:	fe 81       	ldd	r31, Y+6	; 0x06
    5a7e:	ea 0d       	add	r30, r10
    5a80:	fb 1d       	adc	r31, r11
		bAutoWrite=false;
		//set Pattern Draw Mode
		SetDrawMode(DrawMode::PATTERN);
		//Draw Cols pixels
		
		bmpData=pgm_read_byte(bmp+addrBmp);
    5a82:	24 90       	lpm	r2, Z
			}
			break;
		}
		//Compute Draw and Bitmap start position
		addrBmp=(yS*widthBytes)+(xS>>3);
		bmpMask=0x80>>(xS&7);
    5a84:	1d 85       	ldd	r17, Y+13	; 0x0d
		addrDraw=(yScan*this->_HardwareCols)+(xD>>3)+acPage+scanPage;
		yD++;
		SetAddressPointer(addrDraw);
		
		//Compute start mask
		MaskMove=0x80>>(xD&7);
    5a86:	88 89       	ldd	r24, Y+16	; 0x10
		SetDrawMode(DrawMode::PATTERN);
		//Draw Cols pixels
		
		bmpData=pgm_read_byte(bmp+addrBmp);
		
		for(int x=0;x<widthDraw;x++)
    5a88:	61 2c       	mov	r6, r1
    5a8a:	71 2c       	mov	r7, r1
		SetAddressPointer(addrDraw);
		
		//Compute start mask
		MaskMove=0x80>>(xD&7);
		MaskResult=0;
		bAutoWrite=false;
    5a8c:	50 e0       	ldi	r21, 0x00	; 0
			break;
		}
		//Compute Draw and Bitmap start position
		addrBmp=(yS*widthBytes)+(xS>>3);
		bmpMask=0x80>>(xS&7);
		bmpBits=0;
    5a8e:	31 2c       	mov	r3, r1
		yD++;
		SetAddressPointer(addrDraw);
		
		//Compute start mask
		MaskMove=0x80>>(xD&7);
		MaskResult=0;
    5a90:	60 e0       	ldi	r22, 0x00	; 0
		SetDrawMode(DrawMode::PATTERN);
		//Draw Cols pixels
		
		bmpData=pgm_read_byte(bmp+addrBmp);
		
		for(int x=0;x<widthDraw;x++)
    5a92:	a9 85       	ldd	r26, Y+9	; 0x09
    5a94:	ba 85       	ldd	r27, Y+10	; 0x0a
    5a96:	a6 15       	cp	r26, r6
    5a98:	b7 05       	cpc	r27, r7
    5a9a:	0c f4       	brge	.+2      	; 0x5a9e <_ZN23class_T6963C_Drive_V14110DrawBitMapEiiPKh+0x39e>
    5a9c:	42 c0       	rjmp	.+132    	; 0x5b22 <_ZN23class_T6963C_Drive_V14110DrawBitMapEiiPKh+0x422>
		{
			//copy bmp data bo draw data
			if ((bmpData & bmpMask)!=0)
    5a9e:	92 2d       	mov	r25, r2
    5aa0:	91 23       	and	r25, r17
    5aa2:	11 f0       	breq	.+4      	; 0x5aa8 <_ZN23class_T6963C_Drive_V14110DrawBitMapEiiPKh+0x3a8>
			{
				bmpBits|=MaskMove;
    5aa4:	38 2a       	or	r3, r24
    5aa6:	03 c0       	rjmp	.+6      	; 0x5aae <_ZN23class_T6963C_Drive_V14110DrawBitMapEiiPKh+0x3ae>
			}
			else
			{
				bmpBits&=~(MaskMove);
    5aa8:	98 2f       	mov	r25, r24
    5aaa:	90 95       	com	r25
    5aac:	39 22       	and	r3, r25
			}
			//Check if time to load new bmp data
			bmpMask>>=1;
    5aae:	21 2f       	mov	r18, r17
    5ab0:	30 e0       	ldi	r19, 0x00	; 0
    5ab2:	35 95       	asr	r19
    5ab4:	27 95       	ror	r18
			if (bmpMask==0)
    5ab6:	21 15       	cp	r18, r1
    5ab8:	31 05       	cpc	r19, r1
    5aba:	11 f0       	breq	.+4      	; 0x5ac0 <_ZN23class_T6963C_Drive_V14110DrawBitMapEiiPKh+0x3c0>
			else
			{
				bmpBits&=~(MaskMove);
			}
			//Check if time to load new bmp data
			bmpMask>>=1;
    5abc:	12 2f       	mov	r17, r18
    5abe:	09 c0       	rjmp	.+18     	; 0x5ad2 <_ZN23class_T6963C_Drive_V14110DrawBitMapEiiPKh+0x3d2>
			if (bmpMask==0)
			{
				bmpMask=0x80;
				addrBmp++;
    5ac0:	ff ef       	ldi	r31, 0xFF	; 255
    5ac2:	af 1a       	sub	r10, r31
    5ac4:	bf 0a       	sbc	r11, r31
				bmpData=pgm_read_byte(bmp+addrBmp);
    5ac6:	ed 81       	ldd	r30, Y+5	; 0x05
    5ac8:	fe 81       	ldd	r31, Y+6	; 0x06
    5aca:	ea 0d       	add	r30, r10
    5acc:	fb 1d       	adc	r31, r11
    5ace:	24 90       	lpm	r2, Z
			}
			//Check if time to load new bmp data
			bmpMask>>=1;
			if (bmpMask==0)
			{
				bmpMask=0x80;
    5ad0:	10 e8       	ldi	r17, 0x80	; 128
				addrBmp++;
				bmpData=pgm_read_byte(bmp+addrBmp);
			}
			//compute result mask
			MaskResult|=MaskMove;
    5ad2:	68 2b       	or	r22, r24
			//shift maskmove
			MaskMove>>=1;
    5ad4:	90 e0       	ldi	r25, 0x00	; 0
    5ad6:	95 95       	asr	r25
    5ad8:	87 95       	ror	r24
			//time to write results?
			if (MaskMove==0)
    5ada:	00 97       	sbiw	r24, 0x00	; 0
    5adc:	f1 f4       	brne	.+60     	; 0x5b1a <_ZN23class_T6963C_Drive_V14110DrawBitMapEiiPKh+0x41a>
			{
				//yes,reset maskmove
				MaskMove=0x80;
				//Draw Pattern with Mask
				if (bAutoWrite)
    5ade:	55 23       	and	r21, r21
    5ae0:	69 f0       	breq	.+26     	; 0x5afc <_ZN23class_T6963C_Drive_V14110DrawBitMapEiiPKh+0x3fc>
				{
					DrawPatternWithMask(MaskResult,bmpBits,Pen::Black,true);
    5ae2:	01 e0       	ldi	r16, 0x01	; 1
    5ae4:	2f ef       	ldi	r18, 0xFF	; 255
    5ae6:	30 e0       	ldi	r19, 0x00	; 0
    5ae8:	43 2d       	mov	r20, r3
    5aea:	8c 89       	ldd	r24, Y+20	; 0x14
    5aec:	9d 89       	ldd	r25, Y+21	; 0x15
    5aee:	5b 8b       	std	Y+19, r21	; 0x13
    5af0:	0e 94 b1 24 	call	0x4962	; 0x4962 <_ZN23class_T6963C_Drive_V14119DrawPatternWithMaskEhh9_enum_Penb>
					//set autowrite mode
					SetModeAutoWrite();
					bAutoWrite=true;
				}
				//clear maskResult
				MaskResult=0;
    5af4:	60 e0       	ldi	r22, 0x00	; 0
			MaskMove>>=1;
			//time to write results?
			if (MaskMove==0)
			{
				//yes,reset maskmove
				MaskMove=0x80;
    5af6:	80 e8       	ldi	r24, 0x80	; 128
    5af8:	5b 89       	ldd	r21, Y+19	; 0x13
    5afa:	0f c0       	rjmp	.+30     	; 0x5b1a <_ZN23class_T6963C_Drive_V14110DrawBitMapEiiPKh+0x41a>
				{
					DrawPatternWithMask(MaskResult,bmpBits,Pen::Black,true);
				}
				else
				{
					DrawPatternWithMask(MaskResult,bmpBits,Pen::Black,false);
    5afc:	00 e0       	ldi	r16, 0x00	; 0
    5afe:	2f ef       	ldi	r18, 0xFF	; 255
    5b00:	30 e0       	ldi	r19, 0x00	; 0
    5b02:	43 2d       	mov	r20, r3
    5b04:	8c 89       	ldd	r24, Y+20	; 0x14
    5b06:	9d 89       	ldd	r25, Y+21	; 0x15
    5b08:	0e 94 b1 24 	call	0x4962	; 0x4962 <_ZN23class_T6963C_Drive_V14119DrawPatternWithMaskEhh9_enum_Penb>
					//set autowrite mode
					SetModeAutoWrite();
    5b0c:	8c 89       	ldd	r24, Y+20	; 0x14
    5b0e:	9d 89       	ldd	r25, Y+21	; 0x15
    5b10:	0e 94 0e 23 	call	0x461c	; 0x461c <_ZN23class_T6963C_Drive_V14116SetModeAutoWriteEv>
					bAutoWrite=true;
    5b14:	51 e0       	ldi	r21, 0x01	; 1
				}
				//clear maskResult
				MaskResult=0;
    5b16:	60 e0       	ldi	r22, 0x00	; 0
			MaskMove>>=1;
			//time to write results?
			if (MaskMove==0)
			{
				//yes,reset maskmove
				MaskMove=0x80;
    5b18:	80 e8       	ldi	r24, 0x80	; 128
		SetDrawMode(DrawMode::PATTERN);
		//Draw Cols pixels
		
		bmpData=pgm_read_byte(bmp+addrBmp);
		
		for(int x=0;x<widthDraw;x++)
    5b1a:	2f ef       	ldi	r18, 0xFF	; 255
    5b1c:	62 1a       	sub	r6, r18
    5b1e:	72 0a       	sbc	r7, r18
    5b20:	b8 cf       	rjmp	.-144    	; 0x5a92 <_ZN23class_T6963C_Drive_V14110DrawBitMapEiiPKh+0x392>
				}
				//clear maskResult
				MaskResult=0;
			}
		}
		SetModeAutoReset();
    5b22:	8c 89       	ldd	r24, Y+20	; 0x14
    5b24:	9d 89       	ldd	r25, Y+21	; 0x15
    5b26:	6b 8b       	std	Y+19, r22	; 0x13
    5b28:	0e 94 10 23 	call	0x4620	; 0x4620 <_ZN23class_T6963C_Drive_V14116SetModeAutoResetEv>
		//Draw Pattern with Mask
		if (MaskResult!=0) DrawPatternWithMask(MaskResult,bmpBits,Pen::Black,false);
    5b2c:	6b 89       	ldd	r22, Y+19	; 0x13
    5b2e:	66 23       	and	r22, r22
    5b30:	41 f0       	breq	.+16     	; 0x5b42 <_ZN23class_T6963C_Drive_V14110DrawBitMapEiiPKh+0x442>
    5b32:	00 e0       	ldi	r16, 0x00	; 0
    5b34:	2f ef       	ldi	r18, 0xFF	; 255
    5b36:	30 e0       	ldi	r19, 0x00	; 0
    5b38:	43 2d       	mov	r20, r3
    5b3a:	8c 89       	ldd	r24, Y+20	; 0x14
    5b3c:	9d 89       	ldd	r25, Y+21	; 0x15
    5b3e:	0e 94 b1 24 	call	0x4962	; 0x4962 <_ZN23class_T6963C_Drive_V14119DrawPatternWithMaskEhh9_enum_Penb>
	}

	////////////////////////////////////////////
	//Main Draw BitMap loop
	////////////////////////////////////////////
	for(int y=0;y<heightDraw;y++)
    5b42:	bf ef       	ldi	r27, 0xFF	; 255
    5b44:	cb 1a       	sub	r12, r27
    5b46:	db 0a       	sbc	r13, r27
    5b48:	48 0c       	add	r4, r8
    5b4a:	59 1c       	adc	r5, r9
    5b4c:	47 cf       	rjmp	.-370    	; 0x59dc <_ZN23class_T6963C_Drive_V14110DrawBitMapEiiPKh+0x2dc>
    5b4e:	ef 81       	ldd	r30, Y+7	; 0x07
    5b50:	f8 85       	ldd	r31, Y+8	; 0x08
    5b52:	ac 89       	ldd	r26, Y+20	; 0x14
    5b54:	bd 89       	ldd	r27, Y+21	; 0x15
    5b56:	13 96       	adiw	r26, 0x03	; 3
    5b58:	fc 93       	st	X, r31
    5b5a:	ee 93       	st	-X, r30
    5b5c:	12 97       	sbiw	r26, 0x02	; 2
//		delayMs(250);
	}
	//restore draw mode
	SetDrawMode(dm);
	//for now return true
	return true;
    5b5e:	81 e0       	ldi	r24, 0x01	; 1
}
    5b60:	65 96       	adiw	r28, 0x15	; 21
    5b62:	0f b6       	in	r0, 0x3f	; 63
    5b64:	f8 94       	cli
    5b66:	de bf       	out	0x3e, r29	; 62
    5b68:	0f be       	out	0x3f, r0	; 63
    5b6a:	cd bf       	out	0x3d, r28	; 61
    5b6c:	df 91       	pop	r29
    5b6e:	cf 91       	pop	r28
    5b70:	1f 91       	pop	r17
    5b72:	0f 91       	pop	r16
    5b74:	ff 90       	pop	r15
    5b76:	ef 90       	pop	r14
    5b78:	df 90       	pop	r13
    5b7a:	cf 90       	pop	r12
    5b7c:	bf 90       	pop	r11
    5b7e:	af 90       	pop	r10
    5b80:	9f 90       	pop	r9
    5b82:	8f 90       	pop	r8
    5b84:	7f 90       	pop	r7
    5b86:	6f 90       	pop	r6
    5b88:	5f 90       	pop	r5
    5b8a:	4f 90       	pop	r4
    5b8c:	3f 90       	pop	r3
    5b8e:	2f 90       	pop	r2
    5b90:	08 95       	ret

00005b92 <_ZN23class_T6963C_Drive_V1415GPutCEch>:
	//	| INPUT   :                                 			                        |
	//	| OUTPUT  :                                                                     |
	//	| REMARKS :									            		                |
	//	+-------------------------------------------------------------------------------+
	void  class_T6963C_Drive_V141::GPutC(char c,Pixel pixel)
	{
    5b92:	2f 92       	push	r2
    5b94:	3f 92       	push	r3
    5b96:	4f 92       	push	r4
    5b98:	5f 92       	push	r5
    5b9a:	6f 92       	push	r6
    5b9c:	7f 92       	push	r7
    5b9e:	8f 92       	push	r8
    5ba0:	9f 92       	push	r9
    5ba2:	af 92       	push	r10
    5ba4:	bf 92       	push	r11
    5ba6:	cf 92       	push	r12
    5ba8:	df 92       	push	r13
    5baa:	ef 92       	push	r14
    5bac:	ff 92       	push	r15
    5bae:	0f 93       	push	r16
    5bb0:	1f 93       	push	r17
    5bb2:	cf 93       	push	r28
    5bb4:	df 93       	push	r29
    5bb6:	cd b7       	in	r28, 0x3d	; 61
    5bb8:	de b7       	in	r29, 0x3e	; 62
    5bba:	2c 97       	sbiw	r28, 0x0c	; 12
    5bbc:	0f b6       	in	r0, 0x3f	; 63
    5bbe:	f8 94       	cli
    5bc0:	de bf       	out	0x3e, r29	; 62
    5bc2:	0f be       	out	0x3f, r0	; 63
    5bc4:	cd bf       	out	0x3d, r28	; 61
    5bc6:	dc 01       	movw	r26, r24
		uint8_t		b,mask;
		uint16_t	index;
		DrawMode	dm;
		int x,y;
		//actual coords
		x=_X;
    5bc8:	9f 96       	adiw	r26, 0x2f	; 47
    5bca:	8d 90       	ld	r8, X+
    5bcc:	9c 90       	ld	r9, X
    5bce:	d0 97       	sbiw	r26, 0x30	; 48
		y=_Y;
    5bd0:	d1 96       	adiw	r26, 0x31	; 49
    5bd2:	4d 90       	ld	r4, X+
    5bd4:	5c 90       	ld	r5, X
    5bd6:	d2 97       	sbiw	r26, 0x32	; 50
    5bd8:	12 96       	adiw	r26, 0x02	; 2
    5bda:	2d 91       	ld	r18, X+
    5bdc:	3c 91       	ld	r19, X
    5bde:	13 97       	sbiw	r26, 0x03	; 3
    5be0:	3e 83       	std	Y+6, r19	; 0x06
    5be2:	2d 83       	std	Y+5, r18	; 0x05
		dm=GetDrawMode();
		//check if in range
		if (c>=' ' && c<='~')
    5be4:	80 ee       	ldi	r24, 0xE0	; 224
    5be6:	86 0f       	add	r24, r22
    5be8:	8f 35       	cpi	r24, 0x5F	; 95
    5bea:	08 f0       	brcs	.+2      	; 0x5bee <_ZN23class_T6963C_Drive_V1415GPutCEch+0x5c>
    5bec:	10 c1       	rjmp	.+544    	; 0x5e0e <_ZN23class_T6963C_Drive_V1415GPutCEch+0x27c>
    5bee:	d4 2e       	mov	r13, r20
    5bf0:	bc 87       	std	Y+12, r27	; 0x0c
    5bf2:	ab 87       	std	Y+11, r26	; 0x0b
		{
			//translate ascii to binary
			c-=' ';
			index=(c*8);
    5bf4:	e8 e0       	ldi	r30, 0x08	; 8
    5bf6:	8e 9f       	mul	r24, r30
    5bf8:	d0 01       	movw	r26, r0
    5bfa:	11 24       	eor	r1, r1
    5bfc:	b8 87       	std	Y+8, r27	; 0x08
    5bfe:	af 83       	std	Y+7, r26	; 0x07
    5c00:	12 01       	movw	r2, r4
    5c02:	61 2c       	mov	r6, r1
    5c04:	71 2c       	mov	r7, r1
								}
								else
								{
									DrawBox(x+i*this->_GraphTextScale,y+j*this->_GraphTextScale, \
											x+i*this->_GraphTextScale+this->_GraphTextScale-1,y+j*this->_GraphTextScale+this->_GraphTextScale-1, \
											(~pixel&1)?Pen::Black:Pen::White,false);
    5c06:	f4 2f       	mov	r31, r20
    5c08:	f1 70       	andi	r31, 0x01	; 1
    5c0a:	fc 83       	std	Y+4, r31	; 0x04
							break;
							case DrawMode::SOLID:
							case DrawMode::PATTERN:
								if (this->_GraphTextScale==1)
								{
									SetPixel(x+i,y+j,~pixel);
    5c0c:	24 2f       	mov	r18, r20
    5c0e:	20 95       	com	r18
    5c10:	2a 87       	std	Y+10, r18	; 0x0a
    5c12:	ef 81       	ldd	r30, Y+7	; 0x07
    5c14:	f8 85       	ldd	r31, Y+8	; 0x08
    5c16:	e6 0d       	add	r30, r6
    5c18:	f7 1d       	adc	r31, r7
    5c1a:	e0 55       	subi	r30, 0x50	; 80
    5c1c:	ff 4f       	sbci	r31, 0xFF	; 255
			index=(c*8);
			//draw chars
			for(uint8_t j=0;j<8;j++)
			{
				mask=0x80;
				b=pgm_read_byte(&_T6963C_ASCII_Table[index++]);
    5c1e:	34 91       	lpm	r19, Z
    5c20:	39 87       	std	Y+9, r19	; 0x09
    5c22:	9a 82       	std	Y+2, r9	; 0x02
    5c24:	89 82       	std	Y+1, r8	; 0x01
    5c26:	a1 2c       	mov	r10, r1
    5c28:	b1 2c       	mov	r11, r1
			c-=' ';
			index=(c*8);
			//draw chars
			for(uint8_t j=0;j<8;j++)
			{
				mask=0x80;
    5c2a:	80 e8       	ldi	r24, 0x80	; 128
    5c2c:	8b 83       	std	Y+3, r24	; 0x03
				b=pgm_read_byte(&_T6963C_ASCII_Table[index++]);
				for(uint8_t i=0;i<=5;i++)
				{
					if ((b & mask)!=0)
    5c2e:	8b 81       	ldd	r24, Y+3	; 0x03
    5c30:	99 85       	ldd	r25, Y+9	; 0x09
    5c32:	89 23       	and	r24, r25
					{
						if (this->_GraphTextScale==1)
    5c34:	ab 85       	ldd	r26, Y+11	; 0x0b
    5c36:	bc 85       	ldd	r27, Y+12	; 0x0c
			{
				mask=0x80;
				b=pgm_read_byte(&_T6963C_ASCII_Table[index++]);
				for(uint8_t i=0;i<=5;i++)
				{
					if ((b & mask)!=0)
    5c38:	88 23       	and	r24, r24
    5c3a:	09 f4       	brne	.+2      	; 0x5c3e <_ZN23class_T6963C_Drive_V1415GPutCEch+0xac>
    5c3c:	6a c0       	rjmp	.+212    	; 0x5d12 <_ZN23class_T6963C_Drive_V1415GPutCEch+0x180>
					{
						if (this->_GraphTextScale==1)
    5c3e:	5c 96       	adiw	r26, 0x1c	; 28
    5c40:	8c 91       	ld	r24, X
    5c42:	81 30       	cpi	r24, 0x01	; 1
    5c44:	79 f4       	brne	.+30     	; 0x5c64 <_ZN23class_T6963C_Drive_V1415GPutCEch+0xd2>
						{
							if (i<5) SetPixel(x+i,y+j,pixel);
    5c46:	b5 e0       	ldi	r27, 0x05	; 5
    5c48:	ab 16       	cp	r10, r27
    5c4a:	b1 04       	cpc	r11, r1
    5c4c:	09 f4       	brne	.+2      	; 0x5c50 <_ZN23class_T6963C_Drive_V1415GPutCEch+0xbe>
    5c4e:	b4 c0       	rjmp	.+360    	; 0x5db8 <_ZN23class_T6963C_Drive_V1415GPutCEch+0x226>
    5c50:	ab 85       	ldd	r26, Y+11	; 0x0b
    5c52:	bc 85       	ldd	r27, Y+12	; 0x0c
    5c54:	ed 91       	ld	r30, X+
    5c56:	fc 91       	ld	r31, X
    5c58:	11 97       	sbiw	r26, 0x01	; 1
    5c5a:	02 80       	ldd	r0, Z+2	; 0x02
    5c5c:	f3 81       	ldd	r31, Z+3	; 0x03
    5c5e:	e0 2d       	mov	r30, r0
    5c60:	2d 2d       	mov	r18, r13
    5c62:	6b c0       	rjmp	.+214    	; 0x5d3a <_ZN23class_T6963C_Drive_V1415GPutCEch+0x1a8>
    5c64:	21 e0       	ldi	r18, 0x01	; 1
    5c66:	30 e0       	ldi	r19, 0x00	; 0
    5c68:	eb 85       	ldd	r30, Y+11	; 0x0b
    5c6a:	fc 85       	ldd	r31, Y+12	; 0x0c
    5c6c:	33 83       	std	Z+3, r19	; 0x03
    5c6e:	22 83       	std	Z+2, r18	; 0x02
						}
						else
						{
							SetDrawMode(DrawMode::SOLID);
							if (i<5) DrawBox(x+i*this->_GraphTextScale,y+j*this->_GraphTextScale, \
    5c70:	35 e0       	ldi	r19, 0x05	; 5
    5c72:	a3 16       	cp	r10, r19
    5c74:	b1 04       	cpc	r11, r1
    5c76:	09 f4       	brne	.+2      	; 0x5c7a <_ZN23class_T6963C_Drive_V1415GPutCEch+0xe8>
    5c78:	45 c0       	rjmp	.+138    	; 0x5d04 <_ZN23class_T6963C_Drive_V1415GPutCEch+0x172>
											 x+i*this->_GraphTextScale+this->_GraphTextScale-1,y+j*this->_GraphTextScale+this->_GraphTextScale-1, \
											 (pixel&1)?Pen::Black:Pen::White,false);
    5c7a:	8c 81       	ldd	r24, Y+4	; 0x04
    5c7c:	81 11       	cpse	r24, r1
    5c7e:	03 c0       	rjmp	.+6      	; 0x5c86 <_ZN23class_T6963C_Drive_V1415GPutCEch+0xf4>
    5c80:	e1 2c       	mov	r14, r1
    5c82:	f1 2c       	mov	r15, r1
    5c84:	03 c0       	rjmp	.+6      	; 0x5c8c <_ZN23class_T6963C_Drive_V1415GPutCEch+0xfa>
    5c86:	ee 24       	eor	r14, r14
    5c88:	ea 94       	dec	r14
    5c8a:	f1 2c       	mov	r15, r1
						}
						else
						{
							SetDrawMode(DrawMode::SOLID);
							if (i<5) DrawBox(x+i*this->_GraphTextScale,y+j*this->_GraphTextScale, \
											 x+i*this->_GraphTextScale+this->_GraphTextScale-1,y+j*this->_GraphTextScale+this->_GraphTextScale-1, \
    5c8c:	ab 85       	ldd	r26, Y+11	; 0x0b
    5c8e:	bc 85       	ldd	r27, Y+12	; 0x0c
    5c90:	5c 96       	adiw	r26, 0x1c	; 28
    5c92:	3c 91       	ld	r19, X
    5c94:	5c 97       	sbiw	r26, 0x1c	; 28
    5c96:	5c 96       	adiw	r26, 0x1c	; 28
    5c98:	2c 91       	ld	r18, X
    5c9a:	5c 97       	sbiw	r26, 0x1c	; 28
    5c9c:	5c 96       	adiw	r26, 0x1c	; 28
    5c9e:	5c 91       	ld	r21, X
    5ca0:	5c 97       	sbiw	r26, 0x1c	; 28
    5ca2:	5c 96       	adiw	r26, 0x1c	; 28
    5ca4:	4c 91       	ld	r20, X
    5ca6:	5c 97       	sbiw	r26, 0x1c	; 28
							if (i<5) SetPixel(x+i,y+j,pixel);
						}
						else
						{
							SetDrawMode(DrawMode::SOLID);
							if (i<5) DrawBox(x+i*this->_GraphTextScale,y+j*this->_GraphTextScale, \
    5ca8:	5c 96       	adiw	r26, 0x1c	; 28
    5caa:	9c 91       	ld	r25, X
    5cac:	5c 97       	sbiw	r26, 0x1c	; 28
    5cae:	5c 96       	adiw	r26, 0x1c	; 28
    5cb0:	8c 91       	ld	r24, X
    5cb2:	5c 97       	sbiw	r26, 0x1c	; 28
											 x+i*this->_GraphTextScale+this->_GraphTextScale-1,y+j*this->_GraphTextScale+this->_GraphTextScale-1, \
    5cb4:	36 9d       	mul	r19, r6
    5cb6:	80 01       	movw	r16, r0
    5cb8:	37 9d       	mul	r19, r7
    5cba:	10 0d       	add	r17, r0
    5cbc:	11 24       	eor	r1, r1
    5cbe:	04 0d       	add	r16, r4
    5cc0:	15 1d       	adc	r17, r5
    5cc2:	02 0f       	add	r16, r18
    5cc4:	11 1d       	adc	r17, r1
											 (pixel&1)?Pen::Black:Pen::White,false);
    5cc6:	01 50       	subi	r16, 0x01	; 1
    5cc8:	11 09       	sbc	r17, r1
						}
						else
						{
							SetDrawMode(DrawMode::SOLID);
							if (i<5) DrawBox(x+i*this->_GraphTextScale,y+j*this->_GraphTextScale, \
											 x+i*this->_GraphTextScale+this->_GraphTextScale-1,y+j*this->_GraphTextScale+this->_GraphTextScale-1, \
    5cca:	5a 9d       	mul	r21, r10
    5ccc:	90 01       	movw	r18, r0
    5cce:	5b 9d       	mul	r21, r11
    5cd0:	30 0d       	add	r19, r0
    5cd2:	11 24       	eor	r1, r1
    5cd4:	28 0d       	add	r18, r8
    5cd6:	39 1d       	adc	r19, r9
    5cd8:	24 0f       	add	r18, r20
    5cda:	31 1d       	adc	r19, r1
											 (pixel&1)?Pen::Black:Pen::White,false);
    5cdc:	21 50       	subi	r18, 0x01	; 1
    5cde:	31 09       	sbc	r19, r1
							if (i<5) SetPixel(x+i,y+j,pixel);
						}
						else
						{
							SetDrawMode(DrawMode::SOLID);
							if (i<5) DrawBox(x+i*this->_GraphTextScale,y+j*this->_GraphTextScale, \
    5ce0:	96 9d       	mul	r25, r6
    5ce2:	a0 01       	movw	r20, r0
    5ce4:	97 9d       	mul	r25, r7
    5ce6:	50 0d       	add	r21, r0
    5ce8:	11 24       	eor	r1, r1
											 x+i*this->_GraphTextScale+this->_GraphTextScale-1,y+j*this->_GraphTextScale+this->_GraphTextScale-1, \
											 (pixel&1)?Pen::Black:Pen::White,false);
    5cea:	44 0d       	add	r20, r4
    5cec:	55 1d       	adc	r21, r5
							if (i<5) SetPixel(x+i,y+j,pixel);
						}
						else
						{
							SetDrawMode(DrawMode::SOLID);
							if (i<5) DrawBox(x+i*this->_GraphTextScale,y+j*this->_GraphTextScale, \
    5cee:	8a 9d       	mul	r24, r10
    5cf0:	b0 01       	movw	r22, r0
    5cf2:	8b 9d       	mul	r24, r11
    5cf4:	70 0d       	add	r23, r0
    5cf6:	11 24       	eor	r1, r1
											 x+i*this->_GraphTextScale+this->_GraphTextScale-1,y+j*this->_GraphTextScale+this->_GraphTextScale-1, \
											 (pixel&1)?Pen::Black:Pen::White,false);
    5cf8:	68 0d       	add	r22, r8
    5cfa:	79 1d       	adc	r23, r9
    5cfc:	c1 2c       	mov	r12, r1
    5cfe:	cd 01       	movw	r24, r26
    5d00:	0e 94 54 1e 	call	0x3ca8	; 0x3ca8 <_ZN16class_GraphBasic7DrawBoxEiiii9_enum_Penb>
    5d04:	2d 81       	ldd	r18, Y+5	; 0x05
    5d06:	3e 81       	ldd	r19, Y+6	; 0x06
    5d08:	eb 85       	ldd	r30, Y+11	; 0x0b
    5d0a:	fc 85       	ldd	r31, Y+12	; 0x0c
    5d0c:	33 83       	std	Z+3, r19	; 0x03
    5d0e:	22 83       	std	Z+2, r18	; 0x02
    5d10:	53 c0       	rjmp	.+166    	; 0x5db8 <_ZN23class_T6963C_Drive_V1415GPutCEch+0x226>
							SetDrawMode(dm);
						}
					}
					else
					{
						switch (GetDrawMode())
    5d12:	12 96       	adiw	r26, 0x02	; 2
    5d14:	8d 91       	ld	r24, X+
    5d16:	9c 91       	ld	r25, X
    5d18:	13 97       	sbiw	r26, 0x03	; 3
    5d1a:	01 97       	sbiw	r24, 0x01	; 1
    5d1c:	02 97       	sbiw	r24, 0x02	; 2
    5d1e:	08 f0       	brcs	.+2      	; 0x5d22 <_ZN23class_T6963C_Drive_V1415GPutCEch+0x190>
    5d20:	4b c0       	rjmp	.+150    	; 0x5db8 <_ZN23class_T6963C_Drive_V1415GPutCEch+0x226>
						{
							case DrawMode::LINE:
							break;
							case DrawMode::SOLID:
							case DrawMode::PATTERN:
								if (this->_GraphTextScale==1)
    5d22:	5c 96       	adiw	r26, 0x1c	; 28
    5d24:	8c 91       	ld	r24, X
    5d26:	5c 97       	sbiw	r26, 0x1c	; 28
    5d28:	81 30       	cpi	r24, 0x01	; 1
    5d2a:	69 f4       	brne	.+26     	; 0x5d46 <_ZN23class_T6963C_Drive_V1415GPutCEch+0x1b4>
								{
									SetPixel(x+i,y+j,~pixel);
    5d2c:	ed 91       	ld	r30, X+
    5d2e:	fc 91       	ld	r31, X
    5d30:	11 97       	sbiw	r26, 0x01	; 1
    5d32:	02 80       	ldd	r0, Z+2	; 0x02
    5d34:	f3 81       	ldd	r31, Z+3	; 0x03
    5d36:	e0 2d       	mov	r30, r0
    5d38:	2a 85       	ldd	r18, Y+10	; 0x0a
    5d3a:	a1 01       	movw	r20, r2
    5d3c:	69 81       	ldd	r22, Y+1	; 0x01
    5d3e:	7a 81       	ldd	r23, Y+2	; 0x02
    5d40:	cd 01       	movw	r24, r26
    5d42:	09 95       	icall
    5d44:	39 c0       	rjmp	.+114    	; 0x5db8 <_ZN23class_T6963C_Drive_V1415GPutCEch+0x226>
								}
								else
								{
									DrawBox(x+i*this->_GraphTextScale,y+j*this->_GraphTextScale, \
											x+i*this->_GraphTextScale+this->_GraphTextScale-1,y+j*this->_GraphTextScale+this->_GraphTextScale-1, \
											(~pixel&1)?Pen::Black:Pen::White,false);
    5d46:	bc 81       	ldd	r27, Y+4	; 0x04
    5d48:	bb 23       	and	r27, r27
    5d4a:	19 f0       	breq	.+6      	; 0x5d52 <_ZN23class_T6963C_Drive_V1415GPutCEch+0x1c0>
    5d4c:	e1 2c       	mov	r14, r1
    5d4e:	f1 2c       	mov	r15, r1
    5d50:	03 c0       	rjmp	.+6      	; 0x5d58 <_ZN23class_T6963C_Drive_V1415GPutCEch+0x1c6>
    5d52:	ee 24       	eor	r14, r14
    5d54:	ea 94       	dec	r14
    5d56:	f1 2c       	mov	r15, r1
									SetPixel(x+i,y+j,~pixel);
								}
								else
								{
									DrawBox(x+i*this->_GraphTextScale,y+j*this->_GraphTextScale, \
											x+i*this->_GraphTextScale+this->_GraphTextScale-1,y+j*this->_GraphTextScale+this->_GraphTextScale-1, \
    5d58:	eb 85       	ldd	r30, Y+11	; 0x0b
    5d5a:	fc 85       	ldd	r31, Y+12	; 0x0c
    5d5c:	34 8d       	ldd	r19, Z+28	; 0x1c
    5d5e:	24 8d       	ldd	r18, Z+28	; 0x1c
    5d60:	54 8d       	ldd	r21, Z+28	; 0x1c
    5d62:	44 8d       	ldd	r20, Z+28	; 0x1c
								{
									SetPixel(x+i,y+j,~pixel);
								}
								else
								{
									DrawBox(x+i*this->_GraphTextScale,y+j*this->_GraphTextScale, \
    5d64:	94 8d       	ldd	r25, Z+28	; 0x1c
    5d66:	84 8d       	ldd	r24, Z+28	; 0x1c
											x+i*this->_GraphTextScale+this->_GraphTextScale-1,y+j*this->_GraphTextScale+this->_GraphTextScale-1, \
    5d68:	36 9d       	mul	r19, r6
    5d6a:	80 01       	movw	r16, r0
    5d6c:	37 9d       	mul	r19, r7
    5d6e:	10 0d       	add	r17, r0
    5d70:	11 24       	eor	r1, r1
    5d72:	04 0d       	add	r16, r4
    5d74:	15 1d       	adc	r17, r5
    5d76:	02 0f       	add	r16, r18
    5d78:	11 1d       	adc	r17, r1
											(~pixel&1)?Pen::Black:Pen::White,false);
    5d7a:	01 50       	subi	r16, 0x01	; 1
    5d7c:	11 09       	sbc	r17, r1
									SetPixel(x+i,y+j,~pixel);
								}
								else
								{
									DrawBox(x+i*this->_GraphTextScale,y+j*this->_GraphTextScale, \
											x+i*this->_GraphTextScale+this->_GraphTextScale-1,y+j*this->_GraphTextScale+this->_GraphTextScale-1, \
    5d7e:	5a 9d       	mul	r21, r10
    5d80:	90 01       	movw	r18, r0
    5d82:	5b 9d       	mul	r21, r11
    5d84:	30 0d       	add	r19, r0
    5d86:	11 24       	eor	r1, r1
    5d88:	28 0d       	add	r18, r8
    5d8a:	39 1d       	adc	r19, r9
    5d8c:	24 0f       	add	r18, r20
    5d8e:	31 1d       	adc	r19, r1
											(~pixel&1)?Pen::Black:Pen::White,false);
    5d90:	21 50       	subi	r18, 0x01	; 1
    5d92:	31 09       	sbc	r19, r1
								{
									SetPixel(x+i,y+j,~pixel);
								}
								else
								{
									DrawBox(x+i*this->_GraphTextScale,y+j*this->_GraphTextScale, \
    5d94:	96 9d       	mul	r25, r6
    5d96:	a0 01       	movw	r20, r0
    5d98:	97 9d       	mul	r25, r7
    5d9a:	50 0d       	add	r21, r0
    5d9c:	11 24       	eor	r1, r1
											x+i*this->_GraphTextScale+this->_GraphTextScale-1,y+j*this->_GraphTextScale+this->_GraphTextScale-1, \
											(~pixel&1)?Pen::Black:Pen::White,false);
    5d9e:	44 0d       	add	r20, r4
    5da0:	55 1d       	adc	r21, r5
								{
									SetPixel(x+i,y+j,~pixel);
								}
								else
								{
									DrawBox(x+i*this->_GraphTextScale,y+j*this->_GraphTextScale, \
    5da2:	8a 9d       	mul	r24, r10
    5da4:	b0 01       	movw	r22, r0
    5da6:	8b 9d       	mul	r24, r11
    5da8:	70 0d       	add	r23, r0
    5daa:	11 24       	eor	r1, r1
											x+i*this->_GraphTextScale+this->_GraphTextScale-1,y+j*this->_GraphTextScale+this->_GraphTextScale-1, \
											(~pixel&1)?Pen::Black:Pen::White,false);
    5dac:	68 0d       	add	r22, r8
    5dae:	79 1d       	adc	r23, r9
    5db0:	c1 2c       	mov	r12, r1
    5db2:	cf 01       	movw	r24, r30
    5db4:	0e 94 54 1e 	call	0x3ca8	; 0x3ca8 <_ZN16class_GraphBasic7DrawBoxEiiii9_enum_Penb>
								}
							break;
						}
						
					}
					mask>>=1;
    5db8:	fb 81       	ldd	r31, Y+3	; 0x03
    5dba:	f6 95       	lsr	r31
    5dbc:	fb 83       	std	Y+3, r31	; 0x03
    5dbe:	2f ef       	ldi	r18, 0xFF	; 255
    5dc0:	a2 1a       	sub	r10, r18
    5dc2:	b2 0a       	sbc	r11, r18
    5dc4:	89 81       	ldd	r24, Y+1	; 0x01
    5dc6:	9a 81       	ldd	r25, Y+2	; 0x02
    5dc8:	01 96       	adiw	r24, 0x01	; 1
    5dca:	9a 83       	std	Y+2, r25	; 0x02
    5dcc:	89 83       	std	Y+1, r24	; 0x01
			//draw chars
			for(uint8_t j=0;j<8;j++)
			{
				mask=0x80;
				b=pgm_read_byte(&_T6963C_ASCII_Table[index++]);
				for(uint8_t i=0;i<=5;i++)
    5dce:	96 e0       	ldi	r25, 0x06	; 6
    5dd0:	a9 16       	cp	r10, r25
    5dd2:	b1 04       	cpc	r11, r1
    5dd4:	09 f0       	breq	.+2      	; 0x5dd8 <_ZN23class_T6963C_Drive_V1415GPutCEch+0x246>
    5dd6:	2b cf       	rjmp	.-426    	; 0x5c2e <_ZN23class_T6963C_Drive_V1415GPutCEch+0x9c>
    5dd8:	af ef       	ldi	r26, 0xFF	; 255
    5dda:	6a 1a       	sub	r6, r26
    5ddc:	7a 0a       	sbc	r7, r26
    5dde:	bf ef       	ldi	r27, 0xFF	; 255
    5de0:	2b 1a       	sub	r2, r27
    5de2:	3b 0a       	sbc	r3, r27
		{
			//translate ascii to binary
			c-=' ';
			index=(c*8);
			//draw chars
			for(uint8_t j=0;j<8;j++)
    5de4:	e8 e0       	ldi	r30, 0x08	; 8
    5de6:	6e 16       	cp	r6, r30
    5de8:	71 04       	cpc	r7, r1
    5dea:	09 f0       	breq	.+2      	; 0x5dee <_ZN23class_T6963C_Drive_V1415GPutCEch+0x25c>
    5dec:	12 cf       	rjmp	.-476    	; 0x5c12 <_ZN23class_T6963C_Drive_V1415GPutCEch+0x80>
					}
					mask>>=1;
				}
			}
// 			//set new coords
			this->_X=x+_T6963C_Char_Width*this->_GraphTextScale;
    5dee:	ab 85       	ldd	r26, Y+11	; 0x0b
    5df0:	bc 85       	ldd	r27, Y+12	; 0x0c
    5df2:	5c 96       	adiw	r26, 0x1c	; 28
    5df4:	8c 91       	ld	r24, X
    5df6:	b6 e0       	ldi	r27, 0x06	; 6
    5df8:	8b 9f       	mul	r24, r27
    5dfa:	80 0c       	add	r8, r0
    5dfc:	91 1c       	adc	r9, r1
    5dfe:	11 24       	eor	r1, r1
    5e00:	eb 85       	ldd	r30, Y+11	; 0x0b
    5e02:	fc 85       	ldd	r31, Y+12	; 0x0c
    5e04:	90 aa       	std	Z+48, r9	; 0x30
    5e06:	87 a6       	std	Z+47, r8	; 0x2f
 			this->_Y=y;
    5e08:	52 aa       	std	Z+50, r5	; 0x32
    5e0a:	41 aa       	std	Z+49, r4	; 0x31
    5e0c:	19 c0       	rjmp	.+50     	; 0x5e40 <_ZN23class_T6963C_Drive_V1415GPutCEch+0x2ae>
		}
		else
		//check for lf(Line Feed) and cr(carriage return)
		{
			switch (c)
    5e0e:	6a 30       	cpi	r22, 0x0A	; 10
    5e10:	39 f0       	breq	.+14     	; 0x5e20 <_ZN23class_T6963C_Drive_V1415GPutCEch+0x28e>
    5e12:	6d 30       	cpi	r22, 0x0D	; 13
    5e14:	a9 f4       	brne	.+42     	; 0x5e40 <_ZN23class_T6963C_Drive_V1415GPutCEch+0x2ae>
			{
				case '\r':
					this->_X=0;
    5e16:	d0 96       	adiw	r26, 0x30	; 48
    5e18:	1c 92       	st	X, r1
    5e1a:	1e 92       	st	-X, r1
    5e1c:	9f 97       	sbiw	r26, 0x2f	; 47
				break;
    5e1e:	10 c0       	rjmp	.+32     	; 0x5e40 <_ZN23class_T6963C_Drive_V1415GPutCEch+0x2ae>
				case '\n':
					this->_Y+=_T6963C_Char_Height*this->_GraphTextScale;
    5e20:	5c 96       	adiw	r26, 0x1c	; 28
    5e22:	2c 91       	ld	r18, X
    5e24:	5c 97       	sbiw	r26, 0x1c	; 28
    5e26:	d1 96       	adiw	r26, 0x31	; 49
    5e28:	8d 91       	ld	r24, X+
    5e2a:	9c 91       	ld	r25, X
    5e2c:	d2 97       	sbiw	r26, 0x32	; 50
    5e2e:	f8 e0       	ldi	r31, 0x08	; 8
    5e30:	2f 9f       	mul	r18, r31
    5e32:	80 0d       	add	r24, r0
    5e34:	91 1d       	adc	r25, r1
    5e36:	11 24       	eor	r1, r1
    5e38:	d2 96       	adiw	r26, 0x32	; 50
    5e3a:	9c 93       	st	X, r25
    5e3c:	8e 93       	st	-X, r24
    5e3e:	d1 97       	sbiw	r26, 0x31	; 49
				break;
			}
		}
	}
    5e40:	2c 96       	adiw	r28, 0x0c	; 12
    5e42:	0f b6       	in	r0, 0x3f	; 63
    5e44:	f8 94       	cli
    5e46:	de bf       	out	0x3e, r29	; 62
    5e48:	0f be       	out	0x3f, r0	; 63
    5e4a:	cd bf       	out	0x3d, r28	; 61
    5e4c:	df 91       	pop	r29
    5e4e:	cf 91       	pop	r28
    5e50:	1f 91       	pop	r17
    5e52:	0f 91       	pop	r16
    5e54:	ff 90       	pop	r15
    5e56:	ef 90       	pop	r14
    5e58:	df 90       	pop	r13
    5e5a:	cf 90       	pop	r12
    5e5c:	bf 90       	pop	r11
    5e5e:	af 90       	pop	r10
    5e60:	9f 90       	pop	r9
    5e62:	8f 90       	pop	r8
    5e64:	7f 90       	pop	r7
    5e66:	6f 90       	pop	r6
    5e68:	5f 90       	pop	r5
    5e6a:	4f 90       	pop	r4
    5e6c:	3f 90       	pop	r3
    5e6e:	2f 90       	pop	r2
    5e70:	08 95       	ret

00005e72 <_ZN23class_T6963C_Drive_V1415GPutSEPKch>:
	//	|			 and more 32 more characters										|
	//	| OUTPUT  :  																	|
	//	| REMARKS :  check data sheet to seed more 32 characters						|
	//	+-------------------------------------------------------------------------------+
	void class_T6963C_Drive_V141::GPutS(const char *charString,Pixel pixel)
	{
    5e72:	ff 92       	push	r15
    5e74:	0f 93       	push	r16
    5e76:	1f 93       	push	r17
    5e78:	cf 93       	push	r28
    5e7a:	df 93       	push	r29
    5e7c:	8c 01       	movw	r16, r24
    5e7e:	f4 2e       	mov	r15, r20
    5e80:	eb 01       	movw	r28, r22
		while (*charString!='\0') GPutC(*charString++,pixel);
    5e82:	69 91       	ld	r22, Y+
    5e84:	66 23       	and	r22, r22
    5e86:	21 f0       	breq	.+8      	; 0x5e90 <_ZN23class_T6963C_Drive_V1415GPutSEPKch+0x1e>
    5e88:	4f 2d       	mov	r20, r15
    5e8a:	c8 01       	movw	r24, r16
    5e8c:	82 de       	rcall	.-764    	; 0x5b92 <_ZN23class_T6963C_Drive_V1415GPutCEch>
    5e8e:	f9 cf       	rjmp	.-14     	; 0x5e82 <_ZN23class_T6963C_Drive_V1415GPutSEPKch+0x10>
	}
    5e90:	df 91       	pop	r29
    5e92:	cf 91       	pop	r28
    5e94:	1f 91       	pop	r17
    5e96:	0f 91       	pop	r16
    5e98:	ff 90       	pop	r15
    5e9a:	08 95       	ret

00005e9c <_ZN23class_T6963C_Drive_V1416GPutSFEPKch>:
	//	|			 and more 32 more characters										|
	//	| OUTPUT  :  																	|
	//	| REMARKS :  check data sheet to seed more 32 characters						|
	//	+-------------------------------------------------------------------------------+
	void class_T6963C_Drive_V141::GPutSF(const char *charString,Pixel pixel)
	{
    5e9c:	ff 92       	push	r15
    5e9e:	0f 93       	push	r16
    5ea0:	1f 93       	push	r17
    5ea2:	cf 93       	push	r28
    5ea4:	df 93       	push	r29
    5ea6:	8c 01       	movw	r16, r24
    5ea8:	f4 2e       	mov	r15, r20
    5eaa:	fb 01       	movw	r30, r22
		for(;;)
		{
			//read char form FLASH
			uint8_t tmp=pgm_read_byte(charString++);
    5eac:	64 91       	lpm	r22, Z
    5eae:	ef 01       	movw	r28, r30
    5eb0:	21 96       	adiw	r28, 0x01	; 1
			//if zero end
			if (tmp=='\0') break;
    5eb2:	66 23       	and	r22, r22
    5eb4:	29 f0       	breq	.+10     	; 0x5ec0 <_ZN23class_T6963C_Drive_V1416GPutSFEPKch+0x24>
			//put char
			GPutC(tmp,pixel);
    5eb6:	4f 2d       	mov	r20, r15
    5eb8:	c8 01       	movw	r24, r16
    5eba:	6b de       	rcall	.-810    	; 0x5b92 <_ZN23class_T6963C_Drive_V1415GPutCEch>
    5ebc:	fe 01       	movw	r30, r28
		}
    5ebe:	f6 cf       	rjmp	.-20     	; 0x5eac <_ZN23class_T6963C_Drive_V1416GPutSFEPKch+0x10>
	}
    5ec0:	df 91       	pop	r29
    5ec2:	cf 91       	pop	r28
    5ec4:	1f 91       	pop	r17
    5ec6:	0f 91       	pop	r16
    5ec8:	ff 90       	pop	r15
    5eca:	08 95       	ret

00005ecc <_Z3rndii>:
}
/////////////////////////////////////////////////////
//  COMPUTE RANDON NUMBER FROM START TO END
/////////////////////////////////////////////////////
int rnd(int startValue,int endValue)
{
    5ecc:	0f 93       	push	r16
    5ece:	1f 93       	push	r17
    5ed0:	cf 93       	push	r28
    5ed2:	df 93       	push	r29
    5ed4:	8c 01       	movw	r16, r24
    5ed6:	eb 01       	movw	r28, r22
	return rand() % (endValue-startValue+1)+startValue;
    5ed8:	0e 94 54 42 	call	0x84a8	; 0x84a8 <rand>
    5edc:	be 01       	movw	r22, r28
    5ede:	60 1b       	sub	r22, r16
    5ee0:	71 0b       	sbc	r23, r17
    5ee2:	6f 5f       	subi	r22, 0xFF	; 255
    5ee4:	7f 4f       	sbci	r23, 0xFF	; 255
    5ee6:	0e 94 96 41 	call	0x832c	; 0x832c <__divmodhi4>
}
    5eea:	80 0f       	add	r24, r16
    5eec:	91 1f       	adc	r25, r17
    5eee:	df 91       	pop	r29
    5ef0:	cf 91       	pop	r28
    5ef2:	1f 91       	pop	r17
    5ef4:	0f 91       	pop	r16
    5ef6:	08 95       	ret

00005ef8 <_Z17RotatePatternLeftR15_T6963C_Pattern>:
*@brief Rotate Patterns Left
*@brief Rotate Patterns Left
*@brief Rotate Patterns Left
*/
void	RotatePatternLeft(_T6963C_Pattern &pattern)
{
    5ef8:	fc 01       	movw	r30, r24
    5efa:	08 96       	adiw	r24, 0x08	; 8
	uint16_t shift;
	
	for(uint8_t i=0;i<8;i++)
	{
		shift=pattern.row[i];
    5efc:	20 81       	ld	r18, Z
    5efe:	30 e0       	ldi	r19, 0x00	; 0
		shift<<=1;
    5f00:	22 0f       	add	r18, r18
    5f02:	33 1f       	adc	r19, r19
		shift|=(shift>>8)&1;
    5f04:	43 2f       	mov	r20, r19
    5f06:	55 27       	eor	r21, r21
    5f08:	24 2b       	or	r18, r20
    5f0a:	35 2b       	or	r19, r21
		pattern.row[i]=shift;
    5f0c:	21 93       	st	Z+, r18
*/
void	RotatePatternLeft(_T6963C_Pattern &pattern)
{
	uint16_t shift;
	
	for(uint8_t i=0;i<8;i++)
    5f0e:	e8 17       	cp	r30, r24
    5f10:	f9 07       	cpc	r31, r25
    5f12:	a1 f7       	brne	.-24     	; 0x5efc <_Z17RotatePatternLeftR15_T6963C_Pattern+0x4>
		shift=pattern.row[i];
		shift<<=1;
		shift|=(shift>>8)&1;
		pattern.row[i]=shift;
	}
}
    5f14:	08 95       	ret

00005f16 <_Z18RotatePatternRightR15_T6963C_Pattern>:
/////////////////////////////////////////////////////
//  ROTATE PATTERN RIGHT
/////////////////////////////////////////////////////
void	RotatePatternRight(_T6963C_Pattern &pattern)
{
    5f16:	fc 01       	movw	r30, r24
    5f18:	ac 01       	movw	r20, r24
    5f1a:	48 5f       	subi	r20, 0xF8	; 248
    5f1c:	5f 4f       	sbci	r21, 0xFF	; 255
	uint16_t shift;
	
	for(uint8_t i=0;i<8;i++)
	{
		shift=pattern.row[i];
    5f1e:	80 81       	ld	r24, Z
		shift|=((shift&1)<<8);
    5f20:	98 2f       	mov	r25, r24
    5f22:	91 70       	andi	r25, 0x01	; 1
    5f24:	39 2f       	mov	r19, r25
    5f26:	20 e0       	ldi	r18, 0x00	; 0
    5f28:	b9 01       	movw	r22, r18
    5f2a:	68 2b       	or	r22, r24
    5f2c:	cb 01       	movw	r24, r22
		shift>>=1;
    5f2e:	96 95       	lsr	r25
    5f30:	87 95       	ror	r24
		pattern.row[i]=shift;
    5f32:	81 93       	st	Z+, r24
/////////////////////////////////////////////////////
void	RotatePatternRight(_T6963C_Pattern &pattern)
{
	uint16_t shift;
	
	for(uint8_t i=0;i<8;i++)
    5f34:	e4 17       	cp	r30, r20
    5f36:	f5 07       	cpc	r31, r21
    5f38:	91 f7       	brne	.-28     	; 0x5f1e <_Z18RotatePatternRightR15_T6963C_Pattern+0x8>
		shift=pattern.row[i];
		shift|=((shift&1)<<8);
		shift>>=1;
		pattern.row[i]=shift;
	}
}
    5f3a:	08 95       	ret

00005f3c <_Z17DrawGTextCenteredPKcb>:
/////////////////////////////////////////////////////
//  DRAW GRAPH TEXT CENTERED
/////////////////////////////////////////////////////
void DrawGTextCentered(const char *textString,bool fromFlash=true)
{
    5f3c:	af 92       	push	r10
    5f3e:	bf 92       	push	r11
    5f40:	cf 92       	push	r12
    5f42:	df 92       	push	r13
    5f44:	ef 92       	push	r14
    5f46:	ff 92       	push	r15
    5f48:	0f 93       	push	r16
    5f4a:	1f 93       	push	r17
    5f4c:	cf 93       	push	r28
    5f4e:	df 93       	push	r29
    5f50:	cd b7       	in	r28, 0x3d	; 61
    5f52:	de b7       	in	r29, 0x3e	; 62
    5f54:	28 97       	sbiw	r28, 0x08	; 8
    5f56:	0f b6       	in	r0, 0x3f	; 63
    5f58:	f8 94       	cli
    5f5a:	de bf       	out	0x3e, r29	; 62
    5f5c:	0f be       	out	0x3f, r0	; 63
    5f5e:	cd bf       	out	0x3d, r28	; 61
    5f60:	7c 01       	movw	r14, r24
    5f62:	d6 2e       	mov	r13, r22
	int xi,yi,xf,yf;

	dp.GetWindow(xi,yi,xf,yf);
    5f64:	8e 01       	movw	r16, r28
    5f66:	0f 5f       	subi	r16, 0xFF	; 255
    5f68:	1f 4f       	sbci	r17, 0xFF	; 255
    5f6a:	9e 01       	movw	r18, r28
    5f6c:	2d 5f       	subi	r18, 0xFD	; 253
    5f6e:	3f 4f       	sbci	r19, 0xFF	; 255
    5f70:	ae 01       	movw	r20, r28
    5f72:	4b 5f       	subi	r20, 0xFB	; 251
    5f74:	5f 4f       	sbci	r21, 0xFF	; 255
    5f76:	be 01       	movw	r22, r28
    5f78:	69 5f       	subi	r22, 0xF9	; 249
    5f7a:	7f 4f       	sbci	r23, 0xFF	; 255
    5f7c:	8c e3       	ldi	r24, 0x3C	; 60
    5f7e:	94 e0       	ldi	r25, 0x04	; 4
    5f80:	71 db       	rcall	.-2334   	; 0x5664 <_ZN23class_T6963C_Drive_V1419GetWindowERiS0_S0_S0_>
    5f82:	ed 81       	ldd	r30, Y+5	; 0x05
    5f84:	fe 81       	ldd	r31, Y+6	; 0x06
    5f86:	89 81       	ldd	r24, Y+1	; 0x01
    5f88:	9a 81       	ldd	r25, Y+2	; 0x02
    5f8a:	0b 81       	ldd	r16, Y+3	; 0x03
    5f8c:	1c 81       	ldd	r17, Y+4	; 0x04
    5f8e:	af 80       	ldd	r10, Y+7	; 0x07
    5f90:	b8 84       	ldd	r11, Y+8	; 0x08
	if (fromFlash)
    5f92:	dd 20       	and	r13, r13
    5f94:	71 f1       	breq	.+92     	; 0x5ff2 <_Z17DrawGTextCenteredPKcb+0xb6>
	{
		dp.LocateXY(((xf-xi+1)-strlen_P(textString)*dp.GetGraphCharWidth())/2,((yf-yi+1)-dp.GetGraphCharHeight())/2+yi);
    5f96:	8e 1b       	sub	r24, r30
    5f98:	9f 0b       	sbc	r25, r31
    5f9a:	6c 01       	movw	r12, r24
    5f9c:	27 e0       	ldi	r18, 0x07	; 7
    5f9e:	c2 1a       	sub	r12, r18
    5fa0:	d1 08       	sbc	r13, r1
    5fa2:	d7 fe       	sbrs	r13, 7
    5fa4:	04 c0       	rjmp	.+8      	; 0x5fae <_Z17DrawGTextCenteredPKcb+0x72>
    5fa6:	6c 01       	movw	r12, r24
    5fa8:	46 e0       	ldi	r20, 0x06	; 6
    5faa:	c4 1a       	sub	r12, r20
    5fac:	d1 08       	sbc	r13, r1
    5fae:	d5 94       	asr	r13
    5fb0:	c7 94       	ror	r12
    5fb2:	ce 0e       	add	r12, r30
    5fb4:	df 1e       	adc	r13, r31


__attribute__((__always_inline__)) static inline size_t strlen_P(const char * s);
static inline size_t strlen_P(const char *s) {
  return __builtin_constant_p(__builtin_strlen(s))
     ? __builtin_strlen(s) : __strlen_P(s);
    5fb6:	c7 01       	movw	r24, r14
    5fb8:	0e 94 62 42 	call	0x84c4	; 0x84c4 <__strlen_P>
    5fbc:	b8 01       	movw	r22, r16
    5fbe:	6a 19       	sub	r22, r10
    5fc0:	7b 09       	sbc	r23, r11
    5fc2:	6f 5f       	subi	r22, 0xFF	; 255
    5fc4:	7f 4f       	sbci	r23, 0xFF	; 255
    5fc6:	26 e0       	ldi	r18, 0x06	; 6
    5fc8:	ac 01       	movw	r20, r24
    5fca:	24 9f       	mul	r18, r20
    5fcc:	c0 01       	movw	r24, r0
    5fce:	25 9f       	mul	r18, r21
    5fd0:	90 0d       	add	r25, r0
    5fd2:	11 24       	eor	r1, r1
    5fd4:	68 1b       	sub	r22, r24
    5fd6:	79 0b       	sbc	r23, r25
    5fd8:	76 95       	lsr	r23
    5fda:	67 95       	ror	r22
    5fdc:	a6 01       	movw	r20, r12
    5fde:	8c e3       	ldi	r24, 0x3C	; 60
    5fe0:	94 e0       	ldi	r25, 0x04	; 4
    5fe2:	0e 94 e5 25 	call	0x4bca	; 0x4bca <_ZN23class_T6963C_Drive_V1418LocateXYEii>
		dp.GPutSF(textString);
    5fe6:	41 e0       	ldi	r20, 0x01	; 1
    5fe8:	b7 01       	movw	r22, r14
    5fea:	8c e3       	ldi	r24, 0x3C	; 60
    5fec:	94 e0       	ldi	r25, 0x04	; 4
    5fee:	56 df       	rcall	.-340    	; 0x5e9c <_ZN23class_T6963C_Drive_V1416GPutSFEPKch>
    5ff0:	2e c0       	rjmp	.+92     	; 0x604e <_Z17DrawGTextCenteredPKcb+0x112>
	}
	else
	{
		dp.LocateXY(((xf-xi+1)-strlen(textString)*dp.GetGraphCharWidth())/2,((yf-yi+1)-dp.GetGraphCharHeight())/2+yi);
    5ff2:	d7 01       	movw	r26, r14
    5ff4:	0d 90       	ld	r0, X+
    5ff6:	00 20       	and	r0, r0
    5ff8:	e9 f7       	brne	.-6      	; 0x5ff4 <_Z17DrawGTextCenteredPKcb+0xb8>
    5ffa:	11 97       	sbiw	r26, 0x01	; 1
    5ffc:	bd 01       	movw	r22, r26
    5ffe:	6e 19       	sub	r22, r14
    6000:	7f 09       	sbc	r23, r15
    6002:	8e 1b       	sub	r24, r30
    6004:	9f 0b       	sbc	r25, r31
    6006:	9c 01       	movw	r18, r24
    6008:	27 50       	subi	r18, 0x07	; 7
    600a:	31 09       	sbc	r19, r1
    600c:	37 ff       	sbrs	r19, 7
    600e:	02 c0       	rjmp	.+4      	; 0x6014 <_Z17DrawGTextCenteredPKcb+0xd8>
    6010:	2f 5f       	subi	r18, 0xFF	; 255
    6012:	3f 4f       	sbci	r19, 0xFF	; 255
    6014:	a9 01       	movw	r20, r18
    6016:	55 95       	asr	r21
    6018:	47 95       	ror	r20
    601a:	4e 0f       	add	r20, r30
    601c:	5f 1f       	adc	r21, r31
    601e:	0a 19       	sub	r16, r10
    6020:	1b 09       	sbc	r17, r11
    6022:	0f 5f       	subi	r16, 0xFF	; 255
    6024:	1f 4f       	sbci	r17, 0xFF	; 255
    6026:	26 e0       	ldi	r18, 0x06	; 6
    6028:	26 9f       	mul	r18, r22
    602a:	c0 01       	movw	r24, r0
    602c:	27 9f       	mul	r18, r23
    602e:	90 0d       	add	r25, r0
    6030:	11 24       	eor	r1, r1
    6032:	08 1b       	sub	r16, r24
    6034:	19 0b       	sbc	r17, r25
    6036:	b8 01       	movw	r22, r16
    6038:	76 95       	lsr	r23
    603a:	67 95       	ror	r22
    603c:	8c e3       	ldi	r24, 0x3C	; 60
    603e:	94 e0       	ldi	r25, 0x04	; 4
    6040:	0e 94 e5 25 	call	0x4bca	; 0x4bca <_ZN23class_T6963C_Drive_V1418LocateXYEii>
		dp.GPutS(textString);
    6044:	41 e0       	ldi	r20, 0x01	; 1
    6046:	b7 01       	movw	r22, r14
    6048:	8c e3       	ldi	r24, 0x3C	; 60
    604a:	94 e0       	ldi	r25, 0x04	; 4
    604c:	12 df       	rcall	.-476    	; 0x5e72 <_ZN23class_T6963C_Drive_V1415GPutSEPKch>
	}
	
	
}
    604e:	28 96       	adiw	r28, 0x08	; 8
    6050:	0f b6       	in	r0, 0x3f	; 63
    6052:	f8 94       	cli
    6054:	de bf       	out	0x3e, r29	; 62
    6056:	0f be       	out	0x3f, r0	; 63
    6058:	cd bf       	out	0x3d, r28	; 61
    605a:	df 91       	pop	r29
    605c:	cf 91       	pop	r28
    605e:	1f 91       	pop	r17
    6060:	0f 91       	pop	r16
    6062:	ff 90       	pop	r15
    6064:	ef 90       	pop	r14
    6066:	df 90       	pop	r13
    6068:	cf 90       	pop	r12
    606a:	bf 90       	pop	r11
    606c:	af 90       	pop	r10
    606e:	08 95       	ret

00006070 <_Z17Demo_Clear_Screenv>:
/////////////////////////////////////////////////////
//  DEMO CLEAR SCREEN
/////////////////////////////////////////////////////
void Demo_Clear_Screen()
{
    6070:	cf 92       	push	r12
    6072:	df 92       	push	r13
    6074:	ef 92       	push	r14
    6076:	ff 92       	push	r15
    6078:	0f 93       	push	r16
    607a:	1f 93       	push	r17
    607c:	cf 93       	push	r28
    607e:	df 93       	push	r29
		///@brief 		<td><img src="_Photos\Graph_Width_Height.jpg" style="width:300px;height:200px;"></td>
		///@brief 	</tr>
		///@brief </table>
		///@brief _______________________________________________________________________________			
		//	+-------------------------------------------------------------------------------+
		int	inline GraphHeight() { return _GraphHeight; }
    6080:	00 91 71 04 	lds	r16, 0x0471
    6084:	10 91 72 04 	lds	r17, 0x0472
		///@brief 		<td><img src="_Photos\Graph_Width_Height.jpg" style="width:300px;height:200px;"></td>
		///@brief 	</tr>
		///@brief </table>
		///@brief _______________________________________________________________________________			
		//	+-------------------------------------------------------------------------------+
		int	inline GraphWidth() { return _GraphWidth; }
    6088:	20 91 6f 04 	lds	r18, 0x046F
    608c:	30 91 70 04 	lds	r19, 0x0470
	dp.SetWindow(0,0,dp.GraphWidth()-1,dp.GraphHeight()-1);
    6090:	01 50       	subi	r16, 0x01	; 1
    6092:	11 09       	sbc	r17, r1
    6094:	21 50       	subi	r18, 0x01	; 1
    6096:	31 09       	sbc	r19, r1
    6098:	40 e0       	ldi	r20, 0x00	; 0
    609a:	50 e0       	ldi	r21, 0x00	; 0
    609c:	60 e0       	ldi	r22, 0x00	; 0
    609e:	70 e0       	ldi	r23, 0x00	; 0
    60a0:	8c e3       	ldi	r24, 0x3C	; 60
    60a2:	94 e0       	ldi	r25, 0x04	; 4
    60a4:	a5 da       	rcall	.-2742   	; 0x55f0 <_ZN23class_T6963C_Drive_V1419SetWindowEiiii>
	for(uint8_t c=1;c<=dp.TextWidth();c++)
    60a6:	c1 e0       	ldi	r28, 0x01	; 1
		///@brief Get Text Width in characters
		///@fn    TextWidth
		///@return return Text width in characters
		///@brief 
		//	+-------------------------------------------------------------------------------+
		uint8_t	inline TextWidth() { return _DisplayCols; }
    60a8:	80 91 4e 04 	lds	r24, 0x044E
    60ac:	8c 17       	cp	r24, r28
    60ae:	08 f4       	brcc	.+2      	; 0x60b2 <_Z17Demo_Clear_Screenv+0x42>
    60b0:	46 c0       	rjmp	.+140    	; 0x613e <_Z17Demo_Clear_Screenv+0xce>
    60b2:	d1 e0       	ldi	r29, 0x01	; 1
		///@brief Get Text Height in characters
		///@fn    TextHeight
		///@return return graph height in characters
		///@brief
		//	+-------------------------------------------------------------------------------+
		uint8_t	inline TextHeight() { return _DisplayRows; }
    60b4:	80 91 4f 04 	lds	r24, 0x044F
	{
		for(uint8_t l=1;l<dp.TextHeight();l++)
    60b8:	d8 17       	cp	r29, r24
    60ba:	70 f4       	brcc	.+28     	; 0x60d8 <_Z17Demo_Clear_Screenv+0x68>
		{
			dp.LocateRC(l,c);dp.PutSF(PSTR(" "));
    60bc:	4c 2f       	mov	r20, r28
    60be:	6d 2f       	mov	r22, r29
    60c0:	8c e3       	ldi	r24, 0x3C	; 60
    60c2:	94 e0       	ldi	r25, 0x04	; 4
    60c4:	0e 94 a5 26 	call	0x4d4a	; 0x4d4a <_ZN23class_T6963C_Drive_V1418LocateRCEaa>
    60c8:	69 e7       	ldi	r22, 0x79	; 121
    60ca:	78 e0       	ldi	r23, 0x08	; 8
    60cc:	8c e3       	ldi	r24, 0x3C	; 60
    60ce:	94 e0       	ldi	r25, 0x04	; 4
    60d0:	0e 94 68 27 	call	0x4ed0	; 0x4ed0 <_ZN23class_T6963C_Drive_V1415PutSFEPKc>
void Demo_Clear_Screen()
{
	dp.SetWindow(0,0,dp.GraphWidth()-1,dp.GraphHeight()-1);
	for(uint8_t c=1;c<=dp.TextWidth();c++)
	{
		for(uint8_t l=1;l<dp.TextHeight();l++)
    60d4:	df 5f       	subi	r29, 0xFF	; 255
    60d6:	ee cf       	rjmp	.-36     	; 0x60b4 <_Z17Demo_Clear_Screenv+0x44>
		{
			dp.LocateRC(l,c);dp.PutSF(PSTR(" "));
		}
		for(uint8_t x=(c-1)*8;x<(c-1)*8+8;x++)
    60d8:	2c 2f       	mov	r18, r28
    60da:	30 e0       	ldi	r19, 0x00	; 0
    60dc:	c9 01       	movw	r24, r18
    60de:	01 97       	sbiw	r24, 0x01	; 1
    60e0:	d8 2f       	mov	r29, r24
    60e2:	dd 0f       	add	r29, r29
    60e4:	dd 0f       	add	r29, r29
    60e6:	dd 0f       	add	r29, r29
    60e8:	69 01       	movw	r12, r18
    60ea:	83 e0       	ldi	r24, 0x03	; 3
    60ec:	cc 0c       	add	r12, r12
    60ee:	dd 1c       	adc	r13, r13
    60f0:	8a 95       	dec	r24
    60f2:	e1 f7       	brne	.-8      	; 0x60ec <_Z17Demo_Clear_Screenv+0x7c>
    60f4:	ed 2e       	mov	r14, r29
    60f6:	f1 2c       	mov	r15, r1
    60f8:	ec 14       	cp	r14, r12
    60fa:	fd 04       	cpc	r15, r13
    60fc:	f4 f4       	brge	.+60     	; 0x613a <_Z17Demo_Clear_Screenv+0xca>
		///@brief 		<td><img src="_Photos\Graph_Width_Height.jpg" style="width:300px;height:200px;"></td>
		///@brief 	</tr>
		///@brief </table>
		///@brief _______________________________________________________________________________			
		//	+-------------------------------------------------------------------------------+
		int	inline GraphHeight() { return _GraphHeight; }
    60fe:	20 91 71 04 	lds	r18, 0x0471
    6102:	30 91 72 04 	lds	r19, 0x0472
		{
			dp.DrawVertLine(x,0,dp.GraphHeight(),Pen::Black);
    6106:	0f ef       	ldi	r16, 0xFF	; 255
    6108:	10 e0       	ldi	r17, 0x00	; 0
    610a:	40 e0       	ldi	r20, 0x00	; 0
    610c:	50 e0       	ldi	r21, 0x00	; 0
    610e:	b7 01       	movw	r22, r14
    6110:	8c e3       	ldi	r24, 0x3C	; 60
    6112:	94 e0       	ldi	r25, 0x04	; 4
    6114:	0e 94 47 1e 	call	0x3c8e	; 0x3c8e <_ZN16class_GraphBasic12DrawVertLineEiii9_enum_Pen>
    6118:	20 91 71 04 	lds	r18, 0x0471
    611c:	30 91 72 04 	lds	r19, 0x0472
			dp.DrawVertLine(x-1,0,dp.GraphHeight(),Pen::White);
    6120:	b7 01       	movw	r22, r14
    6122:	61 50       	subi	r22, 0x01	; 1
    6124:	71 09       	sbc	r23, r1
    6126:	00 e0       	ldi	r16, 0x00	; 0
    6128:	10 e0       	ldi	r17, 0x00	; 0
    612a:	40 e0       	ldi	r20, 0x00	; 0
    612c:	50 e0       	ldi	r21, 0x00	; 0
    612e:	8c e3       	ldi	r24, 0x3C	; 60
    6130:	94 e0       	ldi	r25, 0x04	; 4
    6132:	0e 94 47 1e 	call	0x3c8e	; 0x3c8e <_ZN16class_GraphBasic12DrawVertLineEiii9_enum_Pen>
	{
		for(uint8_t l=1;l<dp.TextHeight();l++)
		{
			dp.LocateRC(l,c);dp.PutSF(PSTR(" "));
		}
		for(uint8_t x=(c-1)*8;x<(c-1)*8+8;x++)
    6136:	df 5f       	subi	r29, 0xFF	; 255
    6138:	dd cf       	rjmp	.-70     	; 0x60f4 <_Z17Demo_Clear_Screenv+0x84>
//  DEMO CLEAR SCREEN
/////////////////////////////////////////////////////
void Demo_Clear_Screen()
{
	dp.SetWindow(0,0,dp.GraphWidth()-1,dp.GraphHeight()-1);
	for(uint8_t c=1;c<=dp.TextWidth();c++)
    613a:	cf 5f       	subi	r28, 0xFF	; 255
    613c:	b5 cf       	rjmp	.-150    	; 0x60a8 <_Z17Demo_Clear_Screenv+0x38>
			dp.DrawVertLine(x,0,dp.GraphHeight(),Pen::Black);
			dp.DrawVertLine(x-1,0,dp.GraphHeight(),Pen::White);
		}
		//time.DelayMillisByInterrupt(5);
	}
}
    613e:	df 91       	pop	r29
    6140:	cf 91       	pop	r28
    6142:	1f 91       	pop	r17
    6144:	0f 91       	pop	r16
    6146:	ff 90       	pop	r15
    6148:	ef 90       	pop	r14
    614a:	df 90       	pop	r13
    614c:	cf 90       	pop	r12
    614e:	08 95       	ret

00006150 <_Z9DrawTitlePKc>:
/////////////////////////////////////////////////////
//  DRAW TITLE
/////////////////////////////////////////////////////
void DrawTitle(const char *titleString)
{
    6150:	af 92       	push	r10
    6152:	bf 92       	push	r11
    6154:	cf 92       	push	r12
    6156:	ef 92       	push	r14
    6158:	ff 92       	push	r15
    615a:	0f 93       	push	r16
    615c:	1f 93       	push	r17
    615e:	cf 93       	push	r28
    6160:	df 93       	push	r29
    6162:	7c 01       	movw	r14, r24
		///@brief 		<td><img src="_Photos\Graph_Width_Height.jpg" style="width:300px;height:200px;"></td>
		///@brief 	</tr>
		///@brief </table>
		///@brief _______________________________________________________________________________			
		//	+-------------------------------------------------------------------------------+
		int	inline GraphWidth() { return _GraphWidth; }
    6164:	cc e3       	ldi	r28, 0x3C	; 60
    6166:	d4 e0       	ldi	r29, 0x04	; 4
    6168:	2b a9       	ldd	r18, Y+51	; 0x33
    616a:	3c a9       	ldd	r19, Y+52	; 0x34
	DrawMode dm;

	//set window for writing
	dp.SetWindow(0,0,dp.GraphWidth()-1,32);
    616c:	21 50       	subi	r18, 0x01	; 1
    616e:	31 09       	sbc	r19, r1
    6170:	00 e2       	ldi	r16, 0x20	; 32
    6172:	10 e0       	ldi	r17, 0x00	; 0
    6174:	40 e0       	ldi	r20, 0x00	; 0
    6176:	50 e0       	ldi	r21, 0x00	; 0
    6178:	60 e0       	ldi	r22, 0x00	; 0
    617a:	70 e0       	ldi	r23, 0x00	; 0
    617c:	ce 01       	movw	r24, r28
    617e:	38 da       	rcall	.-2960   	; 0x55f0 <_ZN23class_T6963C_Drive_V1419SetWindowEiiii>
    6180:	aa 80       	ldd	r10, Y+2	; 0x02
    6182:	bb 80       	ldd	r11, Y+3	; 0x03
    6184:	1b 82       	std	Y+3, r1	; 0x03
    6186:	1a 82       	std	Y+2, r1	; 0x02
	//save DrawMode
	dm=dp.GetDrawMode();
	//Set new Draw Mode
	dp.SetDrawMode(DrawMode::LINE);
	//Clear Graph Screen and Text too
	dp.ClsGraph();
    6188:	ce 01       	movw	r24, r28
    618a:	0e 94 21 28 	call	0x5042	; 0x5042 <_ZN23class_T6963C_Drive_V1418ClsGraphEv>
//	dp.ClsText();
	//Draw title Text
//	dp.LocateRC(1,1);
	dp.LocateXY(0,0);
    618e:	40 e0       	ldi	r20, 0x00	; 0
    6190:	50 e0       	ldi	r21, 0x00	; 0
    6192:	60 e0       	ldi	r22, 0x00	; 0
    6194:	70 e0       	ldi	r23, 0x00	; 0
    6196:	ce 01       	movw	r24, r28
    6198:	0e 94 e5 25 	call	0x4bca	; 0x4bca <_ZN23class_T6963C_Drive_V1418LocateXYEii>
	sprintf(bf,"#%02d-",Demo_Count++);
    619c:	80 91 34 04 	lds	r24, 0x0434
    61a0:	91 e0       	ldi	r25, 0x01	; 1
    61a2:	98 0f       	add	r25, r24
    61a4:	90 93 34 04 	sts	0x0434, r25
    61a8:	1f 92       	push	r1
    61aa:	8f 93       	push	r24
    61ac:	80 e2       	ldi	r24, 0x20	; 32
    61ae:	91 e0       	ldi	r25, 0x01	; 1
    61b0:	9f 93       	push	r25
    61b2:	8f 93       	push	r24
    61b4:	88 e0       	ldi	r24, 0x08	; 8
    61b6:	93 e0       	ldi	r25, 0x03	; 3
    61b8:	9f 93       	push	r25
    61ba:	8f 93       	push	r24
    61bc:	0e 94 6b 42 	call	0x84d6	; 0x84d6 <sprintf>
	dp.GPutS(bf);
    61c0:	41 e0       	ldi	r20, 0x01	; 1
    61c2:	68 e0       	ldi	r22, 0x08	; 8
    61c4:	73 e0       	ldi	r23, 0x03	; 3
    61c6:	ce 01       	movw	r24, r28
    61c8:	54 de       	rcall	.-856    	; 0x5e72 <_ZN23class_T6963C_Drive_V1415GPutSEPKch>
	dp.GPutSF(titleString);
    61ca:	41 e0       	ldi	r20, 0x01	; 1
    61cc:	b7 01       	movw	r22, r14
    61ce:	ce 01       	movw	r24, r28
    61d0:	65 de       	rcall	.-822    	; 0x5e9c <_ZN23class_T6963C_Drive_V1416GPutSFEPKch>
		///@brief 		<td><img src="_Photos\Graph_Width_Height.jpg" style="width:300px;height:200px;"></td>
		///@brief 	</tr>
		///@brief </table>
		///@brief _______________________________________________________________________________			
		//	+-------------------------------------------------------------------------------+
		int	inline GraphHeight() { return _GraphHeight; }
    61d2:	0d a9       	ldd	r16, Y+53	; 0x35
    61d4:	1e a9       	ldd	r17, Y+54	; 0x36
		///@brief 		<td><img src="_Photos\Graph_Width_Height.jpg" style="width:300px;height:200px;"></td>
		///@brief 	</tr>
		///@brief </table>
		///@brief _______________________________________________________________________________			
		//	+-------------------------------------------------------------------------------+
		int	inline GraphWidth() { return _GraphWidth; }
    61d6:	2b a9       	ldd	r18, Y+51	; 0x33
    61d8:	3c a9       	ldd	r19, Y+52	; 0x34
	//Draw Graph Area border
	dp.SetWindow(0,33,dp.GraphWidth()-1,dp.GraphHeight()-1);
    61da:	01 50       	subi	r16, 0x01	; 1
    61dc:	11 09       	sbc	r17, r1
    61de:	21 50       	subi	r18, 0x01	; 1
    61e0:	31 09       	sbc	r19, r1
    61e2:	41 e2       	ldi	r20, 0x21	; 33
    61e4:	50 e0       	ldi	r21, 0x00	; 0
    61e6:	60 e0       	ldi	r22, 0x00	; 0
    61e8:	70 e0       	ldi	r23, 0x00	; 0
    61ea:	ce 01       	movw	r24, r28
    61ec:	01 da       	rcall	.-3070   	; 0x55f0 <_ZN23class_T6963C_Drive_V1419SetWindowEiiii>
		///@brief 		<td><img src="_Photos\Graph_Width_Height.jpg" style="width:300px;height:200px;"></td>
		///@brief 	</tr>
		///@brief </table>
		///@brief _______________________________________________________________________________			
		//	+-------------------------------------------------------------------------------+
		int	inline GraphHeight() { return _GraphHeight; }
    61ee:	0d a9       	ldd	r16, Y+53	; 0x35
    61f0:	1e a9       	ldd	r17, Y+54	; 0x36
		///@brief 		<td><img src="_Photos\Graph_Width_Height.jpg" style="width:300px;height:200px;"></td>
		///@brief 	</tr>
		///@brief </table>
		///@brief _______________________________________________________________________________			
		//	+-------------------------------------------------------------------------------+
		int	inline GraphWidth() { return _GraphWidth; }
    61f2:	2b a9       	ldd	r18, Y+51	; 0x33
    61f4:	3c a9       	ldd	r19, Y+52	; 0x34
	//Draw Box
	dp.DrawBox(0,33,dp.GraphWidth()-1,dp.GraphHeight()-1,Pen::Black);
    61f6:	01 50       	subi	r16, 0x01	; 1
    61f8:	11 09       	sbc	r17, r1
    61fa:	21 50       	subi	r18, 0x01	; 1
    61fc:	31 09       	sbc	r19, r1
    61fe:	cc 24       	eor	r12, r12
    6200:	c3 94       	inc	r12
    6202:	ee 24       	eor	r14, r14
    6204:	ea 94       	dec	r14
    6206:	f1 2c       	mov	r15, r1
    6208:	41 e2       	ldi	r20, 0x21	; 33
    620a:	50 e0       	ldi	r21, 0x00	; 0
    620c:	60 e0       	ldi	r22, 0x00	; 0
    620e:	70 e0       	ldi	r23, 0x00	; 0
    6210:	ce 01       	movw	r24, r28
    6212:	0e 94 54 1e 	call	0x3ca8	; 0x3ca8 <_ZN16class_GraphBasic7DrawBoxEiiii9_enum_Penb>
    6216:	bb 82       	std	Y+3, r11	; 0x03
    6218:	aa 82       	std	Y+2, r10	; 0x02
	//Restore Draw Mode
	dp.SetDrawMode(dm);
	//Set Graph Window
	dp.SetWindow(1,34,158,126);
    621a:	0e e7       	ldi	r16, 0x7E	; 126
    621c:	10 e0       	ldi	r17, 0x00	; 0
    621e:	2e e9       	ldi	r18, 0x9E	; 158
    6220:	30 e0       	ldi	r19, 0x00	; 0
    6222:	42 e2       	ldi	r20, 0x22	; 34
    6224:	50 e0       	ldi	r21, 0x00	; 0
    6226:	61 e0       	ldi	r22, 0x01	; 1
    6228:	70 e0       	ldi	r23, 0x00	; 0
    622a:	ce 01       	movw	r24, r28
    622c:	e1 d9       	rcall	.-3134   	; 0x55f0 <_ZN23class_T6963C_Drive_V1419SetWindowEiiii>
    622e:	0f 90       	pop	r0
    6230:	0f 90       	pop	r0
    6232:	0f 90       	pop	r0
    6234:	0f 90       	pop	r0
    6236:	0f 90       	pop	r0
    6238:	0f 90       	pop	r0
}
    623a:	df 91       	pop	r29
    623c:	cf 91       	pop	r28
    623e:	1f 91       	pop	r17
    6240:	0f 91       	pop	r16
    6242:	ff 90       	pop	r15
    6244:	ef 90       	pop	r14
    6246:	cf 90       	pop	r12
    6248:	bf 90       	pop	r11
    624a:	af 90       	pop	r10
    624c:	08 95       	ret

0000624e <_Z19Demo_InitializationPKcm>:
/////////////////////////////////////////////////////
//  INITIALIZATION SCREEN
/////////////////////////////////////////////////////
void Demo_Initialization(const char *titleString,uint32_t timeToExit)
{
    624e:	cf 92       	push	r12
    6250:	df 92       	push	r13
    6252:	ef 92       	push	r14
    6254:	ff 92       	push	r15
    6256:	0f 93       	push	r16
    6258:	1f 93       	push	r17
    625a:	cf 93       	push	r28
    625c:	df 93       	push	r29
    625e:	cd b7       	in	r28, 0x3d	; 61
    6260:	de b7       	in	r29, 0x3e	; 62
    6262:	28 97       	sbiw	r28, 0x08	; 8
    6264:	0f b6       	in	r0, 0x3f	; 63
    6266:	f8 94       	cli
    6268:	de bf       	out	0x3e, r29	; 62
    626a:	0f be       	out	0x3f, r0	; 63
    626c:	cd bf       	out	0x3d, r28	; 61
    626e:	6a 01       	movw	r12, r20
    6270:	7b 01       	movw	r14, r22
	int xi,yi,xf,yf;

	DrawTitle(titleString);
    6272:	6e df       	rcall	.-292    	; 0x6150 <_Z9DrawTitlePKc>
	dp.GetWindow(xi,yi,xf,yf);
    6274:	8e 01       	movw	r16, r28
    6276:	0f 5f       	subi	r16, 0xFF	; 255
    6278:	1f 4f       	sbci	r17, 0xFF	; 255
    627a:	9e 01       	movw	r18, r28
    627c:	2d 5f       	subi	r18, 0xFD	; 253
    627e:	3f 4f       	sbci	r19, 0xFF	; 255
    6280:	ae 01       	movw	r20, r28
    6282:	4b 5f       	subi	r20, 0xFB	; 251
    6284:	5f 4f       	sbci	r21, 0xFF	; 255
    6286:	be 01       	movw	r22, r28
    6288:	69 5f       	subi	r22, 0xF9	; 249
    628a:	7f 4f       	sbci	r23, 0xFF	; 255
    628c:	8c e3       	ldi	r24, 0x3C	; 60
    628e:	94 e0       	ldi	r25, 0x04	; 4
    6290:	e9 d9       	rcall	.-3118   	; 0x5664 <_ZN23class_T6963C_Drive_V1419GetWindowERiS0_S0_S0_>

	dp.LocateXY(6,yi+8);
    6292:	8d 81       	ldd	r24, Y+5	; 0x05
    6294:	9e 81       	ldd	r25, Y+6	; 0x06
    6296:	ac 01       	movw	r20, r24
    6298:	48 5f       	subi	r20, 0xF8	; 248
    629a:	5f 4f       	sbci	r21, 0xFF	; 255
    629c:	66 e0       	ldi	r22, 0x06	; 6
    629e:	70 e0       	ldi	r23, 0x00	; 0
    62a0:	8c e3       	ldi	r24, 0x3C	; 60
    62a2:	94 e0       	ldi	r25, 0x04	; 4
    62a4:	0e 94 e5 25 	call	0x4bca	; 0x4bca <_ZN23class_T6963C_Drive_V1418LocateXYEii>
		///@brief  Get Text Number of Pages
		///@fn     GetTextPages
		///@return number of text pages
		///@brief
		//	+-------------------------------------------------------------------------------+
		uint8_t	inline GetTextPages() { return _TextPages; }
    62a8:	80 91 54 04 	lds	r24, 0x0454
	if (dp.GetTextPages()>1)
    62ac:	82 30       	cpi	r24, 0x02	; 2
    62ae:	88 f1       	brcs	.+98     	; 0x6312 <_Z19Demo_InitializationPKcm+0xc4>
		///@brief  Get Graph2 Start Address
		///@fn     GetGraph2Address
		///@return return Graph2 Start Address
		///@brief
		//	+-------------------------------------------------------------------------------+
		uint16_t	inline GetGraph2Address() { return _GraphStartAddress2; }
    62b0:	e0 91 61 04 	lds	r30, 0x0461
    62b4:	f0 91 62 04 	lds	r31, 0x0462
		///@brief  Get Graph Start Address
		///@fn     GetGraphAddress
		///@return return Graph Start Address
		///@brief
		//	+-------------------------------------------------------------------------------+
		uint16_t	inline GetGraphAddress(void) { return _GraphStartAddress; }
    62b8:	60 91 5f 04 	lds	r22, 0x045F
    62bc:	70 91 60 04 	lds	r23, 0x0460
		///@brief Get Text2 Start Address
		///@fn    GetText2Address
		///@return return Text2 Start Address
		///@brief
		//	+-------------------------------------------------------------------------------+
		uint16_t	inline GetText2Address() { return _TextStartAddress2; }
    62c0:	40 91 5d 04 	lds	r20, 0x045D
    62c4:	50 91 5e 04 	lds	r21, 0x045E
		///@brief  Get Text Start Address
		///@fn     GetTextAddress
		///@return return Text Start Address
		///@brief
		//	+-------------------------------------------------------------------------------+
		uint16_t	inline GetTextAddress() { return _TextStartAddress; }
    62c8:	20 91 5b 04 	lds	r18, 0x045B
    62cc:	30 91 5c 04 	lds	r19, 0x045C
		///@brief  Get Graph Number of Pages
		///@fn     GetGraphPages
		///@return number of graph pages
		///@brief
		//	+-------------------------------------------------------------------------------+
		uint8_t	inline GetGraphPages() { return _GraphPages; }
    62d0:	b0 91 57 04 	lds	r27, 0x0457
		///@brief  Get Text Number of Pages
		///@fn     GetTextPages
		///@return number of text pages
		///@brief
		//	+-------------------------------------------------------------------------------+
		uint8_t	inline GetTextPages() { return _TextPages; }
    62d4:	a0 91 54 04 	lds	r26, 0x0454
		///@brief  Get External RAM SIZE
		///@fn     GetRAMSize
		///@return RAM Size in bytes
		///@brief 
		//	+-------------------------------------------------------------------------------+
		uint16_t	inline GetRAMSize(void) { return _RAMSize; }
    62d8:	80 91 59 04 	lds	r24, 0x0459
    62dc:	90 91 5a 04 	lds	r25, 0x045A
	{
		sprintf(bf,"RAM........ = %d Bytes\r\n Text Pages. = %4d\r\n Graph Pages = %4d\r\n Text Addr1. = %04X Hex\r\n Text Addr2. = %04X Hex\r\n Graph Addr1 = %04X Hex\r\n Graph Addr2 = %04X Hex\r\n Display 160x128 Pixels\r\n This Display\r\n Support Pages",dp.GetRAMSize(),dp.GetTextPages(),dp.GetGraphPages(),dp.GetTextAddress(),dp.GetText2Address(),dp.GetGraphAddress(),dp.GetGraph2Address());
    62e0:	ff 93       	push	r31
    62e2:	ef 93       	push	r30
    62e4:	7f 93       	push	r23
    62e6:	6f 93       	push	r22
    62e8:	5f 93       	push	r21
    62ea:	4f 93       	push	r20
    62ec:	3f 93       	push	r19
    62ee:	2f 93       	push	r18
    62f0:	1f 92       	push	r1
    62f2:	bf 93       	push	r27
    62f4:	1f 92       	push	r1
    62f6:	af 93       	push	r26
    62f8:	9f 93       	push	r25
    62fa:	8f 93       	push	r24
    62fc:	87 e2       	ldi	r24, 0x27	; 39
    62fe:	91 e0       	ldi	r25, 0x01	; 1
    6300:	9f 93       	push	r25
    6302:	8f 93       	push	r24
    6304:	88 e0       	ldi	r24, 0x08	; 8
    6306:	93 e0       	ldi	r25, 0x03	; 3
    6308:	9f 93       	push	r25
    630a:	8f 93       	push	r24
    630c:	0e 94 6b 42 	call	0x84d6	; 0x84d6 <sprintf>
    6310:	24 c0       	rjmp	.+72     	; 0x635a <_Z19Demo_InitializationPKcm+0x10c>
		///@brief  Get Graph Start Address
		///@fn     GetGraphAddress
		///@return return Graph Start Address
		///@brief
		//	+-------------------------------------------------------------------------------+
		uint16_t	inline GetGraphAddress(void) { return _GraphStartAddress; }
    6312:	40 91 5f 04 	lds	r20, 0x045F
    6316:	50 91 60 04 	lds	r21, 0x0460
		///@brief  Get Text Start Address
		///@fn     GetTextAddress
		///@return return Text Start Address
		///@brief
		//	+-------------------------------------------------------------------------------+
		uint16_t	inline GetTextAddress() { return _TextStartAddress; }
    631a:	20 91 5b 04 	lds	r18, 0x045B
    631e:	30 91 5c 04 	lds	r19, 0x045C
		///@brief  Get Graph Number of Pages
		///@fn     GetGraphPages
		///@return number of graph pages
		///@brief
		//	+-------------------------------------------------------------------------------+
		uint8_t	inline GetGraphPages() { return _GraphPages; }
    6322:	70 91 57 04 	lds	r23, 0x0457
		///@brief  Get Text Number of Pages
		///@fn     GetTextPages
		///@return number of text pages
		///@brief
		//	+-------------------------------------------------------------------------------+
		uint8_t	inline GetTextPages() { return _TextPages; }
    6326:	60 91 54 04 	lds	r22, 0x0454
		///@brief  Get External RAM SIZE
		///@fn     GetRAMSize
		///@return RAM Size in bytes
		///@brief 
		//	+-------------------------------------------------------------------------------+
		uint16_t	inline GetRAMSize(void) { return _RAMSize; }
    632a:	80 91 59 04 	lds	r24, 0x0459
    632e:	90 91 5a 04 	lds	r25, 0x045A
	}
	else
	{
		sprintf(bf,"RAM........ = %d Bytes\r\n Text Pages. = %4d\r\n Graph Pages = %4d\r\n Text Addr1. = %04X Hex\r\n Graph Addr1 = %04X Hex\r\n Display 160x128 Pixels\r\n This Display Do \r\n Not Support Pages",dp.GetRAMSize(),dp.GetTextPages(),dp.GetGraphPages(),dp.GetTextAddress(),dp.GetGraphAddress());
    6332:	5f 93       	push	r21
    6334:	4f 93       	push	r20
    6336:	3f 93       	push	r19
    6338:	2f 93       	push	r18
    633a:	1f 92       	push	r1
    633c:	7f 93       	push	r23
    633e:	1f 92       	push	r1
    6340:	6f 93       	push	r22
    6342:	9f 93       	push	r25
    6344:	8f 93       	push	r24
    6346:	82 e0       	ldi	r24, 0x02	; 2
    6348:	92 e0       	ldi	r25, 0x02	; 2
    634a:	9f 93       	push	r25
    634c:	8f 93       	push	r24
    634e:	88 e0       	ldi	r24, 0x08	; 8
    6350:	93 e0       	ldi	r25, 0x03	; 3
    6352:	9f 93       	push	r25
    6354:	8f 93       	push	r24
    6356:	0e 94 6b 42 	call	0x84d6	; 0x84d6 <sprintf>
    635a:	0f b6       	in	r0, 0x3f	; 63
    635c:	f8 94       	cli
    635e:	de bf       	out	0x3e, r29	; 62
    6360:	0f be       	out	0x3f, r0	; 63
    6362:	cd bf       	out	0x3d, r28	; 61
	}
	dp.GPutS(bf);
    6364:	41 e0       	ldi	r20, 0x01	; 1
    6366:	68 e0       	ldi	r22, 0x08	; 8
    6368:	73 e0       	ldi	r23, 0x03	; 3
    636a:	8c e3       	ldi	r24, 0x3C	; 60
    636c:	94 e0       	ldi	r25, 0x04	; 4
    636e:	81 dd       	rcall	.-1278   	; 0x5e72 <_ZN23class_T6963C_Drive_V1415GPutSEPKch>
	time.DelayMillisByInterrupt(timeToExit);
    6370:	b7 01       	movw	r22, r14
    6372:	a6 01       	movw	r20, r12
    6374:	85 e3       	ldi	r24, 0x35	; 53
    6376:	94 e0       	ldi	r25, 0x04	; 4
    6378:	0e 94 5b 41 	call	0x82b6	; 0x82b6 <_ZN10class_Time22DelayMillisByInterruptEm>
}
    637c:	28 96       	adiw	r28, 0x08	; 8
    637e:	0f b6       	in	r0, 0x3f	; 63
    6380:	f8 94       	cli
    6382:	de bf       	out	0x3e, r29	; 62
    6384:	0f be       	out	0x3f, r0	; 63
    6386:	cd bf       	out	0x3d, r28	; 61
    6388:	df 91       	pop	r29
    638a:	cf 91       	pop	r28
    638c:	1f 91       	pop	r17
    638e:	0f 91       	pop	r16
    6390:	ff 90       	pop	r15
    6392:	ef 90       	pop	r14
    6394:	df 90       	pop	r13
    6396:	cf 90       	pop	r12
    6398:	08 95       	ret

0000639a <_Z31Demo_Animated_Patterns_and_PensPKcmm>:
/////////////////////////////////////////////////////
//  ANIMATED PATTERNS AND PENS
/////////////////////////////////////////////////////
void Demo_Animated_Patterns_and_Pens(const char *titleString,uint32_t timeToExit,uint32_t timeSpeed=100)
{
    639a:	2f 92       	push	r2
    639c:	3f 92       	push	r3
    639e:	4f 92       	push	r4
    63a0:	5f 92       	push	r5
    63a2:	6f 92       	push	r6
    63a4:	7f 92       	push	r7
    63a6:	8f 92       	push	r8
    63a8:	9f 92       	push	r9
    63aa:	af 92       	push	r10
    63ac:	bf 92       	push	r11
    63ae:	cf 92       	push	r12
    63b0:	df 92       	push	r13
    63b2:	ef 92       	push	r14
    63b4:	ff 92       	push	r15
    63b6:	0f 93       	push	r16
    63b8:	1f 93       	push	r17
    63ba:	cf 93       	push	r28
    63bc:	df 93       	push	r29
    63be:	cd b7       	in	r28, 0x3d	; 61
    63c0:	de b7       	in	r29, 0x3e	; 62
    63c2:	e9 97       	sbiw	r28, 0x39	; 57
    63c4:	0f b6       	in	r0, 0x3f	; 63
    63c6:	f8 94       	cli
    63c8:	de bf       	out	0x3e, r29	; 62
    63ca:	0f be       	out	0x3f, r0	; 63
    63cc:	cd bf       	out	0x3d, r28	; 61
    63ce:	4a ab       	std	Y+50, r20	; 0x32
    63d0:	5b ab       	std	Y+51, r21	; 0x33
    63d2:	6c ab       	std	Y+52, r22	; 0x34
    63d4:	7d ab       	std	Y+53, r23	; 0x35
    63d6:	28 01       	movw	r4, r16
    63d8:	39 01       	movw	r6, r18
	bool		bBorder=false;
	Pen			penBar=Pen::Bar_Dot,penDotDot=Pen::Dot_Dot_2;

	_T6963C_Pattern patternCircle,patternBox,patternSlash,patternGrid;

	DrawTitle(titleString);
    63da:	ba de       	rcall	.-652    	; 0x6150 <_Z9DrawTitlePKc>


	dp.SetDisplayMode(_T6963C_DisplayModes::_CURSOR,false);
    63dc:	40 e0       	ldi	r20, 0x00	; 0
    63de:	61 e0       	ldi	r22, 0x01	; 1
    63e0:	70 e0       	ldi	r23, 0x00	; 0
    63e2:	8c e3       	ldi	r24, 0x3C	; 60
    63e4:	94 e0       	ldi	r25, 0x04	; 4
    63e6:	0e 94 12 23 	call	0x4624	; 0x4624 <_ZN23class_T6963C_Drive_V14114SetDisplayModeE25_enum_T6963C_DisplayModesb>

	dp.GetDrawPatternType(_T6963C_Patterns::CIRCLE,patternCircle);
    63ea:	ae 01       	movw	r20, r28
    63ec:	47 5e       	subi	r20, 0xE7	; 231
    63ee:	5f 4f       	sbci	r21, 0xFF	; 255
    63f0:	65 e0       	ldi	r22, 0x05	; 5
    63f2:	70 e0       	ldi	r23, 0x00	; 0
    63f4:	8c e3       	ldi	r24, 0x3C	; 60
    63f6:	94 e0       	ldi	r25, 0x04	; 4
    63f8:	c5 d8       	rcall	.-3702   	; 0x5584 <_ZN23class_T6963C_Drive_V14118GetDrawPatternTypeE21_enum_T6963C_patternsR15_T6963C_Pattern>
	dp.GetDrawPatternType(_T6963C_Patterns::DIAGONAL_GRID,patternBox);
    63fa:	ae 01       	movw	r20, r28
    63fc:	4f 5e       	subi	r20, 0xEF	; 239
    63fe:	5f 4f       	sbci	r21, 0xFF	; 255
    6400:	64 e0       	ldi	r22, 0x04	; 4
    6402:	70 e0       	ldi	r23, 0x00	; 0
    6404:	8c e3       	ldi	r24, 0x3C	; 60
    6406:	94 e0       	ldi	r25, 0x04	; 4
    6408:	bd d8       	rcall	.-3718   	; 0x5584 <_ZN23class_T6963C_Drive_V14118GetDrawPatternTypeE21_enum_T6963C_patternsR15_T6963C_Pattern>
	dp.GetDrawPatternType(_T6963C_Patterns::SLASH,patternSlash);
    640a:	ae 01       	movw	r20, r28
    640c:	47 5f       	subi	r20, 0xF7	; 247
    640e:	5f 4f       	sbci	r21, 0xFF	; 255
    6410:	61 e0       	ldi	r22, 0x01	; 1
    6412:	70 e0       	ldi	r23, 0x00	; 0
    6414:	8c e3       	ldi	r24, 0x3C	; 60
    6416:	94 e0       	ldi	r25, 0x04	; 4
    6418:	b5 d8       	rcall	.-3734   	; 0x5584 <_ZN23class_T6963C_Drive_V14118GetDrawPatternTypeE21_enum_T6963C_patternsR15_T6963C_Pattern>
	dp.GetDrawPatternType(_T6963C_Patterns::GRID,patternGrid);
    641a:	9e 01       	movw	r18, r28
    641c:	2f 5f       	subi	r18, 0xFF	; 255
    641e:	3f 4f       	sbci	r19, 0xFF	; 255
    6420:	59 01       	movw	r10, r18
    6422:	a9 01       	movw	r20, r18
    6424:	63 e0       	ldi	r22, 0x03	; 3
    6426:	70 e0       	ldi	r23, 0x00	; 0
    6428:	8c e3       	ldi	r24, 0x3C	; 60
    642a:	94 e0       	ldi	r25, 0x04	; 4
    642c:	ab d8       	rcall	.-3754   	; 0x5584 <_ZN23class_T6963C_Drive_V14118GetDrawPatternTypeE21_enum_T6963C_patternsR15_T6963C_Pattern>
    642e:	82 e0       	ldi	r24, 0x02	; 2
    6430:	90 e0       	ldi	r25, 0x00	; 0
    6432:	90 93 3f 04 	sts	0x043F, r25
    6436:	80 93 3e 04 	sts	0x043E, r24

	dp.SetDrawMode(DrawMode::PATTERN);

	time.SetElapsed(&tPen);
    643a:	8e 01       	movw	r16, r28
    643c:	03 5d       	subi	r16, 0xD3	; 211
    643e:	1f 4f       	sbci	r17, 0xFF	; 255
    6440:	b8 01       	movw	r22, r16
    6442:	85 e3       	ldi	r24, 0x35	; 53
    6444:	94 e0       	ldi	r25, 0x04	; 4
    6446:	0e 94 3d 41 	call	0x827a	; 0x827a <_ZN10class_Time10SetElapsedEPm>
	time.SetElapsed(&tBorder);
    644a:	6e 01       	movw	r12, r28
    644c:	39 e2       	ldi	r19, 0x29	; 41
    644e:	c3 0e       	add	r12, r19
    6450:	d1 1c       	adc	r13, r1
    6452:	b6 01       	movw	r22, r12
    6454:	85 e3       	ldi	r24, 0x35	; 53
    6456:	94 e0       	ldi	r25, 0x04	; 4
    6458:	0e 94 3d 41 	call	0x827a	; 0x827a <_ZN10class_Time10SetElapsedEPm>
	time.SetElapsed(&tExit);
    645c:	7e 01       	movw	r14, r28
    645e:	41 e2       	ldi	r20, 0x21	; 33
    6460:	e4 0e       	add	r14, r20
    6462:	f1 1c       	adc	r15, r1
    6464:	b7 01       	movw	r22, r14
    6466:	85 e3       	ldi	r24, 0x35	; 53
    6468:	94 e0       	ldi	r25, 0x04	; 4
    646a:	0e 94 3d 41 	call	0x827a	; 0x827a <_ZN10class_Time10SetElapsedEPm>
	time.SetElapsed(&tSpeed);
    646e:	be 01       	movw	r22, r28
    6470:	6b 5d       	subi	r22, 0xDB	; 219
    6472:	7f 4f       	sbci	r23, 0xFF	; 255
    6474:	85 e3       	ldi	r24, 0x35	; 53
    6476:	94 e0       	ldi	r25, 0x04	; 4
    6478:	0e 94 3d 41 	call	0x827a	; 0x827a <_ZN10class_Time10SetElapsedEPm>
void Demo_Animated_Patterns_and_Pens(const char *titleString,uint32_t timeToExit,uint32_t timeSpeed=100)
{
	uint32_t	tPen,tBorder,tSpeed,tExit;
	Pixel		border=1;
	bool		bBorder=false;
	Pen			penBar=Pen::Bar_Dot,penDotDot=Pen::Dot_Dot_2;
    647c:	63 e3       	ldi	r22, 0x33	; 51
    647e:	26 2e       	mov	r2, r22
    6480:	31 2c       	mov	r3, r1
    6482:	72 e7       	ldi	r23, 0x72	; 114
    6484:	87 2e       	mov	r8, r23
    6486:	91 2c       	mov	r9, r1
		dp.DrawCircle(120,80,27,Pen::Black,1,border);
		RotatePatternRight(patternBox);

		dp.SetDrawPattern(patternGrid);
		dp.DrawBox(2,110,157,125,penDotDot);
		RotatePatternRight(patternGrid);
    6488:	ae aa       	std	Y+54, r10	; 0x36
    648a:	bf aa       	std	Y+55, r11	; 0x37

		if (time.GetElapsed(&tPen)>2000)
    648c:	09 ab       	std	Y+49, r16	; 0x31
    648e:	a1 2e       	mov	r10, r17
			Pen tmp;
			tmp=penBar;
			penBar=penDotDot;
			penDotDot=tmp;
		}
		if (time.GetElapsed(&tBorder)>10000)
    6490:	bc 2c       	mov	r11, r12
		shift<<=1;
		shift|=(shift>>8);
		penDotDot=static_cast<Pen>(shift);
		
		//see if time to exit
		if (time.GetElapsed(&tExit)>timeToExit)
    6492:	e8 ae       	std	Y+56, r14	; 0x38
    6494:	f9 ae       	std	Y+57, r15	; 0x39
	time.SetElapsed(&tBorder);
	time.SetElapsed(&tExit);
	time.SetElapsed(&tSpeed);
	for(;;)
	{
		dp.SetDrawPattern(patternCircle);
    6496:	09 8d       	ldd	r16, Y+25	; 0x19
    6498:	1a 8d       	ldd	r17, Y+26	; 0x1a
    649a:	2b 8d       	ldd	r18, Y+27	; 0x1b
    649c:	3c 8d       	ldd	r19, Y+28	; 0x1c
    649e:	4d 8d       	ldd	r20, Y+29	; 0x1d
    64a0:	5e 8d       	ldd	r21, Y+30	; 0x1e
    64a2:	6f 8d       	ldd	r22, Y+31	; 0x1f
    64a4:	78 a1       	ldd	r23, Y+32	; 0x20
    64a6:	8c e3       	ldi	r24, 0x3C	; 60
    64a8:	94 e0       	ldi	r25, 0x04	; 4
    64aa:	0e 94 b2 27 	call	0x4f64	; 0x4f64 <_ZN23class_T6963C_Drive_V14114SetDrawPatternE15_T6963C_Pattern>
		dp.DrawCircle(40,80,27,Pen::Black,1,border);
    64ae:	cc 24       	eor	r12, r12
    64b0:	c3 94       	inc	r12
    64b2:	ee 24       	eor	r14, r14
    64b4:	e3 94       	inc	r14
    64b6:	0f ef       	ldi	r16, 0xFF	; 255
    64b8:	10 e0       	ldi	r17, 0x00	; 0
    64ba:	2b e1       	ldi	r18, 0x1B	; 27
    64bc:	30 e0       	ldi	r19, 0x00	; 0
    64be:	40 e5       	ldi	r20, 0x50	; 80
    64c0:	50 e0       	ldi	r21, 0x00	; 0
    64c2:	68 e2       	ldi	r22, 0x28	; 40
    64c4:	70 e0       	ldi	r23, 0x00	; 0
    64c6:	8c e3       	ldi	r24, 0x3C	; 60
    64c8:	94 e0       	ldi	r25, 0x04	; 4
    64ca:	0e 94 bb 21 	call	0x4376	; 0x4376 <_ZN16class_GraphBasic10DrawCircleEiii9_enum_Penhb>
		RotatePatternLeft(patternCircle);
    64ce:	ce 01       	movw	r24, r28
    64d0:	49 96       	adiw	r24, 0x19	; 25
    64d2:	12 dd       	rcall	.-1500   	; 0x5ef8 <_Z17RotatePatternLeftR15_T6963C_Pattern>
	
		dp.SetDrawPattern(patternSlash);
    64d4:	09 85       	ldd	r16, Y+9	; 0x09
    64d6:	1a 85       	ldd	r17, Y+10	; 0x0a
    64d8:	2b 85       	ldd	r18, Y+11	; 0x0b
    64da:	3c 85       	ldd	r19, Y+12	; 0x0c
    64dc:	4d 85       	ldd	r20, Y+13	; 0x0d
    64de:	5e 85       	ldd	r21, Y+14	; 0x0e
    64e0:	6f 85       	ldd	r22, Y+15	; 0x0f
    64e2:	78 89       	ldd	r23, Y+16	; 0x10
    64e4:	8c e3       	ldi	r24, 0x3C	; 60
    64e6:	94 e0       	ldi	r25, 0x04	; 4
    64e8:	0e 94 b2 27 	call	0x4f64	; 0x4f64 <_ZN23class_T6963C_Drive_V14114SetDrawPatternE15_T6963C_Pattern>
		dp.DrawBox(2,34,157,49,penBar);
    64ec:	74 01       	movw	r14, r8
    64ee:	01 e3       	ldi	r16, 0x31	; 49
    64f0:	10 e0       	ldi	r17, 0x00	; 0
    64f2:	2d e9       	ldi	r18, 0x9D	; 157
    64f4:	30 e0       	ldi	r19, 0x00	; 0
    64f6:	42 e2       	ldi	r20, 0x22	; 34
    64f8:	50 e0       	ldi	r21, 0x00	; 0
    64fa:	62 e0       	ldi	r22, 0x02	; 2
    64fc:	70 e0       	ldi	r23, 0x00	; 0
    64fe:	8c e3       	ldi	r24, 0x3C	; 60
    6500:	94 e0       	ldi	r25, 0x04	; 4
    6502:	0e 94 54 1e 	call	0x3ca8	; 0x3ca8 <_ZN16class_GraphBasic7DrawBoxEiiii9_enum_Penb>
		RotatePatternLeft(patternSlash);
    6506:	ce 01       	movw	r24, r28
    6508:	09 96       	adiw	r24, 0x09	; 9
    650a:	f6 dc       	rcall	.-1556   	; 0x5ef8 <_Z17RotatePatternLeftR15_T6963C_Pattern>
	
		dp.SetDrawPattern(patternBox);
    650c:	09 89       	ldd	r16, Y+17	; 0x11
    650e:	1a 89       	ldd	r17, Y+18	; 0x12
    6510:	2b 89       	ldd	r18, Y+19	; 0x13
    6512:	3c 89       	ldd	r19, Y+20	; 0x14
    6514:	4d 89       	ldd	r20, Y+21	; 0x15
    6516:	5e 89       	ldd	r21, Y+22	; 0x16
    6518:	6f 89       	ldd	r22, Y+23	; 0x17
    651a:	78 8d       	ldd	r23, Y+24	; 0x18
    651c:	8c e3       	ldi	r24, 0x3C	; 60
    651e:	94 e0       	ldi	r25, 0x04	; 4
    6520:	0e 94 b2 27 	call	0x4f64	; 0x4f64 <_ZN23class_T6963C_Drive_V14114SetDrawPatternE15_T6963C_Pattern>
		dp.DrawCircle(120,80,27,Pen::Black,1,border);
    6524:	ee 24       	eor	r14, r14
    6526:	e3 94       	inc	r14
    6528:	0f ef       	ldi	r16, 0xFF	; 255
    652a:	10 e0       	ldi	r17, 0x00	; 0
    652c:	2b e1       	ldi	r18, 0x1B	; 27
    652e:	30 e0       	ldi	r19, 0x00	; 0
    6530:	40 e5       	ldi	r20, 0x50	; 80
    6532:	50 e0       	ldi	r21, 0x00	; 0
    6534:	68 e7       	ldi	r22, 0x78	; 120
    6536:	70 e0       	ldi	r23, 0x00	; 0
    6538:	8c e3       	ldi	r24, 0x3C	; 60
    653a:	94 e0       	ldi	r25, 0x04	; 4
    653c:	0e 94 bb 21 	call	0x4376	; 0x4376 <_ZN16class_GraphBasic10DrawCircleEiii9_enum_Penhb>
		RotatePatternRight(patternBox);
    6540:	ce 01       	movw	r24, r28
    6542:	41 96       	adiw	r24, 0x11	; 17
    6544:	e8 dc       	rcall	.-1584   	; 0x5f16 <_Z18RotatePatternRightR15_T6963C_Pattern>

		dp.SetDrawPattern(patternGrid);
    6546:	09 81       	ldd	r16, Y+1	; 0x01
    6548:	1a 81       	ldd	r17, Y+2	; 0x02
    654a:	2b 81       	ldd	r18, Y+3	; 0x03
    654c:	3c 81       	ldd	r19, Y+4	; 0x04
    654e:	4d 81       	ldd	r20, Y+5	; 0x05
    6550:	5e 81       	ldd	r21, Y+6	; 0x06
    6552:	6f 81       	ldd	r22, Y+7	; 0x07
    6554:	78 85       	ldd	r23, Y+8	; 0x08
    6556:	8c e3       	ldi	r24, 0x3C	; 60
    6558:	94 e0       	ldi	r25, 0x04	; 4
    655a:	0e 94 b2 27 	call	0x4f64	; 0x4f64 <_ZN23class_T6963C_Drive_V14114SetDrawPatternE15_T6963C_Pattern>
		dp.DrawBox(2,110,157,125,penDotDot);
    655e:	71 01       	movw	r14, r2
    6560:	0d e7       	ldi	r16, 0x7D	; 125
    6562:	10 e0       	ldi	r17, 0x00	; 0
    6564:	2d e9       	ldi	r18, 0x9D	; 157
    6566:	30 e0       	ldi	r19, 0x00	; 0
    6568:	4e e6       	ldi	r20, 0x6E	; 110
    656a:	50 e0       	ldi	r21, 0x00	; 0
    656c:	62 e0       	ldi	r22, 0x02	; 2
    656e:	70 e0       	ldi	r23, 0x00	; 0
    6570:	8c e3       	ldi	r24, 0x3C	; 60
    6572:	94 e0       	ldi	r25, 0x04	; 4
    6574:	0e 94 54 1e 	call	0x3ca8	; 0x3ca8 <_ZN16class_GraphBasic7DrawBoxEiiii9_enum_Penb>
		RotatePatternRight(patternGrid);
    6578:	8e a9       	ldd	r24, Y+54	; 0x36
    657a:	9f a9       	ldd	r25, Y+55	; 0x37
    657c:	cc dc       	rcall	.-1640   	; 0x5f16 <_Z18RotatePatternRightR15_T6963C_Pattern>

		if (time.GetElapsed(&tPen)>2000)
    657e:	69 a9       	ldd	r22, Y+49	; 0x31
    6580:	7a 2d       	mov	r23, r10
    6582:	85 e3       	ldi	r24, 0x35	; 53
    6584:	94 e0       	ldi	r25, 0x04	; 4
    6586:	0e 94 48 41 	call	0x8290	; 0x8290 <_ZN10class_Time10GetElapsedEPm>
    658a:	61 3d       	cpi	r22, 0xD1	; 209
    658c:	77 40       	sbci	r23, 0x07	; 7
    658e:	81 05       	cpc	r24, r1
    6590:	91 05       	cpc	r25, r1
    6592:	58 f0       	brcs	.+22     	; 0x65aa <_Z31Demo_Animated_Patterns_and_PensPKcmm+0x210>
		{
			time.SetElapsed(&tPen);
    6594:	69 a9       	ldd	r22, Y+49	; 0x31
    6596:	7a 2d       	mov	r23, r10
    6598:	85 e3       	ldi	r24, 0x35	; 53
    659a:	94 e0       	ldi	r25, 0x04	; 4
    659c:	0e 94 3d 41 	call	0x827a	; 0x827a <_ZN10class_Time10SetElapsedEPm>
    65a0:	98 2d       	mov	r25, r8
    65a2:	89 2d       	mov	r24, r9
			Pen tmp;
			tmp=penBar;
			penBar=penDotDot;
    65a4:	41 01       	movw	r8, r2
			penDotDot=tmp;
    65a6:	29 2e       	mov	r2, r25
    65a8:	38 2e       	mov	r3, r24
		}
		if (time.GetElapsed(&tBorder)>10000)
    65aa:	6b 2d       	mov	r22, r11
    65ac:	7d 2d       	mov	r23, r13
    65ae:	85 e3       	ldi	r24, 0x35	; 53
    65b0:	94 e0       	ldi	r25, 0x04	; 4
    65b2:	0e 94 48 41 	call	0x8290	; 0x8290 <_ZN10class_Time10GetElapsedEPm>
    65b6:	61 31       	cpi	r22, 0x11	; 17
    65b8:	77 42       	sbci	r23, 0x27	; 39
    65ba:	81 05       	cpc	r24, r1
    65bc:	91 05       	cpc	r25, r1
    65be:	30 f0       	brcs	.+12     	; 0x65cc <_Z31Demo_Animated_Patterns_and_PensPKcmm+0x232>
		{
			time.SetElapsed(&tBorder);
    65c0:	6b 2d       	mov	r22, r11
    65c2:	7d 2d       	mov	r23, r13
    65c4:	85 e3       	ldi	r24, 0x35	; 53
    65c6:	94 e0       	ldi	r25, 0x04	; 4
    65c8:	0e 94 3d 41 	call	0x827a	; 0x827a <_ZN10class_Time10SetElapsedEPm>
    65cc:	c4 01       	movw	r24, r8
    65ce:	99 27       	eor	r25, r25
	
		//rotate Pen
		uint16_t shift;
	
		shift=static_cast<uint8_t>(penBar);
		shift<<=1;
    65d0:	88 0f       	add	r24, r24
    65d2:	99 1f       	adc	r25, r25
		shift|=(shift>>8);
    65d4:	29 2f       	mov	r18, r25
    65d6:	33 27       	eor	r19, r19
    65d8:	49 01       	movw	r8, r18
    65da:	88 2a       	or	r8, r24
    65dc:	99 2a       	or	r9, r25
    65de:	33 24       	eor	r3, r3
		penBar=static_cast<Pen>(shift);
	
		shift=static_cast<uint8_t>(penDotDot);
		shift<<=1;
    65e0:	22 0c       	add	r2, r2
    65e2:	33 1c       	adc	r3, r3
		shift|=(shift>>8);
    65e4:	83 2d       	mov	r24, r3
    65e6:	99 27       	eor	r25, r25
    65e8:	28 2a       	or	r2, r24
    65ea:	39 2a       	or	r3, r25
		penDotDot=static_cast<Pen>(shift);
		
		//see if time to exit
		if (time.GetElapsed(&tExit)>timeToExit)
    65ec:	68 ad       	ldd	r22, Y+56	; 0x38
    65ee:	79 ad       	ldd	r23, Y+57	; 0x39
    65f0:	85 e3       	ldi	r24, 0x35	; 53
    65f2:	94 e0       	ldi	r25, 0x04	; 4
    65f4:	0e 94 48 41 	call	0x8290	; 0x8290 <_ZN10class_Time10GetElapsedEPm>
    65f8:	2a a9       	ldd	r18, Y+50	; 0x32
    65fa:	3b a9       	ldd	r19, Y+51	; 0x33
    65fc:	4c a9       	ldd	r20, Y+52	; 0x34
    65fe:	5d a9       	ldd	r21, Y+53	; 0x35
    6600:	26 17       	cp	r18, r22
    6602:	37 07       	cpc	r19, r23
    6604:	48 07       	cpc	r20, r24
    6606:	59 07       	cpc	r21, r25
    6608:	a0 f0       	brcs	.+40     	; 0x6632 <_Z31Demo_Animated_Patterns_and_PensPKcmm+0x298>
		{
			break;
		}
		//speed
		do{
		} while (time.GetElapsed(&tSpeed)<timeSpeed);
    660a:	be 01       	movw	r22, r28
    660c:	6b 5d       	subi	r22, 0xDB	; 219
    660e:	7f 4f       	sbci	r23, 0xFF	; 255
    6610:	85 e3       	ldi	r24, 0x35	; 53
    6612:	94 e0       	ldi	r25, 0x04	; 4
    6614:	0e 94 48 41 	call	0x8290	; 0x8290 <_ZN10class_Time10GetElapsedEPm>
		if (time.GetElapsed(&tExit)>timeToExit)
		{
			break;
		}
		//speed
		do{
    6618:	64 15       	cp	r22, r4
    661a:	75 05       	cpc	r23, r5
    661c:	86 05       	cpc	r24, r6
    661e:	97 05       	cpc	r25, r7
    6620:	a0 f3       	brcs	.-24     	; 0x660a <_Z31Demo_Animated_Patterns_and_PensPKcmm+0x270>
		} while (time.GetElapsed(&tSpeed)<timeSpeed);
		time.SetElapsed(&tSpeed);
    6622:	be 01       	movw	r22, r28
    6624:	6b 5d       	subi	r22, 0xDB	; 219
    6626:	7f 4f       	sbci	r23, 0xFF	; 255
    6628:	85 e3       	ldi	r24, 0x35	; 53
    662a:	94 e0       	ldi	r25, 0x04	; 4
    662c:	0e 94 3d 41 	call	0x827a	; 0x827a <_ZN10class_Time10SetElapsedEPm>
	}	
    6630:	32 cf       	rjmp	.-412    	; 0x6496 <_Z31Demo_Animated_Patterns_and_PensPKcmm+0xfc>
}
    6632:	e9 96       	adiw	r28, 0x39	; 57
    6634:	0f b6       	in	r0, 0x3f	; 63
    6636:	f8 94       	cli
    6638:	de bf       	out	0x3e, r29	; 62
    663a:	0f be       	out	0x3f, r0	; 63
    663c:	cd bf       	out	0x3d, r28	; 61
    663e:	df 91       	pop	r29
    6640:	cf 91       	pop	r28
    6642:	1f 91       	pop	r17
    6644:	0f 91       	pop	r16
    6646:	ff 90       	pop	r15
    6648:	ef 90       	pop	r14
    664a:	df 90       	pop	r13
    664c:	cf 90       	pop	r12
    664e:	bf 90       	pop	r11
    6650:	af 90       	pop	r10
    6652:	9f 90       	pop	r9
    6654:	8f 90       	pop	r8
    6656:	7f 90       	pop	r7
    6658:	6f 90       	pop	r6
    665a:	5f 90       	pop	r5
    665c:	4f 90       	pop	r4
    665e:	3f 90       	pop	r3
    6660:	2f 90       	pop	r2
    6662:	08 95       	ret

00006664 <_Z28Demo_Support_Large_BMP_ImagePKcm>:
/////////////////////////////////////////////////////
//  SUPPORT LARGE BMP IMAGE
/////////////////////////////////////////////////////
void Demo_Support_Large_BMP_Image(const char *titleString,uint32_t timeToExit)
{
    6664:	4f 92       	push	r4
    6666:	5f 92       	push	r5
    6668:	6f 92       	push	r6
    666a:	7f 92       	push	r7
    666c:	8f 92       	push	r8
    666e:	9f 92       	push	r9
    6670:	af 92       	push	r10
    6672:	bf 92       	push	r11
    6674:	cf 92       	push	r12
    6676:	df 92       	push	r13
    6678:	ef 92       	push	r14
    667a:	ff 92       	push	r15
    667c:	0f 93       	push	r16
    667e:	1f 93       	push	r17
    6680:	cf 93       	push	r28
    6682:	df 93       	push	r29
    6684:	00 d0       	rcall	.+0      	; 0x6686 <_Z28Demo_Support_Large_BMP_ImagePKcm+0x22>
    6686:	00 d0       	rcall	.+0      	; 0x6688 <_Z28Demo_Support_Large_BMP_ImagePKcm+0x24>
    6688:	cd b7       	in	r28, 0x3d	; 61
    668a:	de b7       	in	r29, 0x3e	; 62
    668c:	8c 01       	movw	r16, r24
    668e:	2a 01       	movw	r4, r20
    6690:	3b 01       	movw	r6, r22
	uint32_t	tExit;
	int			x=0,y=0,iX=1,iY=1,maxY;
	
	maxY=dp.GetBMPHeight(BMP_borboletas)-dp.GraphHeight();
    6692:	6b e7       	ldi	r22, 0x7B	; 123
    6694:	71 e1       	ldi	r23, 0x11	; 17
    6696:	8c e3       	ldi	r24, 0x3C	; 60
    6698:	94 e0       	ldi	r25, 0x04	; 4
    669a:	19 d8       	rcall	.-4046   	; 0x56ce <_ZN23class_T6963C_Drive_V14112GetBMPHeightEPKh>
		///@brief 		<td><img src="_Photos\Graph_Width_Height.jpg" style="width:300px;height:200px;"></td>
		///@brief 	</tr>
		///@brief </table>
		///@brief _______________________________________________________________________________			
		//	+-------------------------------------------------------------------------------+
		int	inline GraphHeight() { return _GraphHeight; }
    669c:	20 91 71 04 	lds	r18, 0x0471
    66a0:	30 91 72 04 	lds	r19, 0x0472
    66a4:	4c 01       	movw	r8, r24
    66a6:	82 1a       	sub	r8, r18
    66a8:	93 0a       	sbc	r9, r19

				  //12345678901234567890
	DrawTitle(titleString);
    66aa:	c8 01       	movw	r24, r16
    66ac:	51 dd       	rcall	.-1374   	; 0x6150 <_Z9DrawTitlePKc>

	time.SetElapsed(&tExit);
    66ae:	be 01       	movw	r22, r28
    66b0:	6f 5f       	subi	r22, 0xFF	; 255
    66b2:	7f 4f       	sbci	r23, 0xFF	; 255
    66b4:	85 e3       	ldi	r24, 0x35	; 53
    66b6:	94 e0       	ldi	r25, 0x04	; 4
    66b8:	0e 94 3d 41 	call	0x827a	; 0x827a <_ZN10class_Time10SetElapsedEPm>
//  SUPPORT LARGE BMP IMAGE
/////////////////////////////////////////////////////
void Demo_Support_Large_BMP_Image(const char *titleString,uint32_t timeToExit)
{
	uint32_t	tExit;
	int			x=0,y=0,iX=1,iY=1,maxY;
    66bc:	aa 24       	eor	r10, r10
    66be:	a3 94       	inc	r10
    66c0:	b1 2c       	mov	r11, r1
    66c2:	cc 24       	eor	r12, r12
    66c4:	c3 94       	inc	r12
    66c6:	d1 2c       	mov	r13, r1
    66c8:	e1 2c       	mov	r14, r1
    66ca:	f1 2c       	mov	r15, r1
    66cc:	00 e0       	ldi	r16, 0x00	; 0
    66ce:	10 e0       	ldi	r17, 0x00	; 0
	time.SetElapsed(&tExit);

	for(;;)
	{
		//draw bmp
		dp.DrawBitMap(-x,-y,BMP_borboletas);
    66d0:	44 27       	eor	r20, r20
    66d2:	55 27       	eor	r21, r21
    66d4:	4e 19       	sub	r20, r14
    66d6:	5f 09       	sbc	r21, r15
    66d8:	66 27       	eor	r22, r22
    66da:	77 27       	eor	r23, r23
    66dc:	60 1b       	sub	r22, r16
    66de:	71 0b       	sbc	r23, r17
    66e0:	2b e7       	ldi	r18, 0x7B	; 123
    66e2:	31 e1       	ldi	r19, 0x11	; 17
    66e4:	8c e3       	ldi	r24, 0x3C	; 60
    66e6:	94 e0       	ldi	r25, 0x04	; 4
    66e8:	0b d8       	rcall	.-4074   	; 0x5700 <_ZN23class_T6963C_Drive_V14110DrawBitMapEiiPKh>
		//compute show position
		x+=iX;
    66ea:	0c 0d       	add	r16, r12
    66ec:	1d 1d       	adc	r17, r13
		///@brief 		<td><img src="_Photos\Graph_Width_Height.jpg" style="width:300px;height:200px;"></td>
		///@brief 	</tr>
		///@brief </table>
		///@brief _______________________________________________________________________________			
		//	+-------------------------------------------------------------------------------+
		int	inline GraphWidth() { return _GraphWidth; }
    66ee:	80 91 6f 04 	lds	r24, 0x046F
    66f2:	90 91 70 04 	lds	r25, 0x0470
		if (x>dp.GraphWidth()) iX=-iX;
    66f6:	80 17       	cp	r24, r16
    66f8:	91 07       	cpc	r25, r17
    66fa:	1c f4       	brge	.+6      	; 0x6702 <_Z28Demo_Support_Large_BMP_ImagePKcm+0x9e>
    66fc:	d1 94       	neg	r13
    66fe:	c1 94       	neg	r12
    6700:	d1 08       	sbc	r13, r1
		if (x<0) iX=-iX;
    6702:	17 ff       	sbrs	r17, 7
    6704:	03 c0       	rjmp	.+6      	; 0x670c <_Z28Demo_Support_Large_BMP_ImagePKcm+0xa8>
    6706:	d1 94       	neg	r13
    6708:	c1 94       	neg	r12
    670a:	d1 08       	sbc	r13, r1
		y+=iY;
    670c:	ea 0c       	add	r14, r10
    670e:	fb 1c       	adc	r15, r11
		if (y>maxY) iY=-iY;
    6710:	8e 14       	cp	r8, r14
    6712:	9f 04       	cpc	r9, r15
    6714:	1c f4       	brge	.+6      	; 0x671c <_Z28Demo_Support_Large_BMP_ImagePKcm+0xb8>
    6716:	b1 94       	neg	r11
    6718:	a1 94       	neg	r10
    671a:	b1 08       	sbc	r11, r1
		if (y<0) iY=-iY;
    671c:	f7 fe       	sbrs	r15, 7
    671e:	03 c0       	rjmp	.+6      	; 0x6726 <_Z28Demo_Support_Large_BMP_ImagePKcm+0xc2>
    6720:	b1 94       	neg	r11
    6722:	a1 94       	neg	r10
    6724:	b1 08       	sbc	r11, r1

		//see if time to exit
		if (time.GetElapsed(&tExit)>timeToExit)
    6726:	be 01       	movw	r22, r28
    6728:	6f 5f       	subi	r22, 0xFF	; 255
    672a:	7f 4f       	sbci	r23, 0xFF	; 255
    672c:	85 e3       	ldi	r24, 0x35	; 53
    672e:	94 e0       	ldi	r25, 0x04	; 4
    6730:	0e 94 48 41 	call	0x8290	; 0x8290 <_ZN10class_Time10GetElapsedEPm>
    6734:	46 16       	cp	r4, r22
    6736:	57 06       	cpc	r5, r23
    6738:	68 06       	cpc	r6, r24
    673a:	79 06       	cpc	r7, r25
    673c:	48 f6       	brcc	.-110    	; 0x66d0 <_Z28Demo_Support_Large_BMP_ImagePKcm+0x6c>
		{
			break;
		}
	}	
}
    673e:	0f 90       	pop	r0
    6740:	0f 90       	pop	r0
    6742:	0f 90       	pop	r0
    6744:	0f 90       	pop	r0
    6746:	df 91       	pop	r29
    6748:	cf 91       	pop	r28
    674a:	1f 91       	pop	r17
    674c:	0f 91       	pop	r16
    674e:	ff 90       	pop	r15
    6750:	ef 90       	pop	r14
    6752:	df 90       	pop	r13
    6754:	cf 90       	pop	r12
    6756:	bf 90       	pop	r11
    6758:	af 90       	pop	r10
    675a:	9f 90       	pop	r9
    675c:	8f 90       	pop	r8
    675e:	7f 90       	pop	r7
    6760:	6f 90       	pop	r6
    6762:	5f 90       	pop	r5
    6764:	4f 90       	pop	r4
    6766:	08 95       	ret

00006768 <_Z21Demo_Sample_Line_PensPKcm>:
/////////////////////////////////////////////////////
//  SAMPLE LINE PENS
/////////////////////////////////////////////////////
void Demo_Sample_Line_Pens(const char *titleString,uint32_t timeToExit)
{
    6768:	4f 92       	push	r4
    676a:	5f 92       	push	r5
    676c:	6f 92       	push	r6
    676e:	7f 92       	push	r7
    6770:	af 92       	push	r10
    6772:	bf 92       	push	r11
    6774:	cf 92       	push	r12
    6776:	df 92       	push	r13
    6778:	ef 92       	push	r14
    677a:	ff 92       	push	r15
    677c:	0f 93       	push	r16
    677e:	1f 93       	push	r17
    6780:	cf 93       	push	r28
    6782:	df 93       	push	r29
    6784:	cd b7       	in	r28, 0x3d	; 61
    6786:	de b7       	in	r29, 0x3e	; 62
    6788:	2c 97       	sbiw	r28, 0x0c	; 12
    678a:	0f b6       	in	r0, 0x3f	; 63
    678c:	f8 94       	cli
    678e:	de bf       	out	0x3e, r29	; 62
    6790:	0f be       	out	0x3f, r0	; 63
    6792:	cd bf       	out	0x3d, r28	; 61
    6794:	2a 01       	movw	r4, r20
    6796:	3b 01       	movw	r6, r22
	uint32_t	tExit;
	int			xi,yi,xf,yf,
				h,y;

	DrawTitle(titleString);
    6798:	db dc       	rcall	.-1610   	; 0x6150 <_Z9DrawTitlePKc>

	time.SetElapsed(&tExit);
    679a:	be 01       	movw	r22, r28
    679c:	6f 5f       	subi	r22, 0xFF	; 255
    679e:	7f 4f       	sbci	r23, 0xFF	; 255
    67a0:	85 e3       	ldi	r24, 0x35	; 53
    67a2:	94 e0       	ldi	r25, 0x04	; 4
    67a4:	0e 94 3d 41 	call	0x827a	; 0x827a <_ZN10class_Time10SetElapsedEPm>

	//get window position
	dp.GetWindow(xi,yi,xf,yf);
    67a8:	8e 01       	movw	r16, r28
    67aa:	0b 5f       	subi	r16, 0xFB	; 251
    67ac:	1f 4f       	sbci	r17, 0xFF	; 255
    67ae:	9e 01       	movw	r18, r28
    67b0:	29 5f       	subi	r18, 0xF9	; 249
    67b2:	3f 4f       	sbci	r19, 0xFF	; 255
    67b4:	ae 01       	movw	r20, r28
    67b6:	47 5f       	subi	r20, 0xF7	; 247
    67b8:	5f 4f       	sbci	r21, 0xFF	; 255
    67ba:	be 01       	movw	r22, r28
    67bc:	65 5f       	subi	r22, 0xF5	; 245
    67be:	7f 4f       	sbci	r23, 0xFF	; 255
    67c0:	8c e3       	ldi	r24, 0x3C	; 60
    67c2:	94 e0       	ldi	r25, 0x04	; 4
    67c4:	0e 94 32 2b 	call	0x5664	; 0x5664 <_ZN23class_T6963C_Drive_V1419GetWindowERiS0_S0_S0_>
	
	h=(yf-yi)/8;
    67c8:	a9 84       	ldd	r10, Y+9	; 0x09
    67ca:	ba 84       	ldd	r11, Y+10	; 0x0a
    67cc:	cd 80       	ldd	r12, Y+5	; 0x05
    67ce:	de 80       	ldd	r13, Y+6	; 0x06
    67d0:	ca 18       	sub	r12, r10
    67d2:	db 08       	sbc	r13, r11
    67d4:	d7 fe       	sbrs	r13, 7
    67d6:	03 c0       	rjmp	.+6      	; 0x67de <_Z21Demo_Sample_Line_PensPKcm+0x76>
    67d8:	87 e0       	ldi	r24, 0x07	; 7
    67da:	c8 0e       	add	r12, r24
    67dc:	d1 1c       	adc	r13, r1
    67de:	83 e0       	ldi	r24, 0x03	; 3
    67e0:	d5 94       	asr	r13
    67e2:	c7 94       	ror	r12
    67e4:	8a 95       	dec	r24
    67e6:	e1 f7       	brne	.-8      	; 0x67e0 <_Z21Demo_Sample_Line_PensPKcm+0x78>

	y=yi+h;
    67e8:	ac 0c       	add	r10, r12
    67ea:	bd 1c       	adc	r11, r13

	//Draw Lines
	dp.DrawLine(xi+10,y,xf-10,y,Pen::Bar);	
    67ec:	2f 81       	ldd	r18, Y+7	; 0x07
    67ee:	38 85       	ldd	r19, Y+8	; 0x08
    67f0:	2a 50       	subi	r18, 0x0A	; 10
    67f2:	31 09       	sbc	r19, r1
    67f4:	6b 85       	ldd	r22, Y+11	; 0x0b
    67f6:	7c 85       	ldd	r23, Y+12	; 0x0c
    67f8:	66 5f       	subi	r22, 0xF6	; 246
    67fa:	7f 4f       	sbci	r23, 0xFF	; 255
    67fc:	9c e3       	ldi	r25, 0x3C	; 60
    67fe:	e9 2e       	mov	r14, r25
    6800:	f1 2c       	mov	r15, r1
    6802:	85 01       	movw	r16, r10
    6804:	a5 01       	movw	r20, r10
    6806:	8c e3       	ldi	r24, 0x3C	; 60
    6808:	94 e0       	ldi	r25, 0x04	; 4
    680a:	0e 94 74 1d 	call	0x3ae8	; 0x3ae8 <_ZN16class_GraphBasic8DrawLineEiiii9_enum_Pen>
	y+=h;
    680e:	ac 0c       	add	r10, r12
    6810:	bd 1c       	adc	r11, r13
	dp.DrawLine(xi+10,y,xf-10,y,Pen::Bar_Dot);
    6812:	2f 81       	ldd	r18, Y+7	; 0x07
    6814:	38 85       	ldd	r19, Y+8	; 0x08
    6816:	2a 50       	subi	r18, 0x0A	; 10
    6818:	31 09       	sbc	r19, r1
    681a:	6b 85       	ldd	r22, Y+11	; 0x0b
    681c:	7c 85       	ldd	r23, Y+12	; 0x0c
    681e:	66 5f       	subi	r22, 0xF6	; 246
    6820:	7f 4f       	sbci	r23, 0xFF	; 255
    6822:	42 e7       	ldi	r20, 0x72	; 114
    6824:	e4 2e       	mov	r14, r20
    6826:	f1 2c       	mov	r15, r1
    6828:	85 01       	movw	r16, r10
    682a:	a5 01       	movw	r20, r10
    682c:	8c e3       	ldi	r24, 0x3C	; 60
    682e:	94 e0       	ldi	r25, 0x04	; 4
    6830:	0e 94 74 1d 	call	0x3ae8	; 0x3ae8 <_ZN16class_GraphBasic8DrawLineEiiii9_enum_Pen>
	y+=h;
    6834:	ac 0c       	add	r10, r12
    6836:	bd 1c       	adc	r11, r13
	dp.DrawLine(xi+10,y,xf-10,y,Pen::Black);
    6838:	2f 81       	ldd	r18, Y+7	; 0x07
    683a:	38 85       	ldd	r19, Y+8	; 0x08
    683c:	2a 50       	subi	r18, 0x0A	; 10
    683e:	31 09       	sbc	r19, r1
    6840:	6b 85       	ldd	r22, Y+11	; 0x0b
    6842:	7c 85       	ldd	r23, Y+12	; 0x0c
    6844:	66 5f       	subi	r22, 0xF6	; 246
    6846:	7f 4f       	sbci	r23, 0xFF	; 255
    6848:	ee 24       	eor	r14, r14
    684a:	ea 94       	dec	r14
    684c:	f1 2c       	mov	r15, r1
    684e:	85 01       	movw	r16, r10
    6850:	a5 01       	movw	r20, r10
    6852:	8c e3       	ldi	r24, 0x3C	; 60
    6854:	94 e0       	ldi	r25, 0x04	; 4
    6856:	0e 94 74 1d 	call	0x3ae8	; 0x3ae8 <_ZN16class_GraphBasic8DrawLineEiiii9_enum_Pen>
	y+=h;
    685a:	ac 0c       	add	r10, r12
    685c:	bd 1c       	adc	r11, r13
	dp.DrawLine(xi+10,y,xf-10,y,Pen::Dot);
    685e:	2f 81       	ldd	r18, Y+7	; 0x07
    6860:	38 85       	ldd	r19, Y+8	; 0x08
    6862:	2a 50       	subi	r18, 0x0A	; 10
    6864:	31 09       	sbc	r19, r1
    6866:	6b 85       	ldd	r22, Y+11	; 0x0b
    6868:	7c 85       	ldd	r23, Y+12	; 0x0c
    686a:	66 5f       	subi	r22, 0xF6	; 246
    686c:	7f 4f       	sbci	r23, 0xFF	; 255
    686e:	e0 e1       	ldi	r30, 0x10	; 16
    6870:	ee 2e       	mov	r14, r30
    6872:	f1 2c       	mov	r15, r1
    6874:	85 01       	movw	r16, r10
    6876:	a5 01       	movw	r20, r10
    6878:	8c e3       	ldi	r24, 0x3C	; 60
    687a:	94 e0       	ldi	r25, 0x04	; 4
    687c:	0e 94 74 1d 	call	0x3ae8	; 0x3ae8 <_ZN16class_GraphBasic8DrawLineEiiii9_enum_Pen>
	y+=h;
    6880:	ac 0c       	add	r10, r12
    6882:	bd 1c       	adc	r11, r13
	dp.DrawLine(xi+10,y,xf-10,y,Pen::Dot_Dot);
    6884:	2f 81       	ldd	r18, Y+7	; 0x07
    6886:	38 85       	ldd	r19, Y+8	; 0x08
    6888:	2a 50       	subi	r18, 0x0A	; 10
    688a:	31 09       	sbc	r19, r1
    688c:	6b 85       	ldd	r22, Y+11	; 0x0b
    688e:	7c 85       	ldd	r23, Y+12	; 0x0c
    6890:	66 5f       	subi	r22, 0xF6	; 246
    6892:	7f 4f       	sbci	r23, 0xFF	; 255
    6894:	f1 e1       	ldi	r31, 0x11	; 17
    6896:	ef 2e       	mov	r14, r31
    6898:	f1 2c       	mov	r15, r1
    689a:	85 01       	movw	r16, r10
    689c:	a5 01       	movw	r20, r10
    689e:	8c e3       	ldi	r24, 0x3C	; 60
    68a0:	94 e0       	ldi	r25, 0x04	; 4
    68a2:	0e 94 74 1d 	call	0x3ae8	; 0x3ae8 <_ZN16class_GraphBasic8DrawLineEiiii9_enum_Pen>
	y+=h;
    68a6:	ac 0c       	add	r10, r12
    68a8:	bd 1c       	adc	r11, r13
	dp.DrawLine(xi+10,y,xf-10,y,Pen::Dot_Dot_2);
    68aa:	2f 81       	ldd	r18, Y+7	; 0x07
    68ac:	38 85       	ldd	r19, Y+8	; 0x08
    68ae:	2a 50       	subi	r18, 0x0A	; 10
    68b0:	31 09       	sbc	r19, r1
    68b2:	6b 85       	ldd	r22, Y+11	; 0x0b
    68b4:	7c 85       	ldd	r23, Y+12	; 0x0c
    68b6:	66 5f       	subi	r22, 0xF6	; 246
    68b8:	7f 4f       	sbci	r23, 0xFF	; 255
    68ba:	a3 e3       	ldi	r26, 0x33	; 51
    68bc:	ea 2e       	mov	r14, r26
    68be:	f1 2c       	mov	r15, r1
    68c0:	85 01       	movw	r16, r10
    68c2:	a5 01       	movw	r20, r10
    68c4:	8c e3       	ldi	r24, 0x3C	; 60
    68c6:	94 e0       	ldi	r25, 0x04	; 4
    68c8:	0e 94 74 1d 	call	0x3ae8	; 0x3ae8 <_ZN16class_GraphBasic8DrawLineEiiii9_enum_Pen>
	y+=h;
    68cc:	a5 01       	movw	r20, r10
    68ce:	4c 0d       	add	r20, r12
    68d0:	5d 1d       	adc	r21, r13
	dp.DrawLine(xi+10,y,xf-10,y,Pen::Dot_Dot_3);
    68d2:	2f 81       	ldd	r18, Y+7	; 0x07
    68d4:	38 85       	ldd	r19, Y+8	; 0x08
    68d6:	2a 50       	subi	r18, 0x0A	; 10
    68d8:	31 09       	sbc	r19, r1
    68da:	6b 85       	ldd	r22, Y+11	; 0x0b
    68dc:	7c 85       	ldd	r23, Y+12	; 0x0c
    68de:	66 5f       	subi	r22, 0xF6	; 246
    68e0:	7f 4f       	sbci	r23, 0xFF	; 255
    68e2:	b7 e7       	ldi	r27, 0x77	; 119
    68e4:	eb 2e       	mov	r14, r27
    68e6:	f1 2c       	mov	r15, r1
    68e8:	8a 01       	movw	r16, r20
    68ea:	8c e3       	ldi	r24, 0x3C	; 60
    68ec:	94 e0       	ldi	r25, 0x04	; 4
    68ee:	0e 94 74 1d 	call	0x3ae8	; 0x3ae8 <_ZN16class_GraphBasic8DrawLineEiiii9_enum_Pen>
	y+=h;
	//wait show time
	time.DelayMillisByInterrupt(timeToExit);
    68f2:	b3 01       	movw	r22, r6
    68f4:	a2 01       	movw	r20, r4
    68f6:	85 e3       	ldi	r24, 0x35	; 53
    68f8:	94 e0       	ldi	r25, 0x04	; 4
    68fa:	0e 94 5b 41 	call	0x82b6	; 0x82b6 <_ZN10class_Time22DelayMillisByInterruptEm>
}
    68fe:	2c 96       	adiw	r28, 0x0c	; 12
    6900:	0f b6       	in	r0, 0x3f	; 63
    6902:	f8 94       	cli
    6904:	de bf       	out	0x3e, r29	; 62
    6906:	0f be       	out	0x3f, r0	; 63
    6908:	cd bf       	out	0x3d, r28	; 61
    690a:	df 91       	pop	r29
    690c:	cf 91       	pop	r28
    690e:	1f 91       	pop	r17
    6910:	0f 91       	pop	r16
    6912:	ff 90       	pop	r15
    6914:	ef 90       	pop	r14
    6916:	df 90       	pop	r13
    6918:	cf 90       	pop	r12
    691a:	bf 90       	pop	r11
    691c:	af 90       	pop	r10
    691e:	7f 90       	pop	r7
    6920:	6f 90       	pop	r6
    6922:	5f 90       	pop	r5
    6924:	4f 90       	pop	r4
    6926:	08 95       	ret

00006928 <_Z21Demo_Line_PerformancePKcm>:

/////////////////////////////////////////////////////
//  LINE PERFORMANCE
/////////////////////////////////////////////////////
void Demo_Line_Performance(const char *titleString,uint32_t timeToExit)
{
    6928:	2f 92       	push	r2
    692a:	3f 92       	push	r3
    692c:	4f 92       	push	r4
    692e:	5f 92       	push	r5
    6930:	6f 92       	push	r6
    6932:	7f 92       	push	r7
    6934:	8f 92       	push	r8
    6936:	9f 92       	push	r9
    6938:	af 92       	push	r10
    693a:	bf 92       	push	r11
    693c:	cf 92       	push	r12
    693e:	df 92       	push	r13
    6940:	ef 92       	push	r14
    6942:	ff 92       	push	r15
    6944:	0f 93       	push	r16
    6946:	1f 93       	push	r17
    6948:	cf 93       	push	r28
    694a:	df 93       	push	r29
    694c:	cd b7       	in	r28, 0x3d	; 61
    694e:	de b7       	in	r29, 0x3e	; 62
    6950:	60 97       	sbiw	r28, 0x10	; 16
    6952:	0f b6       	in	r0, 0x3f	; 63
    6954:	f8 94       	cli
    6956:	de bf       	out	0x3e, r29	; 62
    6958:	0f be       	out	0x3f, r0	; 63
    695a:	cd bf       	out	0x3d, r28	; 61
    695c:	2a 01       	movw	r4, r20
    695e:	3b 01       	movw	r6, r22
	uint32_t	tExit,tMeasure,tMeasureResult,tMeasureTotal,tMeasureCount;
	int			xi,yi,xf,yf,
				x,y;
	uint8_t		pColor=0;

	DrawTitle(titleString);
    6960:	f7 db       	rcall	.-2066   	; 0x6150 <_Z9DrawTitlePKc>

	time.SetElapsed(&tExit);
    6962:	be 01       	movw	r22, r28
    6964:	6b 5f       	subi	r22, 0xFB	; 251
    6966:	7f 4f       	sbci	r23, 0xFF	; 255
    6968:	85 e3       	ldi	r24, 0x35	; 53
    696a:	94 e0       	ldi	r25, 0x04	; 4
    696c:	0e 94 3d 41 	call	0x827a	; 0x827a <_ZN10class_Time10SetElapsedEPm>

	//get window position
	dp.GetWindow(xi,yi,xf,yf);
    6970:	8e 01       	movw	r16, r28
    6972:	07 5f       	subi	r16, 0xF7	; 247
    6974:	1f 4f       	sbci	r17, 0xFF	; 255
    6976:	9e 01       	movw	r18, r28
    6978:	25 5f       	subi	r18, 0xF5	; 245
    697a:	3f 4f       	sbci	r19, 0xFF	; 255
    697c:	ae 01       	movw	r20, r28
    697e:	43 5f       	subi	r20, 0xF3	; 243
    6980:	5f 4f       	sbci	r21, 0xFF	; 255
    6982:	be 01       	movw	r22, r28
    6984:	61 5f       	subi	r22, 0xF1	; 241
    6986:	7f 4f       	sbci	r23, 0xFF	; 255
    6988:	8c e3       	ldi	r24, 0x3C	; 60
    698a:	94 e0       	ldi	r25, 0x04	; 4
    698c:	0e 94 32 2b 	call	0x5664	; 0x5664 <_ZN23class_T6963C_Drive_V1419GetWindowERiS0_S0_S0_>

	//clear timers
	time.SetElapsed(&tExit);
    6990:	be 01       	movw	r22, r28
    6992:	6b 5f       	subi	r22, 0xFB	; 251
    6994:	7f 4f       	sbci	r23, 0xFF	; 255
    6996:	85 e3       	ldi	r24, 0x35	; 53
    6998:	94 e0       	ldi	r25, 0x04	; 4
    699a:	0e 94 3d 41 	call	0x827a	; 0x827a <_ZN10class_Time10SetElapsedEPm>
	
	//main loop
	tMeasureTotal=0;
	tMeasureCount=0;
    699e:	c1 2c       	mov	r12, r1
    69a0:	d1 2c       	mov	r13, r1
    69a2:	76 01       	movw	r14, r12

	//clear timers
	time.SetElapsed(&tExit);
	
	//main loop
	tMeasureTotal=0;
    69a4:	81 2c       	mov	r8, r1
    69a6:	91 2c       	mov	r9, r1
    69a8:	54 01       	movw	r10, r8
	tMeasureCount=0;
	for(;;)
	{
		//Compute random points range from xi..xf,yi..yf
		x=rnd(xi,xf);
    69aa:	6b 85       	ldd	r22, Y+11	; 0x0b
    69ac:	7c 85       	ldd	r23, Y+12	; 0x0c
    69ae:	8f 85       	ldd	r24, Y+15	; 0x0f
    69b0:	98 89       	ldd	r25, Y+16	; 0x10
    69b2:	8c da       	rcall	.-2792   	; 0x5ecc <_Z3rndii>
    69b4:	8c 01       	movw	r16, r24
		y=rnd(yi,yf);
    69b6:	69 85       	ldd	r22, Y+9	; 0x09
    69b8:	7a 85       	ldd	r23, Y+10	; 0x0a
    69ba:	8d 85       	ldd	r24, Y+13	; 0x0d
    69bc:	9e 85       	ldd	r25, Y+14	; 0x0e
    69be:	86 da       	rcall	.-2804   	; 0x5ecc <_Z3rndii>
    69c0:	1c 01       	movw	r2, r24
		//set time line measure
		time.SetElapsed(&tMeasure);
    69c2:	be 01       	movw	r22, r28
    69c4:	6f 5f       	subi	r22, 0xFF	; 255
    69c6:	7f 4f       	sbci	r23, 0xFF	; 255
    69c8:	85 e3       	ldi	r24, 0x35	; 53
    69ca:	94 e0       	ldi	r25, 0x04	; 4
    69cc:	0e 94 3d 41 	call	0x827a	; 0x827a <_ZN10class_Time10SetElapsedEPm>
		//draw line
		dp.DrawLineTo(x,y,(pColor&1)?Pen::Black:Pen::White);
    69d0:	c0 fe       	sbrs	r12, 0
    69d2:	03 c0       	rjmp	.+6      	; 0x69da <_Z21Demo_Line_PerformancePKcm+0xb2>
    69d4:	2f ef       	ldi	r18, 0xFF	; 255
    69d6:	30 e0       	ldi	r19, 0x00	; 0
    69d8:	02 c0       	rjmp	.+4      	; 0x69de <_Z21Demo_Line_PerformancePKcm+0xb6>
    69da:	20 e0       	ldi	r18, 0x00	; 0
    69dc:	30 e0       	ldi	r19, 0x00	; 0
    69de:	a1 01       	movw	r20, r2
    69e0:	b8 01       	movw	r22, r16
    69e2:	8c e3       	ldi	r24, 0x3C	; 60
    69e4:	94 e0       	ldi	r25, 0x04	; 4
    69e6:	0e 94 f7 1e 	call	0x3dee	; 0x3dee <_ZN16class_GraphBasic10DrawLineToEii9_enum_Pen>
		//compute time
		tMeasureResult=time.GetElapsed(&tMeasure);
    69ea:	be 01       	movw	r22, r28
    69ec:	6f 5f       	subi	r22, 0xFF	; 255
    69ee:	7f 4f       	sbci	r23, 0xFF	; 255
    69f0:	85 e3       	ldi	r24, 0x35	; 53
    69f2:	94 e0       	ldi	r25, 0x04	; 4
    69f4:	0e 94 48 41 	call	0x8290	; 0x8290 <_ZN10class_Time10GetElapsedEPm>
		tMeasureTotal+=tMeasureResult;
    69f8:	86 0e       	add	r8, r22
    69fa:	97 1e       	adc	r9, r23
    69fc:	a8 1e       	adc	r10, r24
    69fe:	b9 1e       	adc	r11, r25
		tMeasureCount++;
    6a00:	8f ef       	ldi	r24, 0xFF	; 255
    6a02:	c8 1a       	sub	r12, r24
    6a04:	d8 0a       	sbc	r13, r24
    6a06:	e8 0a       	sbc	r14, r24
    6a08:	f8 0a       	sbc	r15, r24
		//new pen
		pColor++;
		//check if time to exit
		if (time.GetElapsed(&tExit)>timeToExit) break;
    6a0a:	be 01       	movw	r22, r28
    6a0c:	6b 5f       	subi	r22, 0xFB	; 251
    6a0e:	7f 4f       	sbci	r23, 0xFF	; 255
    6a10:	85 e3       	ldi	r24, 0x35	; 53
    6a12:	94 e0       	ldi	r25, 0x04	; 4
    6a14:	0e 94 48 41 	call	0x8290	; 0x8290 <_ZN10class_Time10GetElapsedEPm>
    6a18:	46 16       	cp	r4, r22
    6a1a:	57 06       	cpc	r5, r23
    6a1c:	68 06       	cpc	r6, r24
    6a1e:	79 06       	cpc	r7, r25
    6a20:	20 f6       	brcc	.-120    	; 0x69aa <_Z21Demo_Line_PerformancePKcm+0x82>
	}
	//print results
	dp.ClsGraph();
    6a22:	8c e3       	ldi	r24, 0x3C	; 60
    6a24:	94 e0       	ldi	r25, 0x04	; 4
    6a26:	0e 94 21 28 	call	0x5042	; 0x5042 <_ZN23class_T6963C_Drive_V1418ClsGraphEv>
	dp.LocateXY(8,yi+8);
    6a2a:	4d 85       	ldd	r20, Y+13	; 0x0d
    6a2c:	5e 85       	ldd	r21, Y+14	; 0x0e
    6a2e:	48 5f       	subi	r20, 0xF8	; 248
    6a30:	5f 4f       	sbci	r21, 0xFF	; 255
    6a32:	68 e0       	ldi	r22, 0x08	; 8
    6a34:	70 e0       	ldi	r23, 0x00	; 0
    6a36:	8c e3       	ldi	r24, 0x3C	; 60
    6a38:	94 e0       	ldi	r25, 0x04	; 4
    6a3a:	0e 94 e5 25 	call	0x4bca	; 0x4bca <_ZN23class_T6963C_Drive_V1418LocateXYEii>
			  //12345678901234567890
	sprintf(bf,"%lu Lines/Sec",1000/(tMeasureTotal/tMeasureCount));
    6a3e:	c5 01       	movw	r24, r10
    6a40:	b4 01       	movw	r22, r8
    6a42:	a7 01       	movw	r20, r14
    6a44:	96 01       	movw	r18, r12
    6a46:	0e 94 a9 41 	call	0x8352	; 0x8352 <__udivmodsi4>
    6a4a:	68 ee       	ldi	r22, 0xE8	; 232
    6a4c:	73 e0       	ldi	r23, 0x03	; 3
    6a4e:	80 e0       	ldi	r24, 0x00	; 0
    6a50:	90 e0       	ldi	r25, 0x00	; 0
    6a52:	0e 94 a9 41 	call	0x8352	; 0x8352 <__udivmodsi4>
    6a56:	5f 93       	push	r21
    6a58:	4f 93       	push	r20
    6a5a:	3f 93       	push	r19
    6a5c:	2f 93       	push	r18
    6a5e:	83 eb       	ldi	r24, 0xB3	; 179
    6a60:	92 e0       	ldi	r25, 0x02	; 2
    6a62:	9f 93       	push	r25
    6a64:	8f 93       	push	r24
    6a66:	88 e0       	ldi	r24, 0x08	; 8
    6a68:	93 e0       	ldi	r25, 0x03	; 3
    6a6a:	9f 93       	push	r25
    6a6c:	8f 93       	push	r24
    6a6e:	0e 94 6b 42 	call	0x84d6	; 0x84d6 <sprintf>
	//dp.GPutS(bf);
	DrawGTextCentered(bf,false);
    6a72:	60 e0       	ldi	r22, 0x00	; 0
    6a74:	88 e0       	ldi	r24, 0x08	; 8
    6a76:	93 e0       	ldi	r25, 0x03	; 3
    6a78:	61 da       	rcall	.-2878   	; 0x5f3c <_Z17DrawGTextCenteredPKcb>
	time.DelayMillisByInterrupt(timeToExit/5);
    6a7a:	c3 01       	movw	r24, r6
    6a7c:	b2 01       	movw	r22, r4
    6a7e:	25 e0       	ldi	r18, 0x05	; 5
    6a80:	30 e0       	ldi	r19, 0x00	; 0
    6a82:	40 e0       	ldi	r20, 0x00	; 0
    6a84:	50 e0       	ldi	r21, 0x00	; 0
    6a86:	0e 94 a9 41 	call	0x8352	; 0x8352 <__udivmodsi4>
    6a8a:	ba 01       	movw	r22, r20
    6a8c:	a9 01       	movw	r20, r18
    6a8e:	85 e3       	ldi	r24, 0x35	; 53
    6a90:	94 e0       	ldi	r25, 0x04	; 4
    6a92:	0e 94 5b 41 	call	0x82b6	; 0x82b6 <_ZN10class_Time22DelayMillisByInterruptEm>
    6a96:	0f b6       	in	r0, 0x3f	; 63
    6a98:	f8 94       	cli
    6a9a:	de bf       	out	0x3e, r29	; 62
    6a9c:	0f be       	out	0x3f, r0	; 63
    6a9e:	cd bf       	out	0x3d, r28	; 61
}
    6aa0:	60 96       	adiw	r28, 0x10	; 16
    6aa2:	0f b6       	in	r0, 0x3f	; 63
    6aa4:	f8 94       	cli
    6aa6:	de bf       	out	0x3e, r29	; 62
    6aa8:	0f be       	out	0x3f, r0	; 63
    6aaa:	cd bf       	out	0x3d, r28	; 61
    6aac:	df 91       	pop	r29
    6aae:	cf 91       	pop	r28
    6ab0:	1f 91       	pop	r17
    6ab2:	0f 91       	pop	r16
    6ab4:	ff 90       	pop	r15
    6ab6:	ef 90       	pop	r14
    6ab8:	df 90       	pop	r13
    6aba:	cf 90       	pop	r12
    6abc:	bf 90       	pop	r11
    6abe:	af 90       	pop	r10
    6ac0:	9f 90       	pop	r9
    6ac2:	8f 90       	pop	r8
    6ac4:	7f 90       	pop	r7
    6ac6:	6f 90       	pop	r6
    6ac8:	5f 90       	pop	r5
    6aca:	4f 90       	pop	r4
    6acc:	3f 90       	pop	r3
    6ace:	2f 90       	pop	r2
    6ad0:	08 95       	ret

00006ad2 <_Z17Demo_Box_PatternsPKcm>:
/////////////////////////////////////////////////////
//  BOX PATTERNS
/////////////////////////////////////////////////////
void Demo_Box_Patterns(const char *titleString,uint32_t timeToExit)
{
    6ad2:	2f 92       	push	r2
    6ad4:	3f 92       	push	r3
    6ad6:	4f 92       	push	r4
    6ad8:	5f 92       	push	r5
    6ada:	6f 92       	push	r6
    6adc:	7f 92       	push	r7
    6ade:	8f 92       	push	r8
    6ae0:	9f 92       	push	r9
    6ae2:	af 92       	push	r10
    6ae4:	bf 92       	push	r11
    6ae6:	cf 92       	push	r12
    6ae8:	df 92       	push	r13
    6aea:	ef 92       	push	r14
    6aec:	ff 92       	push	r15
    6aee:	0f 93       	push	r16
    6af0:	1f 93       	push	r17
    6af2:	cf 93       	push	r28
    6af4:	df 93       	push	r29
    6af6:	cd b7       	in	r28, 0x3d	; 61
    6af8:	de b7       	in	r29, 0x3e	; 62
    6afa:	69 97       	sbiw	r28, 0x19	; 25
    6afc:	0f b6       	in	r0, 0x3f	; 63
    6afe:	f8 94       	cli
    6b00:	de bf       	out	0x3e, r29	; 62
    6b02:	0f be       	out	0x3f, r0	; 63
    6b04:	cd bf       	out	0x3d, r28	; 61
    6b06:	1a 01       	movw	r2, r20
    6b08:	2b 01       	movw	r4, r22
				w,h;
	_T6963C_Pattern	sPat;
	uint8_t sPats;
	DrawMode dm;

	DrawTitle(titleString);
    6b0a:	22 db       	rcall	.-2492   	; 0x6150 <_Z9DrawTitlePKc>

	time.SetElapsed(&tExit);
    6b0c:	be 01       	movw	r22, r28
    6b0e:	67 5f       	subi	r22, 0xF7	; 247
    6b10:	7f 4f       	sbci	r23, 0xFF	; 255
    6b12:	85 e3       	ldi	r24, 0x35	; 53
    6b14:	94 e0       	ldi	r25, 0x04	; 4
    6b16:	0e 94 3d 41 	call	0x827a	; 0x827a <_ZN10class_Time10SetElapsedEPm>

	//get window position
	dp.GetWindow(xi,yi,xf,yf);
    6b1a:	8e 01       	movw	r16, r28
    6b1c:	03 5f       	subi	r16, 0xF3	; 243
    6b1e:	1f 4f       	sbci	r17, 0xFF	; 255
    6b20:	9e 01       	movw	r18, r28
    6b22:	21 5f       	subi	r18, 0xF1	; 241
    6b24:	3f 4f       	sbci	r19, 0xFF	; 255
    6b26:	ae 01       	movw	r20, r28
    6b28:	4f 5e       	subi	r20, 0xEF	; 239
    6b2a:	5f 4f       	sbci	r21, 0xFF	; 255
    6b2c:	be 01       	movw	r22, r28
    6b2e:	6d 5e       	subi	r22, 0xED	; 237
    6b30:	7f 4f       	sbci	r23, 0xFF	; 255
    6b32:	8c e3       	ldi	r24, 0x3C	; 60
    6b34:	94 e0       	ldi	r25, 0x04	; 4
    6b36:	0e 94 32 2b 	call	0x5664	; 0x5664 <_ZN23class_T6963C_Drive_V1419GetWindowERiS0_S0_S0_>

	//compute Width and Height for boxes
	w=(xf-xi)/3;
    6b3a:	8f 85       	ldd	r24, Y+15	; 0x0f
    6b3c:	98 89       	ldd	r25, Y+16	; 0x10
    6b3e:	2b 89       	ldd	r18, Y+19	; 0x13
    6b40:	3c 89       	ldd	r19, Y+20	; 0x14
    6b42:	82 1b       	sub	r24, r18
    6b44:	93 0b       	sbc	r25, r19
    6b46:	23 e0       	ldi	r18, 0x03	; 3
    6b48:	30 e0       	ldi	r19, 0x00	; 0
    6b4a:	b9 01       	movw	r22, r18
    6b4c:	0e 94 96 41 	call	0x832c	; 0x832c <__divmodhi4>
    6b50:	7e 8b       	std	Y+22, r23	; 0x16
    6b52:	6d 8b       	std	Y+21, r22	; 0x15
	h=(yf-yi)/3;
    6b54:	8d 85       	ldd	r24, Y+13	; 0x0d
    6b56:	9e 85       	ldd	r25, Y+14	; 0x0e
    6b58:	49 89       	ldd	r20, Y+17	; 0x11
    6b5a:	5a 89       	ldd	r21, Y+18	; 0x12
    6b5c:	84 1b       	sub	r24, r20
    6b5e:	95 0b       	sbc	r25, r21
    6b60:	b9 01       	movw	r22, r18
    6b62:	0e 94 96 41 	call	0x832c	; 0x832c <__divmodhi4>
    6b66:	3b 01       	movw	r6, r22
	//Save Pattern
	dp.GetDrawPattern(sPat);
    6b68:	be 01       	movw	r22, r28
    6b6a:	6f 5f       	subi	r22, 0xFF	; 255
    6b6c:	7f 4f       	sbci	r23, 0xFF	; 255
    6b6e:	8c e3       	ldi	r24, 0x3C	; 60
    6b70:	94 e0       	ldi	r25, 0x04	; 4
    6b72:	0e 94 a0 27 	call	0x4f40	; 0x4f40 <_ZN23class_T6963C_Drive_V14114GetDrawPatternER15_T6963C_Pattern>
    6b76:	80 91 3e 04 	lds	r24, 0x043E
    6b7a:	90 91 3f 04 	lds	r25, 0x043F
    6b7e:	99 8f       	std	Y+25, r25	; 0x19
    6b80:	88 8f       	std	Y+24, r24	; 0x18
    6b82:	82 e0       	ldi	r24, 0x02	; 2
    6b84:	90 e0       	ldi	r25, 0x00	; 0
    6b86:	90 93 3f 04 	sts	0x043F, r25
    6b8a:	80 93 3e 04 	sts	0x043E, r24
    6b8e:	a1 2c       	mov	r10, r1
    6b90:	b1 2c       	mov	r11, r1
	//save Drawmode
	dm=dp.GetDrawMode();
	dp.SetDrawMode(DrawMode::PATTERN);
	sPats=static_cast<uint8_t>(_T6963C_Patterns::EMPYT);
    6b92:	d1 2c       	mov	r13, r1
    6b94:	93 e0       	ldi	r25, 0x03	; 3
    6b96:	9d 0d       	add	r25, r13
    6b98:	9f 8b       	std	Y+23, r25	; 0x17
	for(int y=0;y<3;y++)
	{
		for(int x=0;x<3;x++)
		{
			dp.SetDrawPatternType(static_cast<_T6963C_Patterns>(sPats));
			dp.DrawBox(x*w+xi+2,y*h+yi+2,x*w+xi+w-2,y*h+yi+h-2,Pen::Black);
    6b9a:	81 2c       	mov	r8, r1
    6b9c:	91 2c       	mov	r9, r1
	//draw Boxes
	for(int y=0;y<3;y++)
	{
		for(int x=0;x<3;x++)
		{
			dp.SetDrawPatternType(static_cast<_T6963C_Patterns>(sPats));
    6b9e:	6d 2d       	mov	r22, r13
    6ba0:	70 e0       	ldi	r23, 0x00	; 0
    6ba2:	8c e3       	ldi	r24, 0x3C	; 60
    6ba4:	94 e0       	ldi	r25, 0x04	; 4
    6ba6:	0e 94 e6 27 	call	0x4fcc	; 0x4fcc <_ZN23class_T6963C_Drive_V14118SetDrawPatternTypeE21_enum_T6963C_patterns>
			dp.DrawBox(x*w+xi+2,y*h+yi+2,x*w+xi+w-2,y*h+yi+h-2,Pen::Black);
    6baa:	49 89       	ldd	r20, Y+17	; 0x11
    6bac:	5a 89       	ldd	r21, Y+18	; 0x12
    6bae:	4a 0d       	add	r20, r10
    6bb0:	5b 1d       	adc	r21, r11
    6bb2:	6b 89       	ldd	r22, Y+19	; 0x13
    6bb4:	7c 89       	ldd	r23, Y+20	; 0x14
    6bb6:	68 0d       	add	r22, r8
    6bb8:	79 1d       	adc	r23, r9
    6bba:	8a 01       	movw	r16, r20
    6bbc:	06 0d       	add	r16, r6
    6bbe:	17 1d       	adc	r17, r7
    6bc0:	02 50       	subi	r16, 0x02	; 2
    6bc2:	11 09       	sbc	r17, r1
    6bc4:	2d 89       	ldd	r18, Y+21	; 0x15
    6bc6:	3e 89       	ldd	r19, Y+22	; 0x16
    6bc8:	26 0f       	add	r18, r22
    6bca:	37 1f       	adc	r19, r23
    6bcc:	22 50       	subi	r18, 0x02	; 2
    6bce:	31 09       	sbc	r19, r1
    6bd0:	4e 5f       	subi	r20, 0xFE	; 254
    6bd2:	5f 4f       	sbci	r21, 0xFF	; 255
    6bd4:	6e 5f       	subi	r22, 0xFE	; 254
    6bd6:	7f 4f       	sbci	r23, 0xFF	; 255
    6bd8:	cc 24       	eor	r12, r12
    6bda:	c3 94       	inc	r12
    6bdc:	ee 24       	eor	r14, r14
    6bde:	ea 94       	dec	r14
    6be0:	f1 2c       	mov	r15, r1
    6be2:	8c e3       	ldi	r24, 0x3C	; 60
    6be4:	94 e0       	ldi	r25, 0x04	; 4
    6be6:	0e 94 54 1e 	call	0x3ca8	; 0x3ca8 <_ZN16class_GraphBasic7DrawBoxEiiii9_enum_Penb>
			sPats++;
    6bea:	d3 94       	inc	r13
    6bec:	8d 89       	ldd	r24, Y+21	; 0x15
    6bee:	9e 89       	ldd	r25, Y+22	; 0x16
    6bf0:	88 0e       	add	r8, r24
    6bf2:	99 1e       	adc	r9, r25
	dp.SetDrawMode(DrawMode::PATTERN);
	sPats=static_cast<uint8_t>(_T6963C_Patterns::EMPYT);
	//draw Boxes
	for(int y=0;y<3;y++)
	{
		for(int x=0;x<3;x++)
    6bf4:	9f 89       	ldd	r25, Y+23	; 0x17
    6bf6:	d9 12       	cpse	r13, r25
    6bf8:	d2 cf       	rjmp	.-92     	; 0x6b9e <_Z17Demo_Box_PatternsPKcm+0xcc>
    6bfa:	a6 0c       	add	r10, r6
    6bfc:	b7 1c       	adc	r11, r7
	//save Drawmode
	dm=dp.GetDrawMode();
	dp.SetDrawMode(DrawMode::PATTERN);
	sPats=static_cast<uint8_t>(_T6963C_Patterns::EMPYT);
	//draw Boxes
	for(int y=0;y<3;y++)
    6bfe:	89 e0       	ldi	r24, 0x09	; 9
    6c00:	d8 12       	cpse	r13, r24
    6c02:	c8 cf       	rjmp	.-112    	; 0x6b94 <_Z17Demo_Box_PatternsPKcm+0xc2>
			dp.DrawBox(x*w+xi+2,y*h+yi+2,x*w+xi+w-2,y*h+yi+h-2,Pen::Black);
			sPats++;
		}
	}
	//restore pattern
	dp.SetDrawPattern(sPat);
    6c04:	09 81       	ldd	r16, Y+1	; 0x01
    6c06:	1a 81       	ldd	r17, Y+2	; 0x02
    6c08:	2b 81       	ldd	r18, Y+3	; 0x03
    6c0a:	3c 81       	ldd	r19, Y+4	; 0x04
    6c0c:	4d 81       	ldd	r20, Y+5	; 0x05
    6c0e:	5e 81       	ldd	r21, Y+6	; 0x06
    6c10:	6f 81       	ldd	r22, Y+7	; 0x07
    6c12:	78 85       	ldd	r23, Y+8	; 0x08
    6c14:	8c e3       	ldi	r24, 0x3C	; 60
    6c16:	94 e0       	ldi	r25, 0x04	; 4
    6c18:	0e 94 b2 27 	call	0x4f64	; 0x4f64 <_ZN23class_T6963C_Drive_V14114SetDrawPatternE15_T6963C_Pattern>
    6c1c:	88 8d       	ldd	r24, Y+24	; 0x18
    6c1e:	99 8d       	ldd	r25, Y+25	; 0x19
    6c20:	90 93 3f 04 	sts	0x043F, r25
    6c24:	80 93 3e 04 	sts	0x043E, r24
	//restore Draw Mode
	dp.SetDrawMode(dm);
	//wait show time
	time.DelayMillisByInterrupt(timeToExit);
    6c28:	b2 01       	movw	r22, r4
    6c2a:	a1 01       	movw	r20, r2
    6c2c:	85 e3       	ldi	r24, 0x35	; 53
    6c2e:	94 e0       	ldi	r25, 0x04	; 4
    6c30:	0e 94 5b 41 	call	0x82b6	; 0x82b6 <_ZN10class_Time22DelayMillisByInterruptEm>
}
    6c34:	69 96       	adiw	r28, 0x19	; 25
    6c36:	0f b6       	in	r0, 0x3f	; 63
    6c38:	f8 94       	cli
    6c3a:	de bf       	out	0x3e, r29	; 62
    6c3c:	0f be       	out	0x3f, r0	; 63
    6c3e:	cd bf       	out	0x3d, r28	; 61
    6c40:	df 91       	pop	r29
    6c42:	cf 91       	pop	r28
    6c44:	1f 91       	pop	r17
    6c46:	0f 91       	pop	r16
    6c48:	ff 90       	pop	r15
    6c4a:	ef 90       	pop	r14
    6c4c:	df 90       	pop	r13
    6c4e:	cf 90       	pop	r12
    6c50:	bf 90       	pop	r11
    6c52:	af 90       	pop	r10
    6c54:	9f 90       	pop	r9
    6c56:	8f 90       	pop	r8
    6c58:	7f 90       	pop	r7
    6c5a:	6f 90       	pop	r6
    6c5c:	5f 90       	pop	r5
    6c5e:	4f 90       	pop	r4
    6c60:	3f 90       	pop	r3
    6c62:	2f 90       	pop	r2
    6c64:	08 95       	ret

00006c66 <_Z20Demo_Circle_PatternsPKcmb>:
/////////////////////////////////////////////////////
//  CIRCLE PATTERNS
/////////////////////////////////////////////////////
void Demo_Circle_Patterns(const char *titleString,uint32_t timeToExit,bool ellipse=false)
{
    6c66:	2f 92       	push	r2
    6c68:	3f 92       	push	r3
    6c6a:	4f 92       	push	r4
    6c6c:	5f 92       	push	r5
    6c6e:	6f 92       	push	r6
    6c70:	7f 92       	push	r7
    6c72:	8f 92       	push	r8
    6c74:	9f 92       	push	r9
    6c76:	af 92       	push	r10
    6c78:	bf 92       	push	r11
    6c7a:	cf 92       	push	r12
    6c7c:	df 92       	push	r13
    6c7e:	ef 92       	push	r14
    6c80:	ff 92       	push	r15
    6c82:	0f 93       	push	r16
    6c84:	1f 93       	push	r17
    6c86:	cf 93       	push	r28
    6c88:	df 93       	push	r29
    6c8a:	cd b7       	in	r28, 0x3d	; 61
    6c8c:	de b7       	in	r29, 0x3e	; 62
    6c8e:	a1 97       	sbiw	r28, 0x21	; 33
    6c90:	0f b6       	in	r0, 0x3f	; 63
    6c92:	f8 94       	cli
    6c94:	de bf       	out	0x3e, r29	; 62
    6c96:	0f be       	out	0x3f, r0	; 63
    6c98:	cd bf       	out	0x3d, r28	; 61
    6c9a:	4e 8f       	std	Y+30, r20	; 0x1e
    6c9c:	5f 8f       	std	Y+31, r21	; 0x1f
    6c9e:	68 a3       	std	Y+32, r22	; 0x20
    6ca0:	79 a3       	std	Y+33, r23	; 0x21
    6ca2:	b2 2e       	mov	r11, r18
				w,h;
	_T6963C_Pattern	sPat;
	uint8_t sPats;
	DrawMode dm;

	DrawTitle(titleString);
    6ca4:	55 da       	rcall	.-2902   	; 0x6150 <_Z9DrawTitlePKc>

	time.SetElapsed(&tExit);
    6ca6:	be 01       	movw	r22, r28
    6ca8:	67 5f       	subi	r22, 0xF7	; 247
    6caa:	7f 4f       	sbci	r23, 0xFF	; 255
    6cac:	85 e3       	ldi	r24, 0x35	; 53
    6cae:	94 e0       	ldi	r25, 0x04	; 4
    6cb0:	0e 94 3d 41 	call	0x827a	; 0x827a <_ZN10class_Time10SetElapsedEPm>

	//get window position
	dp.GetWindow(xi,yi,xf,yf);
    6cb4:	8e 01       	movw	r16, r28
    6cb6:	03 5f       	subi	r16, 0xF3	; 243
    6cb8:	1f 4f       	sbci	r17, 0xFF	; 255
    6cba:	9e 01       	movw	r18, r28
    6cbc:	21 5f       	subi	r18, 0xF1	; 241
    6cbe:	3f 4f       	sbci	r19, 0xFF	; 255
    6cc0:	ae 01       	movw	r20, r28
    6cc2:	4f 5e       	subi	r20, 0xEF	; 239
    6cc4:	5f 4f       	sbci	r21, 0xFF	; 255
    6cc6:	be 01       	movw	r22, r28
    6cc8:	6d 5e       	subi	r22, 0xED	; 237
    6cca:	7f 4f       	sbci	r23, 0xFF	; 255
    6ccc:	8c e3       	ldi	r24, 0x3C	; 60
    6cce:	94 e0       	ldi	r25, 0x04	; 4
    6cd0:	0e 94 32 2b 	call	0x5664	; 0x5664 <_ZN23class_T6963C_Drive_V1419GetWindowERiS0_S0_S0_>

	//compute Width and Height for boxes
	w=(xf-xi)/3;
    6cd4:	8f 85       	ldd	r24, Y+15	; 0x0f
    6cd6:	98 89       	ldd	r25, Y+16	; 0x10
    6cd8:	2b 89       	ldd	r18, Y+19	; 0x13
    6cda:	3c 89       	ldd	r19, Y+20	; 0x14
    6cdc:	82 1b       	sub	r24, r18
    6cde:	93 0b       	sbc	r25, r19
    6ce0:	23 e0       	ldi	r18, 0x03	; 3
    6ce2:	30 e0       	ldi	r19, 0x00	; 0
    6ce4:	b9 01       	movw	r22, r18
    6ce6:	0e 94 96 41 	call	0x832c	; 0x832c <__divmodhi4>
    6cea:	4b 01       	movw	r8, r22
	h=(yf-yi)/3;
    6cec:	8d 85       	ldd	r24, Y+13	; 0x0d
    6cee:	9e 85       	ldd	r25, Y+14	; 0x0e
    6cf0:	49 89       	ldd	r20, Y+17	; 0x11
    6cf2:	5a 89       	ldd	r21, Y+18	; 0x12
    6cf4:	84 1b       	sub	r24, r20
    6cf6:	95 0b       	sbc	r25, r21
    6cf8:	b9 01       	movw	r22, r18
    6cfa:	0e 94 96 41 	call	0x832c	; 0x832c <__divmodhi4>
    6cfe:	3b 01       	movw	r6, r22
	//Save Pattern
	dp.GetDrawPattern(sPat);
    6d00:	be 01       	movw	r22, r28
    6d02:	6f 5f       	subi	r22, 0xFF	; 255
    6d04:	7f 4f       	sbci	r23, 0xFF	; 255
    6d06:	8c e3       	ldi	r24, 0x3C	; 60
    6d08:	94 e0       	ldi	r25, 0x04	; 4
    6d0a:	0e 94 a0 27 	call	0x4f40	; 0x4f40 <_ZN23class_T6963C_Drive_V14114GetDrawPatternER15_T6963C_Pattern>
    6d0e:	20 91 3e 04 	lds	r18, 0x043E
    6d12:	30 91 3f 04 	lds	r19, 0x043F
    6d16:	3c 8f       	std	Y+28, r19	; 0x1c
    6d18:	2b 8f       	std	Y+27, r18	; 0x1b
    6d1a:	82 e0       	ldi	r24, 0x02	; 2
    6d1c:	90 e0       	ldi	r25, 0x00	; 0
    6d1e:	90 93 3f 04 	sts	0x043F, r25
    6d22:	80 93 3e 04 	sts	0x043E, r24
		for(int x=0;x<3;x++)
		{
			dp.SetDrawPatternType(static_cast<_T6963C_Patterns>(sPats));
			if (ellipse)
			{
				dp.DrawEllipse(x*w+w/2+xi+2,y*h+h/2+yi+2,rnd(1,w/2),rnd(1,h/2),Pen::Black);
    6d26:	c3 01       	movw	r24, r6
    6d28:	77 fc       	sbrc	r7, 7
    6d2a:	01 96       	adiw	r24, 0x01	; 1
    6d2c:	9c 01       	movw	r18, r24
    6d2e:	35 95       	asr	r19
    6d30:	27 95       	ror	r18
    6d32:	3e 8b       	std	Y+22, r19	; 0x16
    6d34:	2d 8b       	std	Y+21, r18	; 0x15
    6d36:	c4 01       	movw	r24, r8
    6d38:	97 fc       	sbrc	r9, 7
    6d3a:	01 96       	adiw	r24, 0x01	; 1
    6d3c:	9c 01       	movw	r18, r24
    6d3e:	35 95       	asr	r19
    6d40:	27 95       	ror	r18
    6d42:	38 8f       	std	Y+24, r19	; 0x18
    6d44:	2f 8b       	std	Y+23, r18	; 0x17
    6d46:	2d 88       	ldd	r2, Y+21	; 0x15
    6d48:	3e 88       	ldd	r3, Y+22	; 0x16
    6d4a:	68 14       	cp	r6, r8
    6d4c:	79 04       	cpc	r7, r9
    6d4e:	2c f4       	brge	.+10     	; 0x6d5a <_Z20Demo_Circle_PatternsPKcmb+0xf4>
			}
			else
			{
				dp.DrawCircle(x*w+w/2+xi+2,y*h+h/2+yi+2,((w>h)?h:w)/2-1,Pen::Black);
    6d50:	c1 01       	movw	r24, r2
    6d52:	01 97       	sbiw	r24, 0x01	; 1
    6d54:	9a 8f       	std	Y+26, r25	; 0x1a
    6d56:	89 8f       	std	Y+25, r24	; 0x19
    6d58:	06 c0       	rjmp	.+12     	; 0x6d66 <_Z20Demo_Circle_PatternsPKcmb+0x100>
    6d5a:	2f 89       	ldd	r18, Y+23	; 0x17
    6d5c:	38 8d       	ldd	r19, Y+24	; 0x18
    6d5e:	21 50       	subi	r18, 0x01	; 1
    6d60:	31 09       	sbc	r19, r1
    6d62:	3a 8f       	std	Y+26, r19	; 0x1a
    6d64:	29 8f       	std	Y+25, r18	; 0x19
	//Save Pattern
	dp.GetDrawPattern(sPat);
	//save Drawmode
	dm=dp.GetDrawMode();
	dp.SetDrawMode(DrawMode::PATTERN);
	sPats=static_cast<uint8_t>(_T6963C_Patterns::EMPYT);
    6d66:	d1 2c       	mov	r13, r1
    6d68:	93 e0       	ldi	r25, 0x03	; 3
    6d6a:	9d 0d       	add	r25, r13
    6d6c:	9d 8f       	std	Y+29, r25	; 0x1d
}
/////////////////////////////////////////////////////
//  CIRCLE PATTERNS
/////////////////////////////////////////////////////
void Demo_Circle_Patterns(const char *titleString,uint32_t timeToExit,bool ellipse=false)
{
    6d6e:	4f 88       	ldd	r4, Y+23	; 0x17
    6d70:	58 8c       	ldd	r5, Y+24	; 0x18
	//draw Boxes
	for(int y=0;y<3;y++)
	{
		for(int x=0;x<3;x++)
		{
			dp.SetDrawPatternType(static_cast<_T6963C_Patterns>(sPats));
    6d72:	6d 2d       	mov	r22, r13
    6d74:	70 e0       	ldi	r23, 0x00	; 0
    6d76:	8c e3       	ldi	r24, 0x3C	; 60
    6d78:	94 e0       	ldi	r25, 0x04	; 4
    6d7a:	0e 94 e6 27 	call	0x4fcc	; 0x4fcc <_ZN23class_T6963C_Drive_V14118SetDrawPatternTypeE21_enum_T6963C_patterns>
			if (ellipse)
    6d7e:	bb 20       	and	r11, r11
    6d80:	21 f1       	breq	.+72     	; 0x6dca <_Z20Demo_Circle_PatternsPKcmb+0x164>
			{
				dp.DrawEllipse(x*w+w/2+xi+2,y*h+h/2+yi+2,rnd(1,w/2),rnd(1,h/2),Pen::Black);
    6d82:	6d 89       	ldd	r22, Y+21	; 0x15
    6d84:	7e 89       	ldd	r23, Y+22	; 0x16
    6d86:	81 e0       	ldi	r24, 0x01	; 1
    6d88:	90 e0       	ldi	r25, 0x00	; 0
    6d8a:	a0 d8       	rcall	.-3776   	; 0x5ecc <_Z3rndii>
    6d8c:	8c 01       	movw	r16, r24
    6d8e:	6f 89       	ldd	r22, Y+23	; 0x17
    6d90:	78 8d       	ldd	r23, Y+24	; 0x18
    6d92:	81 e0       	ldi	r24, 0x01	; 1
    6d94:	90 e0       	ldi	r25, 0x00	; 0
    6d96:	9a d8       	rcall	.-3788   	; 0x5ecc <_Z3rndii>
    6d98:	49 89       	ldd	r20, Y+17	; 0x11
    6d9a:	5a 89       	ldd	r21, Y+18	; 0x12
    6d9c:	42 0d       	add	r20, r2
    6d9e:	53 1d       	adc	r21, r3
    6da0:	4e 5f       	subi	r20, 0xFE	; 254
    6da2:	5f 4f       	sbci	r21, 0xFF	; 255
    6da4:	6b 89       	ldd	r22, Y+19	; 0x13
    6da6:	7c 89       	ldd	r23, Y+20	; 0x14
    6da8:	64 0d       	add	r22, r4
    6daa:	75 1d       	adc	r23, r5
    6dac:	6e 5f       	subi	r22, 0xFE	; 254
    6dae:	7f 4f       	sbci	r23, 0xFF	; 255
    6db0:	aa 24       	eor	r10, r10
    6db2:	a3 94       	inc	r10
    6db4:	cc 24       	eor	r12, r12
    6db6:	c3 94       	inc	r12
    6db8:	ee 24       	eor	r14, r14
    6dba:	ea 94       	dec	r14
    6dbc:	f1 2c       	mov	r15, r1
    6dbe:	9c 01       	movw	r18, r24
    6dc0:	8c e3       	ldi	r24, 0x3C	; 60
    6dc2:	94 e0       	ldi	r25, 0x04	; 4
    6dc4:	0e 94 62 21 	call	0x42c4	; 0x42c4 <_ZN16class_GraphBasic11DrawEllipseEiiii9_enum_Penhb>
    6dc8:	18 c0       	rjmp	.+48     	; 0x6dfa <_Z20Demo_Circle_PatternsPKcmb+0x194>
			}
			else
			{
				dp.DrawCircle(x*w+w/2+xi+2,y*h+h/2+yi+2,((w>h)?h:w)/2-1,Pen::Black);
    6dca:	49 89       	ldd	r20, Y+17	; 0x11
    6dcc:	5a 89       	ldd	r21, Y+18	; 0x12
    6dce:	42 0d       	add	r20, r2
    6dd0:	53 1d       	adc	r21, r3
    6dd2:	4e 5f       	subi	r20, 0xFE	; 254
    6dd4:	5f 4f       	sbci	r21, 0xFF	; 255
    6dd6:	6b 89       	ldd	r22, Y+19	; 0x13
    6dd8:	7c 89       	ldd	r23, Y+20	; 0x14
    6dda:	64 0d       	add	r22, r4
    6ddc:	75 1d       	adc	r23, r5
    6dde:	6e 5f       	subi	r22, 0xFE	; 254
    6de0:	7f 4f       	sbci	r23, 0xFF	; 255
    6de2:	cc 24       	eor	r12, r12
    6de4:	c3 94       	inc	r12
    6de6:	ee 24       	eor	r14, r14
    6de8:	e3 94       	inc	r14
    6dea:	0f ef       	ldi	r16, 0xFF	; 255
    6dec:	10 e0       	ldi	r17, 0x00	; 0
    6dee:	29 8d       	ldd	r18, Y+25	; 0x19
    6df0:	3a 8d       	ldd	r19, Y+26	; 0x1a
    6df2:	8c e3       	ldi	r24, 0x3C	; 60
    6df4:	94 e0       	ldi	r25, 0x04	; 4
    6df6:	0e 94 bb 21 	call	0x4376	; 0x4376 <_ZN16class_GraphBasic10DrawCircleEiii9_enum_Penhb>
			}
			
			sPats++;
    6dfa:	d3 94       	inc	r13
    6dfc:	48 0c       	add	r4, r8
    6dfe:	59 1c       	adc	r5, r9
	dp.SetDrawMode(DrawMode::PATTERN);
	sPats=static_cast<uint8_t>(_T6963C_Patterns::EMPYT);
	//draw Boxes
	for(int y=0;y<3;y++)
	{
		for(int x=0;x<3;x++)
    6e00:	3d 8d       	ldd	r19, Y+29	; 0x1d
    6e02:	d3 12       	cpse	r13, r19
    6e04:	b6 cf       	rjmp	.-148    	; 0x6d72 <_Z20Demo_Circle_PatternsPKcmb+0x10c>
    6e06:	26 0c       	add	r2, r6
    6e08:	37 1c       	adc	r3, r7
	//save Drawmode
	dm=dp.GetDrawMode();
	dp.SetDrawMode(DrawMode::PATTERN);
	sPats=static_cast<uint8_t>(_T6963C_Patterns::EMPYT);
	//draw Boxes
	for(int y=0;y<3;y++)
    6e0a:	89 e0       	ldi	r24, 0x09	; 9
    6e0c:	d8 12       	cpse	r13, r24
    6e0e:	ac cf       	rjmp	.-168    	; 0x6d68 <_Z20Demo_Circle_PatternsPKcmb+0x102>
			
			sPats++;
		}
	}
	//restore pattern
	dp.SetDrawPattern(sPat);
    6e10:	09 81       	ldd	r16, Y+1	; 0x01
    6e12:	1a 81       	ldd	r17, Y+2	; 0x02
    6e14:	2b 81       	ldd	r18, Y+3	; 0x03
    6e16:	3c 81       	ldd	r19, Y+4	; 0x04
    6e18:	4d 81       	ldd	r20, Y+5	; 0x05
    6e1a:	5e 81       	ldd	r21, Y+6	; 0x06
    6e1c:	6f 81       	ldd	r22, Y+7	; 0x07
    6e1e:	78 85       	ldd	r23, Y+8	; 0x08
    6e20:	8c e3       	ldi	r24, 0x3C	; 60
    6e22:	94 e0       	ldi	r25, 0x04	; 4
    6e24:	0e 94 b2 27 	call	0x4f64	; 0x4f64 <_ZN23class_T6963C_Drive_V14114SetDrawPatternE15_T6963C_Pattern>
    6e28:	2b 8d       	ldd	r18, Y+27	; 0x1b
    6e2a:	3c 8d       	ldd	r19, Y+28	; 0x1c
    6e2c:	30 93 3f 04 	sts	0x043F, r19
    6e30:	20 93 3e 04 	sts	0x043E, r18
	//restore Draw Mode
	dp.SetDrawMode(dm);
	//wait show time
	time.DelayMillisByInterrupt(timeToExit);
    6e34:	4e 8d       	ldd	r20, Y+30	; 0x1e
    6e36:	5f 8d       	ldd	r21, Y+31	; 0x1f
    6e38:	68 a1       	ldd	r22, Y+32	; 0x20
    6e3a:	79 a1       	ldd	r23, Y+33	; 0x21
    6e3c:	85 e3       	ldi	r24, 0x35	; 53
    6e3e:	94 e0       	ldi	r25, 0x04	; 4
    6e40:	0e 94 5b 41 	call	0x82b6	; 0x82b6 <_ZN10class_Time22DelayMillisByInterruptEm>
}
    6e44:	a1 96       	adiw	r28, 0x21	; 33
    6e46:	0f b6       	in	r0, 0x3f	; 63
    6e48:	f8 94       	cli
    6e4a:	de bf       	out	0x3e, r29	; 62
    6e4c:	0f be       	out	0x3f, r0	; 63
    6e4e:	cd bf       	out	0x3d, r28	; 61
    6e50:	df 91       	pop	r29
    6e52:	cf 91       	pop	r28
    6e54:	1f 91       	pop	r17
    6e56:	0f 91       	pop	r16
    6e58:	ff 90       	pop	r15
    6e5a:	ef 90       	pop	r14
    6e5c:	df 90       	pop	r13
    6e5e:	cf 90       	pop	r12
    6e60:	bf 90       	pop	r11
    6e62:	af 90       	pop	r10
    6e64:	9f 90       	pop	r9
    6e66:	8f 90       	pop	r8
    6e68:	7f 90       	pop	r7
    6e6a:	6f 90       	pop	r6
    6e6c:	5f 90       	pop	r5
    6e6e:	4f 90       	pop	r4
    6e70:	3f 90       	pop	r3
    6e72:	2f 90       	pop	r2
    6e74:	08 95       	ret

00006e76 <_Z17Demo_Draw_BitMapsPKcm>:
/////////////////////////////////////////////////////
//  DRAW BITMAPS
/////////////////////////////////////////////////////
void Demo_Draw_BitMaps(const char *titleString,uint32_t timeToExit)
{
    6e76:	8f 92       	push	r8
    6e78:	9f 92       	push	r9
    6e7a:	af 92       	push	r10
    6e7c:	bf 92       	push	r11
    6e7e:	cf 92       	push	r12
    6e80:	df 92       	push	r13
    6e82:	ef 92       	push	r14
    6e84:	ff 92       	push	r15
    6e86:	0f 93       	push	r16
    6e88:	1f 93       	push	r17
    6e8a:	cf 93       	push	r28
    6e8c:	df 93       	push	r29
    6e8e:	cd b7       	in	r28, 0x3d	; 61
    6e90:	de b7       	in	r29, 0x3e	; 62
    6e92:	2c 97       	sbiw	r28, 0x0c	; 12
    6e94:	0f b6       	in	r0, 0x3f	; 63
    6e96:	f8 94       	cli
    6e98:	de bf       	out	0x3e, r29	; 62
    6e9a:	0f be       	out	0x3f, r0	; 63
    6e9c:	cd bf       	out	0x3d, r28	; 61
    6e9e:	4a 01       	movw	r8, r20
    6ea0:	5b 01       	movw	r10, r22
	uint32_t	tExit;
	int			xi,yi,xf,yf,
				w,h;

	DrawTitle(titleString);
    6ea2:	56 d9       	rcall	.-3412   	; 0x6150 <_Z9DrawTitlePKc>

	time.SetElapsed(&tExit);
    6ea4:	be 01       	movw	r22, r28
    6ea6:	6f 5f       	subi	r22, 0xFF	; 255
    6ea8:	7f 4f       	sbci	r23, 0xFF	; 255
    6eaa:	85 e3       	ldi	r24, 0x35	; 53
    6eac:	94 e0       	ldi	r25, 0x04	; 4
    6eae:	0e 94 3d 41 	call	0x827a	; 0x827a <_ZN10class_Time10SetElapsedEPm>

	//get window position
	dp.GetWindow(xi,yi,xf,yf);
    6eb2:	8e 01       	movw	r16, r28
    6eb4:	0b 5f       	subi	r16, 0xFB	; 251
    6eb6:	1f 4f       	sbci	r17, 0xFF	; 255
    6eb8:	9e 01       	movw	r18, r28
    6eba:	29 5f       	subi	r18, 0xF9	; 249
    6ebc:	3f 4f       	sbci	r19, 0xFF	; 255
    6ebe:	ae 01       	movw	r20, r28
    6ec0:	47 5f       	subi	r20, 0xF7	; 247
    6ec2:	5f 4f       	sbci	r21, 0xFF	; 255
    6ec4:	be 01       	movw	r22, r28
    6ec6:	65 5f       	subi	r22, 0xF5	; 245
    6ec8:	7f 4f       	sbci	r23, 0xFF	; 255
    6eca:	8c e3       	ldi	r24, 0x3C	; 60
    6ecc:	94 e0       	ldi	r25, 0x04	; 4
    6ece:	0e 94 32 2b 	call	0x5664	; 0x5664 <_ZN23class_T6963C_Drive_V1419GetWindowERiS0_S0_S0_>

	//compute Width and Height for boxes
	w=(xf-xi)/3;
    6ed2:	eb 85       	ldd	r30, Y+11	; 0x0b
    6ed4:	fc 85       	ldd	r31, Y+12	; 0x0c
    6ed6:	8f 81       	ldd	r24, Y+7	; 0x07
    6ed8:	98 85       	ldd	r25, Y+8	; 0x08
    6eda:	8e 1b       	sub	r24, r30
    6edc:	9f 0b       	sbc	r25, r31
    6ede:	63 e0       	ldi	r22, 0x03	; 3
    6ee0:	70 e0       	ldi	r23, 0x00	; 0
    6ee2:	0e 94 96 41 	call	0x832c	; 0x832c <__divmodhi4>
    6ee6:	7b 01       	movw	r14, r22
	h=(yf-yi)/2;
    6ee8:	49 85       	ldd	r20, Y+9	; 0x09
    6eea:	5a 85       	ldd	r21, Y+10	; 0x0a
    6eec:	8d 81       	ldd	r24, Y+5	; 0x05
    6eee:	9e 81       	ldd	r25, Y+6	; 0x06
    6ef0:	84 1b       	sub	r24, r20
    6ef2:	95 0b       	sbc	r25, r21
    6ef4:	97 fd       	sbrc	r25, 7
    6ef6:	01 96       	adiw	r24, 0x01	; 1
    6ef8:	8c 01       	movw	r16, r24
    6efa:	15 95       	asr	r17
    6efc:	07 95       	ror	r16

	//draw bmps
	dp.DrawBitMap(xi,yi,BMP_mario_bros);
    6efe:	2d e2       	ldi	r18, 0x2D	; 45
    6f00:	30 e1       	ldi	r19, 0x10	; 16
    6f02:	bf 01       	movw	r22, r30
    6f04:	8c e3       	ldi	r24, 0x3C	; 60
    6f06:	94 e0       	ldi	r25, 0x04	; 4
    6f08:	0e 94 80 2b 	call	0x5700	; 0x5700 <_ZN23class_T6963C_Drive_V14110DrawBitMapEiiPKh>
	dp.DrawBitMap(xi+w,yi,BMP_Sonic);
    6f0c:	49 85       	ldd	r20, Y+9	; 0x09
    6f0e:	5a 85       	ldd	r21, Y+10	; 0x0a
    6f10:	6b 85       	ldd	r22, Y+11	; 0x0b
    6f12:	7c 85       	ldd	r23, Y+12	; 0x0c
    6f14:	6e 0d       	add	r22, r14
    6f16:	7f 1d       	adc	r23, r15
    6f18:	2f ed       	ldi	r18, 0xDF	; 223
    6f1a:	3e e0       	ldi	r19, 0x0E	; 14
    6f1c:	8c e3       	ldi	r24, 0x3C	; 60
    6f1e:	94 e0       	ldi	r25, 0x04	; 4
    6f20:	0e 94 80 2b 	call	0x5700	; 0x5700 <_ZN23class_T6963C_Drive_V14110DrawBitMapEiiPKh>
	dp.DrawBitMap(xi+2*w,yi,BMP_GATO);
    6f24:	67 01       	movw	r12, r14
    6f26:	cc 0c       	add	r12, r12
    6f28:	dd 1c       	adc	r13, r13
    6f2a:	49 85       	ldd	r20, Y+9	; 0x09
    6f2c:	5a 85       	ldd	r21, Y+10	; 0x0a
    6f2e:	6b 85       	ldd	r22, Y+11	; 0x0b
    6f30:	7c 85       	ldd	r23, Y+12	; 0x0c
    6f32:	6c 0d       	add	r22, r12
    6f34:	7d 1d       	adc	r23, r13
    6f36:	21 e9       	ldi	r18, 0x91	; 145
    6f38:	3d e0       	ldi	r19, 0x0D	; 13
    6f3a:	8c e3       	ldi	r24, 0x3C	; 60
    6f3c:	94 e0       	ldi	r25, 0x04	; 4
    6f3e:	0e 94 80 2b 	call	0x5700	; 0x5700 <_ZN23class_T6963C_Drive_V14110DrawBitMapEiiPKh>
	dp.DrawBitMap(xi,yi+h,BMP_et);
    6f42:	49 85       	ldd	r20, Y+9	; 0x09
    6f44:	5a 85       	ldd	r21, Y+10	; 0x0a
    6f46:	40 0f       	add	r20, r16
    6f48:	51 1f       	adc	r21, r17
    6f4a:	6b 85       	ldd	r22, Y+11	; 0x0b
    6f4c:	7c 85       	ldd	r23, Y+12	; 0x0c
    6f4e:	23 e4       	ldi	r18, 0x43	; 67
    6f50:	3c e0       	ldi	r19, 0x0C	; 12
    6f52:	8c e3       	ldi	r24, 0x3C	; 60
    6f54:	94 e0       	ldi	r25, 0x04	; 4
    6f56:	0e 94 80 2b 	call	0x5700	; 0x5700 <_ZN23class_T6963C_Drive_V14110DrawBitMapEiiPKh>
	dp.DrawBitMap(xi+w,yi+h,BMP_AVR);
    6f5a:	49 85       	ldd	r20, Y+9	; 0x09
    6f5c:	5a 85       	ldd	r21, Y+10	; 0x0a
    6f5e:	40 0f       	add	r20, r16
    6f60:	51 1f       	adc	r21, r17
    6f62:	6b 85       	ldd	r22, Y+11	; 0x0b
    6f64:	7c 85       	ldd	r23, Y+12	; 0x0c
    6f66:	6e 0d       	add	r22, r14
    6f68:	7f 1d       	adc	r23, r15
    6f6a:	25 ef       	ldi	r18, 0xF5	; 245
    6f6c:	3a e0       	ldi	r19, 0x0A	; 10
    6f6e:	8c e3       	ldi	r24, 0x3C	; 60
    6f70:	94 e0       	ldi	r25, 0x04	; 4
    6f72:	0e 94 80 2b 	call	0x5700	; 0x5700 <_ZN23class_T6963C_Drive_V14110DrawBitMapEiiPKh>
	dp.DrawBitMap(xi+2*w,yi+h,BMP_guarda_chuva);
    6f76:	49 85       	ldd	r20, Y+9	; 0x09
    6f78:	5a 85       	ldd	r21, Y+10	; 0x0a
    6f7a:	40 0f       	add	r20, r16
    6f7c:	51 1f       	adc	r21, r17
    6f7e:	6b 85       	ldd	r22, Y+11	; 0x0b
    6f80:	7c 85       	ldd	r23, Y+12	; 0x0c
    6f82:	6c 0d       	add	r22, r12
    6f84:	7d 1d       	adc	r23, r13
    6f86:	27 ea       	ldi	r18, 0xA7	; 167
    6f88:	39 e0       	ldi	r19, 0x09	; 9
    6f8a:	8c e3       	ldi	r24, 0x3C	; 60
    6f8c:	94 e0       	ldi	r25, 0x04	; 4
    6f8e:	0e 94 80 2b 	call	0x5700	; 0x5700 <_ZN23class_T6963C_Drive_V14110DrawBitMapEiiPKh>
	//wait show time
	time.DelayMillisByInterrupt(timeToExit);
    6f92:	b5 01       	movw	r22, r10
    6f94:	a4 01       	movw	r20, r8
    6f96:	85 e3       	ldi	r24, 0x35	; 53
    6f98:	94 e0       	ldi	r25, 0x04	; 4
    6f9a:	0e 94 5b 41 	call	0x82b6	; 0x82b6 <_ZN10class_Time22DelayMillisByInterruptEm>
}
    6f9e:	2c 96       	adiw	r28, 0x0c	; 12
    6fa0:	0f b6       	in	r0, 0x3f	; 63
    6fa2:	f8 94       	cli
    6fa4:	de bf       	out	0x3e, r29	; 62
    6fa6:	0f be       	out	0x3f, r0	; 63
    6fa8:	cd bf       	out	0x3d, r28	; 61
    6faa:	df 91       	pop	r29
    6fac:	cf 91       	pop	r28
    6fae:	1f 91       	pop	r17
    6fb0:	0f 91       	pop	r16
    6fb2:	ff 90       	pop	r15
    6fb4:	ef 90       	pop	r14
    6fb6:	df 90       	pop	r13
    6fb8:	cf 90       	pop	r12
    6fba:	bf 90       	pop	r11
    6fbc:	af 90       	pop	r10
    6fbe:	9f 90       	pop	r9
    6fc0:	8f 90       	pop	r8
    6fc2:	08 95       	ret

00006fc4 <_Z20Demo_Box_PerformancePKcmb>:

/////////////////////////////////////////////////////
//  BOX PERFORMANCE
/////////////////////////////////////////////////////
void Demo_Box_Performance(const char *titleString,uint32_t timeToExit,bool border=true)
{
    6fc4:	2f 92       	push	r2
    6fc6:	3f 92       	push	r3
    6fc8:	4f 92       	push	r4
    6fca:	5f 92       	push	r5
    6fcc:	6f 92       	push	r6
    6fce:	7f 92       	push	r7
    6fd0:	8f 92       	push	r8
    6fd2:	9f 92       	push	r9
    6fd4:	af 92       	push	r10
    6fd6:	bf 92       	push	r11
    6fd8:	cf 92       	push	r12
    6fda:	df 92       	push	r13
    6fdc:	ef 92       	push	r14
    6fde:	ff 92       	push	r15
    6fe0:	0f 93       	push	r16
    6fe2:	1f 93       	push	r17
    6fe4:	cf 93       	push	r28
    6fe6:	df 93       	push	r29
    6fe8:	cd b7       	in	r28, 0x3d	; 61
    6fea:	de b7       	in	r29, 0x3e	; 62
    6fec:	6c 97       	sbiw	r28, 0x1c	; 28
    6fee:	0f b6       	in	r0, 0x3f	; 63
    6ff0:	f8 94       	cli
    6ff2:	de bf       	out	0x3e, r29	; 62
    6ff4:	0f be       	out	0x3f, r0	; 63
    6ff6:	cd bf       	out	0x3d, r28	; 61
    6ff8:	49 8b       	std	Y+17, r20	; 0x11
    6ffa:	5a 8b       	std	Y+18, r21	; 0x12
    6ffc:	6b 8b       	std	Y+19, r22	; 0x13
    6ffe:	7c 8b       	std	Y+20, r23	; 0x14
    7000:	d2 2e       	mov	r13, r18
	int			xi,yi,xf,yf,
				x0,y0,x1,y1;
	_T6963C_Patterns pat;
	DrawMode dm;

	DrawTitle(titleString);
    7002:	a6 d8       	rcall	.-3764   	; 0x6150 <_Z9DrawTitlePKc>

	time.SetElapsed(&tExit);
    7004:	1e 01       	movw	r2, r28
    7006:	25 e0       	ldi	r18, 0x05	; 5
    7008:	22 0e       	add	r2, r18
    700a:	31 1c       	adc	r3, r1
    700c:	b1 01       	movw	r22, r2
    700e:	85 e3       	ldi	r24, 0x35	; 53
    7010:	94 e0       	ldi	r25, 0x04	; 4
    7012:	0e 94 3d 41 	call	0x827a	; 0x827a <_ZN10class_Time10SetElapsedEPm>

	//get window position
	dp.GetWindow(xi,yi,xf,yf);
    7016:	8e 01       	movw	r16, r28
    7018:	07 5f       	subi	r16, 0xF7	; 247
    701a:	1f 4f       	sbci	r17, 0xFF	; 255
    701c:	9e 01       	movw	r18, r28
    701e:	25 5f       	subi	r18, 0xF5	; 245
    7020:	3f 4f       	sbci	r19, 0xFF	; 255
    7022:	ae 01       	movw	r20, r28
    7024:	43 5f       	subi	r20, 0xF3	; 243
    7026:	5f 4f       	sbci	r21, 0xFF	; 255
    7028:	be 01       	movw	r22, r28
    702a:	61 5f       	subi	r22, 0xF1	; 241
    702c:	7f 4f       	sbci	r23, 0xFF	; 255
    702e:	8c e3       	ldi	r24, 0x3C	; 60
    7030:	94 e0       	ldi	r25, 0x04	; 4
    7032:	0e 94 32 2b 	call	0x5664	; 0x5664 <_ZN23class_T6963C_Drive_V1419GetWindowERiS0_S0_S0_>
    7036:	40 91 3e 04 	lds	r20, 0x043E
    703a:	50 91 3f 04 	lds	r21, 0x043F
    703e:	5e 8b       	std	Y+22, r21	; 0x16
    7040:	4d 8b       	std	Y+21, r20	; 0x15
    7042:	82 e0       	ldi	r24, 0x02	; 2
    7044:	90 e0       	ldi	r25, 0x00	; 0
    7046:	90 93 3f 04 	sts	0x043F, r25
    704a:	80 93 3e 04 	sts	0x043E, r24
	dm=dp.GetDrawMode();
	//save pattern type
	//Set Draw Pattern
	dp.SetDrawMode(DrawMode::PATTERN);
	//clear timers
	time.SetElapsed(&tExit);
    704e:	b1 01       	movw	r22, r2
    7050:	85 e3       	ldi	r24, 0x35	; 53
    7052:	94 e0       	ldi	r25, 0x04	; 4
    7054:	0e 94 3d 41 	call	0x827a	; 0x827a <_ZN10class_Time10SetElapsedEPm>
	
	//main loop
	tMeasureTotal=0;
	tMeasureCount=0;
    7058:	81 2c       	mov	r8, r1
    705a:	91 2c       	mov	r9, r1
    705c:	54 01       	movw	r10, r8
	dp.SetDrawMode(DrawMode::PATTERN);
	//clear timers
	time.SetElapsed(&tExit);
	
	//main loop
	tMeasureTotal=0;
    705e:	41 2c       	mov	r4, r1
    7060:	51 2c       	mov	r5, r1
    7062:	32 01       	movw	r6, r4
		//compute time
		tMeasureResult=time.GetElapsed(&tMeasure);
		tMeasureTotal+=tMeasureResult;
		tMeasureCount++;
		//check if time to exit
		if (time.GetElapsed(&tExit)>timeToExit) break;
    7064:	2b 8e       	std	Y+27, r2	; 0x1b
    7066:	3c 8e       	std	Y+28, r3	; 0x1c
	tMeasureTotal=0;
	tMeasureCount=0;
	for(;;)
	{
		//Compute random points range from xi..xf,yi..yf
		x0=rnd(xi,xf);
    7068:	6b 85       	ldd	r22, Y+11	; 0x0b
    706a:	7c 85       	ldd	r23, Y+12	; 0x0c
    706c:	8f 85       	ldd	r24, Y+15	; 0x0f
    706e:	98 89       	ldd	r25, Y+16	; 0x10
    7070:	0e 94 66 2f 	call	0x5ecc	; 0x5ecc <_Z3rndii>
    7074:	98 8f       	std	Y+24, r25	; 0x18
    7076:	8f 8b       	std	Y+23, r24	; 0x17
		y0=rnd(yi,yf);
    7078:	69 85       	ldd	r22, Y+9	; 0x09
    707a:	7a 85       	ldd	r23, Y+10	; 0x0a
    707c:	8d 85       	ldd	r24, Y+13	; 0x0d
    707e:	9e 85       	ldd	r25, Y+14	; 0x0e
    7080:	0e 94 66 2f 	call	0x5ecc	; 0x5ecc <_Z3rndii>
    7084:	9a 8f       	std	Y+26, r25	; 0x1a
    7086:	89 8f       	std	Y+25, r24	; 0x19
		x1=rnd(xi,xf);
    7088:	6b 85       	ldd	r22, Y+11	; 0x0b
    708a:	7c 85       	ldd	r23, Y+12	; 0x0c
    708c:	8f 85       	ldd	r24, Y+15	; 0x0f
    708e:	98 89       	ldd	r25, Y+16	; 0x10
    7090:	0e 94 66 2f 	call	0x5ecc	; 0x5ecc <_Z3rndii>
    7094:	1c 01       	movw	r2, r24
		y1=rnd(yi,yf);
    7096:	69 85       	ldd	r22, Y+9	; 0x09
    7098:	7a 85       	ldd	r23, Y+10	; 0x0a
    709a:	8d 85       	ldd	r24, Y+13	; 0x0d
    709c:	9e 85       	ldd	r25, Y+14	; 0x0e
    709e:	0e 94 66 2f 	call	0x5ecc	; 0x5ecc <_Z3rndii>
    70a2:	8c 01       	movw	r16, r24
/////////////////////////////////////////////////////
//  COMPUTE RANDON NUMBER FROM START TO END
/////////////////////////////////////////////////////
int rnd(int startValue,int endValue)
{
	return rand() % (endValue-startValue+1)+startValue;
    70a4:	0e 94 54 42 	call	0x84a8	; 0x84a8 <rand>
    70a8:	6a e0       	ldi	r22, 0x0A	; 10
    70aa:	70 e0       	ldi	r23, 0x00	; 0
    70ac:	0e 94 96 41 	call	0x832c	; 0x832c <__divmodhi4>
		x0=rnd(xi,xf);
		y0=rnd(yi,yf);
		x1=rnd(xi,xf);
		y1=rnd(yi,yf);
		pat=static_cast<_T6963C_Patterns>(rnd(0,9));
		dp.SetDrawPatternType(pat);
    70b0:	bc 01       	movw	r22, r24
    70b2:	8c e3       	ldi	r24, 0x3C	; 60
    70b4:	94 e0       	ldi	r25, 0x04	; 4
    70b6:	0e 94 e6 27 	call	0x4fcc	; 0x4fcc <_ZN23class_T6963C_Drive_V14118SetDrawPatternTypeE21_enum_T6963C_patterns>
		//set time line measure
		time.SetElapsed(&tMeasure);
    70ba:	be 01       	movw	r22, r28
    70bc:	6f 5f       	subi	r22, 0xFF	; 255
    70be:	7f 4f       	sbci	r23, 0xFF	; 255
    70c0:	85 e3       	ldi	r24, 0x35	; 53
    70c2:	94 e0       	ldi	r25, 0x04	; 4
    70c4:	0e 94 3d 41 	call	0x827a	; 0x827a <_ZN10class_Time10SetElapsedEPm>
		//draw box
		dp.DrawBox(x0,y0,x1,y1,Pen::Black,border);
    70c8:	cd 2c       	mov	r12, r13
    70ca:	ee 24       	eor	r14, r14
    70cc:	ea 94       	dec	r14
    70ce:	f1 2c       	mov	r15, r1
    70d0:	91 01       	movw	r18, r2
    70d2:	49 8d       	ldd	r20, Y+25	; 0x19
    70d4:	5a 8d       	ldd	r21, Y+26	; 0x1a
    70d6:	6f 89       	ldd	r22, Y+23	; 0x17
    70d8:	78 8d       	ldd	r23, Y+24	; 0x18
    70da:	8c e3       	ldi	r24, 0x3C	; 60
    70dc:	94 e0       	ldi	r25, 0x04	; 4
    70de:	0e 94 54 1e 	call	0x3ca8	; 0x3ca8 <_ZN16class_GraphBasic7DrawBoxEiiii9_enum_Penb>
		//compute time
		tMeasureResult=time.GetElapsed(&tMeasure);
    70e2:	be 01       	movw	r22, r28
    70e4:	6f 5f       	subi	r22, 0xFF	; 255
    70e6:	7f 4f       	sbci	r23, 0xFF	; 255
    70e8:	85 e3       	ldi	r24, 0x35	; 53
    70ea:	94 e0       	ldi	r25, 0x04	; 4
    70ec:	0e 94 48 41 	call	0x8290	; 0x8290 <_ZN10class_Time10GetElapsedEPm>
		tMeasureTotal+=tMeasureResult;
    70f0:	46 0e       	add	r4, r22
    70f2:	57 1e       	adc	r5, r23
    70f4:	68 1e       	adc	r6, r24
    70f6:	79 1e       	adc	r7, r25
		tMeasureCount++;
    70f8:	5f ef       	ldi	r21, 0xFF	; 255
    70fa:	85 1a       	sub	r8, r21
    70fc:	95 0a       	sbc	r9, r21
    70fe:	a5 0a       	sbc	r10, r21
    7100:	b5 0a       	sbc	r11, r21
		//check if time to exit
		if (time.GetElapsed(&tExit)>timeToExit) break;
    7102:	6b 8d       	ldd	r22, Y+27	; 0x1b
    7104:	7c 8d       	ldd	r23, Y+28	; 0x1c
    7106:	85 e3       	ldi	r24, 0x35	; 53
    7108:	94 e0       	ldi	r25, 0x04	; 4
    710a:	0e 94 48 41 	call	0x8290	; 0x8290 <_ZN10class_Time10GetElapsedEPm>
    710e:	29 89       	ldd	r18, Y+17	; 0x11
    7110:	3a 89       	ldd	r19, Y+18	; 0x12
    7112:	4b 89       	ldd	r20, Y+19	; 0x13
    7114:	5c 89       	ldd	r21, Y+20	; 0x14
    7116:	26 17       	cp	r18, r22
    7118:	37 07       	cpc	r19, r23
    711a:	48 07       	cpc	r20, r24
    711c:	59 07       	cpc	r21, r25
    711e:	08 f0       	brcs	.+2      	; 0x7122 <_Z20Demo_Box_PerformancePKcmb+0x15e>
    7120:	a3 cf       	rjmp	.-186    	; 0x7068 <_Z20Demo_Box_PerformancePKcmb+0xa4>
	}
	//print results
	dp.ClsGraph();
    7122:	8c e3       	ldi	r24, 0x3C	; 60
    7124:	94 e0       	ldi	r25, 0x04	; 4
    7126:	0e 94 21 28 	call	0x5042	; 0x5042 <_ZN23class_T6963C_Drive_V1418ClsGraphEv>
	dp.LocateXY(8,yi+8);
    712a:	4d 85       	ldd	r20, Y+13	; 0x0d
    712c:	5e 85       	ldd	r21, Y+14	; 0x0e
    712e:	48 5f       	subi	r20, 0xF8	; 248
    7130:	5f 4f       	sbci	r21, 0xFF	; 255
    7132:	68 e0       	ldi	r22, 0x08	; 8
    7134:	70 e0       	ldi	r23, 0x00	; 0
    7136:	8c e3       	ldi	r24, 0x3C	; 60
    7138:	94 e0       	ldi	r25, 0x04	; 4
    713a:	0e 94 e5 25 	call	0x4bca	; 0x4bca <_ZN23class_T6963C_Drive_V1418LocateXYEii>
	//12345678901234567890
	sprintf(bf,"%lu Box/Sec",1000/(tMeasureTotal/tMeasureCount));
    713e:	c3 01       	movw	r24, r6
    7140:	b2 01       	movw	r22, r4
    7142:	a5 01       	movw	r20, r10
    7144:	94 01       	movw	r18, r8
    7146:	0e 94 a9 41 	call	0x8352	; 0x8352 <__udivmodsi4>
    714a:	68 ee       	ldi	r22, 0xE8	; 232
    714c:	73 e0       	ldi	r23, 0x03	; 3
    714e:	80 e0       	ldi	r24, 0x00	; 0
    7150:	90 e0       	ldi	r25, 0x00	; 0
    7152:	0e 94 a9 41 	call	0x8352	; 0x8352 <__udivmodsi4>
    7156:	5f 93       	push	r21
    7158:	4f 93       	push	r20
    715a:	3f 93       	push	r19
    715c:	2f 93       	push	r18
    715e:	81 ec       	ldi	r24, 0xC1	; 193
    7160:	92 e0       	ldi	r25, 0x02	; 2
    7162:	9f 93       	push	r25
    7164:	8f 93       	push	r24
    7166:	88 e0       	ldi	r24, 0x08	; 8
    7168:	93 e0       	ldi	r25, 0x03	; 3
    716a:	9f 93       	push	r25
    716c:	8f 93       	push	r24
    716e:	0e 94 6b 42 	call	0x84d6	; 0x84d6 <sprintf>
	//dp.GPutS(bf);
	DrawGTextCentered(bf,false);
    7172:	60 e0       	ldi	r22, 0x00	; 0
    7174:	88 e0       	ldi	r24, 0x08	; 8
    7176:	93 e0       	ldi	r25, 0x03	; 3
    7178:	0e 94 9e 2f 	call	0x5f3c	; 0x5f3c <_Z17DrawGTextCenteredPKcb>
    717c:	4d 89       	ldd	r20, Y+21	; 0x15
    717e:	5e 89       	ldd	r21, Y+22	; 0x16
    7180:	50 93 3f 04 	sts	0x043F, r21
    7184:	40 93 3e 04 	sts	0x043E, r20
	//set draw mode
	dp.SetDrawMode(dm);
	//little time to show results
	time.DelayMillisByInterrupt(timeToExit/5);
    7188:	69 89       	ldd	r22, Y+17	; 0x11
    718a:	7a 89       	ldd	r23, Y+18	; 0x12
    718c:	8b 89       	ldd	r24, Y+19	; 0x13
    718e:	9c 89       	ldd	r25, Y+20	; 0x14
    7190:	25 e0       	ldi	r18, 0x05	; 5
    7192:	30 e0       	ldi	r19, 0x00	; 0
    7194:	40 e0       	ldi	r20, 0x00	; 0
    7196:	50 e0       	ldi	r21, 0x00	; 0
    7198:	0e 94 a9 41 	call	0x8352	; 0x8352 <__udivmodsi4>
    719c:	ba 01       	movw	r22, r20
    719e:	a9 01       	movw	r20, r18
    71a0:	85 e3       	ldi	r24, 0x35	; 53
    71a2:	94 e0       	ldi	r25, 0x04	; 4
    71a4:	0e 94 5b 41 	call	0x82b6	; 0x82b6 <_ZN10class_Time22DelayMillisByInterruptEm>
    71a8:	0f b6       	in	r0, 0x3f	; 63
    71aa:	f8 94       	cli
    71ac:	de bf       	out	0x3e, r29	; 62
    71ae:	0f be       	out	0x3f, r0	; 63
    71b0:	cd bf       	out	0x3d, r28	; 61
}
    71b2:	6c 96       	adiw	r28, 0x1c	; 28
    71b4:	0f b6       	in	r0, 0x3f	; 63
    71b6:	f8 94       	cli
    71b8:	de bf       	out	0x3e, r29	; 62
    71ba:	0f be       	out	0x3f, r0	; 63
    71bc:	cd bf       	out	0x3d, r28	; 61
    71be:	df 91       	pop	r29
    71c0:	cf 91       	pop	r28
    71c2:	1f 91       	pop	r17
    71c4:	0f 91       	pop	r16
    71c6:	ff 90       	pop	r15
    71c8:	ef 90       	pop	r14
    71ca:	df 90       	pop	r13
    71cc:	cf 90       	pop	r12
    71ce:	bf 90       	pop	r11
    71d0:	af 90       	pop	r10
    71d2:	9f 90       	pop	r9
    71d4:	8f 90       	pop	r8
    71d6:	7f 90       	pop	r7
    71d8:	6f 90       	pop	r6
    71da:	5f 90       	pop	r5
    71dc:	4f 90       	pop	r4
    71de:	3f 90       	pop	r3
    71e0:	2f 90       	pop	r2
    71e2:	08 95       	ret

000071e4 <_Z23Demo_Circle_PerformancePKcmbb>:

/////////////////////////////////////////////////////
//  CIRCLE PERFORMANCE
/////////////////////////////////////////////////////
void Demo_Circle_Performance(const char *titleString,uint32_t timeToExit,bool border=true,bool ellipse=false)
{
    71e4:	2f 92       	push	r2
    71e6:	3f 92       	push	r3
    71e8:	4f 92       	push	r4
    71ea:	5f 92       	push	r5
    71ec:	6f 92       	push	r6
    71ee:	7f 92       	push	r7
    71f0:	8f 92       	push	r8
    71f2:	9f 92       	push	r9
    71f4:	af 92       	push	r10
    71f6:	bf 92       	push	r11
    71f8:	cf 92       	push	r12
    71fa:	df 92       	push	r13
    71fc:	ef 92       	push	r14
    71fe:	ff 92       	push	r15
    7200:	0f 93       	push	r16
    7202:	1f 93       	push	r17
    7204:	cf 93       	push	r28
    7206:	df 93       	push	r29
    7208:	cd b7       	in	r28, 0x3d	; 61
    720a:	de b7       	in	r29, 0x3e	; 62
    720c:	6e 97       	sbiw	r28, 0x1e	; 30
    720e:	0f b6       	in	r0, 0x3f	; 63
    7210:	f8 94       	cli
    7212:	de bf       	out	0x3e, r29	; 62
    7214:	0f be       	out	0x3f, r0	; 63
    7216:	cd bf       	out	0x3d, r28	; 61
    7218:	4f 8b       	std	Y+23, r20	; 0x17
    721a:	58 8f       	std	Y+24, r21	; 0x18
    721c:	69 8f       	std	Y+25, r22	; 0x19
    721e:	7a 8f       	std	Y+26, r23	; 0x1a
    7220:	d2 2e       	mov	r13, r18
    7222:	b0 2e       	mov	r11, r16
	int			xi,yi,xf,yf,
				x0,y0,r0,r1,r2;
	_T6963C_Patterns pat;
	DrawMode dm;

	DrawTitle(titleString);
    7224:	0e 94 a8 30 	call	0x6150	; 0x6150 <_Z9DrawTitlePKc>

	time.SetElapsed(&tExit);
    7228:	be 01       	movw	r22, r28
    722a:	6b 5f       	subi	r22, 0xFB	; 251
    722c:	7f 4f       	sbci	r23, 0xFF	; 255
    722e:	85 e3       	ldi	r24, 0x35	; 53
    7230:	94 e0       	ldi	r25, 0x04	; 4
    7232:	0e 94 3d 41 	call	0x827a	; 0x827a <_ZN10class_Time10SetElapsedEPm>

	//get window position
	dp.GetWindow(xi,yi,xf,yf);
    7236:	8e 01       	movw	r16, r28
    7238:	07 5f       	subi	r16, 0xF7	; 247
    723a:	1f 4f       	sbci	r17, 0xFF	; 255
    723c:	9e 01       	movw	r18, r28
    723e:	25 5f       	subi	r18, 0xF5	; 245
    7240:	3f 4f       	sbci	r19, 0xFF	; 255
    7242:	ae 01       	movw	r20, r28
    7244:	43 5f       	subi	r20, 0xF3	; 243
    7246:	5f 4f       	sbci	r21, 0xFF	; 255
    7248:	be 01       	movw	r22, r28
    724a:	61 5f       	subi	r22, 0xF1	; 241
    724c:	7f 4f       	sbci	r23, 0xFF	; 255
    724e:	8c e3       	ldi	r24, 0x3C	; 60
    7250:	94 e0       	ldi	r25, 0x04	; 4
    7252:	0e 94 32 2b 	call	0x5664	; 0x5664 <_ZN23class_T6963C_Drive_V1419GetWindowERiS0_S0_S0_>

	//max radious
	r0=(yf-yi)/2;
    7256:	89 85       	ldd	r24, Y+9	; 0x09
    7258:	9a 85       	ldd	r25, Y+10	; 0x0a
    725a:	2d 85       	ldd	r18, Y+13	; 0x0d
    725c:	3e 85       	ldd	r19, Y+14	; 0x0e
    725e:	82 1b       	sub	r24, r18
    7260:	93 0b       	sbc	r25, r19
    7262:	97 fd       	sbrc	r25, 7
    7264:	01 96       	adiw	r24, 0x01	; 1
    7266:	9c 01       	movw	r18, r24
    7268:	35 95       	asr	r19
    726a:	27 95       	ror	r18
    726c:	3e 8b       	std	Y+22, r19	; 0x16
    726e:	2d 8b       	std	Y+21, r18	; 0x15
    7270:	40 91 3e 04 	lds	r20, 0x043E
    7274:	50 91 3f 04 	lds	r21, 0x043F
    7278:	5c 8f       	std	Y+28, r21	; 0x1c
    727a:	4b 8f       	std	Y+27, r20	; 0x1b
    727c:	82 e0       	ldi	r24, 0x02	; 2
    727e:	90 e0       	ldi	r25, 0x00	; 0
    7280:	90 93 3f 04 	sts	0x043F, r25
    7284:	80 93 3e 04 	sts	0x043E, r24
	dm=dp.GetDrawMode();
	//save pattern type
	//Set Draw Pattern
	dp.SetDrawMode(DrawMode::PATTERN);
	//clear timers
	time.SetElapsed(&tExit);
    7288:	be 01       	movw	r22, r28
    728a:	6b 5f       	subi	r22, 0xFB	; 251
    728c:	7f 4f       	sbci	r23, 0xFF	; 255
    728e:	85 e3       	ldi	r24, 0x35	; 53
    7290:	94 e0       	ldi	r25, 0x04	; 4
    7292:	f3 d7       	rcall	.+4070   	; 0x827a <_ZN10class_Time10SetElapsedEPm>
	
	//main loop
	tMeasureTotal=0;
	tMeasureCount=0;
    7294:	41 2c       	mov	r4, r1
    7296:	51 2c       	mov	r5, r1
    7298:	32 01       	movw	r6, r4
	dp.SetDrawMode(DrawMode::PATTERN);
	//clear timers
	time.SetElapsed(&tExit);
	
	//main loop
	tMeasureTotal=0;
    729a:	19 8a       	std	Y+17, r1	; 0x11
    729c:	1a 8a       	std	Y+18, r1	; 0x12
    729e:	1b 8a       	std	Y+19, r1	; 0x13
    72a0:	1c 8a       	std	Y+20, r1	; 0x14
	tMeasureCount=0;
	for(;;)
	{
		//Compute random points range from xi..xf,yi..yf
		x0=rnd(xi,xf);
    72a2:	6b 85       	ldd	r22, Y+11	; 0x0b
    72a4:	7c 85       	ldd	r23, Y+12	; 0x0c
    72a6:	8f 85       	ldd	r24, Y+15	; 0x0f
    72a8:	98 89       	ldd	r25, Y+16	; 0x10
    72aa:	0e 94 66 2f 	call	0x5ecc	; 0x5ecc <_Z3rndii>
    72ae:	1c 01       	movw	r2, r24
		y0=rnd(yi,yf);
    72b0:	69 85       	ldd	r22, Y+9	; 0x09
    72b2:	7a 85       	ldd	r23, Y+10	; 0x0a
    72b4:	8d 85       	ldd	r24, Y+13	; 0x0d
    72b6:	9e 85       	ldd	r25, Y+14	; 0x0e
    72b8:	0e 94 66 2f 	call	0x5ecc	; 0x5ecc <_Z3rndii>
    72bc:	4c 01       	movw	r8, r24
		r1=rnd(1,r0);
    72be:	6d 89       	ldd	r22, Y+21	; 0x15
    72c0:	7e 89       	ldd	r23, Y+22	; 0x16
    72c2:	81 e0       	ldi	r24, 0x01	; 1
    72c4:	90 e0       	ldi	r25, 0x00	; 0
    72c6:	0e 94 66 2f 	call	0x5ecc	; 0x5ecc <_Z3rndii>
    72ca:	9c 01       	movw	r18, r24
		r2=rnd(1,r0);
    72cc:	6d 89       	ldd	r22, Y+21	; 0x15
    72ce:	7e 89       	ldd	r23, Y+22	; 0x16
    72d0:	81 e0       	ldi	r24, 0x01	; 1
    72d2:	90 e0       	ldi	r25, 0x00	; 0
    72d4:	2d 8f       	std	Y+29, r18	; 0x1d
    72d6:	3e 8f       	std	Y+30, r19	; 0x1e
    72d8:	0e 94 66 2f 	call	0x5ecc	; 0x5ecc <_Z3rndii>
    72dc:	8c 01       	movw	r16, r24
/////////////////////////////////////////////////////
//  COMPUTE RANDON NUMBER FROM START TO END
/////////////////////////////////////////////////////
int rnd(int startValue,int endValue)
{
	return rand() % (endValue-startValue+1)+startValue;
    72de:	0e 94 54 42 	call	0x84a8	; 0x84a8 <rand>
    72e2:	6a e0       	ldi	r22, 0x0A	; 10
    72e4:	70 e0       	ldi	r23, 0x00	; 0
    72e6:	0e 94 96 41 	call	0x832c	; 0x832c <__divmodhi4>
		x0=rnd(xi,xf);
		y0=rnd(yi,yf);
		r1=rnd(1,r0);
		r2=rnd(1,r0);
		pat=static_cast<_T6963C_Patterns>(rnd(0,9));
		dp.SetDrawPatternType(pat);
    72ea:	bc 01       	movw	r22, r24
    72ec:	8c e3       	ldi	r24, 0x3C	; 60
    72ee:	94 e0       	ldi	r25, 0x04	; 4
    72f0:	0e 94 e6 27 	call	0x4fcc	; 0x4fcc <_ZN23class_T6963C_Drive_V14118SetDrawPatternTypeE21_enum_T6963C_patterns>
		//set time line measure
		time.SetElapsed(&tMeasure);
    72f4:	be 01       	movw	r22, r28
    72f6:	6f 5f       	subi	r22, 0xFF	; 255
    72f8:	7f 4f       	sbci	r23, 0xFF	; 255
    72fa:	85 e3       	ldi	r24, 0x35	; 53
    72fc:	94 e0       	ldi	r25, 0x04	; 4
    72fe:	bd d7       	rcall	.+3962   	; 0x827a <_ZN10class_Time10SetElapsedEPm>
		//draw box
		if (ellipse)
    7300:	2d 8d       	ldd	r18, Y+29	; 0x1d
    7302:	3e 8d       	ldd	r19, Y+30	; 0x1e
    7304:	bb 20       	and	r11, r11
    7306:	69 f0       	breq	.+26     	; 0x7322 <_Z23Demo_Circle_PerformancePKcmbb+0x13e>
		{
			dp.DrawEllipse(x0,y0,r1,r2,Pen::Black,1,border);
    7308:	ad 2c       	mov	r10, r13
    730a:	cc 24       	eor	r12, r12
    730c:	c3 94       	inc	r12
    730e:	ee 24       	eor	r14, r14
    7310:	ea 94       	dec	r14
    7312:	f1 2c       	mov	r15, r1
    7314:	a4 01       	movw	r20, r8
    7316:	b1 01       	movw	r22, r2
    7318:	8c e3       	ldi	r24, 0x3C	; 60
    731a:	94 e0       	ldi	r25, 0x04	; 4
    731c:	0e 94 62 21 	call	0x42c4	; 0x42c4 <_ZN16class_GraphBasic11DrawEllipseEiiii9_enum_Penhb>
    7320:	0b c0       	rjmp	.+22     	; 0x7338 <_Z23Demo_Circle_PerformancePKcmbb+0x154>
		}
		else
		{
			dp.DrawCircle(x0,y0,r1,Pen::Black,1,border);
    7322:	cd 2c       	mov	r12, r13
    7324:	ee 24       	eor	r14, r14
    7326:	e3 94       	inc	r14
    7328:	0f ef       	ldi	r16, 0xFF	; 255
    732a:	10 e0       	ldi	r17, 0x00	; 0
    732c:	a4 01       	movw	r20, r8
    732e:	b1 01       	movw	r22, r2
    7330:	8c e3       	ldi	r24, 0x3C	; 60
    7332:	94 e0       	ldi	r25, 0x04	; 4
    7334:	0e 94 bb 21 	call	0x4376	; 0x4376 <_ZN16class_GraphBasic10DrawCircleEiii9_enum_Penhb>
		}
		
		//compute time
		tMeasureResult=time.GetElapsed(&tMeasure);
    7338:	be 01       	movw	r22, r28
    733a:	6f 5f       	subi	r22, 0xFF	; 255
    733c:	7f 4f       	sbci	r23, 0xFF	; 255
    733e:	85 e3       	ldi	r24, 0x35	; 53
    7340:	94 e0       	ldi	r25, 0x04	; 4
    7342:	a6 d7       	rcall	.+3916   	; 0x8290 <_ZN10class_Time10GetElapsedEPm>
		tMeasureTotal+=tMeasureResult;
    7344:	29 89       	ldd	r18, Y+17	; 0x11
    7346:	3a 89       	ldd	r19, Y+18	; 0x12
    7348:	4b 89       	ldd	r20, Y+19	; 0x13
    734a:	5c 89       	ldd	r21, Y+20	; 0x14
    734c:	26 0f       	add	r18, r22
    734e:	37 1f       	adc	r19, r23
    7350:	48 1f       	adc	r20, r24
    7352:	59 1f       	adc	r21, r25
    7354:	29 8b       	std	Y+17, r18	; 0x11
    7356:	3a 8b       	std	Y+18, r19	; 0x12
    7358:	4b 8b       	std	Y+19, r20	; 0x13
    735a:	5c 8b       	std	Y+20, r21	; 0x14
		tMeasureCount++;
    735c:	3f ef       	ldi	r19, 0xFF	; 255
    735e:	43 1a       	sub	r4, r19
    7360:	53 0a       	sbc	r5, r19
    7362:	63 0a       	sbc	r6, r19
    7364:	73 0a       	sbc	r7, r19
		//check if time to exit
		if (time.GetElapsed(&tExit)>timeToExit) break;
    7366:	be 01       	movw	r22, r28
    7368:	6b 5f       	subi	r22, 0xFB	; 251
    736a:	7f 4f       	sbci	r23, 0xFF	; 255
    736c:	85 e3       	ldi	r24, 0x35	; 53
    736e:	94 e0       	ldi	r25, 0x04	; 4
    7370:	8f d7       	rcall	.+3870   	; 0x8290 <_ZN10class_Time10GetElapsedEPm>
    7372:	2f 89       	ldd	r18, Y+23	; 0x17
    7374:	38 8d       	ldd	r19, Y+24	; 0x18
    7376:	49 8d       	ldd	r20, Y+25	; 0x19
    7378:	5a 8d       	ldd	r21, Y+26	; 0x1a
    737a:	26 17       	cp	r18, r22
    737c:	37 07       	cpc	r19, r23
    737e:	48 07       	cpc	r20, r24
    7380:	59 07       	cpc	r21, r25
    7382:	08 f0       	brcs	.+2      	; 0x7386 <_Z23Demo_Circle_PerformancePKcmbb+0x1a2>
    7384:	8e cf       	rjmp	.-228    	; 0x72a2 <_Z23Demo_Circle_PerformancePKcmbb+0xbe>
	}
	//print results
	dp.ClsGraph();
    7386:	8c e3       	ldi	r24, 0x3C	; 60
    7388:	94 e0       	ldi	r25, 0x04	; 4
    738a:	0e 94 21 28 	call	0x5042	; 0x5042 <_ZN23class_T6963C_Drive_V1418ClsGraphEv>
	dp.LocateXY(8,yi+8);
    738e:	4d 85       	ldd	r20, Y+13	; 0x0d
    7390:	5e 85       	ldd	r21, Y+14	; 0x0e
    7392:	48 5f       	subi	r20, 0xF8	; 248
    7394:	5f 4f       	sbci	r21, 0xFF	; 255
    7396:	68 e0       	ldi	r22, 0x08	; 8
    7398:	70 e0       	ldi	r23, 0x00	; 0
    739a:	8c e3       	ldi	r24, 0x3C	; 60
    739c:	94 e0       	ldi	r25, 0x04	; 4
    739e:	0e 94 e5 25 	call	0x4bca	; 0x4bca <_ZN23class_T6963C_Drive_V1418LocateXYEii>
	//12345678901234567890
	if (ellipse)
	{
		sprintf(bf,"%lu Ellipses/Sec",1000/(tMeasureTotal/tMeasureCount));
    73a2:	69 89       	ldd	r22, Y+17	; 0x11
    73a4:	7a 89       	ldd	r23, Y+18	; 0x12
    73a6:	8b 89       	ldd	r24, Y+19	; 0x13
    73a8:	9c 89       	ldd	r25, Y+20	; 0x14
    73aa:	a3 01       	movw	r20, r6
    73ac:	92 01       	movw	r18, r4
    73ae:	d1 d7       	rcall	.+4002   	; 0x8352 <__udivmodsi4>
    73b0:	68 ee       	ldi	r22, 0xE8	; 232
    73b2:	73 e0       	ldi	r23, 0x03	; 3
    73b4:	80 e0       	ldi	r24, 0x00	; 0
    73b6:	90 e0       	ldi	r25, 0x00	; 0
    73b8:	cc d7       	rcall	.+3992   	; 0x8352 <__udivmodsi4>
	}
	//print results
	dp.ClsGraph();
	dp.LocateXY(8,yi+8);
	//12345678901234567890
	if (ellipse)
    73ba:	bb 20       	and	r11, r11
    73bc:	39 f0       	breq	.+14     	; 0x73cc <_Z23Demo_Circle_PerformancePKcmbb+0x1e8>
	{
		sprintf(bf,"%lu Ellipses/Sec",1000/(tMeasureTotal/tMeasureCount));
    73be:	5f 93       	push	r21
    73c0:	4f 93       	push	r20
    73c2:	3f 93       	push	r19
    73c4:	2f 93       	push	r18
    73c6:	8d ec       	ldi	r24, 0xCD	; 205
    73c8:	92 e0       	ldi	r25, 0x02	; 2
    73ca:	06 c0       	rjmp	.+12     	; 0x73d8 <_Z23Demo_Circle_PerformancePKcmbb+0x1f4>
	}
	else
	{
		sprintf(bf,"%lu Circles/Sec",1000/(tMeasureTotal/tMeasureCount));
    73cc:	5f 93       	push	r21
    73ce:	4f 93       	push	r20
    73d0:	3f 93       	push	r19
    73d2:	2f 93       	push	r18
    73d4:	8e ed       	ldi	r24, 0xDE	; 222
    73d6:	92 e0       	ldi	r25, 0x02	; 2
    73d8:	9f 93       	push	r25
    73da:	8f 93       	push	r24
    73dc:	88 e0       	ldi	r24, 0x08	; 8
    73de:	93 e0       	ldi	r25, 0x03	; 3
    73e0:	9f 93       	push	r25
    73e2:	8f 93       	push	r24
    73e4:	0e 94 6b 42 	call	0x84d6	; 0x84d6 <sprintf>
    73e8:	0f b6       	in	r0, 0x3f	; 63
    73ea:	f8 94       	cli
    73ec:	de bf       	out	0x3e, r29	; 62
    73ee:	0f be       	out	0x3f, r0	; 63
    73f0:	cd bf       	out	0x3d, r28	; 61
	}
	DrawGTextCentered(bf,false);
    73f2:	60 e0       	ldi	r22, 0x00	; 0
    73f4:	88 e0       	ldi	r24, 0x08	; 8
    73f6:	93 e0       	ldi	r25, 0x03	; 3
    73f8:	0e 94 9e 2f 	call	0x5f3c	; 0x5f3c <_Z17DrawGTextCenteredPKcb>
    73fc:	2b 8d       	ldd	r18, Y+27	; 0x1b
    73fe:	3c 8d       	ldd	r19, Y+28	; 0x1c
    7400:	30 93 3f 04 	sts	0x043F, r19
    7404:	20 93 3e 04 	sts	0x043E, r18
	//dp.GPutS(bf);
	//set draw mode
	dp.SetDrawMode(dm);
	//little time to show results
	time.DelayMillisByInterrupt(timeToExit/5);
    7408:	6f 89       	ldd	r22, Y+23	; 0x17
    740a:	78 8d       	ldd	r23, Y+24	; 0x18
    740c:	89 8d       	ldd	r24, Y+25	; 0x19
    740e:	9a 8d       	ldd	r25, Y+26	; 0x1a
    7410:	25 e0       	ldi	r18, 0x05	; 5
    7412:	30 e0       	ldi	r19, 0x00	; 0
    7414:	40 e0       	ldi	r20, 0x00	; 0
    7416:	50 e0       	ldi	r21, 0x00	; 0
    7418:	9c d7       	rcall	.+3896   	; 0x8352 <__udivmodsi4>
    741a:	ba 01       	movw	r22, r20
    741c:	a9 01       	movw	r20, r18
    741e:	85 e3       	ldi	r24, 0x35	; 53
    7420:	94 e0       	ldi	r25, 0x04	; 4
    7422:	49 d7       	rcall	.+3730   	; 0x82b6 <_ZN10class_Time22DelayMillisByInterruptEm>
}
    7424:	6e 96       	adiw	r28, 0x1e	; 30
    7426:	0f b6       	in	r0, 0x3f	; 63
    7428:	f8 94       	cli
    742a:	de bf       	out	0x3e, r29	; 62
    742c:	0f be       	out	0x3f, r0	; 63
    742e:	cd bf       	out	0x3d, r28	; 61
    7430:	df 91       	pop	r29
    7432:	cf 91       	pop	r28
    7434:	1f 91       	pop	r17
    7436:	0f 91       	pop	r16
    7438:	ff 90       	pop	r15
    743a:	ef 90       	pop	r14
    743c:	df 90       	pop	r13
    743e:	cf 90       	pop	r12
    7440:	bf 90       	pop	r11
    7442:	af 90       	pop	r10
    7444:	9f 90       	pop	r9
    7446:	8f 90       	pop	r8
    7448:	7f 90       	pop	r7
    744a:	6f 90       	pop	r6
    744c:	5f 90       	pop	r5
    744e:	4f 90       	pop	r4
    7450:	3f 90       	pop	r3
    7452:	2f 90       	pop	r2
    7454:	08 95       	ret

00007456 <_Z17Demo_PresentationPKcm>:

/////////////////////////////////////////////////////
//  PIXEL PERFORMANCE
/////////////////////////////////////////////////////
void Demo_Presentation(const char *titleString,uint32_t timeToExit)
{
    7456:	cf 92       	push	r12
    7458:	df 92       	push	r13
    745a:	ef 92       	push	r14
    745c:	ff 92       	push	r15
    745e:	0f 93       	push	r16
    7460:	1f 93       	push	r17
    7462:	cf 93       	push	r28
    7464:	df 93       	push	r29
    7466:	cd b7       	in	r28, 0x3d	; 61
    7468:	de b7       	in	r29, 0x3e	; 62
    746a:	28 97       	sbiw	r28, 0x08	; 8
    746c:	0f b6       	in	r0, 0x3f	; 63
    746e:	f8 94       	cli
    7470:	de bf       	out	0x3e, r29	; 62
    7472:	0f be       	out	0x3f, r0	; 63
    7474:	cd bf       	out	0x3d, r28	; 61
    7476:	6a 01       	movw	r12, r20
    7478:	7b 01       	movw	r14, r22
	int			xi,yi,xf,yf;

	DrawTitle(titleString);
    747a:	0e 94 a8 30 	call	0x6150	; 0x6150 <_Z9DrawTitlePKc>

	//get window position
	dp.GetWindow(xi,yi,xf,yf);
    747e:	8e 01       	movw	r16, r28
    7480:	0f 5f       	subi	r16, 0xFF	; 255
    7482:	1f 4f       	sbci	r17, 0xFF	; 255
    7484:	9e 01       	movw	r18, r28
    7486:	2d 5f       	subi	r18, 0xFD	; 253
    7488:	3f 4f       	sbci	r19, 0xFF	; 255
    748a:	ae 01       	movw	r20, r28
    748c:	4b 5f       	subi	r20, 0xFB	; 251
    748e:	5f 4f       	sbci	r21, 0xFF	; 255
    7490:	be 01       	movw	r22, r28
    7492:	69 5f       	subi	r22, 0xF9	; 249
    7494:	7f 4f       	sbci	r23, 0xFF	; 255
    7496:	8c e3       	ldi	r24, 0x3C	; 60
    7498:	94 e0       	ldi	r25, 0x04	; 4
    749a:	0e 94 32 2b 	call	0x5664	; 0x5664 <_ZN23class_T6963C_Drive_V1419GetWindowERiS0_S0_S0_>

	dp.LocateXY(6,yi+1*8);
    749e:	8d 81       	ldd	r24, Y+5	; 0x05
    74a0:	9e 81       	ldd	r25, Y+6	; 0x06
    74a2:	ac 01       	movw	r20, r24
    74a4:	48 5f       	subi	r20, 0xF8	; 248
    74a6:	5f 4f       	sbci	r21, 0xFF	; 255
    74a8:	66 e0       	ldi	r22, 0x06	; 6
    74aa:	70 e0       	ldi	r23, 0x00	; 0
    74ac:	8c e3       	ldi	r24, 0x3C	; 60
    74ae:	94 e0       	ldi	r25, 0x04	; 4
    74b0:	0e 94 e5 25 	call	0x4bca	; 0x4bca <_ZN23class_T6963C_Drive_V1418LocateXYEii>
	dp.GPutSF(PSTR("Toshiba T6963C\r\n Display Drive and \r\n Atmel AVR ATMega128\r\n Version "));
    74b4:	41 e0       	ldi	r20, 0x01	; 1
    74b6:	64 e3       	ldi	r22, 0x34	; 52
    74b8:	78 e0       	ldi	r23, 0x08	; 8
    74ba:	8c e3       	ldi	r24, 0x3C	; 60
    74bc:	94 e0       	ldi	r25, 0x04	; 4
    74be:	0e 94 4e 2f 	call	0x5e9c	; 0x5e9c <_ZN23class_T6963C_Drive_V1416GPutSFEPKch>
	sprintf(bf,"%d.%02d",dp.VersionMajor(),dp.VersionMinor());
    74c2:	1f 92       	push	r1
    74c4:	89 e2       	ldi	r24, 0x29	; 41
    74c6:	8f 93       	push	r24
    74c8:	1f 92       	push	r1
    74ca:	81 e0       	ldi	r24, 0x01	; 1
    74cc:	8f 93       	push	r24
    74ce:	8e ee       	ldi	r24, 0xEE	; 238
    74d0:	92 e0       	ldi	r25, 0x02	; 2
    74d2:	9f 93       	push	r25
    74d4:	8f 93       	push	r24
    74d6:	88 e0       	ldi	r24, 0x08	; 8
    74d8:	93 e0       	ldi	r25, 0x03	; 3
    74da:	9f 93       	push	r25
    74dc:	8f 93       	push	r24
    74de:	fb d7       	rcall	.+4086   	; 0x84d6 <sprintf>
	dp.GPutS(bf);
    74e0:	41 e0       	ldi	r20, 0x01	; 1
    74e2:	68 e0       	ldi	r22, 0x08	; 8
    74e4:	73 e0       	ldi	r23, 0x03	; 3
    74e6:	8c e3       	ldi	r24, 0x3C	; 60
    74e8:	94 e0       	ldi	r25, 0x04	; 4
    74ea:	0e 94 39 2f 	call	0x5e72	; 0x5e72 <_ZN23class_T6963C_Drive_V1415GPutSEPKch>
	dp.GPutSF(PSTR("\r\n Made with Atmel Studio 7\r\n By Joao DArtagnan A. O.\r\n Brasilia Brazil\r\n January, 20, 2016"));
    74ee:	41 e0       	ldi	r20, 0x01	; 1
    74f0:	67 ed       	ldi	r22, 0xD7	; 215
    74f2:	77 e0       	ldi	r23, 0x07	; 7
    74f4:	8c e3       	ldi	r24, 0x3C	; 60
    74f6:	94 e0       	ldi	r25, 0x04	; 4
    74f8:	0e 94 4e 2f 	call	0x5e9c	; 0x5e9c <_ZN23class_T6963C_Drive_V1416GPutSFEPKch>
	//delay to exit
	time.DelayMillisByInterrupt(timeToExit);
    74fc:	b7 01       	movw	r22, r14
    74fe:	a6 01       	movw	r20, r12
    7500:	85 e3       	ldi	r24, 0x35	; 53
    7502:	94 e0       	ldi	r25, 0x04	; 4
    7504:	d8 d6       	rcall	.+3504   	; 0x82b6 <_ZN10class_Time22DelayMillisByInterruptEm>
    7506:	0f b6       	in	r0, 0x3f	; 63
    7508:	f8 94       	cli
    750a:	de bf       	out	0x3e, r29	; 62
    750c:	0f be       	out	0x3f, r0	; 63
    750e:	cd bf       	out	0x3d, r28	; 61
}
    7510:	28 96       	adiw	r28, 0x08	; 8
    7512:	0f b6       	in	r0, 0x3f	; 63
    7514:	f8 94       	cli
    7516:	de bf       	out	0x3e, r29	; 62
    7518:	0f be       	out	0x3f, r0	; 63
    751a:	cd bf       	out	0x3d, r28	; 61
    751c:	df 91       	pop	r29
    751e:	cf 91       	pop	r28
    7520:	1f 91       	pop	r17
    7522:	0f 91       	pop	r16
    7524:	ff 90       	pop	r15
    7526:	ef 90       	pop	r14
    7528:	df 90       	pop	r13
    752a:	cf 90       	pop	r12
    752c:	08 95       	ret

0000752e <_Z21Demo_Text_Graph_TypesPKcm>:

/////////////////////////////////////////////////////
//  Texts
/////////////////////////////////////////////////////
void Demo_Text_Graph_Types(const char *titleString,uint32_t timeToExit)
{
    752e:	4f 92       	push	r4
    7530:	5f 92       	push	r5
    7532:	6f 92       	push	r6
    7534:	7f 92       	push	r7
    7536:	af 92       	push	r10
    7538:	bf 92       	push	r11
    753a:	cf 92       	push	r12
    753c:	ef 92       	push	r14
    753e:	ff 92       	push	r15
    7540:	0f 93       	push	r16
    7542:	1f 93       	push	r17
    7544:	cf 93       	push	r28
    7546:	df 93       	push	r29
    7548:	cd b7       	in	r28, 0x3d	; 61
    754a:	de b7       	in	r29, 0x3e	; 62
    754c:	28 97       	sbiw	r28, 0x08	; 8
    754e:	0f b6       	in	r0, 0x3f	; 63
    7550:	f8 94       	cli
    7552:	de bf       	out	0x3e, r29	; 62
    7554:	0f be       	out	0x3f, r0	; 63
    7556:	cd bf       	out	0x3d, r28	; 61
    7558:	2a 01       	movw	r4, r20
    755a:	3b 01       	movw	r6, r22
	int			xi,yi,xf,yf;

	DrawTitle(titleString);
    755c:	0e 94 a8 30 	call	0x6150	; 0x6150 <_Z9DrawTitlePKc>

	//get window position
	dp.GetWindow(xi,yi,xf,yf);
    7560:	8e 01       	movw	r16, r28
    7562:	0f 5f       	subi	r16, 0xFF	; 255
    7564:	1f 4f       	sbci	r17, 0xFF	; 255
    7566:	9e 01       	movw	r18, r28
    7568:	2d 5f       	subi	r18, 0xFD	; 253
    756a:	3f 4f       	sbci	r19, 0xFF	; 255
    756c:	ae 01       	movw	r20, r28
    756e:	4b 5f       	subi	r20, 0xFB	; 251
    7570:	5f 4f       	sbci	r21, 0xFF	; 255
    7572:	be 01       	movw	r22, r28
    7574:	69 5f       	subi	r22, 0xF9	; 249
    7576:	7f 4f       	sbci	r23, 0xFF	; 255
    7578:	8c e3       	ldi	r24, 0x3C	; 60
    757a:	94 e0       	ldi	r25, 0x04	; 4
    757c:	0e 94 32 2b 	call	0x5664	; 0x5664 <_ZN23class_T6963C_Drive_V1419GetWindowERiS0_S0_S0_>
    7580:	8c e3       	ldi	r24, 0x3C	; 60
    7582:	a8 2e       	mov	r10, r24
    7584:	84 e0       	ldi	r24, 0x04	; 4
    7586:	b8 2e       	mov	r11, r24
    7588:	82 e0       	ldi	r24, 0x02	; 2
    758a:	90 e0       	ldi	r25, 0x00	; 0
    758c:	f5 01       	movw	r30, r10
    758e:	93 83       	std	Z+3, r25	; 0x03
    7590:	82 83       	std	Z+2, r24	; 0x02

	dp.SetDrawMode(DrawMode::PATTERN);
	dp.SetDrawPatternType(_T6963C_Patterns::DIAGONAL_GRID);
    7592:	64 e0       	ldi	r22, 0x04	; 4
    7594:	70 e0       	ldi	r23, 0x00	; 0
    7596:	c5 01       	movw	r24, r10
    7598:	0e 94 e6 27 	call	0x4fcc	; 0x4fcc <_ZN23class_T6963C_Drive_V14118SetDrawPatternTypeE21_enum_T6963C_patterns>
	dp.DrawBox(xi,yi,xf,yf);
    759c:	09 81       	ldd	r16, Y+1	; 0x01
    759e:	1a 81       	ldd	r17, Y+2	; 0x02
    75a0:	2b 81       	ldd	r18, Y+3	; 0x03
    75a2:	3c 81       	ldd	r19, Y+4	; 0x04
    75a4:	4d 81       	ldd	r20, Y+5	; 0x05
    75a6:	5e 81       	ldd	r21, Y+6	; 0x06
    75a8:	6f 81       	ldd	r22, Y+7	; 0x07
    75aa:	78 85       	ldd	r23, Y+8	; 0x08
    75ac:	cc 24       	eor	r12, r12
    75ae:	c3 94       	inc	r12
    75b0:	ee 24       	eor	r14, r14
    75b2:	ea 94       	dec	r14
    75b4:	f1 2c       	mov	r15, r1
    75b6:	c5 01       	movw	r24, r10
    75b8:	0e 94 54 1e 	call	0x3ca8	; 0x3ca8 <_ZN16class_GraphBasic7DrawBoxEiiii9_enum_Penb>
    75bc:	f5 01       	movw	r30, r10
    75be:	13 82       	std	Z+3, r1	; 0x03
    75c0:	12 82       	std	Z+2, r1	; 0x02
	dp.SetDrawMode(DrawMode::LINE);
	dp.LocateXY(6,yi+3*8);
    75c2:	8d 81       	ldd	r24, Y+5	; 0x05
    75c4:	9e 81       	ldd	r25, Y+6	; 0x06
    75c6:	ac 01       	movw	r20, r24
    75c8:	48 5e       	subi	r20, 0xE8	; 232
    75ca:	5f 4f       	sbci	r21, 0xFF	; 255
    75cc:	66 e0       	ldi	r22, 0x06	; 6
    75ce:	70 e0       	ldi	r23, 0x00	; 0
    75d0:	c5 01       	movw	r24, r10
    75d2:	0e 94 e5 25 	call	0x4bca	; 0x4bca <_ZN23class_T6963C_Drive_V1418LocateXYEii>
	dp.GPutSF(PSTR("This a Text LINE\r\n\r\n "));
    75d6:	41 e0       	ldi	r20, 0x01	; 1
    75d8:	6c e5       	ldi	r22, 0x5C	; 92
    75da:	77 e0       	ldi	r23, 0x07	; 7
    75dc:	c5 01       	movw	r24, r10
    75de:	0e 94 4e 2f 	call	0x5e9c	; 0x5e9c <_ZN23class_T6963C_Drive_V1416GPutSFEPKch>
    75e2:	81 e0       	ldi	r24, 0x01	; 1
    75e4:	90 e0       	ldi	r25, 0x00	; 0
    75e6:	f5 01       	movw	r30, r10
    75e8:	93 83       	std	Z+3, r25	; 0x03
    75ea:	82 83       	std	Z+2, r24	; 0x02
	dp.SetDrawMode(DrawMode::SOLID);
	dp.GPutSF(PSTR("This a Text SOLID Normal\r\n\r\n "));
    75ec:	41 e0       	ldi	r20, 0x01	; 1
    75ee:	6e e3       	ldi	r22, 0x3E	; 62
    75f0:	77 e0       	ldi	r23, 0x07	; 7
    75f2:	c5 01       	movw	r24, r10
    75f4:	0e 94 4e 2f 	call	0x5e9c	; 0x5e9c <_ZN23class_T6963C_Drive_V1416GPutSFEPKch>
	dp.GPutSF(PSTR("This a Text SOLID Inverted\r\n\r\n"),0);
    75f8:	40 e0       	ldi	r20, 0x00	; 0
    75fa:	6f e1       	ldi	r22, 0x1F	; 31
    75fc:	77 e0       	ldi	r23, 0x07	; 7
    75fe:	c5 01       	movw	r24, r10
    7600:	0e 94 4e 2f 	call	0x5e9c	; 0x5e9c <_ZN23class_T6963C_Drive_V1416GPutSFEPKch>
    7604:	f5 01       	movw	r30, r10
    7606:	13 82       	std	Z+3, r1	; 0x03
    7608:	12 82       	std	Z+2, r1	; 0x02
	dp.SetDrawMode(DrawMode::LINE);
	//delay to exit
	time.DelayMillisByInterrupt(timeToExit);
    760a:	b3 01       	movw	r22, r6
    760c:	a2 01       	movw	r20, r4
    760e:	85 e3       	ldi	r24, 0x35	; 53
    7610:	94 e0       	ldi	r25, 0x04	; 4
    7612:	51 d6       	rcall	.+3234   	; 0x82b6 <_ZN10class_Time22DelayMillisByInterruptEm>
}
    7614:	28 96       	adiw	r28, 0x08	; 8
    7616:	0f b6       	in	r0, 0x3f	; 63
    7618:	f8 94       	cli
    761a:	de bf       	out	0x3e, r29	; 62
    761c:	0f be       	out	0x3f, r0	; 63
    761e:	cd bf       	out	0x3d, r28	; 61
    7620:	df 91       	pop	r29
    7622:	cf 91       	pop	r28
    7624:	1f 91       	pop	r17
    7626:	0f 91       	pop	r16
    7628:	ff 90       	pop	r15
    762a:	ef 90       	pop	r14
    762c:	cf 90       	pop	r12
    762e:	bf 90       	pop	r11
    7630:	af 90       	pop	r10
    7632:	7f 90       	pop	r7
    7634:	6f 90       	pop	r6
    7636:	5f 90       	pop	r5
    7638:	4f 90       	pop	r4
    763a:	08 95       	ret

0000763c <_Z21Demo_Graph_Text_ScalePKcm>:

/////////////////////////////////////////////////////
//  Texts Graph Scale
/////////////////////////////////////////////////////
void Demo_Graph_Text_Scale(const char *titleString,uint32_t timeToExit)
{
    763c:	7f 92       	push	r7
    763e:	8f 92       	push	r8
    7640:	9f 92       	push	r9
    7642:	af 92       	push	r10
    7644:	bf 92       	push	r11
    7646:	cf 92       	push	r12
    7648:	df 92       	push	r13
    764a:	ef 92       	push	r14
    764c:	ff 92       	push	r15
    764e:	0f 93       	push	r16
    7650:	1f 93       	push	r17
    7652:	cf 93       	push	r28
    7654:	df 93       	push	r29
    7656:	cd b7       	in	r28, 0x3d	; 61
    7658:	de b7       	in	r29, 0x3e	; 62
    765a:	28 97       	sbiw	r28, 0x08	; 8
    765c:	0f b6       	in	r0, 0x3f	; 63
    765e:	f8 94       	cli
    7660:	de bf       	out	0x3e, r29	; 62
    7662:	0f be       	out	0x3f, r0	; 63
    7664:	cd bf       	out	0x3d, r28	; 61
    7666:	4a 01       	movw	r8, r20
    7668:	5b 01       	movw	r10, r22
	int			xi,yi,xf,yf;
	uint8_t		pixel;

	DrawTitle(titleString);
    766a:	0e 94 a8 30 	call	0x6150	; 0x6150 <_Z9DrawTitlePKc>

	//get window position
	dp.GetWindow(xi,yi,xf,yf);
    766e:	8e 01       	movw	r16, r28
    7670:	0f 5f       	subi	r16, 0xFF	; 255
    7672:	1f 4f       	sbci	r17, 0xFF	; 255
    7674:	9e 01       	movw	r18, r28
    7676:	2d 5f       	subi	r18, 0xFD	; 253
    7678:	3f 4f       	sbci	r19, 0xFF	; 255
    767a:	ae 01       	movw	r20, r28
    767c:	4b 5f       	subi	r20, 0xFB	; 251
    767e:	5f 4f       	sbci	r21, 0xFF	; 255
    7680:	be 01       	movw	r22, r28
    7682:	69 5f       	subi	r22, 0xF9	; 249
    7684:	7f 4f       	sbci	r23, 0xFF	; 255
    7686:	8c e3       	ldi	r24, 0x3C	; 60
    7688:	94 e0       	ldi	r25, 0x04	; 4
    768a:	0e 94 32 2b 	call	0x5664	; 0x5664 <_ZN23class_T6963C_Drive_V1419GetWindowERiS0_S0_S0_>
    768e:	81 e0       	ldi	r24, 0x01	; 1
    7690:	90 e0       	ldi	r25, 0x00	; 0
    7692:	90 93 3f 04 	sts	0x043F, r25
    7696:	80 93 3e 04 	sts	0x043E, r24
	dp.SetDrawMode(DrawMode::SOLID);
	for(int x=6;x<=(80+6);x+=80)
    769a:	06 e0       	ldi	r16, 0x06	; 6
    769c:	10 e0       	ldi	r17, 0x00	; 0
	{
		//select pixel
		if (x==6) pixel=1; else pixel=0;
    769e:	77 24       	eor	r7, r7
    76a0:	73 94       	inc	r7
		///@brief 		<td><img src="_Photos\Char_Width_Height.jpg" style="width:300px;height:200px;"></td>
		///@brief 	</tr>
		///@brief </table>
		///@brief _______________________________________________________________________________					
		//	+-------------------------------------------------------------------------------+
		void	inline SetGraphTextScale(uint8_t newScale) { this->_GraphTextScale=newScale;}
    76a2:	82 e0       	ldi	r24, 0x02	; 2
    76a4:	c8 2e       	mov	r12, r24
    76a6:	93 e0       	ldi	r25, 0x03	; 3
    76a8:	d9 2e       	mov	r13, r25
    76aa:	24 e0       	ldi	r18, 0x04	; 4
    76ac:	e2 2e       	mov	r14, r18
    76ae:	ff 24       	eor	r15, r15
    76b0:	f3 94       	inc	r15
    76b2:	06 30       	cpi	r16, 0x06	; 6
    76b4:	11 05       	cpc	r17, r1
    76b6:	09 f0       	breq	.+2      	; 0x76ba <_Z21Demo_Graph_Text_ScalePKcm+0x7e>
    76b8:	f1 2c       	mov	r15, r1
    76ba:	70 92 58 04 	sts	0x0458, r7
		//Draw 3 Text Scaled
		dp.SetGraphTextScale(1);
		dp.LocateXY(x,yi+dp.GetGraphCharHeight());
    76be:	4d 81       	ldd	r20, Y+5	; 0x05
    76c0:	5e 81       	ldd	r21, Y+6	; 0x06
    76c2:	48 5f       	subi	r20, 0xF8	; 248
    76c4:	5f 4f       	sbci	r21, 0xFF	; 255
    76c6:	b8 01       	movw	r22, r16
    76c8:	8c e3       	ldi	r24, 0x3C	; 60
    76ca:	94 e0       	ldi	r25, 0x04	; 4
    76cc:	0e 94 e5 25 	call	0x4bca	; 0x4bca <_ZN23class_T6963C_Drive_V1418LocateXYEii>
		dp.GPutSF(PSTR("ABC"),pixel);
    76d0:	4f 2d       	mov	r20, r15
    76d2:	6b e1       	ldi	r22, 0x1B	; 27
    76d4:	77 e0       	ldi	r23, 0x07	; 7
    76d6:	8c e3       	ldi	r24, 0x3C	; 60
    76d8:	94 e0       	ldi	r25, 0x04	; 4
    76da:	0e 94 4e 2f 	call	0x5e9c	; 0x5e9c <_ZN23class_T6963C_Drive_V1416GPutSFEPKch>
    76de:	c0 92 58 04 	sts	0x0458, r12
	
		dp.SetGraphTextScale(2);
		dp.LocateXY(x,yi+dp.GetGraphCharHeight()*2);
    76e2:	4d 81       	ldd	r20, Y+5	; 0x05
    76e4:	5e 81       	ldd	r21, Y+6	; 0x06
    76e6:	40 5f       	subi	r20, 0xF0	; 240
    76e8:	5f 4f       	sbci	r21, 0xFF	; 255
    76ea:	b8 01       	movw	r22, r16
    76ec:	8c e3       	ldi	r24, 0x3C	; 60
    76ee:	94 e0       	ldi	r25, 0x04	; 4
    76f0:	0e 94 e5 25 	call	0x4bca	; 0x4bca <_ZN23class_T6963C_Drive_V1418LocateXYEii>
		dp.GPutSF(PSTR("ABC"),pixel);
    76f4:	4f 2d       	mov	r20, r15
    76f6:	67 e1       	ldi	r22, 0x17	; 23
    76f8:	77 e0       	ldi	r23, 0x07	; 7
    76fa:	8c e3       	ldi	r24, 0x3C	; 60
    76fc:	94 e0       	ldi	r25, 0x04	; 4
    76fe:	0e 94 4e 2f 	call	0x5e9c	; 0x5e9c <_ZN23class_T6963C_Drive_V1416GPutSFEPKch>
    7702:	d0 92 58 04 	sts	0x0458, r13

		dp.SetGraphTextScale(3);
		dp.LocateXY(x,yi+dp.GetGraphCharHeight()*4);
    7706:	8d 81       	ldd	r24, Y+5	; 0x05
    7708:	9e 81       	ldd	r25, Y+6	; 0x06
    770a:	ac 01       	movw	r20, r24
    770c:	40 5e       	subi	r20, 0xE0	; 224
    770e:	5f 4f       	sbci	r21, 0xFF	; 255
    7710:	b8 01       	movw	r22, r16
    7712:	8c e3       	ldi	r24, 0x3C	; 60
    7714:	94 e0       	ldi	r25, 0x04	; 4
    7716:	0e 94 e5 25 	call	0x4bca	; 0x4bca <_ZN23class_T6963C_Drive_V1418LocateXYEii>
		dp.GPutSF(PSTR("ABC"),pixel);
    771a:	4f 2d       	mov	r20, r15
    771c:	63 e1       	ldi	r22, 0x13	; 19
    771e:	77 e0       	ldi	r23, 0x07	; 7
    7720:	8c e3       	ldi	r24, 0x3C	; 60
    7722:	94 e0       	ldi	r25, 0x04	; 4
    7724:	0e 94 4e 2f 	call	0x5e9c	; 0x5e9c <_ZN23class_T6963C_Drive_V1416GPutSFEPKch>
    7728:	e0 92 58 04 	sts	0x0458, r14

		dp.SetGraphTextScale(4);
		dp.LocateXY(x,yi+dp.GetGraphCharHeight()*7);
    772c:	8d 81       	ldd	r24, Y+5	; 0x05
    772e:	9e 81       	ldd	r25, Y+6	; 0x06
    7730:	ac 01       	movw	r20, r24
    7732:	48 5c       	subi	r20, 0xC8	; 200
    7734:	5f 4f       	sbci	r21, 0xFF	; 255
    7736:	b8 01       	movw	r22, r16
    7738:	8c e3       	ldi	r24, 0x3C	; 60
    773a:	94 e0       	ldi	r25, 0x04	; 4
    773c:	0e 94 e5 25 	call	0x4bca	; 0x4bca <_ZN23class_T6963C_Drive_V1418LocateXYEii>
		dp.GPutSF(PSTR("ABC"),pixel);
    7740:	4f 2d       	mov	r20, r15
    7742:	6f e0       	ldi	r22, 0x0F	; 15
    7744:	77 e0       	ldi	r23, 0x07	; 7
    7746:	8c e3       	ldi	r24, 0x3C	; 60
    7748:	94 e0       	ldi	r25, 0x04	; 4
    774a:	0e 94 4e 2f 	call	0x5e9c	; 0x5e9c <_ZN23class_T6963C_Drive_V1416GPutSFEPKch>
	DrawTitle(titleString);

	//get window position
	dp.GetWindow(xi,yi,xf,yf);
	dp.SetDrawMode(DrawMode::SOLID);
	for(int x=6;x<=(80+6);x+=80)
    774e:	00 5b       	subi	r16, 0xB0	; 176
    7750:	1f 4f       	sbci	r17, 0xFF	; 255
    7752:	06 3a       	cpi	r16, 0xA6	; 166
    7754:	11 05       	cpc	r17, r1
    7756:	09 f0       	breq	.+2      	; 0x775a <_Z21Demo_Graph_Text_ScalePKcm+0x11e>
    7758:	aa cf       	rjmp	.-172    	; 0x76ae <_Z21Demo_Graph_Text_ScalePKcm+0x72>
    775a:	81 e0       	ldi	r24, 0x01	; 1
    775c:	80 93 58 04 	sts	0x0458, r24
    7760:	10 92 3f 04 	sts	0x043F, r1
    7764:	10 92 3e 04 	sts	0x043E, r1
	}

	dp.SetGraphTextScale(1);
	dp.SetDrawMode(DrawMode::LINE);
	//delay to exit
	time.DelayMillisByInterrupt(timeToExit);
    7768:	b5 01       	movw	r22, r10
    776a:	a4 01       	movw	r20, r8
    776c:	85 e3       	ldi	r24, 0x35	; 53
    776e:	94 e0       	ldi	r25, 0x04	; 4
    7770:	a2 d5       	rcall	.+2884   	; 0x82b6 <_ZN10class_Time22DelayMillisByInterruptEm>
}
    7772:	28 96       	adiw	r28, 0x08	; 8
    7774:	0f b6       	in	r0, 0x3f	; 63
    7776:	f8 94       	cli
    7778:	de bf       	out	0x3e, r29	; 62
    777a:	0f be       	out	0x3f, r0	; 63
    777c:	cd bf       	out	0x3d, r28	; 61
    777e:	df 91       	pop	r29
    7780:	cf 91       	pop	r28
    7782:	1f 91       	pop	r17
    7784:	0f 91       	pop	r16
    7786:	ff 90       	pop	r15
    7788:	ef 90       	pop	r14
    778a:	df 90       	pop	r13
    778c:	cf 90       	pop	r12
    778e:	bf 90       	pop	r11
    7790:	af 90       	pop	r10
    7792:	9f 90       	pop	r9
    7794:	8f 90       	pop	r8
    7796:	7f 90       	pop	r7
    7798:	08 95       	ret

0000779a <_Z20Demo_Draw_Ball_PagesPKcm>:

/////////////////////////////////////////////////////
//  Texts
/////////////////////////////////////////////////////
void Demo_Draw_Ball_Pages(const char *titleString,uint32_t timeToExit)
{
    779a:	2f 92       	push	r2
    779c:	3f 92       	push	r3
    779e:	4f 92       	push	r4
    77a0:	5f 92       	push	r5
    77a2:	6f 92       	push	r6
    77a4:	7f 92       	push	r7
    77a6:	8f 92       	push	r8
    77a8:	9f 92       	push	r9
    77aa:	af 92       	push	r10
    77ac:	bf 92       	push	r11
    77ae:	cf 92       	push	r12
    77b0:	df 92       	push	r13
    77b2:	ef 92       	push	r14
    77b4:	ff 92       	push	r15
    77b6:	0f 93       	push	r16
    77b8:	1f 93       	push	r17
    77ba:	cf 93       	push	r28
    77bc:	df 93       	push	r29
    77be:	cd b7       	in	r28, 0x3d	; 61
    77c0:	de b7       	in	r29, 0x3e	; 62
    77c2:	68 97       	sbiw	r28, 0x18	; 24
    77c4:	0f b6       	in	r0, 0x3f	; 63
    77c6:	f8 94       	cli
    77c8:	de bf       	out	0x3e, r29	; 62
    77ca:	0f be       	out	0x3f, r0	; 63
    77cc:	cd bf       	out	0x3d, r28	; 61
    77ce:	8c 01       	movw	r16, r24
    77d0:	49 8b       	std	Y+17, r20	; 0x11
    77d2:	5a 8b       	std	Y+18, r21	; 0x12
    77d4:	6b 8b       	std	Y+19, r22	; 0x13
    77d6:	7c 8b       	std	Y+20, r23	; 0x14
	uint32_t	tExit;
	int			xi,yi,xf,yf,
				x,y,iX,iY,x2,y2,iX2,iY2;
	uint8_t		aP,vP;

	dp.SetGraphActivePage(1);
    77d8:	61 e0       	ldi	r22, 0x01	; 1
    77da:	8c e3       	ldi	r24, 0x3C	; 60
    77dc:	94 e0       	ldi	r25, 0x04	; 4
    77de:	0e 94 84 27 	call	0x4f08	; 0x4f08 <_ZN23class_T6963C_Drive_V14118SetGraphActivePageEh>
	DrawTitle(titleString);
    77e2:	c8 01       	movw	r24, r16
    77e4:	0e 94 a8 30 	call	0x6150	; 0x6150 <_Z9DrawTitlePKc>
	dp.SetGraphActivePage(2);
    77e8:	62 e0       	ldi	r22, 0x02	; 2
    77ea:	8c e3       	ldi	r24, 0x3C	; 60
    77ec:	94 e0       	ldi	r25, 0x04	; 4
    77ee:	0e 94 84 27 	call	0x4f08	; 0x4f08 <_ZN23class_T6963C_Drive_V14118SetGraphActivePageEh>
	DrawTitle(titleString);
    77f2:	c8 01       	movw	r24, r16
    77f4:	0e 94 a8 30 	call	0x6150	; 0x6150 <_Z9DrawTitlePKc>
	dp.SetGraphActivePage(1);
    77f8:	61 e0       	ldi	r22, 0x01	; 1
    77fa:	8c e3       	ldi	r24, 0x3C	; 60
    77fc:	94 e0       	ldi	r25, 0x04	; 4
    77fe:	0e 94 84 27 	call	0x4f08	; 0x4f08 <_ZN23class_T6963C_Drive_V14118SetGraphActivePageEh>

	//get window position
	dp.GetWindow(xi,yi,xf,yf);
    7802:	8e 01       	movw	r16, r28
    7804:	0b 5f       	subi	r16, 0xFB	; 251
    7806:	1f 4f       	sbci	r17, 0xFF	; 255
    7808:	9e 01       	movw	r18, r28
    780a:	29 5f       	subi	r18, 0xF9	; 249
    780c:	3f 4f       	sbci	r19, 0xFF	; 255
    780e:	ae 01       	movw	r20, r28
    7810:	47 5f       	subi	r20, 0xF7	; 247
    7812:	5f 4f       	sbci	r21, 0xFF	; 255
    7814:	be 01       	movw	r22, r28
    7816:	65 5f       	subi	r22, 0xF5	; 245
    7818:	7f 4f       	sbci	r23, 0xFF	; 255
    781a:	8c e3       	ldi	r24, 0x3C	; 60
    781c:	94 e0       	ldi	r25, 0x04	; 4
    781e:	0e 94 32 2b 	call	0x5664	; 0x5664 <_ZN23class_T6963C_Drive_V1419GetWindowERiS0_S0_S0_>

	xf-=dp.GetBMPWidth(BMP_Ball);
    7822:	6b e7       	ldi	r22, 0x7B	; 123
    7824:	78 e0       	ldi	r23, 0x08	; 8
    7826:	8c e3       	ldi	r24, 0x3C	; 60
    7828:	94 e0       	ldi	r25, 0x04	; 4
    782a:	0e 94 4e 2b 	call	0x569c	; 0x569c <_ZN23class_T6963C_Drive_V14111GetBMPWidthEPKh>
    782e:	2f 81       	ldd	r18, Y+7	; 0x07
    7830:	38 85       	ldd	r19, Y+8	; 0x08
    7832:	28 1b       	sub	r18, r24
    7834:	39 0b       	sbc	r19, r25
    7836:	38 87       	std	Y+8, r19	; 0x08
    7838:	2f 83       	std	Y+7, r18	; 0x07
	yf-=dp.GetBMPHeight(BMP_Ball);
    783a:	6b e7       	ldi	r22, 0x7B	; 123
    783c:	78 e0       	ldi	r23, 0x08	; 8
    783e:	8c e3       	ldi	r24, 0x3C	; 60
    7840:	94 e0       	ldi	r25, 0x04	; 4
    7842:	0e 94 67 2b 	call	0x56ce	; 0x56ce <_ZN23class_T6963C_Drive_V14112GetBMPHeightEPKh>
    7846:	2d 81       	ldd	r18, Y+5	; 0x05
    7848:	3e 81       	ldd	r19, Y+6	; 0x06
    784a:	28 1b       	sub	r18, r24
    784c:	39 0b       	sbc	r19, r25
    784e:	3e 83       	std	Y+6, r19	; 0x06
    7850:	2d 83       	std	Y+5, r18	; 0x05

	x=rnd(xi,xf);
    7852:	6f 81       	ldd	r22, Y+7	; 0x07
    7854:	78 85       	ldd	r23, Y+8	; 0x08
    7856:	8b 85       	ldd	r24, Y+11	; 0x0b
    7858:	9c 85       	ldd	r25, Y+12	; 0x0c
    785a:	0e 94 66 2f 	call	0x5ecc	; 0x5ecc <_Z3rndii>
    785e:	4c 01       	movw	r8, r24
	y=rnd(yi,yf);
    7860:	6d 81       	ldd	r22, Y+5	; 0x05
    7862:	7e 81       	ldd	r23, Y+6	; 0x06
    7864:	89 85       	ldd	r24, Y+9	; 0x09
    7866:	9a 85       	ldd	r25, Y+10	; 0x0a
    7868:	0e 94 66 2f 	call	0x5ecc	; 0x5ecc <_Z3rndii>
    786c:	7c 01       	movw	r14, r24
/////////////////////////////////////////////////////
//  COMPUTE RANDON NUMBER FROM START TO END
/////////////////////////////////////////////////////
int rnd(int startValue,int endValue)
{
	return rand() % (endValue-startValue+1)+startValue;
    786e:	1c d6       	rcall	.+3128   	; 0x84a8 <rand>
    7870:	04 e0       	ldi	r16, 0x04	; 4
    7872:	10 e0       	ldi	r17, 0x00	; 0
    7874:	b8 01       	movw	r22, r16
    7876:	5a d5       	rcall	.+2740   	; 0x832c <__divmodhi4>
    7878:	3c 01       	movw	r6, r24
    787a:	22 e0       	ldi	r18, 0x02	; 2
    787c:	62 0e       	add	r6, r18
    787e:	71 1c       	adc	r7, r1
    7880:	13 d6       	rcall	.+3110   	; 0x84a8 <rand>
    7882:	b8 01       	movw	r22, r16
    7884:	53 d5       	rcall	.+2726   	; 0x832c <__divmodhi4>
    7886:	2c 01       	movw	r4, r24
    7888:	32 e0       	ldi	r19, 0x02	; 2
    788a:	43 0e       	add	r4, r19
    788c:	51 1c       	adc	r5, r1
	x=rnd(xi,xf);
	y=rnd(yi,yf);
	iX=rnd(2,5);
	iY=rnd(2,5);

	x2=rnd(xi,xf);
    788e:	6f 81       	ldd	r22, Y+7	; 0x07
    7890:	78 85       	ldd	r23, Y+8	; 0x08
    7892:	8b 85       	ldd	r24, Y+11	; 0x0b
    7894:	9c 85       	ldd	r25, Y+12	; 0x0c
    7896:	0e 94 66 2f 	call	0x5ecc	; 0x5ecc <_Z3rndii>
    789a:	6c 01       	movw	r12, r24
	y2=rnd(yi,yf);
    789c:	6d 81       	ldd	r22, Y+5	; 0x05
    789e:	7e 81       	ldd	r23, Y+6	; 0x06
    78a0:	89 85       	ldd	r24, Y+9	; 0x09
    78a2:	9a 85       	ldd	r25, Y+10	; 0x0a
    78a4:	0e 94 66 2f 	call	0x5ecc	; 0x5ecc <_Z3rndii>
    78a8:	5c 01       	movw	r10, r24
/////////////////////////////////////////////////////
//  COMPUTE RANDON NUMBER FROM START TO END
/////////////////////////////////////////////////////
int rnd(int startValue,int endValue)
{
	return rand() % (endValue-startValue+1)+startValue;
    78aa:	fe d5       	rcall	.+3068   	; 0x84a8 <rand>
    78ac:	b8 01       	movw	r22, r16
    78ae:	3e d5       	rcall	.+2684   	; 0x832c <__divmodhi4>
    78b0:	ac 01       	movw	r20, r24
    78b2:	4e 5f       	subi	r20, 0xFE	; 254
    78b4:	5f 4f       	sbci	r21, 0xFF	; 255
    78b6:	5e 87       	std	Y+14, r21	; 0x0e
    78b8:	4d 87       	std	Y+13, r20	; 0x0d
    78ba:	f6 d5       	rcall	.+3052   	; 0x84a8 <rand>
    78bc:	b8 01       	movw	r22, r16
    78be:	36 d5       	rcall	.+2668   	; 0x832c <__divmodhi4>
    78c0:	1c 01       	movw	r2, r24
    78c2:	52 e0       	ldi	r21, 0x02	; 2
    78c4:	25 0e       	add	r2, r21
    78c6:	31 1c       	adc	r3, r1
	iX2=rnd(2,5);
	iY2=rnd(2,5);

	vP=1;
	aP=2;
	time.SetElapsed(&tExit);
    78c8:	9e 01       	movw	r18, r28
    78ca:	2f 5f       	subi	r18, 0xFF	; 255
    78cc:	3f 4f       	sbci	r19, 0xFF	; 255
    78ce:	b9 01       	movw	r22, r18
    78d0:	85 e3       	ldi	r24, 0x35	; 53
    78d2:	94 e0       	ldi	r25, 0x04	; 4
    78d4:	2f 8b       	std	Y+23, r18	; 0x17
    78d6:	38 8f       	std	Y+24, r19	; 0x18
    78d8:	d0 d4       	rcall	.+2464   	; 0x827a <_ZN10class_Time10SetElapsedEPm>
	x2=rnd(xi,xf);
	y2=rnd(yi,yf);
	iX2=rnd(2,5);
	iY2=rnd(2,5);

	vP=1;
    78da:	81 e0       	ldi	r24, 0x01	; 1
    78dc:	88 8b       	std	Y+16, r24	; 0x10
	aP=2;
    78de:	92 e0       	ldi	r25, 0x02	; 2
    78e0:	9f 87       	std	Y+15, r25	; 0x0f
				iY2=-iY2;
				if (iY2<0) iY2=-rnd(2,5); else iY2=rnd(2,5);
			}
		}
		//time to exit?
		if (time.GetElapsed(&tExit)>timeToExit) break;
    78e2:	2f 89       	ldd	r18, Y+23	; 0x17
    78e4:	38 8d       	ldd	r19, Y+24	; 0x18
    78e6:	2d 8b       	std	Y+21, r18	; 0x15
    78e8:	3e 8b       	std	Y+22, r19	; 0x16
	vP=1;
	aP=2;
	time.SetElapsed(&tExit);
	for(;;)
	{
		dp.SetGraphVisiblePage(vP);
    78ea:	68 89       	ldd	r22, Y+16	; 0x10
    78ec:	8c e3       	ldi	r24, 0x3C	; 60
    78ee:	94 e0       	ldi	r25, 0x04	; 4
    78f0:	0e 94 8c 27 	call	0x4f18	; 0x4f18 <_ZN23class_T6963C_Drive_V14119SetGraphVisiblePageEh>
		dp.SetGraphActivePage(aP);
    78f4:	6f 85       	ldd	r22, Y+15	; 0x0f
    78f6:	8c e3       	ldi	r24, 0x3C	; 60
    78f8:	94 e0       	ldi	r25, 0x04	; 4
    78fa:	0e 94 84 27 	call	0x4f08	; 0x4f08 <_ZN23class_T6963C_Drive_V14118SetGraphActivePageEh>
		//draw bitmap
		dp.ClsGraph();
    78fe:	8c e3       	ldi	r24, 0x3C	; 60
    7900:	94 e0       	ldi	r25, 0x04	; 4
    7902:	0e 94 21 28 	call	0x5042	; 0x5042 <_ZN23class_T6963C_Drive_V1418ClsGraphEv>
		dp.DrawBitMap(x,y,BMP_Ball);
    7906:	2b e7       	ldi	r18, 0x7B	; 123
    7908:	38 e0       	ldi	r19, 0x08	; 8
    790a:	a7 01       	movw	r20, r14
    790c:	b4 01       	movw	r22, r8
    790e:	8c e3       	ldi	r24, 0x3C	; 60
    7910:	94 e0       	ldi	r25, 0x04	; 4
    7912:	0e 94 80 2b 	call	0x5700	; 0x5700 <_ZN23class_T6963C_Drive_V14110DrawBitMapEiiPKh>
		dp.DrawBitMap(x2,y2,BMP_Ball);
    7916:	2b e7       	ldi	r18, 0x7B	; 123
    7918:	38 e0       	ldi	r19, 0x08	; 8
    791a:	a5 01       	movw	r20, r10
    791c:	b6 01       	movw	r22, r12
    791e:	8c e3       	ldi	r24, 0x3C	; 60
    7920:	94 e0       	ldi	r25, 0x04	; 4
    7922:	0e 94 80 2b 	call	0x5700	; 0x5700 <_ZN23class_T6963C_Drive_V14110DrawBitMapEiiPKh>
		uint8_t tmp;
		tmp=aP;
		aP=vP;
		vP=tmp;
		//update coords x,y
		x+=iX;
    7926:	86 0c       	add	r8, r6
    7928:	97 1c       	adc	r9, r7
		if (x>xf)
    792a:	2f 81       	ldd	r18, Y+7	; 0x07
    792c:	38 85       	ldd	r19, Y+8	; 0x08
    792e:	28 15       	cp	r18, r8
    7930:	39 05       	cpc	r19, r9
    7932:	6c f4       	brge	.+26     	; 0x794e <_Z20Demo_Draw_Ball_PagesPKcm+0x1b4>
/////////////////////////////////////////////////////
//  COMPUTE RANDON NUMBER FROM START TO END
/////////////////////////////////////////////////////
int rnd(int startValue,int endValue)
{
	return rand() % (endValue-startValue+1)+startValue;
    7934:	2f 8b       	std	Y+23, r18	; 0x17
    7936:	38 8f       	std	Y+24, r19	; 0x18
		x+=iX;
		if (x>xf)
		{
			x=xf;
			iX=-iX;
			if (iX<0) iX=-rnd(2,5); else iX=rnd(2,5);
    7938:	16 14       	cp	r1, r6
    793a:	17 04       	cpc	r1, r7
    793c:	94 f0       	brlt	.+36     	; 0x7962 <_Z20Demo_Draw_Ball_PagesPKcm+0x1c8>
/////////////////////////////////////////////////////
//  COMPUTE RANDON NUMBER FROM START TO END
/////////////////////////////////////////////////////
int rnd(int startValue,int endValue)
{
	return rand() % (endValue-startValue+1)+startValue;
    793e:	b4 d5       	rcall	.+2920   	; 0x84a8 <rand>
    7940:	b8 01       	movw	r22, r16
    7942:	f4 d4       	rcall	.+2536   	; 0x832c <__divmodhi4>
    7944:	3c 01       	movw	r6, r24
    7946:	42 e0       	ldi	r20, 0x02	; 2
    7948:	64 0e       	add	r6, r20
    794a:	71 1c       	adc	r7, r1
    794c:	1a c0       	rjmp	.+52     	; 0x7982 <_Z20Demo_Draw_Ball_PagesPKcm+0x1e8>
			iX=-iX;
			if (iX<0) iX=-rnd(2,5); else iX=rnd(2,5);
		}
		else
		{
			if (x<xi)
    794e:	2b 85       	ldd	r18, Y+11	; 0x0b
    7950:	3c 85       	ldd	r19, Y+12	; 0x0c
    7952:	82 16       	cp	r8, r18
    7954:	93 06       	cpc	r9, r19
    7956:	c4 f4       	brge	.+48     	; 0x7988 <_Z20Demo_Draw_Ball_PagesPKcm+0x1ee>
/////////////////////////////////////////////////////
//  COMPUTE RANDON NUMBER FROM START TO END
/////////////////////////////////////////////////////
int rnd(int startValue,int endValue)
{
	return rand() % (endValue-startValue+1)+startValue;
    7958:	2f 8b       	std	Y+23, r18	; 0x17
    795a:	38 8f       	std	Y+24, r19	; 0x18
		{
			if (x<xi)
			{
				x=xi;
				iX=-iX;
				if (iX<0) iX=-rnd(2,5); else iX=rnd(2,5);
    795c:	16 14       	cp	r1, r6
    795e:	17 04       	cpc	r1, r7
    7960:	4c f4       	brge	.+18     	; 0x7974 <_Z20Demo_Draw_Ball_PagesPKcm+0x1da>
/////////////////////////////////////////////////////
//  COMPUTE RANDON NUMBER FROM START TO END
/////////////////////////////////////////////////////
int rnd(int startValue,int endValue)
{
	return rand() % (endValue-startValue+1)+startValue;
    7962:	a2 d5       	rcall	.+2884   	; 0x84a8 <rand>
    7964:	b8 01       	movw	r22, r16
    7966:	e2 d4       	rcall	.+2500   	; 0x832c <__divmodhi4>
    7968:	02 96       	adiw	r24, 0x02	; 2
		{
			if (x<xi)
			{
				x=xi;
				iX=-iX;
				if (iX<0) iX=-rnd(2,5); else iX=rnd(2,5);
    796a:	66 24       	eor	r6, r6
    796c:	77 24       	eor	r7, r7
    796e:	68 1a       	sub	r6, r24
    7970:	79 0a       	sbc	r7, r25
    7972:	07 c0       	rjmp	.+14     	; 0x7982 <_Z20Demo_Draw_Ball_PagesPKcm+0x1e8>
/////////////////////////////////////////////////////
//  COMPUTE RANDON NUMBER FROM START TO END
/////////////////////////////////////////////////////
int rnd(int startValue,int endValue)
{
	return rand() % (endValue-startValue+1)+startValue;
    7974:	99 d5       	rcall	.+2866   	; 0x84a8 <rand>
    7976:	b8 01       	movw	r22, r16
    7978:	d9 d4       	rcall	.+2482   	; 0x832c <__divmodhi4>
    797a:	3c 01       	movw	r6, r24
    797c:	52 e0       	ldi	r21, 0x02	; 2
    797e:	65 0e       	add	r6, r21
    7980:	71 1c       	adc	r7, r1
    7982:	2f 89       	ldd	r18, Y+23	; 0x17
    7984:	38 8d       	ldd	r19, Y+24	; 0x18
    7986:	49 01       	movw	r8, r18
				x=xi;
				iX=-iX;
				if (iX<0) iX=-rnd(2,5); else iX=rnd(2,5);
			}
		}
		y+=iY;
    7988:	e4 0c       	add	r14, r4
    798a:	f5 1c       	adc	r15, r5
		if (y>yf)
    798c:	2d 81       	ldd	r18, Y+5	; 0x05
    798e:	3e 81       	ldd	r19, Y+6	; 0x06
    7990:	2e 15       	cp	r18, r14
    7992:	3f 05       	cpc	r19, r15
    7994:	6c f4       	brge	.+26     	; 0x79b0 <_Z20Demo_Draw_Ball_PagesPKcm+0x216>
/////////////////////////////////////////////////////
//  COMPUTE RANDON NUMBER FROM START TO END
/////////////////////////////////////////////////////
int rnd(int startValue,int endValue)
{
	return rand() % (endValue-startValue+1)+startValue;
    7996:	2f 8b       	std	Y+23, r18	; 0x17
    7998:	38 8f       	std	Y+24, r19	; 0x18
		y+=iY;
		if (y>yf)
		{
			y=yf;
			iY=-iY;
			if (iY<0) iY=-rnd(2,5); else iY=rnd(2,5);
    799a:	14 14       	cp	r1, r4
    799c:	15 04       	cpc	r1, r5
    799e:	94 f0       	brlt	.+36     	; 0x79c4 <_Z20Demo_Draw_Ball_PagesPKcm+0x22a>
/////////////////////////////////////////////////////
//  COMPUTE RANDON NUMBER FROM START TO END
/////////////////////////////////////////////////////
int rnd(int startValue,int endValue)
{
	return rand() % (endValue-startValue+1)+startValue;
    79a0:	83 d5       	rcall	.+2822   	; 0x84a8 <rand>
    79a2:	b8 01       	movw	r22, r16
    79a4:	c3 d4       	rcall	.+2438   	; 0x832c <__divmodhi4>
    79a6:	2c 01       	movw	r4, r24
    79a8:	42 e0       	ldi	r20, 0x02	; 2
    79aa:	44 0e       	add	r4, r20
    79ac:	51 1c       	adc	r5, r1
    79ae:	1a c0       	rjmp	.+52     	; 0x79e4 <_Z20Demo_Draw_Ball_PagesPKcm+0x24a>
			iY=-iY;
			if (iY<0) iY=-rnd(2,5); else iY=rnd(2,5);
		}
		else
		{
			if (y<yi)
    79b0:	29 85       	ldd	r18, Y+9	; 0x09
    79b2:	3a 85       	ldd	r19, Y+10	; 0x0a
    79b4:	e2 16       	cp	r14, r18
    79b6:	f3 06       	cpc	r15, r19
    79b8:	c4 f4       	brge	.+48     	; 0x79ea <_Z20Demo_Draw_Ball_PagesPKcm+0x250>
/////////////////////////////////////////////////////
//  COMPUTE RANDON NUMBER FROM START TO END
/////////////////////////////////////////////////////
int rnd(int startValue,int endValue)
{
	return rand() % (endValue-startValue+1)+startValue;
    79ba:	2f 8b       	std	Y+23, r18	; 0x17
    79bc:	38 8f       	std	Y+24, r19	; 0x18
		{
			if (y<yi)
			{
				y=yi;
				iY=-iY;
				if (iY<0) iY=-rnd(2,5); else iY=rnd(2,5);
    79be:	14 14       	cp	r1, r4
    79c0:	15 04       	cpc	r1, r5
    79c2:	4c f4       	brge	.+18     	; 0x79d6 <_Z20Demo_Draw_Ball_PagesPKcm+0x23c>
/////////////////////////////////////////////////////
//  COMPUTE RANDON NUMBER FROM START TO END
/////////////////////////////////////////////////////
int rnd(int startValue,int endValue)
{
	return rand() % (endValue-startValue+1)+startValue;
    79c4:	71 d5       	rcall	.+2786   	; 0x84a8 <rand>
    79c6:	b8 01       	movw	r22, r16
    79c8:	b1 d4       	rcall	.+2402   	; 0x832c <__divmodhi4>
    79ca:	02 96       	adiw	r24, 0x02	; 2
		{
			if (y<yi)
			{
				y=yi;
				iY=-iY;
				if (iY<0) iY=-rnd(2,5); else iY=rnd(2,5);
    79cc:	44 24       	eor	r4, r4
    79ce:	55 24       	eor	r5, r5
    79d0:	48 1a       	sub	r4, r24
    79d2:	59 0a       	sbc	r5, r25
    79d4:	07 c0       	rjmp	.+14     	; 0x79e4 <_Z20Demo_Draw_Ball_PagesPKcm+0x24a>
/////////////////////////////////////////////////////
//  COMPUTE RANDON NUMBER FROM START TO END
/////////////////////////////////////////////////////
int rnd(int startValue,int endValue)
{
	return rand() % (endValue-startValue+1)+startValue;
    79d6:	68 d5       	rcall	.+2768   	; 0x84a8 <rand>
    79d8:	b8 01       	movw	r22, r16
    79da:	a8 d4       	rcall	.+2384   	; 0x832c <__divmodhi4>
    79dc:	2c 01       	movw	r4, r24
    79de:	52 e0       	ldi	r21, 0x02	; 2
    79e0:	45 0e       	add	r4, r21
    79e2:	51 1c       	adc	r5, r1
    79e4:	2f 89       	ldd	r18, Y+23	; 0x17
    79e6:	38 8d       	ldd	r19, Y+24	; 0x18
    79e8:	79 01       	movw	r14, r18
				if (iY<0) iY=-rnd(2,5); else iY=rnd(2,5);
			}
		}

		//update coords x2,y2
		x2+=iX2;
    79ea:	8d 85       	ldd	r24, Y+13	; 0x0d
    79ec:	9e 85       	ldd	r25, Y+14	; 0x0e
    79ee:	c8 0e       	add	r12, r24
    79f0:	d9 1e       	adc	r13, r25
		if (x2>xf)
    79f2:	2f 81       	ldd	r18, Y+7	; 0x07
    79f4:	38 85       	ldd	r19, Y+8	; 0x08
    79f6:	2c 15       	cp	r18, r12
    79f8:	3d 05       	cpc	r19, r13
    79fa:	3c f0       	brlt	.+14     	; 0x7a0a <_Z20Demo_Draw_Ball_PagesPKcm+0x270>
			iX2=-iX2;
			if (iX2<0) iX2=-rnd(2,5); else iX2=rnd(2,5);
		}
		else
		{
			if (x2<xi)
    79fc:	2b 85       	ldd	r18, Y+11	; 0x0b
    79fe:	3c 85       	ldd	r19, Y+12	; 0x0c
    7a00:	c2 16       	cp	r12, r18
    7a02:	d3 06       	cpc	r13, r19
    7a04:	dc f4       	brge	.+54     	; 0x7a3c <_Z20Demo_Draw_Ball_PagesPKcm+0x2a2>
			{
				x2=xi;
				iX2=-iX2;
				if (iX2<0) iX2=-rnd(2,5); else iX2=rnd(2,5);
    7a06:	8d 85       	ldd	r24, Y+13	; 0x0d
    7a08:	9e 85       	ldd	r25, Y+14	; 0x0e
/////////////////////////////////////////////////////
//  COMPUTE RANDON NUMBER FROM START TO END
/////////////////////////////////////////////////////
int rnd(int startValue,int endValue)
{
	return rand() % (endValue-startValue+1)+startValue;
    7a0a:	2f 8b       	std	Y+23, r18	; 0x17
    7a0c:	38 8f       	std	Y+24, r19	; 0x18
		{
			if (x2<xi)
			{
				x2=xi;
				iX2=-iX2;
				if (iX2<0) iX2=-rnd(2,5); else iX2=rnd(2,5);
    7a0e:	18 16       	cp	r1, r24
    7a10:	19 06       	cpc	r1, r25
    7a12:	4c f4       	brge	.+18     	; 0x7a26 <_Z20Demo_Draw_Ball_PagesPKcm+0x28c>
/////////////////////////////////////////////////////
//  COMPUTE RANDON NUMBER FROM START TO END
/////////////////////////////////////////////////////
int rnd(int startValue,int endValue)
{
	return rand() % (endValue-startValue+1)+startValue;
    7a14:	49 d5       	rcall	.+2706   	; 0x84a8 <rand>
    7a16:	b8 01       	movw	r22, r16
    7a18:	89 d4       	rcall	.+2322   	; 0x832c <__divmodhi4>
    7a1a:	02 96       	adiw	r24, 0x02	; 2
		{
			if (x2<xi)
			{
				x2=xi;
				iX2=-iX2;
				if (iX2<0) iX2=-rnd(2,5); else iX2=rnd(2,5);
    7a1c:	44 27       	eor	r20, r20
    7a1e:	55 27       	eor	r21, r21
    7a20:	48 1b       	sub	r20, r24
    7a22:	59 0b       	sbc	r21, r25
    7a24:	06 c0       	rjmp	.+12     	; 0x7a32 <_Z20Demo_Draw_Ball_PagesPKcm+0x298>
/////////////////////////////////////////////////////
//  COMPUTE RANDON NUMBER FROM START TO END
/////////////////////////////////////////////////////
int rnd(int startValue,int endValue)
{
	return rand() % (endValue-startValue+1)+startValue;
    7a26:	40 d5       	rcall	.+2688   	; 0x84a8 <rand>
    7a28:	b8 01       	movw	r22, r16
    7a2a:	80 d4       	rcall	.+2304   	; 0x832c <__divmodhi4>
    7a2c:	ac 01       	movw	r20, r24
    7a2e:	4e 5f       	subi	r20, 0xFE	; 254
    7a30:	5f 4f       	sbci	r21, 0xFF	; 255
    7a32:	5e 87       	std	Y+14, r21	; 0x0e
    7a34:	4d 87       	std	Y+13, r20	; 0x0d
    7a36:	2f 89       	ldd	r18, Y+23	; 0x17
    7a38:	38 8d       	ldd	r19, Y+24	; 0x18
    7a3a:	69 01       	movw	r12, r18
				x2=xi;
				iX2=-iX2;
				if (iX2<0) iX2=-rnd(2,5); else iX2=rnd(2,5);
			}
		}
		y2+=iY2;
    7a3c:	a2 0c       	add	r10, r2
    7a3e:	b3 1c       	adc	r11, r3
		if (y2>yf)
    7a40:	2d 81       	ldd	r18, Y+5	; 0x05
    7a42:	3e 81       	ldd	r19, Y+6	; 0x06
    7a44:	2a 15       	cp	r18, r10
    7a46:	3b 05       	cpc	r19, r11
    7a48:	6c f4       	brge	.+26     	; 0x7a64 <_Z20Demo_Draw_Ball_PagesPKcm+0x2ca>
/////////////////////////////////////////////////////
//  COMPUTE RANDON NUMBER FROM START TO END
/////////////////////////////////////////////////////
int rnd(int startValue,int endValue)
{
	return rand() % (endValue-startValue+1)+startValue;
    7a4a:	2f 8b       	std	Y+23, r18	; 0x17
    7a4c:	38 8f       	std	Y+24, r19	; 0x18
		y2+=iY2;
		if (y2>yf)
		{
			y2=yf;
			iY2=-iY2;
			if (iY2<0) iY2=-rnd(2,5); else iY2=rnd(2,5);
    7a4e:	12 14       	cp	r1, r2
    7a50:	13 04       	cpc	r1, r3
    7a52:	94 f0       	brlt	.+36     	; 0x7a78 <_Z20Demo_Draw_Ball_PagesPKcm+0x2de>
/////////////////////////////////////////////////////
//  COMPUTE RANDON NUMBER FROM START TO END
/////////////////////////////////////////////////////
int rnd(int startValue,int endValue)
{
	return rand() % (endValue-startValue+1)+startValue;
    7a54:	29 d5       	rcall	.+2642   	; 0x84a8 <rand>
    7a56:	b8 01       	movw	r22, r16
    7a58:	69 d4       	rcall	.+2258   	; 0x832c <__divmodhi4>
    7a5a:	1c 01       	movw	r2, r24
    7a5c:	52 e0       	ldi	r21, 0x02	; 2
    7a5e:	25 0e       	add	r2, r21
    7a60:	31 1c       	adc	r3, r1
    7a62:	1a c0       	rjmp	.+52     	; 0x7a98 <_Z20Demo_Draw_Ball_PagesPKcm+0x2fe>
			iY2=-iY2;
			if (iY2<0) iY2=-rnd(2,5); else iY2=rnd(2,5);
		}
		else
		{
			if (y2<yi)
    7a64:	29 85       	ldd	r18, Y+9	; 0x09
    7a66:	3a 85       	ldd	r19, Y+10	; 0x0a
    7a68:	a2 16       	cp	r10, r18
    7a6a:	b3 06       	cpc	r11, r19
    7a6c:	c4 f4       	brge	.+48     	; 0x7a9e <_Z20Demo_Draw_Ball_PagesPKcm+0x304>
/////////////////////////////////////////////////////
//  COMPUTE RANDON NUMBER FROM START TO END
/////////////////////////////////////////////////////
int rnd(int startValue,int endValue)
{
	return rand() % (endValue-startValue+1)+startValue;
    7a6e:	2f 8b       	std	Y+23, r18	; 0x17
    7a70:	38 8f       	std	Y+24, r19	; 0x18
		{
			if (y2<yi)
			{
				y2=yi;
				iY2=-iY2;
				if (iY2<0) iY2=-rnd(2,5); else iY2=rnd(2,5);
    7a72:	12 14       	cp	r1, r2
    7a74:	13 04       	cpc	r1, r3
    7a76:	4c f4       	brge	.+18     	; 0x7a8a <_Z20Demo_Draw_Ball_PagesPKcm+0x2f0>
/////////////////////////////////////////////////////
//  COMPUTE RANDON NUMBER FROM START TO END
/////////////////////////////////////////////////////
int rnd(int startValue,int endValue)
{
	return rand() % (endValue-startValue+1)+startValue;
    7a78:	17 d5       	rcall	.+2606   	; 0x84a8 <rand>
    7a7a:	b8 01       	movw	r22, r16
    7a7c:	57 d4       	rcall	.+2222   	; 0x832c <__divmodhi4>
    7a7e:	02 96       	adiw	r24, 0x02	; 2
		{
			if (y2<yi)
			{
				y2=yi;
				iY2=-iY2;
				if (iY2<0) iY2=-rnd(2,5); else iY2=rnd(2,5);
    7a80:	22 24       	eor	r2, r2
    7a82:	33 24       	eor	r3, r3
    7a84:	28 1a       	sub	r2, r24
    7a86:	39 0a       	sbc	r3, r25
    7a88:	07 c0       	rjmp	.+14     	; 0x7a98 <_Z20Demo_Draw_Ball_PagesPKcm+0x2fe>
/////////////////////////////////////////////////////
//  COMPUTE RANDON NUMBER FROM START TO END
/////////////////////////////////////////////////////
int rnd(int startValue,int endValue)
{
	return rand() % (endValue-startValue+1)+startValue;
    7a8a:	0e d5       	rcall	.+2588   	; 0x84a8 <rand>
    7a8c:	b8 01       	movw	r22, r16
    7a8e:	4e d4       	rcall	.+2204   	; 0x832c <__divmodhi4>
    7a90:	1c 01       	movw	r2, r24
    7a92:	42 e0       	ldi	r20, 0x02	; 2
    7a94:	24 0e       	add	r2, r20
    7a96:	31 1c       	adc	r3, r1
    7a98:	2f 89       	ldd	r18, Y+23	; 0x17
    7a9a:	38 8d       	ldd	r19, Y+24	; 0x18
    7a9c:	59 01       	movw	r10, r18
				iY2=-iY2;
				if (iY2<0) iY2=-rnd(2,5); else iY2=rnd(2,5);
			}
		}
		//time to exit?
		if (time.GetElapsed(&tExit)>timeToExit) break;
    7a9e:	6d 89       	ldd	r22, Y+21	; 0x15
    7aa0:	7e 89       	ldd	r23, Y+22	; 0x16
    7aa2:	85 e3       	ldi	r24, 0x35	; 53
    7aa4:	94 e0       	ldi	r25, 0x04	; 4
    7aa6:	f4 d3       	rcall	.+2024   	; 0x8290 <_ZN10class_Time10GetElapsedEPm>
		dp.DrawBitMap(x,y,BMP_Ball);
		dp.DrawBitMap(x2,y2,BMP_Ball);
		//swap pages
		uint8_t tmp;
		tmp=aP;
		aP=vP;
    7aa8:	e8 89       	ldd	r30, Y+16	; 0x10
		vP=tmp;
    7aaa:	5f 85       	ldd	r21, Y+15	; 0x0f
    7aac:	58 8b       	std	Y+16, r21	; 0x10
				iY2=-iY2;
				if (iY2<0) iY2=-rnd(2,5); else iY2=rnd(2,5);
			}
		}
		//time to exit?
		if (time.GetElapsed(&tExit)>timeToExit) break;
    7aae:	29 89       	ldd	r18, Y+17	; 0x11
    7ab0:	3a 89       	ldd	r19, Y+18	; 0x12
    7ab2:	4b 89       	ldd	r20, Y+19	; 0x13
    7ab4:	5c 89       	ldd	r21, Y+20	; 0x14
    7ab6:	26 17       	cp	r18, r22
    7ab8:	37 07       	cpc	r19, r23
    7aba:	48 07       	cpc	r20, r24
    7abc:	59 07       	cpc	r21, r25
    7abe:	10 f0       	brcs	.+4      	; 0x7ac4 <_Z20Demo_Draw_Ball_PagesPKcm+0x32a>
		dp.DrawBitMap(x,y,BMP_Ball);
		dp.DrawBitMap(x2,y2,BMP_Ball);
		//swap pages
		uint8_t tmp;
		tmp=aP;
		aP=vP;
    7ac0:	ef 87       	std	Y+15, r30	; 0x0f
    7ac2:	13 cf       	rjmp	.-474    	; 0x78ea <_Z20Demo_Draw_Ball_PagesPKcm+0x150>
		}
		//time to exit?
		if (time.GetElapsed(&tExit)>timeToExit) break;
	}
	//defalt active pages
	dp.SetGraphActivePage(1);
    7ac4:	61 e0       	ldi	r22, 0x01	; 1
    7ac6:	8c e3       	ldi	r24, 0x3C	; 60
    7ac8:	94 e0       	ldi	r25, 0x04	; 4
    7aca:	0e 94 84 27 	call	0x4f08	; 0x4f08 <_ZN23class_T6963C_Drive_V14118SetGraphActivePageEh>
	dp.SetGraphVisiblePage(1);
    7ace:	61 e0       	ldi	r22, 0x01	; 1
    7ad0:	8c e3       	ldi	r24, 0x3C	; 60
    7ad2:	94 e0       	ldi	r25, 0x04	; 4
    7ad4:	0e 94 8c 27 	call	0x4f18	; 0x4f18 <_ZN23class_T6963C_Drive_V14119SetGraphVisiblePageEh>
}
    7ad8:	68 96       	adiw	r28, 0x18	; 24
    7ada:	0f b6       	in	r0, 0x3f	; 63
    7adc:	f8 94       	cli
    7ade:	de bf       	out	0x3e, r29	; 62
    7ae0:	0f be       	out	0x3f, r0	; 63
    7ae2:	cd bf       	out	0x3d, r28	; 61
    7ae4:	df 91       	pop	r29
    7ae6:	cf 91       	pop	r28
    7ae8:	1f 91       	pop	r17
    7aea:	0f 91       	pop	r16
    7aec:	ff 90       	pop	r15
    7aee:	ef 90       	pop	r14
    7af0:	df 90       	pop	r13
    7af2:	cf 90       	pop	r12
    7af4:	bf 90       	pop	r11
    7af6:	af 90       	pop	r10
    7af8:	9f 90       	pop	r9
    7afa:	8f 90       	pop	r8
    7afc:	7f 90       	pop	r7
    7afe:	6f 90       	pop	r6
    7b00:	5f 90       	pop	r5
    7b02:	4f 90       	pop	r4
    7b04:	3f 90       	pop	r3
    7b06:	2f 90       	pop	r2
    7b08:	08 95       	ret

00007b0a <_GLOBAL__sub_I_dp>:
		Demo_Draw_Ball_Pages(			PSTR("Ball Animation using\r\n    Graph Pages\r\n    and BitMap"),20000);
		Demo_Clear_Screen();

	}

}
    7b0a:	0f 93       	push	r16
    7b0c:	1f 93       	push	r17

/////////////////////////////////////////////////////
//  INITIALIZE CLASSES
/////////////////////////////////////////////////////

class_T6963C_Drive_V141	dp(16,20,20,_T6963C_ScanMode::DUAL);
    7b0e:	01 e0       	ldi	r16, 0x01	; 1
    7b10:	10 e0       	ldi	r17, 0x00	; 0
    7b12:	24 e1       	ldi	r18, 0x14	; 20
    7b14:	44 e1       	ldi	r20, 0x14	; 20
    7b16:	60 e1       	ldi	r22, 0x10	; 16
    7b18:	8c e3       	ldi	r24, 0x3C	; 60
    7b1a:	94 e0       	ldi	r25, 0x04	; 4
    7b1c:	0e 94 55 2a 	call	0x54aa	; 0x54aa <_ZN23class_T6963C_Drive_V141C1Ehhh21_enum_T6963C_ScanMode>
class_Time				time;
    7b20:	85 e3       	ldi	r24, 0x35	; 53
    7b22:	94 e0       	ldi	r25, 0x04	; 4
		Demo_Draw_Ball_Pages(			PSTR("Ball Animation using\r\n    Graph Pages\r\n    and BitMap"),20000);
		Demo_Clear_Screen();

	}

}
    7b24:	1f 91       	pop	r17
    7b26:	0f 91       	pop	r16
/////////////////////////////////////////////////////
//  INITIALIZE CLASSES
/////////////////////////////////////////////////////

class_T6963C_Drive_V141	dp(16,20,20,_T6963C_ScanMode::DUAL);
class_Time				time;
    7b28:	d2 c2       	rjmp	.+1444   	; 0x80ce <_ZN10class_TimeC1Ev>

00007b2a <_GLOBAL__sub_D_dp>:

/////////////////////////////////////////////////////
//  INITIALIZE CLASSES
/////////////////////////////////////////////////////

class_T6963C_Drive_V141	dp(16,20,20,_T6963C_ScanMode::DUAL);
    7b2a:	8c e3       	ldi	r24, 0x3C	; 60
    7b2c:	94 e0       	ldi	r25, 0x04	; 4
    7b2e:	0c 94 ab 24 	jmp	0x4956	; 0x4956 <_ZN23class_T6963C_Drive_V141D1Ev>

00007b32 <_Z22Demo_Pixel_PerformancePKcm>:
}
/////////////////////////////////////////////////////
//  PIXEL PERFORMANCE
/////////////////////////////////////////////////////
void Demo_Pixel_Performance(const char *titleString,uint32_t timeToExit)
{
    7b32:	8f 92       	push	r8
    7b34:	9f 92       	push	r9
    7b36:	af 92       	push	r10
    7b38:	bf 92       	push	r11
    7b3a:	cf 92       	push	r12
    7b3c:	df 92       	push	r13
    7b3e:	ef 92       	push	r14
    7b40:	ff 92       	push	r15
    7b42:	0f 93       	push	r16
    7b44:	1f 93       	push	r17
    7b46:	cf 93       	push	r28
    7b48:	df 93       	push	r29
    7b4a:	cd b7       	in	r28, 0x3d	; 61
    7b4c:	de b7       	in	r29, 0x3e	; 62
    7b4e:	2c 97       	sbiw	r28, 0x0c	; 12
    7b50:	0f b6       	in	r0, 0x3f	; 63
    7b52:	f8 94       	cli
    7b54:	de bf       	out	0x3e, r29	; 62
    7b56:	0f be       	out	0x3f, r0	; 63
    7b58:	cd bf       	out	0x3d, r28	; 61
    7b5a:	4a 01       	movw	r8, r20
    7b5c:	5b 01       	movw	r10, r22
	uint32_t	tExit,PixelCount;
	int			xi,yi,xf,yf,
				x,y;

	DrawTitle(titleString);
    7b5e:	0e 94 a8 30 	call	0x6150	; 0x6150 <_Z9DrawTitlePKc>

	//get window position
	dp.GetWindow(xi,yi,xf,yf);
    7b62:	8e 01       	movw	r16, r28
    7b64:	0b 5f       	subi	r16, 0xFB	; 251
    7b66:	1f 4f       	sbci	r17, 0xFF	; 255
    7b68:	9e 01       	movw	r18, r28
    7b6a:	29 5f       	subi	r18, 0xF9	; 249
    7b6c:	3f 4f       	sbci	r19, 0xFF	; 255
    7b6e:	ae 01       	movw	r20, r28
    7b70:	47 5f       	subi	r20, 0xF7	; 247
    7b72:	5f 4f       	sbci	r21, 0xFF	; 255
    7b74:	be 01       	movw	r22, r28
    7b76:	65 5f       	subi	r22, 0xF5	; 245
    7b78:	7f 4f       	sbci	r23, 0xFF	; 255
    7b7a:	8c e3       	ldi	r24, 0x3C	; 60
    7b7c:	94 e0       	ldi	r25, 0x04	; 4
    7b7e:	0e 94 32 2b 	call	0x5664	; 0x5664 <_ZN23class_T6963C_Drive_V1419GetWindowERiS0_S0_S0_>

	//clear timers
	time.SetElapsed(&tExit);
    7b82:	be 01       	movw	r22, r28
    7b84:	6f 5f       	subi	r22, 0xFF	; 255
    7b86:	7f 4f       	sbci	r23, 0xFF	; 255
    7b88:	85 e3       	ldi	r24, 0x35	; 53
    7b8a:	94 e0       	ldi	r25, 0x04	; 4
    7b8c:	76 d3       	rcall	.+1772   	; 0x827a <_ZN10class_Time10SetElapsedEPm>
	
	PixelCount=0;
    7b8e:	c1 2c       	mov	r12, r1
    7b90:	d1 2c       	mov	r13, r1
    7b92:	76 01       	movw	r14, r12
	//main loop
	for(;;)
	{
		//Compute random points range from xi..xf,yi..yf
		x=rnd(xi,xf);
    7b94:	6f 81       	ldd	r22, Y+7	; 0x07
    7b96:	78 85       	ldd	r23, Y+8	; 0x08
    7b98:	8b 85       	ldd	r24, Y+11	; 0x0b
    7b9a:	9c 85       	ldd	r25, Y+12	; 0x0c
    7b9c:	0e 94 66 2f 	call	0x5ecc	; 0x5ecc <_Z3rndii>
    7ba0:	8c 01       	movw	r16, r24
		y=rnd(yi,yf);
    7ba2:	6d 81       	ldd	r22, Y+5	; 0x05
    7ba4:	7e 81       	ldd	r23, Y+6	; 0x06
    7ba6:	89 85       	ldd	r24, Y+9	; 0x09
    7ba8:	9a 85       	ldd	r25, Y+10	; 0x0a
    7baa:	0e 94 66 2f 	call	0x5ecc	; 0x5ecc <_Z3rndii>
		//draw box
		dp.SetPixel(x,y);
    7bae:	21 e0       	ldi	r18, 0x01	; 1
    7bb0:	ac 01       	movw	r20, r24
    7bb2:	b8 01       	movw	r22, r16
    7bb4:	8c e3       	ldi	r24, 0x3C	; 60
    7bb6:	94 e0       	ldi	r25, 0x04	; 4
    7bb8:	0e 94 56 26 	call	0x4cac	; 0x4cac <_ZN23class_T6963C_Drive_V1418SetPixelEiih>
		PixelCount++;
    7bbc:	8f ef       	ldi	r24, 0xFF	; 255
    7bbe:	c8 1a       	sub	r12, r24
    7bc0:	d8 0a       	sbc	r13, r24
    7bc2:	e8 0a       	sbc	r14, r24
    7bc4:	f8 0a       	sbc	r15, r24
		//check if time to exit
		if (time.GetElapsed(&tExit)>timeToExit) break;
    7bc6:	be 01       	movw	r22, r28
    7bc8:	6f 5f       	subi	r22, 0xFF	; 255
    7bca:	7f 4f       	sbci	r23, 0xFF	; 255
    7bcc:	85 e3       	ldi	r24, 0x35	; 53
    7bce:	94 e0       	ldi	r25, 0x04	; 4
    7bd0:	5f d3       	rcall	.+1726   	; 0x8290 <_ZN10class_Time10GetElapsedEPm>
    7bd2:	86 16       	cp	r8, r22
    7bd4:	97 06       	cpc	r9, r23
    7bd6:	a8 06       	cpc	r10, r24
    7bd8:	b9 06       	cpc	r11, r25
    7bda:	e0 f6       	brcc	.-72     	; 0x7b94 <_Z22Demo_Pixel_PerformancePKcm+0x62>
	}
	//print results
	dp.ClsGraph();
    7bdc:	8c e3       	ldi	r24, 0x3C	; 60
    7bde:	94 e0       	ldi	r25, 0x04	; 4
    7be0:	0e 94 21 28 	call	0x5042	; 0x5042 <_ZN23class_T6963C_Drive_V1418ClsGraphEv>
	dp.LocateXY(8,yi+8);
    7be4:	89 85       	ldd	r24, Y+9	; 0x09
    7be6:	9a 85       	ldd	r25, Y+10	; 0x0a
    7be8:	ac 01       	movw	r20, r24
    7bea:	48 5f       	subi	r20, 0xF8	; 248
    7bec:	5f 4f       	sbci	r21, 0xFF	; 255
    7bee:	68 e0       	ldi	r22, 0x08	; 8
    7bf0:	70 e0       	ldi	r23, 0x00	; 0
    7bf2:	8c e3       	ldi	r24, 0x3C	; 60
    7bf4:	94 e0       	ldi	r25, 0x04	; 4
    7bf6:	0e 94 e5 25 	call	0x4bca	; 0x4bca <_ZN23class_T6963C_Drive_V1418LocateXYEii>
	//12345678901234567890
	sprintf(bf,"%lu Pixels/Sec",PixelCount/10);
    7bfa:	c7 01       	movw	r24, r14
    7bfc:	b6 01       	movw	r22, r12
    7bfe:	2a e0       	ldi	r18, 0x0A	; 10
    7c00:	30 e0       	ldi	r19, 0x00	; 0
    7c02:	40 e0       	ldi	r20, 0x00	; 0
    7c04:	50 e0       	ldi	r21, 0x00	; 0
    7c06:	a5 d3       	rcall	.+1866   	; 0x8352 <__udivmodsi4>
    7c08:	5f 93       	push	r21
    7c0a:	4f 93       	push	r20
    7c0c:	3f 93       	push	r19
    7c0e:	2f 93       	push	r18
    7c10:	86 ef       	ldi	r24, 0xF6	; 246
    7c12:	92 e0       	ldi	r25, 0x02	; 2
    7c14:	9f 93       	push	r25
    7c16:	8f 93       	push	r24
    7c18:	88 e0       	ldi	r24, 0x08	; 8
    7c1a:	93 e0       	ldi	r25, 0x03	; 3
    7c1c:	9f 93       	push	r25
    7c1e:	8f 93       	push	r24
    7c20:	5a d4       	rcall	.+2228   	; 0x84d6 <sprintf>
	DrawGTextCentered(bf,false);
    7c22:	60 e0       	ldi	r22, 0x00	; 0
    7c24:	88 e0       	ldi	r24, 0x08	; 8
    7c26:	93 e0       	ldi	r25, 0x03	; 3
    7c28:	0e 94 9e 2f 	call	0x5f3c	; 0x5f3c <_Z17DrawGTextCenteredPKcb>
	//dp.GPutS(bf);
	//little time to show results
	time.DelayMillisByInterrupt(timeToExit/5);
    7c2c:	c5 01       	movw	r24, r10
    7c2e:	b4 01       	movw	r22, r8
    7c30:	25 e0       	ldi	r18, 0x05	; 5
    7c32:	30 e0       	ldi	r19, 0x00	; 0
    7c34:	40 e0       	ldi	r20, 0x00	; 0
    7c36:	50 e0       	ldi	r21, 0x00	; 0
    7c38:	8c d3       	rcall	.+1816   	; 0x8352 <__udivmodsi4>
    7c3a:	ba 01       	movw	r22, r20
    7c3c:	a9 01       	movw	r20, r18
    7c3e:	85 e3       	ldi	r24, 0x35	; 53
    7c40:	94 e0       	ldi	r25, 0x04	; 4
    7c42:	39 d3       	rcall	.+1650   	; 0x82b6 <_ZN10class_Time22DelayMillisByInterruptEm>
    7c44:	0f b6       	in	r0, 0x3f	; 63
    7c46:	f8 94       	cli
    7c48:	de bf       	out	0x3e, r29	; 62
    7c4a:	0f be       	out	0x3f, r0	; 63
    7c4c:	cd bf       	out	0x3d, r28	; 61
}
    7c4e:	2c 96       	adiw	r28, 0x0c	; 12
    7c50:	0f b6       	in	r0, 0x3f	; 63
    7c52:	f8 94       	cli
    7c54:	de bf       	out	0x3e, r29	; 62
    7c56:	0f be       	out	0x3f, r0	; 63
    7c58:	cd bf       	out	0x3d, r28	; 61
    7c5a:	df 91       	pop	r29
    7c5c:	cf 91       	pop	r28
    7c5e:	1f 91       	pop	r17
    7c60:	0f 91       	pop	r16
    7c62:	ff 90       	pop	r15
    7c64:	ef 90       	pop	r14
    7c66:	df 90       	pop	r13
    7c68:	cf 90       	pop	r12
    7c6a:	bf 90       	pop	r11
    7c6c:	af 90       	pop	r10
    7c6e:	9f 90       	pop	r9
    7c70:	8f 90       	pop	r8
    7c72:	08 95       	ret

00007c74 <_Z10Demo_TextsPKcm>:

/////////////////////////////////////////////////////
//  Texts
/////////////////////////////////////////////////////
void Demo_Texts(const char *titleString,uint32_t timeToExit)
{
    7c74:	cf 92       	push	r12
    7c76:	df 92       	push	r13
    7c78:	ef 92       	push	r14
    7c7a:	ff 92       	push	r15
    7c7c:	0f 93       	push	r16
    7c7e:	1f 93       	push	r17
    7c80:	cf 93       	push	r28
    7c82:	df 93       	push	r29
    7c84:	cd b7       	in	r28, 0x3d	; 61
    7c86:	de b7       	in	r29, 0x3e	; 62
    7c88:	28 97       	sbiw	r28, 0x08	; 8
    7c8a:	0f b6       	in	r0, 0x3f	; 63
    7c8c:	f8 94       	cli
    7c8e:	de bf       	out	0x3e, r29	; 62
    7c90:	0f be       	out	0x3f, r0	; 63
    7c92:	cd bf       	out	0x3d, r28	; 61
    7c94:	6a 01       	movw	r12, r20
    7c96:	7b 01       	movw	r14, r22
	int			xi,yi,xf,yf;

	DrawTitle(titleString);
    7c98:	0e 94 a8 30 	call	0x6150	; 0x6150 <_Z9DrawTitlePKc>

	//get window position
	dp.GetWindow(xi,yi,xf,yf);
    7c9c:	8e 01       	movw	r16, r28
    7c9e:	0f 5f       	subi	r16, 0xFF	; 255
    7ca0:	1f 4f       	sbci	r17, 0xFF	; 255
    7ca2:	9e 01       	movw	r18, r28
    7ca4:	2d 5f       	subi	r18, 0xFD	; 253
    7ca6:	3f 4f       	sbci	r19, 0xFF	; 255
    7ca8:	ae 01       	movw	r20, r28
    7caa:	4b 5f       	subi	r20, 0xFB	; 251
    7cac:	5f 4f       	sbci	r21, 0xFF	; 255
    7cae:	be 01       	movw	r22, r28
    7cb0:	69 5f       	subi	r22, 0xF9	; 249
    7cb2:	7f 4f       	sbci	r23, 0xFF	; 255
    7cb4:	8c e3       	ldi	r24, 0x3C	; 60
    7cb6:	94 e0       	ldi	r25, 0x04	; 4
    7cb8:	0e 94 32 2b 	call	0x5664	; 0x5664 <_ZN23class_T6963C_Drive_V1419GetWindowERiS0_S0_S0_>
    7cbc:	10 92 3f 04 	sts	0x043F, r1
    7cc0:	10 92 3e 04 	sts	0x043E, r1

	dp.SetDrawMode(DrawMode::LINE);
	dp.DrawHorzLine((yf+yi)/2,xi,xf,Pen::Black);
    7cc4:	2b 81       	ldd	r18, Y+3	; 0x03
    7cc6:	3c 81       	ldd	r19, Y+4	; 0x04
    7cc8:	4f 81       	ldd	r20, Y+7	; 0x07
    7cca:	58 85       	ldd	r21, Y+8	; 0x08
    7ccc:	69 81       	ldd	r22, Y+1	; 0x01
    7cce:	7a 81       	ldd	r23, Y+2	; 0x02
    7cd0:	8d 81       	ldd	r24, Y+5	; 0x05
    7cd2:	9e 81       	ldd	r25, Y+6	; 0x06
    7cd4:	68 0f       	add	r22, r24
    7cd6:	79 1f       	adc	r23, r25
    7cd8:	77 ff       	sbrs	r23, 7
    7cda:	02 c0       	rjmp	.+4      	; 0x7ce0 <_Z10Demo_TextsPKcm+0x6c>
    7cdc:	6f 5f       	subi	r22, 0xFF	; 255
    7cde:	7f 4f       	sbci	r23, 0xFF	; 255
    7ce0:	75 95       	asr	r23
    7ce2:	67 95       	ror	r22
    7ce4:	0f ef       	ldi	r16, 0xFF	; 255
    7ce6:	10 e0       	ldi	r17, 0x00	; 0
    7ce8:	8c e3       	ldi	r24, 0x3C	; 60
    7cea:	94 e0       	ldi	r25, 0x04	; 4
    7cec:	0e 94 f9 24 	call	0x49f2	; 0x49f2 <_ZN23class_T6963C_Drive_V14112DrawHorzLineEiii9_enum_Pen>

	dp.LocateRC(6,2);
    7cf0:	42 e0       	ldi	r20, 0x02	; 2
    7cf2:	66 e0       	ldi	r22, 0x06	; 6
    7cf4:	8c e3       	ldi	r24, 0x3C	; 60
    7cf6:	94 e0       	ldi	r25, 0x04	; 4
    7cf8:	0e 94 a5 26 	call	0x4d4a	; 0x4d4a <_ZN23class_T6963C_Drive_V1418LocateRCEaa>
	dp.PutSF(PSTR("This a text\r\n hardware generate\r\n\r\n ABCDEFGHIJKL..."));
    7cfc:	63 ea       	ldi	r22, 0xA3	; 163
    7cfe:	77 e0       	ldi	r23, 0x07	; 7
    7d00:	8c e3       	ldi	r24, 0x3C	; 60
    7d02:	94 e0       	ldi	r25, 0x04	; 4
    7d04:	0e 94 68 27 	call	0x4ed0	; 0x4ed0 <_ZN23class_T6963C_Drive_V1415PutSFEPKc>
	dp.LocateXY(6,yi+6*8+4);
    7d08:	8d 81       	ldd	r24, Y+5	; 0x05
    7d0a:	9e 81       	ldd	r25, Y+6	; 0x06
    7d0c:	ac 01       	movw	r20, r24
    7d0e:	4c 5c       	subi	r20, 0xCC	; 204
    7d10:	5f 4f       	sbci	r21, 0xFF	; 255
    7d12:	66 e0       	ldi	r22, 0x06	; 6
    7d14:	70 e0       	ldi	r23, 0x00	; 0
    7d16:	8c e3       	ldi	r24, 0x3C	; 60
    7d18:	94 e0       	ldi	r25, 0x04	; 4
    7d1a:	0e 94 e5 25 	call	0x4bca	; 0x4bca <_ZN23class_T6963C_Drive_V1418LocateXYEii>
	dp.GPutSF(PSTR("This a text\r\n graph generate\r\n\r\n ABCDEFGHIJKL..."));
    7d1e:	41 e0       	ldi	r20, 0x01	; 1
    7d20:	62 e7       	ldi	r22, 0x72	; 114
    7d22:	77 e0       	ldi	r23, 0x07	; 7
    7d24:	8c e3       	ldi	r24, 0x3C	; 60
    7d26:	94 e0       	ldi	r25, 0x04	; 4
    7d28:	0e 94 4e 2f 	call	0x5e9c	; 0x5e9c <_ZN23class_T6963C_Drive_V1416GPutSFEPKch>
	//delay to exit
	time.DelayMillisByInterrupt(timeToExit);
    7d2c:	b7 01       	movw	r22, r14
    7d2e:	a6 01       	movw	r20, r12
    7d30:	85 e3       	ldi	r24, 0x35	; 53
    7d32:	94 e0       	ldi	r25, 0x04	; 4
    7d34:	c0 d2       	rcall	.+1408   	; 0x82b6 <_ZN10class_Time22DelayMillisByInterruptEm>
}
    7d36:	28 96       	adiw	r28, 0x08	; 8
    7d38:	0f b6       	in	r0, 0x3f	; 63
    7d3a:	f8 94       	cli
    7d3c:	de bf       	out	0x3e, r29	; 62
    7d3e:	0f be       	out	0x3f, r0	; 63
    7d40:	cd bf       	out	0x3d, r28	; 61
    7d42:	df 91       	pop	r29
    7d44:	cf 91       	pop	r28
    7d46:	1f 91       	pop	r17
    7d48:	0f 91       	pop	r16
    7d4a:	ff 90       	pop	r15
    7d4c:	ef 90       	pop	r14
    7d4e:	df 90       	pop	r13
    7d50:	cf 90       	pop	r12
    7d52:	08 95       	ret

00007d54 <_Z16Demo_Copy_BitMapPKcm>:

/////////////////////////////////////////////////////
//  Copy BitMap using SetPixel and GetPixel
/////////////////////////////////////////////////////
void Demo_Copy_BitMap(const char *titleString,uint32_t timeToExit)
{
    7d54:	8f 92       	push	r8
    7d56:	9f 92       	push	r9
    7d58:	af 92       	push	r10
    7d5a:	bf 92       	push	r11
    7d5c:	cf 92       	push	r12
    7d5e:	df 92       	push	r13
    7d60:	ef 92       	push	r14
    7d62:	ff 92       	push	r15
    7d64:	0f 93       	push	r16
    7d66:	1f 93       	push	r17
    7d68:	cf 93       	push	r28
    7d6a:	df 93       	push	r29
    7d6c:	cd b7       	in	r28, 0x3d	; 61
    7d6e:	de b7       	in	r29, 0x3e	; 62
    7d70:	29 97       	sbiw	r28, 0x09	; 9
    7d72:	0f b6       	in	r0, 0x3f	; 63
    7d74:	f8 94       	cli
    7d76:	de bf       	out	0x3e, r29	; 62
    7d78:	0f be       	out	0x3f, r0	; 63
    7d7a:	cd bf       	out	0x3d, r28	; 61
    7d7c:	4a 01       	movw	r8, r20
    7d7e:	5b 01       	movw	r10, r22
	int			xi,yi,xf,yf;

	DrawTitle(titleString);
    7d80:	0e 94 a8 30 	call	0x6150	; 0x6150 <_Z9DrawTitlePKc>

	//get window position
	dp.GetWindow(xi,yi,xf,yf);
    7d84:	8e 01       	movw	r16, r28
    7d86:	0f 5f       	subi	r16, 0xFF	; 255
    7d88:	1f 4f       	sbci	r17, 0xFF	; 255
    7d8a:	9e 01       	movw	r18, r28
    7d8c:	2d 5f       	subi	r18, 0xFD	; 253
    7d8e:	3f 4f       	sbci	r19, 0xFF	; 255
    7d90:	ae 01       	movw	r20, r28
    7d92:	4b 5f       	subi	r20, 0xFB	; 251
    7d94:	5f 4f       	sbci	r21, 0xFF	; 255
    7d96:	be 01       	movw	r22, r28
    7d98:	69 5f       	subi	r22, 0xF9	; 249
    7d9a:	7f 4f       	sbci	r23, 0xFF	; 255
    7d9c:	8c e3       	ldi	r24, 0x3C	; 60
    7d9e:	94 e0       	ldi	r25, 0x04	; 4
    7da0:	0e 94 32 2b 	call	0x5664	; 0x5664 <_ZN23class_T6963C_Drive_V1419GetWindowERiS0_S0_S0_>

	
	dp.DrawBitMap(xi,yi,BMP_mario_bros);
    7da4:	4d 81       	ldd	r20, Y+5	; 0x05
    7da6:	5e 81       	ldd	r21, Y+6	; 0x06
    7da8:	6f 81       	ldd	r22, Y+7	; 0x07
    7daa:	78 85       	ldd	r23, Y+8	; 0x08
    7dac:	2d e2       	ldi	r18, 0x2D	; 45
    7dae:	30 e1       	ldi	r19, 0x10	; 16
    7db0:	8c e3       	ldi	r24, 0x3C	; 60
    7db2:	94 e0       	ldi	r25, 0x04	; 4
    7db4:	0e 94 80 2b 	call	0x5700	; 0x5700 <_ZN23class_T6963C_Drive_V14110DrawBitMapEiiPKh>

	for(int y=0;y<dp.GetBMPHeight(BMP_mario_bros);y++)
    7db8:	00 e0       	ldi	r16, 0x00	; 0
    7dba:	10 e0       	ldi	r17, 0x00	; 0
    7dbc:	6d e2       	ldi	r22, 0x2D	; 45
    7dbe:	70 e1       	ldi	r23, 0x10	; 16
    7dc0:	8c e3       	ldi	r24, 0x3C	; 60
    7dc2:	94 e0       	ldi	r25, 0x04	; 4
    7dc4:	0e 94 67 2b 	call	0x56ce	; 0x56ce <_ZN23class_T6963C_Drive_V14112GetBMPHeightEPKh>
    7dc8:	08 17       	cp	r16, r24
    7dca:	19 07       	cpc	r17, r25
    7dcc:	0c f0       	brlt	.+2      	; 0x7dd0 <_Z16Demo_Copy_BitMapPKcm+0x7c>
    7dce:	6e c0       	rjmp	.+220    	; 0x7eac <_Z16Demo_Copy_BitMapPKcm+0x158>
    7dd0:	e1 2c       	mov	r14, r1
    7dd2:	f1 2c       	mov	r15, r1
	{
		for(int x=0;x<dp.GetBMPWidth(BMP_mario_bros);x++)
    7dd4:	6d e2       	ldi	r22, 0x2D	; 45
    7dd6:	70 e1       	ldi	r23, 0x10	; 16
    7dd8:	8c e3       	ldi	r24, 0x3C	; 60
    7dda:	94 e0       	ldi	r25, 0x04	; 4
    7ddc:	0e 94 4e 2b 	call	0x569c	; 0x569c <_ZN23class_T6963C_Drive_V14111GetBMPWidthEPKh>
    7de0:	e8 16       	cp	r14, r24
    7de2:	f9 06       	cpc	r15, r25
    7de4:	0c f0       	brlt	.+2      	; 0x7de8 <_Z16Demo_Copy_BitMapPKcm+0x94>
    7de6:	5f c0       	rjmp	.+190    	; 0x7ea6 <_Z16Demo_Copy_BitMapPKcm+0x152>
		{
			dp.SetPixel(x+80,y+yi,dp.GetPixel(x+xi,y+yi));
    7de8:	4d 81       	ldd	r20, Y+5	; 0x05
    7dea:	5e 81       	ldd	r21, Y+6	; 0x06
    7dec:	40 0f       	add	r20, r16
    7dee:	51 1f       	adc	r21, r17
    7df0:	6f 81       	ldd	r22, Y+7	; 0x07
    7df2:	78 85       	ldd	r23, Y+8	; 0x08
    7df4:	6e 0d       	add	r22, r14
    7df6:	7f 1d       	adc	r23, r15
    7df8:	8c e3       	ldi	r24, 0x3C	; 60
    7dfa:	94 e0       	ldi	r25, 0x04	; 4
    7dfc:	0e 94 85 26 	call	0x4d0a	; 0x4d0a <_ZN23class_T6963C_Drive_V1418GetPixelEii>
    7e00:	67 01       	movw	r12, r14
    7e02:	90 e5       	ldi	r25, 0x50	; 80
    7e04:	c9 0e       	add	r12, r25
    7e06:	d1 1c       	adc	r13, r1
    7e08:	4d 81       	ldd	r20, Y+5	; 0x05
    7e0a:	5e 81       	ldd	r21, Y+6	; 0x06
    7e0c:	40 0f       	add	r20, r16
    7e0e:	51 1f       	adc	r21, r17
    7e10:	28 2f       	mov	r18, r24
    7e12:	b6 01       	movw	r22, r12
    7e14:	8c e3       	ldi	r24, 0x3C	; 60
    7e16:	94 e0       	ldi	r25, 0x04	; 4
    7e18:	0e 94 56 26 	call	0x4cac	; 0x4cac <_ZN23class_T6963C_Drive_V1418SetPixelEiih>
			dp.SetPixel(x+80,y+dp.GetBMPHeight(BMP_mario_bros) +yi,dp.GetPixel(x+xi,y+yi));
    7e1c:	4d 81       	ldd	r20, Y+5	; 0x05
    7e1e:	5e 81       	ldd	r21, Y+6	; 0x06
    7e20:	40 0f       	add	r20, r16
    7e22:	51 1f       	adc	r21, r17
    7e24:	6f 81       	ldd	r22, Y+7	; 0x07
    7e26:	78 85       	ldd	r23, Y+8	; 0x08
    7e28:	6e 0d       	add	r22, r14
    7e2a:	7f 1d       	adc	r23, r15
    7e2c:	8c e3       	ldi	r24, 0x3C	; 60
    7e2e:	94 e0       	ldi	r25, 0x04	; 4
    7e30:	0e 94 85 26 	call	0x4d0a	; 0x4d0a <_ZN23class_T6963C_Drive_V1418GetPixelEii>
    7e34:	28 2f       	mov	r18, r24
    7e36:	6d e2       	ldi	r22, 0x2D	; 45
    7e38:	70 e1       	ldi	r23, 0x10	; 16
    7e3a:	8c e3       	ldi	r24, 0x3C	; 60
    7e3c:	94 e0       	ldi	r25, 0x04	; 4
    7e3e:	29 87       	std	Y+9, r18	; 0x09
    7e40:	0e 94 67 2b 	call	0x56ce	; 0x56ce <_ZN23class_T6963C_Drive_V14112GetBMPHeightEPKh>
    7e44:	80 0f       	add	r24, r16
    7e46:	91 1f       	adc	r25, r17
    7e48:	4d 81       	ldd	r20, Y+5	; 0x05
    7e4a:	5e 81       	ldd	r21, Y+6	; 0x06
    7e4c:	48 0f       	add	r20, r24
    7e4e:	59 1f       	adc	r21, r25
    7e50:	29 85       	ldd	r18, Y+9	; 0x09
    7e52:	b6 01       	movw	r22, r12
    7e54:	8c e3       	ldi	r24, 0x3C	; 60
    7e56:	94 e0       	ldi	r25, 0x04	; 4
    7e58:	0e 94 56 26 	call	0x4cac	; 0x4cac <_ZN23class_T6963C_Drive_V1418SetPixelEiih>
			dp.SetPixel(x,y+dp.GetBMPHeight(BMP_mario_bros)+yi,dp.GetPixel(x+xi,y+yi));
    7e5c:	4d 81       	ldd	r20, Y+5	; 0x05
    7e5e:	5e 81       	ldd	r21, Y+6	; 0x06
    7e60:	40 0f       	add	r20, r16
    7e62:	51 1f       	adc	r21, r17
    7e64:	6f 81       	ldd	r22, Y+7	; 0x07
    7e66:	78 85       	ldd	r23, Y+8	; 0x08
    7e68:	6e 0d       	add	r22, r14
    7e6a:	7f 1d       	adc	r23, r15
    7e6c:	8c e3       	ldi	r24, 0x3C	; 60
    7e6e:	94 e0       	ldi	r25, 0x04	; 4
    7e70:	0e 94 85 26 	call	0x4d0a	; 0x4d0a <_ZN23class_T6963C_Drive_V1418GetPixelEii>
    7e74:	28 2f       	mov	r18, r24
    7e76:	6d e2       	ldi	r22, 0x2D	; 45
    7e78:	70 e1       	ldi	r23, 0x10	; 16
    7e7a:	8c e3       	ldi	r24, 0x3C	; 60
    7e7c:	94 e0       	ldi	r25, 0x04	; 4
    7e7e:	29 87       	std	Y+9, r18	; 0x09
    7e80:	0e 94 67 2b 	call	0x56ce	; 0x56ce <_ZN23class_T6963C_Drive_V14112GetBMPHeightEPKh>
    7e84:	80 0f       	add	r24, r16
    7e86:	91 1f       	adc	r25, r17
    7e88:	6d 81       	ldd	r22, Y+5	; 0x05
    7e8a:	7e 81       	ldd	r23, Y+6	; 0x06
    7e8c:	ac 01       	movw	r20, r24
    7e8e:	46 0f       	add	r20, r22
    7e90:	57 1f       	adc	r21, r23
    7e92:	29 85       	ldd	r18, Y+9	; 0x09
    7e94:	b7 01       	movw	r22, r14
    7e96:	8c e3       	ldi	r24, 0x3C	; 60
    7e98:	94 e0       	ldi	r25, 0x04	; 4
    7e9a:	0e 94 56 26 	call	0x4cac	; 0x4cac <_ZN23class_T6963C_Drive_V1418SetPixelEiih>
	
	dp.DrawBitMap(xi,yi,BMP_mario_bros);

	for(int y=0;y<dp.GetBMPHeight(BMP_mario_bros);y++)
	{
		for(int x=0;x<dp.GetBMPWidth(BMP_mario_bros);x++)
    7e9e:	8f ef       	ldi	r24, 0xFF	; 255
    7ea0:	e8 1a       	sub	r14, r24
    7ea2:	f8 0a       	sbc	r15, r24
    7ea4:	97 cf       	rjmp	.-210    	; 0x7dd4 <_Z16Demo_Copy_BitMapPKcm+0x80>
	dp.GetWindow(xi,yi,xf,yf);

	
	dp.DrawBitMap(xi,yi,BMP_mario_bros);

	for(int y=0;y<dp.GetBMPHeight(BMP_mario_bros);y++)
    7ea6:	0f 5f       	subi	r16, 0xFF	; 255
    7ea8:	1f 4f       	sbci	r17, 0xFF	; 255
    7eaa:	88 cf       	rjmp	.-240    	; 0x7dbc <_Z16Demo_Copy_BitMapPKcm+0x68>
			dp.SetPixel(x,y+dp.GetBMPHeight(BMP_mario_bros)+yi,dp.GetPixel(x+xi,y+yi));
		}
	}

	//delay to exit
	time.DelayMillisByInterrupt(timeToExit);
    7eac:	b5 01       	movw	r22, r10
    7eae:	a4 01       	movw	r20, r8
    7eb0:	85 e3       	ldi	r24, 0x35	; 53
    7eb2:	94 e0       	ldi	r25, 0x04	; 4
    7eb4:	00 d2       	rcall	.+1024   	; 0x82b6 <_ZN10class_Time22DelayMillisByInterruptEm>
}
    7eb6:	29 96       	adiw	r28, 0x09	; 9
    7eb8:	0f b6       	in	r0, 0x3f	; 63
    7eba:	f8 94       	cli
    7ebc:	de bf       	out	0x3e, r29	; 62
    7ebe:	0f be       	out	0x3f, r0	; 63
    7ec0:	cd bf       	out	0x3d, r28	; 61
    7ec2:	df 91       	pop	r29
    7ec4:	cf 91       	pop	r28
    7ec6:	1f 91       	pop	r17
    7ec8:	0f 91       	pop	r16
    7eca:	ff 90       	pop	r15
    7ecc:	ef 90       	pop	r14
    7ece:	df 90       	pop	r13
    7ed0:	cf 90       	pop	r12
    7ed2:	bf 90       	pop	r11
    7ed4:	af 90       	pop	r10
    7ed6:	9f 90       	pop	r9
    7ed8:	8f 90       	pop	r8
    7eda:	08 95       	ret

00007edc <main>:
		///@brief  Check if T6963 Interface is Ok and Present
		///@fn     Present
		///@return true if present else false
		///@brief
		//	+-------------------------------------------------------------------------------+
		bool	inline Present(void) { return _Present; }
    7edc:	80 91 65 04 	lds	r24, 0x0465

int main()
{
	
	//Check if interface Prensent and Ok, case not flash LED 150ms
	if (dp.Present()==false)
    7ee0:	81 11       	cpse	r24, r1
    7ee2:	06 c0       	rjmp	.+12     	; 0x7ef0 <main+0x14>
	{
		dp.BlinkLEDError(150);
    7ee4:	66 e9       	ldi	r22, 0x96	; 150
    7ee6:	70 e0       	ldi	r23, 0x00	; 0
    7ee8:	8c e3       	ldi	r24, 0x3C	; 60
    7eea:	94 e0       	ldi	r25, 0x04	; 4
    7eec:	0e 94 5e 22 	call	0x44bc	; 0x44bc <_ZN23class_T6963C_Drive_V14113BlinkLEDErrorEj>
	}

	//Set Cursor OFF
	dp.SetDisplayMode(_T6963C_DisplayModes::_CURSOR,false);
    7ef0:	40 e0       	ldi	r20, 0x00	; 0
    7ef2:	61 e0       	ldi	r22, 0x01	; 1
    7ef4:	70 e0       	ldi	r23, 0x00	; 0
    7ef6:	8c e3       	ldi	r24, 0x3C	; 60
    7ef8:	94 e0       	ldi	r25, 0x04	; 4
    7efa:	0e 94 12 23 	call	0x4624	; 0x4624 <_ZN23class_T6963C_Drive_V14114SetDisplayModeE25_enum_T6963C_DisplayModesb>

	for(;;)
	{
						                 //         1         2         3         4         5         6         7         8
						                 //12345678901234567890123456789012345678901234567890123456789012345678901234567890
		Demo_Count=1;
    7efe:	c1 e0       	ldi	r28, 0x01	; 1
    7f00:	c0 93 34 04 	sts	0x0434, r28


		Demo_Presentation(				PSTR("Drive Presentation\n\r    Version and Author"),10000);
    7f04:	40 e1       	ldi	r20, 0x10	; 16
    7f06:	57 e2       	ldi	r21, 0x27	; 39
    7f08:	60 e0       	ldi	r22, 0x00	; 0
    7f0a:	70 e0       	ldi	r23, 0x00	; 0
    7f0c:	84 ee       	ldi	r24, 0xE4	; 228
    7f0e:	96 e0       	ldi	r25, 0x06	; 6
    7f10:	a2 da       	rcall	.-2748   	; 0x7456 <_Z17Demo_PresentationPKcm>
		Demo_Clear_Screen();
    7f12:	0e 94 38 30 	call	0x6070	; 0x6070 <_Z17Demo_Clear_Screenv>

		Demo_Initialization(            PSTR("Display\r\n    Initialization\r\n    and\n\r    Features"),10000);
    7f16:	40 e1       	ldi	r20, 0x10	; 16
    7f18:	57 e2       	ldi	r21, 0x27	; 39
    7f1a:	60 e0       	ldi	r22, 0x00	; 0
    7f1c:	70 e0       	ldi	r23, 0x00	; 0
    7f1e:	81 eb       	ldi	r24, 0xB1	; 177
    7f20:	96 e0       	ldi	r25, 0x06	; 6
    7f22:	0e 94 27 31 	call	0x624e	; 0x624e <_Z19Demo_InitializationPKcm>
		Demo_Clear_Screen();
    7f26:	0e 94 38 30 	call	0x6070	; 0x6070 <_Z17Demo_Clear_Screenv>

		Demo_Texts(						PSTR("Hardware and Graph\r\n    characters generator"),10000);
    7f2a:	40 e1       	ldi	r20, 0x10	; 16
    7f2c:	57 e2       	ldi	r21, 0x27	; 39
    7f2e:	60 e0       	ldi	r22, 0x00	; 0
    7f30:	70 e0       	ldi	r23, 0x00	; 0
    7f32:	84 e8       	ldi	r24, 0x84	; 132
    7f34:	96 e0       	ldi	r25, 0x06	; 6
    7f36:	9e de       	rcall	.-708    	; 0x7c74 <_Z10Demo_TextsPKcm>
		Demo_Clear_Screen();
    7f38:	0e 94 38 30 	call	0x6070	; 0x6070 <_Z17Demo_Clear_Screenv>
		Demo_Text_Graph_Types(			PSTR("Graph text may be\n\r    LINE,SOLID,INVERTED"),10000);
    7f3c:	40 e1       	ldi	r20, 0x10	; 16
    7f3e:	57 e2       	ldi	r21, 0x27	; 39
    7f40:	60 e0       	ldi	r22, 0x00	; 0
    7f42:	70 e0       	ldi	r23, 0x00	; 0
    7f44:	89 e5       	ldi	r24, 0x59	; 89
    7f46:	96 e0       	ldi	r25, 0x06	; 6
    7f48:	f2 da       	rcall	.-2588   	; 0x752e <_Z21Demo_Text_Graph_TypesPKcm>
		Demo_Clear_Screen();
    7f4a:	0e 94 38 30 	call	0x6070	; 0x6070 <_Z17Demo_Clear_Screenv>
		Demo_Graph_Text_Scale(			PSTR("Graph Text\r\n    with Scales"),10000);
    7f4e:	40 e1       	ldi	r20, 0x10	; 16
    7f50:	57 e2       	ldi	r21, 0x27	; 39
    7f52:	60 e0       	ldi	r22, 0x00	; 0
    7f54:	70 e0       	ldi	r23, 0x00	; 0
    7f56:	8d e3       	ldi	r24, 0x3D	; 61
    7f58:	96 e0       	ldi	r25, 0x06	; 6
    7f5a:	70 db       	rcall	.-2336   	; 0x763c <_Z21Demo_Graph_Text_ScalePKcm>
		Demo_Clear_Screen();
    7f5c:	0e 94 38 30 	call	0x6070	; 0x6070 <_Z17Demo_Clear_Screenv>


		Demo_Sample_Line_Pens(	        PSTR("Draw Lines with\r\n    Pens Patterns"),10000);
    7f60:	40 e1       	ldi	r20, 0x10	; 16
    7f62:	57 e2       	ldi	r21, 0x27	; 39
    7f64:	60 e0       	ldi	r22, 0x00	; 0
    7f66:	70 e0       	ldi	r23, 0x00	; 0
    7f68:	8a e1       	ldi	r24, 0x1A	; 26
    7f6a:	96 e0       	ldi	r25, 0x06	; 6
    7f6c:	0e 94 b4 33 	call	0x6768	; 0x6768 <_Z21Demo_Sample_Line_PensPKcm>
		Demo_Clear_Screen();
    7f70:	0e 94 38 30 	call	0x6070	; 0x6070 <_Z17Demo_Clear_Screenv>
		Demo_Box_Patterns(				PSTR("Draw Boxes\r\n    with Patterns"),5000);
    7f74:	48 e8       	ldi	r20, 0x88	; 136
    7f76:	53 e1       	ldi	r21, 0x13	; 19
    7f78:	60 e0       	ldi	r22, 0x00	; 0
    7f7a:	70 e0       	ldi	r23, 0x00	; 0
    7f7c:	8c ef       	ldi	r24, 0xFC	; 252
    7f7e:	95 e0       	ldi	r25, 0x05	; 5
    7f80:	0e 94 69 35 	call	0x6ad2	; 0x6ad2 <_Z17Demo_Box_PatternsPKcm>
		Demo_Clear_Screen();
    7f84:	0e 94 38 30 	call	0x6070	; 0x6070 <_Z17Demo_Clear_Screenv>
		Demo_Circle_Patterns(			PSTR("Draw Circles\r\n    with Patterns"),5000);
    7f88:	20 e0       	ldi	r18, 0x00	; 0
    7f8a:	48 e8       	ldi	r20, 0x88	; 136
    7f8c:	53 e1       	ldi	r21, 0x13	; 19
    7f8e:	60 e0       	ldi	r22, 0x00	; 0
    7f90:	70 e0       	ldi	r23, 0x00	; 0
    7f92:	8c ed       	ldi	r24, 0xDC	; 220
    7f94:	95 e0       	ldi	r25, 0x05	; 5
    7f96:	0e 94 33 36 	call	0x6c66	; 0x6c66 <_Z20Demo_Circle_PatternsPKcmb>
		Demo_Clear_Screen();
    7f9a:	0e 94 38 30 	call	0x6070	; 0x6070 <_Z17Demo_Clear_Screenv>
		Demo_Circle_Patterns(			PSTR("Draw Ellipses\r\n    with Patterns"),5000,true);
    7f9e:	21 e0       	ldi	r18, 0x01	; 1
    7fa0:	48 e8       	ldi	r20, 0x88	; 136
    7fa2:	53 e1       	ldi	r21, 0x13	; 19
    7fa4:	60 e0       	ldi	r22, 0x00	; 0
    7fa6:	70 e0       	ldi	r23, 0x00	; 0
    7fa8:	8b eb       	ldi	r24, 0xBB	; 187
    7faa:	95 e0       	ldi	r25, 0x05	; 5
    7fac:	0e 94 33 36 	call	0x6c66	; 0x6c66 <_Z20Demo_Circle_PatternsPKcmb>
		Demo_Clear_Screen();
    7fb0:	0e 94 38 30 	call	0x6070	; 0x6070 <_Z17Demo_Clear_Screenv>

		Demo_Pixel_Performance(			PSTR("Draw Pixels\r\n    Performance"),10000);
    7fb4:	40 e1       	ldi	r20, 0x10	; 16
    7fb6:	57 e2       	ldi	r21, 0x27	; 39
    7fb8:	60 e0       	ldi	r22, 0x00	; 0
    7fba:	70 e0       	ldi	r23, 0x00	; 0
    7fbc:	8e e9       	ldi	r24, 0x9E	; 158
    7fbe:	95 e0       	ldi	r25, 0x05	; 5
    7fc0:	b8 dd       	rcall	.-1168   	; 0x7b32 <_Z22Demo_Pixel_PerformancePKcm>
		Demo_Clear_Screen();
    7fc2:	0e 94 38 30 	call	0x6070	; 0x6070 <_Z17Demo_Clear_Screenv>
		Demo_Line_Performance(			PSTR("Draw Line\n\r    Performance"),10000);
    7fc6:	40 e1       	ldi	r20, 0x10	; 16
    7fc8:	57 e2       	ldi	r21, 0x27	; 39
    7fca:	60 e0       	ldi	r22, 0x00	; 0
    7fcc:	70 e0       	ldi	r23, 0x00	; 0
    7fce:	83 e8       	ldi	r24, 0x83	; 131
    7fd0:	95 e0       	ldi	r25, 0x05	; 5
    7fd2:	0e 94 94 34 	call	0x6928	; 0x6928 <_Z21Demo_Line_PerformancePKcm>
		Demo_Clear_Screen();
    7fd6:	0e 94 38 30 	call	0x6070	; 0x6070 <_Z17Demo_Clear_Screenv>
		Demo_Box_Performance(			PSTR("Draw Boxes\n\r    Performance"),10000);
    7fda:	21 e0       	ldi	r18, 0x01	; 1
    7fdc:	40 e1       	ldi	r20, 0x10	; 16
    7fde:	57 e2       	ldi	r21, 0x27	; 39
    7fe0:	60 e0       	ldi	r22, 0x00	; 0
    7fe2:	70 e0       	ldi	r23, 0x00	; 0
    7fe4:	87 e6       	ldi	r24, 0x67	; 103
    7fe6:	95 e0       	ldi	r25, 0x05	; 5
    7fe8:	0e 94 e2 37 	call	0x6fc4	; 0x6fc4 <_Z20Demo_Box_PerformancePKcmb>
		Demo_Clear_Screen();
    7fec:	0e 94 38 30 	call	0x6070	; 0x6070 <_Z17Demo_Clear_Screenv>
		Demo_Circle_Performance(		PSTR("Draw Circle\r\n    Performance"),10000);
    7ff0:	00 e0       	ldi	r16, 0x00	; 0
    7ff2:	21 e0       	ldi	r18, 0x01	; 1
    7ff4:	40 e1       	ldi	r20, 0x10	; 16
    7ff6:	57 e2       	ldi	r21, 0x27	; 39
    7ff8:	60 e0       	ldi	r22, 0x00	; 0
    7ffa:	70 e0       	ldi	r23, 0x00	; 0
    7ffc:	8a e4       	ldi	r24, 0x4A	; 74
    7ffe:	95 e0       	ldi	r25, 0x05	; 5
    8000:	f1 d8       	rcall	.-3614   	; 0x71e4 <_Z23Demo_Circle_PerformancePKcmbb>
		Demo_Clear_Screen();
    8002:	0e 94 38 30 	call	0x6070	; 0x6070 <_Z17Demo_Clear_Screenv>
		Demo_Circle_Performance(		PSTR("Draw Ellipses\r\n    Performance"),10000,true,true);
    8006:	01 e0       	ldi	r16, 0x01	; 1
    8008:	21 e0       	ldi	r18, 0x01	; 1
    800a:	40 e1       	ldi	r20, 0x10	; 16
    800c:	57 e2       	ldi	r21, 0x27	; 39
    800e:	60 e0       	ldi	r22, 0x00	; 0
    8010:	70 e0       	ldi	r23, 0x00	; 0
    8012:	8b e2       	ldi	r24, 0x2B	; 43
    8014:	95 e0       	ldi	r25, 0x05	; 5
    8016:	e6 d8       	rcall	.-3636   	; 0x71e4 <_Z23Demo_Circle_PerformancePKcmbb>
		Demo_Clear_Screen();
    8018:	0e 94 38 30 	call	0x6070	; 0x6070 <_Z17Demo_Clear_Screenv>
// 		Demo_Circle_Performance(		PSTR("Draw Circle\r\n    Performance\r\n    with no border"),10000,false);
// 		Demo_Clear_Screen();
// 		Demo_Circle_Performance(		PSTR("Draw Ellipses\r\n    Performance\r\n    with no border"),10000,false,true);
// 		Demo_Clear_Screen();

 		Demo_Animated_Patterns_and_Pens(PSTR("Draw Circles  & Boxes\r\n    with  moving Patterns\r\n    and Pens Full speed"),10000,1);
    801c:	01 e0       	ldi	r16, 0x01	; 1
    801e:	10 e0       	ldi	r17, 0x00	; 0
    8020:	20 e0       	ldi	r18, 0x00	; 0
    8022:	30 e0       	ldi	r19, 0x00	; 0
    8024:	40 e1       	ldi	r20, 0x10	; 16
    8026:	57 e2       	ldi	r21, 0x27	; 39
    8028:	60 e0       	ldi	r22, 0x00	; 0
    802a:	70 e0       	ldi	r23, 0x00	; 0
    802c:	81 ee       	ldi	r24, 0xE1	; 225
    802e:	94 e0       	ldi	r25, 0x04	; 4
    8030:	0e 94 cd 31 	call	0x639a	; 0x639a <_Z31Demo_Animated_Patterns_and_PensPKcmm>
		Demo_Clear_Screen();
    8034:	0e 94 38 30 	call	0x6070	; 0x6070 <_Z17Demo_Clear_Screenv>
 		Demo_Animated_Patterns_and_Pens(PSTR("Draw Circles  & Boxes\r\n    with  moving Patterns\r\n    and Pens Low speed"),10000,300);
    8038:	0c e2       	ldi	r16, 0x2C	; 44
    803a:	11 e0       	ldi	r17, 0x01	; 1
    803c:	20 e0       	ldi	r18, 0x00	; 0
    803e:	30 e0       	ldi	r19, 0x00	; 0
    8040:	40 e1       	ldi	r20, 0x10	; 16
    8042:	57 e2       	ldi	r21, 0x27	; 39
    8044:	60 e0       	ldi	r22, 0x00	; 0
    8046:	70 e0       	ldi	r23, 0x00	; 0
    8048:	88 e9       	ldi	r24, 0x98	; 152
    804a:	94 e0       	ldi	r25, 0x04	; 4
    804c:	0e 94 cd 31 	call	0x639a	; 0x639a <_Z31Demo_Animated_Patterns_and_PensPKcmm>
		Demo_Clear_Screen();
    8050:	0e 94 38 30 	call	0x6070	; 0x6070 <_Z17Demo_Clear_Screenv>

		Demo_Draw_BitMaps(				PSTR("Draw BitMaps"),10000);
    8054:	40 e1       	ldi	r20, 0x10	; 16
    8056:	57 e2       	ldi	r21, 0x27	; 39
    8058:	60 e0       	ldi	r22, 0x00	; 0
    805a:	70 e0       	ldi	r23, 0x00	; 0
    805c:	8b e8       	ldi	r24, 0x8B	; 139
    805e:	94 e0       	ldi	r25, 0x04	; 4
    8060:	0e 94 3b 37 	call	0x6e76	; 0x6e76 <_Z17Demo_Draw_BitMapsPKcm>
		Demo_Clear_Screen();
    8064:	0e 94 38 30 	call	0x6070	; 0x6070 <_Z17Demo_Clear_Screenv>
		Demo_Copy_BitMap(				PSTR("Copy BitMap\r\n    using\r\n    SetPixel/GetPixel"),10000);
    8068:	40 e1       	ldi	r20, 0x10	; 16
    806a:	57 e2       	ldi	r21, 0x27	; 39
    806c:	60 e0       	ldi	r22, 0x00	; 0
    806e:	70 e0       	ldi	r23, 0x00	; 0
    8070:	8d e5       	ldi	r24, 0x5D	; 93
    8072:	94 e0       	ldi	r25, 0x04	; 4
    8074:	6f de       	rcall	.-802    	; 0x7d54 <_Z16Demo_Copy_BitMapPKcm>
		Demo_Clear_Screen();
    8076:	0e 94 38 30 	call	0x6070	; 0x6070 <_Z17Demo_Clear_Screenv>
		Demo_Support_Large_BMP_Image(   PSTR("Support Large\r\n    BitMap to Draw\r\n    Size < 32Kbytes"),10000);
    807a:	40 e1       	ldi	r20, 0x10	; 16
    807c:	57 e2       	ldi	r21, 0x27	; 39
    807e:	60 e0       	ldi	r22, 0x00	; 0
    8080:	70 e0       	ldi	r23, 0x00	; 0
    8082:	86 e2       	ldi	r24, 0x26	; 38
    8084:	94 e0       	ldi	r25, 0x04	; 4
    8086:	0e 94 32 33 	call	0x6664	; 0x6664 <_Z28Demo_Support_Large_BMP_ImagePKcm>
		Demo_Clear_Screen();
    808a:	0e 94 38 30 	call	0x6070	; 0x6070 <_Z17Demo_Clear_Screenv>
		Demo_Draw_Ball_Pages(			PSTR("Ball Animation using\r\n    Graph Pages\r\n    and BitMap"),20000);
    808e:	40 e2       	ldi	r20, 0x20	; 32
    8090:	5e e4       	ldi	r21, 0x4E	; 78
    8092:	60 e0       	ldi	r22, 0x00	; 0
    8094:	70 e0       	ldi	r23, 0x00	; 0
    8096:	80 ef       	ldi	r24, 0xF0	; 240
    8098:	93 e0       	ldi	r25, 0x03	; 3
    809a:	7f db       	rcall	.-2306   	; 0x779a <_Z20Demo_Draw_Ball_PagesPKcm>
		Demo_Clear_Screen();
    809c:	0e 94 38 30 	call	0x6070	; 0x6070 <_Z17Demo_Clear_Screenv>

	}
    80a0:	2f cf       	rjmp	.-418    	; 0x7f00 <main+0x24>

000080a2 <_ZN10class_Time10InitializeEv>:
					 :[countForMilli]"r" (countFor1Millisecond),
					  [countTime]	 "r"  (time)
					 :"r16","r17","r18","r19"
					);

}
    80a2:	9f b7       	in	r25, 0x3f	; 63
    80a4:	f8 94       	cli
    80a6:	83 b7       	in	r24, 0x33	; 51
    80a8:	87 7b       	andi	r24, 0xB7	; 183
    80aa:	83 bf       	out	0x33, r24	; 51
    80ac:	83 b7       	in	r24, 0x33	; 51
    80ae:	88 60       	ori	r24, 0x08	; 8
    80b0:	83 bf       	out	0x33, r24	; 51
    80b2:	83 b7       	in	r24, 0x33	; 51
    80b4:	88 7f       	andi	r24, 0xF8	; 248
    80b6:	83 bf       	out	0x33, r24	; 51
    80b8:	83 b7       	in	r24, 0x33	; 51
    80ba:	86 60       	ori	r24, 0x06	; 6
    80bc:	83 bf       	out	0x33, r24	; 51
    80be:	81 e3       	ldi	r24, 0x31	; 49
    80c0:	81 bf       	out	0x31, r24	; 49
    80c2:	12 be       	out	0x32, r1	; 50
    80c4:	87 b7       	in	r24, 0x37	; 55
    80c6:	82 60       	ori	r24, 0x02	; 2
    80c8:	87 bf       	out	0x37, r24	; 55
    80ca:	9f bf       	out	0x3f, r25	; 63
    80cc:	08 95       	ret

000080ce <_ZN10class_TimeC1Ev>:
    80ce:	cf 93       	push	r28
    80d0:	cf b7       	in	r28, 0x3f	; 63
    80d2:	f8 94       	cli
    80d4:	20 91 8e 04 	lds	r18, 0x048E
    80d8:	21 11       	cpse	r18, r1
    80da:	04 c0       	rjmp	.+8      	; 0x80e4 <_ZN10class_TimeC1Ev+0x16>
    80dc:	21 e0       	ldi	r18, 0x01	; 1
    80de:	20 93 8e 04 	sts	0x048E, r18
    80e2:	df df       	rcall	.-66     	; 0x80a2 <_ZN10class_Time10InitializeEv>
    80e4:	cf bf       	out	0x3f, r28	; 63
    80e6:	cf 91       	pop	r28
    80e8:	08 95       	ret

000080ea <__vector_15>:
    80ea:	1f 92       	push	r1
    80ec:	0f 92       	push	r0
    80ee:	0f b6       	in	r0, 0x3f	; 63
    80f0:	0f 92       	push	r0
    80f2:	11 24       	eor	r1, r1
    80f4:	0b b6       	in	r0, 0x3b	; 59
    80f6:	0f 92       	push	r0
    80f8:	2f 93       	push	r18
    80fa:	3f 93       	push	r19
    80fc:	4f 93       	push	r20
    80fe:	5f 93       	push	r21
    8100:	6f 93       	push	r22
    8102:	7f 93       	push	r23
    8104:	8f 93       	push	r24
    8106:	9f 93       	push	r25
    8108:	af 93       	push	r26
    810a:	bf 93       	push	r27
    810c:	ef 93       	push	r30
    810e:	ff 93       	push	r31
    8110:	78 94       	sei
    8112:	20 91 8f 04 	lds	r18, 0x048F
    8116:	30 91 90 04 	lds	r19, 0x0490
    811a:	40 91 91 04 	lds	r20, 0x0491
    811e:	50 91 92 04 	lds	r21, 0x0492
    8122:	60 91 93 04 	lds	r22, 0x0493
    8126:	70 91 94 04 	lds	r23, 0x0494
    812a:	80 91 95 04 	lds	r24, 0x0495
    812e:	90 91 96 04 	lds	r25, 0x0496
    8132:	24 53       	subi	r18, 0x34	; 52
    8134:	33 43       	sbci	r19, 0x33	; 51
    8136:	43 43       	sbci	r20, 0x33	; 51
    8138:	5f 4f       	sbci	r21, 0xFF	; 255
    813a:	6f 4f       	sbci	r22, 0xFF	; 255
    813c:	7f 4f       	sbci	r23, 0xFF	; 255
    813e:	8f 4f       	sbci	r24, 0xFF	; 255
    8140:	9f 4f       	sbci	r25, 0xFF	; 255
    8142:	20 93 8f 04 	sts	0x048F, r18
    8146:	30 93 90 04 	sts	0x0490, r19
    814a:	40 93 91 04 	sts	0x0491, r20
    814e:	50 93 92 04 	sts	0x0492, r21
    8152:	60 93 93 04 	sts	0x0493, r22
    8156:	70 93 94 04 	sts	0x0494, r23
    815a:	80 93 95 04 	sts	0x0495, r24
    815e:	90 93 96 04 	sts	0x0496, r25
    8162:	80 91 8d 04 	lds	r24, 0x048D
    8166:	88 23       	and	r24, r24
    8168:	39 f0       	breq	.+14     	; 0x8178 <__vector_15+0x8e>
    816a:	e0 91 99 04 	lds	r30, 0x0499
    816e:	f0 91 9a 04 	lds	r31, 0x049A
    8172:	30 97       	sbiw	r30, 0x00	; 0
    8174:	09 f0       	breq	.+2      	; 0x8178 <__vector_15+0x8e>
    8176:	09 95       	icall
    8178:	80 91 8c 04 	lds	r24, 0x048C
    817c:	88 23       	and	r24, r24
    817e:	09 f4       	brne	.+2      	; 0x8182 <__vector_15+0x98>
    8180:	4d c0       	rjmp	.+154    	; 0x821c <__vector_15+0x132>
    8182:	80 91 89 04 	lds	r24, 0x0489
    8186:	90 91 8a 04 	lds	r25, 0x048A
    818a:	01 96       	adiw	r24, 0x01	; 1
    818c:	90 93 8a 04 	sts	0x048A, r25
    8190:	80 93 89 04 	sts	0x0489, r24
    8194:	80 91 89 04 	lds	r24, 0x0489
    8198:	90 91 8a 04 	lds	r25, 0x048A
    819c:	8d 37       	cpi	r24, 0x7D	; 125
    819e:	91 05       	cpc	r25, r1
    81a0:	e8 f1       	brcs	.+122    	; 0x821c <__vector_15+0x132>
    81a2:	10 92 8a 04 	sts	0x048A, r1
    81a6:	10 92 89 04 	sts	0x0489, r1
    81aa:	80 91 8b 04 	lds	r24, 0x048B
    81ae:	8f 5f       	subi	r24, 0xFF	; 255
    81b0:	80 93 8b 04 	sts	0x048B, r24
    81b4:	80 91 8b 04 	lds	r24, 0x048B
    81b8:	8a 30       	cpi	r24, 0x0A	; 10
    81ba:	18 f1       	brcs	.+70     	; 0x8202 <__vector_15+0x118>
    81bc:	10 92 8b 04 	sts	0x048B, r1
    81c0:	80 91 88 04 	lds	r24, 0x0488
    81c4:	8f 5f       	subi	r24, 0xFF	; 255
    81c6:	80 93 88 04 	sts	0x0488, r24
    81ca:	80 91 88 04 	lds	r24, 0x0488
    81ce:	8c 33       	cpi	r24, 0x3C	; 60
    81d0:	c0 f0       	brcs	.+48     	; 0x8202 <__vector_15+0x118>
    81d2:	10 92 88 04 	sts	0x0488, r1
    81d6:	80 91 87 04 	lds	r24, 0x0487
    81da:	8f 5f       	subi	r24, 0xFF	; 255
    81dc:	80 93 87 04 	sts	0x0487, r24
    81e0:	80 91 87 04 	lds	r24, 0x0487
    81e4:	8c 33       	cpi	r24, 0x3C	; 60
    81e6:	68 f0       	brcs	.+26     	; 0x8202 <__vector_15+0x118>
    81e8:	10 92 87 04 	sts	0x0487, r1
    81ec:	80 91 86 04 	lds	r24, 0x0486
    81f0:	8f 5f       	subi	r24, 0xFF	; 255
    81f2:	80 93 86 04 	sts	0x0486, r24
    81f6:	80 91 86 04 	lds	r24, 0x0486
    81fa:	88 31       	cpi	r24, 0x18	; 24
    81fc:	10 f0       	brcs	.+4      	; 0x8202 <__vector_15+0x118>
    81fe:	10 92 86 04 	sts	0x0486, r1
    8202:	e0 91 97 04 	lds	r30, 0x0497
    8206:	f0 91 98 04 	lds	r31, 0x0498
    820a:	30 97       	sbiw	r30, 0x00	; 0
    820c:	39 f0       	breq	.+14     	; 0x821c <__vector_15+0x132>
    820e:	40 91 88 04 	lds	r20, 0x0488
    8212:	60 91 87 04 	lds	r22, 0x0487
    8216:	80 91 86 04 	lds	r24, 0x0486
    821a:	09 95       	icall
    821c:	ff 91       	pop	r31
    821e:	ef 91       	pop	r30
    8220:	bf 91       	pop	r27
    8222:	af 91       	pop	r26
    8224:	9f 91       	pop	r25
    8226:	8f 91       	pop	r24
    8228:	7f 91       	pop	r23
    822a:	6f 91       	pop	r22
    822c:	5f 91       	pop	r21
    822e:	4f 91       	pop	r20
    8230:	3f 91       	pop	r19
    8232:	2f 91       	pop	r18
    8234:	0f 90       	pop	r0
    8236:	0b be       	out	0x3b, r0	; 59
    8238:	0f 90       	pop	r0
    823a:	0f be       	out	0x3f, r0	; 63
    823c:	0f 90       	pop	r0
    823e:	1f 90       	pop	r1
    8240:	18 95       	reti

00008242 <_ZN10class_Time15GetMillisecondsEv>:
//	| OUTPUT  :  								                                    |
//	| REMARKS :  								                                    |
//	+-------------------------------------------------------------------------------+

uint32_t class_Time::GetMilliseconds()
{
    8242:	0f 93       	push	r16
    8244:	1f 93       	push	r17
        uint32_t tmp1=0, tmp2=0;
        //This routine avoid Tick increments during read of consecutive Ticks
        do
        {
            sei();
    8246:	78 94       	sei
//	| REMARKS :  								                                    |
//	+-------------------------------------------------------------------------------+

uint32_t class_Time::GetTimeTick()
{
    return *((uint32_t*)((uint8_t*)&_time.TimerTick+3));
    8248:	60 91 92 04 	lds	r22, 0x0492
    824c:	70 91 93 04 	lds	r23, 0x0493
    8250:	80 91 94 04 	lds	r24, 0x0494
    8254:	90 91 95 04 	lds	r25, 0x0495
        //This routine avoid Tick increments during read of consecutive Ticks
        do
        {
            sei();
            tmp1=GetTimeTick();
            sei();
    8258:	78 94       	sei
//	| REMARKS :  								                                    |
//	+-------------------------------------------------------------------------------+

uint32_t class_Time::GetTimeTick()
{
    return *((uint32_t*)((uint8_t*)&_time.TimerTick+3));
    825a:	00 91 92 04 	lds	r16, 0x0492
    825e:	10 91 93 04 	lds	r17, 0x0493
    8262:	20 91 94 04 	lds	r18, 0x0494
    8266:	30 91 95 04 	lds	r19, 0x0495

uint32_t class_Time::GetMilliseconds()
{
        uint32_t tmp1=0, tmp2=0;
        //This routine avoid Tick increments during read of consecutive Ticks
        do
    826a:	60 17       	cp	r22, r16
    826c:	71 07       	cpc	r23, r17
    826e:	82 07       	cpc	r24, r18
    8270:	93 07       	cpc	r25, r19
    8272:	49 f7       	brne	.-46     	; 0x8246 <_ZN10class_Time15GetMillisecondsEv+0x4>
            sei();
            tmp2=GetTimeTick();
        } while (tmp1!=tmp2);
        //return tick value
        return tmp2;
}
    8274:	1f 91       	pop	r17
    8276:	0f 91       	pop	r16
    8278:	08 95       	ret

0000827a <_ZN10class_Time10SetElapsedEPm>:
//	| INPUT   :  -> tickTimerVariable					                            |
//	| OUTPUT  :  								                                    |
//	| REMARKS :  								                                    |
//	+-------------------------------------------------------------------------------+
void	class_Time::SetElapsed(uint32_t * timeVariable)
{
    827a:	cf 93       	push	r28
    827c:	df 93       	push	r29
    827e:	eb 01       	movw	r28, r22
	*timeVariable=GetMilliseconds();
    8280:	e0 df       	rcall	.-64     	; 0x8242 <_ZN10class_Time15GetMillisecondsEv>
    8282:	68 83       	st	Y, r22
    8284:	79 83       	std	Y+1, r23	; 0x01
    8286:	8a 83       	std	Y+2, r24	; 0x02
    8288:	9b 83       	std	Y+3, r25	; 0x03
}
    828a:	df 91       	pop	r29
    828c:	cf 91       	pop	r28
    828e:	08 95       	ret

00008290 <_ZN10class_Time10GetElapsedEPm>:
//	| INPUT   :  * tickTimerVariable					                            |
//	| OUTPUT  :  Elapsed time in ticks					                            |
//	| REMARKS :  								                                    |
//	+-------------------------------------------------------------------------------+
uint32_t class_Time::GetElapsed(uint32_t * timeVariable)
{
    8290:	0f 93       	push	r16
    8292:	1f 93       	push	r17
    8294:	cf 93       	push	r28
    8296:	df 93       	push	r29
    8298:	eb 01       	movw	r28, r22
	return (GetMilliseconds()-*timeVariable);				//Get difference between actual tick and save tick
    829a:	d3 df       	rcall	.-90     	; 0x8242 <_ZN10class_Time15GetMillisecondsEv>
    829c:	08 81       	ld	r16, Y
    829e:	19 81       	ldd	r17, Y+1	; 0x01
    82a0:	2a 81       	ldd	r18, Y+2	; 0x02
    82a2:	3b 81       	ldd	r19, Y+3	; 0x03
    82a4:	60 1b       	sub	r22, r16
    82a6:	71 0b       	sbc	r23, r17
    82a8:	82 0b       	sbc	r24, r18
    82aa:	93 0b       	sbc	r25, r19
}
    82ac:	df 91       	pop	r29
    82ae:	cf 91       	pop	r28
    82b0:	1f 91       	pop	r17
    82b2:	0f 91       	pop	r16
    82b4:	08 95       	ret

000082b6 <_ZN10class_Time22DelayMillisByInterruptEm>:
//	| INPUT   :  timeMs in milliseconds					                            |
//	| OUTPUT  :  								                                    |
//	| REMARKS :  								                                    |
//	+-------------------------------------------------------------------------------+
void	class_Time::DelayMillisByInterrupt(uint32_t timeMs)
{
    82b6:	8f 92       	push	r8
    82b8:	9f 92       	push	r9
    82ba:	af 92       	push	r10
    82bc:	bf 92       	push	r11
    82be:	cf 92       	push	r12
    82c0:	df 92       	push	r13
    82c2:	ef 92       	push	r14
    82c4:	ff 92       	push	r15
    82c6:	0f 93       	push	r16
    82c8:	1f 93       	push	r17
    82ca:	cf 93       	push	r28
    82cc:	df 93       	push	r29
    82ce:	ec 01       	movw	r28, r24
    82d0:	6a 01       	movw	r12, r20
    82d2:	7b 01       	movw	r14, r22
	uint32_t tmp1,tmp2;

	tmp1=GetMilliseconds();             					//get actual tick value
    82d4:	b6 df       	rcall	.-148    	; 0x8242 <_ZN10class_Time15GetMillisecondsEv>
    82d6:	4b 01       	movw	r8, r22
    82d8:	5c 01       	movw	r10, r24
	do{
		tmp2=GetMilliseconds();
    82da:	ce 01       	movw	r24, r28
    82dc:	b2 df       	rcall	.-156    	; 0x8242 <_ZN10class_Time15GetMillisecondsEv>
	} while ((tmp2-tmp1)<timeMs);							//wait reach a predefined value tick
    82de:	8b 01       	movw	r16, r22
    82e0:	9c 01       	movw	r18, r24
    82e2:	08 19       	sub	r16, r8
    82e4:	19 09       	sbc	r17, r9
    82e6:	2a 09       	sbc	r18, r10
    82e8:	3b 09       	sbc	r19, r11
void	class_Time::DelayMillisByInterrupt(uint32_t timeMs)
{
	uint32_t tmp1,tmp2;

	tmp1=GetMilliseconds();             					//get actual tick value
	do{
    82ea:	0c 15       	cp	r16, r12
    82ec:	1d 05       	cpc	r17, r13
    82ee:	2e 05       	cpc	r18, r14
    82f0:	3f 05       	cpc	r19, r15
    82f2:	98 f3       	brcs	.-26     	; 0x82da <_ZN10class_Time22DelayMillisByInterruptEm+0x24>
		tmp2=GetMilliseconds();
	} while ((tmp2-tmp1)<timeMs);							//wait reach a predefined value tick
}
    82f4:	df 91       	pop	r29
    82f6:	cf 91       	pop	r28
    82f8:	1f 91       	pop	r17
    82fa:	0f 91       	pop	r16
    82fc:	ff 90       	pop	r15
    82fe:	ef 90       	pop	r14
    8300:	df 90       	pop	r13
    8302:	cf 90       	pop	r12
    8304:	bf 90       	pop	r11
    8306:	af 90       	pop	r10
    8308:	9f 90       	pop	r9
    830a:	8f 90       	pop	r8
    830c:	08 95       	ret

0000830e <__mulsi3>:
    830e:	db 01       	movw	r26, r22
    8310:	8f 93       	push	r24
    8312:	9f 93       	push	r25
    8314:	64 d0       	rcall	.+200    	; 0x83de <__muluhisi3>
    8316:	bf 91       	pop	r27
    8318:	af 91       	pop	r26
    831a:	a2 9f       	mul	r26, r18
    831c:	80 0d       	add	r24, r0
    831e:	91 1d       	adc	r25, r1
    8320:	a3 9f       	mul	r26, r19
    8322:	90 0d       	add	r25, r0
    8324:	b2 9f       	mul	r27, r18
    8326:	90 0d       	add	r25, r0
    8328:	11 24       	eor	r1, r1
    832a:	08 95       	ret

0000832c <__divmodhi4>:
    832c:	97 fb       	bst	r25, 7
    832e:	07 2e       	mov	r0, r23
    8330:	16 f4       	brtc	.+4      	; 0x8336 <__divmodhi4+0xa>
    8332:	00 94       	com	r0
    8334:	06 d0       	rcall	.+12     	; 0x8342 <__divmodhi4_neg1>
    8336:	77 fd       	sbrc	r23, 7
    8338:	08 d0       	rcall	.+16     	; 0x834a <__divmodhi4_neg2>
    833a:	5b d0       	rcall	.+182    	; 0x83f2 <__udivmodhi4>
    833c:	07 fc       	sbrc	r0, 7
    833e:	05 d0       	rcall	.+10     	; 0x834a <__divmodhi4_neg2>
    8340:	3e f4       	brtc	.+14     	; 0x8350 <__divmodhi4_exit>

00008342 <__divmodhi4_neg1>:
    8342:	90 95       	com	r25
    8344:	81 95       	neg	r24
    8346:	9f 4f       	sbci	r25, 0xFF	; 255
    8348:	08 95       	ret

0000834a <__divmodhi4_neg2>:
    834a:	70 95       	com	r23
    834c:	61 95       	neg	r22
    834e:	7f 4f       	sbci	r23, 0xFF	; 255

00008350 <__divmodhi4_exit>:
    8350:	08 95       	ret

00008352 <__udivmodsi4>:
    8352:	a1 e2       	ldi	r26, 0x21	; 33
    8354:	1a 2e       	mov	r1, r26
    8356:	aa 1b       	sub	r26, r26
    8358:	bb 1b       	sub	r27, r27
    835a:	fd 01       	movw	r30, r26
    835c:	0d c0       	rjmp	.+26     	; 0x8378 <__udivmodsi4_ep>

0000835e <__udivmodsi4_loop>:
    835e:	aa 1f       	adc	r26, r26
    8360:	bb 1f       	adc	r27, r27
    8362:	ee 1f       	adc	r30, r30
    8364:	ff 1f       	adc	r31, r31
    8366:	a2 17       	cp	r26, r18
    8368:	b3 07       	cpc	r27, r19
    836a:	e4 07       	cpc	r30, r20
    836c:	f5 07       	cpc	r31, r21
    836e:	20 f0       	brcs	.+8      	; 0x8378 <__udivmodsi4_ep>
    8370:	a2 1b       	sub	r26, r18
    8372:	b3 0b       	sbc	r27, r19
    8374:	e4 0b       	sbc	r30, r20
    8376:	f5 0b       	sbc	r31, r21

00008378 <__udivmodsi4_ep>:
    8378:	66 1f       	adc	r22, r22
    837a:	77 1f       	adc	r23, r23
    837c:	88 1f       	adc	r24, r24
    837e:	99 1f       	adc	r25, r25
    8380:	1a 94       	dec	r1
    8382:	69 f7       	brne	.-38     	; 0x835e <__udivmodsi4_loop>
    8384:	60 95       	com	r22
    8386:	70 95       	com	r23
    8388:	80 95       	com	r24
    838a:	90 95       	com	r25
    838c:	9b 01       	movw	r18, r22
    838e:	ac 01       	movw	r20, r24
    8390:	bd 01       	movw	r22, r26
    8392:	cf 01       	movw	r24, r30
    8394:	08 95       	ret

00008396 <__tablejump2__>:
    8396:	ee 0f       	add	r30, r30
    8398:	ff 1f       	adc	r31, r31
    839a:	00 24       	eor	r0, r0
    839c:	00 1c       	adc	r0, r0
    839e:	0b be       	out	0x3b, r0	; 59
    83a0:	07 90       	elpm	r0, Z+
    83a2:	f6 91       	elpm	r31, Z
    83a4:	e0 2d       	mov	r30, r0
    83a6:	09 94       	ijmp

000083a8 <__mulhisi3>:
    83a8:	05 d0       	rcall	.+10     	; 0x83b4 <__umulhisi3>
    83aa:	33 23       	and	r19, r19
    83ac:	12 f4       	brpl	.+4      	; 0x83b2 <__mulhisi3+0xa>
    83ae:	8a 1b       	sub	r24, r26
    83b0:	9b 0b       	sbc	r25, r27
    83b2:	10 c0       	rjmp	.+32     	; 0x83d4 <__usmulhisi3_tail>

000083b4 <__umulhisi3>:
    83b4:	a2 9f       	mul	r26, r18
    83b6:	b0 01       	movw	r22, r0
    83b8:	b3 9f       	mul	r27, r19
    83ba:	c0 01       	movw	r24, r0
    83bc:	a3 9f       	mul	r26, r19
    83be:	70 0d       	add	r23, r0
    83c0:	81 1d       	adc	r24, r1
    83c2:	11 24       	eor	r1, r1
    83c4:	91 1d       	adc	r25, r1
    83c6:	b2 9f       	mul	r27, r18
    83c8:	70 0d       	add	r23, r0
    83ca:	81 1d       	adc	r24, r1
    83cc:	11 24       	eor	r1, r1
    83ce:	91 1d       	adc	r25, r1
    83d0:	08 95       	ret

000083d2 <__usmulhisi3>:
    83d2:	f0 df       	rcall	.-32     	; 0x83b4 <__umulhisi3>

000083d4 <__usmulhisi3_tail>:
    83d4:	b7 ff       	sbrs	r27, 7
    83d6:	08 95       	ret
    83d8:	82 1b       	sub	r24, r18
    83da:	93 0b       	sbc	r25, r19
    83dc:	08 95       	ret

000083de <__muluhisi3>:
    83de:	ea df       	rcall	.-44     	; 0x83b4 <__umulhisi3>
    83e0:	a5 9f       	mul	r26, r21
    83e2:	90 0d       	add	r25, r0
    83e4:	b4 9f       	mul	r27, r20
    83e6:	90 0d       	add	r25, r0
    83e8:	a4 9f       	mul	r26, r20
    83ea:	80 0d       	add	r24, r0
    83ec:	91 1d       	adc	r25, r1
    83ee:	11 24       	eor	r1, r1
    83f0:	08 95       	ret

000083f2 <__udivmodhi4>:
    83f2:	aa 1b       	sub	r26, r26
    83f4:	bb 1b       	sub	r27, r27
    83f6:	51 e1       	ldi	r21, 0x11	; 17
    83f8:	07 c0       	rjmp	.+14     	; 0x8408 <__udivmodhi4_ep>

000083fa <__udivmodhi4_loop>:
    83fa:	aa 1f       	adc	r26, r26
    83fc:	bb 1f       	adc	r27, r27
    83fe:	a6 17       	cp	r26, r22
    8400:	b7 07       	cpc	r27, r23
    8402:	10 f0       	brcs	.+4      	; 0x8408 <__udivmodhi4_ep>
    8404:	a6 1b       	sub	r26, r22
    8406:	b7 0b       	sbc	r27, r23

00008408 <__udivmodhi4_ep>:
    8408:	88 1f       	adc	r24, r24
    840a:	99 1f       	adc	r25, r25
    840c:	5a 95       	dec	r21
    840e:	a9 f7       	brne	.-22     	; 0x83fa <__udivmodhi4_loop>
    8410:	80 95       	com	r24
    8412:	90 95       	com	r25
    8414:	bc 01       	movw	r22, r24
    8416:	cd 01       	movw	r24, r26
    8418:	08 95       	ret

0000841a <do_rand>:
    841a:	8f 92       	push	r8
    841c:	9f 92       	push	r9
    841e:	af 92       	push	r10
    8420:	bf 92       	push	r11
    8422:	cf 92       	push	r12
    8424:	df 92       	push	r13
    8426:	ef 92       	push	r14
    8428:	ff 92       	push	r15
    842a:	cf 93       	push	r28
    842c:	df 93       	push	r29
    842e:	ec 01       	movw	r28, r24
    8430:	68 81       	ld	r22, Y
    8432:	79 81       	ldd	r23, Y+1	; 0x01
    8434:	8a 81       	ldd	r24, Y+2	; 0x02
    8436:	9b 81       	ldd	r25, Y+3	; 0x03
    8438:	61 15       	cp	r22, r1
    843a:	71 05       	cpc	r23, r1
    843c:	81 05       	cpc	r24, r1
    843e:	91 05       	cpc	r25, r1
    8440:	21 f4       	brne	.+8      	; 0x844a <do_rand+0x30>
    8442:	64 e2       	ldi	r22, 0x24	; 36
    8444:	79 ed       	ldi	r23, 0xD9	; 217
    8446:	8b e5       	ldi	r24, 0x5B	; 91
    8448:	97 e0       	ldi	r25, 0x07	; 7
    844a:	2d e1       	ldi	r18, 0x1D	; 29
    844c:	33 ef       	ldi	r19, 0xF3	; 243
    844e:	41 e0       	ldi	r20, 0x01	; 1
    8450:	50 e0       	ldi	r21, 0x00	; 0
    8452:	0a d3       	rcall	.+1556   	; 0x8a68 <__divmodsi4>
    8454:	49 01       	movw	r8, r18
    8456:	5a 01       	movw	r10, r20
    8458:	9b 01       	movw	r18, r22
    845a:	ac 01       	movw	r20, r24
    845c:	a7 ea       	ldi	r26, 0xA7	; 167
    845e:	b1 e4       	ldi	r27, 0x41	; 65
    8460:	be df       	rcall	.-132    	; 0x83de <__muluhisi3>
    8462:	6b 01       	movw	r12, r22
    8464:	7c 01       	movw	r14, r24
    8466:	ac ee       	ldi	r26, 0xEC	; 236
    8468:	b4 ef       	ldi	r27, 0xF4	; 244
    846a:	a5 01       	movw	r20, r10
    846c:	94 01       	movw	r18, r8
    846e:	1a d3       	rcall	.+1588   	; 0x8aa4 <__mulohisi3>
    8470:	dc 01       	movw	r26, r24
    8472:	cb 01       	movw	r24, r22
    8474:	8c 0d       	add	r24, r12
    8476:	9d 1d       	adc	r25, r13
    8478:	ae 1d       	adc	r26, r14
    847a:	bf 1d       	adc	r27, r15
    847c:	b7 ff       	sbrs	r27, 7
    847e:	03 c0       	rjmp	.+6      	; 0x8486 <do_rand+0x6c>
    8480:	01 97       	sbiw	r24, 0x01	; 1
    8482:	a1 09       	sbc	r26, r1
    8484:	b0 48       	sbci	r27, 0x80	; 128
    8486:	88 83       	st	Y, r24
    8488:	99 83       	std	Y+1, r25	; 0x01
    848a:	aa 83       	std	Y+2, r26	; 0x02
    848c:	bb 83       	std	Y+3, r27	; 0x03
    848e:	9f 77       	andi	r25, 0x7F	; 127
    8490:	df 91       	pop	r29
    8492:	cf 91       	pop	r28
    8494:	ff 90       	pop	r15
    8496:	ef 90       	pop	r14
    8498:	df 90       	pop	r13
    849a:	cf 90       	pop	r12
    849c:	bf 90       	pop	r11
    849e:	af 90       	pop	r10
    84a0:	9f 90       	pop	r9
    84a2:	8f 90       	pop	r8
    84a4:	08 95       	ret

000084a6 <rand_r>:
    84a6:	b9 cf       	rjmp	.-142    	; 0x841a <do_rand>

000084a8 <rand>:
    84a8:	80 e0       	ldi	r24, 0x00	; 0
    84aa:	91 e0       	ldi	r25, 0x01	; 1
    84ac:	b6 cf       	rjmp	.-148    	; 0x841a <do_rand>

000084ae <srand>:
    84ae:	a0 e0       	ldi	r26, 0x00	; 0
    84b0:	b0 e0       	ldi	r27, 0x00	; 0
    84b2:	80 93 00 01 	sts	0x0100, r24
    84b6:	90 93 01 01 	sts	0x0101, r25
    84ba:	a0 93 02 01 	sts	0x0102, r26
    84be:	b0 93 03 01 	sts	0x0103, r27
    84c2:	08 95       	ret

000084c4 <__strlen_P>:
    84c4:	fc 01       	movw	r30, r24
    84c6:	05 90       	lpm	r0, Z+
    84c8:	00 20       	and	r0, r0
    84ca:	e9 f7       	brne	.-6      	; 0x84c6 <__strlen_P+0x2>
    84cc:	80 95       	com	r24
    84ce:	90 95       	com	r25
    84d0:	8e 0f       	add	r24, r30
    84d2:	9f 1f       	adc	r25, r31
    84d4:	08 95       	ret

000084d6 <sprintf>:
    84d6:	0f 93       	push	r16
    84d8:	1f 93       	push	r17
    84da:	cf 93       	push	r28
    84dc:	df 93       	push	r29
    84de:	cd b7       	in	r28, 0x3d	; 61
    84e0:	de b7       	in	r29, 0x3e	; 62
    84e2:	2e 97       	sbiw	r28, 0x0e	; 14
    84e4:	0f b6       	in	r0, 0x3f	; 63
    84e6:	f8 94       	cli
    84e8:	de bf       	out	0x3e, r29	; 62
    84ea:	0f be       	out	0x3f, r0	; 63
    84ec:	cd bf       	out	0x3d, r28	; 61
    84ee:	0d 89       	ldd	r16, Y+21	; 0x15
    84f0:	1e 89       	ldd	r17, Y+22	; 0x16
    84f2:	86 e0       	ldi	r24, 0x06	; 6
    84f4:	8c 83       	std	Y+4, r24	; 0x04
    84f6:	1a 83       	std	Y+2, r17	; 0x02
    84f8:	09 83       	std	Y+1, r16	; 0x01
    84fa:	8f ef       	ldi	r24, 0xFF	; 255
    84fc:	9f e7       	ldi	r25, 0x7F	; 127
    84fe:	9e 83       	std	Y+6, r25	; 0x06
    8500:	8d 83       	std	Y+5, r24	; 0x05
    8502:	ae 01       	movw	r20, r28
    8504:	47 5e       	subi	r20, 0xE7	; 231
    8506:	5f 4f       	sbci	r21, 0xFF	; 255
    8508:	6f 89       	ldd	r22, Y+23	; 0x17
    850a:	78 8d       	ldd	r23, Y+24	; 0x18
    850c:	ce 01       	movw	r24, r28
    850e:	01 96       	adiw	r24, 0x01	; 1
    8510:	11 d0       	rcall	.+34     	; 0x8534 <vfprintf>
    8512:	2f 81       	ldd	r18, Y+7	; 0x07
    8514:	38 85       	ldd	r19, Y+8	; 0x08
    8516:	f8 01       	movw	r30, r16
    8518:	e2 0f       	add	r30, r18
    851a:	f3 1f       	adc	r31, r19
    851c:	10 82       	st	Z, r1
    851e:	2e 96       	adiw	r28, 0x0e	; 14
    8520:	0f b6       	in	r0, 0x3f	; 63
    8522:	f8 94       	cli
    8524:	de bf       	out	0x3e, r29	; 62
    8526:	0f be       	out	0x3f, r0	; 63
    8528:	cd bf       	out	0x3d, r28	; 61
    852a:	df 91       	pop	r29
    852c:	cf 91       	pop	r28
    852e:	1f 91       	pop	r17
    8530:	0f 91       	pop	r16
    8532:	08 95       	ret

00008534 <vfprintf>:
    8534:	2f 92       	push	r2
    8536:	3f 92       	push	r3
    8538:	4f 92       	push	r4
    853a:	5f 92       	push	r5
    853c:	6f 92       	push	r6
    853e:	7f 92       	push	r7
    8540:	8f 92       	push	r8
    8542:	9f 92       	push	r9
    8544:	af 92       	push	r10
    8546:	bf 92       	push	r11
    8548:	cf 92       	push	r12
    854a:	df 92       	push	r13
    854c:	ef 92       	push	r14
    854e:	ff 92       	push	r15
    8550:	0f 93       	push	r16
    8552:	1f 93       	push	r17
    8554:	cf 93       	push	r28
    8556:	df 93       	push	r29
    8558:	cd b7       	in	r28, 0x3d	; 61
    855a:	de b7       	in	r29, 0x3e	; 62
    855c:	2c 97       	sbiw	r28, 0x0c	; 12
    855e:	0f b6       	in	r0, 0x3f	; 63
    8560:	f8 94       	cli
    8562:	de bf       	out	0x3e, r29	; 62
    8564:	0f be       	out	0x3f, r0	; 63
    8566:	cd bf       	out	0x3d, r28	; 61
    8568:	7c 01       	movw	r14, r24
    856a:	6b 01       	movw	r12, r22
    856c:	8a 01       	movw	r16, r20
    856e:	fc 01       	movw	r30, r24
    8570:	17 82       	std	Z+7, r1	; 0x07
    8572:	16 82       	std	Z+6, r1	; 0x06
    8574:	83 81       	ldd	r24, Z+3	; 0x03
    8576:	81 ff       	sbrs	r24, 1
    8578:	b0 c1       	rjmp	.+864    	; 0x88da <vfprintf+0x3a6>
    857a:	ce 01       	movw	r24, r28
    857c:	01 96       	adiw	r24, 0x01	; 1
    857e:	4c 01       	movw	r8, r24
    8580:	f7 01       	movw	r30, r14
    8582:	93 81       	ldd	r25, Z+3	; 0x03
    8584:	f6 01       	movw	r30, r12
    8586:	93 fd       	sbrc	r25, 3
    8588:	85 91       	lpm	r24, Z+
    858a:	93 ff       	sbrs	r25, 3
    858c:	81 91       	ld	r24, Z+
    858e:	6f 01       	movw	r12, r30
    8590:	88 23       	and	r24, r24
    8592:	09 f4       	brne	.+2      	; 0x8596 <vfprintf+0x62>
    8594:	9e c1       	rjmp	.+828    	; 0x88d2 <vfprintf+0x39e>
    8596:	85 32       	cpi	r24, 0x25	; 37
    8598:	39 f4       	brne	.+14     	; 0x85a8 <vfprintf+0x74>
    859a:	93 fd       	sbrc	r25, 3
    859c:	85 91       	lpm	r24, Z+
    859e:	93 ff       	sbrs	r25, 3
    85a0:	81 91       	ld	r24, Z+
    85a2:	6f 01       	movw	r12, r30
    85a4:	85 32       	cpi	r24, 0x25	; 37
    85a6:	21 f4       	brne	.+8      	; 0x85b0 <vfprintf+0x7c>
    85a8:	b7 01       	movw	r22, r14
    85aa:	90 e0       	ldi	r25, 0x00	; 0
    85ac:	c7 d1       	rcall	.+910    	; 0x893c <fputc>
    85ae:	e8 cf       	rjmp	.-48     	; 0x8580 <vfprintf+0x4c>
    85b0:	51 2c       	mov	r5, r1
    85b2:	31 2c       	mov	r3, r1
    85b4:	20 e0       	ldi	r18, 0x00	; 0
    85b6:	20 32       	cpi	r18, 0x20	; 32
    85b8:	a0 f4       	brcc	.+40     	; 0x85e2 <vfprintf+0xae>
    85ba:	8b 32       	cpi	r24, 0x2B	; 43
    85bc:	69 f0       	breq	.+26     	; 0x85d8 <vfprintf+0xa4>
    85be:	30 f4       	brcc	.+12     	; 0x85cc <vfprintf+0x98>
    85c0:	80 32       	cpi	r24, 0x20	; 32
    85c2:	59 f0       	breq	.+22     	; 0x85da <vfprintf+0xa6>
    85c4:	83 32       	cpi	r24, 0x23	; 35
    85c6:	69 f4       	brne	.+26     	; 0x85e2 <vfprintf+0xae>
    85c8:	20 61       	ori	r18, 0x10	; 16
    85ca:	2c c0       	rjmp	.+88     	; 0x8624 <vfprintf+0xf0>
    85cc:	8d 32       	cpi	r24, 0x2D	; 45
    85ce:	39 f0       	breq	.+14     	; 0x85de <vfprintf+0xaa>
    85d0:	80 33       	cpi	r24, 0x30	; 48
    85d2:	39 f4       	brne	.+14     	; 0x85e2 <vfprintf+0xae>
    85d4:	21 60       	ori	r18, 0x01	; 1
    85d6:	26 c0       	rjmp	.+76     	; 0x8624 <vfprintf+0xf0>
    85d8:	22 60       	ori	r18, 0x02	; 2
    85da:	24 60       	ori	r18, 0x04	; 4
    85dc:	23 c0       	rjmp	.+70     	; 0x8624 <vfprintf+0xf0>
    85de:	28 60       	ori	r18, 0x08	; 8
    85e0:	21 c0       	rjmp	.+66     	; 0x8624 <vfprintf+0xf0>
    85e2:	27 fd       	sbrc	r18, 7
    85e4:	27 c0       	rjmp	.+78     	; 0x8634 <vfprintf+0x100>
    85e6:	30 ed       	ldi	r19, 0xD0	; 208
    85e8:	38 0f       	add	r19, r24
    85ea:	3a 30       	cpi	r19, 0x0A	; 10
    85ec:	78 f4       	brcc	.+30     	; 0x860c <vfprintf+0xd8>
    85ee:	26 ff       	sbrs	r18, 6
    85f0:	06 c0       	rjmp	.+12     	; 0x85fe <vfprintf+0xca>
    85f2:	fa e0       	ldi	r31, 0x0A	; 10
    85f4:	5f 9e       	mul	r5, r31
    85f6:	30 0d       	add	r19, r0
    85f8:	11 24       	eor	r1, r1
    85fa:	53 2e       	mov	r5, r19
    85fc:	13 c0       	rjmp	.+38     	; 0x8624 <vfprintf+0xf0>
    85fe:	8a e0       	ldi	r24, 0x0A	; 10
    8600:	38 9e       	mul	r3, r24
    8602:	30 0d       	add	r19, r0
    8604:	11 24       	eor	r1, r1
    8606:	33 2e       	mov	r3, r19
    8608:	20 62       	ori	r18, 0x20	; 32
    860a:	0c c0       	rjmp	.+24     	; 0x8624 <vfprintf+0xf0>
    860c:	8e 32       	cpi	r24, 0x2E	; 46
    860e:	21 f4       	brne	.+8      	; 0x8618 <vfprintf+0xe4>
    8610:	26 fd       	sbrc	r18, 6
    8612:	5f c1       	rjmp	.+702    	; 0x88d2 <vfprintf+0x39e>
    8614:	20 64       	ori	r18, 0x40	; 64
    8616:	06 c0       	rjmp	.+12     	; 0x8624 <vfprintf+0xf0>
    8618:	8c 36       	cpi	r24, 0x6C	; 108
    861a:	11 f4       	brne	.+4      	; 0x8620 <vfprintf+0xec>
    861c:	20 68       	ori	r18, 0x80	; 128
    861e:	02 c0       	rjmp	.+4      	; 0x8624 <vfprintf+0xf0>
    8620:	88 36       	cpi	r24, 0x68	; 104
    8622:	41 f4       	brne	.+16     	; 0x8634 <vfprintf+0x100>
    8624:	f6 01       	movw	r30, r12
    8626:	93 fd       	sbrc	r25, 3
    8628:	85 91       	lpm	r24, Z+
    862a:	93 ff       	sbrs	r25, 3
    862c:	81 91       	ld	r24, Z+
    862e:	6f 01       	movw	r12, r30
    8630:	81 11       	cpse	r24, r1
    8632:	c1 cf       	rjmp	.-126    	; 0x85b6 <vfprintf+0x82>
    8634:	98 2f       	mov	r25, r24
    8636:	9f 7d       	andi	r25, 0xDF	; 223
    8638:	95 54       	subi	r25, 0x45	; 69
    863a:	93 30       	cpi	r25, 0x03	; 3
    863c:	28 f4       	brcc	.+10     	; 0x8648 <vfprintf+0x114>
    863e:	0c 5f       	subi	r16, 0xFC	; 252
    8640:	1f 4f       	sbci	r17, 0xFF	; 255
    8642:	ff e3       	ldi	r31, 0x3F	; 63
    8644:	f9 83       	std	Y+1, r31	; 0x01
    8646:	0d c0       	rjmp	.+26     	; 0x8662 <vfprintf+0x12e>
    8648:	83 36       	cpi	r24, 0x63	; 99
    864a:	31 f0       	breq	.+12     	; 0x8658 <vfprintf+0x124>
    864c:	83 37       	cpi	r24, 0x73	; 115
    864e:	71 f0       	breq	.+28     	; 0x866c <vfprintf+0x138>
    8650:	83 35       	cpi	r24, 0x53	; 83
    8652:	09 f0       	breq	.+2      	; 0x8656 <vfprintf+0x122>
    8654:	57 c0       	rjmp	.+174    	; 0x8704 <vfprintf+0x1d0>
    8656:	21 c0       	rjmp	.+66     	; 0x869a <vfprintf+0x166>
    8658:	f8 01       	movw	r30, r16
    865a:	80 81       	ld	r24, Z
    865c:	89 83       	std	Y+1, r24	; 0x01
    865e:	0e 5f       	subi	r16, 0xFE	; 254
    8660:	1f 4f       	sbci	r17, 0xFF	; 255
    8662:	44 24       	eor	r4, r4
    8664:	43 94       	inc	r4
    8666:	51 2c       	mov	r5, r1
    8668:	54 01       	movw	r10, r8
    866a:	14 c0       	rjmp	.+40     	; 0x8694 <vfprintf+0x160>
    866c:	38 01       	movw	r6, r16
    866e:	f2 e0       	ldi	r31, 0x02	; 2
    8670:	6f 0e       	add	r6, r31
    8672:	71 1c       	adc	r7, r1
    8674:	f8 01       	movw	r30, r16
    8676:	a0 80       	ld	r10, Z
    8678:	b1 80       	ldd	r11, Z+1	; 0x01
    867a:	26 ff       	sbrs	r18, 6
    867c:	03 c0       	rjmp	.+6      	; 0x8684 <vfprintf+0x150>
    867e:	65 2d       	mov	r22, r5
    8680:	70 e0       	ldi	r23, 0x00	; 0
    8682:	02 c0       	rjmp	.+4      	; 0x8688 <vfprintf+0x154>
    8684:	6f ef       	ldi	r22, 0xFF	; 255
    8686:	7f ef       	ldi	r23, 0xFF	; 255
    8688:	c5 01       	movw	r24, r10
    868a:	2c 87       	std	Y+12, r18	; 0x0c
    868c:	4c d1       	rcall	.+664    	; 0x8926 <strnlen>
    868e:	2c 01       	movw	r4, r24
    8690:	83 01       	movw	r16, r6
    8692:	2c 85       	ldd	r18, Y+12	; 0x0c
    8694:	2f 77       	andi	r18, 0x7F	; 127
    8696:	22 2e       	mov	r2, r18
    8698:	16 c0       	rjmp	.+44     	; 0x86c6 <vfprintf+0x192>
    869a:	38 01       	movw	r6, r16
    869c:	f2 e0       	ldi	r31, 0x02	; 2
    869e:	6f 0e       	add	r6, r31
    86a0:	71 1c       	adc	r7, r1
    86a2:	f8 01       	movw	r30, r16
    86a4:	a0 80       	ld	r10, Z
    86a6:	b1 80       	ldd	r11, Z+1	; 0x01
    86a8:	26 ff       	sbrs	r18, 6
    86aa:	03 c0       	rjmp	.+6      	; 0x86b2 <vfprintf+0x17e>
    86ac:	65 2d       	mov	r22, r5
    86ae:	70 e0       	ldi	r23, 0x00	; 0
    86b0:	02 c0       	rjmp	.+4      	; 0x86b6 <vfprintf+0x182>
    86b2:	6f ef       	ldi	r22, 0xFF	; 255
    86b4:	7f ef       	ldi	r23, 0xFF	; 255
    86b6:	c5 01       	movw	r24, r10
    86b8:	2c 87       	std	Y+12, r18	; 0x0c
    86ba:	2a d1       	rcall	.+596    	; 0x8910 <strnlen_P>
    86bc:	2c 01       	movw	r4, r24
    86be:	2c 85       	ldd	r18, Y+12	; 0x0c
    86c0:	20 68       	ori	r18, 0x80	; 128
    86c2:	22 2e       	mov	r2, r18
    86c4:	83 01       	movw	r16, r6
    86c6:	23 fc       	sbrc	r2, 3
    86c8:	19 c0       	rjmp	.+50     	; 0x86fc <vfprintf+0x1c8>
    86ca:	83 2d       	mov	r24, r3
    86cc:	90 e0       	ldi	r25, 0x00	; 0
    86ce:	48 16       	cp	r4, r24
    86d0:	59 06       	cpc	r5, r25
    86d2:	a0 f4       	brcc	.+40     	; 0x86fc <vfprintf+0x1c8>
    86d4:	b7 01       	movw	r22, r14
    86d6:	80 e2       	ldi	r24, 0x20	; 32
    86d8:	90 e0       	ldi	r25, 0x00	; 0
    86da:	30 d1       	rcall	.+608    	; 0x893c <fputc>
    86dc:	3a 94       	dec	r3
    86de:	f5 cf       	rjmp	.-22     	; 0x86ca <vfprintf+0x196>
    86e0:	f5 01       	movw	r30, r10
    86e2:	27 fc       	sbrc	r2, 7
    86e4:	85 91       	lpm	r24, Z+
    86e6:	27 fe       	sbrs	r2, 7
    86e8:	81 91       	ld	r24, Z+
    86ea:	5f 01       	movw	r10, r30
    86ec:	b7 01       	movw	r22, r14
    86ee:	90 e0       	ldi	r25, 0x00	; 0
    86f0:	25 d1       	rcall	.+586    	; 0x893c <fputc>
    86f2:	31 10       	cpse	r3, r1
    86f4:	3a 94       	dec	r3
    86f6:	f1 e0       	ldi	r31, 0x01	; 1
    86f8:	4f 1a       	sub	r4, r31
    86fa:	51 08       	sbc	r5, r1
    86fc:	41 14       	cp	r4, r1
    86fe:	51 04       	cpc	r5, r1
    8700:	79 f7       	brne	.-34     	; 0x86e0 <vfprintf+0x1ac>
    8702:	de c0       	rjmp	.+444    	; 0x88c0 <vfprintf+0x38c>
    8704:	84 36       	cpi	r24, 0x64	; 100
    8706:	11 f0       	breq	.+4      	; 0x870c <vfprintf+0x1d8>
    8708:	89 36       	cpi	r24, 0x69	; 105
    870a:	31 f5       	brne	.+76     	; 0x8758 <vfprintf+0x224>
    870c:	f8 01       	movw	r30, r16
    870e:	27 ff       	sbrs	r18, 7
    8710:	07 c0       	rjmp	.+14     	; 0x8720 <vfprintf+0x1ec>
    8712:	60 81       	ld	r22, Z
    8714:	71 81       	ldd	r23, Z+1	; 0x01
    8716:	82 81       	ldd	r24, Z+2	; 0x02
    8718:	93 81       	ldd	r25, Z+3	; 0x03
    871a:	0c 5f       	subi	r16, 0xFC	; 252
    871c:	1f 4f       	sbci	r17, 0xFF	; 255
    871e:	08 c0       	rjmp	.+16     	; 0x8730 <vfprintf+0x1fc>
    8720:	60 81       	ld	r22, Z
    8722:	71 81       	ldd	r23, Z+1	; 0x01
    8724:	07 2e       	mov	r0, r23
    8726:	00 0c       	add	r0, r0
    8728:	88 0b       	sbc	r24, r24
    872a:	99 0b       	sbc	r25, r25
    872c:	0e 5f       	subi	r16, 0xFE	; 254
    872e:	1f 4f       	sbci	r17, 0xFF	; 255
    8730:	2f 76       	andi	r18, 0x6F	; 111
    8732:	72 2e       	mov	r7, r18
    8734:	97 ff       	sbrs	r25, 7
    8736:	09 c0       	rjmp	.+18     	; 0x874a <vfprintf+0x216>
    8738:	90 95       	com	r25
    873a:	80 95       	com	r24
    873c:	70 95       	com	r23
    873e:	61 95       	neg	r22
    8740:	7f 4f       	sbci	r23, 0xFF	; 255
    8742:	8f 4f       	sbci	r24, 0xFF	; 255
    8744:	9f 4f       	sbci	r25, 0xFF	; 255
    8746:	20 68       	ori	r18, 0x80	; 128
    8748:	72 2e       	mov	r7, r18
    874a:	2a e0       	ldi	r18, 0x0A	; 10
    874c:	30 e0       	ldi	r19, 0x00	; 0
    874e:	a4 01       	movw	r20, r8
    8750:	2d d1       	rcall	.+602    	; 0x89ac <__ultoa_invert>
    8752:	a8 2e       	mov	r10, r24
    8754:	a8 18       	sub	r10, r8
    8756:	43 c0       	rjmp	.+134    	; 0x87de <vfprintf+0x2aa>
    8758:	85 37       	cpi	r24, 0x75	; 117
    875a:	29 f4       	brne	.+10     	; 0x8766 <vfprintf+0x232>
    875c:	2f 7e       	andi	r18, 0xEF	; 239
    875e:	b2 2e       	mov	r11, r18
    8760:	2a e0       	ldi	r18, 0x0A	; 10
    8762:	30 e0       	ldi	r19, 0x00	; 0
    8764:	25 c0       	rjmp	.+74     	; 0x87b0 <vfprintf+0x27c>
    8766:	f2 2f       	mov	r31, r18
    8768:	f9 7f       	andi	r31, 0xF9	; 249
    876a:	bf 2e       	mov	r11, r31
    876c:	8f 36       	cpi	r24, 0x6F	; 111
    876e:	c1 f0       	breq	.+48     	; 0x87a0 <vfprintf+0x26c>
    8770:	18 f4       	brcc	.+6      	; 0x8778 <vfprintf+0x244>
    8772:	88 35       	cpi	r24, 0x58	; 88
    8774:	79 f0       	breq	.+30     	; 0x8794 <vfprintf+0x260>
    8776:	ad c0       	rjmp	.+346    	; 0x88d2 <vfprintf+0x39e>
    8778:	80 37       	cpi	r24, 0x70	; 112
    877a:	19 f0       	breq	.+6      	; 0x8782 <vfprintf+0x24e>
    877c:	88 37       	cpi	r24, 0x78	; 120
    877e:	21 f0       	breq	.+8      	; 0x8788 <vfprintf+0x254>
    8780:	a8 c0       	rjmp	.+336    	; 0x88d2 <vfprintf+0x39e>
    8782:	2f 2f       	mov	r18, r31
    8784:	20 61       	ori	r18, 0x10	; 16
    8786:	b2 2e       	mov	r11, r18
    8788:	b4 fe       	sbrs	r11, 4
    878a:	0d c0       	rjmp	.+26     	; 0x87a6 <vfprintf+0x272>
    878c:	8b 2d       	mov	r24, r11
    878e:	84 60       	ori	r24, 0x04	; 4
    8790:	b8 2e       	mov	r11, r24
    8792:	09 c0       	rjmp	.+18     	; 0x87a6 <vfprintf+0x272>
    8794:	24 ff       	sbrs	r18, 4
    8796:	0a c0       	rjmp	.+20     	; 0x87ac <vfprintf+0x278>
    8798:	9f 2f       	mov	r25, r31
    879a:	96 60       	ori	r25, 0x06	; 6
    879c:	b9 2e       	mov	r11, r25
    879e:	06 c0       	rjmp	.+12     	; 0x87ac <vfprintf+0x278>
    87a0:	28 e0       	ldi	r18, 0x08	; 8
    87a2:	30 e0       	ldi	r19, 0x00	; 0
    87a4:	05 c0       	rjmp	.+10     	; 0x87b0 <vfprintf+0x27c>
    87a6:	20 e1       	ldi	r18, 0x10	; 16
    87a8:	30 e0       	ldi	r19, 0x00	; 0
    87aa:	02 c0       	rjmp	.+4      	; 0x87b0 <vfprintf+0x27c>
    87ac:	20 e1       	ldi	r18, 0x10	; 16
    87ae:	32 e0       	ldi	r19, 0x02	; 2
    87b0:	f8 01       	movw	r30, r16
    87b2:	b7 fe       	sbrs	r11, 7
    87b4:	07 c0       	rjmp	.+14     	; 0x87c4 <vfprintf+0x290>
    87b6:	60 81       	ld	r22, Z
    87b8:	71 81       	ldd	r23, Z+1	; 0x01
    87ba:	82 81       	ldd	r24, Z+2	; 0x02
    87bc:	93 81       	ldd	r25, Z+3	; 0x03
    87be:	0c 5f       	subi	r16, 0xFC	; 252
    87c0:	1f 4f       	sbci	r17, 0xFF	; 255
    87c2:	06 c0       	rjmp	.+12     	; 0x87d0 <vfprintf+0x29c>
    87c4:	60 81       	ld	r22, Z
    87c6:	71 81       	ldd	r23, Z+1	; 0x01
    87c8:	80 e0       	ldi	r24, 0x00	; 0
    87ca:	90 e0       	ldi	r25, 0x00	; 0
    87cc:	0e 5f       	subi	r16, 0xFE	; 254
    87ce:	1f 4f       	sbci	r17, 0xFF	; 255
    87d0:	a4 01       	movw	r20, r8
    87d2:	ec d0       	rcall	.+472    	; 0x89ac <__ultoa_invert>
    87d4:	a8 2e       	mov	r10, r24
    87d6:	a8 18       	sub	r10, r8
    87d8:	fb 2d       	mov	r31, r11
    87da:	ff 77       	andi	r31, 0x7F	; 127
    87dc:	7f 2e       	mov	r7, r31
    87de:	76 fe       	sbrs	r7, 6
    87e0:	0b c0       	rjmp	.+22     	; 0x87f8 <vfprintf+0x2c4>
    87e2:	37 2d       	mov	r19, r7
    87e4:	3e 7f       	andi	r19, 0xFE	; 254
    87e6:	a5 14       	cp	r10, r5
    87e8:	50 f4       	brcc	.+20     	; 0x87fe <vfprintf+0x2ca>
    87ea:	74 fe       	sbrs	r7, 4
    87ec:	0a c0       	rjmp	.+20     	; 0x8802 <vfprintf+0x2ce>
    87ee:	72 fc       	sbrc	r7, 2
    87f0:	08 c0       	rjmp	.+16     	; 0x8802 <vfprintf+0x2ce>
    87f2:	37 2d       	mov	r19, r7
    87f4:	3e 7e       	andi	r19, 0xEE	; 238
    87f6:	05 c0       	rjmp	.+10     	; 0x8802 <vfprintf+0x2ce>
    87f8:	ba 2c       	mov	r11, r10
    87fa:	37 2d       	mov	r19, r7
    87fc:	03 c0       	rjmp	.+6      	; 0x8804 <vfprintf+0x2d0>
    87fe:	ba 2c       	mov	r11, r10
    8800:	01 c0       	rjmp	.+2      	; 0x8804 <vfprintf+0x2d0>
    8802:	b5 2c       	mov	r11, r5
    8804:	34 ff       	sbrs	r19, 4
    8806:	0d c0       	rjmp	.+26     	; 0x8822 <vfprintf+0x2ee>
    8808:	fe 01       	movw	r30, r28
    880a:	ea 0d       	add	r30, r10
    880c:	f1 1d       	adc	r31, r1
    880e:	80 81       	ld	r24, Z
    8810:	80 33       	cpi	r24, 0x30	; 48
    8812:	11 f4       	brne	.+4      	; 0x8818 <vfprintf+0x2e4>
    8814:	39 7e       	andi	r19, 0xE9	; 233
    8816:	09 c0       	rjmp	.+18     	; 0x882a <vfprintf+0x2f6>
    8818:	32 ff       	sbrs	r19, 2
    881a:	06 c0       	rjmp	.+12     	; 0x8828 <vfprintf+0x2f4>
    881c:	b3 94       	inc	r11
    881e:	b3 94       	inc	r11
    8820:	04 c0       	rjmp	.+8      	; 0x882a <vfprintf+0x2f6>
    8822:	83 2f       	mov	r24, r19
    8824:	86 78       	andi	r24, 0x86	; 134
    8826:	09 f0       	breq	.+2      	; 0x882a <vfprintf+0x2f6>
    8828:	b3 94       	inc	r11
    882a:	33 fd       	sbrc	r19, 3
    882c:	12 c0       	rjmp	.+36     	; 0x8852 <vfprintf+0x31e>
    882e:	30 ff       	sbrs	r19, 0
    8830:	06 c0       	rjmp	.+12     	; 0x883e <vfprintf+0x30a>
    8832:	5a 2c       	mov	r5, r10
    8834:	b3 14       	cp	r11, r3
    8836:	18 f4       	brcc	.+6      	; 0x883e <vfprintf+0x30a>
    8838:	53 0c       	add	r5, r3
    883a:	5b 18       	sub	r5, r11
    883c:	b3 2c       	mov	r11, r3
    883e:	b3 14       	cp	r11, r3
    8840:	60 f4       	brcc	.+24     	; 0x885a <vfprintf+0x326>
    8842:	b7 01       	movw	r22, r14
    8844:	80 e2       	ldi	r24, 0x20	; 32
    8846:	90 e0       	ldi	r25, 0x00	; 0
    8848:	3c 87       	std	Y+12, r19	; 0x0c
    884a:	78 d0       	rcall	.+240    	; 0x893c <fputc>
    884c:	b3 94       	inc	r11
    884e:	3c 85       	ldd	r19, Y+12	; 0x0c
    8850:	f6 cf       	rjmp	.-20     	; 0x883e <vfprintf+0x30a>
    8852:	b3 14       	cp	r11, r3
    8854:	10 f4       	brcc	.+4      	; 0x885a <vfprintf+0x326>
    8856:	3b 18       	sub	r3, r11
    8858:	01 c0       	rjmp	.+2      	; 0x885c <vfprintf+0x328>
    885a:	31 2c       	mov	r3, r1
    885c:	34 ff       	sbrs	r19, 4
    885e:	11 c0       	rjmp	.+34     	; 0x8882 <vfprintf+0x34e>
    8860:	b7 01       	movw	r22, r14
    8862:	80 e3       	ldi	r24, 0x30	; 48
    8864:	90 e0       	ldi	r25, 0x00	; 0
    8866:	3c 87       	std	Y+12, r19	; 0x0c
    8868:	69 d0       	rcall	.+210    	; 0x893c <fputc>
    886a:	3c 85       	ldd	r19, Y+12	; 0x0c
    886c:	32 ff       	sbrs	r19, 2
    886e:	16 c0       	rjmp	.+44     	; 0x889c <vfprintf+0x368>
    8870:	31 fd       	sbrc	r19, 1
    8872:	03 c0       	rjmp	.+6      	; 0x887a <vfprintf+0x346>
    8874:	88 e7       	ldi	r24, 0x78	; 120
    8876:	90 e0       	ldi	r25, 0x00	; 0
    8878:	02 c0       	rjmp	.+4      	; 0x887e <vfprintf+0x34a>
    887a:	88 e5       	ldi	r24, 0x58	; 88
    887c:	90 e0       	ldi	r25, 0x00	; 0
    887e:	b7 01       	movw	r22, r14
    8880:	0c c0       	rjmp	.+24     	; 0x889a <vfprintf+0x366>
    8882:	83 2f       	mov	r24, r19
    8884:	86 78       	andi	r24, 0x86	; 134
    8886:	51 f0       	breq	.+20     	; 0x889c <vfprintf+0x368>
    8888:	31 ff       	sbrs	r19, 1
    888a:	02 c0       	rjmp	.+4      	; 0x8890 <vfprintf+0x35c>
    888c:	8b e2       	ldi	r24, 0x2B	; 43
    888e:	01 c0       	rjmp	.+2      	; 0x8892 <vfprintf+0x35e>
    8890:	80 e2       	ldi	r24, 0x20	; 32
    8892:	37 fd       	sbrc	r19, 7
    8894:	8d e2       	ldi	r24, 0x2D	; 45
    8896:	b7 01       	movw	r22, r14
    8898:	90 e0       	ldi	r25, 0x00	; 0
    889a:	50 d0       	rcall	.+160    	; 0x893c <fputc>
    889c:	a5 14       	cp	r10, r5
    889e:	30 f4       	brcc	.+12     	; 0x88ac <vfprintf+0x378>
    88a0:	b7 01       	movw	r22, r14
    88a2:	80 e3       	ldi	r24, 0x30	; 48
    88a4:	90 e0       	ldi	r25, 0x00	; 0
    88a6:	4a d0       	rcall	.+148    	; 0x893c <fputc>
    88a8:	5a 94       	dec	r5
    88aa:	f8 cf       	rjmp	.-16     	; 0x889c <vfprintf+0x368>
    88ac:	aa 94       	dec	r10
    88ae:	f4 01       	movw	r30, r8
    88b0:	ea 0d       	add	r30, r10
    88b2:	f1 1d       	adc	r31, r1
    88b4:	80 81       	ld	r24, Z
    88b6:	b7 01       	movw	r22, r14
    88b8:	90 e0       	ldi	r25, 0x00	; 0
    88ba:	40 d0       	rcall	.+128    	; 0x893c <fputc>
    88bc:	a1 10       	cpse	r10, r1
    88be:	f6 cf       	rjmp	.-20     	; 0x88ac <vfprintf+0x378>
    88c0:	33 20       	and	r3, r3
    88c2:	09 f4       	brne	.+2      	; 0x88c6 <vfprintf+0x392>
    88c4:	5d ce       	rjmp	.-838    	; 0x8580 <vfprintf+0x4c>
    88c6:	b7 01       	movw	r22, r14
    88c8:	80 e2       	ldi	r24, 0x20	; 32
    88ca:	90 e0       	ldi	r25, 0x00	; 0
    88cc:	37 d0       	rcall	.+110    	; 0x893c <fputc>
    88ce:	3a 94       	dec	r3
    88d0:	f7 cf       	rjmp	.-18     	; 0x88c0 <vfprintf+0x38c>
    88d2:	f7 01       	movw	r30, r14
    88d4:	86 81       	ldd	r24, Z+6	; 0x06
    88d6:	97 81       	ldd	r25, Z+7	; 0x07
    88d8:	02 c0       	rjmp	.+4      	; 0x88de <vfprintf+0x3aa>
    88da:	8f ef       	ldi	r24, 0xFF	; 255
    88dc:	9f ef       	ldi	r25, 0xFF	; 255
    88de:	2c 96       	adiw	r28, 0x0c	; 12
    88e0:	0f b6       	in	r0, 0x3f	; 63
    88e2:	f8 94       	cli
    88e4:	de bf       	out	0x3e, r29	; 62
    88e6:	0f be       	out	0x3f, r0	; 63
    88e8:	cd bf       	out	0x3d, r28	; 61
    88ea:	df 91       	pop	r29
    88ec:	cf 91       	pop	r28
    88ee:	1f 91       	pop	r17
    88f0:	0f 91       	pop	r16
    88f2:	ff 90       	pop	r15
    88f4:	ef 90       	pop	r14
    88f6:	df 90       	pop	r13
    88f8:	cf 90       	pop	r12
    88fa:	bf 90       	pop	r11
    88fc:	af 90       	pop	r10
    88fe:	9f 90       	pop	r9
    8900:	8f 90       	pop	r8
    8902:	7f 90       	pop	r7
    8904:	6f 90       	pop	r6
    8906:	5f 90       	pop	r5
    8908:	4f 90       	pop	r4
    890a:	3f 90       	pop	r3
    890c:	2f 90       	pop	r2
    890e:	08 95       	ret

00008910 <strnlen_P>:
    8910:	fc 01       	movw	r30, r24
    8912:	05 90       	lpm	r0, Z+
    8914:	61 50       	subi	r22, 0x01	; 1
    8916:	70 40       	sbci	r23, 0x00	; 0
    8918:	01 10       	cpse	r0, r1
    891a:	d8 f7       	brcc	.-10     	; 0x8912 <strnlen_P+0x2>
    891c:	80 95       	com	r24
    891e:	90 95       	com	r25
    8920:	8e 0f       	add	r24, r30
    8922:	9f 1f       	adc	r25, r31
    8924:	08 95       	ret

00008926 <strnlen>:
    8926:	fc 01       	movw	r30, r24
    8928:	61 50       	subi	r22, 0x01	; 1
    892a:	70 40       	sbci	r23, 0x00	; 0
    892c:	01 90       	ld	r0, Z+
    892e:	01 10       	cpse	r0, r1
    8930:	d8 f7       	brcc	.-10     	; 0x8928 <strnlen+0x2>
    8932:	80 95       	com	r24
    8934:	90 95       	com	r25
    8936:	8e 0f       	add	r24, r30
    8938:	9f 1f       	adc	r25, r31
    893a:	08 95       	ret

0000893c <fputc>:
    893c:	0f 93       	push	r16
    893e:	1f 93       	push	r17
    8940:	cf 93       	push	r28
    8942:	df 93       	push	r29
    8944:	fb 01       	movw	r30, r22
    8946:	23 81       	ldd	r18, Z+3	; 0x03
    8948:	21 fd       	sbrc	r18, 1
    894a:	03 c0       	rjmp	.+6      	; 0x8952 <fputc+0x16>
    894c:	8f ef       	ldi	r24, 0xFF	; 255
    894e:	9f ef       	ldi	r25, 0xFF	; 255
    8950:	28 c0       	rjmp	.+80     	; 0x89a2 <fputc+0x66>
    8952:	22 ff       	sbrs	r18, 2
    8954:	16 c0       	rjmp	.+44     	; 0x8982 <fputc+0x46>
    8956:	46 81       	ldd	r20, Z+6	; 0x06
    8958:	57 81       	ldd	r21, Z+7	; 0x07
    895a:	24 81       	ldd	r18, Z+4	; 0x04
    895c:	35 81       	ldd	r19, Z+5	; 0x05
    895e:	42 17       	cp	r20, r18
    8960:	53 07       	cpc	r21, r19
    8962:	44 f4       	brge	.+16     	; 0x8974 <fputc+0x38>
    8964:	a0 81       	ld	r26, Z
    8966:	b1 81       	ldd	r27, Z+1	; 0x01
    8968:	9d 01       	movw	r18, r26
    896a:	2f 5f       	subi	r18, 0xFF	; 255
    896c:	3f 4f       	sbci	r19, 0xFF	; 255
    896e:	31 83       	std	Z+1, r19	; 0x01
    8970:	20 83       	st	Z, r18
    8972:	8c 93       	st	X, r24
    8974:	26 81       	ldd	r18, Z+6	; 0x06
    8976:	37 81       	ldd	r19, Z+7	; 0x07
    8978:	2f 5f       	subi	r18, 0xFF	; 255
    897a:	3f 4f       	sbci	r19, 0xFF	; 255
    897c:	37 83       	std	Z+7, r19	; 0x07
    897e:	26 83       	std	Z+6, r18	; 0x06
    8980:	10 c0       	rjmp	.+32     	; 0x89a2 <fputc+0x66>
    8982:	eb 01       	movw	r28, r22
    8984:	09 2f       	mov	r16, r25
    8986:	18 2f       	mov	r17, r24
    8988:	00 84       	ldd	r0, Z+8	; 0x08
    898a:	f1 85       	ldd	r31, Z+9	; 0x09
    898c:	e0 2d       	mov	r30, r0
    898e:	09 95       	icall
    8990:	89 2b       	or	r24, r25
    8992:	e1 f6       	brne	.-72     	; 0x894c <fputc+0x10>
    8994:	8e 81       	ldd	r24, Y+6	; 0x06
    8996:	9f 81       	ldd	r25, Y+7	; 0x07
    8998:	01 96       	adiw	r24, 0x01	; 1
    899a:	9f 83       	std	Y+7, r25	; 0x07
    899c:	8e 83       	std	Y+6, r24	; 0x06
    899e:	81 2f       	mov	r24, r17
    89a0:	90 2f       	mov	r25, r16
    89a2:	df 91       	pop	r29
    89a4:	cf 91       	pop	r28
    89a6:	1f 91       	pop	r17
    89a8:	0f 91       	pop	r16
    89aa:	08 95       	ret

000089ac <__ultoa_invert>:
    89ac:	fa 01       	movw	r30, r20
    89ae:	aa 27       	eor	r26, r26
    89b0:	28 30       	cpi	r18, 0x08	; 8
    89b2:	51 f1       	breq	.+84     	; 0x8a08 <__ultoa_invert+0x5c>
    89b4:	20 31       	cpi	r18, 0x10	; 16
    89b6:	81 f1       	breq	.+96     	; 0x8a18 <__ultoa_invert+0x6c>
    89b8:	e8 94       	clt
    89ba:	6f 93       	push	r22
    89bc:	6e 7f       	andi	r22, 0xFE	; 254
    89be:	6e 5f       	subi	r22, 0xFE	; 254
    89c0:	7f 4f       	sbci	r23, 0xFF	; 255
    89c2:	8f 4f       	sbci	r24, 0xFF	; 255
    89c4:	9f 4f       	sbci	r25, 0xFF	; 255
    89c6:	af 4f       	sbci	r26, 0xFF	; 255
    89c8:	b1 e0       	ldi	r27, 0x01	; 1
    89ca:	3e d0       	rcall	.+124    	; 0x8a48 <__ultoa_invert+0x9c>
    89cc:	b4 e0       	ldi	r27, 0x04	; 4
    89ce:	3c d0       	rcall	.+120    	; 0x8a48 <__ultoa_invert+0x9c>
    89d0:	67 0f       	add	r22, r23
    89d2:	78 1f       	adc	r23, r24
    89d4:	89 1f       	adc	r24, r25
    89d6:	9a 1f       	adc	r25, r26
    89d8:	a1 1d       	adc	r26, r1
    89da:	68 0f       	add	r22, r24
    89dc:	79 1f       	adc	r23, r25
    89de:	8a 1f       	adc	r24, r26
    89e0:	91 1d       	adc	r25, r1
    89e2:	a1 1d       	adc	r26, r1
    89e4:	6a 0f       	add	r22, r26
    89e6:	71 1d       	adc	r23, r1
    89e8:	81 1d       	adc	r24, r1
    89ea:	91 1d       	adc	r25, r1
    89ec:	a1 1d       	adc	r26, r1
    89ee:	20 d0       	rcall	.+64     	; 0x8a30 <__ultoa_invert+0x84>
    89f0:	09 f4       	brne	.+2      	; 0x89f4 <__ultoa_invert+0x48>
    89f2:	68 94       	set
    89f4:	3f 91       	pop	r19
    89f6:	2a e0       	ldi	r18, 0x0A	; 10
    89f8:	26 9f       	mul	r18, r22
    89fa:	11 24       	eor	r1, r1
    89fc:	30 19       	sub	r19, r0
    89fe:	30 5d       	subi	r19, 0xD0	; 208
    8a00:	31 93       	st	Z+, r19
    8a02:	de f6       	brtc	.-74     	; 0x89ba <__ultoa_invert+0xe>
    8a04:	cf 01       	movw	r24, r30
    8a06:	08 95       	ret
    8a08:	46 2f       	mov	r20, r22
    8a0a:	47 70       	andi	r20, 0x07	; 7
    8a0c:	40 5d       	subi	r20, 0xD0	; 208
    8a0e:	41 93       	st	Z+, r20
    8a10:	b3 e0       	ldi	r27, 0x03	; 3
    8a12:	0f d0       	rcall	.+30     	; 0x8a32 <__ultoa_invert+0x86>
    8a14:	c9 f7       	brne	.-14     	; 0x8a08 <__ultoa_invert+0x5c>
    8a16:	f6 cf       	rjmp	.-20     	; 0x8a04 <__ultoa_invert+0x58>
    8a18:	46 2f       	mov	r20, r22
    8a1a:	4f 70       	andi	r20, 0x0F	; 15
    8a1c:	40 5d       	subi	r20, 0xD0	; 208
    8a1e:	4a 33       	cpi	r20, 0x3A	; 58
    8a20:	18 f0       	brcs	.+6      	; 0x8a28 <__ultoa_invert+0x7c>
    8a22:	49 5d       	subi	r20, 0xD9	; 217
    8a24:	31 fd       	sbrc	r19, 1
    8a26:	40 52       	subi	r20, 0x20	; 32
    8a28:	41 93       	st	Z+, r20
    8a2a:	02 d0       	rcall	.+4      	; 0x8a30 <__ultoa_invert+0x84>
    8a2c:	a9 f7       	brne	.-22     	; 0x8a18 <__ultoa_invert+0x6c>
    8a2e:	ea cf       	rjmp	.-44     	; 0x8a04 <__ultoa_invert+0x58>
    8a30:	b4 e0       	ldi	r27, 0x04	; 4
    8a32:	a6 95       	lsr	r26
    8a34:	97 95       	ror	r25
    8a36:	87 95       	ror	r24
    8a38:	77 95       	ror	r23
    8a3a:	67 95       	ror	r22
    8a3c:	ba 95       	dec	r27
    8a3e:	c9 f7       	brne	.-14     	; 0x8a32 <__ultoa_invert+0x86>
    8a40:	00 97       	sbiw	r24, 0x00	; 0
    8a42:	61 05       	cpc	r22, r1
    8a44:	71 05       	cpc	r23, r1
    8a46:	08 95       	ret
    8a48:	9b 01       	movw	r18, r22
    8a4a:	ac 01       	movw	r20, r24
    8a4c:	0a 2e       	mov	r0, r26
    8a4e:	06 94       	lsr	r0
    8a50:	57 95       	ror	r21
    8a52:	47 95       	ror	r20
    8a54:	37 95       	ror	r19
    8a56:	27 95       	ror	r18
    8a58:	ba 95       	dec	r27
    8a5a:	c9 f7       	brne	.-14     	; 0x8a4e <__ultoa_invert+0xa2>
    8a5c:	62 0f       	add	r22, r18
    8a5e:	73 1f       	adc	r23, r19
    8a60:	84 1f       	adc	r24, r20
    8a62:	95 1f       	adc	r25, r21
    8a64:	a0 1d       	adc	r26, r0
    8a66:	08 95       	ret

00008a68 <__divmodsi4>:
    8a68:	05 2e       	mov	r0, r21
    8a6a:	97 fb       	bst	r25, 7
    8a6c:	16 f4       	brtc	.+4      	; 0x8a72 <__divmodsi4+0xa>
    8a6e:	00 94       	com	r0
    8a70:	0f d0       	rcall	.+30     	; 0x8a90 <__negsi2>
    8a72:	57 fd       	sbrc	r21, 7
    8a74:	05 d0       	rcall	.+10     	; 0x8a80 <__divmodsi4_neg2>
    8a76:	6d dc       	rcall	.-1830   	; 0x8352 <__udivmodsi4>
    8a78:	07 fc       	sbrc	r0, 7
    8a7a:	02 d0       	rcall	.+4      	; 0x8a80 <__divmodsi4_neg2>
    8a7c:	46 f4       	brtc	.+16     	; 0x8a8e <__divmodsi4_exit>
    8a7e:	08 c0       	rjmp	.+16     	; 0x8a90 <__negsi2>

00008a80 <__divmodsi4_neg2>:
    8a80:	50 95       	com	r21
    8a82:	40 95       	com	r20
    8a84:	30 95       	com	r19
    8a86:	21 95       	neg	r18
    8a88:	3f 4f       	sbci	r19, 0xFF	; 255
    8a8a:	4f 4f       	sbci	r20, 0xFF	; 255
    8a8c:	5f 4f       	sbci	r21, 0xFF	; 255

00008a8e <__divmodsi4_exit>:
    8a8e:	08 95       	ret

00008a90 <__negsi2>:
    8a90:	90 95       	com	r25
    8a92:	80 95       	com	r24
    8a94:	70 95       	com	r23
    8a96:	61 95       	neg	r22
    8a98:	7f 4f       	sbci	r23, 0xFF	; 255
    8a9a:	8f 4f       	sbci	r24, 0xFF	; 255
    8a9c:	9f 4f       	sbci	r25, 0xFF	; 255
    8a9e:	08 95       	ret

00008aa0 <__mulshisi3>:
    8aa0:	b7 ff       	sbrs	r27, 7
    8aa2:	9d cc       	rjmp	.-1734   	; 0x83de <__muluhisi3>

00008aa4 <__mulohisi3>:
    8aa4:	9c dc       	rcall	.-1736   	; 0x83de <__muluhisi3>
    8aa6:	82 1b       	sub	r24, r18
    8aa8:	93 0b       	sbc	r25, r19
    8aaa:	08 95       	ret

00008aac <__do_global_dtors>:
    8aac:	1c e1       	ldi	r17, 0x1C	; 28
    8aae:	c5 ec       	ldi	r28, 0xC5	; 197
    8ab0:	dc e1       	ldi	r29, 0x1C	; 28
    8ab2:	03 c0       	rjmp	.+6      	; 0x8aba <__do_global_dtors+0xe>
    8ab4:	fe 01       	movw	r30, r28
    8ab6:	6f dc       	rcall	.-1826   	; 0x8396 <__tablejump2__>
    8ab8:	21 96       	adiw	r28, 0x01	; 1
    8aba:	c6 3c       	cpi	r28, 0xC6	; 198
    8abc:	d1 07       	cpc	r29, r17
    8abe:	d1 f7       	brne	.-12     	; 0x8ab4 <__do_global_dtors+0x8>
    8ac0:	f8 94       	cli

00008ac2 <__stop_program>:
    8ac2:	ff cf       	rjmp	.-2      	; 0x8ac2 <__stop_program>
