
exp1.elf:     file format elf32-avr

Sections:
Idx Name          Size      VMA       LMA       File off  Algn
  0 .text         00000fba  00000000  00000000  00000074  2**1
                  CONTENTS, ALLOC, LOAD, READONLY, CODE
  1 .data         00000108  00800060  00000fba  0000102e  2**0
                  CONTENTS, ALLOC, LOAD, DATA
  2 .bss          0000001a  00800168  000010c2  00001136  2**0
                  ALLOC
  3 .stab         00000378  00000000  00000000  00001138  2**2
                  CONTENTS, READONLY, DEBUGGING
  4 .stabstr      0000005f  00000000  00000000  000014b0  2**0
                  CONTENTS, READONLY, DEBUGGING
  5 .debug_aranges 00000020  00000000  00000000  0000150f  2**0
                  CONTENTS, READONLY, DEBUGGING
  6 .debug_pubnames 000000f5  00000000  00000000  0000152f  2**0
                  CONTENTS, READONLY, DEBUGGING
  7 .debug_info   00000349  00000000  00000000  00001624  2**0
                  CONTENTS, READONLY, DEBUGGING
  8 .debug_abbrev 00000181  00000000  00000000  0000196d  2**0
                  CONTENTS, READONLY, DEBUGGING
  9 .debug_line   00000313  00000000  00000000  00001aee  2**0
                  CONTENTS, READONLY, DEBUGGING
 10 .debug_frame  00000090  00000000  00000000  00001e04  2**2
                  CONTENTS, READONLY, DEBUGGING
 11 .debug_str    00000161  00000000  00000000  00001e94  2**0
                  CONTENTS, READONLY, DEBUGGING
 12 .debug_loc    000000ec  00000000  00000000  00001ff5  2**0
                  CONTENTS, READONLY, DEBUGGING
Disassembly of section .text:

00000000 <__vectors>:
   0:	1c c0       	rjmp	.+56     	; 0x3a <__ctors_end>
   2:	36 c0       	rjmp	.+108    	; 0x70 <__bad_interrupt>
   4:	35 c0       	rjmp	.+106    	; 0x70 <__bad_interrupt>
   6:	34 c0       	rjmp	.+104    	; 0x70 <__bad_interrupt>
   8:	33 c0       	rjmp	.+102    	; 0x70 <__bad_interrupt>
   a:	32 c0       	rjmp	.+100    	; 0x70 <__bad_interrupt>
   c:	31 c0       	rjmp	.+98     	; 0x70 <__bad_interrupt>
   e:	30 c0       	rjmp	.+96     	; 0x70 <__bad_interrupt>
  10:	2f c0       	rjmp	.+94     	; 0x70 <__bad_interrupt>
  12:	2e c0       	rjmp	.+92     	; 0x70 <__bad_interrupt>
  14:	2d c0       	rjmp	.+90     	; 0x70 <__bad_interrupt>
  16:	2c c0       	rjmp	.+88     	; 0x70 <__bad_interrupt>
  18:	2b c0       	rjmp	.+86     	; 0x70 <__bad_interrupt>
  1a:	2a c0       	rjmp	.+84     	; 0x70 <__bad_interrupt>
  1c:	31 c1       	rjmp	.+610    	; 0x280 <__vector_14>
  1e:	28 c0       	rjmp	.+80     	; 0x70 <__bad_interrupt>
  20:	27 c0       	rjmp	.+78     	; 0x70 <__bad_interrupt>
  22:	26 c0       	rjmp	.+76     	; 0x70 <__bad_interrupt>
  24:	25 c0       	rjmp	.+74     	; 0x70 <__bad_interrupt>
  26:	4c c0       	rjmp	.+152    	; 0xc0 <func_check+0xc>
  28:	4e c0       	rjmp	.+156    	; 0xc6 <func_check+0x12>
  2a:	50 c0       	rjmp	.+160    	; 0xcc <func_check+0x18>
  2c:	52 c0       	rjmp	.+164    	; 0xd2 <func_check+0x1e>
  2e:	54 c0       	rjmp	.+168    	; 0xd8 <func_check+0x24>
  30:	56 c0       	rjmp	.+172    	; 0xde <func_check+0x2a>
  32:	58 c0       	rjmp	.+176    	; 0xe4 <func_check+0x30>
  34:	5a c0       	rjmp	.+180    	; 0xea <func_check+0x36>
  36:	5c c0       	rjmp	.+184    	; 0xf0 <func_check+0x3c>
  38:	5e c0       	rjmp	.+188    	; 0xf6 <func_check+0x42>

0000003a <__ctors_end>:
  3a:	11 24       	eor	r1, r1
  3c:	1f be       	out	0x3f, r1	; 63
  3e:	cf e5       	ldi	r28, 0x5F	; 95
  40:	d4 e0       	ldi	r29, 0x04	; 4
  42:	de bf       	out	0x3e, r29	; 62
  44:	cd bf       	out	0x3d, r28	; 61

00000046 <__do_copy_data>:
  46:	11 e0       	ldi	r17, 0x01	; 1
  48:	a0 e6       	ldi	r26, 0x60	; 96
  4a:	b0 e0       	ldi	r27, 0x00	; 0
  4c:	ea eb       	ldi	r30, 0xBA	; 186
  4e:	ff e0       	ldi	r31, 0x0F	; 15
  50:	02 c0       	rjmp	.+4      	; 0x56 <.do_copy_data_start>

00000052 <.do_copy_data_loop>:
  52:	05 90       	lpm	r0, Z+
  54:	0d 92       	st	X+, r0

00000056 <.do_copy_data_start>:
  56:	a8 36       	cpi	r26, 0x68	; 104
  58:	b1 07       	cpc	r27, r17
  5a:	d9 f7       	brne	.-10     	; 0x52 <.do_copy_data_loop>

0000005c <__do_clear_bss>:
  5c:	11 e0       	ldi	r17, 0x01	; 1
  5e:	a8 e6       	ldi	r26, 0x68	; 104
  60:	b1 e0       	ldi	r27, 0x01	; 1
  62:	01 c0       	rjmp	.+2      	; 0x66 <.do_clear_bss_start>

00000064 <.do_clear_bss_loop>:
  64:	1d 92       	st	X+, r1

00000066 <.do_clear_bss_start>:
  66:	a2 38       	cpi	r26, 0x82	; 130
  68:	b1 07       	cpc	r27, r17
  6a:	e1 f7       	brne	.-8      	; 0x64 <.do_clear_bss_loop>
  6c:	14 d0       	rcall	.+40     	; 0x96 <main>
  6e:	a4 c7       	rjmp	.+3912   	; 0xfb8 <_exit>

00000070 <__bad_interrupt>:
  70:	c7 cf       	rjmp	.-114    	; 0x0 <__vectors>

00000072 <adc_init>:
  72:	3e 9a       	sbi	0x07, 6	; 7
  74:	86 b1       	in	r24, 0x06	; 6
  76:	80 6a       	ori	r24, 0xA0	; 160
  78:	86 b9       	out	0x06, r24	; 6
  7a:	86 b1       	in	r24, 0x06	; 6
  7c:	87 60       	ori	r24, 0x07	; 7
  7e:	86 b9       	out	0x06, r24	; 6
  80:	87 b1       	in	r24, 0x07	; 7
  82:	87 b9       	out	0x07, r24	; 7
  84:	08 95       	ret

00000086 <start_convar>:
  86:	87 b1       	in	r24, 0x07	; 7
  88:	80 7e       	andi	r24, 0xE0	; 224
  8a:	87 b9       	out	0x07, r24	; 7
  8c:	78 94       	sei
  8e:	86 b1       	in	r24, 0x06	; 6
  90:	88 64       	ori	r24, 0x48	; 72
  92:	86 b9       	out	0x06, r24	; 6
  94:	08 95       	ret

00000096 <main>:
  96:	14 ba       	out	0x14, r1	; 20
  98:	8f ef       	ldi	r24, 0xFF	; 255
  9a:	81 bb       	out	0x11, r24	; 17
  9c:	87 bb       	out	0x17, r24	; 23
  9e:	e9 df       	rcall	.-46     	; 0x72 <adc_init>
  a0:	83 b3       	in	r24, 0x13	; 19
  a2:	90 e0       	ldi	r25, 0x00	; 0
  a4:	90 93 73 01 	sts	0x0173, r25
  a8:	80 93 72 01 	sts	0x0172, r24
  ac:	ec df       	rcall	.-40     	; 0x86 <start_convar>
  ae:	81 e0       	ldi	r24, 0x01	; 1
  b0:	90 e0       	ldi	r25, 0x00	; 0
  b2:	08 95       	ret

000000b4 <func_check>:
  b4:	fc 01       	movw	r30, r24
  b6:	0a 97       	sbiw	r24, 0x0a	; 10
  b8:	20 f5       	brcc	.+72     	; 0x102 <func_check+0x4e>
  ba:	ed 5e       	subi	r30, 0xED	; 237
  bc:	ff 4f       	sbci	r31, 0xFF	; 255
  be:	09 94       	ijmp
  c0:	80 ec       	ldi	r24, 0xC0	; 192
  c2:	90 e0       	ldi	r25, 0x00	; 0
  c4:	1a c0       	rjmp	.+52     	; 0xfa <func_check+0x46>
  c6:	89 ef       	ldi	r24, 0xF9	; 249
  c8:	90 e0       	ldi	r25, 0x00	; 0
  ca:	17 c0       	rjmp	.+46     	; 0xfa <func_check+0x46>
  cc:	84 ea       	ldi	r24, 0xA4	; 164
  ce:	90 e0       	ldi	r25, 0x00	; 0
  d0:	14 c0       	rjmp	.+40     	; 0xfa <func_check+0x46>
  d2:	80 eb       	ldi	r24, 0xB0	; 176
  d4:	90 e0       	ldi	r25, 0x00	; 0
  d6:	11 c0       	rjmp	.+34     	; 0xfa <func_check+0x46>
  d8:	89 e9       	ldi	r24, 0x99	; 153
  da:	90 e0       	ldi	r25, 0x00	; 0
  dc:	0e c0       	rjmp	.+28     	; 0xfa <func_check+0x46>
  de:	82 e9       	ldi	r24, 0x92	; 146
  e0:	90 e0       	ldi	r25, 0x00	; 0
  e2:	0b c0       	rjmp	.+22     	; 0xfa <func_check+0x46>
  e4:	82 e8       	ldi	r24, 0x82	; 130
  e6:	90 e0       	ldi	r25, 0x00	; 0
  e8:	08 c0       	rjmp	.+16     	; 0xfa <func_check+0x46>
  ea:	88 ef       	ldi	r24, 0xF8	; 248
  ec:	90 e0       	ldi	r25, 0x00	; 0
  ee:	05 c0       	rjmp	.+10     	; 0xfa <func_check+0x46>
  f0:	80 e8       	ldi	r24, 0x80	; 128
  f2:	90 e0       	ldi	r25, 0x00	; 0
  f4:	02 c0       	rjmp	.+4      	; 0xfa <func_check+0x46>
  f6:	80 e9       	ldi	r24, 0x90	; 144
  f8:	90 e0       	ldi	r25, 0x00	; 0
  fa:	90 93 6d 01 	sts	0x016D, r25
  fe:	80 93 6c 01 	sts	0x016C, r24
 102:	80 91 6c 01 	lds	r24, 0x016C
 106:	90 91 6d 01 	lds	r25, 0x016D
 10a:	08 95       	ret

0000010c <wait_one_second>:
 10c:	01 97       	sbiw	r24, 0x01	; 1
 10e:	19 f4       	brne	.+6      	; 0x116 <wait_one_second+0xa>
 110:	84 ec       	ldi	r24, 0xC4	; 196
 112:	99 e0       	ldi	r25, 0x09	; 9
 114:	02 c0       	rjmp	.+4      	; 0x11a <wait_one_second+0xe>
 116:	80 e1       	ldi	r24, 0x10	; 16
 118:	97 e2       	ldi	r25, 0x27	; 39
 11a:	01 97       	sbiw	r24, 0x01	; 1
 11c:	f1 f7       	brne	.-4      	; 0x11a <wait_one_second+0xe>
 11e:	81 e0       	ldi	r24, 0x01	; 1
 120:	90 e0       	ldi	r25, 0x00	; 0
 122:	08 95       	ret

00000124 <function_disp>:
 124:	cf 93       	push	r28
 126:	df 93       	push	r29
 128:	c0 e0       	ldi	r28, 0x00	; 0
 12a:	d0 e0       	ldi	r29, 0x00	; 0
 12c:	80 91 6a 01 	lds	r24, 0x016A
 130:	90 91 6b 01 	lds	r25, 0x016B
 134:	bf df       	rcall	.-130    	; 0xb4 <func_check>
 136:	82 bb       	out	0x12, r24	; 18
 138:	82 e0       	ldi	r24, 0x02	; 2
 13a:	88 bb       	out	0x18, r24	; 24
 13c:	81 e0       	ldi	r24, 0x01	; 1
 13e:	90 e0       	ldi	r25, 0x00	; 0
 140:	e5 df       	rcall	.-54     	; 0x10c <wait_one_second>
 142:	18 ba       	out	0x18, r1	; 24
 144:	80 91 76 01 	lds	r24, 0x0176
 148:	90 91 77 01 	lds	r25, 0x0177
 14c:	b3 df       	rcall	.-154    	; 0xb4 <func_check>
 14e:	82 bb       	out	0x12, r24	; 18
 150:	84 e0       	ldi	r24, 0x04	; 4
 152:	88 bb       	out	0x18, r24	; 24
 154:	81 e0       	ldi	r24, 0x01	; 1
 156:	90 e0       	ldi	r25, 0x00	; 0
 158:	d9 df       	rcall	.-78     	; 0x10c <wait_one_second>
 15a:	18 ba       	out	0x18, r1	; 24
 15c:	80 91 68 01 	lds	r24, 0x0168
 160:	90 91 69 01 	lds	r25, 0x0169
 164:	a7 df       	rcall	.-178    	; 0xb4 <func_check>
 166:	82 bb       	out	0x12, r24	; 18
 168:	88 e0       	ldi	r24, 0x08	; 8
 16a:	88 bb       	out	0x18, r24	; 24
 16c:	81 e0       	ldi	r24, 0x01	; 1
 16e:	90 e0       	ldi	r25, 0x00	; 0
 170:	cd df       	rcall	.-102    	; 0x10c <wait_one_second>
 172:	18 ba       	out	0x18, r1	; 24
 174:	80 91 78 01 	lds	r24, 0x0178
 178:	90 91 79 01 	lds	r25, 0x0179
 17c:	9b df       	rcall	.-202    	; 0xb4 <func_check>
 17e:	82 bb       	out	0x12, r24	; 18
 180:	80 e1       	ldi	r24, 0x10	; 16
 182:	88 bb       	out	0x18, r24	; 24
 184:	81 e0       	ldi	r24, 0x01	; 1
 186:	90 e0       	ldi	r25, 0x00	; 0
 188:	c1 df       	rcall	.-126    	; 0x10c <wait_one_second>
 18a:	18 ba       	out	0x18, r1	; 24
 18c:	21 96       	adiw	r28, 0x01	; 1
 18e:	c2 33       	cpi	r28, 0x32	; 50
 190:	d1 05       	cpc	r29, r1
 192:	61 f6       	brne	.-104    	; 0x12c <function_disp+0x8>
 194:	81 e0       	ldi	r24, 0x01	; 1
 196:	90 e0       	ldi	r25, 0x00	; 0
 198:	df 91       	pop	r29
 19a:	cf 91       	pop	r28
 19c:	08 95       	ret

0000019e <func_disp7g>:
 19e:	ef 92       	push	r14
 1a0:	ff 92       	push	r15
 1a2:	0f 93       	push	r16
 1a4:	1f 93       	push	r17
 1a6:	20 e0       	ldi	r18, 0x00	; 0
 1a8:	30 e0       	ldi	r19, 0x00	; 0
 1aa:	40 ea       	ldi	r20, 0xA0	; 160
 1ac:	50 e4       	ldi	r21, 0x40	; 64
 1ae:	60 91 6e 01 	lds	r22, 0x016E
 1b2:	70 91 6f 01 	lds	r23, 0x016F
 1b6:	80 91 70 01 	lds	r24, 0x0170
 1ba:	90 91 71 01 	lds	r25, 0x0171
 1be:	38 d2       	rcall	.+1136   	; 0x630 <__mulsf3>
 1c0:	22 e0       	ldi	r18, 0x02	; 2
 1c2:	3b e2       	ldi	r19, 0x2B	; 43
 1c4:	45 e2       	ldi	r20, 0x25	; 37
 1c6:	51 e4       	ldi	r21, 0x41	; 65
 1c8:	33 d2       	rcall	.+1126   	; 0x630 <__mulsf3>
 1ca:	28 e3       	ldi	r18, 0x38	; 56
 1cc:	37 e6       	ldi	r19, 0x67	; 103
 1ce:	44 e8       	ldi	r20, 0x84	; 132
 1d0:	5f e3       	ldi	r21, 0x3F	; 63
 1d2:	28 d3       	rcall	.+1616   	; 0x824 <__divsf3>
 1d4:	60 93 6e 01 	sts	0x016E, r22
 1d8:	70 93 6f 01 	sts	0x016F, r23
 1dc:	80 93 70 01 	sts	0x0170, r24
 1e0:	90 93 71 01 	sts	0x0171, r25
 1e4:	20 e0       	ldi	r18, 0x00	; 0
 1e6:	30 e4       	ldi	r19, 0x40	; 64
 1e8:	4c e1       	ldi	r20, 0x1C	; 28
 1ea:	56 e4       	ldi	r21, 0x46	; 70
 1ec:	1b d3       	rcall	.+1590   	; 0x824 <__divsf3>
 1ee:	7b 01       	movw	r14, r22
 1f0:	8c 01       	movw	r16, r24
 1f2:	66 d0       	rcall	.+204    	; 0x2c0 <__fixunssfsi>
 1f4:	70 93 6b 01 	sts	0x016B, r23
 1f8:	60 93 6a 01 	sts	0x016A, r22
 1fc:	80 e0       	ldi	r24, 0x00	; 0
 1fe:	90 e0       	ldi	r25, 0x00	; 0
 200:	42 d4       	rcall	.+2180   	; 0xa86 <__floatunsisf>
 202:	9b 01       	movw	r18, r22
 204:	ac 01       	movw	r20, r24
 206:	c8 01       	movw	r24, r16
 208:	b7 01       	movw	r22, r14
 20a:	c0 d1       	rcall	.+896    	; 0x58c <__subsf3>
 20c:	20 e0       	ldi	r18, 0x00	; 0
 20e:	30 e0       	ldi	r19, 0x00	; 0
 210:	40 e2       	ldi	r20, 0x20	; 32
 212:	51 e4       	ldi	r21, 0x41	; 65
 214:	0d d2       	rcall	.+1050   	; 0x630 <__mulsf3>
 216:	7b 01       	movw	r14, r22
 218:	8c 01       	movw	r16, r24
 21a:	52 d0       	rcall	.+164    	; 0x2c0 <__fixunssfsi>
 21c:	70 93 77 01 	sts	0x0177, r23
 220:	60 93 76 01 	sts	0x0176, r22
 224:	80 e0       	ldi	r24, 0x00	; 0
 226:	90 e0       	ldi	r25, 0x00	; 0
 228:	2e d4       	rcall	.+2140   	; 0xa86 <__floatunsisf>
 22a:	9b 01       	movw	r18, r22
 22c:	ac 01       	movw	r20, r24
 22e:	c8 01       	movw	r24, r16
 230:	b7 01       	movw	r22, r14
 232:	ac d1       	rcall	.+856    	; 0x58c <__subsf3>
 234:	20 e0       	ldi	r18, 0x00	; 0
 236:	30 e0       	ldi	r19, 0x00	; 0
 238:	40 e2       	ldi	r20, 0x20	; 32
 23a:	51 e4       	ldi	r21, 0x41	; 65
 23c:	f9 d1       	rcall	.+1010   	; 0x630 <__mulsf3>
 23e:	7b 01       	movw	r14, r22
 240:	8c 01       	movw	r16, r24
 242:	3e d0       	rcall	.+124    	; 0x2c0 <__fixunssfsi>
 244:	70 93 69 01 	sts	0x0169, r23
 248:	60 93 68 01 	sts	0x0168, r22
 24c:	80 e0       	ldi	r24, 0x00	; 0
 24e:	90 e0       	ldi	r25, 0x00	; 0
 250:	1a d4       	rcall	.+2100   	; 0xa86 <__floatunsisf>
 252:	9b 01       	movw	r18, r22
 254:	ac 01       	movw	r20, r24
 256:	c8 01       	movw	r24, r16
 258:	b7 01       	movw	r22, r14
 25a:	98 d1       	rcall	.+816    	; 0x58c <__subsf3>
 25c:	20 e0       	ldi	r18, 0x00	; 0
 25e:	30 e0       	ldi	r19, 0x00	; 0
 260:	40 e2       	ldi	r20, 0x20	; 32
 262:	51 e4       	ldi	r21, 0x41	; 65
 264:	e5 d1       	rcall	.+970    	; 0x630 <__mulsf3>
 266:	2c d0       	rcall	.+88     	; 0x2c0 <__fixunssfsi>
 268:	70 93 79 01 	sts	0x0179, r23
 26c:	60 93 78 01 	sts	0x0178, r22
 270:	59 df       	rcall	.-334    	; 0x124 <function_disp>
 272:	81 e0       	ldi	r24, 0x01	; 1
 274:	90 e0       	ldi	r25, 0x00	; 0
 276:	1f 91       	pop	r17
 278:	0f 91       	pop	r16
 27a:	ff 90       	pop	r15
 27c:	ef 90       	pop	r14
 27e:	08 95       	ret

00000280 <__vector_14>:
 280:	1f 92       	push	r1
 282:	0f 92       	push	r0
 284:	0f b6       	in	r0, 0x3f	; 63
 286:	0f 92       	push	r0
 288:	11 24       	eor	r1, r1
 28a:	2f 93       	push	r18
 28c:	3f 93       	push	r19
 28e:	4f 93       	push	r20
 290:	5f 93       	push	r21
 292:	6f 93       	push	r22
 294:	7f 93       	push	r23
 296:	8f 93       	push	r24
 298:	9f 93       	push	r25
 29a:	af 93       	push	r26
 29c:	bf 93       	push	r27
 29e:	ef 93       	push	r30
 2a0:	ff 93       	push	r31
 2a2:	64 b1       	in	r22, 0x04	; 4
 2a4:	75 b1       	in	r23, 0x05	; 5
 2a6:	80 e0       	ldi	r24, 0x00	; 0
 2a8:	90 e0       	ldi	r25, 0x00	; 0
 2aa:	ed d3       	rcall	.+2010   	; 0xa86 <__floatunsisf>
 2ac:	60 93 6e 01 	sts	0x016E, r22
 2b0:	70 93 6f 01 	sts	0x016F, r23
 2b4:	80 93 70 01 	sts	0x0170, r24
 2b8:	90 93 71 01 	sts	0x0171, r25
 2bc:	70 df       	rcall	.-288    	; 0x19e <func_disp7g>
 2be:	f1 cf       	rjmp	.-30     	; 0x2a2 <__vector_14+0x22>

000002c0 <__fixunssfsi>:
 2c0:	ef 92       	push	r14
 2c2:	ff 92       	push	r15
 2c4:	0f 93       	push	r16
 2c6:	1f 93       	push	r17
 2c8:	7b 01       	movw	r14, r22
 2ca:	8c 01       	movw	r16, r24
 2cc:	20 e0       	ldi	r18, 0x00	; 0
 2ce:	30 e0       	ldi	r19, 0x00	; 0
 2d0:	40 e0       	ldi	r20, 0x00	; 0
 2d2:	5f e4       	ldi	r21, 0x4F	; 79
 2d4:	57 d3       	rcall	.+1710   	; 0x984 <__gesf2>
 2d6:	88 23       	and	r24, r24
 2d8:	6c f0       	brlt	.+26     	; 0x2f4 <__fixunssfsi+0x34>
 2da:	20 e0       	ldi	r18, 0x00	; 0
 2dc:	30 e0       	ldi	r19, 0x00	; 0
 2de:	40 e0       	ldi	r20, 0x00	; 0
 2e0:	5f e4       	ldi	r21, 0x4F	; 79
 2e2:	c8 01       	movw	r24, r16
 2e4:	b7 01       	movw	r22, r14
 2e6:	52 d1       	rcall	.+676    	; 0x58c <__subsf3>
 2e8:	7e d3       	rcall	.+1788   	; 0x9e6 <__fixsfsi>
 2ea:	60 50       	subi	r22, 0x00	; 0
 2ec:	70 40       	sbci	r23, 0x00	; 0
 2ee:	80 40       	sbci	r24, 0x00	; 0
 2f0:	90 48       	sbci	r25, 0x80	; 128
 2f2:	03 c0       	rjmp	.+6      	; 0x2fa <__fixunssfsi+0x3a>
 2f4:	c8 01       	movw	r24, r16
 2f6:	b7 01       	movw	r22, r14
 2f8:	76 d3       	rcall	.+1772   	; 0x9e6 <__fixsfsi>
 2fa:	1f 91       	pop	r17
 2fc:	0f 91       	pop	r16
 2fe:	ff 90       	pop	r15
 300:	ef 90       	pop	r14
 302:	08 95       	ret

00000304 <_fpadd_parts>:
 304:	a0 e0       	ldi	r26, 0x00	; 0
 306:	b0 e0       	ldi	r27, 0x00	; 0
 308:	e7 e8       	ldi	r30, 0x87	; 135
 30a:	f1 e0       	ldi	r31, 0x01	; 1
 30c:	20 c6       	rjmp	.+3136   	; 0xf4e <__prologue_saves__+0x4>
 30e:	2c 01       	movw	r4, r24
 310:	5b 01       	movw	r10, r22
 312:	fa 01       	movw	r30, r20
 314:	dc 01       	movw	r26, r24
 316:	9c 91       	ld	r25, X
 318:	92 30       	cpi	r25, 0x02	; 2
 31a:	08 f4       	brcc	.+2      	; 0x31e <_fpadd_parts+0x1a>
 31c:	32 c1       	rjmp	.+612    	; 0x582 <__stack+0x123>
 31e:	eb 01       	movw	r28, r22
 320:	88 81       	ld	r24, Y
 322:	82 30       	cpi	r24, 0x02	; 2
 324:	08 f4       	brcc	.+2      	; 0x328 <_fpadd_parts+0x24>
 326:	2c c1       	rjmp	.+600    	; 0x580 <__stack+0x121>
 328:	94 30       	cpi	r25, 0x04	; 4
 32a:	71 f4       	brne	.+28     	; 0x348 <_fpadd_parts+0x44>
 32c:	84 30       	cpi	r24, 0x04	; 4
 32e:	09 f0       	breq	.+2      	; 0x332 <_fpadd_parts+0x2e>
 330:	28 c1       	rjmp	.+592    	; 0x582 <__stack+0x123>
 332:	f2 01       	movw	r30, r4
 334:	91 81       	ldd	r25, Z+1	; 0x01
 336:	89 81       	ldd	r24, Y+1	; 0x01
 338:	98 17       	cp	r25, r24
 33a:	09 f4       	brne	.+2      	; 0x33e <_fpadd_parts+0x3a>
 33c:	22 c1       	rjmp	.+580    	; 0x582 <__stack+0x123>
 33e:	10 e6       	ldi	r17, 0x60	; 96
 340:	41 2e       	mov	r4, r17
 342:	10 e0       	ldi	r17, 0x00	; 0
 344:	51 2e       	mov	r5, r17
 346:	1d c1       	rjmp	.+570    	; 0x582 <__stack+0x123>
 348:	84 30       	cpi	r24, 0x04	; 4
 34a:	09 f4       	brne	.+2      	; 0x34e <_fpadd_parts+0x4a>
 34c:	19 c1       	rjmp	.+562    	; 0x580 <__stack+0x121>
 34e:	82 30       	cpi	r24, 0x02	; 2
 350:	a9 f4       	brne	.+42     	; 0x37c <_fpadd_parts+0x78>
 352:	92 30       	cpi	r25, 0x02	; 2
 354:	09 f0       	breq	.+2      	; 0x358 <_fpadd_parts+0x54>
 356:	15 c1       	rjmp	.+554    	; 0x582 <__stack+0x123>
 358:	ca 01       	movw	r24, r20
 35a:	a2 01       	movw	r20, r4
 35c:	28 e0       	ldi	r18, 0x08	; 8
 35e:	da 01       	movw	r26, r20
 360:	0d 90       	ld	r0, X+
 362:	ad 01       	movw	r20, r26
 364:	ec 01       	movw	r28, r24
 366:	09 92       	st	Y+, r0
 368:	ce 01       	movw	r24, r28
 36a:	21 50       	subi	r18, 0x01	; 1
 36c:	c1 f7       	brne	.-16     	; 0x35e <_fpadd_parts+0x5a>
 36e:	e5 01       	movw	r28, r10
 370:	89 81       	ldd	r24, Y+1	; 0x01
 372:	e2 01       	movw	r28, r4
 374:	99 81       	ldd	r25, Y+1	; 0x01
 376:	89 23       	and	r24, r25
 378:	81 83       	std	Z+1, r24	; 0x01
 37a:	00 c1       	rjmp	.+512    	; 0x57c <__stack+0x11d>
 37c:	92 30       	cpi	r25, 0x02	; 2
 37e:	09 f4       	brne	.+2      	; 0x382 <_fpadd_parts+0x7e>
 380:	ff c0       	rjmp	.+510    	; 0x580 <__stack+0x121>
 382:	e2 01       	movw	r28, r4
 384:	ca 80       	ldd	r12, Y+2	; 0x02
 386:	db 80       	ldd	r13, Y+3	; 0x03
 388:	eb 01       	movw	r28, r22
 38a:	8a 81       	ldd	r24, Y+2	; 0x02
 38c:	9b 81       	ldd	r25, Y+3	; 0x03
 38e:	e2 01       	movw	r28, r4
 390:	2c 81       	ldd	r18, Y+4	; 0x04
 392:	3d 81       	ldd	r19, Y+5	; 0x05
 394:	4e 81       	ldd	r20, Y+6	; 0x06
 396:	5f 81       	ldd	r21, Y+7	; 0x07
 398:	eb 01       	movw	r28, r22
 39a:	ec 80       	ldd	r14, Y+4	; 0x04
 39c:	fd 80       	ldd	r15, Y+5	; 0x05
 39e:	0e 81       	ldd	r16, Y+6	; 0x06
 3a0:	1f 81       	ldd	r17, Y+7	; 0x07
 3a2:	b6 01       	movw	r22, r12
 3a4:	68 1b       	sub	r22, r24
 3a6:	79 0b       	sbc	r23, r25
 3a8:	db 01       	movw	r26, r22
 3aa:	77 ff       	sbrs	r23, 7
 3ac:	03 c0       	rjmp	.+6      	; 0x3b4 <_fpadd_parts+0xb0>
 3ae:	70 95       	com	r23
 3b0:	61 95       	neg	r22
 3b2:	7f 4f       	sbci	r23, 0xFF	; 255
 3b4:	60 32       	cpi	r22, 0x20	; 32
 3b6:	71 05       	cpc	r23, r1
 3b8:	0c f0       	brlt	.+2      	; 0x3bc <_fpadd_parts+0xb8>
 3ba:	5d c0       	rjmp	.+186    	; 0x476 <__stack+0x17>
 3bc:	1a 16       	cp	r1, r26
 3be:	1b 06       	cpc	r1, r27
 3c0:	5c f5       	brge	.+86     	; 0x418 <_fpadd_parts+0x114>
 3c2:	66 24       	eor	r6, r6
 3c4:	77 24       	eor	r7, r7
 3c6:	43 01       	movw	r8, r6
 3c8:	81 e0       	ldi	r24, 0x01	; 1
 3ca:	90 e0       	ldi	r25, 0x00	; 0
 3cc:	a0 e0       	ldi	r26, 0x00	; 0
 3ce:	b0 e0       	ldi	r27, 0x00	; 0
 3d0:	06 2e       	mov	r0, r22
 3d2:	04 c0       	rjmp	.+8      	; 0x3dc <_fpadd_parts+0xd8>
 3d4:	88 0f       	add	r24, r24
 3d6:	99 1f       	adc	r25, r25
 3d8:	aa 1f       	adc	r26, r26
 3da:	bb 1f       	adc	r27, r27
 3dc:	0a 94       	dec	r0
 3de:	d2 f7       	brpl	.-12     	; 0x3d4 <_fpadd_parts+0xd0>
 3e0:	01 97       	sbiw	r24, 0x01	; 1
 3e2:	a1 09       	sbc	r26, r1
 3e4:	b1 09       	sbc	r27, r1
 3e6:	8e 21       	and	r24, r14
 3e8:	9f 21       	and	r25, r15
 3ea:	a0 23       	and	r26, r16
 3ec:	b1 23       	and	r27, r17
 3ee:	00 97       	sbiw	r24, 0x00	; 0
 3f0:	a1 05       	cpc	r26, r1
 3f2:	b1 05       	cpc	r27, r1
 3f4:	29 f0       	breq	.+10     	; 0x400 <_fpadd_parts+0xfc>
 3f6:	b1 e0       	ldi	r27, 0x01	; 1
 3f8:	6b 2e       	mov	r6, r27
 3fa:	71 2c       	mov	r7, r1
 3fc:	81 2c       	mov	r8, r1
 3fe:	91 2c       	mov	r9, r1
 400:	04 c0       	rjmp	.+8      	; 0x40a <_fpadd_parts+0x106>
 402:	16 95       	lsr	r17
 404:	07 95       	ror	r16
 406:	f7 94       	ror	r15
 408:	e7 94       	ror	r14
 40a:	6a 95       	dec	r22
 40c:	d2 f7       	brpl	.-12     	; 0x402 <_fpadd_parts+0xfe>
 40e:	e6 28       	or	r14, r6
 410:	f7 28       	or	r15, r7
 412:	08 29       	or	r16, r8
 414:	19 29       	or	r17, r9
 416:	3b c0       	rjmp	.+118    	; 0x48e <__stack+0x2f>
 418:	ab 2b       	or	r26, r27
 41a:	c9 f1       	breq	.+114    	; 0x48e <__stack+0x2f>
 41c:	c6 0e       	add	r12, r22
 41e:	d7 1e       	adc	r13, r23
 420:	66 24       	eor	r6, r6
 422:	77 24       	eor	r7, r7
 424:	43 01       	movw	r8, r6
 426:	81 e0       	ldi	r24, 0x01	; 1
 428:	90 e0       	ldi	r25, 0x00	; 0
 42a:	a0 e0       	ldi	r26, 0x00	; 0
 42c:	b0 e0       	ldi	r27, 0x00	; 0
 42e:	06 2e       	mov	r0, r22
 430:	04 c0       	rjmp	.+8      	; 0x43a <_fpadd_parts+0x136>
 432:	88 0f       	add	r24, r24
 434:	99 1f       	adc	r25, r25
 436:	aa 1f       	adc	r26, r26
 438:	bb 1f       	adc	r27, r27
 43a:	0a 94       	dec	r0
 43c:	d2 f7       	brpl	.-12     	; 0x432 <_fpadd_parts+0x12e>
 43e:	01 97       	sbiw	r24, 0x01	; 1
 440:	a1 09       	sbc	r26, r1
 442:	b1 09       	sbc	r27, r1
 444:	82 23       	and	r24, r18
 446:	93 23       	and	r25, r19
 448:	a4 23       	and	r26, r20
 44a:	b5 23       	and	r27, r21
 44c:	00 97       	sbiw	r24, 0x00	; 0
 44e:	a1 05       	cpc	r26, r1
 450:	b1 05       	cpc	r27, r1
 452:	29 f0       	breq	.+10     	; 0x45e <_fpadd_parts+0x15a>
 454:	a1 e0       	ldi	r26, 0x01	; 1
 456:	6a 2e       	mov	r6, r26
 458:	71 2c       	mov	r7, r1
 45a:	81 2c       	mov	r8, r1
 45c:	91 2c       	mov	r9, r1
 45e:	04 c0       	rjmp	.+8      	; 0x468 <__stack+0x9>
 460:	56 95       	lsr	r21
 462:	47 95       	ror	r20
 464:	37 95       	ror	r19
 466:	27 95       	ror	r18
 468:	6a 95       	dec	r22
 46a:	d2 f7       	brpl	.-12     	; 0x460 <__stack+0x1>
 46c:	26 29       	or	r18, r6
 46e:	37 29       	or	r19, r7
 470:	48 29       	or	r20, r8
 472:	59 29       	or	r21, r9
 474:	0c c0       	rjmp	.+24     	; 0x48e <__stack+0x2f>
 476:	8c 15       	cp	r24, r12
 478:	9d 05       	cpc	r25, r13
 47a:	34 f0       	brlt	.+12     	; 0x488 <__stack+0x29>
 47c:	6c 01       	movw	r12, r24
 47e:	20 e0       	ldi	r18, 0x00	; 0
 480:	30 e0       	ldi	r19, 0x00	; 0
 482:	40 e0       	ldi	r20, 0x00	; 0
 484:	50 e0       	ldi	r21, 0x00	; 0
 486:	03 c0       	rjmp	.+6      	; 0x48e <__stack+0x2f>
 488:	ee 24       	eor	r14, r14
 48a:	ff 24       	eor	r15, r15
 48c:	87 01       	movw	r16, r14
 48e:	e2 01       	movw	r28, r4
 490:	99 81       	ldd	r25, Y+1	; 0x01
 492:	e5 01       	movw	r28, r10
 494:	89 81       	ldd	r24, Y+1	; 0x01
 496:	98 17       	cp	r25, r24
 498:	09 f4       	brne	.+2      	; 0x49c <__stack+0x3d>
 49a:	43 c0       	rjmp	.+134    	; 0x522 <__stack+0xc3>
 49c:	99 23       	and	r25, r25
 49e:	39 f0       	breq	.+14     	; 0x4ae <__stack+0x4f>
 4a0:	e2 1a       	sub	r14, r18
 4a2:	f3 0a       	sbc	r15, r19
 4a4:	04 0b       	sbc	r16, r20
 4a6:	15 0b       	sbc	r17, r21
 4a8:	a8 01       	movw	r20, r16
 4aa:	97 01       	movw	r18, r14
 4ac:	04 c0       	rjmp	.+8      	; 0x4b6 <__stack+0x57>
 4ae:	2e 19       	sub	r18, r14
 4b0:	3f 09       	sbc	r19, r15
 4b2:	40 0b       	sbc	r20, r16
 4b4:	51 0b       	sbc	r21, r17
 4b6:	57 fd       	sbrc	r21, 7
 4b8:	08 c0       	rjmp	.+16     	; 0x4ca <__stack+0x6b>
 4ba:	11 82       	std	Z+1, r1	; 0x01
 4bc:	d3 82       	std	Z+3, r13	; 0x03
 4be:	c2 82       	std	Z+2, r12	; 0x02
 4c0:	24 83       	std	Z+4, r18	; 0x04
 4c2:	35 83       	std	Z+5, r19	; 0x05
 4c4:	46 83       	std	Z+6, r20	; 0x06
 4c6:	57 83       	std	Z+7, r21	; 0x07
 4c8:	1d c0       	rjmp	.+58     	; 0x504 <__stack+0xa5>
 4ca:	81 e0       	ldi	r24, 0x01	; 1
 4cc:	81 83       	std	Z+1, r24	; 0x01
 4ce:	d3 82       	std	Z+3, r13	; 0x03
 4d0:	c2 82       	std	Z+2, r12	; 0x02
 4d2:	88 27       	eor	r24, r24
 4d4:	99 27       	eor	r25, r25
 4d6:	dc 01       	movw	r26, r24
 4d8:	82 1b       	sub	r24, r18
 4da:	93 0b       	sbc	r25, r19
 4dc:	a4 0b       	sbc	r26, r20
 4de:	b5 0b       	sbc	r27, r21
 4e0:	84 83       	std	Z+4, r24	; 0x04
 4e2:	95 83       	std	Z+5, r25	; 0x05
 4e4:	a6 83       	std	Z+6, r26	; 0x06
 4e6:	b7 83       	std	Z+7, r27	; 0x07
 4e8:	0d c0       	rjmp	.+26     	; 0x504 <__stack+0xa5>
 4ea:	22 0f       	add	r18, r18
 4ec:	33 1f       	adc	r19, r19
 4ee:	44 1f       	adc	r20, r20
 4f0:	55 1f       	adc	r21, r21
 4f2:	24 83       	std	Z+4, r18	; 0x04
 4f4:	35 83       	std	Z+5, r19	; 0x05
 4f6:	46 83       	std	Z+6, r20	; 0x06
 4f8:	57 83       	std	Z+7, r21	; 0x07
 4fa:	82 81       	ldd	r24, Z+2	; 0x02
 4fc:	93 81       	ldd	r25, Z+3	; 0x03
 4fe:	01 97       	sbiw	r24, 0x01	; 1
 500:	93 83       	std	Z+3, r25	; 0x03
 502:	82 83       	std	Z+2, r24	; 0x02
 504:	24 81       	ldd	r18, Z+4	; 0x04
 506:	35 81       	ldd	r19, Z+5	; 0x05
 508:	46 81       	ldd	r20, Z+6	; 0x06
 50a:	57 81       	ldd	r21, Z+7	; 0x07
 50c:	da 01       	movw	r26, r20
 50e:	c9 01       	movw	r24, r18
 510:	01 97       	sbiw	r24, 0x01	; 1
 512:	a1 09       	sbc	r26, r1
 514:	b1 09       	sbc	r27, r1
 516:	8f 5f       	subi	r24, 0xFF	; 255
 518:	9f 4f       	sbci	r25, 0xFF	; 255
 51a:	af 4f       	sbci	r26, 0xFF	; 255
 51c:	bf 43       	sbci	r27, 0x3F	; 63
 51e:	28 f3       	brcs	.-54     	; 0x4ea <__stack+0x8b>
 520:	0b c0       	rjmp	.+22     	; 0x538 <__stack+0xd9>
 522:	91 83       	std	Z+1, r25	; 0x01
 524:	d3 82       	std	Z+3, r13	; 0x03
 526:	c2 82       	std	Z+2, r12	; 0x02
 528:	2e 0d       	add	r18, r14
 52a:	3f 1d       	adc	r19, r15
 52c:	40 1f       	adc	r20, r16
 52e:	51 1f       	adc	r21, r17
 530:	24 83       	std	Z+4, r18	; 0x04
 532:	35 83       	std	Z+5, r19	; 0x05
 534:	46 83       	std	Z+6, r20	; 0x06
 536:	57 83       	std	Z+7, r21	; 0x07
 538:	83 e0       	ldi	r24, 0x03	; 3
 53a:	80 83       	st	Z, r24
 53c:	24 81       	ldd	r18, Z+4	; 0x04
 53e:	35 81       	ldd	r19, Z+5	; 0x05
 540:	46 81       	ldd	r20, Z+6	; 0x06
 542:	57 81       	ldd	r21, Z+7	; 0x07
 544:	55 23       	and	r21, r21
 546:	d4 f4       	brge	.+52     	; 0x57c <__stack+0x11d>
 548:	c9 01       	movw	r24, r18
 54a:	aa 27       	eor	r26, r26
 54c:	97 fd       	sbrc	r25, 7
 54e:	a0 95       	com	r26
 550:	ba 2f       	mov	r27, r26
 552:	81 70       	andi	r24, 0x01	; 1
 554:	90 70       	andi	r25, 0x00	; 0
 556:	a0 70       	andi	r26, 0x00	; 0
 558:	b0 70       	andi	r27, 0x00	; 0
 55a:	56 95       	lsr	r21
 55c:	47 95       	ror	r20
 55e:	37 95       	ror	r19
 560:	27 95       	ror	r18
 562:	82 2b       	or	r24, r18
 564:	93 2b       	or	r25, r19
 566:	a4 2b       	or	r26, r20
 568:	b5 2b       	or	r27, r21
 56a:	84 83       	std	Z+4, r24	; 0x04
 56c:	95 83       	std	Z+5, r25	; 0x05
 56e:	a6 83       	std	Z+6, r26	; 0x06
 570:	b7 83       	std	Z+7, r27	; 0x07
 572:	82 81       	ldd	r24, Z+2	; 0x02
 574:	93 81       	ldd	r25, Z+3	; 0x03
 576:	01 96       	adiw	r24, 0x01	; 1
 578:	93 83       	std	Z+3, r25	; 0x03
 57a:	82 83       	std	Z+2, r24	; 0x02
 57c:	2f 01       	movw	r4, r30
 57e:	01 c0       	rjmp	.+2      	; 0x582 <__stack+0x123>
 580:	25 01       	movw	r4, r10
 582:	c2 01       	movw	r24, r4
 584:	e0 e1       	ldi	r30, 0x10	; 16
 586:	cd b7       	in	r28, 0x3d	; 61
 588:	de b7       	in	r29, 0x3e	; 62
 58a:	fd c4       	rjmp	.+2554   	; 0xf86 <__epilogue_restores__+0x4>

0000058c <__subsf3>:
 58c:	a0 e2       	ldi	r26, 0x20	; 32
 58e:	b0 e0       	ldi	r27, 0x00	; 0
 590:	eb ec       	ldi	r30, 0xCB	; 203
 592:	f2 e0       	ldi	r31, 0x02	; 2
 594:	e6 c4       	rjmp	.+2508   	; 0xf62 <__prologue_saves__+0x18>
 596:	69 83       	std	Y+1, r22	; 0x01
 598:	7a 83       	std	Y+2, r23	; 0x02
 59a:	8b 83       	std	Y+3, r24	; 0x03
 59c:	9c 83       	std	Y+4, r25	; 0x04
 59e:	2d 83       	std	Y+5, r18	; 0x05
 5a0:	3e 83       	std	Y+6, r19	; 0x06
 5a2:	4f 83       	std	Y+7, r20	; 0x07
 5a4:	58 87       	std	Y+8, r21	; 0x08
 5a6:	09 e0       	ldi	r16, 0x09	; 9
 5a8:	e0 2e       	mov	r14, r16
 5aa:	f1 2c       	mov	r15, r1
 5ac:	ec 0e       	add	r14, r28
 5ae:	fd 1e       	adc	r15, r29
 5b0:	b7 01       	movw	r22, r14
 5b2:	ce 01       	movw	r24, r28
 5b4:	01 96       	adiw	r24, 0x01	; 1
 5b6:	03 d4       	rcall	.+2054   	; 0xdbe <__unpack_f>
 5b8:	8e 01       	movw	r16, r28
 5ba:	0f 5e       	subi	r16, 0xEF	; 239
 5bc:	1f 4f       	sbci	r17, 0xFF	; 255
 5be:	b8 01       	movw	r22, r16
 5c0:	ce 01       	movw	r24, r28
 5c2:	05 96       	adiw	r24, 0x05	; 5
 5c4:	fc d3       	rcall	.+2040   	; 0xdbe <__unpack_f>
 5c6:	8a 89       	ldd	r24, Y+18	; 0x12
 5c8:	91 e0       	ldi	r25, 0x01	; 1
 5ca:	89 27       	eor	r24, r25
 5cc:	8a 8b       	std	Y+18, r24	; 0x12
 5ce:	ae 01       	movw	r20, r28
 5d0:	47 5e       	subi	r20, 0xE7	; 231
 5d2:	5f 4f       	sbci	r21, 0xFF	; 255
 5d4:	b8 01       	movw	r22, r16
 5d6:	c7 01       	movw	r24, r14
 5d8:	95 de       	rcall	.-726    	; 0x304 <_fpadd_parts>
 5da:	11 d3       	rcall	.+1570   	; 0xbfe <__pack_f>
 5dc:	e6 e0       	ldi	r30, 0x06	; 6
 5de:	a0 96       	adiw	r28, 0x20	; 32
 5e0:	dc c4       	rjmp	.+2488   	; 0xf9a <__epilogue_restores__+0x18>

000005e2 <__addsf3>:
 5e2:	a0 e2       	ldi	r26, 0x20	; 32
 5e4:	b0 e0       	ldi	r27, 0x00	; 0
 5e6:	e6 ef       	ldi	r30, 0xF6	; 246
 5e8:	f2 e0       	ldi	r31, 0x02	; 2
 5ea:	bb c4       	rjmp	.+2422   	; 0xf62 <__prologue_saves__+0x18>
 5ec:	69 83       	std	Y+1, r22	; 0x01
 5ee:	7a 83       	std	Y+2, r23	; 0x02
 5f0:	8b 83       	std	Y+3, r24	; 0x03
 5f2:	9c 83       	std	Y+4, r25	; 0x04
 5f4:	2d 83       	std	Y+5, r18	; 0x05
 5f6:	3e 83       	std	Y+6, r19	; 0x06
 5f8:	4f 83       	std	Y+7, r20	; 0x07
 5fa:	58 87       	std	Y+8, r21	; 0x08
 5fc:	89 e0       	ldi	r24, 0x09	; 9
 5fe:	e8 2e       	mov	r14, r24
 600:	f1 2c       	mov	r15, r1
 602:	ec 0e       	add	r14, r28
 604:	fd 1e       	adc	r15, r29
 606:	b7 01       	movw	r22, r14
 608:	ce 01       	movw	r24, r28
 60a:	01 96       	adiw	r24, 0x01	; 1
 60c:	d8 d3       	rcall	.+1968   	; 0xdbe <__unpack_f>
 60e:	8e 01       	movw	r16, r28
 610:	0f 5e       	subi	r16, 0xEF	; 239
 612:	1f 4f       	sbci	r17, 0xFF	; 255
 614:	b8 01       	movw	r22, r16
 616:	ce 01       	movw	r24, r28
 618:	05 96       	adiw	r24, 0x05	; 5
 61a:	d1 d3       	rcall	.+1954   	; 0xdbe <__unpack_f>
 61c:	ae 01       	movw	r20, r28
 61e:	47 5e       	subi	r20, 0xE7	; 231
 620:	5f 4f       	sbci	r21, 0xFF	; 255
 622:	b8 01       	movw	r22, r16
 624:	c7 01       	movw	r24, r14
 626:	6e de       	rcall	.-804    	; 0x304 <_fpadd_parts>
 628:	ea d2       	rcall	.+1492   	; 0xbfe <__pack_f>
 62a:	e6 e0       	ldi	r30, 0x06	; 6
 62c:	a0 96       	adiw	r28, 0x20	; 32
 62e:	b5 c4       	rjmp	.+2410   	; 0xf9a <__epilogue_restores__+0x18>

00000630 <__mulsf3>:
 630:	a0 e2       	ldi	r26, 0x20	; 32
 632:	b0 e0       	ldi	r27, 0x00	; 0
 634:	ed e1       	ldi	r30, 0x1D	; 29
 636:	f3 e0       	ldi	r31, 0x03	; 3
 638:	8a c4       	rjmp	.+2324   	; 0xf4e <__prologue_saves__+0x4>
 63a:	69 83       	std	Y+1, r22	; 0x01
 63c:	7a 83       	std	Y+2, r23	; 0x02
 63e:	8b 83       	std	Y+3, r24	; 0x03
 640:	9c 83       	std	Y+4, r25	; 0x04
 642:	2d 83       	std	Y+5, r18	; 0x05
 644:	3e 83       	std	Y+6, r19	; 0x06
 646:	4f 83       	std	Y+7, r20	; 0x07
 648:	58 87       	std	Y+8, r21	; 0x08
 64a:	99 e0       	ldi	r25, 0x09	; 9
 64c:	e9 2e       	mov	r14, r25
 64e:	f1 2c       	mov	r15, r1
 650:	ec 0e       	add	r14, r28
 652:	fd 1e       	adc	r15, r29
 654:	b7 01       	movw	r22, r14
 656:	ce 01       	movw	r24, r28
 658:	01 96       	adiw	r24, 0x01	; 1
 65a:	b1 d3       	rcall	.+1890   	; 0xdbe <__unpack_f>
 65c:	8e 01       	movw	r16, r28
 65e:	0f 5e       	subi	r16, 0xEF	; 239
 660:	1f 4f       	sbci	r17, 0xFF	; 255
 662:	b8 01       	movw	r22, r16
 664:	ce 01       	movw	r24, r28
 666:	05 96       	adiw	r24, 0x05	; 5
 668:	aa d3       	rcall	.+1876   	; 0xdbe <__unpack_f>
 66a:	99 85       	ldd	r25, Y+9	; 0x09
 66c:	92 30       	cpi	r25, 0x02	; 2
 66e:	88 f0       	brcs	.+34     	; 0x692 <__mulsf3+0x62>
 670:	89 89       	ldd	r24, Y+17	; 0x11
 672:	82 30       	cpi	r24, 0x02	; 2
 674:	c0 f0       	brcs	.+48     	; 0x6a6 <__mulsf3+0x76>
 676:	94 30       	cpi	r25, 0x04	; 4
 678:	19 f4       	brne	.+6      	; 0x680 <__mulsf3+0x50>
 67a:	82 30       	cpi	r24, 0x02	; 2
 67c:	29 f0       	breq	.+10     	; 0x688 <__mulsf3+0x58>
 67e:	09 c0       	rjmp	.+18     	; 0x692 <__mulsf3+0x62>
 680:	84 30       	cpi	r24, 0x04	; 4
 682:	29 f4       	brne	.+10     	; 0x68e <__mulsf3+0x5e>
 684:	92 30       	cpi	r25, 0x02	; 2
 686:	79 f4       	brne	.+30     	; 0x6a6 <__mulsf3+0x76>
 688:	60 e6       	ldi	r22, 0x60	; 96
 68a:	70 e0       	ldi	r23, 0x00	; 0
 68c:	c6 c0       	rjmp	.+396    	; 0x81a <__mulsf3+0x1ea>
 68e:	92 30       	cpi	r25, 0x02	; 2
 690:	41 f4       	brne	.+16     	; 0x6a2 <__mulsf3+0x72>
 692:	20 e0       	ldi	r18, 0x00	; 0
 694:	9a 85       	ldd	r25, Y+10	; 0x0a
 696:	8a 89       	ldd	r24, Y+18	; 0x12
 698:	98 13       	cpse	r25, r24
 69a:	21 e0       	ldi	r18, 0x01	; 1
 69c:	2a 87       	std	Y+10, r18	; 0x0a
 69e:	b7 01       	movw	r22, r14
 6a0:	bc c0       	rjmp	.+376    	; 0x81a <__mulsf3+0x1ea>
 6a2:	82 30       	cpi	r24, 0x02	; 2
 6a4:	41 f4       	brne	.+16     	; 0x6b6 <__mulsf3+0x86>
 6a6:	20 e0       	ldi	r18, 0x00	; 0
 6a8:	9a 85       	ldd	r25, Y+10	; 0x0a
 6aa:	8a 89       	ldd	r24, Y+18	; 0x12
 6ac:	98 13       	cpse	r25, r24
 6ae:	21 e0       	ldi	r18, 0x01	; 1
 6b0:	2a 8b       	std	Y+18, r18	; 0x12
 6b2:	b8 01       	movw	r22, r16
 6b4:	b2 c0       	rjmp	.+356    	; 0x81a <__mulsf3+0x1ea>
 6b6:	cd 84       	ldd	r12, Y+13	; 0x0d
 6b8:	de 84       	ldd	r13, Y+14	; 0x0e
 6ba:	ef 84       	ldd	r14, Y+15	; 0x0f
 6bc:	f8 88       	ldd	r15, Y+16	; 0x10
 6be:	0d 89       	ldd	r16, Y+21	; 0x15
 6c0:	1e 89       	ldd	r17, Y+22	; 0x16
 6c2:	2f 89       	ldd	r18, Y+23	; 0x17
 6c4:	38 8d       	ldd	r19, Y+24	; 0x18
 6c6:	88 24       	eor	r8, r8
 6c8:	99 24       	eor	r9, r9
 6ca:	54 01       	movw	r10, r8
 6cc:	40 e0       	ldi	r20, 0x00	; 0
 6ce:	50 e0       	ldi	r21, 0x00	; 0
 6d0:	60 e0       	ldi	r22, 0x00	; 0
 6d2:	70 e0       	ldi	r23, 0x00	; 0
 6d4:	44 24       	eor	r4, r4
 6d6:	55 24       	eor	r5, r5
 6d8:	32 01       	movw	r6, r4
 6da:	e0 e0       	ldi	r30, 0x00	; 0
 6dc:	f0 e0       	ldi	r31, 0x00	; 0
 6de:	c6 01       	movw	r24, r12
 6e0:	81 70       	andi	r24, 0x01	; 1
 6e2:	90 70       	andi	r25, 0x00	; 0
 6e4:	89 2b       	or	r24, r25
 6e6:	d9 f0       	breq	.+54     	; 0x71e <__mulsf3+0xee>
 6e8:	80 0e       	add	r8, r16
 6ea:	91 1e       	adc	r9, r17
 6ec:	a2 1e       	adc	r10, r18
 6ee:	b3 1e       	adc	r11, r19
 6f0:	db 01       	movw	r26, r22
 6f2:	ca 01       	movw	r24, r20
 6f4:	84 0d       	add	r24, r4
 6f6:	95 1d       	adc	r25, r5
 6f8:	a6 1d       	adc	r26, r6
 6fa:	b7 1d       	adc	r27, r7
 6fc:	40 e0       	ldi	r20, 0x00	; 0
 6fe:	50 e0       	ldi	r21, 0x00	; 0
 700:	60 e0       	ldi	r22, 0x00	; 0
 702:	70 e0       	ldi	r23, 0x00	; 0
 704:	80 16       	cp	r8, r16
 706:	91 06       	cpc	r9, r17
 708:	a2 06       	cpc	r10, r18
 70a:	b3 06       	cpc	r11, r19
 70c:	20 f4       	brcc	.+8      	; 0x716 <__mulsf3+0xe6>
 70e:	41 e0       	ldi	r20, 0x01	; 1
 710:	50 e0       	ldi	r21, 0x00	; 0
 712:	60 e0       	ldi	r22, 0x00	; 0
 714:	70 e0       	ldi	r23, 0x00	; 0
 716:	48 0f       	add	r20, r24
 718:	59 1f       	adc	r21, r25
 71a:	6a 1f       	adc	r22, r26
 71c:	7b 1f       	adc	r23, r27
 71e:	44 0c       	add	r4, r4
 720:	55 1c       	adc	r5, r5
 722:	66 1c       	adc	r6, r6
 724:	77 1c       	adc	r7, r7
 726:	37 ff       	sbrs	r19, 7
 728:	08 c0       	rjmp	.+16     	; 0x73a <__mulsf3+0x10a>
 72a:	81 e0       	ldi	r24, 0x01	; 1
 72c:	90 e0       	ldi	r25, 0x00	; 0
 72e:	a0 e0       	ldi	r26, 0x00	; 0
 730:	b0 e0       	ldi	r27, 0x00	; 0
 732:	48 2a       	or	r4, r24
 734:	59 2a       	or	r5, r25
 736:	6a 2a       	or	r6, r26
 738:	7b 2a       	or	r7, r27
 73a:	31 96       	adiw	r30, 0x01	; 1
 73c:	e0 32       	cpi	r30, 0x20	; 32
 73e:	f1 05       	cpc	r31, r1
 740:	49 f0       	breq	.+18     	; 0x754 <__mulsf3+0x124>
 742:	00 0f       	add	r16, r16
 744:	11 1f       	adc	r17, r17
 746:	22 1f       	adc	r18, r18
 748:	33 1f       	adc	r19, r19
 74a:	f6 94       	lsr	r15
 74c:	e7 94       	ror	r14
 74e:	d7 94       	ror	r13
 750:	c7 94       	ror	r12
 752:	c5 cf       	rjmp	.-118    	; 0x6de <__mulsf3+0xae>
 754:	8b 89       	ldd	r24, Y+19	; 0x13
 756:	9c 89       	ldd	r25, Y+20	; 0x14
 758:	2b 85       	ldd	r18, Y+11	; 0x0b
 75a:	3c 85       	ldd	r19, Y+12	; 0x0c
 75c:	82 0f       	add	r24, r18
 75e:	93 1f       	adc	r25, r19
 760:	02 96       	adiw	r24, 0x02	; 2
 762:	9c 8f       	std	Y+28, r25	; 0x1c
 764:	8b 8f       	std	Y+27, r24	; 0x1b
 766:	1a 8e       	std	Y+26, r1	; 0x1a
 768:	9a 85       	ldd	r25, Y+10	; 0x0a
 76a:	8a 89       	ldd	r24, Y+18	; 0x12
 76c:	98 17       	cp	r25, r24
 76e:	11 f0       	breq	.+4      	; 0x774 <__mulsf3+0x144>
 770:	81 e0       	ldi	r24, 0x01	; 1
 772:	8a 8f       	std	Y+26, r24	; 0x1a
 774:	2b 8d       	ldd	r18, Y+27	; 0x1b
 776:	3c 8d       	ldd	r19, Y+28	; 0x1c
 778:	17 c0       	rjmp	.+46     	; 0x7a8 <__mulsf3+0x178>
 77a:	ca 01       	movw	r24, r20
 77c:	81 70       	andi	r24, 0x01	; 1
 77e:	90 70       	andi	r25, 0x00	; 0
 780:	89 2b       	or	r24, r25
 782:	61 f0       	breq	.+24     	; 0x79c <__mulsf3+0x16c>
 784:	b6 94       	lsr	r11
 786:	a7 94       	ror	r10
 788:	97 94       	ror	r9
 78a:	87 94       	ror	r8
 78c:	80 e0       	ldi	r24, 0x00	; 0
 78e:	90 e0       	ldi	r25, 0x00	; 0
 790:	a0 e0       	ldi	r26, 0x00	; 0
 792:	b0 e8       	ldi	r27, 0x80	; 128
 794:	88 2a       	or	r8, r24
 796:	99 2a       	or	r9, r25
 798:	aa 2a       	or	r10, r26
 79a:	bb 2a       	or	r11, r27
 79c:	76 95       	lsr	r23
 79e:	67 95       	ror	r22
 7a0:	57 95       	ror	r21
 7a2:	47 95       	ror	r20
 7a4:	2f 5f       	subi	r18, 0xFF	; 255
 7a6:	3f 4f       	sbci	r19, 0xFF	; 255
 7a8:	77 fd       	sbrc	r23, 7
 7aa:	e7 cf       	rjmp	.-50     	; 0x77a <__mulsf3+0x14a>
 7ac:	c9 01       	movw	r24, r18
 7ae:	0b c0       	rjmp	.+22     	; 0x7c6 <__mulsf3+0x196>
 7b0:	44 0f       	add	r20, r20
 7b2:	55 1f       	adc	r21, r21
 7b4:	66 1f       	adc	r22, r22
 7b6:	77 1f       	adc	r23, r23
 7b8:	b7 fc       	sbrc	r11, 7
 7ba:	41 60       	ori	r20, 0x01	; 1
 7bc:	88 0c       	add	r8, r8
 7be:	99 1c       	adc	r9, r9
 7c0:	aa 1c       	adc	r10, r10
 7c2:	bb 1c       	adc	r11, r11
 7c4:	01 97       	sbiw	r24, 0x01	; 1
 7c6:	40 30       	cpi	r20, 0x00	; 0
 7c8:	a0 e0       	ldi	r26, 0x00	; 0
 7ca:	5a 07       	cpc	r21, r26
 7cc:	a0 e0       	ldi	r26, 0x00	; 0
 7ce:	6a 07       	cpc	r22, r26
 7d0:	a0 e4       	ldi	r26, 0x40	; 64
 7d2:	7a 07       	cpc	r23, r26
 7d4:	68 f3       	brcs	.-38     	; 0x7b0 <__mulsf3+0x180>
 7d6:	9c 8f       	std	Y+28, r25	; 0x1c
 7d8:	8b 8f       	std	Y+27, r24	; 0x1b
 7da:	db 01       	movw	r26, r22
 7dc:	ca 01       	movw	r24, r20
 7de:	8f 77       	andi	r24, 0x7F	; 127
 7e0:	90 70       	andi	r25, 0x00	; 0
 7e2:	a0 70       	andi	r26, 0x00	; 0
 7e4:	b0 70       	andi	r27, 0x00	; 0
 7e6:	80 34       	cpi	r24, 0x40	; 64
 7e8:	91 05       	cpc	r25, r1
 7ea:	a1 05       	cpc	r26, r1
 7ec:	b1 05       	cpc	r27, r1
 7ee:	61 f4       	brne	.+24     	; 0x808 <__mulsf3+0x1d8>
 7f0:	47 fd       	sbrc	r20, 7
 7f2:	0a c0       	rjmp	.+20     	; 0x808 <__mulsf3+0x1d8>
 7f4:	81 14       	cp	r8, r1
 7f6:	91 04       	cpc	r9, r1
 7f8:	a1 04       	cpc	r10, r1
 7fa:	b1 04       	cpc	r11, r1
 7fc:	29 f0       	breq	.+10     	; 0x808 <__mulsf3+0x1d8>
 7fe:	40 5c       	subi	r20, 0xC0	; 192
 800:	5f 4f       	sbci	r21, 0xFF	; 255
 802:	6f 4f       	sbci	r22, 0xFF	; 255
 804:	7f 4f       	sbci	r23, 0xFF	; 255
 806:	40 78       	andi	r20, 0x80	; 128
 808:	4d 8f       	std	Y+29, r20	; 0x1d
 80a:	5e 8f       	std	Y+30, r21	; 0x1e
 80c:	6f 8f       	std	Y+31, r22	; 0x1f
 80e:	78 a3       	std	Y+32, r23	; 0x20
 810:	83 e0       	ldi	r24, 0x03	; 3
 812:	89 8f       	std	Y+25, r24	; 0x19
 814:	be 01       	movw	r22, r28
 816:	67 5e       	subi	r22, 0xE7	; 231
 818:	7f 4f       	sbci	r23, 0xFF	; 255
 81a:	cb 01       	movw	r24, r22
 81c:	f0 d1       	rcall	.+992    	; 0xbfe <__pack_f>
 81e:	e0 e1       	ldi	r30, 0x10	; 16
 820:	a0 96       	adiw	r28, 0x20	; 32
 822:	b1 c3       	rjmp	.+1890   	; 0xf86 <__epilogue_restores__+0x4>

00000824 <__divsf3>:
 824:	a8 e1       	ldi	r26, 0x18	; 24
 826:	b0 e0       	ldi	r27, 0x00	; 0
 828:	e7 e1       	ldi	r30, 0x17	; 23
 82a:	f4 e0       	ldi	r31, 0x04	; 4
 82c:	96 c3       	rjmp	.+1836   	; 0xf5a <__prologue_saves__+0x10>
 82e:	69 83       	std	Y+1, r22	; 0x01
 830:	7a 83       	std	Y+2, r23	; 0x02
 832:	8b 83       	std	Y+3, r24	; 0x03
 834:	9c 83       	std	Y+4, r25	; 0x04
 836:	2d 83       	std	Y+5, r18	; 0x05
 838:	3e 83       	std	Y+6, r19	; 0x06
 83a:	4f 83       	std	Y+7, r20	; 0x07
 83c:	58 87       	std	Y+8, r21	; 0x08
 83e:	8e 01       	movw	r16, r28
 840:	07 5f       	subi	r16, 0xF7	; 247
 842:	1f 4f       	sbci	r17, 0xFF	; 255
 844:	b8 01       	movw	r22, r16
 846:	ce 01       	movw	r24, r28
 848:	01 96       	adiw	r24, 0x01	; 1
 84a:	b9 d2       	rcall	.+1394   	; 0xdbe <__unpack_f>
 84c:	81 e1       	ldi	r24, 0x11	; 17
 84e:	e8 2e       	mov	r14, r24
 850:	f1 2c       	mov	r15, r1
 852:	ec 0e       	add	r14, r28
 854:	fd 1e       	adc	r15, r29
 856:	b7 01       	movw	r22, r14
 858:	ce 01       	movw	r24, r28
 85a:	05 96       	adiw	r24, 0x05	; 5
 85c:	b0 d2       	rcall	.+1376   	; 0xdbe <__unpack_f>
 85e:	39 85       	ldd	r19, Y+9	; 0x09
 860:	32 30       	cpi	r19, 0x02	; 2
 862:	f8 f0       	brcs	.+62     	; 0x8a2 <__divsf3+0x7e>
 864:	29 89       	ldd	r18, Y+17	; 0x11
 866:	22 30       	cpi	r18, 0x02	; 2
 868:	10 f4       	brcc	.+4      	; 0x86e <__divsf3+0x4a>
 86a:	b7 01       	movw	r22, r14
 86c:	86 c0       	rjmp	.+268    	; 0x97a <__divsf3+0x156>
 86e:	8a 85       	ldd	r24, Y+10	; 0x0a
 870:	9a 89       	ldd	r25, Y+18	; 0x12
 872:	89 27       	eor	r24, r25
 874:	8a 87       	std	Y+10, r24	; 0x0a
 876:	34 30       	cpi	r19, 0x04	; 4
 878:	11 f0       	breq	.+4      	; 0x87e <__divsf3+0x5a>
 87a:	32 30       	cpi	r19, 0x02	; 2
 87c:	29 f4       	brne	.+10     	; 0x888 <__divsf3+0x64>
 87e:	32 17       	cp	r19, r18
 880:	81 f4       	brne	.+32     	; 0x8a2 <__divsf3+0x7e>
 882:	60 e6       	ldi	r22, 0x60	; 96
 884:	70 e0       	ldi	r23, 0x00	; 0
 886:	79 c0       	rjmp	.+242    	; 0x97a <__divsf3+0x156>
 888:	24 30       	cpi	r18, 0x04	; 4
 88a:	39 f4       	brne	.+14     	; 0x89a <__divsf3+0x76>
 88c:	1d 86       	std	Y+13, r1	; 0x0d
 88e:	1e 86       	std	Y+14, r1	; 0x0e
 890:	1f 86       	std	Y+15, r1	; 0x0f
 892:	18 8a       	std	Y+16, r1	; 0x10
 894:	1c 86       	std	Y+12, r1	; 0x0c
 896:	1b 86       	std	Y+11, r1	; 0x0b
 898:	04 c0       	rjmp	.+8      	; 0x8a2 <__divsf3+0x7e>
 89a:	22 30       	cpi	r18, 0x02	; 2
 89c:	21 f4       	brne	.+8      	; 0x8a6 <__divsf3+0x82>
 89e:	84 e0       	ldi	r24, 0x04	; 4
 8a0:	89 87       	std	Y+9, r24	; 0x09
 8a2:	b8 01       	movw	r22, r16
 8a4:	6a c0       	rjmp	.+212    	; 0x97a <__divsf3+0x156>
 8a6:	6b 85       	ldd	r22, Y+11	; 0x0b
 8a8:	7c 85       	ldd	r23, Y+12	; 0x0c
 8aa:	8b 89       	ldd	r24, Y+19	; 0x13
 8ac:	9c 89       	ldd	r25, Y+20	; 0x14
 8ae:	68 1b       	sub	r22, r24
 8b0:	79 0b       	sbc	r23, r25
 8b2:	7c 87       	std	Y+12, r23	; 0x0c
 8b4:	6b 87       	std	Y+11, r22	; 0x0b
 8b6:	2d 85       	ldd	r18, Y+13	; 0x0d
 8b8:	3e 85       	ldd	r19, Y+14	; 0x0e
 8ba:	4f 85       	ldd	r20, Y+15	; 0x0f
 8bc:	58 89       	ldd	r21, Y+16	; 0x10
 8be:	8d 89       	ldd	r24, Y+21	; 0x15
 8c0:	9e 89       	ldd	r25, Y+22	; 0x16
 8c2:	af 89       	ldd	r26, Y+23	; 0x17
 8c4:	b8 8d       	ldd	r27, Y+24	; 0x18
 8c6:	28 17       	cp	r18, r24
 8c8:	39 07       	cpc	r19, r25
 8ca:	4a 07       	cpc	r20, r26
 8cc:	5b 07       	cpc	r21, r27
 8ce:	40 f4       	brcc	.+16     	; 0x8e0 <__divsf3+0xbc>
 8d0:	22 0f       	add	r18, r18
 8d2:	33 1f       	adc	r19, r19
 8d4:	44 1f       	adc	r20, r20
 8d6:	55 1f       	adc	r21, r21
 8d8:	61 50       	subi	r22, 0x01	; 1
 8da:	70 40       	sbci	r23, 0x00	; 0
 8dc:	7c 87       	std	Y+12, r23	; 0x0c
 8de:	6b 87       	std	Y+11, r22	; 0x0b
 8e0:	a1 2c       	mov	r10, r1
 8e2:	b1 2c       	mov	r11, r1
 8e4:	c1 2c       	mov	r12, r1
 8e6:	10 e4       	ldi	r17, 0x40	; 64
 8e8:	d1 2e       	mov	r13, r17
 8ea:	ee 24       	eor	r14, r14
 8ec:	ff 24       	eor	r15, r15
 8ee:	87 01       	movw	r16, r14
 8f0:	60 e0       	ldi	r22, 0x00	; 0
 8f2:	70 e0       	ldi	r23, 0x00	; 0
 8f4:	28 17       	cp	r18, r24
 8f6:	39 07       	cpc	r19, r25
 8f8:	4a 07       	cpc	r20, r26
 8fa:	5b 07       	cpc	r21, r27
 8fc:	40 f0       	brcs	.+16     	; 0x90e <__divsf3+0xea>
 8fe:	ea 28       	or	r14, r10
 900:	fb 28       	or	r15, r11
 902:	0c 29       	or	r16, r12
 904:	1d 29       	or	r17, r13
 906:	28 1b       	sub	r18, r24
 908:	39 0b       	sbc	r19, r25
 90a:	4a 0b       	sbc	r20, r26
 90c:	5b 0b       	sbc	r21, r27
 90e:	d6 94       	lsr	r13
 910:	c7 94       	ror	r12
 912:	b7 94       	ror	r11
 914:	a7 94       	ror	r10
 916:	22 0f       	add	r18, r18
 918:	33 1f       	adc	r19, r19
 91a:	44 1f       	adc	r20, r20
 91c:	55 1f       	adc	r21, r21
 91e:	6f 5f       	subi	r22, 0xFF	; 255
 920:	7f 4f       	sbci	r23, 0xFF	; 255
 922:	6f 31       	cpi	r22, 0x1F	; 31
 924:	71 05       	cpc	r23, r1
 926:	31 f7       	brne	.-52     	; 0x8f4 <__divsf3+0xd0>
 928:	d8 01       	movw	r26, r16
 92a:	c7 01       	movw	r24, r14
 92c:	8f 77       	andi	r24, 0x7F	; 127
 92e:	90 70       	andi	r25, 0x00	; 0
 930:	a0 70       	andi	r26, 0x00	; 0
 932:	b0 70       	andi	r27, 0x00	; 0
 934:	80 34       	cpi	r24, 0x40	; 64
 936:	91 05       	cpc	r25, r1
 938:	a1 05       	cpc	r26, r1
 93a:	b1 05       	cpc	r27, r1
 93c:	b9 f4       	brne	.+46     	; 0x96c <__divsf3+0x148>
 93e:	e7 fc       	sbrc	r14, 7
 940:	15 c0       	rjmp	.+42     	; 0x96c <__divsf3+0x148>
 942:	21 15       	cp	r18, r1
 944:	31 05       	cpc	r19, r1
 946:	41 05       	cpc	r20, r1
 948:	51 05       	cpc	r21, r1
 94a:	81 f0       	breq	.+32     	; 0x96c <__divsf3+0x148>
 94c:	80 e4       	ldi	r24, 0x40	; 64
 94e:	90 e0       	ldi	r25, 0x00	; 0
 950:	a0 e0       	ldi	r26, 0x00	; 0
 952:	b0 e0       	ldi	r27, 0x00	; 0
 954:	e8 0e       	add	r14, r24
 956:	f9 1e       	adc	r15, r25
 958:	0a 1f       	adc	r16, r26
 95a:	1b 1f       	adc	r17, r27
 95c:	80 e8       	ldi	r24, 0x80	; 128
 95e:	9f ef       	ldi	r25, 0xFF	; 255
 960:	af ef       	ldi	r26, 0xFF	; 255
 962:	bf ef       	ldi	r27, 0xFF	; 255
 964:	e8 22       	and	r14, r24
 966:	f9 22       	and	r15, r25
 968:	0a 23       	and	r16, r26
 96a:	1b 23       	and	r17, r27
 96c:	ed 86       	std	Y+13, r14	; 0x0d
 96e:	fe 86       	std	Y+14, r15	; 0x0e
 970:	0f 87       	std	Y+15, r16	; 0x0f
 972:	18 8b       	std	Y+16, r17	; 0x10
 974:	be 01       	movw	r22, r28
 976:	67 5f       	subi	r22, 0xF7	; 247
 978:	7f 4f       	sbci	r23, 0xFF	; 255
 97a:	cb 01       	movw	r24, r22
 97c:	40 d1       	rcall	.+640    	; 0xbfe <__pack_f>
 97e:	ea e0       	ldi	r30, 0x0A	; 10
 980:	68 96       	adiw	r28, 0x18	; 24
 982:	07 c3       	rjmp	.+1550   	; 0xf92 <__epilogue_restores__+0x10>

00000984 <__gesf2>:
 984:	a8 e1       	ldi	r26, 0x18	; 24
 986:	b0 e0       	ldi	r27, 0x00	; 0
 988:	e7 ec       	ldi	r30, 0xC7	; 199
 98a:	f4 e0       	ldi	r31, 0x04	; 4
 98c:	ea c2       	rjmp	.+1492   	; 0xf62 <__prologue_saves__+0x18>
 98e:	69 83       	std	Y+1, r22	; 0x01
 990:	7a 83       	std	Y+2, r23	; 0x02
 992:	8b 83       	std	Y+3, r24	; 0x03
 994:	9c 83       	std	Y+4, r25	; 0x04
 996:	2d 83       	std	Y+5, r18	; 0x05
 998:	3e 83       	std	Y+6, r19	; 0x06
 99a:	4f 83       	std	Y+7, r20	; 0x07
 99c:	58 87       	std	Y+8, r21	; 0x08
 99e:	89 e0       	ldi	r24, 0x09	; 9
 9a0:	e8 2e       	mov	r14, r24
 9a2:	f1 2c       	mov	r15, r1
 9a4:	ec 0e       	add	r14, r28
 9a6:	fd 1e       	adc	r15, r29
 9a8:	b7 01       	movw	r22, r14
 9aa:	ce 01       	movw	r24, r28
 9ac:	01 96       	adiw	r24, 0x01	; 1
 9ae:	07 d2       	rcall	.+1038   	; 0xdbe <__unpack_f>
 9b0:	8e 01       	movw	r16, r28
 9b2:	0f 5e       	subi	r16, 0xEF	; 239
 9b4:	1f 4f       	sbci	r17, 0xFF	; 255
 9b6:	b8 01       	movw	r22, r16
 9b8:	ce 01       	movw	r24, r28
 9ba:	05 96       	adiw	r24, 0x05	; 5
 9bc:	00 d2       	rcall	.+1024   	; 0xdbe <__unpack_f>
 9be:	89 85       	ldd	r24, Y+9	; 0x09
 9c0:	82 30       	cpi	r24, 0x02	; 2
 9c2:	58 f0       	brcs	.+22     	; 0x9da <__gesf2+0x56>
 9c4:	89 89       	ldd	r24, Y+17	; 0x11
 9c6:	82 30       	cpi	r24, 0x02	; 2
 9c8:	40 f0       	brcs	.+16     	; 0x9da <__gesf2+0x56>
 9ca:	b8 01       	movw	r22, r16
 9cc:	c7 01       	movw	r24, r14
 9ce:	67 d2       	rcall	.+1230   	; 0xe9e <__fpcmp_parts_f>
 9d0:	28 2f       	mov	r18, r24
 9d2:	33 27       	eor	r19, r19
 9d4:	27 fd       	sbrc	r18, 7
 9d6:	30 95       	com	r19
 9d8:	02 c0       	rjmp	.+4      	; 0x9de <__gesf2+0x5a>
 9da:	2f ef       	ldi	r18, 0xFF	; 255
 9dc:	3f ef       	ldi	r19, 0xFF	; 255
 9de:	c9 01       	movw	r24, r18
 9e0:	e6 e0       	ldi	r30, 0x06	; 6
 9e2:	68 96       	adiw	r28, 0x18	; 24
 9e4:	da c2       	rjmp	.+1460   	; 0xf9a <__epilogue_restores__+0x18>

000009e6 <__fixsfsi>:
 9e6:	ac e0       	ldi	r26, 0x0C	; 12
 9e8:	b0 e0       	ldi	r27, 0x00	; 0
 9ea:	e8 ef       	ldi	r30, 0xF8	; 248
 9ec:	f4 e0       	ldi	r31, 0x04	; 4
 9ee:	bd c2       	rjmp	.+1402   	; 0xf6a <__prologue_saves__+0x20>
 9f0:	69 83       	std	Y+1, r22	; 0x01
 9f2:	7a 83       	std	Y+2, r23	; 0x02
 9f4:	8b 83       	std	Y+3, r24	; 0x03
 9f6:	9c 83       	std	Y+4, r25	; 0x04
 9f8:	be 01       	movw	r22, r28
 9fa:	6b 5f       	subi	r22, 0xFB	; 251
 9fc:	7f 4f       	sbci	r23, 0xFF	; 255
 9fe:	ce 01       	movw	r24, r28
 a00:	01 96       	adiw	r24, 0x01	; 1
 a02:	dd d1       	rcall	.+954    	; 0xdbe <__unpack_f>
 a04:	8d 81       	ldd	r24, Y+5	; 0x05
 a06:	82 30       	cpi	r24, 0x02	; 2
 a08:	a9 f1       	breq	.+106    	; 0xa74 <__fixsfsi+0x8e>
 a0a:	82 30       	cpi	r24, 0x02	; 2
 a0c:	98 f1       	brcs	.+102    	; 0xa74 <__fixsfsi+0x8e>
 a0e:	84 30       	cpi	r24, 0x04	; 4
 a10:	21 f4       	brne	.+8      	; 0xa1a <__fixsfsi+0x34>
 a12:	8e 81       	ldd	r24, Y+6	; 0x06
 a14:	88 23       	and	r24, r24
 a16:	59 f4       	brne	.+22     	; 0xa2e <__fixsfsi+0x48>
 a18:	0f c0       	rjmp	.+30     	; 0xa38 <__fixsfsi+0x52>
 a1a:	2f 81       	ldd	r18, Y+7	; 0x07
 a1c:	38 85       	ldd	r19, Y+8	; 0x08
 a1e:	37 fd       	sbrc	r19, 7
 a20:	29 c0       	rjmp	.+82     	; 0xa74 <__fixsfsi+0x8e>
 a22:	6e 81       	ldd	r22, Y+6	; 0x06
 a24:	2f 31       	cpi	r18, 0x1F	; 31
 a26:	31 05       	cpc	r19, r1
 a28:	64 f0       	brlt	.+24     	; 0xa42 <__fixsfsi+0x5c>
 a2a:	66 23       	and	r22, r22
 a2c:	29 f0       	breq	.+10     	; 0xa38 <__fixsfsi+0x52>
 a2e:	20 e0       	ldi	r18, 0x00	; 0
 a30:	30 e0       	ldi	r19, 0x00	; 0
 a32:	40 e0       	ldi	r20, 0x00	; 0
 a34:	50 e8       	ldi	r21, 0x80	; 128
 a36:	22 c0       	rjmp	.+68     	; 0xa7c <__fixsfsi+0x96>
 a38:	2f ef       	ldi	r18, 0xFF	; 255
 a3a:	3f ef       	ldi	r19, 0xFF	; 255
 a3c:	4f ef       	ldi	r20, 0xFF	; 255
 a3e:	5f e7       	ldi	r21, 0x7F	; 127
 a40:	1d c0       	rjmp	.+58     	; 0xa7c <__fixsfsi+0x96>
 a42:	8e e1       	ldi	r24, 0x1E	; 30
 a44:	90 e0       	ldi	r25, 0x00	; 0
 a46:	82 1b       	sub	r24, r18
 a48:	93 0b       	sbc	r25, r19
 a4a:	29 85       	ldd	r18, Y+9	; 0x09
 a4c:	3a 85       	ldd	r19, Y+10	; 0x0a
 a4e:	4b 85       	ldd	r20, Y+11	; 0x0b
 a50:	5c 85       	ldd	r21, Y+12	; 0x0c
 a52:	04 c0       	rjmp	.+8      	; 0xa5c <__fixsfsi+0x76>
 a54:	56 95       	lsr	r21
 a56:	47 95       	ror	r20
 a58:	37 95       	ror	r19
 a5a:	27 95       	ror	r18
 a5c:	8a 95       	dec	r24
 a5e:	d2 f7       	brpl	.-12     	; 0xa54 <__fixsfsi+0x6e>
 a60:	66 23       	and	r22, r22
 a62:	61 f0       	breq	.+24     	; 0xa7c <__fixsfsi+0x96>
 a64:	50 95       	com	r21
 a66:	40 95       	com	r20
 a68:	30 95       	com	r19
 a6a:	21 95       	neg	r18
 a6c:	3f 4f       	sbci	r19, 0xFF	; 255
 a6e:	4f 4f       	sbci	r20, 0xFF	; 255
 a70:	5f 4f       	sbci	r21, 0xFF	; 255
 a72:	04 c0       	rjmp	.+8      	; 0xa7c <__fixsfsi+0x96>
 a74:	20 e0       	ldi	r18, 0x00	; 0
 a76:	30 e0       	ldi	r19, 0x00	; 0
 a78:	40 e0       	ldi	r20, 0x00	; 0
 a7a:	50 e0       	ldi	r21, 0x00	; 0
 a7c:	ca 01       	movw	r24, r20
 a7e:	b9 01       	movw	r22, r18
 a80:	e2 e0       	ldi	r30, 0x02	; 2
 a82:	2c 96       	adiw	r28, 0x0c	; 12
 a84:	8e c2       	rjmp	.+1308   	; 0xfa2 <__epilogue_restores__+0x20>

00000a86 <__floatunsisf>:
 a86:	a8 e0       	ldi	r26, 0x08	; 8
 a88:	b0 e0       	ldi	r27, 0x00	; 0
 a8a:	e8 e4       	ldi	r30, 0x48	; 72
 a8c:	f5 e0       	ldi	r31, 0x05	; 5
 a8e:	67 c2       	rjmp	.+1230   	; 0xf5e <__prologue_saves__+0x14>
 a90:	7b 01       	movw	r14, r22
 a92:	8c 01       	movw	r16, r24
 a94:	61 15       	cp	r22, r1
 a96:	71 05       	cpc	r23, r1
 a98:	81 05       	cpc	r24, r1
 a9a:	91 05       	cpc	r25, r1
 a9c:	19 f4       	brne	.+6      	; 0xaa4 <__floatunsisf+0x1e>
 a9e:	82 e0       	ldi	r24, 0x02	; 2
 aa0:	89 83       	std	Y+1, r24	; 0x01
 aa2:	59 c0       	rjmp	.+178    	; 0xb56 <__floatunsisf+0xd0>
 aa4:	83 e0       	ldi	r24, 0x03	; 3
 aa6:	89 83       	std	Y+1, r24	; 0x01
 aa8:	8e e1       	ldi	r24, 0x1E	; 30
 aaa:	c8 2e       	mov	r12, r24
 aac:	d1 2c       	mov	r13, r1
 aae:	dc 82       	std	Y+4, r13	; 0x04
 ab0:	cb 82       	std	Y+3, r12	; 0x03
 ab2:	ed 82       	std	Y+5, r14	; 0x05
 ab4:	fe 82       	std	Y+6, r15	; 0x06
 ab6:	0f 83       	std	Y+7, r16	; 0x07
 ab8:	18 87       	std	Y+8, r17	; 0x08
 aba:	c8 01       	movw	r24, r16
 abc:	b7 01       	movw	r22, r14
 abe:	52 d0       	rcall	.+164    	; 0xb64 <__clzsi2>
 ac0:	bc 01       	movw	r22, r24
 ac2:	61 50       	subi	r22, 0x01	; 1
 ac4:	70 40       	sbci	r23, 0x00	; 0
 ac6:	77 ff       	sbrs	r23, 7
 ac8:	33 c0       	rjmp	.+102    	; 0xb30 <__floatunsisf+0xaa>
 aca:	ee 27       	eor	r30, r30
 acc:	ff 27       	eor	r31, r31
 ace:	e6 1b       	sub	r30, r22
 ad0:	f7 0b       	sbc	r31, r23
 ad2:	20 e0       	ldi	r18, 0x00	; 0
 ad4:	30 e0       	ldi	r19, 0x00	; 0
 ad6:	40 e0       	ldi	r20, 0x00	; 0
 ad8:	50 e0       	ldi	r21, 0x00	; 0
 ada:	81 e0       	ldi	r24, 0x01	; 1
 adc:	90 e0       	ldi	r25, 0x00	; 0
 ade:	a0 e0       	ldi	r26, 0x00	; 0
 ae0:	b0 e0       	ldi	r27, 0x00	; 0
 ae2:	0e 2e       	mov	r0, r30
 ae4:	04 c0       	rjmp	.+8      	; 0xaee <__floatunsisf+0x68>
 ae6:	88 0f       	add	r24, r24
 ae8:	99 1f       	adc	r25, r25
 aea:	aa 1f       	adc	r26, r26
 aec:	bb 1f       	adc	r27, r27
 aee:	0a 94       	dec	r0
 af0:	d2 f7       	brpl	.-12     	; 0xae6 <__floatunsisf+0x60>
 af2:	01 97       	sbiw	r24, 0x01	; 1
 af4:	a1 09       	sbc	r26, r1
 af6:	b1 09       	sbc	r27, r1
 af8:	8e 21       	and	r24, r14
 afa:	9f 21       	and	r25, r15
 afc:	a0 23       	and	r26, r16
 afe:	b1 23       	and	r27, r17
 b00:	00 97       	sbiw	r24, 0x00	; 0
 b02:	a1 05       	cpc	r26, r1
 b04:	b1 05       	cpc	r27, r1
 b06:	21 f0       	breq	.+8      	; 0xb10 <__floatunsisf+0x8a>
 b08:	21 e0       	ldi	r18, 0x01	; 1
 b0a:	30 e0       	ldi	r19, 0x00	; 0
 b0c:	40 e0       	ldi	r20, 0x00	; 0
 b0e:	50 e0       	ldi	r21, 0x00	; 0
 b10:	04 c0       	rjmp	.+8      	; 0xb1a <__floatunsisf+0x94>
 b12:	16 95       	lsr	r17
 b14:	07 95       	ror	r16
 b16:	f7 94       	ror	r15
 b18:	e7 94       	ror	r14
 b1a:	ea 95       	dec	r30
 b1c:	d2 f7       	brpl	.-12     	; 0xb12 <__floatunsisf+0x8c>
 b1e:	2e 29       	or	r18, r14
 b20:	3f 29       	or	r19, r15
 b22:	40 2b       	or	r20, r16
 b24:	51 2b       	or	r21, r17
 b26:	2d 83       	std	Y+5, r18	; 0x05
 b28:	3e 83       	std	Y+6, r19	; 0x06
 b2a:	4f 83       	std	Y+7, r20	; 0x07
 b2c:	58 87       	std	Y+8, r21	; 0x08
 b2e:	0f c0       	rjmp	.+30     	; 0xb4e <__floatunsisf+0xc8>
 b30:	61 15       	cp	r22, r1
 b32:	71 05       	cpc	r23, r1
 b34:	81 f0       	breq	.+32     	; 0xb56 <__floatunsisf+0xd0>
 b36:	06 2e       	mov	r0, r22
 b38:	04 c0       	rjmp	.+8      	; 0xb42 <__floatunsisf+0xbc>
 b3a:	ee 0c       	add	r14, r14
 b3c:	ff 1c       	adc	r15, r15
 b3e:	00 1f       	adc	r16, r16
 b40:	11 1f       	adc	r17, r17
 b42:	0a 94       	dec	r0
 b44:	d2 f7       	brpl	.-12     	; 0xb3a <__floatunsisf+0xb4>
 b46:	ed 82       	std	Y+5, r14	; 0x05
 b48:	fe 82       	std	Y+6, r15	; 0x06
 b4a:	0f 83       	std	Y+7, r16	; 0x07
 b4c:	18 87       	std	Y+8, r17	; 0x08
 b4e:	c6 1a       	sub	r12, r22
 b50:	d7 0a       	sbc	r13, r23
 b52:	dc 82       	std	Y+4, r13	; 0x04
 b54:	cb 82       	std	Y+3, r12	; 0x03
 b56:	1a 82       	std	Y+2, r1	; 0x02
 b58:	ce 01       	movw	r24, r28
 b5a:	01 96       	adiw	r24, 0x01	; 1
 b5c:	50 d0       	rcall	.+160    	; 0xbfe <__pack_f>
 b5e:	e8 e0       	ldi	r30, 0x08	; 8
 b60:	28 96       	adiw	r28, 0x08	; 8
 b62:	19 c2       	rjmp	.+1074   	; 0xf96 <__epilogue_restores__+0x14>

00000b64 <__clzsi2>:
 b64:	ef 92       	push	r14
 b66:	ff 92       	push	r15
 b68:	0f 93       	push	r16
 b6a:	1f 93       	push	r17
 b6c:	9b 01       	movw	r18, r22
 b6e:	ac 01       	movw	r20, r24
 b70:	20 30       	cpi	r18, 0x00	; 0
 b72:	80 e0       	ldi	r24, 0x00	; 0
 b74:	38 07       	cpc	r19, r24
 b76:	81 e0       	ldi	r24, 0x01	; 1
 b78:	48 07       	cpc	r20, r24
 b7a:	80 e0       	ldi	r24, 0x00	; 0
 b7c:	58 07       	cpc	r21, r24
 b7e:	80 f4       	brcc	.+32     	; 0xba0 <__clzsi2+0x3c>
 b80:	2f 3f       	cpi	r18, 0xFF	; 255
 b82:	31 05       	cpc	r19, r1
 b84:	41 05       	cpc	r20, r1
 b86:	51 05       	cpc	r21, r1
 b88:	09 f0       	breq	.+2      	; 0xb8c <__clzsi2+0x28>
 b8a:	20 f4       	brcc	.+8      	; 0xb94 <__clzsi2+0x30>
 b8c:	ee 24       	eor	r14, r14
 b8e:	ff 24       	eor	r15, r15
 b90:	87 01       	movw	r16, r14
 b92:	19 c0       	rjmp	.+50     	; 0xbc6 <__clzsi2+0x62>
 b94:	68 e0       	ldi	r22, 0x08	; 8
 b96:	e6 2e       	mov	r14, r22
 b98:	f1 2c       	mov	r15, r1
 b9a:	01 2d       	mov	r16, r1
 b9c:	11 2d       	mov	r17, r1
 b9e:	13 c0       	rjmp	.+38     	; 0xbc6 <__clzsi2+0x62>
 ba0:	20 30       	cpi	r18, 0x00	; 0
 ba2:	80 e0       	ldi	r24, 0x00	; 0
 ba4:	38 07       	cpc	r19, r24
 ba6:	80 e0       	ldi	r24, 0x00	; 0
 ba8:	48 07       	cpc	r20, r24
 baa:	81 e0       	ldi	r24, 0x01	; 1
 bac:	58 07       	cpc	r21, r24
 bae:	30 f4       	brcc	.+12     	; 0xbbc <__clzsi2+0x58>
 bb0:	90 e1       	ldi	r25, 0x10	; 16
 bb2:	e9 2e       	mov	r14, r25
 bb4:	f1 2c       	mov	r15, r1
 bb6:	01 2d       	mov	r16, r1
 bb8:	11 2d       	mov	r17, r1
 bba:	05 c0       	rjmp	.+10     	; 0xbc6 <__clzsi2+0x62>
 bbc:	88 e1       	ldi	r24, 0x18	; 24
 bbe:	e8 2e       	mov	r14, r24
 bc0:	f1 2c       	mov	r15, r1
 bc2:	01 2d       	mov	r16, r1
 bc4:	11 2d       	mov	r17, r1
 bc6:	80 e2       	ldi	r24, 0x20	; 32
 bc8:	90 e0       	ldi	r25, 0x00	; 0
 bca:	a0 e0       	ldi	r26, 0x00	; 0
 bcc:	b0 e0       	ldi	r27, 0x00	; 0
 bce:	8e 19       	sub	r24, r14
 bd0:	9f 09       	sbc	r25, r15
 bd2:	a0 0b       	sbc	r26, r16
 bd4:	b1 0b       	sbc	r27, r17
 bd6:	04 c0       	rjmp	.+8      	; 0xbe0 <__clzsi2+0x7c>
 bd8:	56 95       	lsr	r21
 bda:	47 95       	ror	r20
 bdc:	37 95       	ror	r19
 bde:	27 95       	ror	r18
 be0:	ea 94       	dec	r14
 be2:	d2 f7       	brpl	.-12     	; 0xbd8 <__clzsi2+0x74>
 be4:	f9 01       	movw	r30, r18
 be6:	e8 59       	subi	r30, 0x98	; 152
 be8:	ff 4f       	sbci	r31, 0xFF	; 255
 bea:	20 81       	ld	r18, Z
 bec:	82 1b       	sub	r24, r18
 bee:	91 09       	sbc	r25, r1
 bf0:	a1 09       	sbc	r26, r1
 bf2:	b1 09       	sbc	r27, r1
 bf4:	1f 91       	pop	r17
 bf6:	0f 91       	pop	r16
 bf8:	ff 90       	pop	r15
 bfa:	ef 90       	pop	r14
 bfc:	08 95       	ret

00000bfe <__pack_f>:
 bfe:	9f 92       	push	r9
 c00:	af 92       	push	r10
 c02:	bf 92       	push	r11
 c04:	cf 92       	push	r12
 c06:	df 92       	push	r13
 c08:	ef 92       	push	r14
 c0a:	ff 92       	push	r15
 c0c:	0f 93       	push	r16
 c0e:	1f 93       	push	r17
 c10:	ee 24       	eor	r14, r14
 c12:	ff 24       	eor	r15, r15
 c14:	87 01       	movw	r16, r14
 c16:	fc 01       	movw	r30, r24
 c18:	24 81       	ldd	r18, Z+4	; 0x04
 c1a:	35 81       	ldd	r19, Z+5	; 0x05
 c1c:	46 81       	ldd	r20, Z+6	; 0x06
 c1e:	57 81       	ldd	r21, Z+7	; 0x07
 c20:	91 80       	ldd	r9, Z+1	; 0x01
 c22:	80 81       	ld	r24, Z
 c24:	82 30       	cpi	r24, 0x02	; 2
 c26:	10 f4       	brcc	.+4      	; 0xc2c <__pack_f+0x2e>
 c28:	40 61       	ori	r20, 0x10	; 16
 c2a:	a2 c0       	rjmp	.+324    	; 0xd70 <__pack_f+0x172>
 c2c:	84 30       	cpi	r24, 0x04	; 4
 c2e:	09 f4       	brne	.+2      	; 0xc32 <__pack_f+0x34>
 c30:	9b c0       	rjmp	.+310    	; 0xd68 <__pack_f+0x16a>
 c32:	82 30       	cpi	r24, 0x02	; 2
 c34:	29 f4       	brne	.+10     	; 0xc40 <__pack_f+0x42>
 c36:	20 e0       	ldi	r18, 0x00	; 0
 c38:	30 e0       	ldi	r19, 0x00	; 0
 c3a:	40 e0       	ldi	r20, 0x00	; 0
 c3c:	50 e0       	ldi	r21, 0x00	; 0
 c3e:	05 c0       	rjmp	.+10     	; 0xc4a <__pack_f+0x4c>
 c40:	21 15       	cp	r18, r1
 c42:	31 05       	cpc	r19, r1
 c44:	41 05       	cpc	r20, r1
 c46:	51 05       	cpc	r21, r1
 c48:	19 f4       	brne	.+6      	; 0xc50 <__pack_f+0x52>
 c4a:	e0 e0       	ldi	r30, 0x00	; 0
 c4c:	f0 e0       	ldi	r31, 0x00	; 0
 c4e:	92 c0       	rjmp	.+292    	; 0xd74 <__pack_f+0x176>
 c50:	82 81       	ldd	r24, Z+2	; 0x02
 c52:	93 81       	ldd	r25, Z+3	; 0x03
 c54:	6f ef       	ldi	r22, 0xFF	; 255
 c56:	82 38       	cpi	r24, 0x82	; 130
 c58:	96 07       	cpc	r25, r22
 c5a:	0c f0       	brlt	.+2      	; 0xc5e <__pack_f+0x60>
 c5c:	5a c0       	rjmp	.+180    	; 0xd12 <__pack_f+0x114>
 c5e:	62 e8       	ldi	r22, 0x82	; 130
 c60:	7f ef       	ldi	r23, 0xFF	; 255
 c62:	68 1b       	sub	r22, r24
 c64:	79 0b       	sbc	r23, r25
 c66:	6a 31       	cpi	r22, 0x1A	; 26
 c68:	71 05       	cpc	r23, r1
 c6a:	2c f0       	brlt	.+10     	; 0xc76 <__pack_f+0x78>
 c6c:	20 e0       	ldi	r18, 0x00	; 0
 c6e:	30 e0       	ldi	r19, 0x00	; 0
 c70:	40 e0       	ldi	r20, 0x00	; 0
 c72:	50 e0       	ldi	r21, 0x00	; 0
 c74:	2a c0       	rjmp	.+84     	; 0xcca <__pack_f+0xcc>
 c76:	aa 24       	eor	r10, r10
 c78:	bb 24       	eor	r11, r11
 c7a:	65 01       	movw	r12, r10
 c7c:	81 e0       	ldi	r24, 0x01	; 1
 c7e:	90 e0       	ldi	r25, 0x00	; 0
 c80:	a0 e0       	ldi	r26, 0x00	; 0
 c82:	b0 e0       	ldi	r27, 0x00	; 0
 c84:	06 2e       	mov	r0, r22
 c86:	04 c0       	rjmp	.+8      	; 0xc90 <__pack_f+0x92>
 c88:	88 0f       	add	r24, r24
 c8a:	99 1f       	adc	r25, r25
 c8c:	aa 1f       	adc	r26, r26
 c8e:	bb 1f       	adc	r27, r27
 c90:	0a 94       	dec	r0
 c92:	d2 f7       	brpl	.-12     	; 0xc88 <__pack_f+0x8a>
 c94:	01 97       	sbiw	r24, 0x01	; 1
 c96:	a1 09       	sbc	r26, r1
 c98:	b1 09       	sbc	r27, r1
 c9a:	82 23       	and	r24, r18
 c9c:	93 23       	and	r25, r19
 c9e:	a4 23       	and	r26, r20
 ca0:	b5 23       	and	r27, r21
 ca2:	00 97       	sbiw	r24, 0x00	; 0
 ca4:	a1 05       	cpc	r26, r1
 ca6:	b1 05       	cpc	r27, r1
 ca8:	29 f0       	breq	.+10     	; 0xcb4 <__pack_f+0xb6>
 caa:	71 e0       	ldi	r23, 0x01	; 1
 cac:	a7 2e       	mov	r10, r23
 cae:	b1 2c       	mov	r11, r1
 cb0:	c1 2c       	mov	r12, r1
 cb2:	d1 2c       	mov	r13, r1
 cb4:	04 c0       	rjmp	.+8      	; 0xcbe <__pack_f+0xc0>
 cb6:	56 95       	lsr	r21
 cb8:	47 95       	ror	r20
 cba:	37 95       	ror	r19
 cbc:	27 95       	ror	r18
 cbe:	6a 95       	dec	r22
 cc0:	d2 f7       	brpl	.-12     	; 0xcb6 <__pack_f+0xb8>
 cc2:	2a 29       	or	r18, r10
 cc4:	3b 29       	or	r19, r11
 cc6:	4c 29       	or	r20, r12
 cc8:	5d 29       	or	r21, r13
 cca:	da 01       	movw	r26, r20
 ccc:	c9 01       	movw	r24, r18
 cce:	8f 77       	andi	r24, 0x7F	; 127
 cd0:	90 70       	andi	r25, 0x00	; 0
 cd2:	a0 70       	andi	r26, 0x00	; 0
 cd4:	b0 70       	andi	r27, 0x00	; 0
 cd6:	80 34       	cpi	r24, 0x40	; 64
 cd8:	91 05       	cpc	r25, r1
 cda:	a1 05       	cpc	r26, r1
 cdc:	b1 05       	cpc	r27, r1
 cde:	39 f4       	brne	.+14     	; 0xcee <__pack_f+0xf0>
 ce0:	27 ff       	sbrs	r18, 7
 ce2:	09 c0       	rjmp	.+18     	; 0xcf6 <__pack_f+0xf8>
 ce4:	20 5c       	subi	r18, 0xC0	; 192
 ce6:	3f 4f       	sbci	r19, 0xFF	; 255
 ce8:	4f 4f       	sbci	r20, 0xFF	; 255
 cea:	5f 4f       	sbci	r21, 0xFF	; 255
 cec:	04 c0       	rjmp	.+8      	; 0xcf6 <__pack_f+0xf8>
 cee:	21 5c       	subi	r18, 0xC1	; 193
 cf0:	3f 4f       	sbci	r19, 0xFF	; 255
 cf2:	4f 4f       	sbci	r20, 0xFF	; 255
 cf4:	5f 4f       	sbci	r21, 0xFF	; 255
 cf6:	80 e0       	ldi	r24, 0x00	; 0
 cf8:	90 e0       	ldi	r25, 0x00	; 0
 cfa:	20 30       	cpi	r18, 0x00	; 0
 cfc:	60 e0       	ldi	r22, 0x00	; 0
 cfe:	36 07       	cpc	r19, r22
 d00:	60 e0       	ldi	r22, 0x00	; 0
 d02:	46 07       	cpc	r20, r22
 d04:	60 e4       	ldi	r22, 0x40	; 64
 d06:	56 07       	cpc	r21, r22
 d08:	10 f0       	brcs	.+4      	; 0xd0e <__pack_f+0x110>
 d0a:	81 e0       	ldi	r24, 0x01	; 1
 d0c:	90 e0       	ldi	r25, 0x00	; 0
 d0e:	fc 01       	movw	r30, r24
 d10:	23 c0       	rjmp	.+70     	; 0xd58 <__pack_f+0x15a>
 d12:	80 38       	cpi	r24, 0x80	; 128
 d14:	91 05       	cpc	r25, r1
 d16:	44 f5       	brge	.+80     	; 0xd68 <__pack_f+0x16a>
 d18:	fc 01       	movw	r30, r24
 d1a:	e1 58       	subi	r30, 0x81	; 129
 d1c:	ff 4f       	sbci	r31, 0xFF	; 255
 d1e:	da 01       	movw	r26, r20
 d20:	c9 01       	movw	r24, r18
 d22:	8f 77       	andi	r24, 0x7F	; 127
 d24:	90 70       	andi	r25, 0x00	; 0
 d26:	a0 70       	andi	r26, 0x00	; 0
 d28:	b0 70       	andi	r27, 0x00	; 0
 d2a:	80 34       	cpi	r24, 0x40	; 64
 d2c:	91 05       	cpc	r25, r1
 d2e:	a1 05       	cpc	r26, r1
 d30:	b1 05       	cpc	r27, r1
 d32:	39 f4       	brne	.+14     	; 0xd42 <__pack_f+0x144>
 d34:	27 ff       	sbrs	r18, 7
 d36:	09 c0       	rjmp	.+18     	; 0xd4a <__pack_f+0x14c>
 d38:	20 5c       	subi	r18, 0xC0	; 192
 d3a:	3f 4f       	sbci	r19, 0xFF	; 255
 d3c:	4f 4f       	sbci	r20, 0xFF	; 255
 d3e:	5f 4f       	sbci	r21, 0xFF	; 255
 d40:	04 c0       	rjmp	.+8      	; 0xd4a <__pack_f+0x14c>
 d42:	21 5c       	subi	r18, 0xC1	; 193
 d44:	3f 4f       	sbci	r19, 0xFF	; 255
 d46:	4f 4f       	sbci	r20, 0xFF	; 255
 d48:	5f 4f       	sbci	r21, 0xFF	; 255
 d4a:	57 ff       	sbrs	r21, 7
 d4c:	05 c0       	rjmp	.+10     	; 0xd58 <__pack_f+0x15a>
 d4e:	56 95       	lsr	r21
 d50:	47 95       	ror	r20
 d52:	37 95       	ror	r19
 d54:	27 95       	ror	r18
 d56:	31 96       	adiw	r30, 0x01	; 1
 d58:	87 e0       	ldi	r24, 0x07	; 7
 d5a:	56 95       	lsr	r21
 d5c:	47 95       	ror	r20
 d5e:	37 95       	ror	r19
 d60:	27 95       	ror	r18
 d62:	8a 95       	dec	r24
 d64:	d1 f7       	brne	.-12     	; 0xd5a <__pack_f+0x15c>
 d66:	06 c0       	rjmp	.+12     	; 0xd74 <__pack_f+0x176>
 d68:	20 e0       	ldi	r18, 0x00	; 0
 d6a:	30 e0       	ldi	r19, 0x00	; 0
 d6c:	40 e0       	ldi	r20, 0x00	; 0
 d6e:	50 e0       	ldi	r21, 0x00	; 0
 d70:	ef ef       	ldi	r30, 0xFF	; 255
 d72:	f0 e0       	ldi	r31, 0x00	; 0
 d74:	e2 2e       	mov	r14, r18
 d76:	f3 2e       	mov	r15, r19
 d78:	94 2f       	mov	r25, r20
 d7a:	9f 77       	andi	r25, 0x7F	; 127
 d7c:	80 2f       	mov	r24, r16
 d7e:	80 78       	andi	r24, 0x80	; 128
 d80:	89 2b       	or	r24, r25
 d82:	9e 2f       	mov	r25, r30
 d84:	97 95       	ror	r25
 d86:	99 27       	eor	r25, r25
 d88:	97 95       	ror	r25
 d8a:	8f 77       	andi	r24, 0x7F	; 127
 d8c:	08 2f       	mov	r16, r24
 d8e:	09 2b       	or	r16, r25
 d90:	9e 2f       	mov	r25, r30
 d92:	96 95       	lsr	r25
 d94:	81 2f       	mov	r24, r17
 d96:	80 78       	andi	r24, 0x80	; 128
 d98:	89 2b       	or	r24, r25
 d9a:	97 94       	ror	r9
 d9c:	99 24       	eor	r9, r9
 d9e:	97 94       	ror	r9
 da0:	8f 77       	andi	r24, 0x7F	; 127
 da2:	18 2f       	mov	r17, r24
 da4:	19 29       	or	r17, r9
 da6:	c8 01       	movw	r24, r16
 da8:	b7 01       	movw	r22, r14
 daa:	1f 91       	pop	r17
 dac:	0f 91       	pop	r16
 dae:	ff 90       	pop	r15
 db0:	ef 90       	pop	r14
 db2:	df 90       	pop	r13
 db4:	cf 90       	pop	r12
 db6:	bf 90       	pop	r11
 db8:	af 90       	pop	r10
 dba:	9f 90       	pop	r9
 dbc:	08 95       	ret

00000dbe <__unpack_f>:
 dbe:	cf 93       	push	r28
 dc0:	df 93       	push	r29
 dc2:	fc 01       	movw	r30, r24
 dc4:	db 01       	movw	r26, r22
 dc6:	20 81       	ld	r18, Z
 dc8:	31 81       	ldd	r19, Z+1	; 0x01
 dca:	92 81       	ldd	r25, Z+2	; 0x02
 dcc:	49 2f       	mov	r20, r25
 dce:	4f 77       	andi	r20, 0x7F	; 127
 dd0:	50 e0       	ldi	r21, 0x00	; 0
 dd2:	99 1f       	adc	r25, r25
 dd4:	99 27       	eor	r25, r25
 dd6:	99 1f       	adc	r25, r25
 dd8:	83 81       	ldd	r24, Z+3	; 0x03
 dda:	e8 2f       	mov	r30, r24
 ddc:	ee 0f       	add	r30, r30
 dde:	e9 2b       	or	r30, r25
 de0:	6e 2f       	mov	r22, r30
 de2:	70 e0       	ldi	r23, 0x00	; 0
 de4:	88 1f       	adc	r24, r24
 de6:	88 27       	eor	r24, r24
 de8:	88 1f       	adc	r24, r24
 dea:	ed 01       	movw	r28, r26
 dec:	89 83       	std	Y+1, r24	; 0x01
 dee:	ee 23       	and	r30, r30
 df0:	71 f5       	brne	.+92     	; 0xe4e <__unpack_f+0x90>
 df2:	21 15       	cp	r18, r1
 df4:	31 05       	cpc	r19, r1
 df6:	41 05       	cpc	r20, r1
 df8:	51 05       	cpc	r21, r1
 dfa:	11 f4       	brne	.+4      	; 0xe00 <__unpack_f+0x42>
 dfc:	82 e0       	ldi	r24, 0x02	; 2
 dfe:	2f c0       	rjmp	.+94     	; 0xe5e <__unpack_f+0xa0>
 e00:	6e 57       	subi	r22, 0x7E	; 126
 e02:	70 40       	sbci	r23, 0x00	; 0
 e04:	fd 01       	movw	r30, r26
 e06:	73 83       	std	Z+3, r23	; 0x03
 e08:	62 83       	std	Z+2, r22	; 0x02
 e0a:	67 e0       	ldi	r22, 0x07	; 7
 e0c:	22 0f       	add	r18, r18
 e0e:	33 1f       	adc	r19, r19
 e10:	44 1f       	adc	r20, r20
 e12:	55 1f       	adc	r21, r21
 e14:	6a 95       	dec	r22
 e16:	d1 f7       	brne	.-12     	; 0xe0c <__unpack_f+0x4e>
 e18:	83 e0       	ldi	r24, 0x03	; 3
 e1a:	8c 93       	st	X, r24
 e1c:	0a c0       	rjmp	.+20     	; 0xe32 <__unpack_f+0x74>
 e1e:	22 0f       	add	r18, r18
 e20:	33 1f       	adc	r19, r19
 e22:	44 1f       	adc	r20, r20
 e24:	55 1f       	adc	r21, r21
 e26:	ed 01       	movw	r28, r26
 e28:	8a 81       	ldd	r24, Y+2	; 0x02
 e2a:	9b 81       	ldd	r25, Y+3	; 0x03
 e2c:	01 97       	sbiw	r24, 0x01	; 1
 e2e:	9b 83       	std	Y+3, r25	; 0x03
 e30:	8a 83       	std	Y+2, r24	; 0x02
 e32:	20 30       	cpi	r18, 0x00	; 0
 e34:	e0 e0       	ldi	r30, 0x00	; 0
 e36:	3e 07       	cpc	r19, r30
 e38:	e0 e0       	ldi	r30, 0x00	; 0
 e3a:	4e 07       	cpc	r20, r30
 e3c:	e0 e4       	ldi	r30, 0x40	; 64
 e3e:	5e 07       	cpc	r21, r30
 e40:	70 f3       	brcs	.-36     	; 0xe1e <__unpack_f+0x60>
 e42:	ed 01       	movw	r28, r26
 e44:	2c 83       	std	Y+4, r18	; 0x04
 e46:	3d 83       	std	Y+5, r19	; 0x05
 e48:	4e 83       	std	Y+6, r20	; 0x06
 e4a:	5f 83       	std	Y+7, r21	; 0x07
 e4c:	25 c0       	rjmp	.+74     	; 0xe98 <__unpack_f+0xda>
 e4e:	ef 3f       	cpi	r30, 0xFF	; 255
 e50:	79 f4       	brne	.+30     	; 0xe70 <__unpack_f+0xb2>
 e52:	21 15       	cp	r18, r1
 e54:	31 05       	cpc	r19, r1
 e56:	41 05       	cpc	r20, r1
 e58:	51 05       	cpc	r21, r1
 e5a:	19 f4       	brne	.+6      	; 0xe62 <__unpack_f+0xa4>
 e5c:	84 e0       	ldi	r24, 0x04	; 4
 e5e:	8c 93       	st	X, r24
 e60:	1b c0       	rjmp	.+54     	; 0xe98 <__unpack_f+0xda>
 e62:	44 ff       	sbrs	r20, 4
 e64:	03 c0       	rjmp	.+6      	; 0xe6c <__unpack_f+0xae>
 e66:	81 e0       	ldi	r24, 0x01	; 1
 e68:	8c 93       	st	X, r24
 e6a:	11 c0       	rjmp	.+34     	; 0xe8e <__unpack_f+0xd0>
 e6c:	1c 92       	st	X, r1
 e6e:	0f c0       	rjmp	.+30     	; 0xe8e <__unpack_f+0xd0>
 e70:	6f 57       	subi	r22, 0x7F	; 127
 e72:	70 40       	sbci	r23, 0x00	; 0
 e74:	ed 01       	movw	r28, r26
 e76:	7b 83       	std	Y+3, r23	; 0x03
 e78:	6a 83       	std	Y+2, r22	; 0x02
 e7a:	83 e0       	ldi	r24, 0x03	; 3
 e7c:	8c 93       	st	X, r24
 e7e:	87 e0       	ldi	r24, 0x07	; 7
 e80:	22 0f       	add	r18, r18
 e82:	33 1f       	adc	r19, r19
 e84:	44 1f       	adc	r20, r20
 e86:	55 1f       	adc	r21, r21
 e88:	8a 95       	dec	r24
 e8a:	d1 f7       	brne	.-12     	; 0xe80 <__unpack_f+0xc2>
 e8c:	50 64       	ori	r21, 0x40	; 64
 e8e:	fd 01       	movw	r30, r26
 e90:	24 83       	std	Z+4, r18	; 0x04
 e92:	35 83       	std	Z+5, r19	; 0x05
 e94:	46 83       	std	Z+6, r20	; 0x06
 e96:	57 83       	std	Z+7, r21	; 0x07
 e98:	df 91       	pop	r29
 e9a:	cf 91       	pop	r28
 e9c:	08 95       	ret

00000e9e <__fpcmp_parts_f>:
 e9e:	cf 93       	push	r28
 ea0:	df 93       	push	r29
 ea2:	dc 01       	movw	r26, r24
 ea4:	fb 01       	movw	r30, r22
 ea6:	9c 91       	ld	r25, X
 ea8:	92 30       	cpi	r25, 0x02	; 2
 eaa:	08 f4       	brcc	.+2      	; 0xeae <__fpcmp_parts_f+0x10>
 eac:	46 c0       	rjmp	.+140    	; 0xf3a <__fpcmp_parts_f+0x9c>
 eae:	80 81       	ld	r24, Z
 eb0:	82 30       	cpi	r24, 0x02	; 2
 eb2:	08 f4       	brcc	.+2      	; 0xeb6 <__fpcmp_parts_f+0x18>
 eb4:	42 c0       	rjmp	.+132    	; 0xf3a <__fpcmp_parts_f+0x9c>
 eb6:	94 30       	cpi	r25, 0x04	; 4
 eb8:	49 f4       	brne	.+18     	; 0xecc <__fpcmp_parts_f+0x2e>
 eba:	ed 01       	movw	r28, r26
 ebc:	69 81       	ldd	r22, Y+1	; 0x01
 ebe:	84 30       	cpi	r24, 0x04	; 4
 ec0:	79 f5       	brne	.+94     	; 0xf20 <__fpcmp_parts_f+0x82>
 ec2:	81 81       	ldd	r24, Z+1	; 0x01
 ec4:	90 e0       	ldi	r25, 0x00	; 0
 ec6:	86 1b       	sub	r24, r22
 ec8:	91 09       	sbc	r25, r1
 eca:	3c c0       	rjmp	.+120    	; 0xf44 <__fpcmp_parts_f+0xa6>
 ecc:	84 30       	cpi	r24, 0x04	; 4
 ece:	21 f0       	breq	.+8      	; 0xed8 <__fpcmp_parts_f+0x3a>
 ed0:	92 30       	cpi	r25, 0x02	; 2
 ed2:	31 f4       	brne	.+12     	; 0xee0 <__fpcmp_parts_f+0x42>
 ed4:	82 30       	cpi	r24, 0x02	; 2
 ed6:	a1 f1       	breq	.+104    	; 0xf40 <__fpcmp_parts_f+0xa2>
 ed8:	81 81       	ldd	r24, Z+1	; 0x01
 eda:	88 23       	and	r24, r24
 edc:	71 f5       	brne	.+92     	; 0xf3a <__fpcmp_parts_f+0x9c>
 ede:	2a c0       	rjmp	.+84     	; 0xf34 <__fpcmp_parts_f+0x96>
 ee0:	ed 01       	movw	r28, r26
 ee2:	69 81       	ldd	r22, Y+1	; 0x01
 ee4:	82 30       	cpi	r24, 0x02	; 2
 ee6:	e1 f0       	breq	.+56     	; 0xf20 <__fpcmp_parts_f+0x82>
 ee8:	81 81       	ldd	r24, Z+1	; 0x01
 eea:	68 17       	cp	r22, r24
 eec:	c9 f4       	brne	.+50     	; 0xf20 <__fpcmp_parts_f+0x82>
 eee:	ed 01       	movw	r28, r26
 ef0:	2a 81       	ldd	r18, Y+2	; 0x02
 ef2:	3b 81       	ldd	r19, Y+3	; 0x03
 ef4:	82 81       	ldd	r24, Z+2	; 0x02
 ef6:	93 81       	ldd	r25, Z+3	; 0x03
 ef8:	82 17       	cp	r24, r18
 efa:	93 07       	cpc	r25, r19
 efc:	8c f0       	brlt	.+34     	; 0xf20 <__fpcmp_parts_f+0x82>
 efe:	28 17       	cp	r18, r24
 f00:	39 07       	cpc	r19, r25
 f02:	b4 f0       	brlt	.+44     	; 0xf30 <__fpcmp_parts_f+0x92>
 f04:	ed 01       	movw	r28, r26
 f06:	8c 81       	ldd	r24, Y+4	; 0x04
 f08:	9d 81       	ldd	r25, Y+5	; 0x05
 f0a:	ae 81       	ldd	r26, Y+6	; 0x06
 f0c:	bf 81       	ldd	r27, Y+7	; 0x07
 f0e:	24 81       	ldd	r18, Z+4	; 0x04
 f10:	35 81       	ldd	r19, Z+5	; 0x05
 f12:	46 81       	ldd	r20, Z+6	; 0x06
 f14:	57 81       	ldd	r21, Z+7	; 0x07
 f16:	28 17       	cp	r18, r24
 f18:	39 07       	cpc	r19, r25
 f1a:	4a 07       	cpc	r20, r26
 f1c:	5b 07       	cpc	r21, r27
 f1e:	18 f4       	brcc	.+6      	; 0xf26 <__fpcmp_parts_f+0x88>
 f20:	66 23       	and	r22, r22
 f22:	41 f4       	brne	.+16     	; 0xf34 <__fpcmp_parts_f+0x96>
 f24:	0a c0       	rjmp	.+20     	; 0xf3a <__fpcmp_parts_f+0x9c>
 f26:	82 17       	cp	r24, r18
 f28:	93 07       	cpc	r25, r19
 f2a:	a4 07       	cpc	r26, r20
 f2c:	b5 07       	cpc	r27, r21
 f2e:	40 f4       	brcc	.+16     	; 0xf40 <__fpcmp_parts_f+0xa2>
 f30:	66 23       	and	r22, r22
 f32:	19 f4       	brne	.+6      	; 0xf3a <__fpcmp_parts_f+0x9c>
 f34:	8f ef       	ldi	r24, 0xFF	; 255
 f36:	9f ef       	ldi	r25, 0xFF	; 255
 f38:	05 c0       	rjmp	.+10     	; 0xf44 <__fpcmp_parts_f+0xa6>
 f3a:	81 e0       	ldi	r24, 0x01	; 1
 f3c:	90 e0       	ldi	r25, 0x00	; 0
 f3e:	02 c0       	rjmp	.+4      	; 0xf44 <__fpcmp_parts_f+0xa6>
 f40:	80 e0       	ldi	r24, 0x00	; 0
 f42:	90 e0       	ldi	r25, 0x00	; 0
 f44:	df 91       	pop	r29
 f46:	cf 91       	pop	r28
 f48:	08 95       	ret

00000f4a <__prologue_saves__>:
 f4a:	2f 92       	push	r2
 f4c:	3f 92       	push	r3
 f4e:	4f 92       	push	r4
 f50:	5f 92       	push	r5
 f52:	6f 92       	push	r6
 f54:	7f 92       	push	r7
 f56:	8f 92       	push	r8
 f58:	9f 92       	push	r9
 f5a:	af 92       	push	r10
 f5c:	bf 92       	push	r11
 f5e:	cf 92       	push	r12
 f60:	df 92       	push	r13
 f62:	ef 92       	push	r14
 f64:	ff 92       	push	r15
 f66:	0f 93       	push	r16
 f68:	1f 93       	push	r17
 f6a:	cf 93       	push	r28
 f6c:	df 93       	push	r29
 f6e:	cd b7       	in	r28, 0x3d	; 61
 f70:	de b7       	in	r29, 0x3e	; 62
 f72:	ca 1b       	sub	r28, r26
 f74:	db 0b       	sbc	r29, r27
 f76:	0f b6       	in	r0, 0x3f	; 63
 f78:	f8 94       	cli
 f7a:	de bf       	out	0x3e, r29	; 62
 f7c:	0f be       	out	0x3f, r0	; 63
 f7e:	cd bf       	out	0x3d, r28	; 61
 f80:	09 94       	ijmp

00000f82 <__epilogue_restores__>:
 f82:	2a 88       	ldd	r2, Y+18	; 0x12
 f84:	39 88       	ldd	r3, Y+17	; 0x11
 f86:	48 88       	ldd	r4, Y+16	; 0x10
 f88:	5f 84       	ldd	r5, Y+15	; 0x0f
 f8a:	6e 84       	ldd	r6, Y+14	; 0x0e
 f8c:	7d 84       	ldd	r7, Y+13	; 0x0d
 f8e:	8c 84       	ldd	r8, Y+12	; 0x0c
 f90:	9b 84       	ldd	r9, Y+11	; 0x0b
 f92:	aa 84       	ldd	r10, Y+10	; 0x0a
 f94:	b9 84       	ldd	r11, Y+9	; 0x09
 f96:	c8 84       	ldd	r12, Y+8	; 0x08
 f98:	df 80       	ldd	r13, Y+7	; 0x07
 f9a:	ee 80       	ldd	r14, Y+6	; 0x06
 f9c:	fd 80       	ldd	r15, Y+5	; 0x05
 f9e:	0c 81       	ldd	r16, Y+4	; 0x04
 fa0:	1b 81       	ldd	r17, Y+3	; 0x03
 fa2:	aa 81       	ldd	r26, Y+2	; 0x02
 fa4:	b9 81       	ldd	r27, Y+1	; 0x01
 fa6:	ce 0f       	add	r28, r30
 fa8:	d1 1d       	adc	r29, r1
 faa:	0f b6       	in	r0, 0x3f	; 63
 fac:	f8 94       	cli
 fae:	de bf       	out	0x3e, r29	; 62
 fb0:	0f be       	out	0x3f, r0	; 63
 fb2:	cd bf       	out	0x3d, r28	; 61
 fb4:	ed 01       	movw	r28, r26
 fb6:	08 95       	ret

00000fb8 <_exit>:
 fb8:	ff cf       	rjmp	.-2      	; 0xfb8 <_exit>
