   1               		.file	"main.c"
   2               	__SREG__ = 0x3f
   3               	__SP_H__ = 0x3e
   4               	__SP_L__ = 0x3d
   5               	__CCP__  = 0x34
   6               	__tmp_reg__ = 0
   7               	__zero_reg__ = 1
  15               	.Ltext0:
  16               		.section	.init3,"ax",@progbits
  17               	.global	get_mcusr
  19               	get_mcusr:
  20               	.LFB14:
  21               	.LSM0:
  22               	/* prologue: naked */
  23               	/* frame size = 0 */
  24               	.LSM1:
  25 0000 14BE      		out 84-32,__zero_reg__
  26               	.LSM2:
  27 0002 88E1      		ldi r24,lo8(24)
  28               	/* #APP */
  29               	 ;  32 "main.c" 1
  30 0004 0FB6      		in __tmp_reg__, __SREG__
  31 0006 F894      		cli
  32 0008 8093 6000 		sts 96, r24
  33 000c 1092 6000 		sts 96, __zero_reg__
  34 0010 0FBE      		out __SREG__,__tmp_reg__
  35               		
  36               	 ;  0 "" 2
  37               	/* epilogue start */
  38               	.LSM3:
  39               	/* #NOAPP */
  40               	.LFE14:
  42               		.data
  43               	.LC0:
  44 0000 0D0A 4D49 		.string	"\r\nMICKBOOT V1.1 Uart"
  44      434B 424F 
  44      4F54 2056 
  44      312E 3120 
  44      5561 7274 
  45               	.LC1:
  46 0015 3300      		.string	"3"
  47               	.LC2:
  48 0017 3200      		.string	"2"
  49               	.LC3:
  50 0019 3100      		.string	"1"
  51               	.LC4:
  52 001b 3000      		.string	"0"
  53               	.LC5:
  54 001d 0D0A 5365 		.string	"\r\nSend Z\r\n"
  54      6E64 205A 
  54      0D0A 00
  55               	.LC6:
  56 0028 0D0A 5365 		.string	"\r\nSend hex file in ASCII\r\n"
  56      6E64 2068 
  56      6578 2066 
  56      696C 6520 
  56      696E 2041 
  57               	.LC7:
  58 0043 5375 6363 		.string	"Success!\r\n"
  58      6573 7321 
  58      0D0A 00
  59               	.LC8:
  60 004e 5469 6D65 		.string	"Timeout waiting for hex data\r\n"
  60      6F75 7420 
  60      7761 6974 
  60      696E 6720 
  60      666F 7220 
  61               	.LC9:
  62 006d 4865 7820 		.string	"Hex file ERROR!\r\n"
  62      6669 6C65 
  62      2045 5252 
  62      4F52 210D 
  62      0A00 
  63               	.LC10:
  64 007f 5469 6D65 		.string	"Timeout waiting for Z\r\n"
  64      6F75 7420 
  64      7761 6974 
  64      696E 6720 
  64      666F 7220 
  65               	.LC11:
  66 0097 5255 4E4E 		.string	"RUNNING\r\n"
  66      494E 470D 
  66      0A00 
  67               		.text
  68               	.global	main
  70               	main:
  71               	.LFB15:
  72               	.LM1:
  73 0000 EF92      		push r14
  74 0002 FF92      		push r15
  75 0004 1F93      		push r17
  76 0006 CF93      		push r28
  77 0008 DF93      		push r29
  78               	/* prologue: function */
  79               	/* frame size = 0 */
  80               	.LM2:
  81 000a 0E94 0000 		call uart_init
  82 000e 8823      		tst r24
  83 0010 01F4      		brne .+2
  84 0012 00C0      		rjmp .L4
  85               	.LM3:
  86 0014 81E0      		ldi r24,lo8(1)
  87 0016 85BF      		out 85-32,r24
  88               	.LM4:
  89 0018 82E0      		ldi r24,lo8(2)
  90 001a 85BF      		out 85-32,r24
  91               	.LM5:
  92               	/* #APP */
  93               	 ;  46 "main.c" 1
  94 001c 7894      		sei
  95               	 ;  0 "" 2
  96               	/* #NOAPP */
  97               	.LBB24:
  98               	.LBB25:
  99               	.LBB26:
 100               	.LBB27:
 101               	.LM6:
 102 001e 80E4      		ldi r24,lo8(-25536)
 103 0020 E82E      		mov r14,r24
 104 0022 8CE9      		ldi r24,hi8(-25536)
 105 0024 F82E      		mov r15,r24
 106               	.LVL0:
 107               	.L26:
 108               	.LBE27:
 109               	.LBE26:
 110               	.LBE25:
 111               	.LBE24:
 112               	.LM7:
 113 0026 80E0      		ldi r24,lo8(.LC0)
 114 0028 90E0      		ldi r25,hi8(.LC0)
 115 002a 0E94 0000 		call uart_write_string
 116               	.LVL1:
 117               	.LM8:
 118 002e 8091 3101 		lds r24,305
 119 0032 84FF      		sbrs r24,4
 120 0034 00C0      		rjmp .L5
 121               	.LM9:
 122 0036 80E0      		ldi r24,lo8(.LC1)
 123 0038 90E0      		ldi r25,hi8(.LC1)
 124 003a 00C0      		rjmp .L34
 125               	.L5:
 126               	.LM10:
 127 003c 8091 D100 		lds r24,209
 128 0040 84FF      		sbrs r24,4
 129 0042 00C0      		rjmp .L7
 130               	.LM11:
 131 0044 80E0      		ldi r24,lo8(.LC2)
 132 0046 90E0      		ldi r25,hi8(.LC2)
 133 0048 00C0      		rjmp .L34
 134               	.L7:
 135               	.LM12:
 136 004a 8091 C900 		lds r24,201
 137 004e 84FF      		sbrs r24,4
 138 0050 00C0      		rjmp .L8
 139               	.LM13:
 140 0052 80E0      		ldi r24,lo8(.LC3)
 141 0054 90E0      		ldi r25,hi8(.LC3)
 142 0056 00C0      		rjmp .L34
 143               	.L8:
 144               	.LM14:
 145 0058 80E0      		ldi r24,lo8(.LC4)
 146 005a 90E0      		ldi r25,hi8(.LC4)
 147               	.L34:
 148 005c 0E94 0000 		call uart_write_string
 149               	.LM15:
 150 0060 80E0      		ldi r24,lo8(.LC5)
 151 0062 90E0      		ldi r25,hi8(.LC5)
 152 0064 0E94 0000 		call uart_write_string
 153               	.L35:
 154 0068 28EB      		ldi r18,lo8(3000)
 155 006a 3BE0      		ldi r19,hi8(3000)
 156               	.LVL2:
 157               	.L33:
 158               	.LM16:
 159 006c 8091 0000 		lds r24,uart_fifo_rx+1
 160               	.LVL3:
 161 0070 8823      		tst r24
 162 0072 01F4      		brne .+2
 163 0074 00C0      		rjmp .L9
 164               	.LM17:
 165 0076 0E94 0000 		call fifo_read_char
 166               	.LVL4:
 167 007a 8A35      		cpi r24,lo8(90)
 168 007c 01F4      		brne .L35
 169               	.LM18:
 170 007e 80E0      		ldi r24,lo8(.LC6)
 171 0080 90E0      		ldi r25,hi8(.LC6)
 172 0082 0E94 0000 		call uart_write_string
 173               	.LM19:
 174 0086 0E94 0000 		call ihex_init
 175 008a C0E7      		ldi r28,lo8(6000)
 176 008c D7E1      		ldi r29,hi8(6000)
 177               	.LVL5:
 178               	.L21:
 179               	.LM20:
 180 008e 8091 0000 		lds r24,uart_fifo_rx+1
 181 0092 8823      		tst r24
 182 0094 01F4      		brne .+2
 183 0096 00C0      		rjmp .L11
 184               	.LM21:
 185 0098 0E94 0000 		call fifo_read_char
 186               	.LVL6:
 187 009c 0E94 0000 		call ihex_char
 188               	.LM22:
 189 00a0 8091 0000 		lds r24,ihex_byte_count
 190 00a4 8823      		tst r24
 191 00a6 01F0      		breq .L12
 192 00a8 C0E0      		ldi r28,lo8(ihex_data)
 193 00aa D0E0      		ldi r29,hi8(ihex_data)
 194               	.LVL7:
 195 00ac 00C0      		rjmp .L13
 196               	.L14:
 197               	.LM23:
 198 00ae 6091 0000 		lds r22,ihex_address
 199 00b2 7091 0000 		lds r23,(ihex_address)+1
 200 00b6 8091 0000 		lds r24,(ihex_address)+2
 201 00ba 9091 0000 		lds r25,(ihex_address)+3
 202 00be 6F5F      		subi r22,lo8(-(1))
 203 00c0 7F4F      		sbci r23,hi8(-(1))
 204 00c2 8F4F      		sbci r24,hlo8(-(1))
 205 00c4 9F4F      		sbci r25,hhi8(-(1))
 206 00c6 6093 0000 		sts ihex_address,r22
 207 00ca 7093 0000 		sts (ihex_address)+1,r23
 208 00ce 8093 0000 		sts (ihex_address)+2,r24
 209 00d2 9093 0000 		sts (ihex_address)+3,r25
 210 00d6 6150      		subi r22,lo8(-(-1))
 211 00d8 7040      		sbci r23,hi8(-(-1))
 212 00da 8040      		sbci r24,hlo8(-(-1))
 213 00dc 9040      		sbci r25,hhi8(-(-1))
 214 00de 4991      		ld r20,Y+
 215 00e0 0E94 0000 		call flash_byte
 216               	.L13:
 217               	.LM24:
 218 00e4 8091 0000 		lds r24,ihex_byte_count
 219 00e8 8150      		subi r24,lo8(-(-1))
 220 00ea 8093 0000 		sts ihex_byte_count,r24
 221 00ee 8F5F      		subi r24,lo8(-(1))
 222 00f0 01F4      		brne .L14
 223               	.LM25:
 224 00f2 1092 0000 		sts ihex_byte_count,__zero_reg__
 225               	.LVL8:
 226               	.L12:
 227               	.LM26:
 228 00f6 8091 0000 		lds r24,ihex_status
 229 00fa 8130      		cpi r24,lo8(1)
 230 00fc 01F0      		breq .+2
 231 00fe 00C0      		rjmp .L15
 232               	.LM27:
 233 0100 0E94 0000 		call flash_finish
 234               	.LM28:
 235 0104 8091 0000 		lds r24,writer_failed
 236 0108 8823      		tst r24
 237 010a 01F0      		breq .+2
 238 010c 00C0      		rjmp .L15
 239               	.LM29:
 240 010e 80E0      		ldi r24,lo8(.LC7)
 241 0110 90E0      		ldi r25,hi8(.LC7)
 242 0112 0E94 0000 		call uart_write_string
 243 0116 11E0      		ldi r17,lo8(1)
 244 0118 00C0      		rjmp .L16
 245               	.LVL9:
 246               	.L11:
 247               	.LM30:
 248 011a 2197      		sbiw r28,1
 249               	.LBB31:
 250               	.LBB32:
 251               	.LBB33:
 252               	.LBB34:
 253               	.LM31:
 254 011c C701      		movw r24,r14
 255               	.LVL10:
 256               	/* #APP */
 257               	 ;  105 "e:/winavr-20100110/lib/gcc/../../avr/include/util/delay_basic.h" 1
 258 011e 0197      		1: sbiw r24,1
 259 0120 01F4      		brne 1b
 260               	 ;  0 "" 2
 261               	/* #NOAPP */
 262               	.LBE34:
 263               	.LBE33:
 264               	.LBE32:
 265               	.LBE31:
 266               	.LM32:
 267 0122 2097      		sbiw r28,0
 268 0124 01F0      		breq .L17
 269 0126 90E0      		ldi r25,lo8(0)
 270 0128 00C0      		rjmp .L36
 271               	.L17:
 272               	.LM33:
 273 012a 80E0      		ldi r24,lo8(.LC8)
 274 012c 90E0      		ldi r25,hi8(.LC8)
 275               	.LVL11:
 276 012e 0E94 0000 		call uart_write_string
 277               	.LVL12:
 278 0132 91E0      		ldi r25,lo8(1)
 279               	.LVL13:
 280               	.L36:
 281 0134 10E0      		ldi r17,lo8(0)
 282               	.L18:
 283               	.LM34:
 284 0136 8091 0000 		lds r24,ihex_status
 285               	.LVL14:
 286 013a 8230      		cpi r24,lo8(2)
 287 013c 01F4      		brne .L19
 288               	.LM35:
 289 013e 80E0      		ldi r24,lo8(.LC9)
 290 0140 90E0      		ldi r25,hi8(.LC9)
 291 0142 0E94 0000 		call uart_write_string
 292               	.LVL15:
 293 0146 00C0      		rjmp .L20
 294               	.LVL16:
 295               	.L19:
 296               	.LM36:
 297 0148 9923      		tst r25
 298 014a 01F0      		breq .+2
 299 014c 00C0      		rjmp .L20
 300 014e 1123      		tst r17
 301 0150 01F4      		brne .+2
 302 0152 00C0      		rjmp .L21
 303 0154 00C0      		rjmp .L22
 304               	.LVL17:
 305               	.L9:
 306               	.LM37:
 307 0156 2150      		subi r18,lo8(-(-1))
 308 0158 3040      		sbci r19,hi8(-(-1))
 309               	.LBB35:
 310               	.LBB30:
 311               	.LBB29:
 312               	.LBB28:
 313               	.LM38:
 314 015a C701      		movw r24,r14
 315               	.LVL18:
 316               	/* #APP */
 317               	 ;  105 "e:/winavr-20100110/lib/gcc/../../avr/include/util/delay_basic.h" 1
 318 015c 0197      		1: sbiw r24,1
 319 015e 01F4      		brne 1b
 320               	 ;  0 "" 2
 321               	/* #NOAPP */
 322               	.LBE28:
 323               	.LBE29:
 324               	.LBE30:
 325               	.LBE35:
 326               	.LM39:
 327 0160 2115      		cp r18,__zero_reg__
 328 0162 3105      		cpc r19,__zero_reg__
 329 0164 01F0      		breq .+2
 330 0166 00C0      		rjmp .L33
 331               	.LM40:
 332 0168 80E0      		ldi r24,lo8(.LC10)
 333 016a 90E0      		ldi r25,hi8(.LC10)
 334               	.LVL19:
 335 016c 0E94 0000 		call uart_write_string
 336               	.LVL20:
 337               	.L22:
 338               	.LM41:
 339 0170 80E0      		ldi r24,lo8(.LC11)
 340 0172 90E0      		ldi r25,hi8(.LC11)
 341 0174 0E94 0000 		call uart_write_string
 342               	.LVL21:
 343 0178 88E8      		ldi r24,lo8(5000)
 344 017a 93E1      		ldi r25,hi8(5000)
 345               	.LVL22:
 346               	.LBB36:
 347               	.LBB37:
 348               	.LBB38:
 349               	.LBB39:
 350               	.LM42:
 351 017c 20E9      		ldi r18,lo8(400)
 352 017e 31E0      		ldi r19,hi8(400)
 353               	.L24:
 354 0180 F901      		movw r30,r18
 355               	.LVL23:
 356               	/* #APP */
 357               	 ;  105 "e:/winavr-20100110/lib/gcc/../../avr/include/util/delay_basic.h" 1
 358 0182 3197      		1: sbiw r30,1
 359 0184 01F4      		brne 1b
 360               	 ;  0 "" 2
 361               	/* #NOAPP */
 362               	.LBE39:
 363               	.LBE38:
 364               	.LM43:
 365 0186 0197      		sbiw r24,1
 366               	.LM44:
 367 0188 01F4      		brne .L24
 368               	.LBE37:
 369               	.LBE36:
 370               	.LM45:
 371               	/* #APP */
 372               	 ;  140 "main.c" 1
 373 018a F894      		cli
 374               	 ;  0 "" 2
 375               	.LM46:
 376               	/* #NOAPP */
 377 018c 81E0      		ldi r24,lo8(1)
 378               	.LVL24:
 379 018e 85BF      		out 85-32,r24
 380               	.LM47:
 381 0190 15BE      		out 85-32,__zero_reg__
 382               	.LM48:
 383 0192 28E0      		ldi r18,lo8(8)
 384 0194 88E1      		ldi r24,lo8(24)
 385 0196 90E0      		ldi r25,hi8(24)
 386               	/* #APP */
 387               	 ;  143 "main.c" 1
 388 0198 0FB6      		in __tmp_reg__,__SREG__
 389 019a F894      		cli
 390 019c A895      		wdr
 391 019e 8093 6000 		sts 96,r24
 392 01a2 0FBE      		out __SREG__,__tmp_reg__
 393 01a4 2093 6000 		sts 96,r18
 394               		
 395               	 ;  0 "" 2
 396               	/* #NOAPP */
 397               	.L25:
 398 01a8 00C0      		rjmp .L25
 399               	.LVL25:
 400               	.L4:
 401               	.LM49:
 402 01aa E091 0000 		lds r30,mainapp
 403 01ae F091 0000 		lds r31,(mainapp)+1
 404 01b2 0995      		icall
 405               	.LM50:
 406 01b4 80E0      		ldi r24,lo8(0)
 407 01b6 90E0      		ldi r25,hi8(0)
 408               	/* epilogue start */
 409 01b8 DF91      		pop r29
 410 01ba CF91      		pop r28
 411 01bc 1F91      		pop r17
 412 01be FF90      		pop r15
 413 01c0 EF90      		pop r14
 414 01c2 0895      		ret
 415               	.LVL26:
 416               	.L15:
 417               	.LM51:
 418 01c4 10E0      		ldi r17,lo8(0)
 419               	.L16:
 420 01c6 90E0      		ldi r25,lo8(0)
 421               	.LVL27:
 422 01c8 C0E7      		ldi r28,lo8(6000)
 423 01ca D7E1      		ldi r29,hi8(6000)
 424               	.LVL28:
 425 01cc 00C0      		rjmp .L18
 426               	.L20:
 427               	.LM52:
 428 01ce 1123      		tst r17
 429 01d0 01F4      		brne .+2
 430 01d2 00C0      		rjmp .L26
 431 01d4 00C0      		rjmp .L22
 432               	.LFE15:
 434               	.global	mainapp
 435               	.global	mainapp
 436               		.section .bss
 439               	mainapp:
 440 0000 0000      		.skip 2,0
 473               	.Letext0:
DEFINED SYMBOLS
                            *ABS*:00000000 main.c
E:\DOCUME~1\Michael\LOCALS~1\Temp/ccqG7cBE.s:2      *ABS*:0000003f __SREG__
E:\DOCUME~1\Michael\LOCALS~1\Temp/ccqG7cBE.s:3      *ABS*:0000003e __SP_H__
E:\DOCUME~1\Michael\LOCALS~1\Temp/ccqG7cBE.s:4      *ABS*:0000003d __SP_L__
E:\DOCUME~1\Michael\LOCALS~1\Temp/ccqG7cBE.s:5      *ABS*:00000034 __CCP__
E:\DOCUME~1\Michael\LOCALS~1\Temp/ccqG7cBE.s:6      *ABS*:00000000 __tmp_reg__
E:\DOCUME~1\Michael\LOCALS~1\Temp/ccqG7cBE.s:7      *ABS*:00000001 __zero_reg__
E:\DOCUME~1\Michael\LOCALS~1\Temp/ccqG7cBE.s:19     .init3:00000000 get_mcusr
E:\DOCUME~1\Michael\LOCALS~1\Temp/ccqG7cBE.s:70     .text:00000000 main
E:\DOCUME~1\Michael\LOCALS~1\Temp/ccqG7cBE.s:439    .bss:00000000 mainapp

UNDEFINED SYMBOLS
uart_init
uart_write_string
uart_fifo_rx
fifo_read_char
ihex_init
ihex_char
ihex_byte_count
ihex_data
ihex_address
flash_byte
ihex_status
flash_finish
writer_failed
__do_copy_data
__do_clear_bss
