
AVRASM ver. 1.52  lcd_test.asm Thu Oct 04 19:26:31 2007


         ;CodeVisionAVR C Compiler V1.24.6 Standard
         ;(C) Copyright 1998-2005 Pavel Haiduc, HP InfoTech s.r.l.
         ;http://www.hpinfotech.com
         ;e-mail:office@hpinfotech.com
         
         ;Chip type              : ATmega162
         ;Program type           : Application
         ;Clock frequency        : 16,000000 MHz
         ;Memory model           : Small
         ;Optimize for           : Size
         ;(s)printf features     : int, width
         ;(s)scanf features      : int, width
         ;External SRAM size     : 0
         ;Data Stack size        : 200 byte(s)
         ;Heap size              : 0 byte(s)
         ;Promote char to int    : No
         ;char is unsigned       : Yes
         ;8 bit enums            : Yes
         ;Word align FLASH struct: No
         ;Enhanced core instructions    : On
         ;Automatic register allocation : On
         
          	.EQU UDRE=0x5
          	.EQU RXC=0x7
          	.EQU USR=0xB
          	.EQU UDR=0xC
          	.EQU SPSR=0xE
          	.EQU SPDR=0xF
          	.EQU EERE=0x0
          	.EQU EEWE=0x1
          	.EQU EEMWE=0x2
          	.EQU EECR=0x1C
          	.EQU EEDR=0x1D
          	.EQU EEARL=0x1E
          	.EQU EEARH=0x1F
          	.EQU WDTCR=0x21
          	.EQU MCUCSR=0x34
          	.EQU MCUCR=0x35
          	.EQU EMCUCR=0x36
          	.EQU GICR=0x3B
          	.EQU SPL=0x3D
          	.EQU SPH=0x3E
          	.EQU SREG=0x3F
         
          	.DEF R0X0=R0
          	.DEF R0X1=R1
          	.DEF R0X2=R2
          	.DEF R0X3=R3
          	.DEF R0X4=R4
          	.DEF R0X5=R5
          	.DEF R0X6=R6
          	.DEF R0X7=R7
          	.DEF R0X8=R8
          	.DEF R0X9=R9
          	.DEF R0XA=R10
          	.DEF R0XB=R11
          	.DEF R0XC=R12
          	.DEF R0XD=R13
          	.DEF R0XE=R14
          	.DEF R0XF=R15
          	.DEF R0X10=R16
          	.DEF R0X11=R17
          	.DEF R0X12=R18
          	.DEF R0X13=R19
          	.DEF R0X14=R20
          	.DEF R0X15=R21
          	.DEF R0X16=R22
          	.DEF R0X17=R23
          	.DEF R0X18=R24
          	.DEF R0X19=R25
          	.DEF R0X1A=R26
          	.DEF R0X1B=R27
          	.DEF R0X1C=R28
          	.DEF R0X1D=R29
          	.DEF R0X1E=R30
          	.DEF R0X1F=R31
         
          	.EQU __se_bit=0x20
         
          	.MACRO __CPD1N
          	CPI  R30,LOW(@0)
          	LDI  R26,HIGH(@0)
          	CPC  R31,R26
          	LDI  R26,BYTE3(@0)
          	CPC  R22,R26
          	LDI  R26,BYTE4(@0)
          	CPC  R23,R26
          	.ENDM
         
          	.MACRO __CPD2N
          	CPI  R26,LOW(@0)
          	LDI  R30,HIGH(@0)
          	CPC  R27,R30
          	LDI  R30,BYTE3(@0)
          	CPC  R24,R30
          	LDI  R30,BYTE4(@0)
          	CPC  R25,R30
          	.ENDM
         
          	.MACRO __CPWRR
          	CP   R@0,R@2
          	CPC  R@1,R@3
          	.ENDM
         
          	.MACRO __CPWRN
          	CPI  R@0,LOW(@2)
          	LDI  R30,HIGH(@2)
          	CPC  R@1,R30
          	.ENDM
         
          	.MACRO __ADDD1N
          	SUBI R30,LOW(-@0)
          	SBCI R31,HIGH(-@0)
          	SBCI R22,BYTE3(-@0)
          	SBCI R23,BYTE4(-@0)
          	.ENDM
         
          	.MACRO __ADDD2N
          	SUBI R26,LOW(-@0)
          	SBCI R27,HIGH(-@0)
          	SBCI R24,BYTE3(-@0)
          	SBCI R25,BYTE4(-@0)
          	.ENDM
         
          	.MACRO __SUBD1N
          	SUBI R30,LOW(@0)
          	SBCI R31,HIGH(@0)
          	SBCI R22,BYTE3(@0)
          	SBCI R23,BYTE4(@0)
          	.ENDM
         
          	.MACRO __SUBD2N
          	SUBI R26,LOW(@0)
          	SBCI R27,HIGH(@0)
          	SBCI R24,BYTE3(@0)
          	SBCI R25,BYTE4(@0)
          	.ENDM
         
          	.MACRO __ANDD1N
          	ANDI R30,LOW(@0)
          	ANDI R31,HIGH(@0)
          	ANDI R22,BYTE3(@0)
          	ANDI R23,BYTE4(@0)
          	.ENDM
         
          	.MACRO __ORD1N
          	ORI  R30,LOW(@0)
          	ORI  R31,HIGH(@0)
          	ORI  R22,BYTE3(@0)
          	ORI  R23,BYTE4(@0)
          	.ENDM
         
          	.MACRO __DELAY_USB
          	LDI  R24,LOW(@0)
          __DELAY_USB_LOOP:
          	DEC  R24
          	BRNE __DELAY_USB_LOOP
          	.ENDM
         
          	.MACRO __DELAY_USW
          	LDI  R24,LOW(@0)
          	LDI  R25,HIGH(@0)
          __DELAY_USW_LOOP:
          	SBIW R24,1
          	BRNE __DELAY_USW_LOOP
          	.ENDM
         
          	.MACRO __CLRD1S
          	LDI  R30,0
          	STD  Y+@0,R30
          	STD  Y+@0+1,R30
          	STD  Y+@0+2,R30
          	STD  Y+@0+3,R30
          	.ENDM
         
          	.MACRO __GETD1S
          	LDD  R30,Y+@0
          	LDD  R31,Y+@0+1
          	LDD  R22,Y+@0+2
          	LDD  R23,Y+@0+3
          	.ENDM
         
          	.MACRO __PUTD1S
          	STD  Y+@0,R30
          	STD  Y+@0+1,R31
          	STD  Y+@0+2,R22
          	STD  Y+@0+3,R23
          	.ENDM
         
          	.MACRO __POINTB1MN
          	LDI  R30,LOW(@0+@1)
          	.ENDM
         
          	.MACRO __POINTW1MN
          	LDI  R30,LOW(@0+@1)
          	LDI  R31,HIGH(@0+@1)
          	.ENDM
         
          	.MACRO __POINTW1FN
          	LDI  R30,LOW(2*@0+@1)
          	LDI  R31,HIGH(2*@0+@1)
          	.ENDM
         
          	.MACRO __POINTB2MN
          	LDI  R26,LOW(@0+@1)
          	.ENDM
         
          	.MACRO __POINTW2MN
          	LDI  R26,LOW(@0+@1)
          	LDI  R27,HIGH(@0+@1)
          	.ENDM
         
          	.MACRO __POINTBRM
          	LDI  R@0,LOW(@1)
          	.ENDM
         
          	.MACRO __POINTWRM
          	LDI  R@0,LOW(@2)
          	LDI  R@1,HIGH(@2)
          	.ENDM
         
          	.MACRO __POINTBRMN
          	LDI  R@0,LOW(@1+@2)
          	.ENDM
         
          	.MACRO __POINTWRMN
          	LDI  R@0,LOW(@2+@3)
          	LDI  R@1,HIGH(@2+@3)
          	.ENDM
         
          	.MACRO __GETD1N
          	LDI  R30,LOW(@0)
          	LDI  R31,HIGH(@0)
          	LDI  R22,BYTE3(@0)
          	LDI  R23,BYTE4(@0)
          	.ENDM
         
          	.MACRO __GETD2N
          	LDI  R26,LOW(@0)
          	LDI  R27,HIGH(@0)
          	LDI  R24,BYTE3(@0)
          	LDI  R25,BYTE4(@0)
          	.ENDM
         
          	.MACRO __GETD2S
          	LDD  R26,Y+@0
          	LDD  R27,Y+@0+1
          	LDD  R24,Y+@0+2
          	LDD  R25,Y+@0+3
          	.ENDM
         
          	.MACRO __GETB1MN
          	LDS  R30,@0+@1
          	.ENDM
         
          	.MACRO __GETW1MN
          	LDS  R30,@0+@1
          	LDS  R31,@0+@1+1
          	.ENDM
         
          	.MACRO __GETD1MN
          	LDS  R30,@0+@1
          	LDS  R31,@0+@1+1
          	LDS  R22,@0+@1+2
          	LDS  R23,@0+@1+3
          	.ENDM
         
          	.MACRO __GETBRMN
          	LDS  R@0,@1+@2
          	.ENDM
         
          	.MACRO __GETWRMN
          	LDS  R@0,@2+@3
          	LDS  R@1,@2+@3+1
          	.ENDM
         
          	.MACRO __GETWRZ
          	LDD  R@0,Z+@2
          	LDD  R@1,Z+@2+1
          	.ENDM
         
          	.MACRO __GETD2Z
          	LDD  R26,Z+@0
          	LDD  R27,Z+@0+1
          	LDD  R24,Z+@0+2
          	LDD  R25,Z+@0+3
          	.ENDM
         
          	.MACRO __GETB2MN
          	LDS  R26,@0+@1
          	.ENDM
         
          	.MACRO __GETW2MN
          	LDS  R26,@0+@1
          	LDS  R27,@0+@1+1
          	.ENDM
         
          	.MACRO __GETD2MN
          	LDS  R26,@0+@1
          	LDS  R27,@0+@1+1
          	LDS  R24,@0+@1+2
          	LDS  R25,@0+@1+3
          	.ENDM
         
          	.MACRO __PUTB1MN
          	STS  @0+@1,R30
          	.ENDM
         
          	.MACRO __PUTW1MN
          	STS  @0+@1,R30
          	STS  @0+@1+1,R31
          	.ENDM
         
          	.MACRO __PUTD1MN
          	STS  @0+@1,R30
          	STS  @0+@1+1,R31
          	STS  @0+@1+2,R22
          	STS  @0+@1+3,R23
          	.ENDM
         
          	.MACRO __PUTDZ2
          	STD  Z+@0,R26
          	STD  Z+@0+1,R27
          	STD  Z+@0+2,R24
          	STD  Z+@0+3,R25
          	.ENDM
         
          	.MACRO __PUTBMRN
          	STS  @0+@1,R@2
          	.ENDM
         
          	.MACRO __PUTWMRN
          	STS  @0+@1,R@2
          	STS  @0+@1+1,R@3
          	.ENDM
         
          	.MACRO __PUTBZR
          	STD  Z+@1,R@0
          	.ENDM
         
          	.MACRO __PUTWZR
          	STD  Z+@2,R@0
          	STD  Z+@2+1,R@1
          	.ENDM
         
          	.MACRO __GETW1R
          	MOV  R30,R@0
          	MOV  R31,R@1
          	.ENDM
         
          	.MACRO __GETW2R
          	MOV  R26,R@0
          	MOV  R27,R@1
          	.ENDM
         
          	.MACRO __GETWRN
          	LDI  R@0,LOW(@2)
          	LDI  R@1,HIGH(@2)
          	.ENDM
         
          	.MACRO __PUTW1R
          	MOV  R@0,R30
          	MOV  R@1,R31
          	.ENDM
         
          	.MACRO __PUTW2R
          	MOV  R@0,R26
          	MOV  R@1,R27
          	.ENDM
         
          	.MACRO __ADDWRN
          	SUBI R@0,LOW(-@2)
          	SBCI R@1,HIGH(-@2)
          	.ENDM
         
          	.MACRO __ADDWRR
          	ADD  R@0,R@2
          	ADC  R@1,R@3
          	.ENDM
         
          	.MACRO __SUBWRN
          	SUBI R@0,LOW(@2)
          	SBCI R@1,HIGH(@2)
          	.ENDM
         
          	.MACRO __SUBWRR
          	SUB  R@0,R@2
          	SBC  R@1,R@3
          	.ENDM
         
          	.MACRO __ANDWRN
          	ANDI R@0,LOW(@2)
          	ANDI R@1,HIGH(@2)
          	.ENDM
         
          	.MACRO __ANDWRR
          	AND  R@0,R@2
          	AND  R@1,R@3
          	.ENDM
         
          	.MACRO __ORWRN
          	ORI  R@0,LOW(@2)
          	ORI  R@1,HIGH(@2)
          	.ENDM
         
          	.MACRO __ORWRR
          	OR   R@0,R@2
          	OR   R@1,R@3
          	.ENDM
         
          	.MACRO __EORWRR
          	EOR  R@0,R@2
          	EOR  R@1,R@3
          	.ENDM
         
          	.MACRO __GETWRS
          	LDD  R@0,Y+@2
          	LDD  R@1,Y+@2+1
          	.ENDM
         
          	.MACRO __PUTWSR
          	STD  Y+@2,R@0
          	STD  Y+@2+1,R@1
          	.ENDM
         
          	.MACRO __MOVEWRR
          	MOV  R@0,R@2
          	MOV  R@1,R@3
          	.ENDM
         
          	.MACRO __INWR
          	IN   R@0,@2
          	IN   R@1,@2+1
          	.ENDM
         
          	.MACRO __OUTWR
          	OUT  @2+1,R@1
          	OUT  @2,R@0
          	.ENDM
         
          	.MACRO __CALL1MN
          	LDS  R30,@0+@1
          	LDS  R31,@0+@1+1
          	ICALL
          	.ENDM
         
         
          	.MACRO __CALL1FN
          	LDI  R30,LOW(2*@0+@1)
          	LDI  R31,HIGH(2*@0+@1)
          	CALL __GETW1PF
          	ICALL
          	.ENDM
         
         
          	.MACRO __CALL2EN
          	LDI  R26,LOW(@0+@1)
          	LDI  R27,HIGH(@0+@1)
          	CALL __EEPROMRDW
          	ICALL
          	.ENDM
         
         
          	.MACRO __GETW1STACK
          	IN   R26,SPL
          	IN   R27,SPH
          	ADIW R26,@0+1
          	LD   R30,X+
          	LD   R31,X
          	.ENDM
         
          	.MACRO __NBST
          	BST  R@0,@1
          	IN   R30,SREG
          	LDI  R31,0x40
          	EOR  R30,R31
          	OUT  SREG,R30
          	.ENDM
         
         
          	.MACRO __PUTB1SN
          	LDD  R26,Y+@0
          	LDD  R27,Y+@0+1
          	SUBI R26,LOW(-@1)
          	SBCI R27,HIGH(-@1)
          	ST   X,R30
          	.ENDM
         
          	.MACRO __PUTW1SN
          	LDD  R26,Y+@0
          	LDD  R27,Y+@0+1
          	SUBI R26,LOW(-@1)
          	SBCI R27,HIGH(-@1)
          	ST   X+,R30
          	ST   X,R31
          	.ENDM
         
          	.MACRO __PUTD1SN
          	LDD  R26,Y+@0
          	LDD  R27,Y+@0+1
          	SUBI R26,LOW(-@1)
          	SBCI R27,HIGH(-@1)
          	CALL __PUTDP1
          	.ENDM
         
          	.MACRO __PUTB1SNS
          	LDD  R26,Y+@0
          	LDD  R27,Y+@0+1
          	ADIW R26,@1
          	ST   X,R30
          	.ENDM
         
          	.MACRO __PUTW1SNS
          	LDD  R26,Y+@0
          	LDD  R27,Y+@0+1
          	ADIW R26,@1
          	ST   X+,R30
          	ST   X,R31
          	.ENDM
         
          	.MACRO __PUTD1SNS
          	LDD  R26,Y+@0
          	LDD  R27,Y+@0+1
          	ADIW R26,@1
          	CALL __PUTDP1
          	.ENDM
         
          	.MACRO __PUTB1PMN
          	LDS  R26,@0
          	LDS  R27,@0+1
          	SUBI R26,LOW(-@1)
          	SBCI R27,HIGH(-@1)
          	ST   X,R30
          	.ENDM
         
          	.MACRO __PUTW1PMN
          	LDS  R26,@0
          	LDS  R27,@0+1
          	SUBI R26,LOW(-@1)
          	SBCI R27,HIGH(-@1)
          	ST   X+,R30
          	ST   X,R31
          	.ENDM
         
          	.MACRO __PUTD1PMN
          	LDS  R26,@0
          	LDS  R27,@0+1
          	SUBI R26,LOW(-@1)
          	SBCI R27,HIGH(-@1)
          	CALL __PUTDP1
          	.ENDM
         
          	.MACRO __PUTB1PMNS
          	LDS  R26,@0
          	LDS  R27,@0+1
          	ADIW R26,@1
          	ST   X,R30
          	.ENDM
         
          	.MACRO __PUTW1PMNS
          	LDS  R26,@0
          	LDS  R27,@0+1
          	ADIW R26,@1
          	ST   X+,R30
          	ST   X,R31
          	.ENDM
         
          	.MACRO __PUTD1PMNS
          	LDS  R26,@0
          	LDS  R27,@0+1
          	ADIW R26,@1
          	CALL __PUTDP1
          	.ENDM
         
          	.MACRO __PUTB1RN
          	MOVW R26,R@0
          	SUBI R26,LOW(-@1)
          	SBCI R27,HIGH(-@1)
          	ST   X,R30
          	.ENDM
         
          	.MACRO __PUTW1RN
          	MOVW R26,R@0
          	SUBI R26,LOW(-@1)
          	SBCI R27,HIGH(-@1)
          	ST   X+,R30
          	ST   X,R31
          	.ENDM
         
          	.MACRO __PUTD1RN
          	MOVW R26,R@0
          	SUBI R26,LOW(-@1)
          	SBCI R27,HIGH(-@1)
          	CALL __PUTDP1
          	.ENDM
         
          	.MACRO __PUTB1RNS
          	MOVW R26,R@0
          	ADIW R26,@1
          	ST   X,R30
          	.ENDM
         
          	.MACRO __PUTW1RNS
          	MOVW R26,R@0
          	ADIW R26,@1
          	ST   X+,R30
          	ST   X,R31
          	.ENDM
         
          	.MACRO __PUTD1RNS
          	MOVW R26,R@0
          	ADIW R26,@1
          	CALL __PUTDP1
          	.ENDM
         
          	.MACRO __PUTB1RON
          	MOV  R26,R@0
          	MOV  R27,R@1
          	SUBI R26,LOW(-@2)
          	SBCI R27,HIGH(-@2)
          	ST   X,R30
          	.ENDM
         
          	.MACRO __PUTW1RON
          	MOV  R26,R@0
          	MOV  R27,R@1
          	SUBI R26,LOW(-@2)
          	SBCI R27,HIGH(-@2)
          	ST   X+,R30
          	ST   X,R31
          	.ENDM
         
          	.MACRO __PUTD1RON
          	MOV  R26,R@0
          	MOV  R27,R@1
          	SUBI R26,LOW(-@2)
          	SBCI R27,HIGH(-@2)
          	CALL __PUTDP1
          	.ENDM
         
          	.MACRO __PUTB1RONS
          	MOV  R26,R@0
          	MOV  R27,R@1
          	ADIW R26,@2
          	ST   X,R30
          	.ENDM
         
          	.MACRO __PUTW1RONS
          	MOV  R26,R@0
          	MOV  R27,R@1
          	ADIW R26,@2
          	ST   X+,R30
          	ST   X,R31
          	.ENDM
         
          	.MACRO __PUTD1RONS
          	MOV  R26,R@0
          	MOV  R27,R@1
          	ADIW R26,@2
          	CALL __PUTDP1
          	.ENDM
         
         
          	.MACRO __GETB1SX
          	MOVW R30,R28
          	SUBI R30,LOW(-@0)
          	SBCI R31,HIGH(-@0)
          	LD   R30,Z
          	.ENDM
         
          	.MACRO __GETW1SX
          	MOVW R30,R28
          	SUBI R30,LOW(-@0)
          	SBCI R31,HIGH(-@0)
          	LD   R0,Z+
          	LD   R31,Z
          	MOV  R30,R0
          	.ENDM
         
          	.MACRO __GETD1SX
          	MOVW R30,R28
          	SUBI R30,LOW(-@0)
          	SBCI R31,HIGH(-@0)
          	LD   R0,Z+
          	LD   R1,Z+
          	LD   R22,Z+
          	LD   R23,Z
          	MOVW R30,R0
          	.ENDM
         
          	.MACRO __GETB2SX
          	MOVW R26,R28
          	SUBI R26,LOW(-@0)
          	SBCI R27,HIGH(-@0)
          	LD   R26,X
          	.ENDM
         
          	.MACRO __GETW2SX
          	MOVW R26,R28
          	SUBI R26,LOW(-@0)
          	SBCI R27,HIGH(-@0)
          	LD   R0,X+
          	LD   R27,X
          	MOV  R26,R0
          	.ENDM
         
          	.MACRO __GETD2SX
          	MOVW R26,R28
          	SUBI R26,LOW(-@0)
          	SBCI R27,HIGH(-@0)
          	LD   R0,X+
          	LD   R1,X+
          	LD   R24,X+
          	LD   R25,X
          	MOVW R26,R0
          	.ENDM
         
          	.MACRO __GETBRSX
          	MOVW R30,R28
          	SUBI R30,LOW(-@1)
          	SBCI R31,HIGH(-@1)
          	LD   R@0,Z
          	.ENDM
         
          	.MACRO __GETWRSX
          	MOVW R30,R28
          	SUBI R30,LOW(-@2)
          	SBCI R31,HIGH(-@2)
          	LD   R@0,Z+
          	LD   R@1,Z
          	.ENDM
         
          	.MACRO __LSLW8SX
          	MOVW R30,R28
          	SUBI R30,LOW(-@0)
          	SBCI R31,HIGH(-@0)
          	LD   R31,Z
          	CLR  R30
          	.ENDM
         
          	.MACRO __PUTB1SX
          	MOVW R26,R28
          	SUBI R26,LOW(-@0)
          	SBCI R27,HIGH(-@0)
          	ST   X,R30
          	.ENDM
         
          	.MACRO __PUTW1SX
          	MOVW R26,R28
          	SUBI R26,LOW(-@0)
          	SBCI R27,HIGH(-@0)
          	ST   X+,R30
          	ST   X,R31
          	.ENDM
         
          	.MACRO __PUTD1SX
          	MOVW R26,R28
          	SUBI R26,LOW(-@0)
          	SBCI R27,HIGH(-@0)
          	ST   X+,R30
          	ST   X+,R31
          	ST   X+,R22
          	ST   X,R23
          	.ENDM
         
          	.MACRO __CLRW1SX
          	MOVW R30,R28
          	SUBI R30,LOW(-@0)
          	SBCI R31,HIGH(-@0)
          	CLR  R0
          	ST   Z+,R0
          	ST   Z,R0
          	.ENDM
         
          	.MACRO __CLRD1SX
          	MOVW R30,R28
          	SUBI R30,LOW(-@0)
          	SBCI R31,HIGH(-@0)
          	CLR  R0
          	ST   Z+,R0
          	ST   Z+,R0
          	ST   Z+,R0
          	ST   Z,R0
          	.ENDM
         
          	.MACRO __PUTB2SX
          	MOVW R30,R28
          	SUBI R30,LOW(-@0)
          	SBCI R31,HIGH(-@0)
          	ST   Z,R26
          	.ENDM
         
          	.MACRO __PUTW2SX
          	MOVW R30,R28
          	SUBI R30,LOW(-@0)
          	SBCI R31,HIGH(-@0)
          	ST   Z+,R26
          	ST   Z,R27
          	.ENDM
         
          	.MACRO __PUTBSRX
          	MOVW R30,R28
          	SUBI R30,LOW(-@0)
          	SBCI R31,HIGH(-@0)
          	ST   Z,R@1
          	.ENDM
         
          	.MACRO __PUTWSRX
          	MOVW R30,R28
          	SUBI R30,LOW(-@2)
          	SBCI R31,HIGH(-@2)
          	ST   Z+,R@0
          	ST   Z,R@1
          	.ENDM
         
          	.MACRO __PUTB1SNX
          	MOVW R26,R28
          	SUBI R26,LOW(-@0)
          	SBCI R27,HIGH(-@0)
          	LD   R0,X+
          	LD   R27,X
          	MOV  R26,R0
          	SUBI R26,LOW(-@1)
          	SBCI R27,HIGH(-@1)
          	ST   X,R30
          	.ENDM
         
          	.MACRO __PUTW1SNX
          	MOVW R26,R28
          	SUBI R26,LOW(-@0)
          	SBCI R27,HIGH(-@0)
          	LD   R0,X+
          	LD   R27,X
          	MOV  R26,R0
          	SUBI R26,LOW(-@1)
          	SBCI R27,HIGH(-@1)
          	ST   X+,R30
          	ST   X,R31
          	.ENDM
         
          	.MACRO __PUTD1SNX
          	MOVW R26,R28
          	SUBI R26,LOW(-@0)
          	SBCI R27,HIGH(-@0)
          	LD   R0,X+
          	LD   R27,X
          	MOV  R26,R0
          	SUBI R26,LOW(-@1)
          	SBCI R27,HIGH(-@1)
          	ST   X+,R30
          	ST   X+,R31
          	ST   X+,R22
          	ST   X,R23
          	.ENDM
         
          	.MACRO __MULBRR
          	MULS R@0,R@1
          	MOV  R30,R0
          	.ENDM
         
          	.MACRO __MULBRRU
          	MUL  R@0,R@1
          	MOV  R30,R0
          	.ENDM
         
          	.CSEG
          	.ORG 0
         
          	.INCLUDE "lcd_test.vec"
         
         ;INTERRUPT VECTORS
000000 940c 0946 	JMP  __RESET
000002 940c 09d1 	JMP  _ext_int0_isr
000004 940c 0000 	JMP  0x00
000006 940c 0000 	JMP  0x00
000008 940c 0000 	JMP  0x00
00000a 940c 0000 	JMP  0x00
00000c 940c 0000 	JMP  0x00
00000e 940c 0000 	JMP  0x00
000010 940c 0000 	JMP  0x00
000012 940c 0000 	JMP  0x00
000014 940c 0000 	JMP  0x00
000016 940c 0000 	JMP  0x00
000018 940c 0000 	JMP  0x00
00001a 940c 0000 	JMP  0x00
00001c 940c 0000 	JMP  0x00
00001e 940c 0000 	JMP  0x00
000020 940c 0000 	JMP  0x00
000022 940c 0000 	JMP  0x00
000024 940c 0000 	JMP  0x00
000026 940c 0000 	JMP  0x00
000028 940c 0000 	JMP  0x00
00002a 940c 0000 	JMP  0x00
00002c 940c 0000 	JMP  0x00
00002e 940c 0000 	JMP  0x00
000030 940c 0000 	JMP  0x00
000032 940c 0000 	JMP  0x00
000034 940c 0000 	JMP  0x00
000036 940c 0000 	JMP  0x00
         
          	.INCLUDE "lcd_test.inc"
          _3:
          	.DB  0x24
000038 0024
          _4:
          	.DB  0x1
000039 0001
          _5:
          	.DB  0xA1
00003a 00a1
          _6:
          	.DB  0x2
00003b 0002
          _7:
          	.DB  0xF0
00003c 00f0
          _8:
          	.DB  0x3
00003d 0003
          _9:
          	.DB  0x3
00003e 0003
          _10:
          	.DB  0x4
00003f 0004
          _11:
          	.DB  0x27
000040 0027
          _12:
          	.DB  0x5
000041 0005
          _13:
          	.DB  0xEF
000042 00ef
          _14:
          	.DB  0x6
000043 0006
          _15:
          	.DB  0x7
000044 0007
          _16:
          	.DB  0x1
000045 0001
          _17:
          	.DB  0x8
000046 0008
          _18:
          	.DB  0x3
000047 0003
          _19:
          	.DB  0x9
000048 0009
          _20:
          	.DB  0x5
000049 0005
          _21:
          	.DB  0xA
00004a 000a
          _22:
          	.DB  0xB
00004b 000b
          _23:
          	.DB  0xB
00004c 000b
          _24:
          	.DB  0xC
00004d 000c
          _25:
          	.DB  0xD
00004e 000d
          _26:
          	.DB  0xE
00004f 000e
          _27:
          	.DB  0xF
000050 000f
          _28:
          	.DB  0x10
000051 0010
          _29:
          	.DB  0x11
000052 0011
          _30:
          	.DB  0x12
000053 0012
          _31:
          	.DB  0xFF
000054 00ff
          _32:
          	.DB  0x13
000055 0013
          _33:
          	.DB  0x3
000056 0003
          _34:
          	.DB  0x18
000057 0018
          _35:
          	.DB  0x19
000058 0019
          _36:
          	.DB  0x1A
000059 001a
          _37:
          	.DB  0x1B
00005a 001b
          _38:
          	.DB  0x1C
00005b 001c
          _39:
          	.DB  0xFF
00005c 00ff
          _FontTable:
          	.DB  0x0,0x0,0x0,0x0,0x0,0x0,0x0,0x0
00005d 0000
00005e 0000
00005f 0000
000060 0000
          	.DB  0x30,0x78,0x78,0x30,0x30,0x0,0x30,0x0
000061 7830
000062 3078
000063 0030
000064 0030
          	.DB  0x6C,0x6C,0x6C,0x0,0x0,0x0,0x0,0x0
000065 6c6c
000066 006c
000067 0000
000068 0000
          	.DB  0x6C,0x6C,0xFE,0x6C,0xFE,0x6C,0x6C,0x0
000069 6c6c
00006a 6cfe
00006b 6cfe
00006c 006c
          	.DB  0x30,0x7C,0xC0,0x78,0xC,0xF8,0x30,0x0
00006d 7c30
00006e 78c0
00006f f80c
000070 0030
          	.DB  0x0,0xC6,0xCC,0x18,0x30,0x66,0xC6,0x0
000071 c600
000072 18cc
000073 6630
000074 00c6
          	.DB  0x38,0x6C,0x38,0x76,0xDC,0xCC,0x76,0x0
000075 6c38
000076 7638
000077 ccdc
000078 0076
          	.DB  0x60,0x60,0xC0,0x0,0x0,0x0,0x0,0x0
000079 6060
00007a 00c0
00007b 0000
00007c 0000
          	.DB  0x18,0x30,0x60,0x60,0x60,0x30,0x18,0x0
00007d 3018
00007e 6060
00007f 3060
000080 0018
          	.DB  0x60,0x30,0x18,0x18,0x18,0x30,0x60,0x0
000081 3060
000082 1818
000083 3018
000084 0060
          	.DB  0x0,0x66,0x3C,0xFF,0x3C,0x66,0x0,0x0
000085 6600
000086 ff3c
000087 663c
000088 0000
          	.DB  0x0,0x30,0x30,0xFC,0x30,0x30,0x0,0x0
000089 3000
00008a fc30
00008b 3030
00008c 0000
          	.DB  0x0,0x0,0x0,0x0,0x0,0x30,0x30,0x60
00008d 0000
00008e 0000
00008f 3000
000090 6030
          	.DB  0x0,0x0,0x0,0xFC,0x0,0x0,0x0,0x0
000091 0000
000092 fc00
000093 0000
000094 0000
          	.DB  0x0,0x0,0x0,0x0,0x0,0x30,0x30,0x0
000095 0000
000096 0000
000097 3000
000098 0030
          	.DB  0x6,0xC,0x18,0x30,0x60,0xC0,0x80,0x0
000099 0c06
00009a 3018
00009b c060
00009c 0080
          	.DB  0x7C,0xC6,0xCE,0xDE,0xF6,0xE6,0x7C,0x0
00009d c67c
00009e dece
00009f e6f6
0000a0 007c
          	.DB  0x30,0x70,0x30,0x30,0x30,0x30,0xFC,0x0
0000a1 7030
0000a2 3030
0000a3 3030
0000a4 00fc
          	.DB  0x78,0xCC,0xC,0x38,0x60,0xCC,0xFC,0x0
0000a5 cc78
0000a6 380c
0000a7 cc60
0000a8 00fc
          	.DB  0x78,0xCC,0xC,0x38,0xC,0xCC,0x78,0x0
0000a9 cc78
0000aa 380c
0000ab cc0c
0000ac 0078
          	.DB  0x1C,0x3C,0x6C,0xCC,0xFE,0xC,0x1E,0x0
0000ad 3c1c
0000ae cc6c
0000af 0cfe
0000b0 001e
          	.DB  0xFC,0xC0,0xF8,0xC,0xC,0xCC,0x78,0x0
0000b1 c0fc
0000b2 0cf8
0000b3 cc0c
0000b4 0078
          	.DB  0x38,0x60,0xC0,0xF8,0xCC,0xCC,0x78,0x0
0000b5 6038
0000b6 f8c0
0000b7 cccc
0000b8 0078
          	.DB  0xFC,0xCC,0xC,0x18,0x30,0x30,0x30,0x0
0000b9 ccfc
0000ba 180c
0000bb 3030
0000bc 0030
          	.DB  0x78,0xCC,0xCC,0x78,0xCC,0xCC,0x78,0x0
0000bd cc78
0000be 78cc
0000bf cccc
0000c0 0078
          	.DB  0x78,0xCC,0xCC,0x7C,0xC,0x18,0x70,0x0
0000c1 cc78
0000c2 7ccc
0000c3 180c
0000c4 0070
          	.DB  0x0,0x30,0x30,0x0,0x0,0x30,0x30,0x0
0000c5 3000
0000c6 0030
0000c7 3000
0000c8 0030
          	.DB  0x0,0x30,0x30,0x0,0x0,0x30,0x30,0x60
0000c9 3000
0000ca 0030
0000cb 3000
0000cc 6030
          	.DB  0x18,0x30,0x60,0xC0,0x60,0x30,0x18,0x0
0000cd 3018
0000ce c060
0000cf 3060
0000d0 0018
          	.DB  0x0,0x0,0xFC,0x0,0x0,0xFC,0x0,0x0
0000d1 0000
0000d2 00fc
0000d3 fc00
0000d4 0000
          	.DB  0x60,0x30,0x18,0xC,0x18,0x30,0x60,0x0
0000d5 3060
0000d6 0c18
0000d7 3018
0000d8 0060
          	.DB  0x78,0xCC,0xC,0x18,0x30,0x0,0x30,0x0
0000d9 cc78
0000da 180c
0000db 0030
0000dc 0030
          	.DB  0x7C,0xC6,0xDE,0xDE,0xDE,0xC0,0x78,0x0
0000dd c67c
0000de dede
0000df c0de
0000e0 0078
          	.DB  0x30,0x78,0xCC,0xCC,0xFC,0xCC,0xCC,0x0
0000e1 7830
0000e2 cccc
0000e3 ccfc
0000e4 00cc
          	.DB  0xFC,0x66,0x66,0x7C,0x66,0x66,0xFC,0x0
0000e5 66fc
0000e6 7c66
0000e7 6666
0000e8 00fc
          	.DB  0x3C,0x66,0xC0,0xC0,0xC0,0x66,0x3C,0x0
0000e9 663c
0000ea c0c0
0000eb 66c0
0000ec 003c
          	.DB  0xF8,0x6C,0x66,0x66,0x66,0x6C,0xF8,0x0
0000ed 6cf8
0000ee 6666
0000ef 6c66
0000f0 00f8
          	.DB  0xFE,0x62,0x68,0x78,0x68,0x62,0xFE,0x0
0000f1 62fe
0000f2 7868
0000f3 6268
0000f4 00fe
          	.DB  0xFE,0x62,0x68,0x78,0x68,0x60,0xF0,0x0
0000f5 62fe
0000f6 7868
0000f7 6068
0000f8 00f0
          	.DB  0x3C,0x66,0xC0,0xC0,0xCE,0x66,0x3E,0x0
0000f9 663c
0000fa c0c0
0000fb 66ce
0000fc 003e
          	.DB  0xCC,0xCC,0xCC,0xFC,0xCC,0xCC,0xCC,0x0
0000fd cccc
0000fe fccc
0000ff cccc
000100 00cc
          	.DB  0x78,0x30,0x30,0x30,0x30,0x30,0x78,0x0
000101 3078
000102 3030
000103 3030
000104 0078
          	.DB  0x1E,0xC,0xC,0xC,0xCC,0xCC,0x78,0x0
000105 0c1e
000106 0c0c
000107 cccc
000108 0078
          	.DB  0xE6,0x66,0x6C,0x78,0x6C,0x66,0xE6,0x0
000109 66e6
00010a 786c
00010b 666c
00010c 00e6
          	.DB  0xF0,0x60,0x60,0x60,0x62,0x66,0xFE,0x0
00010d 60f0
00010e 6060
00010f 6662
000110 00fe
          	.DB  0xC6,0xEE,0xFE,0xFE,0xD6,0xC6,0xC6,0x0
000111 eec6
000112 fefe
000113 c6d6
000114 00c6
          	.DB  0xC6,0xE6,0xF6,0xDE,0xCE,0xC6,0xC6,0x0
000115 e6c6
000116 def6
000117 c6ce
000118 00c6
          	.DB  0x38,0x6C,0xC6,0xC6,0xC6,0x6C,0x38,0x0
000119 6c38
00011a c6c6
00011b 6cc6
00011c 0038
          	.DB  0xFC,0x66,0x66,0x7C,0x60,0x60,0xF0,0x0
00011d 66fc
00011e 7c66
00011f 6060
000120 00f0
          	.DB  0x78,0xCC,0xCC,0xCC,0xDC,0x78,0x1C,0x0
000121 cc78
000122 cccc
000123 78dc
000124 001c
          	.DB  0xFC,0x66,0x66,0x7C,0x6C,0x66,0xE6,0x0
000125 66fc
000126 7c66
000127 666c
000128 00e6
          	.DB  0x78,0xCC,0xE0,0x70,0x1C,0xCC,0x78,0x0
000129 cc78
00012a 70e0
00012b cc1c
00012c 0078
          	.DB  0xFC,0xB4,0x30,0x30,0x30,0x30,0x78,0x0
00012d b4fc
00012e 3030
00012f 3030
000130 0078
          	.DB  0xCC,0xCC,0xCC,0xCC,0xCC,0xCC,0xFC,0x0
000131 cccc
000132 cccc
000133 cccc
000134 00fc
          	.DB  0xCC,0xCC,0xCC,0xCC,0xCC,0x78,0x30,0x0
000135 cccc
000136 cccc
000137 78cc
000138 0030
          	.DB  0xC6,0xC6,0xC6,0xD6,0xFE,0xEE,0xC6,0x0
000139 c6c6
00013a d6c6
00013b eefe
00013c 00c6
          	.DB  0xC6,0xC6,0x6C,0x38,0x38,0x6C,0xC6,0x0
00013d c6c6
00013e 386c
00013f 6c38
000140 00c6
          	.DB  0xCC,0xCC,0xCC,0x78,0x30,0x30,0x78,0x0
000141 cccc
000142 78cc
000143 3030
000144 0078
          	.DB  0xFE,0xC6,0x8C,0x18,0x32,0x66,0xFE,0x0
000145 c6fe
000146 188c
000147 6632
000148 00fe
          	.DB  0x78,0x60,0x60,0x60,0x60,0x60,0x78,0x0
000149 6078
00014a 6060
00014b 6060
00014c 0078
          	.DB  0xC0,0x60,0x30,0x18,0xC,0x6,0x2,0x0
00014d 60c0
00014e 1830
00014f 060c
000150 0002
          	.DB  0x78,0x18,0x18,0x18,0x18,0x18,0x78,0x0
000151 1878
000152 1818
000153 1818
000154 0078
          	.DB  0x10,0x38,0x6C,0xC6,0x0,0x0,0x0,0x0
000155 3810
000156 c66c
000157 0000
000158 0000
          	.DB  0x0,0x0,0x0,0x0,0x0,0x0,0x0,0xFF
000159 0000
00015a 0000
00015b 0000
00015c ff00
          	.DB  0x30,0x30,0x18,0x0,0x0,0x0,0x0,0x0
00015d 3030
00015e 0018
00015f 0000
000160 0000
          	.DB  0x0,0x0,0x78,0xC,0x7C,0xCC,0x76,0x0
000161 0000
000162 0c78
000163 cc7c
000164 0076
          	.DB  0xE0,0x60,0x60,0x7C,0x66,0x66,0xDC,0x0
000165 60e0
000166 7c60
000167 6666
000168 00dc
          	.DB  0x0,0x0,0x78,0xCC,0xC0,0xCC,0x78,0x0
000169 0000
00016a cc78
00016b ccc0
00016c 0078
          	.DB  0x1C,0xC,0xC,0x7C,0xCC,0xCC,0x76,0x0
00016d 0c1c
00016e 7c0c
00016f cccc
000170 0076
          	.DB  0x0,0x0,0x78,0xCC,0xFC,0xC0,0x78,0x0
000171 0000
000172 cc78
000173 c0fc
000174 0078
          	.DB  0x38,0x6C,0x60,0xF0,0x60,0x60,0xF0,0x0
000175 6c38
000176 f060
000177 6060
000178 00f0
          	.DB  0x0,0x0,0x76,0xCC,0xCC,0x7C,0xC,0xF8
000179 0000
00017a cc76
00017b 7ccc
00017c f80c
          	.DB  0xE0,0x60,0x6C,0x76,0x66,0x66,0xE6,0x0
00017d 60e0
00017e 766c
00017f 6666
000180 00e6
          	.DB  0x30,0x0,0x70,0x30,0x30,0x30,0x78,0x0
000181 0030
000182 3070
000183 3030
000184 0078
          	.DB  0xC,0x0,0xC,0xC,0xC,0xCC,0xCC,0x78
000185 000c
000186 0c0c
000187 cc0c
000188 78cc
          	.DB  0xE0,0x60,0x66,0x6C,0x78,0x6C,0xE6,0x0
000189 60e0
00018a 6c66
00018b 6c78
00018c 00e6
          	.DB  0x70,0x30,0x30,0x30,0x30,0x30,0x78,0x0
00018d 3070
00018e 3030
00018f 3030
000190 0078
          	.DB  0x0,0x0,0xCC,0xFE,0xFE,0xD6,0xC6,0x0
000191 0000
000192 fecc
000193 d6fe
000194 00c6
          	.DB  0x0,0x0,0xF8,0xCC,0xCC,0xCC,0xCC,0x0
000195 0000
000196 ccf8
000197 cccc
000198 00cc
          	.DB  0x0,0x0,0x78,0xCC,0xCC,0xCC,0x78,0x0
000199 0000
00019a cc78
00019b cccc
00019c 0078
          	.DB  0x0,0x0,0xDC,0x66,0x66,0x7C,0x60,0xF0
00019d 0000
00019e 66dc
00019f 7c66
0001a0 f060
          	.DB  0x0,0x0,0x76,0xCC,0xCC,0x7C,0xC,0x1E
0001a1 0000
0001a2 cc76
0001a3 7ccc
0001a4 1e0c
          	.DB  0x0,0x0,0xDC,0x76,0x66,0x60,0xF0,0x0
0001a5 0000
0001a6 76dc
0001a7 6066
0001a8 00f0
          	.DB  0x0,0x0,0x7C,0xC0,0x78,0xC,0xF8,0x0
0001a9 0000
0001aa c07c
0001ab 0c78
0001ac 00f8
          	.DB  0x10,0x30,0x7C,0x30,0x30,0x34,0x18,0x0
0001ad 3010
0001ae 307c
0001af 3430
0001b0 0018
          	.DB  0x0,0x0,0xCC,0xCC,0xCC,0xCC,0x76,0x0
0001b1 0000
0001b2 cccc
0001b3 cccc
0001b4 0076
          	.DB  0x0,0x0,0xCC,0xCC,0xCC,0x78,0x30,0x0
0001b5 0000
0001b6 cccc
0001b7 78cc
0001b8 0030
          	.DB  0x0,0x0,0xC6,0xD6,0xFE,0xFE,0x6C,0x0
0001b9 0000
0001ba d6c6
0001bb fefe
0001bc 006c
          	.DB  0x0,0x0,0xC6,0x6C,0x38,0x6C,0xC6,0x0
0001bd 0000
0001be 6cc6
0001bf 6c38
0001c0 00c6
          	.DB  0x0,0x0,0xCC,0xCC,0xCC,0x7C,0xC,0xF8
0001c1 0000
0001c2 cccc
0001c3 7ccc
0001c4 f80c
          	.DB  0x0,0x0,0xFC,0x98,0x30,0x64,0xFC,0x0
0001c5 0000
0001c6 98fc
0001c7 6430
0001c8 00fc
          	.DB  0x1C,0x30,0x30,0xE0,0x30,0x30,0x1C,0x0
0001c9 301c
0001ca e030
0001cb 3030
0001cc 001c
          	.DB  0x18,0x18,0x18,0x0,0x18,0x18,0x18,0x0
0001cd 1818
0001ce 0018
0001cf 1818
0001d0 0018
          	.DB  0xE0,0x30,0x30,0x1C,0x30,0x30,0xE0,0x0
0001d1 30e0
0001d2 1c30
0001d3 3030
0001d4 00e0
          	.DB  0x76,0xDC,0x0,0x0,0x0,0x0,0x0,0x0
0001d5 dc76
0001d6 0000
0001d7 0000
0001d8 0000
          	.DB  0x0,0x10,0x38,0x6C,0xC6,0xC6,0xFE,0x0
0001d9 1000
0001da 6c38
0001db c6c6
0001dc 00fe
          	.DB  0xFF,0xFF,0xFF,0xFF,0xFF,0xFF,0xFF,0xFF
0001dd ffff
0001de ffff
0001df ffff
0001e0 ffff
          	.DEF _Xbak_S2=R4
          	.DEF _Ybak_S2=R6
          _67:
          	.DB  0x24
0001e1 0024
          _68:
          	.DB  0x1
0001e2 0001
          _69:
          	.DB  0xA1
0001e3 00a1
          _70:
          	.DB  0x2
0001e4 0002
          _71:
          	.DB  0xF0
0001e5 00f0
          _72:
          	.DB  0x3
0001e6 0003
          _73:
          	.DB  0x3
0001e7 0003
          _74:
          	.DB  0x4
0001e8 0004
          _75:
          	.DB  0x27
0001e9 0027
          _76:
          	.DB  0x5
0001ea 0005
          _77:
          	.DB  0xEF
0001eb 00ef
          _78:
          	.DB  0x6
0001ec 0006
          _79:
          	.DB  0x7
0001ed 0007
          _80:
          	.DB  0x1
0001ee 0001
          _81:
          	.DB  0x8
0001ef 0008
          _82:
          	.DB  0x3
0001f0 0003
          _83:
          	.DB  0x9
0001f1 0009
          _84:
          	.DB  0x5
0001f2 0005
          _85:
          	.DB  0xA
0001f3 000a
          _86:
          	.DB  0xB
0001f4 000b
          _87:
          	.DB  0xB
0001f5 000b
          _88:
          	.DB  0xC
0001f6 000c
          _89:
          	.DB  0xD
0001f7 000d
          _90:
          	.DB  0xE
0001f8 000e
          _91:
          	.DB  0xF
0001f9 000f
          _92:
          	.DB  0x10
0001fa 0010
          _93:
          	.DB  0x11
0001fb 0011
          _94:
          	.DB  0x12
0001fc 0012
          _95:
          	.DB  0xFF
0001fd 00ff
          _96:
          	.DB  0x13
0001fe 0013
          _97:
          	.DB  0x3
0001ff 0003
          _98:
          	.DB  0x18
000200 0018
          _99:
          	.DB  0x19
000201 0019
          _100:
          	.DB  0x1A
000202 001a
          _101:
          	.DB  0x1B
000203 001b
          _102:
          	.DB  0x1C
000204 001c
          _103:
          	.DB  0xFF
000205 00ff
          _LUT_16:
          	.DB  0x0,0x0,0x0,0x0,0x0,0xA0,0x0,0xA0
000206 0000
000207 0000
000208 a000
000209 a000
          	.DB  0x0,0x0,0xA0,0xA0,0xA0,0x0,0x0,0xA0
00020a 0000
00020b a0a0
00020c 00a0
00020d a000
          	.DB  0x0,0xA0,0xA0,0xA0,0x0,0xA0,0xA0,0xA0
00020e a000
00020f a0a0
000210 a000
000211 a0a0
          	.DB  0x0,0x0,0x0,0x0,0x0,0xF0,0x0,0xF0
000212 0000
000213 0000
000214 f000
000215 f000
          	.DB  0x0,0x0,0xF0,0xF0,0xF0,0x0,0x0,0xF0
000216 0000
000217 f0f0
000218 00f0
000219 f000
          	.DB  0x0,0xF0,0xF0,0xF0,0x0,0xF0,0xF0,0xF0
00021a f000
00021b f0f0
00021c f000
00021d f0f0
          _LUT_256:
          	.DB  0x0,0x0,0x0,0x0,0x0,0xA0,0x0,0xA0
00021e 0000
00021f 0000
000220 a000
000221 a000
          	.DB  0x0,0x0,0xA0,0xA0,0xA0,0x0,0x0,0xA0
000222 0000
000223 a0a0
000224 00a0
000225 a000
          	.DB  0x0,0xA0,0xA0,0xA0,0x0,0xA0,0xA0,0xA0
000226 a000
000227 a0a0
000228 a000
000229 a0a0
          	.DB  0x50,0x50,0x50,0x0,0x0,0xF0,0x0,0xF0
00022a 5050
00022b 0050
00022c f000
00022d f000
          	.DB  0x0,0x0,0xF0,0xF0,0xF0,0x0,0x0,0xF0
00022e 0000
00022f f0f0
000230 00f0
000231 f000
          	.DB  0x0,0xF0,0xF0,0xF0,0x0,0xF0,0xF0,0xF0
000232 f000
000233 f0f0
000234 f000
000235 f0f0
          	.DB  0x0,0x0,0x0,0x10,0x10,0x10,0x20,0x20
000236 0000
000237 1000
000238 1010
000239 2020
          	.DB  0x20,0x30,0x30,0x30,0x40,0x40,0x40,0x50
00023a 3020
00023b 3030
00023c 4040
00023d 5040
          	.DB  0x50,0x50,0x60,0x60,0x60,0x70,0x70,0x70
00023e 5050
00023f 6060
000240 7060
000241 7070
          	.DB  0x80,0x80,0x80,0x90,0x90,0x90,0xA0,0xA0
000242 8080
000243 9080
000244 9090
000245 a0a0
          	.DB  0xA0,0xB0,0xB0,0xB0,0xC0,0xC0,0xC0,0xD0
000246 b0a0
000247 b0b0
000248 c0c0
000249 d0c0
          	.DB  0xD0,0xD0,0xE0,0xE0,0xE0,0xF0,0xF0,0xF0
00024a d0d0
00024b e0e0
00024c f0e0
00024d f0f0
          	.DB  0x0,0x0,0x0,0x10,0x0,0x0,0x20,0x0
00024e 0000
00024f 1000
000250 0000
000251 0020
          	.DB  0x0,0x30,0x0,0x0,0x40,0x0,0x0,0x50
000252 3000
000253 0000
000254 0040
000255 5000
          	.DB  0x0,0x0,0x60,0x0,0x0,0x70,0x0,0x0
000256 0000
000257 0060
000258 7000
000259 0000
          	.DB  0x80,0x0,0x0,0x90,0x0,0x0,0xA0,0x0
00025a 0080
00025b 9000
00025c 0000
00025d 00a0
          	.DB  0x0,0xB0,0x0,0x0,0xC0,0x0,0x0,0xD0
00025e b000
00025f 0000
000260 00c0
000261 d000
          	.DB  0x0,0x0,0xE0,0x0,0x0,0xF0,0x0,0x0
000262 0000
000263 00e0
000264 f000
000265 0000
          	.DB  0x0,0x0,0x0,0x0,0x10,0x0,0x0,0x20
000266 0000
000267 0000
000268 0010
000269 2000
          	.DB  0x0,0x0,0x30,0x0,0x0,0x40,0x0,0x0
00026a 0000
00026b 0030
00026c 4000
00026d 0000
          	.DB  0x50,0x0,0x0,0x60,0x0,0x0,0x70,0x0
00026e 0050
00026f 6000
000270 0000
000271 0070
          	.DB  0x0,0x80,0x0,0x0,0x90,0x0,0x0,0xA0
000272 8000
000273 0000
000274 0090
000275 a000
          	.DB  0x0,0x0,0xB0,0x0,0x0,0xC0,0x0,0x0
000276 0000
000277 00b0
000278 c000
000279 0000
          	.DB  0xD0,0x0,0x0,0xE0,0x0,0x0,0xF0,0x0
00027a 00d0
00027b e000
00027c 0000
00027d 00f0
          	.DB  0x0,0x0,0x0,0x0,0x0,0x10,0x0,0x0
00027e 0000
00027f 0000
000280 1000
000281 0000
          	.DB  0x20,0x0,0x0,0x30,0x0,0x0,0x40,0x0
000282 0020
000283 3000
000284 0000
000285 0040
          	.DB  0x0,0x50,0x0,0x0,0x60,0x0,0x0,0x70
000286 5000
000287 0000
000288 0060
000289 7000
          	.DB  0x0,0x0,0x80,0x0,0x0,0x90,0x0,0x0
00028a 0000
00028b 0080
00028c 9000
00028d 0000
          	.DB  0xA0,0x0,0x0,0xB0,0x0,0x0,0xC0,0x0
00028e 00a0
00028f b000
000290 0000
000291 00c0
          	.DB  0x0,0xD0,0x0,0x0,0xE0,0x0,0x0,0xF0
000292 d000
000293 0000
000294 00e0
000295 f000
          	.DB  0x0,0x0,0xF0,0x0,0x10,0xF0,0x0,0x20
000296 0000
000297 00f0
000298 f010
000299 2000
          	.DB  0xF0,0x0,0x30,0xF0,0x0,0x40,0xF0,0x0
00029a 00f0
00029b f030
00029c 4000
00029d 00f0
          	.DB  0x50,0xF0,0x0,0x60,0xF0,0x0,0x70,0xF0
00029e f050
00029f 6000
0002a0 00f0
0002a1 f070
          	.DB  0x0,0x80,0xF0,0x0,0x90,0xF0,0x0,0xA0
0002a2 8000
0002a3 00f0
0002a4 f090
0002a5 a000
          	.DB  0xF0,0x0,0xB0,0xF0,0x0,0xC0,0xF0,0x0
0002a6 00f0
0002a7 f0b0
0002a8 c000
0002a9 00f0
          	.DB  0xD0,0xF0,0x0,0xE0,0xF0,0x0,0xF0,0xF0
0002aa f0d0
0002ab e000
0002ac 00f0
0002ad f0f0
          	.DB  0x0,0xF0,0xF0,0x0,0xF0,0xE0,0x0,0xF0
0002ae f000
0002af 00f0
0002b0 e0f0
0002b1 f000
          	.DB  0xD0,0x0,0xF0,0xC0,0x0,0xF0,0xB0,0x0
0002b2 00d0
0002b3 c0f0
0002b4 f000
0002b5 00b0
          	.DB  0xF0,0xA0,0x0,0xF0,0x90,0x0,0xF0,0x80
0002b6 a0f0
0002b7 f000
0002b8 0090
0002b9 80f0
          	.DB  0x0,0xF0,0x70,0x0,0xF0,0x60,0x0,0xF0
0002ba f000
0002bb 0070
0002bc 60f0
0002bd f000
          	.DB  0x50,0x0,0xF0,0x40,0x0,0xF0,0x30,0x0
0002be 0050
0002bf 40f0
0002c0 f000
0002c1 0030
          	.DB  0xF0,0x20,0x0,0xF0,0x10,0x0,0xF0,0x0
0002c2 20f0
0002c3 f000
0002c4 0010
0002c5 00f0
          	.DB  0x0,0xF0,0x0,0x10,0xF0,0x0,0x20,0xF0
0002c6 f000
0002c7 1000
0002c8 00f0
0002c9 f020
          	.DB  0x0,0x30,0xF0,0x0,0x40,0xF0,0x0,0x50
0002ca 3000
0002cb 00f0
0002cc f040
0002cd 5000
          	.DB  0xF0,0x0,0x60,0xF0,0x0,0x70,0xF0,0x0
0002ce 00f0
0002cf f060
0002d0 7000
0002d1 00f0
          	.DB  0x80,0xF0,0x0,0x90,0xF0,0x0,0xA0,0xF0
0002d2 f080
0002d3 9000
0002d4 00f0
0002d5 f0a0
          	.DB  0x0,0xB0,0xF0,0x0,0xC0,0xF0,0x0,0xD0
0002d6 b000
0002d7 00f0
0002d8 f0c0
0002d9 d000
          	.DB  0xF0,0x0,0xE0,0xF0,0x0,0xF0,0xF0,0x0
0002da 00f0
0002db f0e0
0002dc f000
0002dd 00f0
          	.DB  0xF0,0xF0,0x0,0xF0,0xE0,0x0,0xF0,0xD0
0002de f0f0
0002df f000
0002e0 00e0
0002e1 d0f0
          	.DB  0x0,0xF0,0xC0,0x0,0xF0,0xB0,0x0,0xF0
0002e2 f000
0002e3 00c0
0002e4 b0f0
0002e5 f000
          	.DB  0xA0,0x0,0xF0,0x90,0x0,0xF0,0x80,0x0
0002e6 00a0
0002e7 90f0
0002e8 f000
0002e9 0080
          	.DB  0xF0,0x70,0x0,0xF0,0x60,0x0,0xF0,0x50
0002ea 70f0
0002eb f000
0002ec 0060
0002ed 50f0
          	.DB  0x0,0xF0,0x40,0x0,0xF0,0x30,0x0,0xF0
0002ee f000
0002ef 0040
0002f0 30f0
0002f1 f000
          	.DB  0x20,0x0,0xF0,0x10,0x0,0xF0,0x0,0x0
0002f2 0020
0002f3 10f0
0002f4 f000
0002f5 0000
          	.DB  0xF0,0x0,0x0,0xF0,0x0,0x10,0xF0,0x0
0002f6 00f0
0002f7 f000
0002f8 1000
0002f9 00f0
          	.DB  0x20,0xF0,0x0,0x30,0xF0,0x0,0x40,0xF0
0002fa f020
0002fb 3000
0002fc 00f0
0002fd f040
          	.DB  0x0,0x50,0xF0,0x0,0x60,0xF0,0x0,0x70
0002fe 5000
0002ff 00f0
000300 f060
000301 7000
          	.DB  0xF0,0x0,0x80,0xF0,0x0,0x90,0xF0,0x0
000302 00f0
000303 f080
000304 9000
000305 00f0
          	.DB  0xA0,0xF0,0x0,0xB0,0xF0,0x0,0xC0,0xF0
000306 f0a0
000307 b000
000308 00f0
000309 f0c0
          	.DB  0x0,0xD0,0xF0,0x0,0xE0,0xF0,0x0,0xF0
00030a d000
00030b 00f0
00030c f0e0
00030d f000
          	.DB  0xF0,0x0,0xF0,0xE0,0x0,0xF0,0xD0,0x0
00030e 00f0
00030f e0f0
000310 f000
000311 00d0
          	.DB  0xF0,0xC0,0x0,0xF0,0xB0,0x0,0xF0,0xA0
000312 c0f0
000313 f000
000314 00b0
000315 a0f0
          	.DB  0x0,0xF0,0x90,0x0,0xF0,0x80,0x0,0xF0
000316 f000
000317 0090
000318 80f0
000319 f000
          	.DB  0x70,0x0,0xF0,0x60,0x0,0xF0,0x50,0x0
00031a 0070
00031b 60f0
00031c f000
00031d 0050
          	.DB  0xF0,0x40,0x0,0xF0,0x30,0x0,0xF0,0x20
00031e 40f0
00031f f000
000320 0030
000321 20f0
          	.DB  0x0,0xF0,0x10,0x0,0xF0,0x0,0x0,0xF0
000322 f000
000323 0010
000324 00f0
000325 f000
          	.DB  0x0,0x0,0x0,0x10,0x0,0x10,0x20,0x0
000326 0000
000327 1000
000328 1000
000329 0020
          	.DB  0x20,0x30,0x0,0x30,0x40,0x0,0x40,0x50
00032a 3020
00032b 3000
00032c 0040
00032d 5040
          	.DB  0x0,0x50,0x60,0x0,0x60,0x70,0x0,0x70
00032e 5000
00032f 0060
000330 7060
000331 7000
          	.DB  0x80,0x0,0x80,0x90,0x0,0x90,0xA0,0x0
000332 0080
000333 9080
000334 9000
000335 00a0
          	.DB  0xA0,0xB0,0x0,0xB0,0xC0,0x0,0xC0,0xD0
000336 b0a0
000337 b000
000338 00c0
000339 d0c0
          	.DB  0x0,0xD0,0xE0,0x0,0xE0,0xF0,0x0,0xF0
00033a d000
00033b 00e0
00033c f0e0
00033d f000
          	.DB  0x0,0x0,0x0,0x0,0x10,0x10,0x0,0x20
00033e 0000
00033f 0000
000340 1010
000341 2000
          	.DB  0x20,0x0,0x30,0x30,0x0,0x40,0x40,0x0
000342 0020
000343 3030
000344 4000
000345 0040
          	.DB  0x50,0x50,0x0,0x60,0x60,0x0,0x70,0x70
000346 5050
000347 6000
000348 0060
000349 7070
          	.DB  0x0,0x80,0x80,0x0,0x90,0x90,0x0,0xA0
00034a 8000
00034b 0080
00034c 9090
00034d a000
          	.DB  0xA0,0x0,0xB0,0xB0,0x0,0xC0,0xC0,0x0
00034e 00a0
00034f b0b0
000350 c000
000351 00c0
          	.DB  0xD0,0xD0,0x0,0xE0,0xE0,0x0,0xF0,0xF0
000352 d0d0
000353 e000
000354 00e0
000355 f0f0
          	.DB  0xF0,0x0,0x0,0xF0,0x10,0x10,0xF0,0x20
000356 00f0
000357 f000
000358 1010
000359 20f0
          	.DB  0x20,0xF0,0x30,0x30,0xF0,0x40,0x40,0xF0
00035a f020
00035b 3030
00035c 40f0
00035d f040
          	.DB  0x50,0x50,0xF0,0x60,0x60,0xF0,0x70,0x70
00035e 5050
00035f 60f0
000360 f060
000361 7070
          	.DB  0xF0,0x80,0x80,0xF0,0x90,0x90,0xF0,0xA0
000362 80f0
000363 f080
000364 9090
000365 a0f0
          	.DB  0xA0,0xF0,0xB0,0xB0,0xF0,0xC0,0xC0,0xF0
000366 f0a0
000367 b0b0
000368 c0f0
000369 f0c0
          	.DB  0xD0,0xD0,0xF0,0xE0,0xE0,0xF0,0xF0,0xF0
00036a d0d0
00036b e0f0
00036c f0e0
00036d f0f0
          	.DB  0x0,0xF0,0x0,0x10,0xF0,0x10,0x20,0xF0
00036e f000
00036f 1000
000370 10f0
000371 f020
          	.DB  0x20,0x30,0xF0,0x30,0x40,0xF0,0x40,0x50
000372 3020
000373 30f0
000374 f040
000375 5040
          	.DB  0xF0,0x50,0x60,0xF0,0x60,0x70,0xF0,0x70
000376 50f0
000377 f060
000378 7060
000379 70f0
          	.DB  0x80,0xF0,0x80,0x90,0xF0,0x90,0xA0,0xF0
00037a f080
00037b 9080
00037c 90f0
00037d f0a0
          	.DB  0xA0,0xB0,0xF0,0xB0,0xC0,0xF0,0xC0,0xD0
00037e b0a0
00037f b0f0
000380 f0c0
000381 d0c0
          	.DB  0xF0,0xD0,0xE0,0xF0,0xE0,0xF0,0xF0,0xF0
000382 d0f0
000383 f0e0
000384 f0e0
000385 f0f0
          	.DB  0x0,0x0,0xF0,0x10,0x10,0xF0,0x20,0x20
000386 0000
000387 10f0
000388 f010
000389 2020
          	.DB  0xF0,0x30,0x30,0xF0,0x40,0x40,0xF0,0x50
00038a 30f0
00038b f030
00038c 4040
00038d 50f0
          	.DB  0x50,0xF0,0x60,0x60,0xF0,0x70,0x70,0xF0
00038e f050
00038f 6060
000390 70f0
000391 f070
          	.DB  0x80,0x80,0xF0,0x90,0x90,0xF0,0xA0,0xA0
000392 8080
000393 90f0
000394 f090
000395 a0a0
          	.DB  0xF0,0xB0,0xB0,0xF0,0xC0,0xC0,0xF0,0xD0
000396 b0f0
000397 f0b0
000398 c0c0
000399 d0f0
          	.DB  0xD0,0xF0,0xE0,0xE0,0xF0,0xF0,0xF0,0xF0
00039a f0d0
00039b e0e0
00039c f0f0
00039d f0f0
          _LUT_256_BMP:
          	.DB  0x0,0x0,0x0,0x0,0x0,0x80,0x0,0x80
00039e 0000
00039f 0000
0003a0 8000
0003a1 8000
          	.DB  0x0,0x0,0x80,0x80,0x80,0x0,0x0,0x80
0003a2 0000
0003a3 8080
0003a4 0080
0003a5 8000
          	.DB  0x0,0x80,0x80,0x80,0x0,0xC0,0xC0,0xC0
0003a6 8000
0003a7 8080
0003a8 c000
0003a9 c0c0
          	.DB  0xC0,0xDC,0xC0,0xF0,0xCA,0xA6,0x0,0x20
0003aa dcc0
0003ab f0c0
0003ac a6ca
0003ad 2000
          	.DB  0x40,0x0,0x20,0x60,0x0,0x20,0x80,0x0
0003ae 0040
0003af 6020
0003b0 2000
0003b1 0080
          	.DB  0x20,0xA0,0x0,0x20,0xC0,0x0,0x20,0xE0
0003b2 a020
0003b3 2000
0003b4 00c0
0003b5 e020
          	.DB  0x0,0x40,0x0,0x0,0x40,0x20,0x0,0x40
0003b6 4000
0003b7 0000
0003b8 2040
0003b9 4000
          	.DB  0x40,0x0,0x40,0x60,0x0,0x40,0x80,0x0
0003ba 0040
0003bb 6040
0003bc 4000
0003bd 0080
          	.DB  0x40,0xA0,0x0,0x40,0xC0,0x0,0x40,0xE0
0003be a040
0003bf 4000
0003c0 00c0
0003c1 e040
          	.DB  0x0,0x60,0x0,0x0,0x60,0x20,0x0,0x60
0003c2 6000
0003c3 0000
0003c4 2060
0003c5 6000
          	.DB  0x40,0x0,0x60,0x60,0x0,0x60,0x80,0x0
0003c6 0040
0003c7 6060
0003c8 6000
0003c9 0080
          	.DB  0x60,0xA0,0x0,0x60,0xC0,0x0,0x60,0xE0
0003ca a060
0003cb 6000
0003cc 00c0
0003cd e060
          	.DB  0x0,0x80,0x0,0x0,0x80,0x20,0x0,0x80
0003ce 8000
0003cf 0000
0003d0 2080
0003d1 8000
          	.DB  0x40,0x0,0x80,0x60,0x0,0x80,0x80,0x0
0003d2 0040
0003d3 6080
0003d4 8000
0003d5 0080
          	.DB  0x80,0xA0,0x0,0x80,0xC0,0x0,0x80,0xE0
0003d6 a080
0003d7 8000
0003d8 00c0
0003d9 e080
          	.DB  0x0,0xA0,0x0,0x0,0xA0,0x20,0x0,0xA0
0003da a000
0003db 0000
0003dc 20a0
0003dd a000
          	.DB  0x40,0x0,0xA0,0x60,0x0,0xA0,0x80,0x0
0003de 0040
0003df 60a0
0003e0 a000
0003e1 0080
          	.DB  0xA0,0xA0,0x0,0xA0,0xC0,0x0,0xA0,0xE0
0003e2 a0a0
0003e3 a000
0003e4 00c0
0003e5 e0a0
          	.DB  0x0,0xC0,0x0,0x0,0xC0,0x20,0x0,0xC0
0003e6 c000
0003e7 0000
0003e8 20c0
0003e9 c000
          	.DB  0x40,0x0,0xC0,0x60,0x0,0xC0,0x80,0x0
0003ea 0040
0003eb 60c0
0003ec c000
0003ed 0080
          	.DB  0xC0,0xA0,0x0,0xC0,0xC0,0x0,0xC0,0xE0
0003ee a0c0
0003ef c000
0003f0 00c0
0003f1 e0c0
          	.DB  0x0,0xE0,0x0,0x0,0xE0,0x20,0x0,0xE0
0003f2 e000
0003f3 0000
0003f4 20e0
0003f5 e000
          	.DB  0x40,0x0,0xE0,0x60,0x0,0xE0,0x80,0x0
0003f6 0040
0003f7 60e0
0003f8 e000
0003f9 0080
          	.DB  0xE0,0xA0,0x0,0xE0,0xC0,0x0,0xE0,0xE0
0003fa a0e0
0003fb e000
0003fc 00c0
0003fd e0e0
          	.DB  0x40,0x0,0x0,0x40,0x0,0x20,0x40,0x0
0003fe 0040
0003ff 4000
000400 2000
000401 0040
          	.DB  0x40,0x40,0x0,0x60,0x40,0x0,0x80,0x40
000402 4040
000403 6000
000404 0040
000405 4080
          	.DB  0x0,0xA0,0x40,0x0,0xC0,0x40,0x0,0xE0
000406 a000
000407 0040
000408 40c0
000409 e000
          	.DB  0x40,0x20,0x0,0x40,0x20,0x20,0x40,0x20
00040a 2040
00040b 4000
00040c 2020
00040d 2040
          	.DB  0x40,0x40,0x20,0x60,0x40,0x20,0x80,0x40
00040e 4040
00040f 6020
000410 2040
000411 4080
          	.DB  0x20,0xA0,0x40,0x20,0xC0,0x40,0x20,0xE0
000412 a020
000413 2040
000414 40c0
000415 e020
          	.DB  0x40,0x40,0x0,0x40,0x40,0x20,0x40,0x40
000416 4040
000417 4000
000418 2040
000419 4040
          	.DB  0x40,0x40,0x40,0x60,0x40,0x40,0x80,0x40
00041a 4040
00041b 6040
00041c 4040
00041d 4080
          	.DB  0x40,0xA0,0x40,0x40,0xC0,0x40,0x40,0xE0
00041e a040
00041f 4040
000420 40c0
000421 e040
          	.DB  0x40,0x60,0x0,0x40,0x60,0x20,0x40,0x60
000422 6040
000423 4000
000424 2060
000425 6040
          	.DB  0x40,0x40,0x60,0x60,0x40,0x60,0x80,0x40
000426 4040
000427 6060
000428 6040
000429 4080
          	.DB  0x60,0xA0,0x40,0x60,0xC0,0x40,0x60,0xE0
00042a a060
00042b 6040
00042c 40c0
00042d e060
          	.DB  0x40,0x80,0x0,0x40,0x80,0x20,0x40,0x80
00042e 8040
00042f 4000
000430 2080
000431 8040
          	.DB  0x40,0x40,0x80,0x60,0x40,0x80,0x80,0x40
000432 4040
000433 6080
000434 8040
000435 4080
          	.DB  0x80,0xA0,0x40,0x80,0xC0,0x40,0x80,0xE0
000436 a080
000437 8040
000438 40c0
000439 e080
          	.DB  0x40,0xA0,0x0,0x40,0xA0,0x20,0x40,0xA0
00043a a040
00043b 4000
00043c 20a0
00043d a040
          	.DB  0x40,0x40,0xA0,0x60,0x40,0xA0,0x80,0x40
00043e 4040
00043f 60a0
000440 a040
000441 4080
          	.DB  0xA0,0xA0,0x40,0xA0,0xC0,0x40,0xA0,0xE0
000442 a0a0
000443 a040
000444 40c0
000445 e0a0
          	.DB  0x40,0xC0,0x0,0x40,0xC0,0x20,0x40,0xC0
000446 c040
000447 4000
000448 20c0
000449 c040
          	.DB  0x40,0x40,0xC0,0x60,0x40,0xC0,0x80,0x40
00044a 4040
00044b 60c0
00044c c040
00044d 4080
          	.DB  0xC0,0xA0,0x40,0xC0,0xC0,0x40,0xC0,0xE0
00044e a0c0
00044f c040
000450 40c0
000451 e0c0
          	.DB  0x40,0xE0,0x0,0x40,0xE0,0x20,0x40,0xE0
000452 e040
000453 4000
000454 20e0
000455 e040
          	.DB  0x40,0x40,0xE0,0x60,0x40,0xE0,0x80,0x40
000456 4040
000457 60e0
000458 e040
000459 4080
          	.DB  0xE0,0xA0,0x40,0xE0,0xC0,0x40,0xE0,0xE0
00045a a0e0
00045b e040
00045c 40c0
00045d e0e0
          	.DB  0x80,0x0,0x0,0x80,0x0,0x20,0x80,0x0
00045e 0080
00045f 8000
000460 2000
000461 0080
          	.DB  0x40,0x80,0x0,0x60,0x80,0x0,0x80,0x80
000462 8040
000463 6000
000464 0080
000465 8080
          	.DB  0x0,0xA0,0x80,0x0,0xC0,0x80,0x0,0xE0
000466 a000
000467 0080
000468 80c0
000469 e000
          	.DB  0x80,0x20,0x0,0x80,0x20,0x20,0x80,0x20
00046a 2080
00046b 8000
00046c 2020
00046d 2080
          	.DB  0x40,0x80,0x20,0x60,0x80,0x20,0x80,0x80
00046e 8040
00046f 6020
000470 2080
000471 8080
          	.DB  0x20,0xA0,0x80,0x20,0xC0,0x80,0x20,0xE0
000472 a020
000473 2080
000474 80c0
000475 e020
          	.DB  0x80,0x40,0x0,0x80,0x40,0x20,0x80,0x40
000476 4080
000477 8000
000478 2040
000479 4080
          	.DB  0x40,0x80,0x40,0x60,0x80,0x40,0x80,0x80
00047a 8040
00047b 6040
00047c 4080
00047d 8080
          	.DB  0x40,0xA0,0x80,0x40,0xC0,0x80,0x40,0xE0
00047e a040
00047f 4080
000480 80c0
000481 e040
          	.DB  0x80,0x60,0x0,0x80,0x60,0x20,0x80,0x60
000482 6080
000483 8000
000484 2060
000485 6080
          	.DB  0x40,0x80,0x60,0x60,0x80,0x60,0x80,0x80
000486 8040
000487 6060
000488 6080
000489 8080
          	.DB  0x60,0xA0,0x80,0x60,0xC0,0x80,0x60,0xE0
00048a a060
00048b 6080
00048c 80c0
00048d e060
          	.DB  0x80,0x80,0x0,0x80,0x80,0x20,0x80,0x80
00048e 8080
00048f 8000
000490 2080
000491 8080
          	.DB  0x40,0x80,0x80,0x60,0x80,0x80,0x80,0x80
000492 8040
000493 6080
000494 8080
000495 8080
          	.DB  0x80,0xA0,0x80,0x80,0xC0,0x80,0x80,0xE0
000496 a080
000497 8080
000498 80c0
000499 e080
          	.DB  0x80,0xA0,0x0,0x80,0xA0,0x20,0x80,0xA0
00049a a080
00049b 8000
00049c 20a0
00049d a080
          	.DB  0x40,0x80,0xA0,0x60,0x80,0xA0,0x80,0x80
00049e 8040
00049f 60a0
0004a0 a080
0004a1 8080
          	.DB  0xA0,0xA0,0x80,0xA0,0xC0,0x80,0xA0,0xE0
0004a2 a0a0
0004a3 a080
0004a4 80c0
0004a5 e0a0
          	.DB  0x80,0xC0,0x0,0x80,0xC0,0x20,0x80,0xC0
0004a6 c080
0004a7 8000
0004a8 20c0
0004a9 c080
          	.DB  0x40,0x80,0xC0,0x60,0x80,0xC0,0x80,0x80
0004aa 8040
0004ab 60c0
0004ac c080
0004ad 8080
          	.DB  0xC0,0xA0,0x80,0xC0,0xC0,0x80,0xC0,0xE0
0004ae a0c0
0004af c080
0004b0 80c0
0004b1 e0c0
          	.DB  0x80,0xE0,0x0,0x80,0xE0,0x20,0x80,0xE0
0004b2 e080
0004b3 8000
0004b4 20e0
0004b5 e080
          	.DB  0x40,0x80,0xE0,0x60,0x80,0xE0,0x80,0x80
0004b6 8040
0004b7 60e0
0004b8 e080
0004b9 8080
          	.DB  0xE0,0xA0,0x80,0xE0,0xC0,0x80,0xE0,0xE0
0004ba a0e0
0004bb e080
0004bc 80c0
0004bd e0e0
          	.DB  0xC0,0x0,0x0,0xC0,0x0,0x20,0xC0,0x0
0004be 00c0
0004bf c000
0004c0 2000
0004c1 00c0
          	.DB  0x40,0xC0,0x0,0x60,0xC0,0x0,0x80,0xC0
0004c2 c040
0004c3 6000
0004c4 00c0
0004c5 c080
          	.DB  0x0,0xA0,0xC0,0x0,0xC0,0xC0,0x0,0xE0
0004c6 a000
0004c7 00c0
0004c8 c0c0
0004c9 e000
          	.DB  0xC0,0x20,0x0,0xC0,0x20,0x20,0xC0,0x20
0004ca 20c0
0004cb c000
0004cc 2020
0004cd 20c0
          	.DB  0x40,0xC0,0x20,0x60,0xC0,0x20,0x80,0xC0
0004ce c040
0004cf 6020
0004d0 20c0
0004d1 c080
          	.DB  0x20,0xA0,0xC0,0x20,0xC0,0xC0,0x20,0xE0
0004d2 a020
0004d3 20c0
0004d4 c0c0
0004d5 e020
          	.DB  0xC0,0x40,0x0,0xC0,0x40,0x20,0xC0,0x40
0004d6 40c0
0004d7 c000
0004d8 2040
0004d9 40c0
          	.DB  0x40,0xC0,0x40,0x60,0xC0,0x40,0x80,0xC0
0004da c040
0004db 6040
0004dc 40c0
0004dd c080
          	.DB  0x40,0xA0,0xC0,0x40,0xC0,0xC0,0x40,0xE0
0004de a040
0004df 40c0
0004e0 c0c0
0004e1 e040
          	.DB  0xC0,0x60,0x0,0xC0,0x60,0x20,0xC0,0x60
0004e2 60c0
0004e3 c000
0004e4 2060
0004e5 60c0
          	.DB  0x40,0xC0,0x60,0x60,0xC0,0x60,0x80,0xC0
0004e6 c040
0004e7 6060
0004e8 60c0
0004e9 c080
          	.DB  0x60,0xA0,0xC0,0x60,0xC0,0xC0,0x60,0xE0
0004ea a060
0004eb 60c0
0004ec c0c0
0004ed e060
          	.DB  0xC0,0x80,0x0,0xC0,0x80,0x20,0xC0,0x80
0004ee 80c0
0004ef c000
0004f0 2080
0004f1 80c0
          	.DB  0x40,0xC0,0x80,0x60,0xC0,0x80,0x80,0xC0
0004f2 c040
0004f3 6080
0004f4 80c0
0004f5 c080
          	.DB  0x80,0xA0,0xC0,0x80,0xC0,0xC0,0x80,0xE0
0004f6 a080
0004f7 80c0
0004f8 c0c0
0004f9 e080
          	.DB  0xC0,0xA0,0x0,0xC0,0xA0,0x20,0xC0,0xA0
0004fa a0c0
0004fb c000
0004fc 20a0
0004fd a0c0
          	.DB  0x40,0xC0,0xA0,0x60,0xC0,0xA0,0x80,0xC0
0004fe c040
0004ff 60a0
000500 a0c0
000501 c080
          	.DB  0xA0,0xA0,0xC0,0xA0,0xC0,0xC0,0xA0,0xE0
000502 a0a0
000503 a0c0
000504 c0c0
000505 e0a0
          	.DB  0xC0,0xC0,0x0,0xC0,0xC0,0x20,0xC0,0xC0
000506 c0c0
000507 c000
000508 20c0
000509 c0c0
          	.DB  0x40,0xC0,0xC0,0x60,0xC0,0xC0,0x80,0xC0
00050a c040
00050b 60c0
00050c c0c0
00050d c080
          	.DB  0xC0,0xA0,0xF0,0xFB,0xFF,0xA4,0xA0,0xA0
00050e a0c0
00050f fbf0
000510 a4ff
000511 a0a0
          	.DB  0x80,0x80,0x80,0x0,0x0,0xFF,0x0,0xFF
000512 8080
000513 0080
000514 ff00
000515 ff00
          	.DB  0x0,0x0,0xFF,0xFF,0xFF,0x0,0x0,0xFF
000516 0000
000517 ffff
000518 00ff
000519 ff00
          	.DB  0x0,0xFF,0xFF,0xFF,0x0,0xFF,0xFF,0xFF
00051a ff00
00051b ffff
00051c ff00
00051d ffff
          _LUT_16_BMP:
          	.DB  0x0,0x0,0x0,0x0,0x0,0x80,0x0,0x80
00051e 0000
00051f 0000
000520 8000
000521 8000
          	.DB  0x0,0x0,0x80,0x80,0x80,0x0,0x0,0x80
000522 0000
000523 8080
000524 0080
000525 8000
          	.DB  0x0,0x80,0x80,0x80,0x0,0x80,0x80,0x80
000526 8000
000527 8080
000528 8000
000529 8080
          	.DB  0xC0,0xC0,0xC0,0x0,0x0,0xF0,0x0,0xF0
00052a c0c0
00052b 00c0
00052c f000
00052d f000
          	.DB  0x0,0x0,0xF0,0xF0,0xF0,0x0,0x0,0xF0
00052e 0000
00052f f0f0
000530 00f0
000531 f000
          	.DB  0x0,0xF0,0xF0,0xF0,0x0,0xF0,0xF0,0xF0
000532 f000
000533 f0f0
000534 f000
000535 f0f0
          _234:
          	.DB  0x24
000536 0024
          _235:
          	.DB  0x1
000537 0001
          _236:
          	.DB  0xA1
000538 00a1
          _237:
          	.DB  0x2
000539 0002
          _238:
          	.DB  0xF0
00053a 00f0
          _239:
          	.DB  0x3
00053b 0003
          _240:
          	.DB  0x3
00053c 0003
          _241:
          	.DB  0x4
00053d 0004
          _242:
          	.DB  0x27
00053e 0027
          _243:
          	.DB  0x5
00053f 0005
          _244:
          	.DB  0xEF
000540 00ef
          _245:
          	.DB  0x6
000541 0006
          _246:
          	.DB  0x7
000542 0007
          _247:
          	.DB  0x1
000543 0001
          _248:
          	.DB  0x8
000544 0008
          _249:
          	.DB  0x3
000545 0003
          _250:
          	.DB  0x9
000546 0009
          _251:
          	.DB  0x5
000547 0005
          _252:
          	.DB  0xA
000548 000a
          _253:
          	.DB  0xB
000549 000b
          _254:
          	.DB  0xB
00054a 000b
          _255:
          	.DB  0xC
00054b 000c
          _256:
          	.DB  0xD
00054c 000d
          _257:
          	.DB  0xE
00054d 000e
          _258:
          	.DB  0xF
00054e 000f
          _259:
          	.DB  0x10
00054f 0010
          _260:
          	.DB  0x11
000550 0011
          _261:
          	.DB  0x12
000551 0012
          _262:
          	.DB  0xFF
000552 00ff
          _263:
          	.DB  0x13
000553 0013
          _264:
          	.DB  0x3
000554 0003
          _265:
          	.DB  0x18
000555 0018
          _266:
          	.DB  0x19
000556 0019
          _267:
          	.DB  0x1A
000557 001a
          _268:
          	.DB  0x1B
000558 001b
          _269:
          	.DB  0x1C
000559 001c
          _270:
          	.DB  0xFF
00055a 00ff
          _0x12B:
          	.DB  0x0,0x13
00055b 1300
          	.DB  0x0,0x0
00055c 0000
          _306:
          	.DB  0x24
00055d 0024
          _307:
          	.DB  0x1
00055e 0001
          _308:
          	.DB  0xA1
00055f 00a1
          _309:
          	.DB  0x2
000560 0002
          _310:
          	.DB  0xF0
000561 00f0
          _311:
          	.DB  0x3
000562 0003
          _312:
          	.DB  0x3
000563 0003
          _313:
          	.DB  0x4
000564 0004
          _314:
          	.DB  0x27
000565 0027
          _315:
          	.DB  0x5
000566 0005
          _316:
          	.DB  0xEF
000567 00ef
          _317:
          	.DB  0x6
000568 0006
          _318:
          	.DB  0x7
000569 0007
          _319:
          	.DB  0x1
00056a 0001
          _320:
          	.DB  0x8
00056b 0008
          _321:
          	.DB  0x3
00056c 0003
          _322:
          	.DB  0x9
00056d 0009
          _323:
          	.DB  0x5
00056e 0005
          _324:
          	.DB  0xA
00056f 000a
          _325:
          	.DB  0xB
000570 000b
          _326:
          	.DB  0xB
000571 000b
          _327:
          	.DB  0xC
000572 000c
          _328:
          	.DB  0xD
000573 000d
          _329:
          	.DB  0xE
000574 000e
          _330:
          	.DB  0xF
000575 000f
          _331:
          	.DB  0x10
000576 0010
          _332:
          	.DB  0x11
000577 0011
          _333:
          	.DB  0x12
000578 0012
          _334:
          	.DB  0xFF
000579 00ff
          _335:
          	.DB  0x13
00057a 0013
          _336:
          	.DB  0x3
00057b 0003
          _337:
          	.DB  0x18
00057c 0018
          _338:
          	.DB  0x19
00057d 0019
          _339:
          	.DB  0x1A
00057e 001a
          _340:
          	.DB  0x1B
00057f 001b
          _341:
          	.DB  0x1C
000580 001c
          _342:
          	.DB  0xFF
000581 00ff
          _0x175:
          	.DB  0x1,0x0
000582 0001
          _tbl10_G9:
          	.DB  0x10,0x27,0xE8,0x3,0x64,0x0,0xA,0x0
000583 2710
000584 03e8
000585 0064
000586 000a
          	.DB  0x1,0x0
000587 0001
          _tbl16_G9:
          	.DB  0x0,0x10,0x0,0x1,0x10,0x0,0x1,0x0
000588 1000
000589 0100
00058a 0010
00058b 0001
          _0:
          	.DB  0xA,0xD,0x47,0x69,0x76,0x65,0x20,0x50
00058c 0d0a
00058d 6947
00058e 6576
00058f 5020
          	.DB  0x61,0x67,0x65,0x20,0x6E,0x75,0x6D,0x62
000590 6761
000591 2065
000592 756e
000593 626d
          	.DB  0x65,0x72,0x28,0x30,0x20,0x74,0x6F,0x20
000594 7265
000595 3028
000596 7420
000597 206f
          	.DB  0x33,0x31,0x29,0x0,0x25,0x64,0x0,0xA
000598 3133
000599 0029
00059a 6425
00059b 0a00
          	.DB  0xD,0x4E,0x6F,0x74,0x20,0x63,0x6F,0x72
00059c 4e0d
00059d 746f
00059e 6320
00059f 726f
          	.DB  0x72,0x65,0x63,0x74,0x20,0x62,0x65,0x74
0005a0 6572
0005a1 7463
0005a2 6220
0005a3 7465
          	.DB  0x77,0x65,0x65,0x6E,0x20,0x30,0x20,0x61
0005a4 6577
0005a5 6e65
0005a6 3020
0005a7 6120
          	.DB  0x6E,0x64,0x20,0x33,0x31,0x0,0xA,0xD
0005a8 646e
0005a9 3320
0005aa 0031
0005ab 0d0a
          	.DB  0x50,0x61,0x67,0x65,0x20,0x25,0x64,0x20
0005ac 6150
0005ad 6567
0005ae 2520
0005af 2064
          	.DB  0x69,0x73,0x20,0x6E,0x6F,0x74,0x20,0x70
0005b0 7369
0005b1 6e20
0005b2 746f
0005b3 7020
          	.DB  0x72,0x65,0x73,0x65,0x6E,0x74,0x2C,0x20
0005b4 6572
0005b5 6573
0005b6 746e
0005b7 202c
          	.DB  0x72,0x65,0x74,0x75,0x72,0x6E,0x0,0xA
0005b8 6572
0005b9 7574
0005ba 6e72
0005bb 0a00
          	.DB  0xD,0x53,0x68,0x6F,0x77,0x20,0x42,0x4D
0005bc 530d
0005bd 6f68
0005be 2077
0005bf 4d42
          	.DB  0x50,0x20,0x70,0x69,0x63,0x74,0x75,0x72
0005c0 2050
0005c1 6970
0005c2 7463
0005c3 7275
          	.DB  0x65,0x3A,0x20,0x25,0x64,0x0,0xA,0xD
0005c4 3a65
0005c5 2520
0005c6 0064
0005c7 0d0a
          	.DB  0x54,0x6F,0x75,0x63,0x68,0x50,0x72,0x65
0005c8 6f54
0005c9 6375
0005ca 5068
0005cb 6572
          	.DB  0x73,0x73,0x65,0x64,0x0,0xA,0xD,0x48
0005cc 7373
0005cd 6465
0005ce 0a00
0005cf 480d
          	.DB  0x65,0x6C,0x6C,0x6F,0x20,0x57,0x6F,0x72
0005d0 6c65
0005d1 6f6c
0005d2 5720
0005d3 726f
          	.DB  0x6C,0x64,0x21,0x21,0xA,0xD,0x0,0xA
0005d4 646c
0005d5 2121
0005d6 0d0a
0005d7 0a00
          	.DB  0xD,0x53,0x31,0x44,0x31,0x33,0x37,0x30
0005d8 530d
0005d9 4431
0005da 3331
0005db 3037
          	.DB  0x35,0x20,0x74,0x65,0x73,0x74,0x20,0x70
0005dc 2035
0005dd 6574
0005de 7473
0005df 7020
          	.DB  0x72,0x6F,0x67,0x72,0x61,0x6D,0x6D,0x20
0005e0 6f72
0005e1 7267
0005e2 6d61
0005e3 206d
          	.DB  0x56,0x3A,0x30,0x2E,0x36,0x0,0xA,0xD
0005e4 3a56
0005e5 2e30
0005e6 0036
0005e7 0d0a
          	.DB  0x53,0x31,0x44,0x31,0x33,0x37,0x30,0x35
0005e8 3153
0005e9 3144
0005ea 3733
0005eb 3530
          	.DB  0x20,0x52,0x65,0x73,0x65,0x74,0x20,0x61
0005ec 5220
0005ed 7365
0005ee 7465
0005ef 6120
          	.DB  0x6E,0x64,0x20,0x49,0x6E,0x69,0x74,0x0
0005f0 646e
0005f1 4920
0005f2 696e
0005f3 0074
          	.DB  0xA,0xD,0x53,0x31,0x44,0x31,0x33,0x37
0005f4 0d0a
0005f5 3153
0005f6 3144
0005f7 3733
          	.DB  0x30,0x35,0x20,0x49,0x44,0x3A,0x20,0x25
0005f8 3530
0005f9 4920
0005fa 3a44
0005fb 2520
          	.DB  0x78,0x0,0xA,0xD,0x53,0x31,0x44,0x31
0005fc 0078
0005fd 0d0a
0005fe 3153
0005ff 3144
          	.DB  0x33,0x37,0x30,0x35,0x20,0x69,0x6E,0x69
000600 3733
000601 3530
000602 6920
000603 696e
          	.DB  0x74,0x20,0x64,0x6F,0x6E,0x65,0xA,0xD
000604 2074
000605 6f64
000606 656e
000607 0d0a
          	.DB  0x0,0x48,0x65,0x6C,0x6C,0x6F,0x20,0x57
000608 4800
000609 6c65
00060a 6f6c
00060b 5720
          	.DB  0x6F,0x72,0x6C,0x64,0x21,0x0,0x4D,0x61
00060c 726f
00060d 646c
00060e 0021
00060f 614d
          	.DB  0x6B,0x65,0x20,0x75,0x73,0x65,0x20,0x6F
000610 656b
000611 7520
000612 6573
000613 6f20
          	.DB  0x66,0x20,0x74,0x68,0x65,0x20,0x74,0x65
000614 2066
000615 6874
000616 2065
000617 6574
          	.DB  0x72,0x6D,0x69,0x6E,0x61,0x6C,0x20,0x66
000618 6d72
000619 6e69
00061a 6c61
00061b 6620
          	.DB  0x6F,0x72,0x20,0x73,0x65,0x74,0x74,0x69
00061c 726f
00061d 7320
00061e 7465
00061f 6974
          	.DB  0x6E,0x67,0x73,0x0,0x54,0x6F,0x75,0x63
000620 676e
000621 0073
000622 6f54
000623 6375
          	.DB  0x68,0x73,0x63,0x72,0x65,0x65,0x6E,0x20
000624 7368
000625 7263
000626 6565
000627 206e
          	.DB  0x6E,0x69,0x65,0x74,0x20,0x67,0x65,0x69
000628 696e
000629 7465
00062a 6720
00062b 6965
          	.DB  0x6A,0x6B,0x74,0x2C,0x20,0x67,0x61,0x20
00062c 6b6a
00062d 2c74
00062e 6720
00062f 2061
          	.DB  0x6E,0x75,0x20,0x69,0x6A,0x6B,0x65,0x6E
000630 756e
000631 6920
000632 6b6a
000633 6e65
          	.DB  0x0,0xA,0xD,0x4D,0x61,0x69,0x6E,0x20
000634 0a00
000635 4d0d
000636 6961
000637 206e
          	.DB  0x4D,0x65,0x6E,0x75,0x0,0xA,0xD,0x31
000638 654d
000639 756e
00063a 0a00
00063b 310d
          	.DB  0x2E,0x20,0x4C,0x69,0x6E,0x6B,0x20,0x6D
00063c 202e
00063d 694c
00063e 6b6e
00063f 6d20
          	.DB  0x65,0x6E,0x75,0x0,0xA,0xD,0x32,0x2E
000640 6e65
000641 0075
000642 0d0a
000643 2e32
          	.DB  0x20,0x52,0x65,0x61,0x64,0x20,0x69,0x6E
000644 5220
000645 6165
000646 2064
000647 6e69
          	.DB  0x66,0x6F,0x20,0x43,0x46,0x0,0xA,0xD
000648 6f66
000649 4320
00064a 0046
00064b 0d0a
          	.DB  0x33,0x2E,0x20,0x44,0x65,0x6C,0x65,0x74
00064c 2e33
00064d 4420
00064e 6c65
00064f 7465
          	.DB  0x65,0x20,0x64,0x61,0x74,0x61,0x20,0x6F
000650 2065
000651 6164
000652 6174
000653 6f20
          	.DB  0x6E,0x20,0x43,0x46,0x0,0xA,0xD,0x34
000654 206e
000655 4643
000656 0a00
000657 340d
          	.DB  0x2E,0x20,0x53,0x68,0x6F,0x77,0x20,0x50
000658 202e
000659 6853
00065a 776f
00065b 5020
          	.DB  0x69,0x63,0x74,0x75,0x72,0x65,0x20,0x6F
00065c 6369
00065d 7574
00065e 6572
00065f 6f20
          	.DB  0x66,0x20,0x73,0x65,0x6C,0x65,0x63,0x74
000660 2066
000661 6573
000662 656c
000663 7463
          	.DB  0x65,0x64,0x20,0x42,0x6C,0x6F,0x6B,0x0
000664 6465
000665 4220
000666 6f6c
000667 006b
          	.DB  0xA,0xD,0x35,0x2E,0x20,0x54,0x6F,0x75
000668 0d0a
000669 2e35
00066a 5420
00066b 756f
          	.DB  0x63,0x68,0x73,0x63,0x72,0x65,0x65,0x6E
00066c 6863
00066d 6373
00066e 6572
00066f 6e65
          	.DB  0x20,0x43,0x61,0x6C,0x69,0x62,0x72,0x61
000670 4320
000671 6c61
000672 6269
000673 6172
          	.DB  0x74,0x69,0x6F,0x6E,0xA,0xD,0x0,0xA
000674 6974
000675 6e6f
000676 0d0a
000677 0a00
          	.DB  0xD,0x50,0x61,0x67,0x65,0x20,0x64,0x61
000678 500d
000679 6761
00067a 2065
00067b 6164
          	.DB  0x74,0x61,0x20,0x70,0x72,0x65,0x73,0x65
00067c 6174
00067d 7020
00067e 6572
00067f 6573
          	.DB  0x6E,0x74,0x3A,0x20,0x25,0x64,0x0,0xA
000680 746e
000681 203a
000682 6425
000683 0a00
          	.DB  0xD,0x47,0x6F,0x20,0x74,0x6F,0x20,0x6C
000684 470d
000685 206f
000686 6f74
000687 6c20
          	.DB  0x69,0x6E,0x6B,0x20,0x6D,0x65,0x6E,0x75
000688 6e69
000689 206b
00068a 656d
00068b 756e
          	.DB  0x0,0xA,0xD,0x44,0x65,0x6C,0x65,0x74
00068c 0a00
00068d 440d
00068e 6c65
00068f 7465
          	.DB  0x65,0x20,0x64,0x61,0x74,0x61,0x20,0x6F
000690 2065
000691 6164
000692 6174
000693 6f20
          	.DB  0x6E,0x20,0x43,0x46,0x20,0x77,0x61,0x69
000694 206e
000695 4643
000696 7720
000697 6961
          	.DB  0x74,0x2E,0x2E,0x0,0xA,0xD,0x44,0x61
000698 2e74
000699 002e
00069a 0d0a
00069b 6144
          	.DB  0x74,0x61,0x20,0x6F,0x6E,0x20,0x43,0x46
00069c 6174
00069d 6f20
00069e 206e
00069f 4643
          	.DB  0x20,0x64,0x65,0x6C,0x65,0x74,0x65,0x64
0006a0 6420
0006a1 6c65
0006a2 7465
0006a3 6465
          	.DB  0x0,0xA,0xD,0x4E,0x6F,0x20,0x64,0x61
0006a4 0a00
0006a5 4e0d
0006a6 206f
0006a7 6164
          	.DB  0x74,0x61,0x20,0x70,0x72,0x65,0x73,0x65
0006a8 6174
0006a9 7020
0006aa 6572
0006ab 6573
          	.DB  0x6E,0x74,0x20,0x6F,0x6E,0x20,0x43,0x46
0006ac 746e
0006ad 6f20
0006ae 206e
0006af 4643
          	.DB  0x0,0xA,0xD,0x54,0x6F,0x75,0x63,0x68
0006b0 0a00
0006b1 540d
0006b2 756f
0006b3 6863
          	.DB  0x73,0x63,0x72,0x65,0x65,0x6E,0x20,0x63
0006b4 6373
0006b5 6572
0006b6 6e65
0006b7 6320
          	.DB  0x61,0x6C,0x69,0x62,0x72,0x61,0x74,0x69
0006b8 6c61
0006b9 6269
0006ba 6172
0006bb 6974
          	.DB  0x6F,0x6E,0x0,0x53,0x69,0x67,0x6E,0x61
0006bc 6e6f
0006bd 5300
0006be 6769
0006bf 616e
          	.DB  0x74,0x75,0x72,0x65,0x20,0x43,0x46,0x3A
0006c0 7574
0006c1 6572
0006c2 4320
0006c3 3a46
          	.DB  0x20,0x25,0x78,0x25,0x78,0x0,0x43,0x79
0006c4 2520
0006c5 2578
0006c6 0078
0006c7 7943
          	.DB  0x6C,0x69,0x6E,0x64,0x65,0x72,0x73,0x3A
0006c8 696c
0006c9 646e
0006ca 7265
0006cb 3a73
          	.DB  0x20,0x25,0x64,0x0,0x48,0x65,0x61,0x64
0006cc 2520
0006cd 0064
0006ce 6548
0006cf 6461
          	.DB  0x73,0x3A,0x20,0x25,0x64,0x0,0x4E,0x75
0006d0 3a73
0006d1 2520
0006d2 0064
0006d3 754e
          	.DB  0x6D,0x62,0x65,0x72,0x20,0x53,0x65,0x63
0006d4 626d
0006d5 7265
0006d6 5320
0006d7 6365
          	.DB  0x74,0x6F,0x72,0x73,0x2F,0x54,0x72,0x61
0006d8 6f74
0006d9 7372
0006da 542f
0006db 6172
          	.DB  0x63,0x6B,0x3A,0x20,0x25,0x64,0x0,0x53
0006dc 6b63
0006dd 203a
0006de 6425
0006df 5300
          	.DB  0x65,0x63,0x74,0x6F,0x72,0x73,0x3A,0x20
0006e0 6365
0006e1 6f74
0006e2 7372
0006e3 203a
          	.DB  0x25,0x78,0x25,0x78,0x20,0x48,0x45,0x58
0006e4 7825
0006e5 7825
0006e6 4820
0006e7 5845
          	.DB  0x0,0x53,0x4E,0x3A,0x20,0x0,0x25,0x63
0006e8 5300
0006e9 3a4e
0006ea 0020
0006eb 6325
          	.DB  0x0,0xA,0xD,0x4C,0x55,0x54,0x20,0x31
0006ec 0a00
0006ed 4c0d
0006ee 5455
0006ef 3120
          	.DB  0x36,0x20,0x63,0x6F,0x6E,0x66,0x69,0x67
0006f0 2036
0006f1 6f63
0006f2 666e
0006f3 6769
          	.DB  0x0,0xA,0xD,0x4C,0x55,0x54,0x20,0x31
0006f4 0a00
0006f5 4c0d
0006f6 5455
0006f7 3120
          	.DB  0x36,0x20,0x63,0x6F,0x6E,0x66,0x69,0x67
0006f8 2036
0006f9 6f63
0006fa 666e
0006fb 6769
          	.DB  0x20,0x64,0x6F,0x6E,0x65,0x0,0xA,0xD
0006fc 6420
0006fd 6e6f
0006fe 0065
0006ff 0d0a
          	.DB  0x4C,0x55,0x54,0x20,0x32,0x35,0x36,0x20
000700 554c
000701 2054
000702 3532
000703 2036
          	.DB  0x63,0x6F,0x6E,0x66,0x69,0x67,0x0,0xA
000704 6f63
000705 666e
000706 6769
000707 0a00
          	.DB  0xD,0x4C,0x55,0x54,0x20,0x32,0x35,0x36
000708 4c0d
000709 5455
00070a 3220
00070b 3635
          	.DB  0x20,0x63,0x6F,0x6E,0x66,0x69,0x67,0x20
00070c 6320
00070d 6e6f
00070e 6966
00070f 2067
          	.DB  0x64,0x6F,0x6E,0x65,0x0,0xA,0xD,0x44
000710 6f64
000711 656e
000712 0a00
000713 440d
          	.DB  0x72,0x61,0x77,0x20,0x42,0x4D,0x50,0x20
000714 6172
000715 2077
000716 4d42
000717 2050
          	.DB  0x64,0x61,0x74,0x61,0x20,0x6F,0x6E,0x20
000718 6164
000719 6174
00071a 6f20
00071b 206e
          	.DB  0x4C,0x43,0x44,0x0,0x57,0x61,0x69,0x74
00071c 434c
00071d 0044
00071e 6157
00071f 7469
          	.DB  0x69,0x6E,0x67,0x20,0x66,0x6F,0x72,0x20
000720 6e69
000721 2067
000722 6f66
000723 2072
          	.DB  0x4C,0x69,0x6E,0x6B,0x0,0x4C,0x69,0x6E
000724 694c
000725 6b6e
000726 4c00
000727 6e69
          	.DB  0x6B,0x20,0x69,0x73,0x20,0x6D,0x61,0x6B
000728 206b
000729 7369
00072a 6d20
00072b 6b61
          	.DB  0x65,0x64,0x0,0x49,0x6E,0x66,0x6F,0x20
00072c 6465
00072d 4900
00072e 666e
00072f 206f
          	.DB  0x72,0x65,0x63,0x69,0x65,0x76,0x65,0x64
000730 6572
000731 6963
000732 7665
000733 6465
          	.DB  0x21,0x52,0x65,0x63,0x65,0x69,0x76,0x65
000734 5221
000735 6365
000736 6965
000737 6576
          	.DB  0x20,0x4C,0x55,0x54,0x20,0x31,0x36,0x0
000738 4c20
000739 5455
00073a 3120
00073b 0036
          	.DB  0x49,0x6E,0x66,0x6F,0x20,0x72,0x65,0x63
00073c 6e49
00073d 6f66
00073e 7220
00073f 6365
          	.DB  0x69,0x65,0x76,0x65,0x64,0x21,0x52,0x65
000740 6569
000741 6576
000742 2164
000743 6552
          	.DB  0x63,0x65,0x69,0x76,0x65,0x20,0x4C,0x55
000744 6563
000745 7669
000746 2065
000747 554c
          	.DB  0x54,0x20,0x32,0x35,0x36,0x0,0x4C,0x55
000748 2054
000749 3532
00074a 0036
00074b 554c
          	.DB  0x54,0x20,0x72,0x65,0x63,0x69,0x65,0x76
00074c 2054
00074d 6572
00074e 6963
00074f 7665
          	.DB  0x65,0x64,0x21,0x20,0x47,0x65,0x74,0x20
000750 6465
000751 2021
000752 6547
000753 2074
          	.DB  0x42,0x49,0x54,0x4D,0x41,0x50,0x20,0x64
000754 4942
000755 4d54
000756 5041
000757 6420
          	.DB  0x61,0x74,0x61,0x0,0x53,0x65,0x63,0x74
000758 7461
000759 0061
00075a 6553
00075b 7463
          	.DB  0x6F,0x72,0x73,0x20,0x74,0x6F,0x20,0x72
00075c 726f
00075d 2073
00075e 6f74
00075f 7220
          	.DB  0x65,0x63,0x69,0x65,0x76,0x65,0x3A,0x20
000760 6365
000761 6569
000762 6576
000763 203a
          	.DB  0x25,0x64,0x20,0x61,0x74,0x20,0x50,0x61
000764 6425
000765 6120
000766 2074
000767 6150
          	.DB  0x67,0x65,0x20,0x25,0x64,0x0,0x53,0x65
000768 6567
000769 2520
00076a 0064
00076b 6553
          	.DB  0x63,0x74,0x6F,0x72,0x20,0x25,0x64,0x20
00076c 7463
00076d 726f
00076e 2520
00076f 2064
          	.DB  0x73,0x74,0x6F,0x72,0x65,0x64,0x0,0x52
000770 7473
000771 726f
000772 6465
000773 5200
          	.DB  0x65,0x63,0x65,0x69,0x76,0x65,0x64,0x20
000774 6365
000775 6965
000776 6576
000777 2064
          	.DB  0x64,0x6F,0x6E,0x65,0x0,0xA,0xD,0x54
000778 6f64
000779 656e
00077a 0a00
00077b 540d
          	.DB  0x6F,0x75,0x63,0x68,0x5F,0x46,0x6C,0x61
00077c 756f
00077d 6863
00077e 465f
00077f 616c
          	.DB  0x67,0x3A,0x20,0x25,0x78,0x0,0xA,0xD
000780 3a67
000781 2520
000782 0078
000783 0d0a
          	.DB  0x52,0x65,0x6C,0x65,0x61,0x73,0x65,0x64
000784 6552
000785 656c
000786 7361
000787 6465
          	.DB  0x0
000788 0000
         
          __GLOBAL_INI_TBL:
          	.DW  0x01
000789 0001
          	.DW  _1aS1DRegs_G1
00078a 01c9
          	.DW  _3*2
00078b 0070
         
          	.DW  0x01
00078c 0001
          	.DW  _2aS1DRegs_G1
00078d 01ca
          	.DW  _4*2
00078e 0072
         
          	.DW  0x01
00078f 0001
          	.DW  _3aS1DRegs_G1
000790 01cb
          	.DW  _5*2
000791 0074
         
          	.DW  0x01
000792 0001
          	.DW  _4aS1DRegs_G1
000793 01cc
          	.DW  _6*2
000794 0076
         
          	.DW  0x01
000795 0001
          	.DW  _5aS1DRegs_G1
000796 01cd
          	.DW  _7*2
000797 0078
         
          	.DW  0x01
000798 0001
          	.DW  _6aS1DRegs_G1
000799 01ce
          	.DW  _8*2
00079a 007a
         
          	.DW  0x01
00079b 0001
          	.DW  _7aS1DRegs_G1
00079c 01cf
          	.DW  _9*2
00079d 007c
         
          	.DW  0x01
00079e 0001
          	.DW  _8aS1DRegs_G1
00079f 01d0
          	.DW  _10*2
0007a0 007e
         
          	.DW  0x01
0007a1 0001
          	.DW  _9aS1DRegs_G1
0007a2 01d1
          	.DW  _11*2
0007a3 0080
         
          	.DW  0x01
0007a4 0001
          	.DW  _AaS1DRegs_G1
0007a5 01d2
          	.DW  _12*2
0007a6 0082
         
          	.DW  0x01
0007a7 0001
          	.DW  _BaS1DRegs_G1
0007a8 01d3
          	.DW  _13*2
0007a9 0084
         
          	.DW  0x01
0007aa 0001
          	.DW  _CaS1DRegs_G1
0007ab 01d4
          	.DW  _14*2
0007ac 0086
         
          	.DW  0x01
0007ad 0001
          	.DW  _EaS1DRegs_G1
0007ae 01d6
          	.DW  _15*2
0007af 0088
         
          	.DW  0x01
0007b0 0001
          	.DW  _FaS1DRegs_G1
0007b1 01d7
          	.DW  _16*2
0007b2 008a
         
          	.DW  0x01
0007b3 0001
          	.DW  _10aS1DRegs_G1
0007b4 01d8
          	.DW  _17*2
0007b5 008c
         
          	.DW  0x01
0007b6 0001
          	.DW  _11aS1DRegs_G1
0007b7 01d9
          	.DW  _18*2
0007b8 008e
         
          	.DW  0x01
0007b9 0001
          	.DW  _12aS1DRegs_G1
0007ba 01da
          	.DW  _19*2
0007bb 0090
         
          	.DW  0x01
0007bc 0001
          	.DW  _13aS1DRegs_G1
0007bd 01db
          	.DW  _20*2
0007be 0092
         
          	.DW  0x01
0007bf 0001
          	.DW  _14aS1DRegs_G1
0007c0 01dc
          	.DW  _21*2
0007c1 0094
         
          	.DW  0x01
0007c2 0001
          	.DW  _15aS1DRegs_G1
0007c3 01dd
          	.DW  _22*2
0007c4 0096
         
          	.DW  0x01
0007c5 0001
          	.DW  _16aS1DRegs_G1
0007c6 01de
          	.DW  _23*2
0007c7 0098
         
          	.DW  0x01
0007c8 0001
          	.DW  _18aS1DRegs_G1
0007c9 01e0
          	.DW  _24*2
0007ca 009a
         
          	.DW  0x01
0007cb 0001
          	.DW  _1AaS1DRegs_G1
0007cc 01e2
          	.DW  _25*2
0007cd 009c
         
          	.DW  0x01
0007ce 0001
          	.DW  _1CaS1DRegs_G1
0007cf 01e4
          	.DW  _26*2
0007d0 009e
         
          	.DW  0x01
0007d1 0001
          	.DW  _1EaS1DRegs_G1
0007d2 01e6
          	.DW  _27*2
0007d3 00a0
         
          	.DW  0x01
0007d4 0001
          	.DW  _20aS1DRegs_G1
0007d5 01e8
          	.DW  _28*2
0007d6 00a2
         
          	.DW  0x01
0007d7 0001
          	.DW  _22aS1DRegs_G1
0007d8 01ea
          	.DW  _29*2
0007d9 00a4
         
          	.DW  0x01
0007da 0001
          	.DW  _24aS1DRegs_G1
0007db 01ec
          	.DW  _30*2
0007dc 00a6
         
          	.DW  0x01
0007dd 0001
          	.DW  _25aS1DRegs_G1
0007de 01ed
          	.DW  _31*2
0007df 00a8
         
          	.DW  0x01
0007e0 0001
          	.DW  _26aS1DRegs_G1
0007e1 01ee
          	.DW  _32*2
0007e2 00aa
         
          	.DW  0x01
0007e3 0001
          	.DW  _27aS1DRegs_G1
0007e4 01ef
          	.DW  _33*2
0007e5 00ac
         
          	.DW  0x01
0007e6 0001
          	.DW  _28aS1DRegs_G1
0007e7 01f0
          	.DW  _34*2
0007e8 00ae
         
          	.DW  0x01
0007e9 0001
          	.DW  _2AaS1DRegs_G1
0007ea 01f2
          	.DW  _35*2
0007eb 00b0
         
          	.DW  0x01
0007ec 0001
          	.DW  _2CaS1DRegs_G1
0007ed 01f4
          	.DW  _36*2
0007ee 00b2
         
          	.DW  0x01
0007ef 0001
          	.DW  _2EaS1DRegs_G1
0007f0 01f6
          	.DW  _37*2
0007f1 00b4
         
          	.DW  0x01
0007f2 0001
          	.DW  _30aS1DRegs_G1
0007f3 01f8
          	.DW  _38*2
0007f4 00b6
         
          	.DW  0x01
0007f5 0001
          	.DW  _31aS1DRegs_G1
0007f6 01f9
          	.DW  _39*2
0007f7 00b8
         
          	.DW  0x01
0007f8 0001
          	.DW  _1aS1DRegs_G2
0007f9 0434
          	.DW  _67*2
0007fa 03c2
         
          	.DW  0x01
0007fb 0001
          	.DW  _2aS1DRegs_G2
0007fc 0435
          	.DW  _68*2
0007fd 03c4
         
          	.DW  0x01
0007fe 0001
          	.DW  _3aS1DRegs_G2
0007ff 0436
          	.DW  _69*2
000800 03c6
         
          	.DW  0x01
000801 0001
          	.DW  _4aS1DRegs_G2
000802 0437
          	.DW  _70*2
000803 03c8
         
          	.DW  0x01
000804 0001
          	.DW  _5aS1DRegs_G2
000805 0438
          	.DW  _71*2
000806 03ca
         
          	.DW  0x01
000807 0001
          	.DW  _6aS1DRegs_G2
000808 0439
          	.DW  _72*2
000809 03cc
         
          	.DW  0x01
00080a 0001
          	.DW  _7aS1DRegs_G2
00080b 043a
          	.DW  _73*2
00080c 03ce
         
          	.DW  0x01
00080d 0001
          	.DW  _8aS1DRegs_G2
00080e 043b
          	.DW  _74*2
00080f 03d0
         
          	.DW  0x01
000810 0001
          	.DW  _9aS1DRegs_G2
000811 043c
          	.DW  _75*2
000812 03d2
         
          	.DW  0x01
000813 0001
          	.DW  _AaS1DRegs_G2
000814 043d
          	.DW  _76*2
000815 03d4
         
          	.DW  0x01
000816 0001
          	.DW  _BaS1DRegs_G2
000817 043e
          	.DW  _77*2
000818 03d6
         
          	.DW  0x01
000819 0001
          	.DW  _CaS1DRegs_G2
00081a 043f
          	.DW  _78*2
00081b 03d8
         
          	.DW  0x01
00081c 0001
          	.DW  _EaS1DRegs_G2
00081d 0441
          	.DW  _79*2
00081e 03da
         
          	.DW  0x01
00081f 0001
          	.DW  _FaS1DRegs_G2
000820 0442
          	.DW  _80*2
000821 03dc
         
          	.DW  0x01
000822 0001
          	.DW  _10aS1DRegs_G2
000823 0443
          	.DW  _81*2
000824 03de
         
          	.DW  0x01
000825 0001
          	.DW  _11aS1DRegs_G2
000826 0444
          	.DW  _82*2
000827 03e0
         
          	.DW  0x01
000828 0001
          	.DW  _12aS1DRegs_G2
000829 0445
          	.DW  _83*2
00082a 03e2
         
          	.DW  0x01
00082b 0001
          	.DW  _13aS1DRegs_G2
00082c 0446
          	.DW  _84*2
00082d 03e4
         
          	.DW  0x01
00082e 0001
          	.DW  _14aS1DRegs_G2
00082f 0447
          	.DW  _85*2
000830 03e6
         
          	.DW  0x01
000831 0001
          	.DW  _15aS1DRegs_G2
000832 0448
          	.DW  _86*2
000833 03e8
         
          	.DW  0x01
000834 0001
          	.DW  _16aS1DRegs_G2
000835 0449
          	.DW  _87*2
000836 03ea
         
          	.DW  0x01
000837 0001
          	.DW  _18aS1DRegs_G2
000838 044b
          	.DW  _88*2
000839 03ec
         
          	.DW  0x01
00083a 0001
          	.DW  _1AaS1DRegs_G2
00083b 044d
          	.DW  _89*2
00083c 03ee
         
          	.DW  0x01
00083d 0001
          	.DW  _1CaS1DRegs_G2
00083e 044f
          	.DW  _90*2
00083f 03f0
         
          	.DW  0x01
000840 0001
          	.DW  _1EaS1DRegs_G2
000841 0451
          	.DW  _91*2
000842 03f2
         
          	.DW  0x01
000843 0001
          	.DW  _20aS1DRegs_G2
000844 0453
          	.DW  _92*2
000845 03f4
         
          	.DW  0x01
000846 0001
          	.DW  _22aS1DRegs_G2
000847 0455
          	.DW  _93*2
000848 03f6
         
          	.DW  0x01
000849 0001
          	.DW  _24aS1DRegs_G2
00084a 0457
          	.DW  _94*2
00084b 03f8
         
          	.DW  0x01
00084c 0001
          	.DW  _25aS1DRegs_G2
00084d 0458
          	.DW  _95*2
00084e 03fa
         
          	.DW  0x01
00084f 0001
          	.DW  _26aS1DRegs_G2
000850 0459
          	.DW  _96*2
000851 03fc
         
          	.DW  0x01
000852 0001
          	.DW  _27aS1DRegs_G2
000853 045a
          	.DW  _97*2
000854 03fe
         
          	.DW  0x01
000855 0001
          	.DW  _28aS1DRegs_G2
000856 045b
          	.DW  _98*2
000857 0400
         
          	.DW  0x01
000858 0001
          	.DW  _2AaS1DRegs_G2
000859 045d
          	.DW  _99*2
00085a 0402
         
          	.DW  0x01
00085b 0001
          	.DW  _2CaS1DRegs_G2
00085c 045f
          	.DW  _100*2
00085d 0404
         
          	.DW  0x01
00085e 0001
          	.DW  _2EaS1DRegs_G2
00085f 0461
          	.DW  _101*2
000860 0406
         
          	.DW  0x01
000861 0001
          	.DW  _30aS1DRegs_G2
000862 0463
          	.DW  _102*2
000863 0408
         
          	.DW  0x01
000864 0001
          	.DW  _31aS1DRegs_G2
000865 0464
          	.DW  _103*2
000866 040a
         
          	.DW  0x01
000867 0001
          	.DW  _1aS1DRegs_G5
000868 0466
          	.DW  _234*2
000869 0a6c
         
          	.DW  0x01
00086a 0001
          	.DW  _2aS1DRegs_G5
00086b 0467
          	.DW  _235*2
00086c 0a6e
         
          	.DW  0x01
00086d 0001
          	.DW  _3aS1DRegs_G5
00086e 0468
          	.DW  _236*2
00086f 0a70
         
          	.DW  0x01
000870 0001
          	.DW  _4aS1DRegs_G5
000871 0469
          	.DW  _237*2
000872 0a72
         
          	.DW  0x01
000873 0001
          	.DW  _5aS1DRegs_G5
000874 046a
          	.DW  _238*2
000875 0a74
         
          	.DW  0x01
000876 0001
          	.DW  _6aS1DRegs_G5
000877 046b
          	.DW  _239*2
000878 0a76
         
          	.DW  0x01
000879 0001
          	.DW  _7aS1DRegs_G5
00087a 046c
          	.DW  _240*2
00087b 0a78
         
          	.DW  0x01
00087c 0001
          	.DW  _8aS1DRegs_G5
00087d 046d
          	.DW  _241*2
00087e 0a7a
         
          	.DW  0x01
00087f 0001
          	.DW  _9aS1DRegs_G5
000880 046e
          	.DW  _242*2
000881 0a7c
         
          	.DW  0x01
000882 0001
          	.DW  _AaS1DRegs_G5
000883 046f
          	.DW  _243*2
000884 0a7e
         
          	.DW  0x01
000885 0001
          	.DW  _BaS1DRegs_G5
000886 0470
          	.DW  _244*2
000887 0a80
         
          	.DW  0x01
000888 0001
          	.DW  _CaS1DRegs_G5
000889 0471
          	.DW  _245*2
00088a 0a82
         
          	.DW  0x01
00088b 0001
          	.DW  _EaS1DRegs_G5
00088c 0473
          	.DW  _246*2
00088d 0a84
         
          	.DW  0x01
00088e 0001
          	.DW  _FaS1DRegs_G5
00088f 0474
          	.DW  _247*2
000890 0a86
         
          	.DW  0x01
000891 0001
          	.DW  _10aS1DRegs_G5
000892 0475
          	.DW  _248*2
000893 0a88
         
          	.DW  0x01
000894 0001
          	.DW  _11aS1DRegs_G5
000895 0476
          	.DW  _249*2
000896 0a8a
         
          	.DW  0x01
000897 0001
          	.DW  _12aS1DRegs_G5
000898 0477
          	.DW  _250*2
000899 0a8c
         
          	.DW  0x01
00089a 0001
          	.DW  _13aS1DRegs_G5
00089b 0478
          	.DW  _251*2
00089c 0a8e
         
          	.DW  0x01
00089d 0001
          	.DW  _14aS1DRegs_G5
00089e 0479
          	.DW  _252*2
00089f 0a90
         
          	.DW  0x01
0008a0 0001
          	.DW  _15aS1DRegs_G5
0008a1 047a
          	.DW  _253*2
0008a2 0a92
         
          	.DW  0x01
0008a3 0001
          	.DW  _16aS1DRegs_G5
0008a4 047b
          	.DW  _254*2
0008a5 0a94
         
          	.DW  0x01
0008a6 0001
          	.DW  _18aS1DRegs_G5
0008a7 047d
          	.DW  _255*2
0008a8 0a96
         
          	.DW  0x01
0008a9 0001
          	.DW  _1AaS1DRegs_G5
0008aa 047f
          	.DW  _256*2
0008ab 0a98
         
          	.DW  0x01
0008ac 0001
          	.DW  _1CaS1DRegs_G5
0008ad 0481
          	.DW  _257*2
0008ae 0a9a
         
          	.DW  0x01
0008af 0001
          	.DW  _1EaS1DRegs_G5
0008b0 0483
          	.DW  _258*2
0008b1 0a9c
         
          	.DW  0x01
0008b2 0001
          	.DW  _20aS1DRegs_G5
0008b3 0485
          	.DW  _259*2
0008b4 0a9e
         
          	.DW  0x01
0008b5 0001
          	.DW  _22aS1DRegs_G5
0008b6 0487
          	.DW  _260*2
0008b7 0aa0
         
          	.DW  0x01
0008b8 0001
          	.DW  _24aS1DRegs_G5
0008b9 0489
          	.DW  _261*2
0008ba 0aa2
         
          	.DW  0x01
0008bb 0001
          	.DW  _25aS1DRegs_G5
0008bc 048a
          	.DW  _262*2
0008bd 0aa4
         
          	.DW  0x01
0008be 0001
          	.DW  _26aS1DRegs_G5
0008bf 048b
          	.DW  _263*2
0008c0 0aa6
         
          	.DW  0x01
0008c1 0001
          	.DW  _27aS1DRegs_G5
0008c2 048c
          	.DW  _264*2
0008c3 0aa8
         
          	.DW  0x01
0008c4 0001
          	.DW  _28aS1DRegs_G5
0008c5 048d
          	.DW  _265*2
0008c6 0aaa
         
          	.DW  0x01
0008c7 0001
          	.DW  _2AaS1DRegs_G5
0008c8 048f
          	.DW  _266*2
0008c9 0aac
         
          	.DW  0x01
0008ca 0001
          	.DW  _2CaS1DRegs_G5
0008cb 0491
          	.DW  _267*2
0008cc 0aae
         
          	.DW  0x01
0008cd 0001
          	.DW  _2EaS1DRegs_G5
0008ce 0493
          	.DW  _268*2
0008cf 0ab0
         
          	.DW  0x01
0008d0 0001
          	.DW  _30aS1DRegs_G5
0008d1 0495
          	.DW  _269*2
0008d2 0ab2
         
          	.DW  0x01
0008d3 0001
          	.DW  _31aS1DRegs_G5
0008d4 0496
          	.DW  _270*2
0008d5 0ab4
         
          	.DW  0x01
0008d6 0001
          	.DW  _1aS1DRegs_G6
0008d7 0498
          	.DW  _306*2
0008d8 0aba
         
          	.DW  0x01
0008d9 0001
          	.DW  _2aS1DRegs_G6
0008da 0499
          	.DW  _307*2
0008db 0abc
         
          	.DW  0x01
0008dc 0001
          	.DW  _3aS1DRegs_G6
0008dd 049a
          	.DW  _308*2
0008de 0abe
         
          	.DW  0x01
0008df 0001
          	.DW  _4aS1DRegs_G6
0008e0 049b
          	.DW  _309*2
0008e1 0ac0
         
          	.DW  0x01
0008e2 0001
          	.DW  _5aS1DRegs_G6
0008e3 049c
          	.DW  _310*2
0008e4 0ac2
         
          	.DW  0x01
0008e5 0001
          	.DW  _6aS1DRegs_G6
0008e6 049d
          	.DW  _311*2
0008e7 0ac4
         
          	.DW  0x01
0008e8 0001
          	.DW  _7aS1DRegs_G6
0008e9 049e
          	.DW  _312*2
0008ea 0ac6
         
          	.DW  0x01
0008eb 0001
          	.DW  _8aS1DRegs_G6
0008ec 049f
          	.DW  _313*2
0008ed 0ac8
         
          	.DW  0x01
0008ee 0001
          	.DW  _9aS1DRegs_G6
0008ef 04a0
          	.DW  _314*2
0008f0 0aca
         
          	.DW  0x01
0008f1 0001
          	.DW  _AaS1DRegs_G6
0008f2 04a1
          	.DW  _315*2
0008f3 0acc
         
          	.DW  0x01
0008f4 0001
          	.DW  _BaS1DRegs_G6
0008f5 04a2
          	.DW  _316*2
0008f6 0ace
         
          	.DW  0x01
0008f7 0001
          	.DW  _CaS1DRegs_G6
0008f8 04a3
          	.DW  _317*2
0008f9 0ad0
         
          	.DW  0x01
0008fa 0001
          	.DW  _EaS1DRegs_G6
0008fb 04a5
          	.DW  _318*2
0008fc 0ad2
         
          	.DW  0x01
0008fd 0001
          	.DW  _FaS1DRegs_G6
0008fe 04a6
          	.DW  _319*2
0008ff 0ad4
         
          	.DW  0x01
000900 0001
          	.DW  _10aS1DRegs_G6
000901 04a7
          	.DW  _320*2
000902 0ad6
         
          	.DW  0x01
000903 0001
          	.DW  _11aS1DRegs_G6
000904 04a8
          	.DW  _321*2
000905 0ad8
         
          	.DW  0x01
000906 0001
          	.DW  _12aS1DRegs_G6
000907 04a9
          	.DW  _322*2
000908 0ada
         
          	.DW  0x01
000909 0001
          	.DW  _13aS1DRegs_G6
00090a 04aa
          	.DW  _323*2
00090b 0adc
         
          	.DW  0x01
00090c 0001
          	.DW  _14aS1DRegs_G6
00090d 04ab
          	.DW  _324*2
00090e 0ade
         
          	.DW  0x01
00090f 0001
          	.DW  _15aS1DRegs_G6
000910 04ac
          	.DW  _325*2
000911 0ae0
         
          	.DW  0x01
000912 0001
          	.DW  _16aS1DRegs_G6
000913 04ad
          	.DW  _326*2
000914 0ae2
         
          	.DW  0x01
000915 0001
          	.DW  _18aS1DRegs_G6
000916 04af
          	.DW  _327*2
000917 0ae4
         
          	.DW  0x01
000918 0001
          	.DW  _1AaS1DRegs_G6
000919 04b1
          	.DW  _328*2
00091a 0ae6
         
          	.DW  0x01
00091b 0001
          	.DW  _1CaS1DRegs_G6
00091c 04b3
          	.DW  _329*2
00091d 0ae8
         
          	.DW  0x01
00091e 0001
          	.DW  _1EaS1DRegs_G6
00091f 04b5
          	.DW  _330*2
000920 0aea
         
          	.DW  0x01
000921 0001
          	.DW  _20aS1DRegs_G6
000922 04b7
          	.DW  _331*2
000923 0aec
         
          	.DW  0x01
000924 0001
          	.DW  _22aS1DRegs_G6
000925 04b9
          	.DW  _332*2
000926 0aee
         
          	.DW  0x01
000927 0001
          	.DW  _24aS1DRegs_G6
000928 04bb
          	.DW  _333*2
000929 0af0
         
          	.DW  0x01
00092a 0001
          	.DW  _25aS1DRegs_G6
00092b 04bc
          	.DW  _334*2
00092c 0af2
         
          	.DW  0x01
00092d 0001
          	.DW  _26aS1DRegs_G6
00092e 04bd
          	.DW  _335*2
00092f 0af4
         
          	.DW  0x01
000930 0001
          	.DW  _27aS1DRegs_G6
000931 04be
          	.DW  _336*2
000932 0af6
         
          	.DW  0x01
000933 0001
          	.DW  _28aS1DRegs_G6
000934 04bf
          	.DW  _337*2
000935 0af8
         
          	.DW  0x01
000936 0001
          	.DW  _2AaS1DRegs_G6
000937 04c1
          	.DW  _338*2
000938 0afa
         
          	.DW  0x01
000939 0001
          	.DW  _2CaS1DRegs_G6
00093a 04c3
          	.DW  _339*2
00093b 0afc
         
          	.DW  0x01
00093c 0001
          	.DW  _2EaS1DRegs_G6
00093d 04c5
          	.DW  _340*2
00093e 0afe
         
          	.DW  0x01
00093f 0001
          	.DW  _30aS1DRegs_G6
000940 04c7
          	.DW  _341*2
000941 0b00
         
          	.DW  0x01
000942 0001
          	.DW  _31aS1DRegs_G6
000943 04c8
          	.DW  _342*2
000944 0b02
         
          	.DW  0
000945 0000
         
          __RESET:
000946 94f8      	CLI
000947 27ee      	CLR  R30
000948 bbec      	OUT  EECR,R30
         
         ;INTERRUPT VECTORS ARE PLACED
         ;AT THE START OF FLASH
000949 e0f1      	LDI  R31,1
00094a bffb      	OUT  GICR,R31
00094b bfeb      	OUT  GICR,R30
00094c bfe5      	OUT  MCUCR,R30
00094d bfe6      	OUT  EMCUCR,R30
         
         ;DISABLE WATCHDOG
00094e e1f8      	LDI  R31,0x18
00094f bdf1      	OUT  WDTCR,R31
000950 bde1      	OUT  WDTCR,R30
         
         ;CLEAR R2-R14
000951 e08d      	LDI  R24,13
000952 e0a2      	LDI  R26,2
000953 27bb      	CLR  R27
          __CLEAR_REG:
000954 93ed      	ST   X+,R30
000955 958a      	DEC  R24
000956 f7e9      	BRNE __CLEAR_REG
         
         ;CLEAR SRAM
000957 e080      	LDI  R24,LOW(0x400)
000958 e094      	LDI  R25,HIGH(0x400)
000959 e0a0      	LDI  R26,LOW(0x100)
00095a e0b1      	LDI  R27,HIGH(0x100)
          __CLEAR_SRAM:
00095b 93ed      	ST   X+,R30
00095c 9701      	SBIW R24,1
00095d f7e9      	BRNE __CLEAR_SRAM
         
         ;GLOBAL VARIABLES INITIALIZATION
00095e e1e2      	LDI  R30,LOW(__GLOBAL_INI_TBL*2)
00095f e0ff      	LDI  R31,HIGH(__GLOBAL_INI_TBL*2)
          __GLOBAL_INI_NEXT:
000960 9185      	LPM  R24,Z+
000961 9195      	LPM  R25,Z+
000962 9700      	SBIW R24,0
000963 f061      	BREQ __GLOBAL_INI_END
000964 91a5      	LPM  R26,Z+
000965 91b5      	LPM  R27,Z+
000966 9005      	LPM  R0,Z+
000967 9015      	LPM  R1,Z+
000968 01bf      	MOVW R22,R30
000969 01f0      	MOVW R30,R0
          __GLOBAL_INI_LOOP:
00096a 9005      	LPM  R0,Z+
00096b 920d      	ST   X+,R0
00096c 9701      	SBIW R24,1
00096d f7e1      	BRNE __GLOBAL_INI_LOOP
00096e 01fb      	MOVW R30,R22
00096f cff0      	RJMP __GLOBAL_INI_NEXT
          __GLOBAL_INI_END:
         
         ;STACK POINTER INITIALIZATION
000970 efef      	LDI  R30,LOW(0x4FF)
000971 bfed      	OUT  SPL,R30
000972 e0e4      	LDI  R30,HIGH(0x4FF)
000973 bfee      	OUT  SPH,R30
         
         ;DATA STACK POINTER INITIALIZATION
000974 ecc8      	LDI  R28,LOW(0x1C8)
000975 e0d1      	LDI  R29,HIGH(0x1C8)
         
000976 940c 0a6d 	JMP  _main
         
          	.ESEG
          	.ORG 0
         
          	.DSEG
          	.ORG 0x1C8
         ;       1 /*****************************************************
         ;       2 This program was produced by the
         ;       3 CodeWizardAVR V1.24.6 Standard
         ;       4 Automatic Program Generator
         ;       5  Copyright 1998-2005 Pavel Haiduc, HP InfoTech s.r.l.
         ;       6 http://www.hpinfotech.com
         ;       7 e-mail:office@hpinfotech.com
         ;       8 
         ;       9 Project : LCD Test
         ;      10 Version : 
         ;      11 Date    : 22-2-2007
         ;      12 Author  : Patrick Loef                    
         ;      13 Company : -                               
         ;      14 Comments: 
         ;      15 ------------------------------------------------------
         ;      16 Version: 
         ;      17         0,1: First release 
         ;      18                 - Clear and Fill LCD
         ;      19                 - 16 colors
         ;      20         
         ;      21         0,2: Second release
         ;      22                 - Font 8x8
         ;      23                 - BMP picture working
         ;      24                 
         ;      25         0,3: Release
         ;      26                 - 256 colors text possible
         ;      27                 - separate LUT source in file
         ;      28                 - possible to define 16 or 256 colors   
         ;      29         0,4: Release
         ;      30                 - 256 color bmp picture possible
         ;      31                 - BMP LUT table compatible, no need to manual switch the RED and BLUE value
         ;      32                 - Debug information in ENGLISH
         ;      33                                                       
         ;      34         0,5: Release
         ;      35                 - Compact flash driver added
         ;      36                 - CF info present on LCD(When choosed in Terminal menu)
         ;      37                 - Application tool avaible to send BMP to CF
         ;      38                 - Draw picture from CF data to S1D13705
         ;      39                 - Terminal menu present for settings
         ;      40                 - Link menu present(When choosded in Terminal menu)
         ;      41                 - Baudrate increased to 57600, this the max of 16Mhz      
         ;      42                 - Make a define option in S1D13705.h for more info of the S1D13705
         ;      43         0,6: Release           
         ;      44                 - Mod: Increased the receiving speed a lot! This done with receive 512 bytes and then send the ready sign
         ;      45                 - Mod: Changed Blok to Page  
         ;      46                 - Mod: Changed calculation of the sector of the CF info (152 * Page) + 1, default of Page always 0
         ;      47                 - Mod: Changed Show_BMP '1 to 32' to '0 to 32' and adjusted function for that
         ;      48                 - Bug: Only Page 1 was written, error at the check function in RX_BMP_Data:
         ;      49                        the check was uncorrect, The /else Page = 1/ removed and set as default value
         ;      50                        also the i-1 function in CF_Page[i-1] changed to CF_Page[i]  
         ;      51         1.0: Release
         ;      52                 - Mod:  Function CF_Info disabled for memory programm space
         ;      53                 - Mod:  Added touchscreen driver
         ;      54                 - Mod:  Added touchscreen calibration
         ;      55                 - Mod:  Added vertical and horizontal line drawing S1D13705
         ;      56                 - Mod:  Added LTC1298(ADC) driver for touchscreen control
         ;      57                 - Mod:  When pressed on the touchscreen a cross is drawed
         ;      58                 - Mod:  Added storing calibration coeffecients and touchscreen flag register in eeprom
         ;      59                 
         ;      60 ------------------------------------------------------
         ;      61 Chip type           : ATmega162
         ;      62 Program type        : Application
         ;      63 Clock frequency     : 16,000000 MHz
         ;      64 Memory model        : Small
         ;      65 External SRAM size  : 0
         ;      66 Data Stack size     : 256
         ;      67 *****************************************************/
         ;      68 
         ;      69 #include <mega162.h>
         ;      70 #include <stdio.h> 
         ;      71 #include <delay.h> 
         ;      72 #include <string.h>
         ;      73 #include <spi.h>
         ;      74 
         ;      75 //Include niet standaard bibliotheek file's
         ;      76 #include "LCD_Test_Defs.h"
         ;      77 #include "S1D13705.h"
          _aS1DRegs_G1:
          _0aS1DRegs_G1:
0001c8      	.BYTE 0x1
          _1aS1DRegs_G1:
0001c9      	.BYTE 0x1
          _2aS1DRegs_G1:
0001ca      	.BYTE 0x1
          _3aS1DRegs_G1:
0001cb      	.BYTE 0x1
          _4aS1DRegs_G1:
0001cc      	.BYTE 0x1
          _5aS1DRegs_G1:
0001cd      	.BYTE 0x1
          _6aS1DRegs_G1:
0001ce      	.BYTE 0x1
          _7aS1DRegs_G1:
0001cf      	.BYTE 0x1
          _8aS1DRegs_G1:
0001d0      	.BYTE 0x1
          _9aS1DRegs_G1:
0001d1      	.BYTE 0x1
          _AaS1DRegs_G1:
0001d2      	.BYTE 0x1
          _BaS1DRegs_G1:
0001d3      	.BYTE 0x1
          _CaS1DRegs_G1:
0001d4      	.BYTE 0x1
          _DaS1DRegs_G1:
0001d5      	.BYTE 0x1
          _EaS1DRegs_G1:
0001d6      	.BYTE 0x1
          _FaS1DRegs_G1:
0001d7      	.BYTE 0x1
          _10aS1DRegs_G1:
0001d8      	.BYTE 0x1
          _11aS1DRegs_G1:
0001d9      	.BYTE 0x1
          _12aS1DRegs_G1:
0001da      	.BYTE 0x1
          _13aS1DRegs_G1:
0001db      	.BYTE 0x1
          _14aS1DRegs_G1:
0001dc      	.BYTE 0x1
          _15aS1DRegs_G1:
0001dd      	.BYTE 0x1
          _16aS1DRegs_G1:
0001de      	.BYTE 0x1
          _17aS1DRegs_G1:
0001df      	.BYTE 0x1
          _18aS1DRegs_G1:
0001e0      	.BYTE 0x1
          _19aS1DRegs_G1:
0001e1      	.BYTE 0x1
          _1AaS1DRegs_G1:
0001e2      	.BYTE 0x1
          _1BaS1DRegs_G1:
0001e3      	.BYTE 0x1
          _1CaS1DRegs_G1:
0001e4      	.BYTE 0x1
          _1DaS1DRegs_G1:
0001e5      	.BYTE 0x1
          _1EaS1DRegs_G1:
0001e6      	.BYTE 0x1
          _1FaS1DRegs_G1:
0001e7      	.BYTE 0x1
          _20aS1DRegs_G1:
0001e8      	.BYTE 0x1
          _21aS1DRegs_G1:
0001e9      	.BYTE 0x1
          _22aS1DRegs_G1:
0001ea      	.BYTE 0x1
          _23aS1DRegs_G1:
0001eb      	.BYTE 0x1
          _24aS1DRegs_G1:
0001ec      	.BYTE 0x1
          _25aS1DRegs_G1:
0001ed      	.BYTE 0x1
          _26aS1DRegs_G1:
0001ee      	.BYTE 0x1
          _27aS1DRegs_G1:
0001ef      	.BYTE 0x1
          _28aS1DRegs_G1:
0001f0      	.BYTE 0x1
          _29aS1DRegs_G1:
0001f1      	.BYTE 0x1
          _2AaS1DRegs_G1:
0001f2      	.BYTE 0x1
          _2BaS1DRegs_G1:
0001f3      	.BYTE 0x1
          _2CaS1DRegs_G1:
0001f4      	.BYTE 0x1
          _2DaS1DRegs_G1:
0001f5      	.BYTE 0x1
          _2EaS1DRegs_G1:
0001f6      	.BYTE 0x1
          _2FaS1DRegs_G1:
0001f7      	.BYTE 0x1
          _30aS1DRegs_G1:
0001f8      	.BYTE 0x1
          _31aS1DRegs_G1:
0001f9      	.BYTE 0x1
         ;      78 #include "S1D13705_LUT.h"       
         ;      79 #include "Font8x8.h" 
         
          	.CSEG
         ;      80 #include "cf_driver.h"  
         ;      81 #include "cf_functions.h"                     
         ;      82 #include "RX_BMP_Data.h"
         ;      83 #include "Touchscreen.h"
         ;      84 #include "ADC_LTC1298.h"
         ;      85 
         ;      86 //Global variabelen      
         ;      87 unsigned char CF_Sector_Data[512]; 
         
          	.DSEG
          _CF_Sector_Data:
0001fa      	.BYTE 0x200
         ;      88 unsigned char string[20];   
          _string:
0003fa      	.BYTE 0x14
         ;      89 unsigned char CF_Page[32];        
          _CF_Page:
00040e      	.BYTE 0x20
         ;      90 
         ;      91 //Global variabelen structere
         ;      92 typedef struct
         ;      93 {
         ;      94         unsigned char Flag_Register;
         ;      95         unsigned int X_pos;
         ;      96         unsigned int Y_pos;
         ;      97 }TouchData;
         ;      98 TouchData Touchscreen;
          _Touchscreen:
00042e      	.BYTE 0x5
         ;      99 
         ;     100 //Eeprom variabelen
         ;     101 eeprom unsigned char ee_Touch_Flag = 0;                 //Eeprom touchscreen flag register
         
          	.ESEG
          _ee_Touch_Flag:
          	.DB  0x0
000000 00
         ;     102 eeprom float ee_float1 = 0.0;           
          _ee_float1:
          	.DW  0x0
000001 00 00
          	.DW  0x0
000003 00 00
         ;     103 eeprom float ee_float2 = 0.0;
          _ee_float2:
          	.DW  0x0
000005 00 00
          	.DW  0x0
000007 00 00
         ;     104 eeprom float ee_float3 = 0.0;
          _ee_float3:
          	.DW  0x0
000009 00 00
          	.DW  0x0
00000b 00 00
         ;     105 eeprom float ee_float4 = 0.0;
          _ee_float4:
          	.DW  0x0
00000d 00 00
          	.DW  0x0
00000f 00 00
         ;     106 eeprom float ee_float5 = 0.0;
          _ee_float5:
          	.DW  0x0
000011 00 00
          	.DW  0x0
000013 00 00
         ;     107 eeprom float ee_float6 = 0.0;
          _ee_float6:
          	.DW  0x0
000015 00 00
          	.DW  0x0
000017 00 00
         ;     108 
         ;     109 
         ;     110 
         ;     111 /**************************************
         ;     112 Functie: Laad geslecteerde plaatje zien
         ;     113 **************************************/
         ;     114 void Show_BMP(void)
         ;     115 {
         
          	.CSEG
          _Show_BMP:
         ;     116         int Page_Number;
         ;     117         
         ;     118         while(1)
000978 931a      	ST   -Y,R17
000979 930a      	ST   -Y,R16
         ;	Page_Number -> R16,R17
          _0x28:
         ;     119         {
         ;     120                 printf("\n\rGive Page number(0 to 31)");
00097a   +  	__POINTW1FN _0,0
00097c 93fa      	ST   -Y,R31
00097d 93ea      	ST   -Y,R30
00097e e080      	LDI  R24,0
00097f 940e 17fc 	CALL _printf
000981 9622      	ADIW R28,2
         ;     121                 scanf("%d",&Page_Number);
000982   +  	__POINTW1FN _0,28
000984 93fa      	ST   -Y,R31
000985 93ea      	ST   -Y,R30
000986 b7ed      	IN   R30,SPL
000987 b7fe      	IN   R31,SPH
000988 940e 1da1 	CALL __PUTPARD1LDEC
00098a 931f      	PUSH R17
00098b 930f      	PUSH R16
00098c e084      	LDI  R24,4
00098d 940e 191b 	CALL _scanf
00098f 9626      	ADIW R28,6
000990 910f      	POP  R16
000991 911f      	POP  R17
         ;     122         
         ;     123                 if(Page_Number<0 | Page_Number>31)
000992   +  	__GETW2R 16,17
000994 e0e0      	LDI  R30,LOW(0)
000995 e0f0      	LDI  R31,HIGH(0)
000996 940e 1d52 	CALL __LTW12
000998 93ef      	PUSH R30
000999 e1ef      	LDI  R30,LOW(31)
00099a e0f0      	LDI  R31,HIGH(31)
00099b 940e 1d58 	CALL __GTW12
00099d 91af      	POP  R26
00099e 2bea      	OR   R30,R26
00099f f049      	BREQ _0x2B
         ;     124                         printf("\n\rNot correct between 0 and 31");
0009a0   +  	__POINTW1FN _0,31
0009a2 93fa      	ST   -Y,R31
0009a3 93ea      	ST   -Y,R30
0009a4 e080      	LDI  R24,0
0009a5 940e 17fc 	CALL _printf
0009a7 9622      	ADIW R28,2
         ;     125                 else
0009a8 c001      	RJMP _0x2C
          _0x2B:
         ;     126                         break;
0009a9 c001      	RJMP _0x2A
         ;     127         }
          _0x2C:
0009aa cfcf      	RJMP _0x28
          _0x2A:
         ;     128         
         ;     129         //Check of blok data aanwezig is
         ;     130         if(CF_Page[Page_Number] != Page_Number)
0009ab e0ae      	LDI  R26,LOW(_CF_Page)
0009ac e0b4      	LDI  R27,HIGH(_CF_Page)
0009ad 0fa0      	ADD  R26,R16
0009ae 1fb1      	ADC  R27,R17
0009af 91ac      	LD   R26,X
0009b0   +  	__GETW1R 16,17
0009b2 e0b0      	LDI  R27,0
0009b3 17ea      	CP   R30,R26
0009b4 07fb      	CPC  R31,R27
0009b5 f049      	BREQ _0x2D
         ;     131         {
         ;     132                 printf("\n\rPage %d is not present, return",Page_Number);
0009b6   +  	__POINTW1FN _0,62
0009b8 940e 193c 	CALL SUBOPT_0x0
0009ba e084      	LDI  R24,4
0009bb 940e 17fc 	CALL _printf
0009bd 9626      	ADIW R28,6
         ;     133                 return;
0009be c00f      	RJMP _0x249
         ;     134         }
         ;     135         
         ;     136         //Laat plaatje zien
         ;     137         printf("\n\rShow BMP picture: %d",Page_Number);
          _0x2D:
0009bf   +  	__POINTW1FN _0,95
0009c1 940e 193c 	CALL SUBOPT_0x0
0009c3 e084      	LDI  R24,4
0009c4 940e 17fc 	CALL _printf
0009c6 9626      	ADIW R28,6
         ;     138         
         ;     139         CF_Draw_Pic(0,0,Page_Number);
0009c7 e0e0      	LDI  R30,LOW(0)
0009c8 e0f0      	LDI  R31,HIGH(0)
0009c9 93fa      	ST   -Y,R31
0009ca 93ea      	ST   -Y,R30
0009cb 940e 193c 	CALL SUBOPT_0x0
0009cd d57a      	RCALL _CF_Draw_Pic
         ;     140         
         ;     141         return;
          _0x249:
0009ce 9109      	LD   R16,Y+
0009cf 9119      	LD   R17,Y+
0009d0 9508      	RET
         ;     142 }
         ;     143 //*************************************
         ;     144 
         ;     145 /************************************** 
         ;     146 External Interrupt 0 service routine  
         ;     147 **************************************/
         ;     148 interrupt [EXT_INT0] void ext_int0_isr(void)
         ;     149 {
          _ext_int0_isr:
0009d1 920a      	ST   -Y,R0
0009d2 921a      	ST   -Y,R1
0009d3 92fa      	ST   -Y,R15
0009d4 936a      	ST   -Y,R22
0009d5 937a      	ST   -Y,R23
0009d6 938a      	ST   -Y,R24
0009d7 939a      	ST   -Y,R25
0009d8 93aa      	ST   -Y,R26
0009d9 93ba      	ST   -Y,R27
0009da 93ea      	ST   -Y,R30
0009db 93fa      	ST   -Y,R31
0009dc b7ef      	IN   R30,SREG
0009dd 93ea      	ST   -Y,R30
         ;     150         unsigned long int i;
         ;     151         unsigned int c;
         ;     152         
         ;     153         //Interupt uit
         ;     154         GICR &= ~(1<<INT0);                             
0009de 940e 1945 	CALL SUBOPT_0x1
         ;	i -> Y+2
         ;	c -> R16,R17
0009e0 b7eb      	IN   R30,0x3B
0009e1 7bef      	ANDI R30,0xBF
0009e2 bfeb      	OUT  0x3B,R30
         ;     155         
         ;     156         if((Touchscreen.Flag_Register & (1<<TouchCalProcess)) == (1<<TouchCalProcess))                          //Als calibratie bezig is dan terug Flag zetten en terug gaan
0009e3 91e0 042e 	LDS  R30,_Touchscreen
0009e5 70e4      	ANDI R30,LOW(0x4)
0009e6 30e4      	CPI  R30,LOW(0x4)
0009e7 f459      	BRNE _0x2E
         ;     157         {
         ;     158                 Touchscreen.Flag_Register |= (1<<TouchPressed);                 //Zet TouchPress flag
0009e8 940e 1949 	CALL SUBOPT_0x2
         ;     159                 printf("\n\rTouchPressed");
0009ea   +  	__POINTW1FN _0,118
0009ec 93fa      	ST   -Y,R31
0009ed 93ea      	ST   -Y,R30
0009ee e080      	LDI  R24,0
0009ef 940e 17fc 	CALL _printf
0009f1 9622      	ADIW R28,2
         ;     160         }
         ;     161         else
0009f2 c00e      	RJMP _0x2F
          _0x2E:
         ;     162         {
         ;     163                 Touchscreen.Flag_Register |= (1<<TouchPressed);                 //Zet TouchPress flag
0009f3 940e 1949 	CALL SUBOPT_0x2
         ;     164                 
         ;     165                 Touchscreen_XY_positie();                                       //Meet XY postie
0009f5 940e 1321 	CALL _Touchscreen_XY_positie
         ;     166                 printf("\n\rTouchPressed");
0009f7   +  	__POINTW1FN _0,118
0009f9 93fa      	ST   -Y,R31
0009fa 93ea      	ST   -Y,R30
0009fb e080      	LDI  R24,0
0009fc 940e 17fc 	CALL _printf
0009fe 9622      	ADIW R28,2
         ;     167 
         ;     168                 GIFR |= (1<<INT0);                                              //Erase bit so that no interupt is generated 
0009ff 940e 194f 	CALL SUBOPT_0x3
         ;     169                 GICR |= (1<<INT0);                                              //Enable the INT0 request
         ;     170         }
          _0x2F:
         ;     171 
         ;     172         if((Touchscreen.Flag_Register & (1<<XY_Value)) == (1<<XY_Value))
000a01 91e0 042e 	LDS  R30,_Touchscreen
000a03 70e8      	ANDI R30,LOW(0x8)
000a04 30e8      	CPI  R30,LOW(0x8)
000a05 f491      	BRNE _0x30
         ;     173         {
         ;     174                // printf("\n\rX: %d, Y: %d",Touchscreen.X_pos,Touchscreen.Y_pos);
         ;     175                 Touchscreen.Flag_Register &= ~(XY_Value);
000a06 91e0 042e 	LDS  R30,_Touchscreen
000a08 7fec      	ANDI R30,LOW(0xFC)
000a09 93e0 042e 	STS  _Touchscreen,R30
         ;     176                 TouchscreenTest(Touchscreen.X_pos,Touchscreen.Y_pos);
000a0b   +  	__GETW1MN _Touchscreen,1
000a0f 93fa      	ST   -Y,R31
000a10 93ea      	ST   -Y,R30
000a11   +  	__GETW1MN _Touchscreen,3
000a15 93fa      	ST   -Y,R31
000a16 93ea      	ST   -Y,R30
000a17 d011      	RCALL _TouchscreenTest
         ;     177         }
         ;     178                 
         ;     179 }
          _0x30:
000a18 8119      	LDD  R17,Y+1
000a19 8108      	LDD  R16,Y+0
000a1a 9626      	ADIW R28,6
000a1b 91e9      	LD   R30,Y+
000a1c bfef      	OUT  SREG,R30
000a1d 91f9      	LD   R31,Y+
000a1e 91e9      	LD   R30,Y+
000a1f 91b9      	LD   R27,Y+
000a20 91a9      	LD   R26,Y+
000a21 9199      	LD   R25,Y+
000a22 9189      	LD   R24,Y+
000a23 9179      	LD   R23,Y+
000a24 9169      	LD   R22,Y+
000a25 90f9      	LD   R15,Y+
000a26 9019      	LD   R1,Y+
000a27 9009      	LD   R0,Y+
000a28 9518      	RETI
         ;     180 //*************************************
         ;     181   
         ;     182 void TouchscreenTest(unsigned int X, unsigned int Y)
         ;     183 {
          _TouchscreenTest:
         ;     184         static unsigned int Xbak;
         
          	.DSEG
         
          	.CSEG
         ;     185         static unsigned int Ybak;  
         
          	.DSEG
         
          	.CSEG
         ;     186         
         ;     187         S1D13705_Draw_Horizontal_Line(X-3,X+3,Y,0);                             //Instellen als X(begin), X1(eind), Y, kleur
000a29 81ea      	LDD  R30,Y+2
000a2a 81fb      	LDD  R31,Y+2+1
000a2b 940e 1956 	CALL SUBOPT_0x4
000a2d 81ee      	LDD  R30,Y+6
000a2e 81ff      	LDD  R31,Y+6+1
000a2f 940e 195c 	CALL SUBOPT_0x5
000a31 85e8      	LDD  R30,Y+8
000a32 85f9      	LDD  R31,Y+8+1
000a33 2766      	CLR  R22
000a34 2777      	CLR  R23
000a35 940e 1962 	CALL SUBOPT_0x6
         ;     188         S1D13705_Draw_Vertical_Line(X,Y-3,Y+3,0);                               //Instellen als X, Y(begin), Y1(eind), kleur     
000a37 81ea      	LDD  R30,Y+2
000a38 81fb      	LDD  R31,Y+2+1
000a39 2766      	CLR  R22
000a3a 2777      	CLR  R23
000a3b 940e 1da4 	CALL __PUTPARD1
000a3d 81ec      	LDD  R30,Y+4
000a3e 81fd      	LDD  R31,Y+4+1
000a3f 940e 1956 	CALL SUBOPT_0x4
000a41 85e8      	LDD  R30,Y+8
000a42 85f9      	LDD  R31,Y+8+1
000a43 940e 195c 	CALL SUBOPT_0x5
000a45 940e 1968 	CALL SUBOPT_0x7
         ;     189         
         ;     190         S1D13705_Draw_Horizontal_Line(Xbak-3,Xbak+3,Ybak,15);                   //Instellen als X(begin), X1(eind), Y, kleur
000a47   +  	__GETW1R 4,5
000a49 940e 1956 	CALL SUBOPT_0x4
000a4b   +  	__GETW1R 4,5
000a4d 940e 195c 	CALL SUBOPT_0x5
000a4f   +  	__GETW1R 6,7
000a51 2766      	CLR  R22
000a52 2777      	CLR  R23
000a53 940e 196c 	CALL SUBOPT_0x8
000a55 d2ba      	RCALL _S1D13705_Draw_Horizontal_Line
         ;     191         S1D13705_Draw_Vertical_Line(Xbak,Ybak-3,Ybak+3,15);                     //Instellen als X, Y(begin), Y1(eind), kleur      
000a56   +  	__GETW1R 4,5
000a58 2766      	CLR  R22
000a59 2777      	CLR  R23
000a5a 940e 1da4 	CALL __PUTPARD1
000a5c   +  	__GETW1R 6,7
000a5e 940e 1956 	CALL SUBOPT_0x4
000a60   +  	__GETW1R 6,7
000a62 940e 195c 	CALL SUBOPT_0x5
000a64 e0ef      	LDI  R30,LOW(15)
000a65 93ea      	ST   -Y,R30
000a66 d303      	RCALL _S1D13705_Draw_Vertical_Line
         ;     192         
         ;     193         Xbak = X;
000a67   +  	__GETWRS 4,5,2
         ;     194         Ybak = Y;
000a69   +  	__GETWRS 6,7,0
         ;     195         return;
000a6b 9624      	ADIW R28,4
000a6c 9508      	RET
         ;     196 }
         ;     197 
         ;     198 /**************************************
         ;     199 Functie: MAIN
         ;     200 **************************************/
         ;     201 void main(void)
         ;     202 {
          _main:
         ;     203 // Declare your local variables here
         ;     204 
         ;     205 #ifdef Info_S1D13705
         ;     206 unsigned char r;
         ;     207 unsigned char g;
         ;     208 unsigned char b;
         ;     209 #endif
         ;     210 
         ;     211 unsigned char Blok_Data;
         ;     212 unsigned char i;  
         ;     213 unsigned int T_waarde;  
         ;     214 
         ;     215 
         ;     216 // Crystal Oscillator division factor: 1
         ;     217 #pragma optsize-
         ;     218 CLKPR=0x80;
         ;	Blok_Data -> R16
         ;	i -> R17
         ;	T_waarde -> R18,R19
000a6d e8e0      	LDI  R30,LOW(128)
000a6e 93e0 0061 	STS  0x61,R30
         ;     219 CLKPR=0x00;
000a70 e0e0      	LDI  R30,LOW(0)
000a71 93e0 0061 	STS  0x61,R30
         ;     220 #ifdef _OPTIMIZE_SIZE_
         ;     221 #pragma optsize+
         ;     222 #endif
         ;     223 
         ;     224 // Input/Output Ports initialization
         ;     225 // Port A initialization
         ;     226 // Func7=Out Func6=Out Func5=Out Func4=Out Func3=Out Func2=Out Func1=Out Func0=Out 
         ;     227 // State7=0 State6=0 State5=0 State4=0 State3=0 State2=0 State1=0 State0=0 
         ;     228 PORTA=0x00;
000a73 bbeb      	OUT  0x1B,R30
         ;     229 DDRA=0xFF;
000a74 efef      	LDI  R30,LOW(255)
000a75 bbea      	OUT  0x1A,R30
         ;     230 
         ;     231 // Port B initialization
         ;     232 // Func7=In Func6=In Func5=In Func4=Out Func3=Out Func2=Out Func1=Out Func0=Out 
         ;     233 // State7=T State6=T State5=T State4=0 State3=0 State2=1 State1=1 State0=1 
         ;     234 PORTB=0x07;
000a76 e0e7      	LDI  R30,LOW(7)
000a77 bbe8      	OUT  0x18,R30
         ;     235 DDRB=0xBF;
000a78 ebef      	LDI  R30,LOW(191)
000a79 bbe7      	OUT  0x17,R30
         ;     236 
         ;     237 // Port C initialization
         ;     238 // Func7=Out Func6=Out Func5=Out Func4=Out Func3=Out Func2=Out Func1=Out Func0=Out 
         ;     239 // State7=0 State6=0 State5=0 State4=0 State3=0 State2=0 State1=0 State0=0 
         ;     240 PORTC=0x00;
000a7a e0e0      	LDI  R30,LOW(0)
000a7b bbe5      	OUT  0x15,R30
         ;     241 DDRC=0xFF;
000a7c efef      	LDI  R30,LOW(255)
000a7d bbe4      	OUT  0x14,R30
         ;     242 
         ;     243 // Port D initialization
         ;     244 // Func7=Out Func6=Out Func5=Out Func4=Out Func3=Out Func2=In Func1=In Func0=In 
         ;     245 // State7=1 State6=1 State5=1 State4=1 State3=1 State2=T State1=T State0=T 
         ;     246 PORTD=0xF0;
000a7e efe0      	LDI  R30,LOW(240)
000a7f bbe2      	OUT  0x12,R30
         ;     247 DDRD=0xF8;
000a80 efe8      	LDI  R30,LOW(248)
000a81 bbe1      	OUT  0x11,R30
         ;     248 
         ;     249 // Port E initialization
         ;     250 // Func2=Out Func1=Out Func0=In 
         ;     251 // State2=0 State1=0 State0=T 
         ;     252 PORTE=0x00;
000a82 e0e0      	LDI  R30,LOW(0)
000a83 b9e7      	OUT  0x7,R30
         ;     253 DDRE=0x06;
000a84 e0e6      	LDI  R30,LOW(6)
000a85 b9e6      	OUT  0x6,R30
         ;     254 
         ;     255 // Timer/Counter 0 initialization
         ;     256 // Clock source: System Clock
         ;     257 // Clock value: Timer 0 Stopped
         ;     258 // Mode: Normal top=FFh
         ;     259 // OC0 output: Disconnected
         ;     260 TCCR0=0x00;
000a86 e0e0      	LDI  R30,LOW(0)
000a87 bfe3      	OUT  0x33,R30
         ;     261 TCNT0=0x00;
000a88 bfe2      	OUT  0x32,R30
         ;     262 OCR0=0x00;
000a89 bfe1      	OUT  0x31,R30
         ;     263 
         ;     264 // Timer/Counter 1 initialization
         ;     265 // Clock source: System Clock
         ;     266 // Clock value: Timer 1 Stopped
         ;     267 // Mode: Normal top=FFFFh
         ;     268 // OC1A output: Discon.
         ;     269 // OC1B output: Discon.
         ;     270 // Noise Canceler: Off
         ;     271 // Input Capture on Falling Edge
         ;     272 // Timer 1 Overflow Interrupt: Off
         ;     273 // Input Capture Interrupt: Off
         ;     274 // Compare A Match Interrupt: Off
         ;     275 // Compare B Match Interrupt: Off
         ;     276 TCCR1A=0x00;
000a8a bdef      	OUT  0x2F,R30
         ;     277 TCCR1B=0x00;
000a8b bdee      	OUT  0x2E,R30
         ;     278 TCNT1H=0x00;
000a8c bded      	OUT  0x2D,R30
         ;     279 TCNT1L=0x00;
000a8d bdec      	OUT  0x2C,R30
         ;     280 ICR1H=0x00;
000a8e bde5      	OUT  0x25,R30
         ;     281 ICR1L=0x00;
000a8f bde4      	OUT  0x24,R30
         ;     282 OCR1AH=0x00;
000a90 bdeb      	OUT  0x2B,R30
         ;     283 OCR1AL=0x00;
000a91 bdea      	OUT  0x2A,R30
         ;     284 OCR1BH=0x00;
000a92 bde9      	OUT  0x29,R30
         ;     285 OCR1BL=0x00;
000a93 bde8      	OUT  0x28,R30
         ;     286 
         ;     287 // Timer/Counter 2 initialization
         ;     288 // Clock source: System Clock
         ;     289 // Clock value: Timer 2 Stopped
         ;     290 // Mode: Normal top=FFh
         ;     291 // OC2 output: Disconnected
         ;     292 ASSR=0x00;
000a94 bde6      	OUT  0x26,R30
         ;     293 TCCR2=0x00;
000a95 bde7      	OUT  0x27,R30
         ;     294 TCNT2=0x00;
000a96 bde3      	OUT  0x23,R30
         ;     295 OCR2=0x00;
000a97 bde2      	OUT  0x22,R30
         ;     296 
         ;     297 // Timer/Counter 3 initialization
         ;     298 // Clock value: Timer 3 Stopped
         ;     299 // Mode: Normal top=FFFFh
         ;     300 // Noise Canceler: Off
         ;     301 // Input Capture on Falling Edge
         ;     302 // OC3A output: Discon.
         ;     303 // OC3B output: Discon.
         ;     304 // Timer 3 Overflow Interrupt: Off
         ;     305 // Input Capture Interrupt: Off
         ;     306 // Compare A Match Interrupt: Off
         ;     307 // Compare B Match Interrupt: Off
         ;     308 TCCR3A=0x00;
000a98 93e0 008b 	STS  0x8B,R30
         ;     309 TCCR3B=0x00;
000a9a 93e0 008a 	STS  0x8A,R30
         ;     310 TCNT3H=0x00;
000a9c 93e0 0089 	STS  0x89,R30
         ;     311 TCNT3L=0x00;
000a9e 93e0 0088 	STS  0x88,R30
         ;     312 ICR3H=0x00;
000aa0 93e0 0081 	STS  0x81,R30
         ;     313 ICR3L=0x00;
000aa2 93e0 0080 	STS  0x80,R30
         ;     314 OCR3AH=0x00;
000aa4 93e0 0087 	STS  0x87,R30
         ;     315 OCR3AL=0x00;
000aa6 93e0 0086 	STS  0x86,R30
         ;     316 OCR3BH=0x00;
000aa8 93e0 0085 	STS  0x85,R30
         ;     317 OCR3BL=0x00;
000aaa 93e0 0084 	STS  0x84,R30
         ;     318 
         ;     319 // External Interrupt(s) initialization
         ;     320 // INT0: Off
         ;     321 // INT0 Mode: Falling Edge
         ;     322 // INT1: Off
         ;     323 // INT2: Off
         ;     324 // Interrupt on any change on pins PCINT0-7: Off
         ;     325 // Interrupt on any change on pins PCINT8-15: Off
         ;     326 GICR=0x00;
000aac bfeb      	OUT  0x3B,R30
         ;     327 MCUCR=0x02;
000aad e0e2      	LDI  R30,LOW(2)
000aae bfe5      	OUT  0x35,R30
         ;     328 EMCUCR=0x00;
000aaf e0e0      	LDI  R30,LOW(0)
000ab0 bfe6      	OUT  0x36,R30
         ;     329 
         ;     330 // Timer(s)/Counter(s) Interrupt(s) initialization
         ;     331 TIMSK=0x00;
000ab1 bfe9      	OUT  0x39,R30
         ;     332 ETIMSK=0x00;
000ab2 93e0 007d 	STS  0x7D,R30
         ;     333 
         ;     334 // USART0 initialization
         ;     335 // Communication Parameters: 8 Data, 1 Stop, No Parity
         ;     336 // USART0 Receiver: On
         ;     337 // USART0 Transmitter: On
         ;     338 // USART0 Mode: Asynchronous
         ;     339 // USART0 Baud rate: 57600 (Double Speed Mode)
         ;     340 UCSR0A=0x02;
000ab4 e0e2      	LDI  R30,LOW(2)
000ab5 b9eb      	OUT  0xB,R30
         ;     341 UCSR0B=0x18;
000ab6 e1e8      	LDI  R30,LOW(24)
000ab7 b9ea      	OUT  0xA,R30
         ;     342 UCSR0C=0x86;
000ab8 e8e6      	LDI  R30,LOW(134)
000ab9 bde0      	OUT  0x20,R30
         ;     343 UBRR0H=0x00;
000aba e0e0      	LDI  R30,LOW(0)
000abb bde0      	OUT  0x20,R30
         ;     344 UBRR0L=0x22;
000abc e2e2      	LDI  R30,LOW(34)
000abd b9e9      	OUT  0x9,R30
         ;     345 
         ;     346 // SPI initialization
         ;     347 // SPI Type: Master
         ;     348 // SPI Clock Rate: 125 kHz
         ;     349 // SPI Clock Phase: Cycle Start
         ;     350 // SPI Clock Polarity: High
         ;     351 // SPI Data Order: MSB First
         ;     352 SPCR=0x13;
000abe e1e3      	LDI  R30,LOW(19)
000abf b9ed      	OUT  0xD,R30
         ;     353 SPSR=0x00;
000ac0 e0e0      	LDI  R30,LOW(0)
000ac1 b9ee      	OUT  0xE,R30
         ;     354 
         ;     355 // Analog Comparator initialization
         ;     356 // Analog Comparator: Off
         ;     357 // Analog Comparator Input Capture by Timer/Counter 1: Off
         ;     358 ACSR=0x80;
000ac2 e8e0      	LDI  R30,LOW(128)
000ac3 b9e8      	OUT  0x8,R30
         ;     359 //*************************************
         ;     360 
         ;     361 /**************************************
         ;     362              Main program
         ;     363 **************************************/
         ;     364 
         ;     365         #asm("sei");                                            //Enable the global interupt.
000ac4 9478      	sei
         ;     366         
         ;     367         //Init de compact flash
         ;     368         CF_Init();
000ac5 d322      	RCALL _CF_Init
         ;     369         
         ;     370         //Init Touchscreen
         ;     371         Touchscreen_Init();
000ac6 d77a      	RCALL _Touchscreen_Init
         ;     372         
         ;     373         
         ;     374         printf("\n\rHello World!!\n\r");
000ac7   +  	__POINTW1FN _0,133
000ac9 93fa      	ST   -Y,R31
000aca 93ea      	ST   -Y,R30
000acb e080      	LDI  R24,0
000acc 940e 17fc 	CALL _printf
000ace 9622      	ADIW R28,2
         ;     375         printf("\n\rS1D13705 test programm V:0.6");
000acf   +  	__POINTW1FN _0,151
000ad1 93fa      	ST   -Y,R31
000ad2 93ea      	ST   -Y,R30
000ad3 e080      	LDI  R24,0
000ad4 940e 17fc 	CALL _printf
000ad6 9622      	ADIW R28,2
         ;     376         printf("\n\rS1D13705 Reset and Init");
000ad7   +  	__POINTW1FN _0,182
000ad9 93fa      	ST   -Y,R31
000ada 93ea      	ST   -Y,R30
000adb e080      	LDI  R24,0
000adc 940e 17fc 	CALL _printf
000ade 9622      	ADIW R28,2
         ;     377         
         ;     378         //Reset en init de S1D13705
         ;     379         S1D13705_Reset();
000adf d2e3      	RCALL _S1D13705_Reset
         ;     380         S1D13705_Init();
000ae0 d12b      	RCALL _S1D13705_Init
         ;     381         
         ;     382         printf("\n\rS1D13705 ID: %x", i = S1D13705_Read_Register(0));
000ae1   +  	__POINTW1FN _0,208
000ae3 940e 1971 	CALL SUBOPT_0x9
000ae5 d117      	RCALL _S1D13705_Read_Register
000ae6 2f1e      	MOV  R17,R30
000ae7 27ff      	CLR  R31
000ae8 2766      	CLR  R22
000ae9 2777      	CLR  R23
000aea 940e 1da4 	CALL __PUTPARD1
000aec e084      	LDI  R24,4
000aed 940e 17fc 	CALL _printf
000aef 9626      	ADIW R28,6
         ;     383         
         ;     384         #ifdef Info_S1D13705  
         ;     385         for(i=1;i<29;i++)
         ;     386                 printf("\n\rRegister: %x, value: %x",i, data = S1D13705_Read_Register(i));
         ;     387         
         ;     388         //Lees LUT tabel
         ;     389         S1D13705_Write_Register(0x15,0x00);
         ;     390         for(i=0;i<16;i++)
         ;     391         {
         ;     392                 S1D13705_Write_Register(0x15,i);                //Selecteer LUT adress register
         ;     393 
         ;     394                 r = S1D13705_Read_Register(0x17);               //Lees de rode kleur
         ;     395                 g = S1D13705_Read_Register(0x17);               //Lees de groene kleur
         ;     396                 b = S1D13705_Read_Register(0x17);               //Lees de blauwe kleur
         ;     397                 printf("\n\rRed: %x, Green: %x, Blue: %x",r,g,b);                   
         ;     398         }
         ;     399         #endif
         ;     400         
         ;     401         printf("\n\rS1D13705 init done\n\r");
000af0   +  	__POINTW1FN _0,226
000af2 93fa      	ST   -Y,R31
000af3 93ea      	ST   -Y,R30
000af4 e080      	LDI  R24,0
000af5 940e 17fc 	CALL _printf
000af7 9622      	ADIW R28,2
         ;     402 
         ;     403 
         ;     404         //Clear het scherm
         ;     405         S1D13705_Clear_LCD();
000af8 d2bb      	RCALL _S1D13705_Clear_LCD
         ;     406         
         ;     407         //Zet LCD voeding aan
         ;     408         LCD_PWR_ON;
000af9 9a93      	SBI  0x12,3
         ;     409         
         ;     410         //Check CompactFlash en lees blok informatie uit
         ;     411         sprintf(string,"Hello World!");
000afa efea      	LDI  R30,LOW(_string)
000afb e0f3      	LDI  R31,HIGH(_string)
000afc 93fa      	ST   -Y,R31
000afd 93ea      	ST   -Y,R30
000afe   +  	__POINTW1FN _0,249
000b00 93fa      	ST   -Y,R31
000b01 93ea      	ST   -Y,R30
000b02 e080      	LDI  R24,0
000b03 940e 1976 	CALL SUBOPT_0xA
         ;     412         S1D13705_Text_LCD(1,0,string,0);                       //Center tekst = (ScanlineBytes/2) - ((Lengestring*8)/4)   
000b05   +  	__GETD1N 0x0
000b09 940e 197f 	CALL SUBOPT_0xB
000b0b 940e 1984 	CALL SUBOPT_0xC
         ;     413         
         ;     414         sprintf(string,"Make use of the terminal for settings");
000b0d   +  	__POINTW1FN _0,262
000b0f 93fa      	ST   -Y,R31
000b10 93ea      	ST   -Y,R30
000b11 e080      	LDI  R24,0
000b12 940e 1976 	CALL SUBOPT_0xA
         ;     415         S1D13705_Text_LCD(1,2,string,0);    
000b14   +  	__GETD1N 0x2
000b18 940e 197f 	CALL SUBOPT_0xB
000b1a d114      	RCALL _S1D13705_Text_LCD
         ;     416         
         ;     417         //Check of touchscreen is gekalibreerdt
         ;     418         if((Touchscreen.Flag_Register & (1<<TouchCalibratie)) == 0)   
000b1b 91e0 042e 	LDS  R30,_Touchscreen
000b1d 70e2      	ANDI R30,LOW(0x2)
000b1e f439      	BRNE _0x31
         ;     419         {
         ;     420                 printf("Touchscreen niet geijkt, ga nu ijken");
000b1f   +  	__POINTW1FN _0,300
000b21 93fa      	ST   -Y,R31
000b22 93ea      	ST   -Y,R30
000b23 e080      	LDI  R24,0
000b24 940e 198b 	CALL SUBOPT_0xD
         ;     421                 Touchscreen_Calibratie();
         ;     422         }
         ;     423         
         ;     424         //Hoofdmenu op de terminal
         ;     425         while(1)                
          _0x31:
          _0x32:
         ;     426         {
         ;     427                 T_waarde = 0;
000b26   +  	__GETWRN 18,19,0
         ;     428                 //Check eerst of er blok data aanwezig is
         ;     429                 Blok_Data = CF_Check_Blok_Data();
000b28 d3d6      	RCALL _CF_Check_Blok_Data
000b29 2f0e      	MOV  R16,R30
         ;     430                 
         ;     431                 printf("\n\rMain Menu");
000b2a   +  	__POINTW1FN _0,337
000b2c 93fa      	ST   -Y,R31
000b2d 93ea      	ST   -Y,R30
000b2e e080      	LDI  R24,0
000b2f 940e 17fc 	CALL _printf
000b31 9622      	ADIW R28,2
         ;     432                 printf("\n\r1. Link menu");
000b32   +  	__POINTW1FN _0,349
000b34 93fa      	ST   -Y,R31
000b35 93ea      	ST   -Y,R30
000b36 e080      	LDI  R24,0
000b37 940e 17fc 	CALL _printf
000b39 9622      	ADIW R28,2
         ;     433                 printf("\n\r2. Read info CF");
000b3a   +  	__POINTW1FN _0,364
000b3c 93fa      	ST   -Y,R31
000b3d 93ea      	ST   -Y,R30
000b3e e080      	LDI  R24,0
000b3f 940e 17fc 	CALL _printf
000b41 9622      	ADIW R28,2
         ;     434                 printf("\n\r3. Delete data on CF");
000b42   +  	__POINTW1FN _0,382
000b44 93fa      	ST   -Y,R31
000b45 93ea      	ST   -Y,R30
000b46 e080      	LDI  R24,0
000b47 940e 17fc 	CALL _printf
000b49 9622      	ADIW R28,2
         ;     435                 printf("\n\r4. Show Picture of selected Blok");
000b4a   +  	__POINTW1FN _0,405
000b4c 93fa      	ST   -Y,R31
000b4d 93ea      	ST   -Y,R30
000b4e e080      	LDI  R24,0
000b4f 940e 17fc 	CALL _printf
000b51 9622      	ADIW R28,2
         ;     436                 printf("\n\r5. Touchscreen Calibration\n\r");
000b52   +  	__POINTW1FN _0,440
000b54 93fa      	ST   -Y,R31
000b55 93ea      	ST   -Y,R30
000b56 e080      	LDI  R24,0
000b57 940e 17fc 	CALL _printf
000b59 9622      	ADIW R28,2
         ;     437                 printf("\n\rPage data present: %d",Blok_Data);
000b5a   +  	__POINTW1FN _0,471
000b5c 940e 198f 	CALL SUBOPT_0xE
000b5e e084      	LDI  R24,4
000b5f 940e 17fc 	CALL _printf
000b61 9626      	ADIW R28,6
         ;     438                 
         ;     439                 i = getchar();
000b62 940e 16a4 	CALL _getchar
000b64 2f1e      	MOV  R17,R30
         ;     440                 
         ;     441                 switch(i)
000b65 2fe1      	MOV  R30,R17
         ;     442                 {
         ;     443                         case '1':
000b66 33e1      	CPI  R30,LOW(0x31)
000b67 f451      	BRNE _0x38
         ;     444                                 printf("\n\rGo to link menu");
000b68   +  	__POINTW1FN _0,495
000b6a 93fa      	ST   -Y,R31
000b6b 93ea      	ST   -Y,R30
000b6c e080      	LDI  R24,0
000b6d 940e 17fc 	CALL _printf
000b6f 9622      	ADIW R28,2
         ;     445                                 Receive_BMP_Data();
000b70 d534      	RCALL _Receive_BMP_Data
         ;     446                                 break;
000b71 c02f      	RJMP _0x37
         ;     447                         case '2':
          _0x38:
000b72 33e2      	CPI  R30,LOW(0x32)
000b73 f169      	BREQ _0x37
         ;     448                               //  printf("\n\rCheck CF card, info on LCD");
         ;     449                               //  CF_Read_Info();
         ;     450                                 break;
         ;     451                         case '3':
000b74 33e3      	CPI  R30,LOW(0x33)
000b75 f491      	BRNE _0x3A
         ;     452                                 printf("\n\rDelete data on CF wait..");
000b76   +  	__POINTW1FN _0,513
000b78 93fa      	ST   -Y,R31
000b79 93ea      	ST   -Y,R30
000b7a e080      	LDI  R24,0
000b7b 940e 17fc 	CALL _printf
000b7d 9622      	ADIW R28,2
         ;     453                                 CF_Delete_Data();
000b7e d4dc      	RCALL _CF_Delete_Data
         ;     454                                 printf("\n\rData on CF deleted");
000b7f   +  	__POINTW1FN _0,540
000b81 93fa      	ST   -Y,R31
000b82 93ea      	ST   -Y,R30
000b83 e080      	LDI  R24,0
000b84 940e 17fc 	CALL _printf
000b86 9622      	ADIW R28,2
         ;     455                                 break;
000b87 c019      	RJMP _0x37
         ;     456                         case '4':
          _0x3A:
000b88 33e4      	CPI  R30,LOW(0x34)
000b89 f471      	BRNE _0x3B
         ;     457                                 if(Blok_Data == 0)
000b8a 3000      	CPI  R16,0
000b8b f449      	BRNE _0x3C
         ;     458                                         printf("\n\rNo data present on CF");
000b8c   +  	__POINTW1FN _0,561
000b8e 93fa      	ST   -Y,R31
000b8f 93ea      	ST   -Y,R30
000b90 e080      	LDI  R24,0
000b91 940e 17fc 	CALL _printf
000b93 9622      	ADIW R28,2
         ;     459                                 else
000b94 c002      	RJMP _0x3D
          _0x3C:
         ;     460                                         Show_BMP();
000b95 940e 0978 	CALL _Show_BMP
         ;     461                                 break;
          _0x3D:
000b97 c009      	RJMP _0x37
         ;     462                         case '5':
          _0x3B:
000b98 33e5      	CPI  R30,LOW(0x35)
000b99 f439      	BRNE _0x37
         ;     463                                 printf("\n\rTouchscreen calibration");
000b9a   +  	__POINTW1FN _0,585
000b9c 93fa      	ST   -Y,R31
000b9d 93ea      	ST   -Y,R30
000b9e e080      	LDI  R24,0
000b9f 940e 198b 	CALL SUBOPT_0xD
         ;     464                                 Touchscreen_Calibratie();
         ;     465                                 break;                        
         ;     466                 }
          _0x37:
         ;     467         }
000ba1 cf84      	RJMP _0x32
         ;     468         
         ;     469                      
         ;     470         
         ;     471         
         ;     472         while (1);
          _0x3F:
000ba2 cfff      	RJMP _0x3F
         ;     473 }
          _0x42:
000ba3 0000      	NOP
000ba4 cffe      	RJMP _0x42
         ;     474 /**************************************
         ;     475 S1D13705 Driver
         ;     476 
         ;     477 Functie's:
         ;     478 - Lezen en schrijven via Latch naar S1D13705
         ;     479 - Lezen register
         ;     480 - Schrijven register
         ;     481 - Lezen geheugen
         ;     482 - Schrijven geheugen                    
         ;     483 
         ;     484 Versie:
         ;     485         0,1: First release 
         ;     486                 - Clear and Fill LCD
         ;     487                 - 16 colors
         ;     488         
         ;     489         0,2: Second release
         ;     490                 - Font 8x8
         ;     491                 - BMP picture working
         ;     492                 
         ;     493         0,3: Release
         ;     494                 - 256 colors text possible
         ;     495                 - separate LUT source in file
         ;     496                 - possible to define 16 or 256 colors   
         ;     497         0,4: Release
         ;     498                 - 256 color bmp picture possible
         ;     499                 - BMP LUT table compatible, no need to manual switch the RED and BLUE value
         ;     500                 - Debug information in ENGLISH
         ;     501 **************************************/
         ;     502 
         ;     503 /*************************************
         ;     504         Include header file's                   
         ;     505 *************************************/
         ;     506 #include "LCD_Test_Defs.h"
         ;     507 #include "S1D13705.h" 
         
          	.DSEG
          _aS1DRegs_G2:
          _0aS1DRegs_G2:
000433      	.BYTE 0x1
          _1aS1DRegs_G2:
000434      	.BYTE 0x1
          _2aS1DRegs_G2:
000435      	.BYTE 0x1
          _3aS1DRegs_G2:
000436      	.BYTE 0x1
          _4aS1DRegs_G2:
000437      	.BYTE 0x1
          _5aS1DRegs_G2:
000438      	.BYTE 0x1
          _6aS1DRegs_G2:
000439      	.BYTE 0x1
          _7aS1DRegs_G2:
00043a      	.BYTE 0x1
          _8aS1DRegs_G2:
00043b      	.BYTE 0x1
          _9aS1DRegs_G2:
00043c      	.BYTE 0x1
          _AaS1DRegs_G2:
00043d      	.BYTE 0x1
          _BaS1DRegs_G2:
00043e      	.BYTE 0x1
          _CaS1DRegs_G2:
00043f      	.BYTE 0x1
          _DaS1DRegs_G2:
000440      	.BYTE 0x1
          _EaS1DRegs_G2:
000441      	.BYTE 0x1
          _FaS1DRegs_G2:
000442      	.BYTE 0x1
          _10aS1DRegs_G2:
000443      	.BYTE 0x1
          _11aS1DRegs_G2:
000444      	.BYTE 0x1
          _12aS1DRegs_G2:
000445      	.BYTE 0x1
          _13aS1DRegs_G2:
000446      	.BYTE 0x1
          _14aS1DRegs_G2:
000447      	.BYTE 0x1
          _15aS1DRegs_G2:
000448      	.BYTE 0x1
          _16aS1DRegs_G2:
000449      	.BYTE 0x1
          _17aS1DRegs_G2:
00044a      	.BYTE 0x1
          _18aS1DRegs_G2:
00044b      	.BYTE 0x1
          _19aS1DRegs_G2:
00044c      	.BYTE 0x1
          _1AaS1DRegs_G2:
00044d      	.BYTE 0x1
          _1BaS1DRegs_G2:
00044e      	.BYTE 0x1
          _1CaS1DRegs_G2:
00044f      	.BYTE 0x1
          _1DaS1DRegs_G2:
000450      	.BYTE 0x1
          _1EaS1DRegs_G2:
000451      	.BYTE 0x1
          _1FaS1DRegs_G2:
000452      	.BYTE 0x1
          _20aS1DRegs_G2:
000453      	.BYTE 0x1
          _21aS1DRegs_G2:
000454      	.BYTE 0x1
          _22aS1DRegs_G2:
000455      	.BYTE 0x1
          _23aS1DRegs_G2:
000456      	.BYTE 0x1
          _24aS1DRegs_G2:
000457      	.BYTE 0x1
          _25aS1DRegs_G2:
000458      	.BYTE 0x1
          _26aS1DRegs_G2:
000459      	.BYTE 0x1
          _27aS1DRegs_G2:
00045a      	.BYTE 0x1
          _28aS1DRegs_G2:
00045b      	.BYTE 0x1
          _29aS1DRegs_G2:
00045c      	.BYTE 0x1
          _2AaS1DRegs_G2:
00045d      	.BYTE 0x1
          _2BaS1DRegs_G2:
00045e      	.BYTE 0x1
          _2CaS1DRegs_G2:
00045f      	.BYTE 0x1
          _2DaS1DRegs_G2:
000460      	.BYTE 0x1
          _2EaS1DRegs_G2:
000461      	.BYTE 0x1
          _2FaS1DRegs_G2:
000462      	.BYTE 0x1
          _30aS1DRegs_G2:
000463      	.BYTE 0x1
          _31aS1DRegs_G2:
000464      	.BYTE 0x1
         ;     508 #include "S1D13705_LUT.h"       
         ;     509 //*************************************
         ;     510 
         ;     511 /**************************************
         ;     512 Functie: Lees data van S1D13705
         ;     513 **************************************/
         ;     514 unsigned char S1D13705_Read_Data(unsigned long int adress)
         ;     515 { 
         
          	.CSEG
          _S1D13705_Read_Data:
         ;     516         unsigned char S1Ddata;
         ;     517         unsigned int Addr_High;
         ;     518         unsigned int Addr_Low;
         ;     519 
         ;     520         //Zet Data / Adres port als output
         ;     521         PORT_AD_ctrl = PORT_OUPUT;                                      //Maak port ad output
000ba5 940e 1f51 	CALL __SAVELOCR5
         ;	adress -> Y+5
         ;	S1Ddata -> R16
         ;	Addr_High -> R17,R18
         ;	Addr_Low -> R19,R20
000ba7 940e 1998 	CALL SUBOPT_0xF
         ;     522         
         ;     523         //Bepaal of A16 1 of 0 is
         ;     524         if((adress & 0x10000) == 0x10000)                               //Als waar A16 is 1 anders 0
000ba9 f411      	BRNE _0x68
         ;     525                 PORT_Addr_A16 = 1;
000baa 9a3a      	SBI  0x7,2
         ;     526         else
000bab c001      	RJMP _0x69
          _0x68:
         ;     527                 PORT_Addr_A16 = 0;
000bac 983a      	CBI  0x7,2
         ;     528                 
         ;     529         //Maak hoge en lage adress waardes
         ;     530         Addr_High = (adress >> 8) & 0xFF;
          _0x69:
000bad 940e 19aa 	CALL SUBOPT_0x10
000baf   +  	__PUTW1R 17,18
         ;     531         Addr_Low = adress & 0xFF;         
000bb1   +  	__GETD1S 5
000bb5   +  	__ANDD1N 0xFF
000bb9   +  	__PUTW1R 19,20
         ;     532         
         ;     533         //Latch de lage waarde naar uitgang van de Latch
         ;     534         PORT_Addr_Low = Addr_Low;
000bbb   +  	__GETW1R 19,20
000bbd bbeb      	OUT  0x1B,R30
         ;     535         
         ;     536         ALE_ON;                                                         //Latch de data, data word nu naar uitgang geschoven
000bbe 9a39      	SBI  0x7,1
         ;     537         ALE_OFF;                                                        //Ale uit
000bbf 9839      	CBI  0x7,1
         ;     538         
         ;     539         //Zet hoge waarde op Port_addr_high
         ;     540         PORT_Addr_High = Addr_High;
000bc0   +  	__GETW1R 17,18
000bc2 bbe5      	OUT  0x15,R30
         ;     541         
         ;     542         //Zet AD port als input
         ;     543         PORT_AD_ctrl = PORT_INPUT;
000bc3 e0e0      	LDI  R30,LOW(0)
000bc4 bbea      	OUT  0x1A,R30
         ;     544         
         ;     545         //Enable S1D13705 en RD on
         ;     546         S1D13705_CS = CS_ON;
000bc5 9894      	CBI  0x12,4
         ;     547         S1D13705_RD = RD_ON;
000bc6 9897      	CBI  0x12,7
         ;     548         
         ;     549         //Lees de data
         ;     550         while(S1D13705_WAIT);                                           //Wacht totdat WAIT 0 wordt
          _0x6A:
000bc7 9928      	SBIC 0x5,0
000bc8 cffe      	RJMP _0x6A
         ;     551         while(S1D13705_WAIT == 0);                                      //Wacht totdat WAIT 1 wordt lees dan data in
          _0x6D:
000bc9 9b28      	SBIS 0x5,0
000bca cffe      	RJMP _0x6D
         ;     552         S1Ddata = PORT_Data_IN;                                         //Lees de data van de S1D13705
000bcb b309      	IN   R16,25
         ;     553         
         ;     554         //Disable S1D13705 en RD off
         ;     555         S1D13705_RD = RD_OFF;
000bcc 9a97      	SBI  0x12,7
         ;     556         S1D13705_CS = CS_OFF;
000bcd 9a94      	SBI  0x12,4
         ;     557         
         ;     558         return(S1Ddata);
000bce 2fe0      	MOV  R30,R16
000bcf 940e 1f58 	CALL __LOADLOCR5
000bd1 c1e0      	RJMP _0x247
         ;     559 }   
         ;     560 //*************************************
         ;     561 
         ;     562 /**************************************
         ;     563 Functie: Schrijf data naar S1D13705
         ;     564 **************************************/
         ;     565 void S1D13705_Write_Data(unsigned long int adress, unsigned char data)
         ;     566 {
          _S1D13705_Write_Data:
         ;     567         unsigned int Addr_High;
         ;     568         unsigned int Addr_Low;
         ;     569         
         ;     570         //Zet Data / Adres port als output
         ;     571         PORT_AD_ctrl = PORT_OUPUT;                                      //Maak port ad output
000bd2 940e 1f52 	CALL __SAVELOCR4
         ;	adress -> Y+5
         ;	data -> Y+4
         ;	Addr_High -> R16,R17
         ;	Addr_Low -> R18,R19
000bd4 940e 1998 	CALL SUBOPT_0xF
         ;     572 
         ;     573         //Bepaal of A16 1 of 0 is
         ;     574         if((adress & 0x10000) == 0x10000)                               //Als waar A16 is 1 anders 0
000bd6 f411      	BRNE _0x70
         ;     575                 PORT_Addr_A16 = 1;
000bd7 9a3a      	SBI  0x7,2
         ;     576         else
000bd8 c001      	RJMP _0x71
          _0x70:
         ;     577                 PORT_Addr_A16 = 0;
000bd9 983a      	CBI  0x7,2
         ;     578                 
         ;     579         //Maak hoge en lage adress waardes
         ;     580         Addr_High = (adress >> 8) & 0xFF;
          _0x71:
000bda 940e 19aa 	CALL SUBOPT_0x10
000bdc   +  	__PUTW1R 16,17
         ;     581         Addr_Low = adress & 0xFF;         
000bde   +  	__GETD1S 5
000be2   +  	__ANDD1N 0xFF
000be6   +  	__PUTW1R 18,19
         ;     582         
         ;     583         //Latch de lage waarde naar uitgang van de Latch
         ;     584         PORT_Addr_Low = Addr_Low;
000be8   +  	__GETW1R 18,19
000bea bbeb      	OUT  0x1B,R30
         ;     585         
         ;     586         ALE_ON;                                                         //Latch de data, data word nu naar uitgang geschoven
000beb 9a39      	SBI  0x7,1
         ;     587         ALE_OFF;                                                        //Ale uit
000bec 9839      	CBI  0x7,1
         ;     588         
         ;     589         //Zet hoge waarde op Port_addr_high
         ;     590         PORT_Addr_High = Addr_High;
000bed   +  	__GETW1R 16,17
000bef bbe5      	OUT  0x15,R30
         ;     591          
         ;     592         //Zet data op port
         ;     593         PORT_Data_OUT = data;                                           //Schrijf de data naar de S1D13705     
000bf0 81ec      	LDD  R30,Y+4
000bf1 bbeb      	OUT  0x1B,R30
         ;     594 
         ;     595         //Enable S1D13705               
         ;     596         S1D13705_CS = CS_ON;                                            //Enable de S1D13705
000bf2 9894      	CBI  0x12,4
         ;     597                 
         ;     598         //WR enable S1D13705 en wacht op wait
         ;     599         S1D13705_WR = WR_ON;                                            //Maak WR laag en zet schrijven actief 
000bf3 9896      	CBI  0x12,6
         ;     600         while(S1D13705_WAIT);                                           //Wacht totdat WAIT 0 wordt
          _0x72:
000bf4 9928      	SBIC 0x5,0
000bf5 cffe      	RJMP _0x72
         ;     601         while(S1D13705_WAIT == 0);                                      //Wacht totdat WAIT 1 wordt
          _0x75:
000bf6 9b28      	SBIS 0x5,0
000bf7 cffe      	RJMP _0x75
         ;     602         
         ;     603         //Disable S1D13705 en WR
         ;     604         S1D13705_WR = WR_OFF;
000bf8 9a96      	SBI  0x12,6
         ;     605         S1D13705_CS = CS_OFF;
000bf9 9a94      	SBI  0x12,4
         ;     606         
         ;     607         return;
000bfa 940e 1f59 	CALL __LOADLOCR4
000bfc c1b5      	RJMP _0x247
         ;     608 }
         ;     609 //*************************************
         ;     610 
         ;     611 /**************************************
         ;     612 Functie: Lees register S1D13705
         ;     613 **************************************/
         ;     614 unsigned char S1D13705_Read_Register(unsigned char reg)
         ;     615 {
          _S1D13705_Read_Register:
         ;     616         unsigned char data;
         ;     617         
         ;     618         data = S1D13705_Read_Data(S1D13705_Reg_Base_Addr + reg);
000bfd 930a      	ST   -Y,R16
         ;	reg -> Y+1
         ;	data -> R16
000bfe 940e 19b2 	CALL SUBOPT_0x11
000c00 940e 0ba5 	CALL _S1D13705_Read_Data
000c02 2f0e      	MOV  R16,R30
         ;     619         
         ;     620         return(data);
000c03 2fe0      	MOV  R30,R16
000c04 8108      	LDD  R16,Y+0
000c05 c004      	RJMP _0x248
         ;     621 }
         ;     622 //*************************************
         ;     623 
         ;     624 /**************************************
         ;     625 Functie: Schrijf register S1D13705
         ;     626 **************************************/
         ;     627 void S1D13705_Write_Register(unsigned char reg, unsigned char data)
         ;     628 {
          _S1D13705_Write_Register:
         ;     629         S1D13705_Write_Data(S1D13705_Reg_Base_Addr + reg, data);
000c06 940e 19b2 	CALL SUBOPT_0x11
000c08 940e 19bf 	CALL SUBOPT_0x12
         ;     630         
         ;     631         return;
          _0x248:
000c0a 9622      	ADIW R28,2
000c0b 9508      	RET
         ;     632 }
         ;     633 //*************************************
         ;     634 
         ;     635 /**************************************
         ;     636 Functie: Init S1D13705
         ;     637 **************************************/
         ;     638 void S1D13705_Init(void)
         ;     639 {
          _S1D13705_Init:
         ;     640         unsigned int i;
         ;     641         
         ;     642         //Stel registers van S1D13705 in
         ;     643         for(i=1;i<28;i++)  
000c0c 931a      	ST   -Y,R17
000c0d 930a      	ST   -Y,R16
         ;	i -> R16,R17
000c0e   +  	__GETWRN 16,17,1
          _0x79:
000c10   +  	__CPWRN 16,17,28
000c13 f4b8      	BRSH _0x7A
         ;     644                 S1D13705_Write_Register(aS1DRegs[i].Index,aS1DRegs[i].Value);
000c14   +  	__GETW1R 16,17
000c16 0fee      	LSL  R30
000c17 1fff      	ROL  R31
000c18 5ced      	SUBI R30,LOW(-_aS1DRegs_G2)
000c19 4ffb      	SBCI R31,HIGH(-_aS1DRegs_G2)
000c1a 81e0      	LD   R30,Z
000c1b 93ea      	ST   -Y,R30
000c1c   +  	__GETW1R 16,17
000c1e 0fee      	LSL  R30
000c1f 1fff      	ROL  R31
000c20   +  	__POINTW2MN _aS1DRegs_G2,1
000c22 0fae      	ADD  R26,R30
000c23 1fbf      	ADC  R27,R31
000c24 91ec      	LD   R30,X
000c25 93ea      	ST   -Y,R30
000c26 940e 0c06 	CALL _S1D13705_Write_Register
         ;     645         
         ;     646         //Stel LUT tabel in
         ;     647         #ifdef S1D13705_16_colors
         ;     648         S1D13705_LUT_16();       
         ;     649         #endif
         ;     650         
         ;     651         #ifdef S1D13705_256_colors
         ;     652         S1D13705_LUT_256();
000c28   +  	__ADDWRN 16,17,1
000c2a cfe5      	RJMP _0x79
          _0x7A:
000c2b d19b      	RCALL _S1D13705_LUT_256
         ;     653         #endif
         ;     654         
         ;     655         return;
000c2c 9109      	LD   R16,Y+
000c2d 9119      	LD   R17,Y+
000c2e 9508      	RET
         ;     656 }
         ;     657 //*************************************
         ;     658 
         ;     659 /**************************************
         ;     660 Functie: Zet tekst op LCD op x,y voor 4BPP en 8BPP!!! 
         ;     661          
         ;     662          4BPP: 2 pixel per byte geheugen 37,5KB
         ;     663          8BPP: 1 pixel per byte geheugen 75KB
         ;     664 **************************************/
         ;     665 void S1D13705_Text_LCD(unsigned long int X, unsigned long int Y, unsigned char *Tekst, unsigned char color)
         ;     666 {
          _S1D13705_Text_LCD:
         ;     667         unsigned long int S1D_mem;
         ;     668         unsigned int Ytekst;
         ;     669         unsigned char Font_Waarde;
         ;     670         unsigned char data;
         ;     671         unsigned char ch;
         ;     672         unsigned char BPP;
         ;     673         unsigned char bits;
         ;     674         
         ;     675         //Check kleurinstelling
         ;     676         BPP = S1D13705_Read_Register(0x02);                             //Vanuit gaan dat kleuren scherm is alleen reg 2 lezen
000c2f 9725      	SBIW R28,5
000c30 940e 1f50 	CALL __SAVELOCR6
         ;	X -> Y+18
         ;	Y -> Y+14
         ;	*Tekst -> Y+12
         ;	color -> Y+11
         ;	S1D_mem -> Y+7
         ;	Ytekst -> R16,R17
         ;	Font_Waarde -> R18
         ;	data -> R19
         ;	ch -> R20
         ;	BPP -> R21
         ;	bits -> Y+6
000c32 e0e2      	LDI  R30,LOW(2)
000c33 93ea      	ST   -Y,R30
000c34 940e 0bfd 	CALL _S1D13705_Read_Register
000c36 2f5e      	MOV  R21,R30
         ;     677         BPP &= 0xC0;                                                    //Alleen 2 hoogste bit gelden 
000c37 7c50      	ANDI R21,LOW(192)
         ;     678         
         ;     679         //X is pixels, Y in regels 240/8 = 30 regels
         ;     680         Y = Y * 8;                                                      //Doe Y maal acht vanwege 8 pixel font hoogte
000c38   +  	__GETD2S 14
000c3c   +  	__GETD1N 0x8
000c40 940e 1d66 	CALL __MULD12U
000c42   +  	__PUTD1S 14
         ;     681         color &= 0x0F;                                                  //Van kleur alleen de low nibbble
000c46 85eb      	LDD  R30,Y+11
000c47 70ef      	ANDI R30,LOW(0xF)
000c48 87eb      	STD  Y+11,R30
         ;     682         
         ;     683         switch(BPP)
000c49 2fe5      	MOV  R30,R21
         ;     684         {       
         ;     685                 case 0x80:                                              //4BPP
000c4a 38e0      	CPI  R30,LOW(0x80)
000c4b f011      	BREQ PC+3
000c4c 940c 0cbc 	JMP _0x7E
         ;     686         
         ;     687                         while(*Tekst != 0)                                              //Alle tekens gehad, verlaat loop
          _0x7F:
000c4e 940e 19c3 	CALL SUBOPT_0x13
000c50 f411      	BRNE PC+3
000c51 940c 0cbb 	JMP _0x81
         ;     688                         {                                                               
         ;     689                                 ch = *Tekst++;                                          //Haal teken uit de string
000c53 940e 19c8 	CALL SUBOPT_0x14
         ;     690                 
         ;     691                                 for(Ytekst=0;Ytekst<8;Ytekst++)
000c55   +  	__GETWRN 16,17,0
          _0x83:
000c57   +  	__CPWRN 16,17,8
000c5a f010      	BRLO PC+3
000c5b 940c 0cae 	JMP _0x84
         ;     692                                 {
         ;     693                                         Font_Waarde = FontTable[ch - ' '][Ytekst];      //Haal Font waarde uit fonttable
000c5d 940e 19ce 	CALL SUBOPT_0x15
         ;     694 
         ;     695                         
         ;     696                                         //Bereken geheugen plaats van te schrijven data voor pixel
         ;     697                                         S1D_mem = X + (Ytekst * 160) + (Y * 160);       
000c5f eae0      	LDI  R30,LOW(160)
000c60 e0f0      	LDI  R31,HIGH(160)
000c61 940e 19dd 	CALL SUBOPT_0x16
000c63 937f      	PUSH R23
000c64 936f      	PUSH R22
000c65 93ff      	PUSH R31
000c66 93ef      	PUSH R30
000c67   +  	__GETD2S 14
000c6b   +  	__GETD1N 0xA0
000c6f 940e 1d66 	CALL __MULD12U
000c71 91af      	POP  R26
000c72 91bf      	POP  R27
000c73 918f      	POP  R24
000c74 919f      	POP  R25
000c75 940e 1d08 	CALL __ADDD12
000c77   +  	__PUTD1S 7
         ;     698                         
         ;     699                                         //Check 2 pixels van Tekst(4bpp mode)
         ;     700                                         //en zet waarde in S1D mem 
         ;     701                                         data = 0xFF;                                    //Zet data op wit kleur   
000c7b ef3f      	LDI  R19,LOW(255)
         ;     702                                         if(Font_Waarde & 0x80)
000c7c ff27      	SBRS R18,7
000c7d c002      	RJMP _0x85
         ;     703                                                 data = (color<<4 | 0x0F);               //Zet high nibble op kleur 
000c7e 940e 19e8 	CALL SUBOPT_0x17
         ;     704                                         if(Font_Waarde & 0x40)
          _0x85:
000c80 ff26      	SBRS R18,6
000c81 c003      	RJMP _0x86
         ;     705                                                 data &= (0xF0 | color);                 //Zet low nibble op kleur 
000c82 85eb      	LDD  R30,Y+11
000c83 6fe0      	ORI  R30,LOW(0xF0)
000c84 233e      	AND  R19,R30
         ;     706                                         S1D13705_Write_Data(S1D_mem++,data);            //Schrijf data naar memory
          _0x86:
000c85 940e 19ee 	CALL SUBOPT_0x18
         ;     707                 
         ;     708                                         data = 0xFF;                                    //Zet data op wit kleur   
000c87 ef3f      	LDI  R19,LOW(255)
         ;     709                                         if(Font_Waarde & 0x20)
000c88 ff25      	SBRS R18,5
000c89 c002      	RJMP _0x87
         ;     710                                                 data = (color<<4 | 0x0F);               //Zet high nibble op kleur 
000c8a 940e 19e8 	CALL SUBOPT_0x17
         ;     711                                         if(Font_Waarde & 0x10)
          _0x87:
000c8c ff24      	SBRS R18,4
000c8d c003      	RJMP _0x88
         ;     712                                                 data &= (0xF0 | color);                 //Zet low nibble op kleur 
000c8e 85eb      	LDD  R30,Y+11
000c8f 6fe0      	ORI  R30,LOW(0xF0)
000c90 233e      	AND  R19,R30
         ;     713                                         S1D13705_Write_Data(S1D_mem++,data);            //Schrijf data naar memory
          _0x88:
000c91 940e 19ee 	CALL SUBOPT_0x18
         ;     714                 
         ;     715                                         data = 0xFF;                                    //Zet data op wit kleur   
000c93 ef3f      	LDI  R19,LOW(255)
         ;     716                                         if(Font_Waarde & 0x08)
000c94 ff23      	SBRS R18,3
000c95 c002      	RJMP _0x89
         ;     717                                                 data = (color<<4 | 0x0F);               //Zet high nibble op kleur 
000c96 940e 19e8 	CALL SUBOPT_0x17
         ;     718                                         if(Font_Waarde & 0x04)
          _0x89:
000c98 ff22      	SBRS R18,2
000c99 c003      	RJMP _0x8A
         ;     719                                                 data &= (0xF0 | color);                 //Zet low nibble op kleur 
000c9a 85eb      	LDD  R30,Y+11
000c9b 6fe0      	ORI  R30,LOW(0xF0)
000c9c 233e      	AND  R19,R30
         ;     720                                         S1D13705_Write_Data(S1D_mem++,data);            //Schrijf data naar memory
          _0x8A:
000c9d 940e 19ee 	CALL SUBOPT_0x18
         ;     721                 
         ;     722                                         data = 0xFF;                                    //Zet data op wit kleur   
000c9f ef3f      	LDI  R19,LOW(255)
         ;     723                                         if(Font_Waarde & 0x02)
000ca0 ff21      	SBRS R18,1
000ca1 c002      	RJMP _0x8B
         ;     724                                                 data = (color<<4 | 0x0F);               //Zet high nibble op kleur 
000ca2 940e 19e8 	CALL SUBOPT_0x17
         ;     725                                         if(Font_Waarde & 0x01)
          _0x8B:
000ca4 ff20      	SBRS R18,0
000ca5 c003      	RJMP _0x8C
         ;     726                                                 data &= (0xF0 | color);                 //Zet low nibble op kleur 
000ca6 85eb      	LDD  R30,Y+11
000ca7 6fe0      	ORI  R30,LOW(0xF0)
000ca8 233e      	AND  R19,R30
         ;     727                                         S1D13705_Write_Data(S1D_mem++,data);            //Schrijf data naar memory
          _0x8C:
000ca9 940e 19ee 	CALL SUBOPT_0x18
         ;     728                                 }
000cab   +  	__ADDWRN 16,17,1
000cad cfa9      	RJMP _0x83
          _0x84:
         ;     729                                 
         ;     730                                 X += 4;                                                 //Ga 1 karakter naar rechts
000cae   +  	__GETD1S 18
000cb2   +  	__ADDD1N 4
000cb6   +  	__PUTD1S 18
         ;     731                         }
000cba cf93      	RJMP _0x7F
          _0x81:
         ;     732                         break;
000cbb c050      	RJMP _0x7D
         ;     733                          
         ;     734                 case 0xC0:                                                              //8BPP
          _0x7E:
000cbc 3ce0      	CPI  R30,LOW(0xC0)
000cbd f011      	BREQ PC+3
000cbe 940c 0d0c 	JMP _0x7D
         ;     735                         while(*Tekst != 0)                                              //Alle tekens gehad, verlaat loop
          _0x8E:
000cc0 940e 19c3 	CALL SUBOPT_0x13
000cc2 f411      	BRNE PC+3
000cc3 940c 0d0c 	JMP _0x90
         ;     736                         {                                                               
         ;     737                                 ch = *Tekst++;                                          //Haal teken uit de string
000cc5 940e 19c8 	CALL SUBOPT_0x14
         ;     738                 
         ;     739                                 for(Ytekst=0;Ytekst<8;Ytekst++)
000cc7   +  	__GETWRN 16,17,0
          _0x92:
000cc9   +  	__CPWRN 16,17,8
000ccc f590      	BRSH _0x93
         ;     740                                 {
         ;     741                                         Font_Waarde = FontTable[ch - ' '][Ytekst];      //Haal Font waarde uit fonttable
000ccd 940e 19ce 	CALL SUBOPT_0x15
         ;     742 
         ;     743                                         //Bereken geheugen plaats van te schrijven data voor pixel
         ;     744                                         S1D_mem = X + (Ytekst * 320) + (Y * 320);       
000ccf e4e0      	LDI  R30,LOW(320)
000cd0 e0f1      	LDI  R31,HIGH(320)
000cd1 940e 19dd 	CALL SUBOPT_0x16
000cd3 937f      	PUSH R23
000cd4 936f      	PUSH R22
000cd5 93ff      	PUSH R31
000cd6 93ef      	PUSH R30
000cd7   +  	__GETD2S 14
000cdb   +  	__GETD1N 0x140
000cdf 940e 1d66 	CALL __MULD12U
000ce1 91af      	POP  R26
000ce2 91bf      	POP  R27
000ce3 918f      	POP  R24
000ce4 919f      	POP  R25
000ce5 940e 1d08 	CALL __ADDD12
000ce7   +  	__PUTD1S 7
         ;     745                         
         ;     746                                         //Check alle 8 bits en schrijf bij 1 de kleur en bij 0 wit
         ;     747                                         
         ;     748                                         for(bits=0;bits<8;bits++)
000ceb e0e0      	LDI  R30,LOW(0)
000cec 83ee      	STD  Y+6,R30
          _0x95:
000ced 81ae      	LDD  R26,Y+6
000cee 30a8      	CPI  R26,LOW(0x8)
000cef f460      	BRSH _0x96
         ;     749                                         {
         ;     750                                                 //Check of bit 1, zo ja zet pixel kleur
         ;     751                                                 if(Font_Waarde & 0x80)
000cf0 ff27      	SBRS R18,7
000cf1 c002      	RJMP _0x97
         ;     752                                                         data = color;                   //Zet kleur
000cf2 853b      	LDD  R19,Y+11
         ;     753                                                 else
000cf3 c001      	RJMP _0x98
          _0x97:
         ;     754                                                         data = 0xFF;                    //Zet kleur wit
000cf4 ef3f      	LDI  R19,LOW(255)
         ;     755                                                 S1D13705_Write_Data(S1D_mem++,data);    //Schrijf data naar memory
          _0x98:
000cf5 940e 19ee 	CALL SUBOPT_0x18
         ;     756                                                 
         ;     757                                                 Font_Waarde <<= 1;                      //Font Waarde 1 naar links opschuiven
000cf7 0f22      	LSL  R18
         ;     758                                         }
000cf8 81ee      	LDD  R30,Y+6
000cf9 5fef      	SUBI R30,-LOW(1)
000cfa 83ee      	STD  Y+6,R30
000cfb cff1      	RJMP _0x95
          _0x96:
         ;     759                                 }
000cfc   +  	__ADDWRN 16,17,1
000cfe cfca      	RJMP _0x92
          _0x93:
         ;     760                                 
         ;     761                                 X +=8;                                                  //Ga 1 karakter naar rechts
000cff   +  	__GETD1S 18
000d03   +  	__ADDD1N 8
000d07   +  	__PUTD1S 18
         ;     762                         }
000d0b cfb4      	RJMP _0x8E
          _0x90:
         ;     763                         break;
         ;     764                 }                                        
          _0x7D:
         ;     765                          
         ;     766         return;
000d0c 940e 1f57 	CALL __LOADLOCR6
000d0e 9666      	ADIW R28,22
000d0f 9508      	RET
         ;     767 }
         ;     768 //*************************************             
         ;     769 
         ;     770 /**************************************
         ;     771 Functie: Teken plaatje op scherm
         ;     772          Plaatje die als header is toegevoed
         ;     773 **************************************/
         ;     774 void S1D13705_Draw_Pic(unsigned int X, unsigned int Y, unsigned char flash* Pic)
         ;     775 {
         ;     776         unsigned long int S1D_mem;                                      //S1D13705 memory adress
         ;     777         unsigned int W;                                                 //Breedte plaatje
         ;     778         unsigned int H;                                                 //Hoogte plaatje
         ;     779         unsigned int Wx;                                                //Counter breedte
         ;     780         unsigned int Byte;                                              //Byte teller van de array
         ;     781         unsigned int Yx;                                                //Waarde voor scanline bytes, by 4bpp 160, by 8bpp 320
         ;     782         unsigned char BPP;                                              //Kleur waarde
         ;     783         
         ;     784         //Check kleurinstelling
         ;     785         BPP = S1D13705_Read_Register(0x02);                             //Vanuit gaan dat kleuren scherm is alleen reg 2 lezen
         ;	X -> Y+19
         ;	Y -> Y+17
         ;	*Pic -> Y+15
         ;	S1D_mem -> Y+11
         ;	W -> R16,R17
         ;	H -> R18,R19
         ;	Wx -> R20,R21
         ;	Byte -> Y+9
         ;	Yx -> Y+7
         ;	BPP -> Y+6
         ;     786         BPP &= 0xC0;                                                    //Alleen 2 hoogste bit gelden 
         ;     787        
         ;     788         //Bepaal welke kleur instelling en laad juiste LUT tabel
         ;     789         switch(BPP)
         ;     790         {
         ;     791                 case 0x80:                                              //16 kleuren
         ;     792                         S1D13705_LUT_16_BMP();                          //Schrijf LUT tabel 16 kleuren
         ;     793                         Yx = 160;                                       //160 is aantal scanline bytes
         ;     794                         break;
         ;     795                 case 0xC0:                                              //256 kleuren
         ;     796                         S1D13705_LUT_256_BMP();                         //Schrijf LUT voor 256 kleuren
         ;     797                         Yx = 320;                                       //320 is aantal scaneline bytes
         ;     798                         break;
         ;     799        }
         ;     800         
         ;     801         
         ;     802         //Lees de hoogte en de breedte van de Pic
         ;     803         Byte = 0;
         ;     804         W = Pic[Byte++];
         ;     805         H = Pic[Byte++];
         ;     806         
         ;     807         //Zet S1D_mem op begin adress/pixel
         ;     808         S1D_mem = X + (Y * Yx);
         ;     809         
         ;     810         while(H--)
         ;     811         {
         ;     812                 Wx = W;
         ;     813                 while(Wx--)
         ;     814                 {
         ;     815                         S1D13705_Write_Data(S1D_mem++,Pic[Byte++]);     //Schrijf data naar S1D13705
         ;     816                 }
         ;     817                 
         ;     818                 //Herbereken S1D_mem voor de volgende lijn
         ;     819                 S1D_mem = (S1D_mem - W) + Yx;
         ;     820         }                                     
         ;     821        
         ;     822         return;
         ;     823 }
         ;     824 //*************************************
         ;     825 
         ;     826 /**************************************
         ;     827 Functie: Teken een pixel
         ;     828 **************************************/
         ;     829 void S1D13705_Draw_Pixel(unsigned long int X, unsigned long int Y, unsigned char color)
         ;     830 {
         ;     831         unsigned long int S1D_mem_addr;
         ;     832         
         ;     833         //Bereken welk adress S1D13705 moet worden geschreven Pixel 0,0 = adres 0, Pixel 319,0 = 319 etc
         ;     834         S1D_mem_addr = X + (Y * 320);                                   //Voor Y doe Y aantal maal de breedte van het display en tel X erbij op
         ;	X -> Y+9
         ;	Y -> Y+5
         ;	color -> Y+4
         ;	S1D_mem_addr -> Y+0
         ;     835         
         ;     836         //Schrijf Pixel
         ;     837         S1D13705_Write_Data(S1D_mem_addr,color);
         ;     838         
         ;     839         return;
         ;     840 }
         ;     841 //*************************************
         ;     842 
         ;     843 /**************************************
         ;     844 Functie: Teken een horizontale lijn
         ;     845 **************************************/
         ;     846 void S1D13705_Draw_Horizontal_Line(unsigned long int X, unsigned long int X1, unsigned long int Y, unsigned char color)
         ;     847 {
          _S1D13705_Draw_Horizontal_Line:
         ;     848         unsigned long int S1D_mem_addr;
         ;     849         unsigned int Xa;
         ;     850         
         ;     851         //Bereken begin adress van de beginde pixel 
         ;     852         S1D_mem_addr = X + (Y * 320);
000d10 940e 1945 	CALL SUBOPT_0x1
         ;	X -> Y+15
         ;	X1 -> Y+11
         ;	Y -> Y+7
         ;	color -> Y+6
         ;	S1D_mem_addr -> Y+2
         ;	Xa -> R16,R17
000d12   +  	__GETD2S 7
000d16   +  	__GETD1N 0x140
000d1a 940e 1d66 	CALL __MULD12U
000d1c   +  	__GETD2S 15
000d20 940e 1d08 	CALL __ADDD12
000d22   +  	__PUTD1S 2
         ;     853         
         ;     854         //Teken lijn, eerst checken of X1 kleiner is als X, dan word lijn naar links getekend
         ;     855         if(X1 < X)                                                      //X1 is kleiner dan X, dan moet lijn links toe
000d26   +  	__GETD1S 15
000d2a   +  	__GETD2S 11
000d2e 940e 1f4b 	CALL __CPD21
000d30 f4e0      	BRSH _0xA4
         ;     856         {
         ;     857                 Xa= X- X1;
000d31 940e 1d12 	CALL __SUBD12
000d33   +  	__PUTW1R 16,17
         ;     858                 do
          _0xA6:
         ;     859                 {
         ;     860                         S1D13705_Write_Data(S1D_mem_addr--,color);
000d35   +  	__GETD1S 2
000d39 9731      	SBIW R30,1
000d3a 4060      	SBCI R22,0
000d3b 4070      	SBCI R23,0
000d3c   +  	__PUTD1S 2
000d40   +  	__SUBD1N -1
000d44 940e 1a02 	CALL SUBOPT_0x19
         ;     861                 }
         ;     862                 while(Xa--);
000d46   +  	__GETW1R 16,17
000d48   +  	__SUBWRN 16,17,1
000d4a 9730      	SBIW R30,0
000d4b f749      	BRNE _0xA6
         ;     863                
         ;     864         }
         ;     865         else          
000d4c c019      	RJMP _0xA8
          _0xA4:
         ;     866         {
         ;     867                 Xa = X1 - X;
000d4d   +  	__GETD2S 15
000d51   +  	__GETD1S 11
000d55 940e 1d12 	CALL __SUBD12
000d57   +  	__PUTW1R 16,17
         ;     868                 do
          _0xAA:
         ;     869                 {
         ;     870                         S1D13705_Write_Data(S1D_mem_addr++,color);   
000d59 940e 1a08 	CALL SUBOPT_0x1A
000d5b 9731      	SBIW R30,1
000d5c 4060      	SBCI R22,0
000d5d 4070      	SBCI R23,0
000d5e 940e 1a02 	CALL SUBOPT_0x19
         ;     871                 }
         ;     872                 while(Xa--);                
000d60   +  	__GETW1R 16,17
000d62   +  	__SUBWRN 16,17,1
000d64 9730      	SBIW R30,0
000d65 f799      	BRNE _0xAA
         ;     873         }
          _0xA8:
         ;     874         
         ;     875         return;
000d66 8119      	LDD  R17,Y+1
000d67 8108      	LDD  R16,Y+0
000d68 9663      	ADIW R28,19
000d69 9508      	RET
         ;     876 }
         ;     877 //*************************************
         ;     878 
         ;     879 /**************************************
         ;     880 Functie: Teken verticale lijn
         ;     881 **************************************/
         ;     882 void S1D13705_Draw_Vertical_Line(unsigned long int X, unsigned long int Y, unsigned long int Y1, unsigned char color)
         ;     883 {
          _S1D13705_Draw_Vertical_Line:
         ;     884         unsigned long int S1D_mem_addr;
         ;     885         unsigned long int Ya;
         ;     886         
         ;     887         //Bereken begin mem adress van de beginde pixel
         ;     888  //       S1D_mem_addr = X + (Y * 320);
         ;     889         
         ;     890         //Teken lijn, eerst checken of Y1 kleiner is dan Y, dan wordt lijn naar boven getekend     
         ;     891         if(Y1 < Y)                                                      //Y1 is kleiner dus lijn naar boven tekenen
000d6a 9728      	SBIW R28,8
         ;	X -> Y+17
         ;	Y -> Y+13
         ;	Y1 -> Y+9
         ;	color -> Y+8
         ;	S1D_mem_addr -> Y+4
         ;	Ya -> Y+0
000d6b   +  	__GETD1S 13
000d6f   +  	__GETD2S 9
000d73 940e 1f4b 	CALL __CPD21
000d75 f460      	BRSH _0xAC
         ;     892         {
         ;     893                 Ya = Y - Y1;
000d76 940e 1d12 	CALL __SUBD12
000d78   +  	__PUTD1S 0
         ;     894                 do
          _0xAE:
         ;     895                 {
         ;     896                         S1D_mem_addr = X + ((Y + Ya) * 320);                  //Herberken mem addres
000d7c 940e 1a15 	CALL SUBOPT_0x1B
         ;     897                         S1D13705_Write_Data(S1D_mem_addr,color);        //Schrijf data
         ;     898                 }
         ;     899                 while(Ya--);
000d7e 940e 1a35 	CALL SUBOPT_0x1C
000d80 f7d9      	BRNE _0xAE
         ;     900         }
         ;     901         else
000d81 c013      	RJMP _0xB0
          _0xAC:
         ;     902         {
         ;     903                 Ya = Y1 - Y;
000d82   +  	__GETD2S 13
000d86   +  	__GETD1S 9
000d8a 940e 1d12 	CALL __SUBD12
000d8c   +  	__PUTD1S 0
         ;     904                 do
          _0xB2:
         ;     905                 {
         ;     906                         S1D_mem_addr = X + ((Y + Ya) * 320);                  //Herberken mem addres
000d90 940e 1a15 	CALL SUBOPT_0x1B
         ;     907                         S1D13705_Write_Data(S1D_mem_addr,color);        //Schrijf data
         ;     908                 } 
         ;     909                 while(Ya--);
000d92 940e 1a35 	CALL SUBOPT_0x1C
000d94 f7d9      	BRNE _0xB2
         ;     910         }
          _0xB0:
         ;     911         return;
000d95 9665      	ADIW R28,21
000d96 9508      	RET
         ;     912 }
         ;     913 //*************************************
         ;     914                  
         ;     915 /**************************************
         ;     916 Functie: Vul LCD scherm met een kleur
         ;     917 **************************************/
         ;     918 void S1D13705_Fill_LCD(unsigned long int adress, unsigned long int len, unsigned char color)
         ;     919 {
          _S1D13705_Fill_LCD:
         ;     920         color |=(color<<4);
000d97 81e8      	LD   R30,Y
000d98 95e2      	SWAP R30
000d99 7fe0      	ANDI R30,0xF0
000d9a 81a8      	LD   R26,Y
000d9b 2bea      	OR   R30,R26
000d9c 83e8      	ST   Y,R30
         ;     921         while(len--)
          _0xB4:
000d9d   +  	__GETD1S 1
000da1 9731      	SBIW R30,1
000da2 4060      	SBCI R22,0
000da3 4070      	SBCI R23,0
000da4   +  	__PUTD1S 1
000da8   +  	__SUBD1N -1
000dac f029      	BREQ _0xB6
         ;     922                 S1D13705_Write_Data(adress++,color); 
000dad 940e 1a45 	CALL SUBOPT_0x1D
000daf 940e 19bf 	CALL SUBOPT_0x12
         ;     923               
         ;     924         return;
000db1 cfeb      	RJMP _0xB4
          _0xB6:
          _0x247:
000db2 9629      	ADIW R28,9
000db3 9508      	RET
         ;     925 }
         ;     926 //*************************************
         ;     927 
         ;     928 /**************************************
         ;     929 Functie: LCD CLS
         ;     930 **************************************/
         ;     931 void S1D13705_Clear_LCD(void)
         ;     932 {
          _S1D13705_Clear_LCD:
         ;     933         S1D13705_Fill_LCD(0,0x14000,15);
000db4   +  	__GETD1N 0x0
000db8 940e 1da4 	CALL __PUTPARD1
000dba   +  	__GETD1N 0x14000
000dbe 940e 196c 	CALL SUBOPT_0x8
000dc0 940e 0d97 	CALL _S1D13705_Fill_LCD
         ;     934         
         ;     935         return;
000dc2 9508      	RET
         ;     936 }                   
         ;     937 //*************************************
         ;     938 
         ;     939 /**************************************
         ;     940 Functie: Reset S1D13705
         ;     941 **************************************/
         ;     942 void S1D13705_Reset(void)
         ;     943 {
          _S1D13705_Reset:
         ;     944         S1D13705_RST = RST_ON;
000dc3 9895      	CBI  0x12,5
         ;     945         #asm("nop");
000dc4 0000      	nop
         ;     946         S1D13705_RST = RST_OFF;
000dc5 9a95      	SBI  0x12,5
         ;     947 
         ;     948         return;
000dc6 9508      	RET
         ;     949 }
         ;     950 //*************************************       
         ;     951  
         ;     952 /**************************************
         ;     953         LUT table values:
         ;     954 - 16 Colors
         ;     955 - 256 Colors
         ;     956 - own bmp Colors
         ;     957 **************************************/
         ;     958 
         ;     959 /*************************************
         ;     960         LUT values 16 colors
         ;     961 *************************************/
         ;     962 flash unsigned char LUT_16[16*3] =
         ;     963 { 
         ;     964 	0x00, 0x00, 0x00,  0x00, 0x00, 0xA0,  0x00, 0xA0, 0x00,  0x00, 0xA0, 0xA0,
         ;     965 	0xA0, 0x00, 0x00,  0xA0, 0x00, 0xA0,  0xA0, 0xA0, 0x00,  0xA0, 0xA0, 0xA0,
         ;     966 	0x00, 0x00, 0x00,  0x00, 0x00, 0xF0,  0x00, 0xF0, 0x00,  0x00, 0xF0, 0xF0,
         ;     967 	0xF0, 0x00, 0x00,  0xF0, 0x00, 0xF0,  0xF0, 0xF0, 0x00,  0xF0, 0xF0, 0xF0
         ;     968 };
         ;     969 //*************************************
         ;     970 
         ;     971 /**************************************
         ;     972         LUT values 256 colors
         ;     973 **************************************/
         ;     974 flash unsigned char LUT_256[256*3] =
         ;     975 {
         ;     976 /* Primary and secondary colors */
         ;     977 	0x00, 0x00, 0x00,  0x00, 0x00, 0xA0,  0x00, 0xA0, 0x00,  0x00, 0xA0, 0xA0,  
         ;     978 	0xA0, 0x00, 0x00,  0xA0, 0x00, 0xA0,  0xA0, 0xA0, 0x00,  0xA0, 0xA0, 0xA0,  
         ;     979 	0x50, 0x50, 0x50,  0x00, 0x00, 0xF0,  0x00, 0xF0, 0x00,  0x00, 0xF0, 0xF0,  
         ;     980 	0xF0, 0x00, 0x00,  0xF0, 0x00, 0xF0,  0xF0, 0xF0, 0x00,  0xF0, 0xF0, 0xF0,  
         ;     981 
         ;     982 /* Gray shades */
         ;     983 	0x00, 0x00, 0x00,  0x10, 0x10, 0x10,  0x20, 0x20, 0x20,  0x30, 0x30, 0x30,  
         ;     984 	0x40, 0x40, 0x40,  0x50, 0x50, 0x50,  0x60, 0x60, 0x60,  0x70, 0x70, 0x70,  
         ;     985 	0x80, 0x80, 0x80,  0x90, 0x90, 0x90,  0xA0, 0xA0, 0xA0,  0xB0, 0xB0, 0xB0,  
         ;     986 	0xC0, 0xC0, 0xC0,  0xD0, 0xD0, 0xD0,  0xE0, 0xE0, 0xE0,  0xF0, 0xF0, 0xF0,  
         ;     987 
         ;     988 /* Black to red */
         ;     989 	0x00, 0x00, 0x00,  0x10, 0x00, 0x00,  0x20, 0x00, 0x00,  0x30, 0x00, 0x00,  
         ;     990 	0x40, 0x00, 0x00,  0x50, 0x00, 0x00,  0x60, 0x00, 0x00,  0x70, 0x00, 0x00,  
         ;     991 	0x80, 0x00, 0x00,  0x90, 0x00, 0x00,  0xA0, 0x00, 0x00,  0xB0, 0x00, 0x00,  
         ;     992 	0xC0, 0x00, 0x00,  0xD0, 0x00, 0x00,  0xE0, 0x00, 0x00,  0xF0, 0x00, 0x00,  
         ;     993 
         ;     994 /* Black to green */
         ;     995 	0x00, 0x00, 0x00,  0x00, 0x10, 0x00,  0x00, 0x20, 0x00,  0x00, 0x30, 0x00,  
         ;     996 	0x00, 0x40, 0x00,  0x00, 0x50, 0x00,  0x00, 0x60, 0x00,  0x00, 0x70, 0x00,  
         ;     997 	0x00, 0x80, 0x00,  0x00, 0x90, 0x00,  0x00, 0xA0, 0x00,  0x00, 0xB0, 0x00,  
         ;     998 	0x00, 0xC0, 0x00,  0x00, 0xD0, 0x00,  0x00, 0xE0, 0x00,  0x00, 0xF0, 0x00,  
         ;     999 
         ;    1000 /* Black to blue */
         ;    1001 	0x00, 0x00, 0x00,  0x00, 0x00, 0x10,  0x00, 0x00, 0x20,  0x00, 0x00, 0x30,  
         ;    1002 	0x00, 0x00, 0x40,  0x00, 0x00, 0x50,  0x00, 0x00, 0x60,  0x00, 0x00, 0x70,  
         ;    1003 	0x00, 0x00, 0x80,  0x00, 0x00, 0x90,  0x00, 0x00, 0xA0,  0x00, 0x00, 0xB0,  
         ;    1004 	0x00, 0x00, 0xC0,  0x00, 0x00, 0xD0,  0x00, 0x00, 0xE0,  0x00, 0x00, 0xF0,
         ;    1005 
         ;    1006 /* Blue to cyan (blue and green) */
         ;    1007 	0x00, 0x00, 0xF0,  0x00, 0x10, 0xF0,  0x00, 0x20, 0xF0,  0x00, 0x30, 0xF0,  
         ;    1008 	0x00, 0x40, 0xF0,  0x00, 0x50, 0xF0,  0x00, 0x60, 0xF0,  0x00, 0x70, 0xF0,  
         ;    1009 	0x00, 0x80, 0xF0,  0x00, 0x90, 0xF0,  0x00, 0xA0, 0xF0,  0x00, 0xB0, 0xF0,  
         ;    1010 	0x00, 0xC0, 0xF0,  0x00, 0xD0, 0xF0,  0x00, 0xE0, 0xF0,  0x00, 0xF0, 0xF0,
         ;    1011 
         ;    1012 /* Cyan (blue and green) to green */
         ;    1013 	0x00, 0xF0, 0xF0,  0x00, 0xF0, 0xE0,  0x00, 0xF0, 0xD0,  0x00, 0xF0, 0xC0,  
         ;    1014 	0x00, 0xF0, 0xB0,  0x00, 0xF0, 0xA0,  0x00, 0xF0, 0x90,  0x00, 0xF0, 0x80,  
         ;    1015 	0x00, 0xF0, 0x70,  0x00, 0xF0, 0x60,  0x00, 0xF0, 0x50,  0x00, 0xF0, 0x40,  
         ;    1016 	0x00, 0xF0, 0x30,  0x00, 0xF0, 0x20,  0x00, 0xF0, 0x10,  0x00, 0xF0, 0x00,  
         ;    1017 
         ;    1018 /* Green to yellow (red and green) */
         ;    1019 	0x00, 0xF0, 0x00,  0x10, 0xF0, 0x00,  0x20, 0xF0, 0x00,  0x30, 0xF0, 0x00,  
         ;    1020 	0x40, 0xF0, 0x00,  0x50, 0xF0, 0x00,  0x60, 0xF0, 0x00,  0x70, 0xF0, 0x00,  
         ;    1021 	0x80, 0xF0, 0x00,  0x90, 0xF0, 0x00,  0xA0, 0xF0, 0x00,  0xB0, 0xF0, 0x00,  
         ;    1022 	0xC0, 0xF0, 0x00,  0xD0, 0xF0, 0x00,  0xE0, 0xF0, 0x00,  0xF0, 0xF0, 0x00,  
         ;    1023 
         ;    1024 /* Yellow (red and green) to red */
         ;    1025 	0xF0, 0xF0, 0x00,  0xF0, 0xE0, 0x00,  0xF0, 0xD0, 0x00,  0xF0, 0xC0, 0x00,  
         ;    1026 	0xF0, 0xB0, 0x00,  0xF0, 0xA0, 0x00,  0xF0, 0x90, 0x00,  0xF0, 0x80, 0x00,  
         ;    1027 	0xF0, 0x70, 0x00,  0xF0, 0x60, 0x00,  0xF0, 0x50, 0x00,  0xF0, 0x40, 0x00,  
         ;    1028 	0xF0, 0x30, 0x00,  0xF0, 0x20, 0x00,  0xF0, 0x10, 0x00,  0xF0, 0x00, 0x00,  
         ;    1029 
         ;    1030 /* Red to magenta (blue and red) */
         ;    1031 	0xF0, 0x00, 0x00,  0xF0, 0x00, 0x10,  0xF0, 0x00, 0x20,  0xF0, 0x00, 0x30,  
         ;    1032 	0xF0, 0x00, 0x40,  0xF0, 0x00, 0x50,  0xF0, 0x00, 0x60,  0xF0, 0x00, 0x70,  
         ;    1033 	0xF0, 0x00, 0x80,  0xF0, 0x00, 0x90,  0xF0, 0x00, 0xA0,  0xF0, 0x00, 0xB0,  
         ;    1034 	0xF0, 0x00, 0xC0,  0xF0, 0x00, 0xD0,  0xF0, 0x00, 0xE0,  0xF0, 0x00, 0xF0,  
         ;    1035 
         ;    1036 /* Magenta (blue and red) to blue */
         ;    1037 	0xF0, 0x00, 0xF0,  0xE0, 0x00, 0xF0,  0xD0, 0x00, 0xF0,  0xC0, 0x00, 0xF0,  
         ;    1038 	0xB0, 0x00, 0xF0,  0xA0, 0x00, 0xF0,  0x90, 0x00, 0xF0,  0x80, 0x00, 0xF0,  
         ;    1039 	0x70, 0x00, 0xF0,  0x60, 0x00, 0xF0,  0x50, 0x00, 0xF0,  0x40, 0x00, 0xF0,  
         ;    1040 	0x30, 0x00, 0xF0,  0x20, 0x00, 0xF0,  0x10, 0x00, 0xF0,  0x00, 0x00, 0xF0,
         ;    1041 
         ;    1042 /* Black to magenta (blue and red) */
         ;    1043 	0x00, 0x00, 0x00,  0x10, 0x00, 0x10,  0x20, 0x00, 0x20,  0x30, 0x00, 0x30,  
         ;    1044 	0x40, 0x00, 0x40,  0x50, 0x00, 0x50,  0x60, 0x00, 0x60,  0x70, 0x00, 0x70,  
         ;    1045 	0x80, 0x00, 0x80,  0x90, 0x00, 0x90,  0xA0, 0x00, 0xA0,  0xB0, 0x00, 0xB0,  
         ;    1046 	0xC0, 0x00, 0xC0,  0xD0, 0x00, 0xD0,  0xE0, 0x00, 0xE0,  0xF0, 0x00, 0xF0,  
         ;    1047 
         ;    1048 /* Black to cyan (blue and green) */
         ;    1049 	0x00, 0x00, 0x00,  0x00, 0x10, 0x10,  0x00, 0x20, 0x20,  0x00, 0x30, 0x30,  
         ;    1050 	0x00, 0x40, 0x40,  0x00, 0x50, 0x50,  0x00, 0x60, 0x60,  0x00, 0x70, 0x70,  
         ;    1051 	0x00, 0x80, 0x80,  0x00, 0x90, 0x90,  0x00, 0xA0, 0xA0,  0x00, 0xB0, 0xB0,  
         ;    1052 	0x00, 0xC0, 0xC0,  0x00, 0xD0, 0xD0,  0x00, 0xE0, 0xE0,  0x00, 0xF0, 0xF0,  
         ;    1053 
         ;    1054 /* Red to white */
         ;    1055 	0xF0, 0x00, 0x00,  0xF0, 0x10, 0x10,  0xF0, 0x20, 0x20,  0xF0, 0x30, 0x30,  
         ;    1056 	0xF0, 0x40, 0x40,  0xF0, 0x50, 0x50,  0xF0, 0x60, 0x60,  0xF0, 0x70, 0x70,  
         ;    1057 	0xF0, 0x80, 0x80,  0xF0, 0x90, 0x90,  0xF0, 0xA0, 0xA0,  0xF0, 0xB0, 0xB0,  
         ;    1058 	0xF0, 0xC0, 0xC0,  0xF0, 0xD0, 0xD0,  0xF0, 0xE0, 0xE0,  0xF0, 0xF0, 0xF0,  
         ;    1059 
         ;    1060 /* Green to white */
         ;    1061 	0x00, 0xF0, 0x00,  0x10, 0xF0, 0x10,  0x20, 0xF0, 0x20,  0x30, 0xF0, 0x30,  
         ;    1062 	0x40, 0xF0, 0x40,  0x50, 0xF0, 0x50,  0x60, 0xF0, 0x60,  0x70, 0xF0, 0x70,  
         ;    1063 	0x80, 0xF0, 0x80,  0x90, 0xF0, 0x90,  0xA0, 0xF0, 0xA0,  0xB0, 0xF0, 0xB0,  
         ;    1064 	0xC0, 0xF0, 0xC0,  0xD0, 0xF0, 0xD0,  0xE0, 0xF0, 0xE0,  0xF0, 0xF0, 0xF0,  
         ;    1065 
         ;    1066 /* Blue to white */
         ;    1067 	0x00, 0x00, 0xF0,  0x10, 0x10, 0xF0,  0x20, 0x20, 0xF0,  0x30, 0x30, 0xF0,  
         ;    1068 	0x40, 0x40, 0xF0,  0x50, 0x50, 0xF0,  0x60, 0x60, 0xF0,  0x70, 0x70, 0xF0,  
         ;    1069 	0x80, 0x80, 0xF0,  0x90, 0x90, 0xF0,  0xA0, 0xA0, 0xF0,  0xB0, 0xB0, 0xF0,  
         ;    1070 	0xC0, 0xC0, 0xF0,  0xD0, 0xD0, 0xF0,  0xE0, 0xE0, 0xF0,  0xF0, 0xF0, 0xF0
         ;    1071 };
         ;    1072 //*************************************
         ;    1073 
         ;    1074 /**************************************
         ;    1075         LUT TABLE PIC 256 Colors
         ;    1076 BMP hs not RGB but BGR value, in function
         ;    1077 S1D13705_LUT_256_BMP these values are
         ;    1078 automaticly being switch
         ;    1079 ***************************************/
         ;    1080 flash unsigned char LUT_256_BMP[256*3] =
         ;    1081 {
         ;    1082 	0x00, 0x00, 0x00, 0x00, 0x00, 0x80, 0x00, 0x80, 0x00, 0x00, 0x80, 0x80, 
         ;    1083 	0x80, 0x00, 0x00, 0x80, 0x00, 0x80, 0x80, 0x80, 0x00, 0xC0, 0xC0, 0xC0, 
         ;    1084 	0xC0, 0xDC, 0xC0, 0xF0, 0xCA, 0xA6, 0x00, 0x20, 0x40, 0x00, 0x20, 0x60, 
         ;    1085 	0x00, 0x20, 0x80, 0x00, 0x20, 0xA0, 0x00, 0x20, 0xC0, 0x00, 0x20, 0xE0, 
         ;    1086 	
         ;    1087 	0x00, 0x40, 0x00, 0x00, 0x40, 0x20, 0x00, 0x40, 0x40, 0x00, 0x40, 0x60, 
         ;    1088 	0x00, 0x40, 0x80, 0x00, 0x40, 0xA0, 0x00, 0x40, 0xC0, 0x00, 0x40, 0xE0, 
         ;    1089 	0x00, 0x60, 0x00, 0x00, 0x60, 0x20, 0x00, 0x60, 0x40, 0x00, 0x60, 0x60, 
         ;    1090 	0x00, 0x60, 0x80, 0x00, 0x60, 0xA0, 0x00, 0x60, 0xC0, 0x00, 0x60, 0xE0, 
         ;    1091 
         ;    1092 	0x00, 0x80, 0x00, 0x00, 0x80, 0x20, 0x00, 0x80, 0x40, 0x00, 0x80, 0x60, 
         ;    1093 	0x00, 0x80, 0x80, 0x00, 0x80, 0xA0, 0x00, 0x80, 0xC0, 0x00, 0x80, 0xE0, 
         ;    1094 	0x00, 0xA0, 0x00, 0x00, 0xA0, 0x20, 0x00, 0xA0, 0x40, 0x00, 0xA0, 0x60, 
         ;    1095 	0x00, 0xA0, 0x80, 0x00, 0xA0, 0xA0, 0x00, 0xA0, 0xC0, 0x00, 0xA0, 0xE0, 
         ;    1096 
         ;    1097 	0x00, 0xC0, 0x00, 0x00, 0xC0, 0x20, 0x00, 0xC0, 0x40, 0x00, 0xC0, 0x60, 
         ;    1098 	0x00, 0xC0, 0x80, 0x00, 0xC0, 0xA0, 0x00, 0xC0, 0xC0, 0x00, 0xC0, 0xE0, 
         ;    1099 	0x00, 0xE0, 0x00, 0x00, 0xE0, 0x20, 0x00, 0xE0, 0x40, 0x00, 0xE0, 0x60, 
         ;    1100 	0x00, 0xE0, 0x80, 0x00, 0xE0, 0xA0, 0x00, 0xE0, 0xC0, 0x00, 0xE0, 0xE0, 
         ;    1101 
         ;    1102 	0x40, 0x00, 0x00, 0x40, 0x00, 0x20, 0x40, 0x00, 0x40, 0x40, 0x00, 0x60, 
         ;    1103 	0x40, 0x00, 0x80, 0x40, 0x00, 0xA0, 0x40, 0x00, 0xC0, 0x40, 0x00, 0xE0, 
         ;    1104 	0x40, 0x20, 0x00, 0x40, 0x20, 0x20, 0x40, 0x20, 0x40, 0x40, 0x20, 0x60, 
         ;    1105 	0x40, 0x20, 0x80, 0x40, 0x20, 0xA0, 0x40, 0x20, 0xC0, 0x40, 0x20, 0xE0, 
         ;    1106 
         ;    1107 	0x40, 0x40, 0x00, 0x40, 0x40, 0x20, 0x40, 0x40, 0x40, 0x40, 0x40, 0x60, 
         ;    1108 	0x40, 0x40, 0x80, 0x40, 0x40, 0xA0, 0x40, 0x40, 0xC0, 0x40, 0x40, 0xE0, 
         ;    1109 	0x40, 0x60, 0x00, 0x40, 0x60, 0x20, 0x40, 0x60, 0x40, 0x40, 0x60, 0x60, 
         ;    1110 	0x40, 0x60, 0x80, 0x40, 0x60, 0xA0, 0x40, 0x60, 0xC0, 0x40, 0x60, 0xE0, 
         ;    1111 	
         ;    1112 	0x40, 0x80, 0x00, 0x40, 0x80, 0x20, 0x40, 0x80, 0x40, 0x40, 0x80, 0x60, 
         ;    1113 	0x40, 0x80, 0x80, 0x40, 0x80, 0xA0, 0x40, 0x80, 0xC0, 0x40, 0x80, 0xE0, 
         ;    1114 	0x40, 0xA0, 0x00, 0x40, 0xA0, 0x20, 0x40, 0xA0, 0x40, 0x40, 0xA0, 0x60, 
         ;    1115 	0x40, 0xA0, 0x80, 0x40, 0xA0, 0xA0, 0x40, 0xA0, 0xC0, 0x40, 0xA0, 0xE0, 
         ;    1116 	
         ;    1117 	0x40, 0xC0, 0x00, 0x40, 0xC0, 0x20, 0x40, 0xC0, 0x40, 0x40, 0xC0, 0x60, 
         ;    1118 	0x40, 0xC0, 0x80, 0x40, 0xC0, 0xA0, 0x40, 0xC0, 0xC0, 0x40, 0xC0, 0xE0, 
         ;    1119 	0x40, 0xE0, 0x00, 0x40, 0xE0, 0x20, 0x40, 0xE0, 0x40, 0x40, 0xE0, 0x60, 
         ;    1120 	0x40, 0xE0, 0x80, 0x40, 0xE0, 0xA0, 0x40, 0xE0, 0xC0, 0x40, 0xE0, 0xE0, 
         ;    1121 	
         ;    1122 	0x80, 0x00, 0x00, 0x80, 0x00, 0x20, 0x80, 0x00, 0x40, 0x80, 0x00, 0x60, 
         ;    1123 	0x80, 0x00, 0x80, 0x80, 0x00, 0xA0, 0x80, 0x00, 0xC0, 0x80, 0x00, 0xE0, 
         ;    1124 	0x80, 0x20, 0x00, 0x80, 0x20, 0x20, 0x80, 0x20, 0x40, 0x80, 0x20, 0x60, 
         ;    1125 	0x80, 0x20, 0x80, 0x80, 0x20, 0xA0, 0x80, 0x20, 0xC0, 0x80, 0x20, 0xE0, 
         ;    1126 	
         ;    1127 	0x80, 0x40, 0x00, 0x80, 0x40, 0x20, 0x80, 0x40, 0x40, 0x80, 0x40, 0x60, 
         ;    1128 	0x80, 0x40, 0x80, 0x80, 0x40, 0xA0, 0x80, 0x40, 0xC0, 0x80, 0x40, 0xE0, 
         ;    1129 	0x80, 0x60, 0x00, 0x80, 0x60, 0x20, 0x80, 0x60, 0x40, 0x80, 0x60, 0x60, 
         ;    1130 	0x80, 0x60, 0x80, 0x80, 0x60, 0xA0, 0x80, 0x60, 0xC0, 0x80, 0x60, 0xE0, 
         ;    1131 	
         ;    1132 	0x80, 0x80, 0x00, 0x80, 0x80, 0x20, 0x80, 0x80, 0x40, 0x80, 0x80, 0x60, 
         ;    1133 	0x80, 0x80, 0x80, 0x80, 0x80, 0xA0, 0x80, 0x80, 0xC0, 0x80, 0x80, 0xE0, 
         ;    1134 	0x80, 0xA0, 0x00, 0x80, 0xA0, 0x20, 0x80, 0xA0, 0x40, 0x80, 0xA0, 0x60, 
         ;    1135 	0x80, 0xA0, 0x80, 0x80, 0xA0, 0xA0, 0x80, 0xA0, 0xC0, 0x80, 0xA0, 0xE0, 
         ;    1136 
         ;    1137 	0x80, 0xC0, 0x00, 0x80, 0xC0, 0x20, 0x80, 0xC0, 0x40, 0x80, 0xC0, 0x60, 
         ;    1138 	0x80, 0xC0, 0x80, 0x80, 0xC0, 0xA0, 0x80, 0xC0, 0xC0, 0x80, 0xC0, 0xE0, 
         ;    1139 	0x80, 0xE0, 0x00, 0x80, 0xE0, 0x20, 0x80, 0xE0, 0x40, 0x80, 0xE0, 0x60, 
         ;    1140 	0x80, 0xE0, 0x80, 0x80, 0xE0, 0xA0, 0x80, 0xE0, 0xC0, 0x80, 0xE0, 0xE0, 
         ;    1141 
         ;    1142 	0xC0, 0x00, 0x00, 0xC0, 0x00, 0x20, 0xC0, 0x00, 0x40, 0xC0, 0x00, 0x60, 
         ;    1143 	0xC0, 0x00, 0x80, 0xC0, 0x00, 0xA0, 0xC0, 0x00, 0xC0, 0xC0, 0x00, 0xE0, 
         ;    1144 	0xC0, 0x20, 0x00, 0xC0, 0x20, 0x20, 0xC0, 0x20, 0x40, 0xC0, 0x20, 0x60, 
         ;    1145 	0xC0, 0x20, 0x80, 0xC0, 0x20, 0xA0, 0xC0, 0x20, 0xC0, 0xC0, 0x20, 0xE0, 
         ;    1146 
         ;    1147 	0xC0, 0x40, 0x00, 0xC0, 0x40, 0x20, 0xC0, 0x40, 0x40, 0xC0, 0x40, 0x60, 
         ;    1148 	0xC0, 0x40, 0x80, 0xC0, 0x40, 0xA0, 0xC0, 0x40, 0xC0, 0xC0, 0x40, 0xE0, 
         ;    1149 	0xC0, 0x60, 0x00, 0xC0, 0x60, 0x20, 0xC0, 0x60, 0x40, 0xC0, 0x60, 0x60, 
         ;    1150 	0xC0, 0x60, 0x80, 0xC0, 0x60, 0xA0, 0xC0, 0x60, 0xC0, 0xC0, 0x60, 0xE0, 
         ;    1151 
         ;    1152 	0xC0, 0x80, 0x00, 0xC0, 0x80, 0x20, 0xC0, 0x80, 0x40, 0xC0, 0x80, 0x60, 
         ;    1153 	0xC0, 0x80, 0x80, 0xC0, 0x80, 0xA0, 0xC0, 0x80, 0xC0, 0xC0, 0x80, 0xE0, 
         ;    1154 	0xC0, 0xA0, 0x00, 0xC0, 0xA0, 0x20, 0xC0, 0xA0, 0x40, 0xC0, 0xA0, 0x60, 
         ;    1155 	0xC0, 0xA0, 0x80, 0xC0, 0xA0, 0xA0, 0xC0, 0xA0, 0xC0, 0xC0, 0xA0, 0xE0, 
         ;    1156 
         ;    1157 	0xC0, 0xC0, 0x00, 0xC0, 0xC0, 0x20, 0xC0, 0xC0, 0x40, 0xC0, 0xC0, 0x60, 
         ;    1158 	0xC0, 0xC0, 0x80, 0xC0, 0xC0, 0xA0, 0xF0, 0xFB, 0xFF, 0xA4, 0xA0, 0xA0, 
         ;    1159 	0x80, 0x80, 0x80, 0x00, 0x00, 0xFF, 0x00, 0xFF, 0x00, 0x00, 0xFF, 0xFF, 
         ;    1160 	0xFF, 0x00, 0x00, 0xFF, 0x00, 0xFF, 0xFF, 0xFF, 0x00, 0xFF, 0xFF, 0xFF 
         ;    1161 };
         ;    1162 //*************************************
         ;    1163 
         ;    1164 /**************************************
         ;    1165         LUT TABEL PIC 16 Colors  
         ;    1166 BMP has not RGB value but BGR in function:
         ;    1167 S1D13705_LUT_16_BMP, the red and blue
         ;    1168 are switch automaticly!
         ;    1169 **************************************/
         ;    1170 flash unsigned char LUT_16_BMP[16*3] =
         ;    1171 {    
         ;    1172 	0x00, 0x00, 0x00,  0x00, 0x00, 0x80,   0x00, 0x80, 0x00,  0x00, 0x80, 0x80, 
         ;    1173 	0x80, 0x00, 0x00,  0x80, 0x00, 0x80,   0x80, 0x80, 0x00,  0x80, 0x80, 0x80, 
         ;    1174 	0xC0, 0xC0, 0xC0,  0x00, 0x00, 0xF0,   0x00, 0xF0, 0x00,  0x00, 0xF0, 0xF0, 
         ;    1175 	0xF0, 0x00, 0x00,  0xF0, 0x00, 0xF0,   0xF0, 0xF0, 0x00,  0xF0, 0xF0, 0xF0
         ;    1176 };
         ;    1177 //*************************************
         ;    1178                                         
         ;    1179 /**************************************
         ;    1180 Functie: Activeer LUT 16 colors
         ;    1181 **************************************/
         ;    1182 void S1D13705_LUT_16(void)
         ;    1183 {
         ;    1184         flash unsigned char *pLUT;
         ;    1185         unsigned char i;
         ;    1186         
         ;    1187         //Stel LUT tabel informatie in
         ;    1188         S1D13705_Write_Register(0x15,0);                                //Stel eerst LUT adres register in
         ;	*pLUT -> R16,R17
         ;	i -> R18
         ;    1189         
         ;    1190         pLUT = LUT_16;                                                  //pLUT wijst naar de LUT array 
         ;    1191         for(i=0;i<16;i++)
         ;    1192         {
         ;    1193                 S1D13705_Write_Register(0x17,*pLUT);                    //Zet rood
         ;    1194                 pLUT++;        
         ;    1195                 S1D13705_Write_Register(0x17,*pLUT);                    //Zet groen
         ;    1196                 pLUT++;        
         ;    1197                 S1D13705_Write_Register(0x17,*pLUT);                    //Zet blauw
         ;    1198                 pLUT++;                                                   
         ;    1199         }
         ;    1200         
         ;    1201         return;
         ;    1202 }
         ;    1203 //*************************************
         ;    1204 
         ;    1205 /**************************************
         ;    1206 Functie: Activeer LUT 256 colors
         ;    1207 **************************************/
         ;    1208 void S1D13705_LUT_256(void)
         ;    1209 {
          _S1D13705_LUT_256:
         ;    1210         flash unsigned char *pLUT;
         ;    1211         unsigned int i;
         ;    1212         
         ;    1213         //Stel LUT tabel informatie in
         ;    1214         S1D13705_Write_Register(0x15,0);                                //Stel eerst LUT adres register in
000dc7 940e 1f52 	CALL __SAVELOCR4
         ;	*pLUT -> R16,R17
         ;	i -> R18,R19
000dc9 940e 1a57 	CALL SUBOPT_0x1E
         ;    1215         
         ;    1216         pLUT = LUT_256;                                                 //pLUT wijst naar de LUT array 
000dcb e3ec      	LDI  R30,LOW(_LUT_256*2)
000dcc e0f4      	LDI  R31,HIGH(_LUT_256*2)
000dcd   +  	__PUTW1R 16,17
         ;    1217         for(i=0;i<256;i++)
000dcf   +  	__GETWRN 18,19,0
          _0xBB:
000dd1   +  	__CPWRN 18,19,256
000dd4 f478      	BRSH _0xBC
         ;    1218         {
         ;    1219                 S1D13705_Write_Register(0x17,*pLUT);                    //Zet rood
000dd5 940e 1a5d 	CALL SUBOPT_0x1F
         ;    1220                 pLUT++;        
000dd7   +  	__ADDWRN 16,17,1
         ;    1221                 S1D13705_Write_Register(0x17,*pLUT);                    //Zet groen
000dd9 940e 1a5d 	CALL SUBOPT_0x1F
         ;    1222                 pLUT++;        
000ddb   +  	__ADDWRN 16,17,1
         ;    1223                 S1D13705_Write_Register(0x17,*pLUT);                    //Zet blauw
000ddd 940e 1a5d 	CALL SUBOPT_0x1F
         ;    1224                 pLUT++;                                                   
000ddf   +  	__ADDWRN 16,17,1
         ;    1225         }
000de1   +  	__ADDWRN 18,19,1
000de3 cfed      	RJMP _0xBB
          _0xBC:
         ;    1226         
         ;    1227         return;
000de4 940e 1f59 	CALL __LOADLOCR4
000de6 9624      	ADIW R28,4
000de7 9508      	RET
         ;    1228 }
         ;    1229 //*************************************
         ;    1230 
         ;    1231 /**************************************
         ;    1232 Functie: Write LUT table 16 colors for
         ;    1233          BMP. LUT table BMP begins with
         ;    1234          the blue color and not red!
         ;    1235          LUT BMP is BGR, S1D13705 LUT is RGB!
         ;    1236 **************************************/
         ;    1237 void S1D13705_LUT_16_BMP(void)
         ;    1238 {
         ;    1239         flash unsigned char *pLUT;
         ;    1240         unsigned char red;
         ;    1241         unsigned char green;
         ;    1242         unsigned char blue;
         ;    1243         unsigned char i;
         ;    1244         
         ;    1245         //Set first the LUT adress at 0
         ;    1246         S1D13705_Write_Register(0x15,0);                                
         ;	*pLUT -> R16,R17
         ;	red -> R18
         ;	green -> R19
         ;	blue -> R20
         ;	i -> R21
         ;    1247         
         ;    1248         pLUT = LUT_16_BMP;                                              //pLUT points to LUT_16_BMP
         ;    1249         
         ;    1250         //Write LUT values to LUT register        
         ;    1251         for(i=0;i<16;i++)
         ;    1252         {
         ;    1253                 //Read color values from LUT table
         ;    1254                 blue = *pLUT++;                                         //Read the blue value from LUT table
         ;    1255                 green = *pLUT++;                                        //Read the green value from LUT table
         ;    1256                 red = *pLUT++;                                          //Read the red value from LUT table
         ;    1257                 
         ;    1258                 //Write color values to LUT register S1D13705
         ;    1259                 S1D13705_Write_Register(0x17,red);                      //Write red value
         ;    1260                 S1D13705_Write_Register(0x17,green);                    //Write green value
         ;    1261                 S1D13705_Write_Register(0x17,blue);                     //Write blue value
         ;    1262         }
         ;    1263         
         ;    1264         return;
         ;    1265 }
         ;    1266 //*************************************
         ;    1267 
         ;    1268 /**************************************
         ;    1269 Functie: Write LUT tabel 256 colors for
         ;    1270          BMP, LUT table BMP begins with
         ;    1271          the blue color and not red!
         ;    1272          LUT BMP is BGR, S1D13705 LUT is RGB!
         ;    1273 **************************************/
         ;    1274 void S1D13705_LUT_256_BMP(void)
         ;    1275 {
         ;    1276         flash unsigned char *pLUT;
         ;    1277         unsigned char red;
         ;    1278         unsigned char green;
         ;    1279         unsigned char blue;
         ;    1280         unsigned int i;
         ;    1281         
         ;    1282         //Set first the LUT adress at 0
         ;    1283         S1D13705_Write_Register(0x15,0);                                
         ;	*pLUT -> R16,R17
         ;	red -> R18
         ;	green -> R19
         ;	blue -> R20
         ;	i -> Y+5
         ;    1284         
         ;    1285         pLUT = LUT_256_BMP;                                             //pLUT points to LUT_16_BMP
         ;    1286         
         ;    1287         //Schrijf LUT waardes, let erop
         ;    1288         for(i=0;i<256;i++)
         ;    1289         {
         ;    1290                 //Read color values from LUT table
         ;    1291                 blue = *pLUT++;                                         //Read the blue value from LUT table                                    
         ;    1292                 green = *pLUT++;                                        //Read the green value from LUT table
         ;    1293                 red = *pLUT++;                                          //Read the red value from LUT table
         ;    1294                 
         ;    1295                 //Write color values to LUT register S1D13705
         ;    1296                 S1D13705_Write_Register(0x17,red);                      //Write red value  
         ;    1297                 S1D13705_Write_Register(0x17,green);                    //Write green value
         ;    1298                 S1D13705_Write_Register(0x17,blue);                     //Write blue value  
         ;    1299         }
         ;    1300         
         ;    1301         return;
         ;    1302 }
         ;    1303 //************************************* 
         ;    1304         
         ;    1305 /*********************************************************
         ;    1306                 COMPACT FLASH DRIVER
         ;    1307 
         ;    1308 Versie informatie:
         ;    1309 ----------------------------------------------------------
         ;    1310 Versie 0.1:
         ;    1311 - Beta versie.
         ;    1312 
         ;    1313 ----------------------------------------------------------
         ;    1314 
         ;    1315 *********************************************************/
         ;    1316 
         ;    1317 //Include DEFS voor CF
         ;    1318 
         ;    1319 
         ;    1320 //**************************************
         ;    1321       
         ;    1322 
         ;    1323 //CF DEFS
         ;    1324 //Eerst de poorten, dit hoef dan alleen maar verander te worden
         ;    1325 #define CF_WriteData    PORTA
         ;    1326 #define CF_ReadData     PINA
         ;    1327 
         ;    1328 #define CF_DataPort_Out DDRA = 0xFF
         ;    1329 #define CF_DataPort_In  DDRA = 0x00  
         ;    1330 
         ;    1331 #define CF_CE1          PORTB.0                         
         ;    1332 #define CF_A2           PORTC.0
         ;    1333 #define CF_A1           PORTC.1
         ;    1334 #define CF_A0           PORTC.2
         ;    1335 
         ;    1336 #define CF_WR           PORTD.6                 
         ;    1337 #define CF_RD           PORTD.7                                
         ;    1338 
         ;    1339 //Besturing CF
         ;    1340 #define CF_ON           CF_CE1 = 0  
         ;    1341 #define CF_OFF          CF_CE1 = 1
         ;    1342 #define CF_Read_ON      CF_RD = 0
         ;    1343 #define CF_Read_OFF     CF_RD = 1
         ;    1344 #define CF_Write_ON     CF_WR = 0
         ;    1345 #define CF_Write_OFF    CF_WR = 1
         ;    1346 
         ;    1347 //Offset 
         ;    1348 #define CF_OffSet_ReadData              (CF_A2 = 0) | (CF_A1 = 0) | (CF_A0 = 0)
         ;    1349 #define CF_OffSet_WriteData             (CF_A2 = 0) | (CF_A1 = 0) | (CF_A0 = 0)
         ;    1350 #define CF_OffSet_Error                 (CF_A2 = 0) | (CF_A1 = 0) | (CF_A0 = 1)
         ;    1351 #define CF_OffSet_Features              (CF_A2 = 0) | (CF_A1 = 0) | (CF_A0 = 1)
         ;    1352 #define CF_OffSet_Sector_CNT            (CF_A2 = 0) | (CF_A1 = 1) | (CF_A0 = 0)
         ;    1353 #define CF_OffSet_Secotor_NO            (CF_A2 = 0) | (CF_A1 = 1) | (CF_A0 = 1)
         ;    1354 #define CF_OffSet_Cylinder_Low          (CF_A2 = 1) | (CF_A1 = 0) | (CF_A0 = 0)     
         ;    1355 #define CF_OffSet_Cylinder_High         (CF_A2 = 1) | (CF_A1 = 0) | (CF_A0 = 1)
         ;    1356 #define CF_OffSet_Head                  (CF_A2 = 1) | (CF_A1 = 1) | (CF_A0 = 0)       
         ;    1357 #define CF_OffSet_Status                (CF_A2 = 1) | (CF_A1 = 1) | (CF_A0 = 1)
         ;    1358 #define CF_OffSet_Command               (CF_A2 = 1) | (CF_A1 = 1) | (CF_A0 = 1)
         ;    1359          
         ;    1360 //CF-ATA commando's         
         ;    1361 #define CF_CMD_Erase_Sector     0xC0
         ;    1362 #define CF_CMD_ID               0xEC
         ;    1363 #define CF_CMD_Read_Sector      0x20
         ;    1364 #define CF_CMD_Write_Sector     0x30
         ;    1365 //**************************************
         ;    1366 
         ;    1367 /**************************************
         ;    1368 CF INIT
         ;    1369 I/O poorten instellen van de CF
         ;    1370 **************************************/
         ;    1371 void CF_Init(void)
         ;    1372 {
          _CF_Init:
         ;    1373         //Zet CF, lezen en schrijven uit
         ;    1374         CF_OFF;                                         
000de8 9ac0      	SBI  0x18,0
         ;    1375         CF_Read_OFF;
000de9 9a97      	SBI  0x12,7
         ;    1376         CF_Write_OFF;                   
000dea 9a96      	SBI  0x12,6
         ;    1377         
         ;    1378         //Zet CF offset op 0
         ;    1379         CF_OffSet_ReadData;
000deb 98a8      	CBI  0x15,0
000dec 98a9      	CBI  0x15,1
000ded e0e0      	LDI  R30,LOW(0)
000dee 2fae      	MOV  R26,R30
000def 98aa      	CBI  0x15,2
000df0 2bea      	OR   R30,R26
         ;    1380         
         ;    1381         return;
000df1 9508      	RET
         ;    1382 }
         ;    1383 //*************************************
         ;    1384 
         ;    1385 /**************************************
         ;    1386 CF Wait Ready
         ;    1387 lees of CF is ready voor actie
         ;    1388 **************************************/
         ;    1389 void CF_Wait_RDY(void)
         ;    1390 {
          _CF_Wait_RDY:
         ;    1391         unsigned char CF_Register;
         ;    1392         
         ;    1393         //Lees de register van de CF en check of
         ;    1394         //de ready bit is set
         ;    1395         while(1)
000df2 930a      	ST   -Y,R16
         ;	CF_Register -> R16
          _0xC3:
         ;    1396         {
         ;    1397                // Check_Data_Ready();
         ;    1398                 
         ;    1399                 CF_Register = CF_Read_Register(7);      //Offset 7
000df3 940e 1a65 	CALL SUBOPT_0x20
         ;    1400                 CF_Register = CF_Register & 0x40;       //Check alleen RDY Bit
000df5 7400      	ANDI R16,LOW(64)
         ;    1401                 
         ;    1402                 if(CF_Register == 0x40)                 //Als RDY bit is 1 dan verlaat loop
000df6 3400      	CPI  R16,64
000df7 f009      	BREQ _0xC5
         ;    1403                         break;
         ;    1404         }  
000df8 cffa      	RJMP _0xC3
          _0xC5:
         ;    1405 
         ;    1406         return;
000df9 c007      	RJMP _0x246
         ;    1407 }
         ;    1408 //************************************* 
         ;    1409 
         ;    1410 /**************************************
         ;    1411 CF Wait Data Request
         ;    1412 wacht totdat de DRQ bit is set
         ;    1413 **************************************/
         ;    1414 void CF_Wait_DRQ(void)
         ;    1415 {
          _CF_Wait_DRQ:
         ;    1416         unsigned char CF_Register;
         ;    1417         
         ;    1418         //Lees de register van de CF en
         ;    1419         //check of de DRQ bit is set
         ;    1420         while(1)
000dfa 930a      	ST   -Y,R16
         ;	CF_Register -> R16
          _0xC7:
         ;    1421         {
         ;    1422          //       Check_Data_Ready();
         ;    1423                
         ;    1424                 CF_Register = CF_Read_Register(7);      //Offset 7
000dfb 940e 1a65 	CALL SUBOPT_0x20
         ;    1425                 CF_Register = CF_Register & 0x08;       //Check alleen DRQ Bit
000dfd 7008      	ANDI R16,LOW(8)
         ;    1426                 
         ;    1427                 if(CF_Register == 0x08)                 //Als DRQ bit is 1, verlaat loop
000dfe 3008      	CPI  R16,8
000dff f009      	BREQ _0xC9
         ;    1428                         break;
         ;    1429         }
000e00 cffa      	RJMP _0xC7
          _0xC9:
         ;    1430         
         ;    1431         return;
          _0x246:
000e01 9109      	LD   R16,Y+
000e02 9508      	RET
         ;    1432 }
         ;    1433 //*************************************
         ;    1434 
         ;    1435 /**************************************
         ;    1436 CF Error register
         ;    1437 lees de error register van de CF
         ;    1438 **************************************/
         ;    1439 unsigned char CF_Error_Reg(void)
         ;    1440 {
         ;    1441         unsigned char CF_Register;
         ;    1442         
         ;    1443         //Lees de error register van de CF
         ;    1444         CF_Register = CF_Read_Register(1);              //Offset 1
         ;	CF_Register -> R16
         ;    1445         
         ;    1446         return (CF_Register);
         ;    1447 }
         ;    1448 //*************************************
         ;    1449 
         ;    1450 /**************************************
         ;    1451 CF Write registers
         ;    1452 schrijf naar de register van de CF
         ;    1453 **************************************/
         ;    1454 void CF_Write_Register(unsigned char Reg_Adres, unsigned char Reg_Value)
         ;    1455 {
          _CF_Write_Register:
         ;    1456         CF_DataPort_Out;                                //PORTx instellen als output
000e03 efef      	LDI  R30,LOW(255)
000e04 bbea      	OUT  0x1A,R30
         ;    1457         CF_Write_OFF;                                   //Zet CF schrijven uit
000e05 9a96      	SBI  0x12,6
         ;    1458         
         ;    1459         
         ;    1460         //Bepaal de offset instelling
         ;    1461         switch(Reg_Adres)
000e06 81e9      	LDD  R30,Y+1
         ;    1462         {
         ;    1463                 case 0:
000e07 30e0      	CPI  R30,0
000e08 f431      	BRNE _0xCE
         ;    1464                         CF_OffSet_WriteData;            //Offset voor schrijven van data
000e09 98a8      	CBI  0x15,0
000e0a 98a9      	CBI  0x15,1
000e0b e0e0      	LDI  R30,LOW(0)
000e0c 2fae      	MOV  R26,R30
000e0d 98aa      	CBI  0x15,2
000e0e c03b      	RJMP _0x24A
         ;    1465                         break;
         ;    1466                 case 1:
          _0xCE:
000e0f 30e1      	CPI  R30,LOW(0x1)
000e10 f431      	BRNE _0xCF
         ;    1467                         CF_OffSet_Features;             //Offset voor schrijven van features
000e11 98a8      	CBI  0x15,0
000e12 98a9      	CBI  0x15,1
000e13 e0e0      	LDI  R30,LOW(0)
000e14 2fae      	MOV  R26,R30
000e15 9aaa      	SBI  0x15,2
000e16 c032      	RJMP _0x24B
         ;    1468                         break;
         ;    1469                 case 2:
          _0xCF:
000e17 30e2      	CPI  R30,LOW(0x2)
000e18 f439      	BRNE _0xD0
         ;    1470                         CF_OffSet_Sector_CNT;           //Offset voor schrijven van de sector teller 
000e19 98a8      	CBI  0x15,0
000e1a 9aa9      	SBI  0x15,1
000e1b e0e1      	LDI  R30,LOW(1)
000e1c 2fae      	MOV  R26,R30
000e1d 98aa      	CBI  0x15,2
000e1e e0e0      	LDI  R30,LOW(0)
000e1f c02a      	RJMP _0x24A
         ;    1471                         break;
         ;    1472                 case 3:
          _0xD0:
000e20 30e3      	CPI  R30,LOW(0x3)
000e21 f431      	BRNE _0xD1
         ;    1473                         CF_OffSet_Secotor_NO;           //Offset voor schrijven van de sector nummer
000e22 98a8      	CBI  0x15,0
000e23 9aa9      	SBI  0x15,1
000e24 e0e1      	LDI  R30,LOW(1)
000e25 2fae      	MOV  R26,R30
000e26 9aaa      	SBI  0x15,2
000e27 c021      	RJMP _0x24B
         ;    1474                         break;
         ;    1475                 case 4:
          _0xD1:
000e28 30e4      	CPI  R30,LOW(0x4)
000e29 f439      	BRNE _0xD2
         ;    1476                         CF_OffSet_Cylinder_Low;         //Offset voor schrijven van de cylinder laag
000e2a 9aa8      	SBI  0x15,0
000e2b 98a9      	CBI  0x15,1
000e2c 940e 1a6b 	CALL SUBOPT_0x21
000e2e 98aa      	CBI  0x15,2
000e2f e0e0      	LDI  R30,LOW(0)
000e30 c019      	RJMP _0x24A
         ;    1477                         break;
         ;    1478                 case 5:
          _0xD2:
000e31 30e5      	CPI  R30,LOW(0x5)
000e32 f431      	BRNE _0xD3
         ;    1479                         CF_OffSet_Cylinder_High;        //Offset voor schrijven van de cylinder hoog
000e33 9aa8      	SBI  0x15,0
000e34 98a9      	CBI  0x15,1
000e35 940e 1a6b 	CALL SUBOPT_0x21
000e37 9aaa      	SBI  0x15,2
000e38 c010      	RJMP _0x24B
         ;    1480                         break;
         ;    1481                 case 6:
          _0xD3:
000e39 30e6      	CPI  R30,LOW(0x6)
000e3a f439      	BRNE _0xD4
         ;    1482                         CF_OffSet_Head;                 //Offset voor schrijven van de head of select card
000e3b 9aa8      	SBI  0x15,0
000e3c 9aa9      	SBI  0x15,1
000e3d 940e 1a6f 	CALL SUBOPT_0x22
000e3f 98aa      	CBI  0x15,2
000e40 e0e0      	LDI  R30,LOW(0)
000e41 c008      	RJMP _0x24A
         ;    1483                         break;
         ;    1484                 case 7:
          _0xD4:
000e42 30e7      	CPI  R30,LOW(0x7)
000e43 f439      	BRNE _0xCD
         ;    1485                         CF_OffSet_Command;              //Offset voor schrijven van de commando
000e44 9aa8      	SBI  0x15,0
000e45 9aa9      	SBI  0x15,1
000e46 940e 1a6f 	CALL SUBOPT_0x22
000e48 9aaa      	SBI  0x15,2
          _0x24B:
000e49 e0e1      	LDI  R30,LOW(1)
          _0x24A:
000e4a 2bea      	OR   R30,R26
         ;    1486                         break;                                                                 
         ;    1487         }
          _0xCD:
         ;    1488                 
         ;    1489         CF_WriteData = Reg_Value;                       //Zet register waarde op de data port 
000e4b 81e8      	LD   R30,Y
000e4c bbeb      	OUT  0x1B,R30
         ;    1490         CF_Write_ON;                                    //Zet CF schrijven aan
000e4d 9896      	CBI  0x12,6
         ;    1491         
         ;    1492         #asm("nop");                                    //Wacht 4 klokcycles
000e4e 0000      	nop
         ;    1493         #asm("nop");
000e4f 0000      	nop
         ;    1494         #asm("nop");
000e50 0000      	nop
         ;    1495         #asm("nop");                                                        
000e51 0000      	nop
         ;    1496         
         ;    1497         CF_Write_OFF;                                   //Zet CF schrijven uit
000e52 9a96      	SBI  0x12,6
         ;    1498         
         ;    1499 
         ;    1500         return;
000e53 9622      	ADIW R28,2
000e54 9508      	RET
         ;    1501 }
         ;    1502 //*************************************
         ;    1503 
         ;    1504 /**************************************
         ;    1505 CF Read registers
         ;    1506 lees de waarde van een register van de CF
         ;    1507 **************************************/
         ;    1508 unsigned char CF_Read_Register(unsigned char Reg_Adres)
         ;    1509 {
          _CF_Read_Register:
         ;    1510         unsigned char CF_Data;
         ;    1511         
         ;    1512         CF_DataPort_In;                                 //PORTx instellen als input
000e55 930a      	ST   -Y,R16
         ;	Reg_Adres -> Y+1
         ;	CF_Data -> R16
000e56 e0e0      	LDI  R30,LOW(0)
000e57 bbea      	OUT  0x1A,R30
         ;    1513         CF_Write_OFF;                                   //CF schrijven uit
000e58 9a96      	SBI  0x12,6
         ;    1514         CF_Read_OFF;                                    //CF lezen uit
000e59 9a97      	SBI  0x12,7
         ;    1515         
         ;    1516         //Bepaal de offset instelling
         ;    1517         switch(Reg_Adres)
000e5a 81e9      	LDD  R30,Y+1
         ;    1518         {
         ;    1519                 case 0:
000e5b 30e0      	CPI  R30,0
000e5c f431      	BRNE _0xD9
         ;    1520                         CF_OffSet_ReadData;             //Offset voor lezen van data
000e5d 98a8      	CBI  0x15,0
000e5e 98a9      	CBI  0x15,1
000e5f e0e0      	LDI  R30,LOW(0)
000e60 2fae      	MOV  R26,R30
000e61 98aa      	CBI  0x15,2
000e62 c03b      	RJMP _0x24C
         ;    1521                         break;
         ;    1522                 case 1:
          _0xD9:
000e63 30e1      	CPI  R30,LOW(0x1)
000e64 f431      	BRNE _0xDA
         ;    1523                         CF_OffSet_Error;                //Offset voor lezen van errors
000e65 98a8      	CBI  0x15,0
000e66 98a9      	CBI  0x15,1
000e67 e0e0      	LDI  R30,LOW(0)
000e68 2fae      	MOV  R26,R30
000e69 9aaa      	SBI  0x15,2
000e6a c032      	RJMP _0x24D
         ;    1524                         break;
         ;    1525                 case 2:
          _0xDA:
000e6b 30e2      	CPI  R30,LOW(0x2)
000e6c f439      	BRNE _0xDB
         ;    1526                         CF_OffSet_Sector_CNT;           //Offset voor lezen van de sector teller 
000e6d 98a8      	CBI  0x15,0
000e6e 9aa9      	SBI  0x15,1
000e6f e0e1      	LDI  R30,LOW(1)
000e70 2fae      	MOV  R26,R30
000e71 98aa      	CBI  0x15,2
000e72 e0e0      	LDI  R30,LOW(0)
000e73 c02a      	RJMP _0x24C
         ;    1527                         break;
         ;    1528                 case 3:
          _0xDB:
000e74 30e3      	CPI  R30,LOW(0x3)
000e75 f431      	BRNE _0xDC
         ;    1529                         CF_OffSet_Secotor_NO;           //Offset voor lezen van de sector nummer
000e76 98a8      	CBI  0x15,0
000e77 9aa9      	SBI  0x15,1
000e78 e0e1      	LDI  R30,LOW(1)
000e79 2fae      	MOV  R26,R30
000e7a 9aaa      	SBI  0x15,2
000e7b c021      	RJMP _0x24D
         ;    1530                         break;
         ;    1531                 case 4:
          _0xDC:
000e7c 30e4      	CPI  R30,LOW(0x4)
000e7d f439      	BRNE _0xDD
         ;    1532                         CF_OffSet_Cylinder_Low;         //Offset voor lezen van de cylinder laag
000e7e 9aa8      	SBI  0x15,0
000e7f 98a9      	CBI  0x15,1
000e80 940e 1a6b 	CALL SUBOPT_0x21
000e82 98aa      	CBI  0x15,2
000e83 e0e0      	LDI  R30,LOW(0)
000e84 c019      	RJMP _0x24C
         ;    1533                         break;
         ;    1534                 case 5:
          _0xDD:
000e85 30e5      	CPI  R30,LOW(0x5)
000e86 f431      	BRNE _0xDE
         ;    1535                         CF_OffSet_Cylinder_High;        //Offset voor lezen van de cylinder hoog
000e87 9aa8      	SBI  0x15,0
000e88 98a9      	CBI  0x15,1
000e89 940e 1a6b 	CALL SUBOPT_0x21
000e8b 9aaa      	SBI  0x15,2
000e8c c010      	RJMP _0x24D
         ;    1536                         break;
         ;    1537                 case 6:
          _0xDE:
000e8d 30e6      	CPI  R30,LOW(0x6)
000e8e f439      	BRNE _0xDF
         ;    1538                         CF_OffSet_Head;                 //Offset voor lezen van de head of select card
000e8f 9aa8      	SBI  0x15,0
000e90 9aa9      	SBI  0x15,1
000e91 940e 1a6f 	CALL SUBOPT_0x22
000e93 98aa      	CBI  0x15,2
000e94 e0e0      	LDI  R30,LOW(0)
000e95 c008      	RJMP _0x24C
         ;    1539                         break;
         ;    1540                 case 7:
          _0xDF:
000e96 30e7      	CPI  R30,LOW(0x7)
000e97 f439      	BRNE _0xD8
         ;    1541                         CF_OffSet_Status;               //Offset voor lezen van de status
000e98 9aa8      	SBI  0x15,0
000e99 9aa9      	SBI  0x15,1
000e9a 940e 1a6f 	CALL SUBOPT_0x22
000e9c 9aaa      	SBI  0x15,2
          _0x24D:
000e9d e0e1      	LDI  R30,LOW(1)
          _0x24C:
000e9e 2bea      	OR   R30,R26
         ;    1542                         break;                                                                 
         ;    1543         }
          _0xD8:
         ;    1544 
         ;    1545         #asm("nop");                                    //Wacht 1 klokcycle
000e9f 0000      	nop
         ;    1546         
         ;    1547         CF_Read_ON;                                     //CF lezen aan
000ea0 9897      	CBI  0x12,7
         ;    1548         
         ;    1549         //delay_us(2);                                    //Wacht even voordat data wordt gelezen
         ;    1550         #asm("nop");                                    //Wacht 1 klokcycle
000ea1 0000      	nop
         ;    1551         #asm("nop");                                    //Wacht 1 klokcycle
000ea2 0000      	nop
         ;    1552         #asm("nop");                                    //Wacht 1 klokcycle
000ea3 0000      	nop
         ;    1553         
         ;    1554         CF_Data =  PINA; //CF_ReadData;                         //Lees de data van de CF
000ea4 b309      	IN   R16,25
         ;    1555         CF_Read_OFF;                                    //CF lezen uit
000ea5 9a97      	SBI  0x12,7
         ;    1556 
         ;    1557         return(CF_Data);
000ea6 2fe0      	MOV  R30,R16
000ea7 8108      	LDD  R16,Y+0
000ea8 9622      	ADIW R28,2
000ea9 9508      	RET
         ;    1558 }
         ;    1559 //*************************************  
         ;    1560 
         ;    1561 
         ;    1562 /**************************************
         ;    1563 CF Read Sector
         ;    1564 lees een sector van de CF
         ;    1565 **************************************/
         ;    1566 //void CF_Read_Sector(unsigned char Sector_Count, unsigned char Sector_No, unsigned char Cylinder_Low, unsigned char Cylinder_High, unsigned char Head)
         ;    1567 void CF_Read_Sector(unsigned long int Sector)
         ;    1568 {
          _CF_Read_Sector:
         ;    1569         unsigned int Bytes;
         ;    1570         unsigned char Sector_Addr[3];
         ;    1571         
         ;    1572         CF_ON;                                          //Zet CF aan
000eaa 940e 1a73 	CALL SUBOPT_0x23
         ;	Sector -> Y+5
         ;	Bytes -> R16,R17
         ;	Sector_Addr -> Y+2
000eac 98c0      	CBI  0x18,0
         ;    1573         
         ;    1574         CF_Wait_RDY();                                  //Wacht op CF tot RDY is set
000ead 940e 1a77 	CALL SUBOPT_0x24
         ;    1575         
         ;    1576         //Bereken de sector die gelezen moet worden
         ;    1577         Sector_Addr[0] = Sector & 0x000000FF;
         ;    1578         Sector_Addr[1] = ((Sector & 0x0000FF00) >> 8);
         ;    1579         Sector_Addr[2] = ((Sector & 0x00FF0000) >> 16); 
         ;    1580         
         ;    1581         //Zend Sector Count, offset = 2
         ;    1582         CF_Write_Register(2,0x01);
         ;    1583         
         ;    1584         //Zend Sector No, offset = 3
         ;    1585         //CF_Write_Register(3,Sector_No);
         ;    1586         CF_Write_Register(3,Sector_Addr[0]);
         ;    1587 
         ;    1588         //Zend Cylinder Low, offset = 4
         ;    1589         //CF_Write_Register(4,Cylinder_Low);
         ;    1590         CF_Write_Register(4,Sector_Addr[1]);
         ;    1591         
         ;    1592         //Zend Cylinder High, offset = 5 
         ;    1593         //CF_Write_Register(5,Cylinder_High);
         ;    1594         CF_Write_Register(5,Sector_Addr[2]);
         ;    1595         
         ;    1596         //Zend Select Card / Head, offset = 6. Normaal 0xE0
         ;    1597         CF_Write_Register(6,0xE0);
         ;    1598         
         ;    1599         //Zend Commando Read Sector, offset = 7
         ;    1600         CF_Write_Register(7,CF_CMD_Read_Sector);
000eaf e2e0      	LDI  R30,LOW(32)
000eb0 940e 1abc 	CALL SUBOPT_0x25
         ;    1601         
         ;    1602         CF_Wait_DRQ();                                  //Wacht op DRQ bit is set
         ;    1603         
         ;    1604         CF_OffSet_ReadData;                             //Offset op 0, lezen data
000eb2 98a8      	CBI  0x15,0
000eb3 98a9      	CBI  0x15,1
000eb4 e0e0      	LDI  R30,LOW(0)
000eb5 2fae      	MOV  R26,R30
000eb6 98aa      	CBI  0x15,2
000eb7 2bea      	OR   R30,R26
         ;    1605         CF_DataPort_In;                                 //PORTx als input
000eb8 e0e0      	LDI  R30,LOW(0)
000eb9 bbea      	OUT  0x1A,R30
         ;    1606        
         ;    1607         //Inlezen van de sector, dat is 512bytes
         ;    1608         for(Bytes=0; Bytes<512; Bytes++)
000eba   +  	__GETWRN 16,17,0
          _0xE2:
000ebc   +  	__CPWRN 16,17,512
000ebf f470      	BRSH _0xE3
         ;    1609         {
         ;    1610                 CF_Read_OFF;                            //CF lezen uit
000ec0 9a97      	SBI  0x12,7
         ;    1611              
         ;    1612                 #asm("nop");                            //2x NOP
000ec1 0000      	nop
         ;    1613              //   #asm("nop");                            
         ;    1614                 
         ;    1615                 CF_Read_ON;                             //CF lezen aan  
000ec2 9897      	CBI  0x12,7
         ;    1616                 
         ;    1617                 #asm("nop");                            //3x NOP
000ec3 0000      	nop
         ;    1618             //    #asm("nop");                            
         ;    1619             //    #asm("nop");                            
         ;    1620                 
         ;    1621                 CF_Sector_Data[Bytes] = CF_ReadData;    //Lees data van CF en sla op in buffer
000ec4   +  	__GETW2R 16,17
000ec6 50a6      	SUBI R26,LOW(-_CF_Sector_Data)
000ec7 4fbe      	SBCI R27,HIGH(-_CF_Sector_Data)
000ec8 b3e9      	IN   R30,0x19
000ec9 93ec      	ST   X,R30
         ;    1622                 CF_Read_OFF;                            //CF lezen uit
000eca 9a97      	SBI  0x12,7
         ;    1623         }
000ecb   +  	__ADDWRN 16,17,1
000ecd cfee      	RJMP _0xE2
          _0xE3:
         ;    1624         
         ;    1625         //Lezen voltooid, zet CF uit
         ;    1626         CF_OFF;
000ece 9ac0      	SBI  0x18,0
         ;    1627         
         ;    1628         return;
000ecf 8119      	LDD  R17,Y+1
000ed0 8108      	LDD  R16,Y+0
000ed1 9629      	ADIW R28,9
000ed2 9508      	RET
         ;    1629 }
         ;    1630 //*************************************
         ;    1631 
         ;    1632 /**************************************
         ;    1633 CF Write Sector
         ;    1634 schrijven van een sector naar de CF
         ;    1635 **************************************/
         ;    1636 //void CF_Write_Sector(unsigned char Sector_Count, unsigned char Sector_No, unsigned char Cylinder_Low, unsigned char Cylinder_High, unsigned char Head)
         ;    1637 void CF_Write_Sector(unsigned long int Sector)
         ;    1638 {
          _CF_Write_Sector:
         ;    1639         unsigned int Bytes;
         ;    1640         unsigned char Sector_Addr[3];
         ;    1641 
         ;    1642         CF_ON;                                          //Zet CF aan
000ed3 940e 1a73 	CALL SUBOPT_0x23
         ;	Sector -> Y+5
         ;	Bytes -> R16,R17
         ;	Sector_Addr -> Y+2
000ed5 98c0      	CBI  0x18,0
         ;    1643         
         ;    1644         CF_Wait_RDY();                                  //Wacht op CF tot RDY is set
000ed6 940e 1a77 	CALL SUBOPT_0x24
         ;    1645         
         ;    1646          //Bereken de sector die gelezen moet worden
         ;    1647         Sector_Addr[0] = Sector & 0x000000FF;
         ;    1648         Sector_Addr[1] = ((Sector & 0x0000FF00) >> 8);
         ;    1649         Sector_Addr[2] = ((Sector & 0x00FF0000) >> 16); 
         ;    1650         
         ;    1651         //Zend Sector Count, offset = 2
         ;    1652         CF_Write_Register(2,0x01);
         ;    1653         
         ;    1654         //Zend Sector No, offset = 3
         ;    1655         //CF_Write_Register(3,Sector_No);
         ;    1656         CF_Write_Register(3,Sector_Addr[0]);
         ;    1657 
         ;    1658         //Zend Cylinder Low, offset = 4
         ;    1659         //CF_Write_Register(4,Cylinder_Low);
         ;    1660         CF_Write_Register(4,Sector_Addr[1]);
         ;    1661         
         ;    1662         //Zend Cylinder High, offset = 5 
         ;    1663         //CF_Write_Register(5,Cylinder_High);
         ;    1664         CF_Write_Register(5,Sector_Addr[2]);
         ;    1665         
         ;    1666         //Zend Select Card / Head, offset = 6. Normaal 0xE0
         ;    1667         CF_Write_Register(6,0xE0);
         ;    1668         
         ;    1669         //Zend Commando Write Sector, offset = 7
         ;    1670         CF_Write_Register(7,CF_CMD_Write_Sector);
000ed8 e3e0      	LDI  R30,LOW(48)
000ed9 940e 1abc 	CALL SUBOPT_0x25
         ;    1671         
         ;    1672         CF_Wait_DRQ();                                  //Wacht op DRQ bit is set
         ;    1673         
         ;    1674         CF_OffSet_WriteData;                            //Offset op 0, schrijven van data
000edb 98a8      	CBI  0x15,0
000edc 98a9      	CBI  0x15,1
000edd e0e0      	LDI  R30,LOW(0)
000ede 2fae      	MOV  R26,R30
000edf 98aa      	CBI  0x15,2
000ee0 2bea      	OR   R30,R26
         ;    1675         CF_DataPort_Out;                                //PORTx als output
000ee1 efef      	LDI  R30,LOW(255)
000ee2 bbea      	OUT  0x1A,R30
         ;    1676         
         ;    1677         //Schrijf sector, 512bytes naar de CF 
         ;    1678         for(Bytes=0; Bytes<512; Bytes++)
000ee3   +  	__GETWRN 16,17,0
          _0xE5:
000ee5   +  	__CPWRN 16,17,512
000ee8 f488      	BRSH _0xE6
         ;    1679         {
         ;    1680                 CF_Write_OFF;                           //CF schrijven uit
000ee9 9a96      	SBI  0x12,6
         ;    1681                 
         ;    1682                 #asm("nop");                            //2x nop
000eea 0000      	nop
         ;    1683                 #asm("nop");            
000eeb 0000      	nop
         ;    1684                 
         ;    1685                 CF_WriteData = CF_Sector_Data[Bytes];   //Zet de te schrijven data klaar voor de CF
000eec efaa      	LDI  R26,LOW(_CF_Sector_Data)
000eed e0b1      	LDI  R27,HIGH(_CF_Sector_Data)
000eee 0fa0      	ADD  R26,R16
000eef 1fb1      	ADC  R27,R17
000ef0 91ec      	LD   R30,X
000ef1 bbeb      	OUT  0x1B,R30
         ;    1686                 CF_Write_ON;                            //CF schrijven aan
000ef2 9896      	CBI  0x12,6
         ;    1687                 
         ;    1688                 #asm("nop");                            //3x nop
000ef3 0000      	nop
         ;    1689                 #asm("nop"); 
000ef4 0000      	nop
         ;    1690                 #asm("nop"); 
000ef5 0000      	nop
         ;    1691                 
         ;    1692                 CF_Write_OFF;                           //CF schrijven uit
000ef6 9a96      	SBI  0x12,6
         ;    1693                 
         ;    1694         }
000ef7   +  	__ADDWRN 16,17,1
000ef9 cfeb      	RJMP _0xE5
          _0xE6:
         ;    1695         
         ;    1696         //Schrijven voltooid, zet CF uit
         ;    1697         CF_OFF;                                 
000efa 9ac0      	SBI  0x18,0
         ;    1698         
         ;    1699         return;
000efb 8119      	LDD  R17,Y+1
000efc 8108      	LDD  R16,Y+0
000efd 9629      	ADIW R28,9
000efe 9508      	RET
         ;    1700 }
         ;    1701 //*************************************
         ;    1702 
         ;    1703 /**************************************
         ;    1704 CF Info
         ;    1705 lees informatie over de aangesloten CF
         ;    1706 **************************************/
         ;    1707 void CF_Info(void)
         ;    1708 {
         ;    1709         unsigned int Bytes;
         ;    1710                    
         ;    1711         CF_ON;                                          //Zet CF aan
         ;	Bytes -> R16,R17
         ;    1712         
         ;    1713         CF_Wait_RDY();                                  //Wacht op CF tot RDY is set
         ;    1714 
         ;    1715         //Zend 0 commande voor Head, offset = 6
         ;    1716         CF_Write_Register(6,0);
         ;    1717         
         ;    1718         //Zend Commando ID device, offset = 7
         ;    1719         CF_Write_Register(7,CF_CMD_ID);
         ;    1720          
         ;    1721         CF_Wait_DRQ();                                  //Wacht op DRQ bit is set
         ;    1722         
         ;    1723         CF_OffSet_ReadData;                             //Offset op 0, lezen data
         ;    1724         CF_DataPort_In;                                 //PORTx als input
         ;    1725        
         ;    1726         //Inlezen van de info, dat is 512bytes
         ;    1727         for(Bytes=0; Bytes<512; Bytes++)
         ;    1728         {
         ;    1729                 CF_Read_OFF;                            //CF lezen uit
         ;    1730                 
         ;    1731                 #asm("nop");                            //2x NOP
         ;    1732                 #asm("nop");                            
         ;    1733                 
         ;    1734                 CF_Read_ON;                             //CF lezen aan  
         ;    1735                 
         ;    1736                 #asm("nop");                            //3x NOP
         ;    1737                 #asm("nop");                            
         ;    1738                 #asm("nop");                            
         ;    1739                 
         ;    1740                 CF_Sector_Data[Bytes] = CF_ReadData;    //Lees data van CF en sla op in buffer
         ;    1741                 CF_Read_OFF;                            //CF lezen uit
         ;    1742         }
         ;    1743         
         ;    1744         //Lezen info voltooid, zet CF uit
         ;    1745         CF_OFF;
         ;    1746         
         ;    1747         return;
         ;    1748 }
         ;    1749 //*************************************
         ;    1750         
         ;    1751         
         ;    1752                                                         
         ;    1753         
         ;    1754 /**************************************
         ;    1755              CF functions
         ;    1756 **************************************/
         ;    1757 
         ;    1758 /*************************************
         ;    1759         Include header file's                   
         ;    1760 *************************************/
         ;    1761 #include "LCD_Test_Defs.h"
         ;    1762 #include "S1D13705.h"          
         
          	.DSEG
          _aS1DRegs_G5:
          _0aS1DRegs_G5:
000465      	.BYTE 0x1
          _1aS1DRegs_G5:
000466      	.BYTE 0x1
          _2aS1DRegs_G5:
000467      	.BYTE 0x1
          _3aS1DRegs_G5:
000468      	.BYTE 0x1
          _4aS1DRegs_G5:
000469      	.BYTE 0x1
          _5aS1DRegs_G5:
00046a      	.BYTE 0x1
          _6aS1DRegs_G5:
00046b      	.BYTE 0x1
          _7aS1DRegs_G5:
00046c      	.BYTE 0x1
          _8aS1DRegs_G5:
00046d      	.BYTE 0x1
          _9aS1DRegs_G5:
00046e      	.BYTE 0x1
          _AaS1DRegs_G5:
00046f      	.BYTE 0x1
          _BaS1DRegs_G5:
000470      	.BYTE 0x1
          _CaS1DRegs_G5:
000471      	.BYTE 0x1
          _DaS1DRegs_G5:
000472      	.BYTE 0x1
          _EaS1DRegs_G5:
000473      	.BYTE 0x1
          _FaS1DRegs_G5:
000474      	.BYTE 0x1
          _10aS1DRegs_G5:
000475      	.BYTE 0x1
          _11aS1DRegs_G5:
000476      	.BYTE 0x1
          _12aS1DRegs_G5:
000477      	.BYTE 0x1
          _13aS1DRegs_G5:
000478      	.BYTE 0x1
          _14aS1DRegs_G5:
000479      	.BYTE 0x1
          _15aS1DRegs_G5:
00047a      	.BYTE 0x1
          _16aS1DRegs_G5:
00047b      	.BYTE 0x1
          _17aS1DRegs_G5:
00047c      	.BYTE 0x1
          _18aS1DRegs_G5:
00047d      	.BYTE 0x1
          _19aS1DRegs_G5:
00047e      	.BYTE 0x1
          _1AaS1DRegs_G5:
00047f      	.BYTE 0x1
          _1BaS1DRegs_G5:
000480      	.BYTE 0x1
          _1CaS1DRegs_G5:
000481      	.BYTE 0x1
          _1DaS1DRegs_G5:
000482      	.BYTE 0x1
          _1EaS1DRegs_G5:
000483      	.BYTE 0x1
          _1FaS1DRegs_G5:
000484      	.BYTE 0x1
          _20aS1DRegs_G5:
000485      	.BYTE 0x1
          _21aS1DRegs_G5:
000486      	.BYTE 0x1
          _22aS1DRegs_G5:
000487      	.BYTE 0x1
          _23aS1DRegs_G5:
000488      	.BYTE 0x1
          _24aS1DRegs_G5:
000489      	.BYTE 0x1
          _25aS1DRegs_G5:
00048a      	.BYTE 0x1
          _26aS1DRegs_G5:
00048b      	.BYTE 0x1
          _27aS1DRegs_G5:
00048c      	.BYTE 0x1
          _28aS1DRegs_G5:
00048d      	.BYTE 0x1
          _29aS1DRegs_G5:
00048e      	.BYTE 0x1
          _2AaS1DRegs_G5:
00048f      	.BYTE 0x1
          _2BaS1DRegs_G5:
000490      	.BYTE 0x1
          _2CaS1DRegs_G5:
000491      	.BYTE 0x1
          _2DaS1DRegs_G5:
000492      	.BYTE 0x1
          _2EaS1DRegs_G5:
000493      	.BYTE 0x1
          _2FaS1DRegs_G5:
000494      	.BYTE 0x1
          _30aS1DRegs_G5:
000495      	.BYTE 0x1
          _31aS1DRegs_G5:
000496      	.BYTE 0x1
         ;    1763 //*************************************     
         ;    1764 
         ;    1765 /**************************************
         ;    1766 Function: Read info CF and put on LCD
         ;    1767 **************************************/
         ;    1768 void CF_Read_Info(void)
         ;    1769 {
         
          	.CSEG
         ;    1770         unsigned int i;
         ;    1771         unsigned int test[5];
         ;    1772         unsigned char d;   
         ;    1773 
         ;    1774         S1D13705_Clear_LCD();                                                   //Clear the LCD
         ;	i -> R16,R17
         ;	test -> Y+3
         ;	d -> R18
         ;    1775         
         ;    1776         CF_Info();                                                              //Read info from CF
         ;    1777         
         ;    1778         sprintf(string,"Signature CF: %x%x",CF_Sector_Data[1],CF_Sector_Data[0]);
         ;    1779         S1D13705_Text_LCD(0,2,string,0);                       
         ;    1780         
         ;    1781         test[1] = CF_Sector_Data[3];
         ;    1782         test[2] = (test[1] << 8) + CF_Sector_Data[2];
         ;    1783         
         ;    1784         sprintf(string,"Cylinders: %d",test[2]);
         ;    1785         S1D13705_Text_LCD(0,3,string,0);
         ;    1786         
         ;    1787         sprintf(string,"Heads: %d",CF_Sector_Data[6]);
         ;    1788         S1D13705_Text_LCD(0,4,string,0);
         ;    1789         
         ;    1790         test[1] = CF_Sector_Data[13];
         ;    1791         test[2] = (test[1] << 8) + CF_Sector_Data[12];
         ;    1792         
         ;    1793         sprintf(string,"Number Sectors/Track: %d",test[2]);
         ;    1794         S1D13705_Text_LCD(0,5,string,0);
         ;    1795         
         ;    1796         test[0] = CF_Sector_Data[15];
         ;    1797         test[1] = (test[0] <<8) + CF_Sector_Data[14];
         ;    1798         test[2] = CF_Sector_Data[17];
         ;    1799         test[3] = (test[2] <<8) + CF_Sector_Data[16];
         ;    1800         
         ;    1801         sprintf(string,"Sectors: %x%x HEX",test[1],test[3]);
         ;    1802         S1D13705_Text_LCD(0,6,string,0);
         ;    1803         
         ;    1804         //Serial number
         ;    1805         i = 39;
         ;    1806         d = 40;
         ;    1807         sprintf(string,"SN: ");
         ;    1808         S1D13705_Text_LCD(0,7,string,0);
         ;    1809         
         ;    1810         while(i >19)
         ;    1811         {
         ;    1812                 sprintf(string,"%c",CF_Sector_Data[i]);
         ;    1813                 S1D13705_Text_LCD(d,7,string,0);
         ;    1814                 i--;  
         ;    1815                 d += 8;
         ;    1816         }
         ;    1817          
         ;    1818         delay_ms(1000);
         ;    1819         
         ;    1820         return;
         ;    1821 }
         ;    1822 //*************************************         
         ;    1823 
         ;    1824 /**************************************
         ;    1825 Function: Check of Blok/data info 
         ;    1826           aanwezig is in de CF
         ;    1827 **************************************/
         ;    1828 unsigned char CF_Check_Blok_Data(void)
         ;    1829 {
          _CF_Check_Blok_Data:
         ;    1830         unsigned char i;            
         ;    1831         unsigned char Page_Present;
         ;    1832         unsigned long int Page;
         ;    1833         
         ;    1834         //Wis CF_Blok info
         ;    1835         for(i=0;i<32;i++)
000eff 940e 1945 	CALL SUBOPT_0x1
         ;	i -> R16
         ;	Page_Present -> R17
         ;	Page -> Y+2
000f01 e000      	LDI  R16,LOW(0)
          _0x113:
000f02 3200      	CPI  R16,32
000f03 f430      	BRSH _0x114
         ;    1836                 CF_Page[i] = 0xFF;
000f04 940e 1ac1 	CALL SUBOPT_0x26
000f06 efef      	LDI  R30,LOW(255)
000f07 93ec      	ST   X,R30
         ;    1837         
         ;    1838         Page = 0;                                                       //Zet Page
000f08 5f0f      	SUBI R16,-1
000f09 cff8      	RJMP _0x113
          _0x114:
000f0a   +  	__CLRD1S 2
         ;    1839         Page_Present = 0;                                               //Aantal Pages 0
000f0f e010      	LDI  R17,LOW(0)
         ;    1840         
         ;    1841         for(i=0;i<32;i++)
000f10 e000      	LDI  R16,LOW(0)
          _0x116:
000f11 3200      	CPI  R16,32
000f12 f580      	BRSH _0x117
         ;    1842         {
         ;    1843                 CF_Read_Sector((152 * Page) + 1);
000f13   +  	__GETD1S 2
000f17 940e 1ac6 	CALL SUBOPT_0x27
000f19 940e 1da4 	CALL __PUTPARD1
000f1b 940e 0eaa 	CALL _CF_Read_Sector
         ;    1844                 
         ;    1845                 if(CF_Sector_Data[0] == 'B' & CF_Sector_Data[1] == 'l'& CF_Sector_Data[2] == 'o' & CF_Sector_Data[3] == 'k')
000f1d 91a0 01fa 	LDS  R26,_CF_Sector_Data
000f1f e4e2      	LDI  R30,LOW(66)
000f20 940e 1d4d 	CALL __EQB12
000f22 93ef      	PUSH R30
000f23   +  	__GETB1MN _CF_Sector_Data,1
000f25 e6ac      	LDI  R26,LOW(108)
000f26 940e 1d4d 	CALL __EQB12
000f28 91af      	POP  R26
000f29 23ea      	AND  R30,R26
000f2a 93ef      	PUSH R30
000f2b   +  	__GETB1MN _CF_Sector_Data,2
000f2d e6af      	LDI  R26,LOW(111)
000f2e 940e 1d4d 	CALL __EQB12
000f30 91af      	POP  R26
000f31 23ea      	AND  R30,R26
000f32 93ef      	PUSH R30
000f33   +  	__GETB1MN _CF_Sector_Data,3
000f35 e6ab      	LDI  R26,LOW(107)
000f36 940e 1d4d 	CALL __EQB12
000f38 91af      	POP  R26
000f39 23ea      	AND  R30,R26
000f3a f021      	BREQ _0x118
         ;    1846                 {
         ;    1847                         CF_Page[i] = i;                                 //Page aanwezig zet Page aanwezig in Memory
000f3b 940e 1ac1 	CALL SUBOPT_0x26
000f3d 930c      	ST   X,R16
         ;    1848                         Page_Present++;                                 //Als Page aanwezig is met 1 verhogen 
000f3e 5f1f      	SUBI R17,-1
         ;    1849                 }       
         ;    1850         
         ;    1851                 Page++;                                                 //Verhoog Page met 1 voor volgende sector
          _0x118:
000f3f 940e 1a08 	CALL SUBOPT_0x1A
         ;    1852         }  
000f41 5f0f      	SUBI R16,-1
000f42 cfce      	RJMP _0x116
          _0x117:
         ;    1853         
         ;    1854         
         ;    1855         return(Page_Present);
000f43 2fe1      	MOV  R30,R17
000f44 8119      	LDD  R17,Y+1
000f45 8108      	LDD  R16,Y+0
000f46 9626      	ADIW R28,6
000f47 9508      	RET
         ;    1856 }               
         ;    1857 //*************************************
         ;    1858 
         ;    1859 /**************************************
         ;    1860 Function: Draw data on LCD from CF
         ;    1861 **************************************/
         ;    1862 void CF_Draw_Pic(unsigned int X, unsigned int Y, unsigned long int Page)
         ;    1863 {
          _CF_Draw_Pic:
         ;    1864         unsigned char b;                                                //blauwe kleur
         ;    1865         unsigned char g;                                                //groene kleur
         ;    1866         unsigned char r;                                                //rode kleur
         ;    1867 
         ;    1868         unsigned int i;
         ;    1869         unsigned int W;                                                 //Breedte plaatje
         ;    1870         unsigned int H;                                                 //Hoogte plaatje
         ;    1871         unsigned int Wx;                                                //Counter breedte
         ;    1872         unsigned int Byte;                                              //Byte teller van de array
         ;    1873         unsigned int Yx;                                                //Waarde voor scanline bytes, by 4bpp 160, by 8bpp 320
         ;    1874 
         ;    1875         unsigned long int Sector;                                       //Sector van CF
         ;    1876         unsigned long int S1D_mem;                                      //S1D13705 memory adress
         ;    1877         
         ;    1878         //S1D13705_Clear_LCD();                                   //Clear the LCD
         ;    1879 
         ;    1880         //Bereken de begin sector van de CF
         ;    1881         Sector = (152 * Page) + 1;
000f48 9762      	SBIW R28,18
000f49 940e 1f51 	CALL __SAVELOCR5
         ;	X -> Y+29
         ;	Y -> Y+27
         ;	Page -> Y+23
         ;	b -> R16
         ;	g -> R17
         ;	r -> R18
         ;	i -> R19,R20
         ;	W -> Y+21
         ;	H -> Y+19
         ;	Wx -> Y+17
         ;	Byte -> Y+15
         ;	Yx -> Y+13
         ;	Sector -> Y+9
         ;	S1D_mem -> Y+5
000f4b   +  	__GETD1S 23
000f4f 940e 1ac6 	CALL SUBOPT_0x27
000f51   +  	__PUTD1S 9
         ;    1882         
         ;    1883         //Lees eerste info sector in
         ;    1884         CF_Read_Sector(Sector++);
000f55 940e 1ad1 	CALL SUBOPT_0x28
000f57 940e 1ade 	CALL SUBOPT_0x29
         ;    1885         
         ;    1886          //Lees de hoogte en de breedte van de Pic
         ;    1887         W = CF_Sector_Data[6];                                          //Lees lage Width
000f59   +  	__GETB1MN _CF_Sector_Data,6
000f5b e0f0      	LDI  R31,0
000f5c 8bed      	STD  Y+21,R30
000f5d 8bfe      	STD  Y+21+1,R31
         ;    1888         i = CF_Sector_Data[7];                                          //Lees hoge Width
000f5e   +  	__POINTW1MN _CF_Sector_Data,7
000f60 8130      	LD   R19,Z
000f61 2744      	CLR  R20
         ;    1889         W = W + i;                                                      //Tel ze bij elkaar op
000f62   +  	__GETW1R 19,20
000f64 89ad      	LDD  R26,Y+21
000f65 89be      	LDD  R27,Y+21+1
000f66 0fea      	ADD  R30,R26
000f67 1ffb      	ADC  R31,R27
000f68 8bed      	STD  Y+21,R30
000f69 8bfe      	STD  Y+21+1,R31
         ;    1890         H = CF_Sector_Data[8];                                          //Hoogte van BMP in pixels
000f6a   +  	__GETB1MN _CF_Sector_Data,8
000f6c e0f0      	LDI  R31,0
000f6d 8beb      	STD  Y+19,R30
000f6e 8bfc      	STD  Y+19+1,R31
         ;    1891         
         ;    1892         
         ;    1893         //Check kleur en stel S1D13705 in
         ;    1894         if(CF_Sector_Data[5] == 4)                                      //16 kleuren
000f6f   +  	__GETB1MN _CF_Sector_Data,5
000f71 30e4      	CPI  R30,LOW(0x4)
000f72 f591      	BRNE _0x119
         ;    1895         {
         ;    1896                 printf("\n\rLUT 16 config");
000f73   +  	__POINTW1FN _0,705
000f75 93fa      	ST   -Y,R31
000f76 93ea      	ST   -Y,R30
000f77 e080      	LDI  R24,0
000f78 940e 1ae5 	CALL SUBOPT_0x2A
         ;    1897                 S1D13705_Write_Register(0x02,0xB0);                     //Stel kleur register 2 in op 16 kleuren
000f7a ebe0      	LDI  R30,LOW(176)
000f7b 940e 1aea 	CALL SUBOPT_0x2B
         ;    1898                 S1D13705_Write_Register(0x1C,0xA0);                     //Stel line byte counter in op 160 lines
000f7d eae0      	LDI  R30,LOW(160)
000f7e 940e 1af0 	CALL SUBOPT_0x2C
         ;    1899                 
         ;    1900                 //Zend LUT tabel van BMP plaatje naar S1D13705
         ;    1901                 S1D13705_Write_Register(0x15,0);                        //Set first the LUT adress at 0
         ;    1902                 
         ;    1903                 Byte = 255;                                             //Kleur begin Sector
000f80 efef      	LDI  R30,LOW(255)
000f81 e0f0      	LDI  R31,HIGH(255)
000f82 87ef      	STD  Y+15,R30
000f83 8bf8      	STD  Y+15+1,R31
         ;    1904                 for(i=0;i<16;i++)
000f84   +  	__GETWRN 19,20,0
          _0x11B:
000f86   +  	__CPWRN 19,20,16
000f89 f468      	BRSH _0x11C
         ;    1905                 { 
         ;    1906                         //Read color values from LUT table
         ;    1907                         b = CF_Sector_Data[Byte++];                     //Read the blue value from LUT table
000f8a 940e 1af4 	CALL SUBOPT_0x2D
000f8c 8100      	LD   R16,Z
         ;    1908                         g = CF_Sector_Data[Byte++];                     //Read the green value from LUT table
000f8d 940e 1af4 	CALL SUBOPT_0x2D
000f8f 8110      	LD   R17,Z
         ;    1909                         r = CF_Sector_Data[Byte++];                     //Read the red value from LUT table
000f90 940e 1af4 	CALL SUBOPT_0x2D
000f92 940e 1afd 	CALL SUBOPT_0x2E
         ;    1910                 
         ;    1911                         //Write color values to LUT register S1D13705
         ;    1912                         S1D13705_Write_Register(0x17,r);                //Write red value
         ;    1913                         S1D13705_Write_Register(0x17,g);                //Write green value
         ;    1914                         S1D13705_Write_Register(0x17,b);                //Write blue value  
         ;    1915                 }
000f94   +  	__ADDWRN 19,20,1
000f96 cfef      	RJMP _0x11B
          _0x11C:
         ;    1916                 
         ;    1917                 Sector++; 
000f97 940e 1ad1 	CALL SUBOPT_0x28
         ;    1918                 Yx = 160;                                               //Stel Yx in op 160 scanline bytes
000f99 eae0      	LDI  R30,LOW(160)
000f9a e0f0      	LDI  R31,HIGH(160)
000f9b 87ed      	STD  Y+13,R30
000f9c 87fe      	STD  Y+13+1,R31
         ;    1919                
         ;    1920                 printf("\n\rLUT 16 config done");
000f9d   +  	__POINTW1FN _0,721
000f9f 93fa      	ST   -Y,R31
000fa0 93ea      	ST   -Y,R30
000fa1 e080      	LDI  R24,0
000fa2 940e 17fc 	CALL _printf
000fa4 9622      	ADIW R28,2
         ;    1921         }
         ;    1922         
         ;    1923         if(CF_Sector_Data[5] == 8)                                      //256 kleuren
          _0x119:
000fa5   +  	__GETB1MN _CF_Sector_Data,5
000fa7 30e8      	CPI  R30,LOW(0x8)
000fa8 f011      	BREQ PC+3
000fa9 940c 0ff5 	JMP _0x11D
         ;    1924         {
         ;    1925                 printf("\n\rLUT 256 config");
000fab   +  	__POINTW1FN _0,742
000fad 93fa      	ST   -Y,R31
000fae 93ea      	ST   -Y,R30
000faf e080      	LDI  R24,0
000fb0 940e 1ae5 	CALL SUBOPT_0x2A
         ;    1926                 S1D13705_Write_Register(0x02,0xF0);                     //Stel kleur register 2 in op 256 kleuren
000fb2 efe0      	LDI  R30,LOW(240)
000fb3 940e 1aea 	CALL SUBOPT_0x2B
         ;    1927                 S1D13705_Write_Register(0x1C,0xFF);                     //Stel line byte counter in op 320 lines
000fb5 efef      	LDI  R30,LOW(255)
000fb6 940e 1af0 	CALL SUBOPT_0x2C
         ;    1928                 
         ;    1929                 //Zend LUT tabel van BMP plaatje naar S1D13705
         ;    1930                 S1D13705_Write_Register(0x15,0);                        //Set first the LUT adress at 0
         ;    1931                 
         ;    1932                 Byte = 254;                                             //Kleur begin Sector
000fb8 efee      	LDI  R30,LOW(254)
000fb9 e0f0      	LDI  R31,HIGH(254)
000fba 87ef      	STD  Y+15,R30
000fbb 8bf8      	STD  Y+15+1,R31
         ;    1933                 
         ;    1934                 //Schrijf eerste 258 kleuren daarna CF lezen
         ;    1935                 for(i=0;i<86;i++)
000fbc   +  	__GETWRN 19,20,0
          _0x11F:
000fbe   +  	__CPWRN 19,20,86
000fc1 f468      	BRSH _0x120
         ;    1936                 {
         ;    1937                         //Read color values from LUT table
         ;    1938                         b = CF_Sector_Data[Byte++];                     //Read the blue value from LUT table
000fc2 940e 1af4 	CALL SUBOPT_0x2D
000fc4 8100      	LD   R16,Z
         ;    1939                         g = CF_Sector_Data[Byte++];                     //Read the green value from LUT table
000fc5 940e 1af4 	CALL SUBOPT_0x2D
000fc7 8110      	LD   R17,Z
         ;    1940                         r = CF_Sector_Data[Byte++];                     //Read the red value from LUT table
000fc8 940e 1af4 	CALL SUBOPT_0x2D
000fca 940e 1afd 	CALL SUBOPT_0x2E
         ;    1941                 
         ;    1942                         //Write color values to LUT register S1D13705
         ;    1943                         S1D13705_Write_Register(0x17,r);                //Write red value
         ;    1944                         S1D13705_Write_Register(0x17,g);                //Write green value
         ;    1945                         S1D13705_Write_Register(0x17,b);                //Write blue value       
         ;    1946                 }
000fcc   +  	__ADDWRN 19,20,1
000fce cfef      	RJMP _0x11F
          _0x120:
         ;    1947                 
         ;    1948                 //Lees tweede info sector in
         ;    1949                 CF_Read_Sector(Sector++);   
000fcf 940e 1ad1 	CALL SUBOPT_0x28
000fd1 940e 1ade 	CALL SUBOPT_0x29
         ;    1950                 
         ;    1951                 Byte = 0;
000fd3 e0e0      	LDI  R30,0
000fd4 87ef      	STD  Y+15,R30
000fd5 8be8      	STD  Y+15+1,R30
         ;    1952                 //Schrijf de laatste 510 kleuren naar S1D13705
         ;    1953                 for(i=0;i<170;i++)
000fd6   +  	__GETWRN 19,20,0
          _0x122:
000fd8   +  	__CPWRN 19,20,170
000fdb f468      	BRSH _0x123
         ;    1954                 {
         ;    1955                         //Read color values from LUT table
         ;    1956                         b = CF_Sector_Data[Byte++];                     //Read the blue value from LUT table
000fdc 940e 1af4 	CALL SUBOPT_0x2D
000fde 8100      	LD   R16,Z
         ;    1957                         g = CF_Sector_Data[Byte++];                     //Read the green value from LUT table
000fdf 940e 1af4 	CALL SUBOPT_0x2D
000fe1 8110      	LD   R17,Z
         ;    1958                         r = CF_Sector_Data[Byte++];                     //Read the red value from LUT table
000fe2 940e 1af4 	CALL SUBOPT_0x2D
000fe4 940e 1afd 	CALL SUBOPT_0x2E
         ;    1959                 
         ;    1960                         //Write color values to LUT register S1D13705
         ;    1961                         S1D13705_Write_Register(0x17,r);                //Write red value
         ;    1962                         S1D13705_Write_Register(0x17,g);                //Write green value
         ;    1963                         S1D13705_Write_Register(0x17,b);                //Write blue value       
         ;    1964                 }
000fe6   +  	__ADDWRN 19,20,1
000fe8 cfef      	RJMP _0x122
          _0x123:
         ;    1965                  
         ;    1966                 Yx = 320;                                               //Stel scanline bytes in op 320
000fe9 e4e0      	LDI  R30,LOW(320)
000fea e0f1      	LDI  R31,HIGH(320)
000feb 87ed      	STD  Y+13,R30
000fec 87fe      	STD  Y+13+1,R31
         ;    1967                 
         ;    1968                 printf("\n\rLUT 256 config done");
000fed   +  	__POINTW1FN _0,759
000fef 93fa      	ST   -Y,R31
000ff0 93ea      	ST   -Y,R30
000ff1 e080      	LDI  R24,0
000ff2 940e 17fc 	CALL _printf
000ff4 9622      	ADIW R28,2
         ;    1969         }
         ;    1970                 
         ;    1971                 
         ;    1972         printf("\n\rDraw BMP data on LCD");
          _0x11D:
000ff5   +  	__POINTW1FN _0,781
000ff7 93fa      	ST   -Y,R31
000ff8 93ea      	ST   -Y,R30
000ff9 e080      	LDI  R24,0
000ffa 940e 17fc 	CALL _printf
000ffc 9622      	ADIW R28,2
         ;    1973         
         ;    1974         //Zet S1D_mem op begin adress/pixel
         ;    1975         S1D_mem = X + (Y * Yx);
000ffd 85ed      	LDD  R30,Y+13
000ffe 85fe      	LDD  R31,Y+13+1
000fff 8dab      	LDD  R26,Y+27
001000 8dbc      	LDD  R27,Y+27+1
001001 940e 1d5e 	CALL __MULW12U
001003 8dad      	LDD  R26,Y+29
001004 8dbe      	LDD  R27,Y+29+1
001005 0fea      	ADD  R30,R26
001006 1ffb      	ADC  R31,R27
001007 2766      	CLR  R22
001008 2777      	CLR  R23
001009   +  	__PUTD1S 5
         ;    1976         Byte = 0;
00100d e0e0      	LDI  R30,0
00100e 87ef      	STD  Y+15,R30
00100f 8be8      	STD  Y+15+1,R30
         ;    1977         
         ;    1978         //Lees eerste bitmap data in
         ;    1979         CF_Read_Sector(Sector++);   
001010 940e 1ad1 	CALL SUBOPT_0x28
001012 940e 1ade 	CALL SUBOPT_0x29
         ;    1980         
         ;    1981         while(H--)
          _0x124:
001014 89eb      	LDD  R30,Y+19
001015 89fc      	LDD  R31,Y+19+1
001016 9731      	SBIW R30,1
001017 8beb      	STD  Y+19,R30
001018 8bfc      	STD  Y+19+1,R31
001019 9631      	ADIW R30,1
00101a f1e1      	BREQ _0x126
         ;    1982         {
         ;    1983                 Wx = W;
00101b 89ed      	LDD  R30,Y+21
00101c 89fe      	LDD  R31,Y+21+1
00101d 8be9      	STD  Y+17,R30
00101e 8bfa      	STD  Y+17+1,R31
         ;    1984                 while(Wx--)
          _0x127:
00101f 89e9      	LDD  R30,Y+17
001020 89fa      	LDD  R31,Y+17+1
001021 9731      	SBIW R30,1
001022 8be9      	STD  Y+17,R30
001023 8bfa      	STD  Y+17+1,R31
001024 9631      	ADIW R30,1
001025 f0e1      	BREQ _0x129
         ;    1985                 {
         ;    1986                         S1D13705_Write_Data(S1D_mem++,CF_Sector_Data[Byte++]);     //Schrijf data naar S1D13705
001026 940e 1a45 	CALL SUBOPT_0x1D
001028 89eb      	LDD  R30,Y+19
001029 89fc      	LDD  R31,Y+19+1
00102a 9631      	ADIW R30,1
00102b 8beb      	STD  Y+19,R30
00102c 8bfc      	STD  Y+19+1,R31
00102d 9731      	SBIW R30,1
00102e 50e6      	SUBI R30,LOW(-_CF_Sector_Data)
00102f 4ffe      	SBCI R31,HIGH(-_CF_Sector_Data)
001030 81e0      	LD   R30,Z
001031 93ea      	ST   -Y,R30
001032 940e 0bd2 	CALL _S1D13705_Write_Data
         ;    1987                         if(Byte == 512)                                            //Nieuwe data inlezen van CF
001034 85af      	LDD  R26,Y+15
001035 89b8      	LDD  R27,Y+15+1
001036 30a0      	CPI  R26,LOW(0x200)
001037 e0e2      	LDI  R30,HIGH(0x200)
001038 07be      	CPC  R27,R30
001039 f439      	BRNE _0x12A
         ;    1988                         {
         ;    1989                                 Byte = 0;
00103a e0e0      	LDI  R30,0
00103b 87ef      	STD  Y+15,R30
00103c 8be8      	STD  Y+15+1,R30
         ;    1990                                 CF_Read_Sector(Sector++);   
00103d 940e 1ad1 	CALL SUBOPT_0x28
00103f 940e 1ade 	CALL SUBOPT_0x29
         ;    1991                         }
         ;    1992                 }
          _0x12A:
001041 cfdd      	RJMP _0x127
          _0x129:
         ;    1993                 
         ;    1994                 //Herbereken S1D_mem voor de volgende lijn
         ;    1995                 S1D_mem = (S1D_mem - W) + Yx;
001042 89ed      	LDD  R30,Y+21
001043 89fe      	LDD  R31,Y+21+1
001044   +  	__GETD2S 5
001048 2766      	CLR  R22
001049 2777      	CLR  R23
00104a 940e 1d17 	CALL __SUBD21
00104c 85ed      	LDD  R30,Y+13
00104d 85fe      	LDD  R31,Y+13+1
00104e 2766      	CLR  R22
00104f 2777      	CLR  R23
001050 940e 1d08 	CALL __ADDD12
001052   +  	__PUTD1S 5
         ;    1996         }                                     
001056 cfbd      	RJMP _0x124
          _0x126:
         ;    1997        
         ;    1998         return;
001057 940e 1f58 	CALL __LOADLOCR5
001059 966f      	ADIW R28,31
00105a 9508      	RET
         ;    1999 }                                                    
         ;    2000 //*************************************              
         ;    2001 
         ;    2002 /**************************************
         ;    2003 Function: Delete data on CF
         ;    2004 **************************************/
         ;    2005 void CF_Delete_Data(void)
         ;    2006 {
          _CF_Delete_Data:
         ;    2007         unsigned int i;
         ;    2008         unsigned long int Sector;
         ;    2009         unsigned long int End_Sector = 152 * 32;   
         ;    2010         
         ;    2011         //Wis CF_Sector_data
         ;    2012         for(i=0;i<512;i++)
00105b 9728      	SBIW R28,8
00105c e084      	LDI  R24,4
00105d e0a0      	LDI  R26,LOW(0)
00105e e0b0      	LDI  R27,HIGH(0)
00105f ebe6      	LDI  R30,LOW(_0x12B*2)
001060 e0fa      	LDI  R31,HIGH(_0x12B*2)
001061 940e 1f5e 	CALL __INITLOCB
001063 931a      	ST   -Y,R17
001064 930a      	ST   -Y,R16
         ;	i -> R16,R17
         ;	Sector -> Y+6
         ;	End_Sector -> Y+2
001065   +  	__GETWRN 16,17,0
          _0x12D:
001067   +  	__CPWRN 16,17,512
00106a f448      	BRSH _0x12E
         ;    2013                 CF_Sector_Data[i] = 0x00;
00106b efaa      	LDI  R26,LOW(_CF_Sector_Data)
00106c e0b1      	LDI  R27,HIGH(_CF_Sector_Data)
00106d 0fa0      	ADD  R26,R16
00106e 1fb1      	ADC  R27,R17
00106f e0e0      	LDI  R30,LOW(0)
001070 93ec      	ST   X,R30
         ;    2014                 
         ;    2015         //Wis de blad blok data
         ;    2016         Sector = 1;
001071   +  	__ADDWRN 16,17,1
001073 cff3      	RJMP _0x12D
          _0x12E:
001074   +  	__GETD1N 0x1
001078   +  	__PUTD1S 6
         ;    2017         while(Sector < End_Sector)
          _0x12F:
00107c   +  	__GETD1S 2
001080   +  	__GETD2S 6
001084 940e 1f4b 	CALL __CPD21
001086 f4a0      	BRSH _0x131
         ;    2018         {
         ;    2019                 CF_Write_Sector(Sector++);
001087   +  	__GETD1S 6
00108b   +  	__SUBD1N -1
00108f   +  	__PUTD1S 6
001093 9731      	SBIW R30,1
001094 4060      	SBCI R22,0
001095 4070      	SBCI R23,0
001096 940e 1da4 	CALL __PUTPARD1
001098 940e 0ed3 	CALL _CF_Write_Sector
         ;    2020         }
00109a cfe1      	RJMP _0x12F
          _0x131:
         ;    2021         
         ;    2022         return;
00109b 8119      	LDD  R17,Y+1
00109c 8108      	LDD  R16,Y+0
00109d 962a      	ADIW R28,10
00109e 9508      	RET
         ;    2023 }
         ;    2024 //*************************************
         ;    2025         
         ;    2026                 
         ;    2027 /**************************************
         ;    2028                 LINK
         ;    2029 This will recieve the data and put it 
         ;    2030 in the CF
         ;    2031 **************************************/
         ;    2032 
         ;    2033 /**************************************
         ;    2034         Include header file's                   
         ;    2035 **************************************/
         ;    2036 #include "LCD_Test_Defs.h" 
         ;    2037 #include "cf_driver.h"
         ;    2038 #include "S1D13705.h"          
         
          	.DSEG
          _aS1DRegs_G6:
          _0aS1DRegs_G6:
000497      	.BYTE 0x1
          _1aS1DRegs_G6:
000498      	.BYTE 0x1
          _2aS1DRegs_G6:
000499      	.BYTE 0x1
          _3aS1DRegs_G6:
00049a      	.BYTE 0x1
          _4aS1DRegs_G6:
00049b      	.BYTE 0x1
          _5aS1DRegs_G6:
00049c      	.BYTE 0x1
          _6aS1DRegs_G6:
00049d      	.BYTE 0x1
          _7aS1DRegs_G6:
00049e      	.BYTE 0x1
          _8aS1DRegs_G6:
00049f      	.BYTE 0x1
          _9aS1DRegs_G6:
0004a0      	.BYTE 0x1
          _AaS1DRegs_G6:
0004a1      	.BYTE 0x1
          _BaS1DRegs_G6:
0004a2      	.BYTE 0x1
          _CaS1DRegs_G6:
0004a3      	.BYTE 0x1
          _DaS1DRegs_G6:
0004a4      	.BYTE 0x1
          _EaS1DRegs_G6:
0004a5      	.BYTE 0x1
          _FaS1DRegs_G6:
0004a6      	.BYTE 0x1
          _10aS1DRegs_G6:
0004a7      	.BYTE 0x1
          _11aS1DRegs_G6:
0004a8      	.BYTE 0x1
          _12aS1DRegs_G6:
0004a9      	.BYTE 0x1
          _13aS1DRegs_G6:
0004aa      	.BYTE 0x1
          _14aS1DRegs_G6:
0004ab      	.BYTE 0x1
          _15aS1DRegs_G6:
0004ac      	.BYTE 0x1
          _16aS1DRegs_G6:
0004ad      	.BYTE 0x1
          _17aS1DRegs_G6:
0004ae      	.BYTE 0x1
          _18aS1DRegs_G6:
0004af      	.BYTE 0x1
          _19aS1DRegs_G6:
0004b0      	.BYTE 0x1
          _1AaS1DRegs_G6:
0004b1      	.BYTE 0x1
          _1BaS1DRegs_G6:
0004b2      	.BYTE 0x1
          _1CaS1DRegs_G6:
0004b3      	.BYTE 0x1
          _1DaS1DRegs_G6:
0004b4      	.BYTE 0x1
          _1EaS1DRegs_G6:
0004b5      	.BYTE 0x1
          _1FaS1DRegs_G6:
0004b6      	.BYTE 0x1
          _20aS1DRegs_G6:
0004b7      	.BYTE 0x1
          _21aS1DRegs_G6:
0004b8      	.BYTE 0x1
          _22aS1DRegs_G6:
0004b9      	.BYTE 0x1
          _23aS1DRegs_G6:
0004ba      	.BYTE 0x1
          _24aS1DRegs_G6:
0004bb      	.BYTE 0x1
          _25aS1DRegs_G6:
0004bc      	.BYTE 0x1
          _26aS1DRegs_G6:
0004bd      	.BYTE 0x1
          _27aS1DRegs_G6:
0004be      	.BYTE 0x1
          _28aS1DRegs_G6:
0004bf      	.BYTE 0x1
          _29aS1DRegs_G6:
0004c0      	.BYTE 0x1
          _2AaS1DRegs_G6:
0004c1      	.BYTE 0x1
          _2BaS1DRegs_G6:
0004c2      	.BYTE 0x1
          _2CaS1DRegs_G6:
0004c3      	.BYTE 0x1
          _2DaS1DRegs_G6:
0004c4      	.BYTE 0x1
          _2EaS1DRegs_G6:
0004c5      	.BYTE 0x1
          _2FaS1DRegs_G6:
0004c6      	.BYTE 0x1
          _30aS1DRegs_G6:
0004c7      	.BYTE 0x1
          _31aS1DRegs_G6:
0004c8      	.BYTE 0x1
         ;    2039 //************************************* 
         ;    2040 
         ;    2041 /**************************************
         ;    2042 Function: Send ready sign to PC
         ;    2043 **************************************/
         ;    2044 void TX_Ready_Sign(void)
         ;    2045 {
         
          	.CSEG
          _TX_Ready_Sign:
         ;    2046         #asm("nop");
00109f 0000      	nop
         ;    2047         putchar('!');
0010a0 e2e1      	LDI  R30,LOW(33)
0010a1 93ea      	ST   -Y,R30
0010a2 940e 16a8 	CALL _putchar
         ;    2048         
         ;    2049         return;
0010a4 9508      	RET
         ;    2050 }
         ;    2051 //*************************************
         ;    2052 
         ;    2053 /**************************************
         ;    2054 Function: Receive bmp data and store
         ;    2055 **************************************/
         ;    2056 void Receive_BMP_Data(void)
         ;    2057 {
          _Receive_BMP_Data:
         ;    2058         unsigned char data;
         ;    2059 
         ;    2060         unsigned int i;
         ;    2061         unsigned int Aantal_BMP_Sectors;                        
         ;    2062 
         ;    2063         unsigned long int Page;           
         ;    2064         unsigned long int Sector;   
         ;    2065         
         ;    2066         //Check welke blok vrij is begin daar
         ;    2067         Page = 0;                                               //Stel Page altijd standaard in op 0
0010a5 9728      	SBIW R28,8
0010a6 940e 1f51 	CALL __SAVELOCR5
         ;	data -> R16
         ;	i -> R17,R18
         ;	Aantal_BMP_Sectors -> R19,R20
         ;	Page -> Y+9
         ;	Sector -> Y+5
0010a8   +  	__CLRD1S 9
         ;    2068         while(Page<32)
          _0x157:
0010ad   +  	__GETD2S 9
0010b1   +  	__CPD2N 0x20
0010b8 f4b8      	BRSH _0x159
         ;    2069         {
         ;    2070                 if(CF_Page[Page] == Page)                        //Als Page gelijk is dan Page met 1 verhogen anders loop verlaten
0010b9   +  	__GETD1S 9
0010bd 5fe2      	SUBI R30,LOW(-_CF_Page)
0010be 4ffb      	SBCI R31,HIGH(-_CF_Page)
0010bf 81e0      	LD   R30,Z
0010c0 2fae      	MOV  R26,R30
0010c1   +  	__GETD1S 9
0010c5 27bb      	CLR  R27
0010c6 2788      	CLR  R24
0010c7 2799      	CLR  R25
0010c8 940e 1f46 	CALL __CPD12
0010ca f419      	BRNE _0x15A
         ;    2071                         Page++;
0010cb 940e 1ad1 	CALL SUBOPT_0x28
         ;    2072                 else
0010cd c001      	RJMP _0x15B
          _0x15A:
         ;    2073                         break;                                  //Break the loop                
0010ce c001      	RJMP _0x159
         ;    2074         }
          _0x15B:
0010cf cfdd      	RJMP _0x157
          _0x159:
         ;    2075           
         ;    2076         //Bepaal start Sector
         ;    2077         Sector = (152 * Page)+ 1;                               //Example 152 * 2 = 304 + 1 = 305
0010d0   +  	__GETD1S 9
0010d4 940e 1ac6 	CALL SUBOPT_0x27
0010d6   +  	__PUTD1S 5
         ;    2078         
         ;    2079         //Zet ID in CF_Sector_data
         ;    2080         CF_Sector_Data[0] = 'B';
0010da e4e2      	LDI  R30,LOW(66)
0010db 93e0 01fa 	STS  _CF_Sector_Data,R30
         ;    2081         CF_Sector_Data[1] = 'l';
0010dd e6ec      	LDI  R30,LOW(108)
0010de   +  	__PUTB1MN _CF_Sector_Data,1
         ;    2082         CF_Sector_Data[2] = 'o';
0010e0 e6ef      	LDI  R30,LOW(111)
0010e1   +  	__PUTB1MN _CF_Sector_Data,2
         ;    2083         CF_Sector_Data[3] = 'k';
0010e3 e6eb      	LDI  R30,LOW(107)
0010e4   +  	__PUTB1MN _CF_Sector_Data,3
         ;    2084         CF_Sector_Data[4] = Page;
0010e6 85e9      	LDD  R30,Y+9
0010e7   +  	__PUTB1MN _CF_Sector_Data,4
         ;    2085         
         ;    2086         S1D13705_Clear_LCD();                                   //Clear the LCD
0010e9 940e 0db4 	CALL _S1D13705_Clear_LCD
         ;    2087         
         ;    2088         sprintf(string,"Waiting for Link");
0010eb efea      	LDI  R30,LOW(_string)
0010ec e0f3      	LDI  R31,HIGH(_string)
0010ed 93fa      	ST   -Y,R31
0010ee 93ea      	ST   -Y,R30
0010ef   +  	__POINTW1FN _0,804
0010f1 93fa      	ST   -Y,R31
0010f2 93ea      	ST   -Y,R30
0010f3 e080      	LDI  R24,0
0010f4 940e 1b0d 	CALL SUBOPT_0x2F
         ;    2089         S1D13705_Text_LCD(0,0,string,0);
0010f6   +  	__GETD1N 0x0
0010fa 940e 197f 	CALL SUBOPT_0xB
0010fc 940e 0c2f 	CALL _S1D13705_Text_LCD
         ;    2090 
         ;    2091         data = getchar();
0010fe d5a5      	RCALL _getchar
0010ff 2f0e      	MOV  R16,R30
         ;    2092         if(data == 'D')  
001100 3404      	CPI  R16,68
001101 f4a9      	BRNE _0x15C
         ;    2093         {
         ;    2094                 sprintf(string,"Link is maked");
001102 efea      	LDI  R30,LOW(_string)
001103 e0f3      	LDI  R31,HIGH(_string)
001104 93fa      	ST   -Y,R31
001105 93ea      	ST   -Y,R30
001106   +  	__POINTW1FN _0,821
001108 93fa      	ST   -Y,R31
001109 93ea      	ST   -Y,R30
00110a e080      	LDI  R24,0
00110b 940e 1b0d 	CALL SUBOPT_0x2F
         ;    2095                 S1D13705_Text_LCD(0,1,string,0);
00110d   +  	__GETD1N 0x1
001111 940e 197f 	CALL SUBOPT_0xB
001113 940e 0c2f 	CALL _S1D13705_Text_LCD
         ;    2096                 TX_Ready_Sign();
001115 940e 109f 	CALL _TX_Ready_Sign
         ;    2097         }
         ;    2098                
         ;    2099         //Ontvang hoeveel sectors nodig voor bitmap data
         ;    2100         Aantal_BMP_Sectors = getchar();
          _0x15C:
001117 d58c      	RCALL _getchar
001118 e0f0      	LDI  R31,0
001119   +  	__PUTW1R 19,20
         ;    2101         
         ;    2102         //Ontvang info over bmp, kleurdiepte/width/hoogte
         ;    2103         CF_Sector_Data[5] = getchar();                          //Kleurdiepte
00111b d588      	RCALL _getchar
00111c   +  	__PUTB1MN _CF_Sector_Data,5
         ;    2104         CF_Sector_Data[6] = getchar();                          //Width_l
00111e d585      	RCALL _getchar
00111f   +  	__PUTB1MN _CF_Sector_Data,6
         ;    2105         CF_Sector_Data[7] = getchar();                          //Width_h
001121 d582      	RCALL _getchar
001122   +  	__PUTB1MN _CF_Sector_Data,7
         ;    2106         CF_Sector_Data[8] = getchar();                          //Hoogte
001124 d57f      	RCALL _getchar
001125   +  	__PUTB1MN _CF_Sector_Data,8
         ;    2107         
         ;    2108         
         ;    2109         //Ontvang LUT tabel
         ;    2110         if(CF_Sector_Data[5] == 4)                              //16 kleuren, 48 bytes ontvangen
001127   +  	__GETB1MN _CF_Sector_Data,5
001129 30e4      	CPI  R30,LOW(0x4)
00112a f589      	BRNE _0x15D
         ;    2111         {
         ;    2112                sprintf(string,"Info recieved!Receive LUT 16");
00112b efea      	LDI  R30,LOW(_string)
00112c e0f3      	LDI  R31,HIGH(_string)
00112d 93fa      	ST   -Y,R31
00112e 93ea      	ST   -Y,R30
00112f   +  	__POINTW1FN _0,835
001131 93fa      	ST   -Y,R31
001132 93ea      	ST   -Y,R30
001133 e080      	LDI  R24,0
001134 940e 1b0d 	CALL SUBOPT_0x2F
         ;    2113                 S1D13705_Text_LCD(0,2,string,0);
001136   +  	__GETD1N 0x2
00113a 940e 197f 	CALL SUBOPT_0xB
00113c 940e 0c2f 	CALL _S1D13705_Text_LCD
         ;    2114                 TX_Ready_Sign();                                //Zend ready Signal
00113e 940e 109f 	CALL _TX_Ready_Sign
         ;    2115                 for(i=255;i<=302;i++)                           //Sla data op in CF_Sector_data
001140   +  	__GETWRN 17,18,255
          _0x15F:
001142 e2ee      	LDI  R30,LOW(302)
001143 e0f1      	LDI  R31,HIGH(302)
001144 17e1      	CP   R30,R17
001145 07f2      	CPC  R31,R18
001146 f058      	BRLO _0x160
         ;    2116                 {
         ;    2117                         TX_Ready_Sign();                        //Zend ready signal;
001147 940e 1b16 	CALL SUBOPT_0x30
         ;    2118                         CF_Sector_Data[i] = getchar();
001149 93ff      	PUSH R31
00114a 93ef      	PUSH R30
00114b d558      	RCALL _getchar
00114c 91af      	POP  R26
00114d 91bf      	POP  R27
00114e 93ec      	ST   X,R30
         ;    2119                 }
00114f   +  	__ADDWRN 17,18,1
001151 cff0      	RJMP _0x15F
          _0x160:
         ;    2120                 
         ;    2121                 //Sla CF_Sector_Data op
         ;    2122                 CF_Write_Sector(Sector);                        //Sla Informatie Sector op in begin Sector
001152 940e 1b1d 	CALL SUBOPT_0x31
         ;    2123                 Sector += 2;                                    //Verhoog Sector met 2, omdat dan de BMP data begint
001154   +  	__ADDD1N 2
001158   +  	__PUTD1S 5
         ;    2124         }
         ;    2125         if(CF_Sector_Data[5] == 8)                              //256 kleuren 768 bytes ontvangen verdelen over 2 sectoren
          _0x15D:
00115c   +  	__GETB1MN _CF_Sector_Data,5
00115e 30e8      	CPI  R30,LOW(0x8)
00115f f011      	BREQ PC+3
001160 940c 11af 	JMP _0x161
         ;    2126         {
         ;    2127 
         ;    2128                 sprintf(string,"Info recieved!Receive LUT 256");
001162 efea      	LDI  R30,LOW(_string)
001163 e0f3      	LDI  R31,HIGH(_string)
001164 93fa      	ST   -Y,R31
001165 93ea      	ST   -Y,R30
001166   +  	__POINTW1FN _0,864
001168 93fa      	ST   -Y,R31
001169 93ea      	ST   -Y,R30
00116a e080      	LDI  R24,0
00116b 940e 1b0d 	CALL SUBOPT_0x2F
         ;    2129                 S1D13705_Text_LCD(0,2,string,0);
00116d   +  	__GETD1N 0x2
001171 940e 197f 	CALL SUBOPT_0xB
001173 940e 0c2f 	CALL _S1D13705_Text_LCD
         ;    2130                 
         ;    2131                 //Ontvanger eerst 256 bytes in de eerste sector
         ;    2132                 TX_Ready_Sign();                                //Zend ready signal;
001175 940e 109f 	CALL _TX_Ready_Sign
         ;    2133                 for(i=254;i<=511;i++)
001177   +  	__GETWRN 17,18,254
          _0x163:
001179 efef      	LDI  R30,LOW(511)
00117a e0f1      	LDI  R31,HIGH(511)
00117b 17e1      	CP   R30,R17
00117c 07f2      	CPC  R31,R18
00117d f058      	BRLO _0x164
         ;    2134                 {
         ;    2135                         TX_Ready_Sign();                        //Zend ready signal;
00117e 940e 1b16 	CALL SUBOPT_0x30
         ;    2136                         CF_Sector_Data[i] = getchar();
001180 93ff      	PUSH R31
001181 93ef      	PUSH R30
001182 d521      	RCALL _getchar
001183 91af      	POP  R26
001184 91bf      	POP  R27
001185 93ec      	ST   X,R30
         ;    2137                 }        
001186   +  	__ADDWRN 17,18,1
001188 cff0      	RJMP _0x163
          _0x164:
         ;    2138                 
         ;    2139                 //Sla eerste info sector op CF
         ;    2140                 CF_Write_Sector(Sector);                        //Sla eerste info sector op in start sector
001189 940e 1b1d 	CALL SUBOPT_0x31
         ;    2141                 Sector++;                                       //Verhoog met 1                           
00118b   +  	__SUBD1N -1
00118f   +  	__PUTD1S 5
         ;    2142                 
         ;    2143                                
         ;    2144                 //Ontvang tweede sector LUT
         ;    2145                 for(i=0;i<=509;i++)
001193   +  	__GETWRN 17,18,0
          _0x166:
001195 efed      	LDI  R30,LOW(509)
001196 e0f1      	LDI  R31,HIGH(509)
001197 17e1      	CP   R30,R17
001198 07f2      	CPC  R31,R18
001199 f058      	BRLO _0x167
         ;    2146                 {
         ;    2147                         TX_Ready_Sign();                        //Zend ready signal;
00119a 940e 1b16 	CALL SUBOPT_0x30
         ;    2148                         CF_Sector_Data[i] = getchar();
00119c 93ff      	PUSH R31
00119d 93ef      	PUSH R30
00119e d505      	RCALL _getchar
00119f 91af      	POP  R26
0011a0 91bf      	POP  R27
0011a1 93ec      	ST   X,R30
         ;    2149                 }                        
0011a2   +  	__ADDWRN 17,18,1
0011a4 cff0      	RJMP _0x166
          _0x167:
         ;    2150                 
         ;    2151                 //Sla tweede info sector op CF
         ;    2152                 CF_Write_Sector(Sector);
0011a5 940e 1b1d 	CALL SUBOPT_0x31
         ;    2153                 Sector++;
0011a7   +  	__SUBD1N -1
0011ab   +  	__PUTD1S 5
         ;    2154         }
         ;    2155         
         ;    2156         sprintf(string,"LUT recieved! Get BITMAP data");
          _0x161:
0011af efea      	LDI  R30,LOW(_string)
0011b0 e0f3      	LDI  R31,HIGH(_string)
0011b1 93fa      	ST   -Y,R31
0011b2 93ea      	ST   -Y,R30
0011b3   +  	__POINTW1FN _0,894
0011b5 93fa      	ST   -Y,R31
0011b6 93ea      	ST   -Y,R30
0011b7 e080      	LDI  R24,0
0011b8 940e 1b0d 	CALL SUBOPT_0x2F
         ;    2157         S1D13705_Text_LCD(0,3,string,0);
0011ba   +  	__GETD1N 0x3
0011be 940e 197f 	CALL SUBOPT_0xB
0011c0 940e 1984 	CALL SUBOPT_0xC
         ;    2158         sprintf(string,"Sectors to recieve: %d at Page %d",Aantal_BMP_Sectors,Page);
0011c2   +  	__POINTW1FN _0,924
0011c4 93fa      	ST   -Y,R31
0011c5 93ea      	ST   -Y,R30
0011c6   +  	__GETW1R 19,20
0011c8 2766      	CLR  R22
0011c9 2777      	CLR  R23
0011ca 940e 1da4 	CALL __PUTPARD1
0011cc   +  	__GETD1S 17
0011d0 940e 1da4 	CALL __PUTPARD1
0011d2 e088      	LDI  R24,8
0011d3 940e 17eb 	CALL _sprintf
0011d5 962c      	ADIW R28,12
         ;    2159         S1D13705_Text_LCD(0,4,string,0);
0011d6   +  	__GETD1N 0x0
0011da 940e 1da4 	CALL __PUTPARD1
0011dc   +  	__GETD1N 0x4
0011e0 940e 197f 	CALL SUBOPT_0xB
0011e2 940e 0c2f 	CALL _S1D13705_Text_LCD
         ;    2160         
         ;    2161         //Ontvangen van de bitmap Data
         ;    2162         TX_Ready_Sign();                                        //Zend ready signal;
0011e4 940e 109f 	CALL _TX_Ready_Sign
         ;    2163         
         ;    2164         for(data=1;data<=Aantal_BMP_Sectors;data++)
0011e6 e001      	LDI  R16,LOW(1)
          _0x169:
0011e7   +  	__GETW1R 19,20
0011e9 2fa0      	MOV  R26,R16
0011ea e0b0      	LDI  R27,0
0011eb 17ea      	CP   R30,R26
0011ec 07fb      	CPC  R31,R27
0011ed f1b0      	BRLO _0x16A
         ;    2165         {
         ;    2166                 //Lees eerste 512 bytes in van de PC
         ;    2167                 for(i=0;i<=511;i++) 
0011ee   +  	__GETWRN 17,18,0
          _0x16C:
0011f0 efef      	LDI  R30,LOW(511)
0011f1 e0f1      	LDI  R31,HIGH(511)
0011f2 17e1      	CP   R30,R17
0011f3 07f2      	CPC  R31,R18
0011f4 f068      	BRLO _0x16D
         ;    2168                 {      
         ;    2169                         //TX_Ready_Sign();                        //Zend ready signal;
         ;    2170                         CF_Sector_Data[i] = getchar();  
0011f5   +  	__GETW1R 17,18
0011f7 50e6      	SUBI R30,LOW(-_CF_Sector_Data)
0011f8 4ffe      	SBCI R31,HIGH(-_CF_Sector_Data)
0011f9 93ff      	PUSH R31
0011fa 93ef      	PUSH R30
0011fb d4a8      	RCALL _getchar
0011fc 91af      	POP  R26
0011fd 91bf      	POP  R27
0011fe 93ec      	ST   X,R30
         ;    2171                 }
0011ff   +  	__ADDWRN 17,18,1
001201 cfee      	RJMP _0x16C
          _0x16D:
         ;    2172                         
         ;    2173                 sprintf(string,"Sector %d stored",data);
001202 efea      	LDI  R30,LOW(_string)
001203 e0f3      	LDI  R31,HIGH(_string)
001204 93fa      	ST   -Y,R31
001205 93ea      	ST   -Y,R30
001206   +  	__POINTW1FN _0,958
001208 940e 198f 	CALL SUBOPT_0xE
00120a e084      	LDI  R24,4
00120b 940e 17eb 	CALL _sprintf
00120d 9628      	ADIW R28,8
         ;    2174                 S1D13705_Text_LCD(0,5,string,0);
00120e   +  	__GETD1N 0x0
001212 940e 1da4 	CALL __PUTPARD1
001214   +  	__GETD1N 0x5
001218 940e 197f 	CALL SUBOPT_0xB
00121a 940e 0c2f 	CALL _S1D13705_Text_LCD
         ;    2175                 
         ;    2176                 //Sla bitmap data op
         ;    2177                 CF_Write_Sector(Sector++);
00121c 940e 1a45 	CALL SUBOPT_0x1D
00121e 940e 0ed3 	CALL _CF_Write_Sector
         ;    2178                 TX_Ready_Sign();                        //Zend ready signal
001220 940e 109f 	CALL _TX_Ready_Sign
         ;    2179         }
001222 5f0f      	SUBI R16,-1
001223 cfc3      	RJMP _0x169
          _0x16A:
         ;    2180         
         ;    2181         sprintf(string,"Received done");
001224 efea      	LDI  R30,LOW(_string)
001225 e0f3      	LDI  R31,HIGH(_string)
001226 93fa      	ST   -Y,R31
001227 93ea      	ST   -Y,R30
001228   +  	__POINTW1FN _0,975
00122a 93fa      	ST   -Y,R31
00122b 93ea      	ST   -Y,R30
00122c e080      	LDI  R24,0
00122d 940e 1b0d 	CALL SUBOPT_0x2F
         ;    2182         S1D13705_Text_LCD(0,6,string,0);
00122f   +  	__GETD1N 0x6
001233 940e 197f 	CALL SUBOPT_0xB
001235 940e 0c2f 	CALL _S1D13705_Text_LCD
         ;    2183                                       
         ;    2184         delay_ms(1000); 
001237 eee8      	LDI  R30,LOW(1000)
001238 e0f3      	LDI  R31,HIGH(1000)
001239 93fa      	ST   -Y,R31
00123a 93ea      	ST   -Y,R30
00123b 940e 1cf8 	CALL _delay_ms
         ;    2185 
         ;    2186         return;
00123d 940e 1f58 	CALL __LOADLOCR5
00123f 962d      	ADIW R28,13
001240 9508      	RET
         ;    2187 }
         ;    2188 //*************************************       
         ;    2189 
         ;    2190 /**************************************
         ;    2191       4 Wire Touchscreen driver      
         ;    2192       
         ;    2193 Version:  
         ;    2194 **************************************/        
         ;    2195 #include "lcd_test_defs.h"
         ;    2196 //#include "s1d13705.h"
         ;    2197 #include "Touchscreen.h"               
         ;    2198 
         ;    2199 static float A,B,C,D,E,F;
         
          	.DSEG
          _A_G7:
0004c9      	.BYTE 0x4
          _B_G7:
0004cd      	.BYTE 0x4
          _C_G7:
0004d1      	.BYTE 0x4
          _D_G7:
0004d5      	.BYTE 0x4
          _E_G7:
0004d9      	.BYTE 0x4
          _F_G7:
0004dd      	.BYTE 0x4
         ;    2200 
         ;    2201 /**************************************
         ;    2202 Functie: Touchscreen init
         ;    2203 **************************************/
         ;    2204 void Touchscreen_Init(void)
         ;    2205 {
         
          	.CSEG
          _Touchscreen_Init:
         ;    2206         //Lees calibratie coeffecients in van eeprom
         ;    2207         A = ee_float1;
001241 e0a1      	LDI  R26,LOW(_ee_float1)
001242 e0b0      	LDI  R27,HIGH(_ee_float1)
001243 940e 1db6 	CALL __EEPROMRDD
001245 93e0 04c9 	STS  _A_G7,R30
001247 93f0 04ca 	STS  _A_G7+1,R31
001249 9360 04cb 	STS  _A_G7+2,R22
00124b 9370 04cc 	STS  _A_G7+3,R23
         ;    2208         B = ee_float2;
00124d e0a5      	LDI  R26,LOW(_ee_float2)
00124e e0b0      	LDI  R27,HIGH(_ee_float2)
00124f 940e 1db6 	CALL __EEPROMRDD
001251 93e0 04cd 	STS  _B_G7,R30
001253 93f0 04ce 	STS  _B_G7+1,R31
001255 9360 04cf 	STS  _B_G7+2,R22
001257 9370 04d0 	STS  _B_G7+3,R23
         ;    2209         C = ee_float3;
001259 e0a9      	LDI  R26,LOW(_ee_float3)
00125a e0b0      	LDI  R27,HIGH(_ee_float3)
00125b 940e 1db6 	CALL __EEPROMRDD
00125d 93e0 04d1 	STS  _C_G7,R30
00125f 93f0 04d2 	STS  _C_G7+1,R31
001261 9360 04d3 	STS  _C_G7+2,R22
001263 9370 04d4 	STS  _C_G7+3,R23
         ;    2210         D = ee_float4;
001265 e0ad      	LDI  R26,LOW(_ee_float4)
001266 e0b0      	LDI  R27,HIGH(_ee_float4)
001267 940e 1db6 	CALL __EEPROMRDD
001269 93e0 04d5 	STS  _D_G7,R30
00126b 93f0 04d6 	STS  _D_G7+1,R31
00126d 9360 04d7 	STS  _D_G7+2,R22
00126f 9370 04d8 	STS  _D_G7+3,R23
         ;    2211         E = ee_float5;
001271 e1a1      	LDI  R26,LOW(_ee_float5)
001272 e0b0      	LDI  R27,HIGH(_ee_float5)
001273 940e 1db6 	CALL __EEPROMRDD
001275 93e0 04d9 	STS  _E_G7,R30
001277 93f0 04da 	STS  _E_G7+1,R31
001279 9360 04db 	STS  _E_G7+2,R22
00127b 9370 04dc 	STS  _E_G7+3,R23
         ;    2212         F = ee_float6;
00127d e1a5      	LDI  R26,LOW(_ee_float6)
00127e e0b0      	LDI  R27,HIGH(_ee_float6)
00127f 940e 1db6 	CALL __EEPROMRDD
001281 93e0 04dd 	STS  _F_G7,R30
001283 93f0 04de 	STS  _F_G7+1,R31
001285 9360 04df 	STS  _F_G7+2,R22
001287 9370 04e0 	STS  _F_G7+3,R23
         ;    2213         
         ;    2214         //Lees Flag register in van eeprom
         ;    2215         Touchscreen.Flag_Register = ee_Touch_Flag; 
001289 e0a0      	LDI  R26,LOW(_ee_Touch_Flag)
00128a e0b0      	LDI  R27,HIGH(_ee_Touch_Flag)
00128b 940e 1dbf 	CALL __EEPROMRDB
00128d 93e0 042e 	STS  _Touchscreen,R30
         ;    2216         printf("\n\rTouch_Flag: %x",Touchscreen.Flag_Register);
00128f   +  	__POINTW1FN _0,989
001291 93fa      	ST   -Y,R31
001292 93ea      	ST   -Y,R30
001293 91e0 042e 	LDS  R30,_Touchscreen
001295 27ff      	CLR  R31
001296 2766      	CLR  R22
001297 2777      	CLR  R23
001298 940e 1da4 	CALL __PUTPARD1
00129a e084      	LDI  R24,4
00129b 940e 17fc 	CALL _printf
00129d 9626      	ADIW R28,6
         ;    2217         //Zet Touchscreen standby
         ;    2218         Touch_Standby;
00129e 98c1      	CBI  0x18,1
00129f 9ac2      	SBI  0x18,2
0012a0 e0e1      	LDI  R30,LOW(1)
0012a1 2fae      	MOV  R26,R30
0012a2 98c3      	CBI  0x18,3
0012a3 940e 1b2a 	CALL SUBOPT_0x32
0012a5 98c4      	CBI  0x18,4
0012a6 940e 1b2e 	CALL SUBOPT_0x33
         ;    2219         
         ;    2220         //Zet TouchPressed flag op 0
         ;    2221         Touchscreen.Flag_Register &= ~(1<<TouchPressed);
         ;    2222         
         ;    2223         //Zet int0 actief
         ;    2224         GIFR |= (1<<INT0);                                      //Erase bit so that no interupt is generated 
0012a8 940e 194f 	CALL SUBOPT_0x3
         ;    2225         GICR |= (1<<INT0);                                      //Enable the INT0 request
         ;    2226 
         ;    2227         return;
0012aa 9508      	RET
         ;    2228 }
         ;    2229 //*************************************
         ;    2230 
         ;    2231 /**************************************
         ;    2232 Functie: Check of touchscreen nog is 
         ;    2233          ingedrukt,debounce
         ;    2234 **************************************/
         ;    2235 unsigned char Touchscreen_Pressed(void)
         ;    2236 {
          _Touchscreen_Pressed:
         ;    2237         //Check of de touchscreen nog is ingedrukt
         ;    2238         delay_ms(10);
0012ab 940e 1b36 	CALL SUBOPT_0x34
         ;    2239         if(TouchPress != 0)             
0012ad 9b82      	SBIS 0x10,2
0012ae c002      	RJMP _0x16E
         ;    2240                 return(0);                                      //Touchscreen is niet ingedrukt, ga terug.
0012af e0e0      	LDI  R30,LOW(0)
0012b0 9508      	RET
         ;    2241         
         ;    2242         return(0x01);                                           //Touchscreen is nog ingedrukt return een 1
          _0x16E:
0012b1 e0e1      	LDI  R30,LOW(1)
0012b2 9508      	RET
         ;    2243 }
         ;    2244 //*************************************
         ;    2245                                              
         ;    2246 /**************************************
         ;    2247 Functie: Lees x of y raw value van touchscreen
         ;    2248 **************************************/
         ;    2249 unsigned int Touchscreen_Value(unsigned char T_as)
         ;    2250 {
          _Touchscreen_Value:
         ;    2251         unsigned int Touch_Data[6];                             //Gemeten touch data 
         ;    2252         unsigned char Channel;                                  //Channel voor de ADC om te meten   
         ;    2253         unsigned char i;
         ;    2254         
         ;    2255         //Checke of aan X of Y moeten worden gemeten
         ;    2256         if(T_as == 0)                                           //X as       
0012b3 972c      	SBIW R28,12
0012b4 931a      	ST   -Y,R17
0012b5 930a      	ST   -Y,R16
         ;	T_as -> Y+14
         ;	Touch_Data -> Y+2
         ;	Channel -> R16
         ;	i -> R17
0012b6 85ee      	LDD  R30,Y+14
0012b7 30e0      	CPI  R30,0
0012b8 f461      	BRNE _0x16F
         ;    2257         {
         ;    2258                 Touch_Xas;                                      //Stel I/O in zodat aan de X as wordt gemeten.
0012b9 98c1      	CBI  0x18,1
0012ba 9ac2      	SBI  0x18,2
0012bb e0e1      	LDI  R30,LOW(1)
0012bc 2fae      	MOV  R26,R30
0012bd 9ac3      	SBI  0x18,3
0012be 2bea      	OR   R30,R26
0012bf 2fae      	MOV  R26,R30
0012c0 98c4      	CBI  0x18,4
0012c1 e0e0      	LDI  R30,LOW(0)
0012c2 2bea      	OR   R30,R26
         ;    2259                 Channel = 0x01;                                 //Stel channel in om te meten aan X as
0012c3 e001      	LDI  R16,LOW(1)
         ;    2260         }
         ;    2261         else                                                           
0012c4 c00b      	RJMP _0x170
          _0x16F:
         ;    2262         {
         ;    2263                 Touch_Yas;                                      //Stel I/O in zodat aan de Y as wordt gemeten.
0012c5 9ac1      	SBI  0x18,1
0012c6 98c2      	CBI  0x18,2
0012c7 940e 1a6b 	CALL SUBOPT_0x21
0012c9 98c3      	CBI  0x18,3
0012ca 940e 1b2a 	CALL SUBOPT_0x32
0012cc 9ac4      	SBI  0x18,4
0012cd e0e1      	LDI  R30,LOW(1)
0012ce 2bea      	OR   R30,R26
         ;    2264                 Channel = 0x00;                                 //Stel channel in om te meten aan Y as
0012cf e000      	LDI  R16,LOW(0)
         ;    2265         }
          _0x170:
         ;    2266         
         ;    2267         //Meet 5x touchscreen data
         ;    2268         for(i=0;i<5;i++) 
0012d0 e010      	LDI  R17,LOW(0)
          _0x172:
0012d1 3015      	CPI  R17,5
0012d2 f490      	BRSH _0x173
         ;    2269                 Touch_Data[i] = ADC_LTC1298_Data(Channel);
0012d3 2fe1      	MOV  R30,R17
0012d4 e0f0      	LDI  R31,0
0012d5 01de      	MOVW R26,R28
0012d6 9612      	ADIW R26,2
0012d7 0fee      	LSL  R30
0012d8 1fff      	ROL  R31
0012d9 0fea      	ADD  R30,R26
0012da 1ffb      	ADC  R31,R27
0012db 93ff      	PUSH R31
0012dc 93ef      	PUSH R30
0012dd 930a      	ST   -Y,R16
0012de d39c      	RCALL _ADC_LTC1298_Data
0012df 91af      	POP  R26
0012e0 91bf      	POP  R27
0012e1 93ed      	ST   X+,R30
0012e2 93fc      	ST   X,R31
         ;    2270         
         ;    2271         //Neem gemiddelde van meetwaarde
         ;    2272         Touch_Data[5] = (Touch_Data[0] / 5) + (Touch_Data[1] / 5) + (Touch_Data[2] / 5) + (Touch_Data[3] / 5) + (Touch_Data[4] / 5);
0012e3 5f1f      	SUBI R17,-1
0012e4 cfec      	RJMP _0x172
          _0x173:
0012e5 81aa      	LDD  R26,Y+2
0012e6 81bb      	LDD  R27,Y+2+1
0012e7 e0e5      	LDI  R30,LOW(5)
0012e8 e0f0      	LDI  R31,HIGH(5)
0012e9 940e 1d86 	CALL __DIVW21U
0012eb 93ff      	PUSH R31
0012ec 93ef      	PUSH R30
0012ed 81ac      	LDD  R26,Y+4
0012ee 81bd      	LDD  R27,Y+4+1
0012ef e0e5      	LDI  R30,LOW(5)
0012f0 e0f0      	LDI  R31,HIGH(5)
0012f1 940e 1d86 	CALL __DIVW21U
0012f3 91af      	POP  R26
0012f4 91bf      	POP  R27
0012f5 0fea      	ADD  R30,R26
0012f6 1ffb      	ADC  R31,R27
0012f7 93ff      	PUSH R31
0012f8 93ef      	PUSH R30
0012f9 81ae      	LDD  R26,Y+6
0012fa 81bf      	LDD  R27,Y+6+1
0012fb e0e5      	LDI  R30,LOW(5)
0012fc e0f0      	LDI  R31,HIGH(5)
0012fd 940e 1d86 	CALL __DIVW21U
0012ff 91af      	POP  R26
001300 91bf      	POP  R27
001301 0fea      	ADD  R30,R26
001302 1ffb      	ADC  R31,R27
001303 93ff      	PUSH R31
001304 93ef      	PUSH R30
001305 85a8      	LDD  R26,Y+8
001306 85b9      	LDD  R27,Y+8+1
001307 e0e5      	LDI  R30,LOW(5)
001308 e0f0      	LDI  R31,HIGH(5)
001309 940e 1d86 	CALL __DIVW21U
00130b 91af      	POP  R26
00130c 91bf      	POP  R27
00130d 0fea      	ADD  R30,R26
00130e 1ffb      	ADC  R31,R27
00130f 93ff      	PUSH R31
001310 93ef      	PUSH R30
001311 85aa      	LDD  R26,Y+10
001312 85bb      	LDD  R27,Y+10+1
001313 e0e5      	LDI  R30,LOW(5)
001314 e0f0      	LDI  R31,HIGH(5)
001315 940e 1d86 	CALL __DIVW21U
001317 91af      	POP  R26
001318 91bf      	POP  R27
001319 0fea      	ADD  R30,R26
00131a 1ffb      	ADC  R31,R27
00131b 87ec      	STD  Y+12,R30
00131c 87fd      	STD  Y+12+1,R31
         ;    2273         
         ;    2274         return(Touch_Data[5]);
00131d 8119      	LDD  R17,Y+1
00131e 8108      	LDD  R16,Y+0
00131f 962f      	ADIW R28,15
001320 9508      	RET
         ;    2275 }
         ;    2276 //*************************************
         ;    2277 
         ;    2278 /**************************************
         ;    2279 Functie: Touchscreen X and Y positie
         ;    2280 **************************************/
         ;    2281 void Touchscreen_XY_positie(void)
         ;    2282 {
          _Touchscreen_XY_positie:
         ;    2283         float Xpos, Ypos;
         ;    2284         unsigned int Xraw, Yraw;
         ;    2285         unsigned char X = 0;
         ;    2286         unsigned char Y = 1;    
         ;    2287         unsigned char i;
         ;    2288         
         ;    2289         //Check of de touchscreen nog is ingedrukt dan pas meten
         ;    2290         if((i=Touchscreen_Pressed()) != 1)                              //Touchscreen niet ingedrukt, return
001321 9729      	SBIW R28,9
001322 940e 1f50 	CALL __SAVELOCR6
         ;	Xpos -> Y+11
         ;	Ypos -> Y+7
         ;	Xraw -> R16,R17
         ;	Yraw -> R18,R19
         ;	X -> R20
         ;	Y -> R21
         ;	i -> Y+6
001324 e040      	LDI  R20,0
001325 e051      	LDI  R21,1
001326 940e 1b3c 	CALL SUBOPT_0x35
001328 f059      	BREQ _0x174
         ;    2291         {
         ;    2292                 //Zet TouchPressed flag op 0
         ;    2293                 Touchscreen.Flag_Register &= ~(1<<TouchPressed); 
001329 940e 1b41 	CALL SUBOPT_0x36
         ;    2294                 printf("\n\rReleased");    
00132b   +  	__POINTW1FN _0,1006
00132d 93fa      	ST   -Y,R31
00132e 93ea      	ST   -Y,R30
00132f e080      	LDI  R24,0
001330 940e 17fc 	CALL _printf
001332 9622      	ADIW R28,2
         ;    2295                 return;
001333 c06f      	RJMP _0x245
         ;    2296         }
         ;    2297                 
         ;    2298         //Meet Xraw en Yraw value
         ;    2299         Xraw = Touchscreen_Value(X);                                    //Meet Xraw data
          _0x174:
001334 934a      	ST   -Y,R20
001335 940e 12b3 	CALL _Touchscreen_Value
001337   +  	__PUTW1R 16,17
         ;    2300         Yraw = Touchscreen_Value(Y);                                    //Meet Yraw data
001339 935a      	ST   -Y,R21
00133a 940e 12b3 	CALL _Touchscreen_Value
00133c   +  	__PUTW1R 18,19
         ;    2301         
         ;    2302         //Bereken Xpos en Ypos
         ;    2303         Xpos = (A * (float)Xraw) + (B * (float)Yraw) + C;
00133e   +  	__GETW1R 16,17
001340 940e 1b47 	CALL SUBOPT_0x37
001342 937f      	PUSH R23
001343 936f      	PUSH R22
001344 93ff      	PUSH R31
001345 93ef      	PUSH R30
001346   +  	__GETW1R 18,19
001348 940e 1b56 	CALL SUBOPT_0x38
00134a 91af      	POP  R26
00134b 91bf      	POP  R27
00134c 918f      	POP  R24
00134d 919f      	POP  R25
00134e 940e 1e81 	CALL __ADDF12
001350 91a0 04d1 	LDS  R26,_C_G7
001352 91b0 04d2 	LDS  R27,_C_G7+1
001354 9180 04d3 	LDS  R24,_C_G7+2
001356 9190 04d4 	LDS  R25,_C_G7+3
001358 940e 1e81 	CALL __ADDF12
00135a   +  	__PUTD1S 11
         ;    2304         Ypos= (D * (float)Xraw) + (E * (float)Yraw) + F;
00135e   +  	__GETW1R 16,17
001360 940e 1b65 	CALL SUBOPT_0x39
001362 937f      	PUSH R23
001363 936f      	PUSH R22
001364 93ff      	PUSH R31
001365 93ef      	PUSH R30
001366   +  	__GETW1R 18,19
001368 940e 1b74 	CALL SUBOPT_0x3A
00136a 91af      	POP  R26
00136b 91bf      	POP  R27
00136c 918f      	POP  R24
00136d 919f      	POP  R25
00136e 940e 1e81 	CALL __ADDF12
001370 91a0 04dd 	LDS  R26,_F_G7
001372 91b0 04de 	LDS  R27,_F_G7+1
001374 9180 04df 	LDS  R24,_F_G7+2
001376 9190 04e0 	LDS  R25,_F_G7+3
001378 940e 1e81 	CALL __ADDF12
00137a   +  	__PUTD1S 7
         ;    2305         
         ;    2306         //Sla Xpos en Ypos op in sruct als unsigned int
         ;    2307         Touchscreen.X_pos = (unsigned int)Xpos;
00137e   +  	__GETD1S 11
001382 940e 1e10 	CALL __CFD1
001384   +  	__PUTW1MN _Touchscreen,1
         ;    2308         Touchscreen.Y_pos = (unsigned int)Ypos;        
001388   +  	__GETD1S 7
00138c 940e 1e10 	CALL __CFD1
00138e   +  	__PUTW1MN _Touchscreen,3
         ;    2309         
         ;    2310         //Zet TouchPressed flag op 0
         ;    2311         Touchscreen.Flag_Register &= ~(1<<TouchPressed);  
001392 940e 1b41 	CALL SUBOPT_0x36
         ;    2312         
         ;    2313         //Zet XY_Value flag op 1 als teken dat er een geldige XY waarde aanwezig is
         ;    2314         Touchscreen.Flag_Register |= (1<<XY_Value);
001394 91e0 042e 	LDS  R30,_Touchscreen
001396 60e8      	ORI  R30,8
001397 93e0 042e 	STS  _Touchscreen,R30
         ;    2315         
         ;    2316         //Zet touchscreen standby voor nieuwe drukmeting
         ;    2317         Touch_Standby;
001399 98c1      	CBI  0x18,1
00139a 9ac2      	SBI  0x18,2
00139b e0e1      	LDI  R30,LOW(1)
00139c 2fae      	MOV  R26,R30
00139d 98c3      	CBI  0x18,3
00139e 940e 1b2a 	CALL SUBOPT_0x32
0013a0 98c4      	CBI  0x18,4
0013a1 e0e0      	LDI  R30,LOW(0)
0013a2 2bea      	OR   R30,R26
         ;    2318         
         ;    2319         return;
          _0x245:
0013a3 940e 1f57 	CALL __LOADLOCR6
0013a5 962f      	ADIW R28,15
0013a6 9508      	RET
         ;    2320 }
         ;    2321 //*************************************
         ;    2322                        
         ;    2323 /**************************************
         ;    2324 Functie: Touchscreen calibratie
         ;    2325 **************************************/
         ;    2326 void Touchscreen_Calibratie(void)
         ;    2327 {
          _Touchscreen_Calibratie:
         ;    2328         unsigned int Xt1,Xt2,Xt3;                                       //3 sample points X as van de touchscreen
         ;    2329         unsigned int Yt1,Yt2,Yt3;                                       //3 sample points Y as van de touchscreen
         ;    2330         unsigned int Xd1,Xd2,Xd3;                                       //3 referentie punten van de display X 
         ;    2331         unsigned int Yd1,Yd2,Yd3;                                       //3 referentie punten van de display Y
         ;    2332         unsigned char X = 0;
         ;    2333         unsigned char Y = 1;   
         ;    2334         unsigned char i;
         ;    2335         
         ;    2336         //Zet in flag register TouchCalProcess aan
         ;    2337         Touchscreen.Flag_Register |= (1<<TouchCalProcess);      
0013a7 9765      	SBIW R28,21
0013a8 e082      	LDI  R24,2
0013a9 e0a1      	LDI  R26,LOW(1)
0013aa e0b0      	LDI  R27,HIGH(1)
0013ab e0e4      	LDI  R30,LOW(_0x175*2)
0013ac e0fb      	LDI  R31,HIGH(_0x175*2)
0013ad 940e 1f5e 	CALL __INITLOCB
0013af 940e 1f50 	CALL __SAVELOCR6
         ;	Xt1 -> R16,R17
         ;	Xt2 -> R18,R19
         ;	Xt3 -> R20,R21
         ;	Yt1 -> Y+25
         ;	Yt2 -> Y+23
         ;	Yt3 -> Y+21
         ;	Xd1 -> Y+19
         ;	Xd2 -> Y+17
         ;	Xd3 -> Y+15
         ;	Yd1 -> Y+13
         ;	Yd2 -> Y+11
         ;	Yd3 -> Y+9
         ;	X -> Y+8
         ;	Y -> Y+7
         ;	i -> Y+6
0013b1 91e0 042e 	LDS  R30,_Touchscreen
0013b3 60e4      	ORI  R30,4
0013b4 93e0 042e 	STS  _Touchscreen,R30
         ;    2338         
         ;    2339         //Stel referentie punten vast van de display
         ;    2340         //Meet punt 1
         ;    2341         Xd1 = 31;
0013b6 e1ef      	LDI  R30,LOW(31)
0013b7 e0f0      	LDI  R31,HIGH(31)
0013b8 8beb      	STD  Y+19,R30
0013b9 8bfc      	STD  Y+19+1,R31
         ;    2342         Yd1 = 215;
0013ba ede7      	LDI  R30,LOW(215)
0013bb e0f0      	LDI  R31,HIGH(215)
0013bc 87ed      	STD  Y+13,R30
0013bd 87fe      	STD  Y+13+1,R31
         ;    2343         //Xd1 = 287;
         ;    2344         //Yd1 = 119;
         ;    2345         
         ;    2346         //Meet punt 2
         ;    2347         Xd2 = 159;
0013be e9ef      	LDI  R30,LOW(159)
0013bf e0f0      	LDI  R31,HIGH(159)
0013c0 8be9      	STD  Y+17,R30
0013c1 8bfa      	STD  Y+17+1,R31
         ;    2348         Yd2 = 23;
0013c2 e1e7      	LDI  R30,LOW(23)
0013c3 e0f0      	LDI  R31,HIGH(23)
0013c4 87eb      	STD  Y+11,R30
0013c5 87fc      	STD  Y+11+1,R31
         ;    2349         
         ;    2350         //Meet punt 3
         ;    2351         Xd3 = 287;
0013c6 e1ef      	LDI  R30,LOW(287)
0013c7 e0f1      	LDI  R31,HIGH(287)
0013c8 87ef      	STD  Y+15,R30
0013c9 8bf8      	STD  Y+15+1,R31
         ;    2352         Yd3 = 119;
0013ca e7e7      	LDI  R30,LOW(119)
0013cb e0f0      	LDI  R31,HIGH(119)
0013cc 87e9      	STD  Y+9,R30
0013cd 87fa      	STD  Y+9+1,R31
         ;    2353         //Xd3 = 31;
         ;    2354         //Yd3 = 23;
         ;    2355            
         ;    2356         //Stel display in
         ;    2357         S1D13705_Clear_LCD();                                           //Wis LCD scherm
0013ce 940e 0db4 	CALL _S1D13705_Clear_LCD
         ;    2358         
         ;    2359         //Teken kruis meet Punt1
         ;    2360         //S1D13705_Draw_Horizontal_Line(283,291,119,0);                 //Instellen als X(begin), X1(eind), Y, kleur
         ;    2361         //S1D13705_Draw_Vertical_Line(287,115,123,0);                   //Instellen als X, Y(begin), Y1(eind), kleur
         ;    2362         S1D13705_Draw_Horizontal_Line(27,35,215,0);                     //Instellen als X(begin), X1(eind), Y, kleur
0013d0 940e 1b83 	CALL SUBOPT_0x3B
0013d2 940e 1962 	CALL SUBOPT_0x6
         ;    2363         S1D13705_Draw_Vertical_Line(31,211,219,0);                      //Instellen als X, Y(begin), Y1(eind), kleur     
0013d4 940e 1b94 	CALL SUBOPT_0x3C
0013d6 940e 1da4 	CALL __PUTPARD1
0013d8 940e 1968 	CALL SUBOPT_0x7
         ;    2364                  
         ;    2365         do
          _0x177:
         ;    2366         {
         ;    2367                 //Wacht totdat op het touchscreen is gedrukt
         ;    2368                 while((Touchscreen.Flag_Register & (1<<TouchPressed)) == 0);     //Als uitkomst 0 is dan is er nog niet gedrukt 
          _0x179:
0013da 91e0 042e 	LDS  R30,_Touchscreen
0013dc 70e1      	ANDI R30,LOW(0x1)
0013dd f3e1      	BREQ _0x179
         ;    2369                 
         ;    2370                 //Check of de touchscreen nog is ingedrukt dan pas meten
         ;    2371                 if((i=Touchscreen_Pressed()) == 1)                      //Als waarde 1 is dan is touchscreen nog ingedrukt ga meten
0013de 940e 1b3c 	CALL SUBOPT_0x35
0013e0 f449      	BRNE _0x17C
         ;    2372                 {        
         ;    2373                         Xt1 = Touchscreen_Value(X);                     //Meet de X waarde
0013e1 940e 1ba5 	CALL SUBOPT_0x3D
0013e3   +  	__PUTW1R 16,17
         ;    2374                         Yt1 = Touchscreen_Value(Y);                     //Meet de Y waarde
0013e5 940e 1ba9 	CALL SUBOPT_0x3E
0013e7 8fe9      	STD  Y+25,R30
0013e8 8ffa      	STD  Y+25+1,R31
         ;    2375                 }
         ;    2376                 else
0013e9 c005      	RJMP _0x17D
          _0x17C:
         ;    2377                 {
         ;    2378                         Xt1 = 0;
0013ea   +  	__GETWRN 16,17,0
         ;    2379                         Yt1 = 0;
0013ec e0e0      	LDI  R30,0
0013ed 8fe9      	STD  Y+25,R30
0013ee 8fea      	STD  Y+25+1,R30
         ;    2380                 }
          _0x17D:
         ;    2381                 
         ;    2382                 
         ;    2383                 //Zet touchscreen standby voor nieuwe drukmeting
         ;    2384                 Touch_Standby;
0013ef 98c1      	CBI  0x18,1
0013f0 9ac2      	SBI  0x18,2
0013f1 e0e1      	LDI  R30,LOW(1)
0013f2 2fae      	MOV  R26,R30
0013f3 98c3      	CBI  0x18,3
0013f4 940e 1b2a 	CALL SUBOPT_0x32
0013f6 98c4      	CBI  0x18,4
0013f7 940e 1b2e 	CALL SUBOPT_0x33
         ;    2385         
         ;    2386                 //Zet TouchPressed flag op 0
         ;    2387                 Touchscreen.Flag_Register &= ~(1<<TouchPressed);
         ;    2388                 
         ;    2389                 //Wacht totdat touchscreen wordt los gelaten
         ;    2390                 delay_ms(10);
0013f9 940e 1b36 	CALL SUBOPT_0x34
         ;    2391                 while(TouchPress == 0);
          _0x17E:
0013fb 9b82      	SBIS 0x10,2
0013fc cffe      	RJMP _0x17E
         ;    2392 
         ;    2393                 GIFR |= (1<<INT0);                                      //Erase bit so that no interupt is generated 
0013fd 940e 194f 	CALL SUBOPT_0x3
         ;    2394                 GICR |= (1<<INT0);                                      //Enable the INT0 request
         ;    2395 
         ;    2396         }
         ;    2397         while(Xt1 == 0 || Yt1 == 0);                                    //Als Xt1 of Yt1 0 is dan is een error bij meten dan nog een keer
0013ff 2400      	CLR  R0
001400 1600      	CP   R0,R16
001401 0601      	CPC  R0,R17
001402 f029      	BREQ _0x181
001403 8da9      	LDD  R26,Y+25
001404 8dba      	LDD  R27,Y+25+1
001405 940e 1f42 	CALL __CPW02
001407 f409      	BRNE _0x178
          _0x181:
001408 cfd1      	RJMP _0x177
          _0x178:
         ;    2398                 
         ;    2399         //Meten punt 1 klaar
         ;    2400         //Wis kruis meetpunt 1
         ;    2401         //S1D13705_Draw_Horizontal_Line(283,291,119,15);                //Stuur kleur wit om de pixels te wissen       
         ;    2402         //S1D13705_Draw_Vertical_Line(287,115,123,15);                                                    
         ;    2403         S1D13705_Draw_Horizontal_Line(27,35,215,15);                    //Stuur kleur wit om de pixels te wissen         
001409 940e 1b83 	CALL SUBOPT_0x3B
00140b 940e 196c 	CALL SUBOPT_0x8
00140d 940e 0d10 	CALL _S1D13705_Draw_Horizontal_Line
         ;    2404         S1D13705_Draw_Vertical_Line(31,211,219,15);                                         
00140f 940e 1b94 	CALL SUBOPT_0x3C
001411 940e 196c 	CALL SUBOPT_0x8
001413 940e 0d6a 	CALL _S1D13705_Draw_Vertical_Line
         ;    2405         
         ;    2406         //Teken kruis meet punt 2 
         ;    2407         S1D13705_Draw_Horizontal_Line(155,163,23,0);                    //Instellen als X(begin), X1(eind), Y, kleur
001415 940e 1bad 	CALL SUBOPT_0x3F
001417 940e 1962 	CALL SUBOPT_0x6
         ;    2408         S1D13705_Draw_Vertical_Line(159,19,27,0);                       //Instellen als X, Y(begin), Y1(eind), kleur  
001419 940e 1bbe 	CALL SUBOPT_0x40
00141b 940e 1da4 	CALL __PUTPARD1
00141d 940e 1968 	CALL SUBOPT_0x7
         ;    2409         
         ;    2410         do
          _0x184:
         ;    2411         {
         ;    2412                 //Wacht totdat op het touchscreen is gedrukt
         ;    2413                 while((Touchscreen.Flag_Register & (1<<TouchPressed)) == 0);         //Als uitkomst 0 is dan is er nog niet gedrukt 
          _0x186:
00141f 91e0 042e 	LDS  R30,_Touchscreen
001421 70e1      	ANDI R30,LOW(0x1)
001422 f3e1      	BREQ _0x186
         ;    2414 
         ;    2415                 //Check of de touchscreen nog is ingedrukt dan pas meten
         ;    2416                 if((i=Touchscreen_Pressed()) == 1)                      //Als waarde 1 is dan is touchscreen nog ingedrukt ga meten
001423 940e 1b3c 	CALL SUBOPT_0x35
001425 f449      	BRNE _0x189
         ;    2417                 {        
         ;    2418                         Xt2 = Touchscreen_Value(X);                     //Meet de X waarde
001426 940e 1ba5 	CALL SUBOPT_0x3D
001428   +  	__PUTW1R 18,19
         ;    2419                         Yt2 = Touchscreen_Value(Y);                     //Meet de Y waarde
00142a 940e 1ba9 	CALL SUBOPT_0x3E
00142c 8bef      	STD  Y+23,R30
00142d 8ff8      	STD  Y+23+1,R31
         ;    2420                 }
         ;    2421                 else
00142e c005      	RJMP _0x18A
          _0x189:
         ;    2422                 {
         ;    2423                         Xt2 = 0;
00142f   +  	__GETWRN 18,19,0
         ;    2424                         Yt2 = 0;
001431 e0e0      	LDI  R30,0
001432 8bef      	STD  Y+23,R30
001433 8fe8      	STD  Y+23+1,R30
         ;    2425                 }
          _0x18A:
         ;    2426                 
         ;    2427                 //Zet touchscreen standby voor nieuwe drukmeting
         ;    2428                 Touch_Standby;
001434 98c1      	CBI  0x18,1
001435 9ac2      	SBI  0x18,2
001436 e0e1      	LDI  R30,LOW(1)
001437 2fae      	MOV  R26,R30
001438 98c3      	CBI  0x18,3
001439 940e 1b2a 	CALL SUBOPT_0x32
00143b 98c4      	CBI  0x18,4
00143c 940e 1b2e 	CALL SUBOPT_0x33
         ;    2429 
         ;    2430 
         ;    2431                 //Zet TouchPressed flag op 0
         ;    2432                 Touchscreen.Flag_Register &= ~(1<<TouchPressed);
         ;    2433                 
         ;    2434                 //Wacht totdat touchscreen wordt los gelaten
         ;    2435                 delay_ms(10);
00143e 940e 1b36 	CALL SUBOPT_0x34
         ;    2436                 while(TouchPress == 0);
          _0x18B:
001440 9b82      	SBIS 0x10,2
001441 cffe      	RJMP _0x18B
         ;    2437 
         ;    2438                 GIFR |= (1<<INT0);                                      //Erase bit so that no interupt is generated 
001442 940e 194f 	CALL SUBOPT_0x3
         ;    2439                 GICR |= (1<<INT0);                                      //Enable the INT0 request
         ;    2440 
         ;    2441         }
         ;    2442         while(Xt2 == 0 || Yt2 == 0);                                    //Als Xt1 of Yt1 0 is dan is een error bij meten dan nog een keer
001444 2400      	CLR  R0
001445 1602      	CP   R0,R18
001446 0603      	CPC  R0,R19
001447 f029      	BREQ _0x18E
001448 89af      	LDD  R26,Y+23
001449 8db8      	LDD  R27,Y+23+1
00144a 940e 1f42 	CALL __CPW02
00144c f409      	BRNE _0x185
          _0x18E:
00144d cfd1      	RJMP _0x184
          _0x185:
         ;    2443         
         ;    2444         //Meten punt 2 klaar
         ;    2445         //Wis kruis meetpunt 2   
         ;    2446         S1D13705_Draw_Horizontal_Line(155,163,23,15);                   //Stuur kleur wit om de pixels te wissen
00144e 940e 1bad 	CALL SUBOPT_0x3F
001450 940e 196c 	CALL SUBOPT_0x8
001452 940e 0d10 	CALL _S1D13705_Draw_Horizontal_Line
         ;    2447         S1D13705_Draw_Vertical_Line(159,19,27,15);   
001454 940e 1bbe 	CALL SUBOPT_0x40
001456 940e 196c 	CALL SUBOPT_0x8
001458 940e 0d6a 	CALL _S1D13705_Draw_Vertical_Line
         ;    2448         
         ;    2449         //Teken kruis meet punt 3
         ;    2450         //S1D13705_Draw_Horizontal_Line(27,35,215,0);                   //Instellen als X(begin), X1(eind), Y, kleur
         ;    2451         //S1D13705_Draw_Vertical_Line(31,211,219,0);                    //Instellen als X, Y(begin), Y1(eind), kleur     
         ;    2452         S1D13705_Draw_Horizontal_Line(283,291,119,0);                   //Instellen als X(begin), X1(eind), Y, kleur
00145a 940e 1bcf 	CALL SUBOPT_0x41
00145c 940e 1962 	CALL SUBOPT_0x6
         ;    2453         S1D13705_Draw_Vertical_Line(287,115,123,0);                     //Instellen als X, Y(begin), Y1(eind), kleur
00145e 940e 1be0 	CALL SUBOPT_0x42
001460 940e 1da4 	CALL __PUTPARD1
001462 940e 1968 	CALL SUBOPT_0x7
         ;    2454                
         ;    2455         do
          _0x191:
         ;    2456         {
         ;    2457                 //Wacht totdat op het touchscreen is gedrukt
         ;    2458                 while((Touchscreen.Flag_Register & (1<<TouchPressed)) == 0);         //Als uitkomst 0 is dan is er nog niet gedrukt 
          _0x193:
001464 91e0 042e 	LDS  R30,_Touchscreen
001466 70e1      	ANDI R30,LOW(0x1)
001467 f3e1      	BREQ _0x193
         ;    2459 
         ;    2460                 //Check of de touchscreen nog is ingedrukt dan pas meten
         ;    2461                 if((i=Touchscreen_Pressed()) == 1)                      //Als waarde 1 is dan is touchscreen nog ingedrukt ga meten
001468 940e 1b3c 	CALL SUBOPT_0x35
00146a f449      	BRNE _0x196
         ;    2462                 {        
         ;    2463                         Xt3 = Touchscreen_Value(X);                     //Meet de X waarde
00146b 940e 1ba5 	CALL SUBOPT_0x3D
00146d   +  	__PUTW1R 20,21
         ;    2464                         Yt3 = Touchscreen_Value(Y);                     //Meet de Y waarde
00146f 940e 1ba9 	CALL SUBOPT_0x3E
001471 8bed      	STD  Y+21,R30
001472 8bfe      	STD  Y+21+1,R31
         ;    2465                 }
         ;    2466                 else
001473 c005      	RJMP _0x197
          _0x196:
         ;    2467                 {
         ;    2468                         Xt3 = 0;
001474   +  	__GETWRN 20,21,0
         ;    2469                         Yt3 = 0;
001476 e0e0      	LDI  R30,0
001477 8bed      	STD  Y+21,R30
001478 8bee      	STD  Y+21+1,R30
         ;    2470                 } 
          _0x197:
         ;    2471                 
         ;    2472                 //Zet touchscreen standby voor nieuwe drukmeting
         ;    2473                 Touch_Standby;
001479 98c1      	CBI  0x18,1
00147a 9ac2      	SBI  0x18,2
00147b e0e1      	LDI  R30,LOW(1)
00147c 2fae      	MOV  R26,R30
00147d 98c3      	CBI  0x18,3
00147e 940e 1b2a 	CALL SUBOPT_0x32
001480 98c4      	CBI  0x18,4
001481 940e 1b2e 	CALL SUBOPT_0x33
         ;    2474 
         ;    2475                 //Zet TouchPressed flag op 0
         ;    2476                 Touchscreen.Flag_Register &= ~(1<<TouchPressed);
         ;    2477                 
         ;    2478                 //Wacht totdat touchscreen wordt los gelaten
         ;    2479                 delay_ms(10);
001483 940e 1b36 	CALL SUBOPT_0x34
         ;    2480                 while(TouchPress == 0);
          _0x198:
001485 9b82      	SBIS 0x10,2
001486 cffe      	RJMP _0x198
         ;    2481         
         ;    2482                 GIFR |= (1<<INT0);                                      //Erase bit so that no interupt is generated 
001487 940e 194f 	CALL SUBOPT_0x3
         ;    2483                 GICR |= (1<<INT0);                                      //Enable the INT0 request
         ;    2484                 
         ;    2485         }
         ;    2486         while(Xt3 == 0 || Yt3 == 0);                                    //Als Xt1 of Yt1 0 is dan is een error bij meten dan nog een keer
001489 2400      	CLR  R0
00148a 1604      	CP   R0,R20
00148b 0605      	CPC  R0,R21
00148c f029      	BREQ _0x19B
00148d 89ad      	LDD  R26,Y+21
00148e 89be      	LDD  R27,Y+21+1
00148f 940e 1f42 	CALL __CPW02
001491 f409      	BRNE _0x192
          _0x19B:
001492 cfd1      	RJMP _0x191
          _0x192:
         ;    2487          
         ;    2488         
         ;    2489         
         ;    2490         //Bereken de calibratie coeffenties
         ;    2491         A = ((((float)Xd1 - (float)Xd3) * ((float)Yt2 - (float)Yt3)) - (((float)Xd2 - (float)Xd3) * ((float)Yt1 - (float)Yt3))) / ((((float)Xt1 -(float) Xt3) * ((float)Yt2 - (float)Yt3)) - (((float)Xt2 - (float)Xt3) * ((float)Yt1 - (float)Yt3)));
001493 89eb      	LDD  R30,Y+19
001494 89fc      	LDD  R31,Y+19+1
001495 940e 1bf1 	CALL SUBOPT_0x43
001497 937f      	PUSH R23
001498 936f      	PUSH R22
001499 93ff      	PUSH R31
00149a 93ef      	PUSH R30
00149b 940e 1c02 	CALL SUBOPT_0x44
00149d 91af      	POP  R26
00149e 91bf      	POP  R27
00149f 918f      	POP  R24
0014a0 919f      	POP  R25
0014a1 940e 1ecf 	CALL __MULF12
0014a3 937f      	PUSH R23
0014a4 936f      	PUSH R22
0014a5 93ff      	PUSH R31
0014a6 93ef      	PUSH R30
0014a7 89e9      	LDD  R30,Y+17
0014a8 89fa      	LDD  R31,Y+17+1
0014a9 940e 1bf1 	CALL SUBOPT_0x43
0014ab 937f      	PUSH R23
0014ac 936f      	PUSH R22
0014ad 93ff      	PUSH R31
0014ae 93ef      	PUSH R30
0014af 940e 1c15 	CALL SUBOPT_0x45
0014b1 91af      	POP  R26
0014b2 91bf      	POP  R27
0014b3 918f      	POP  R24
0014b4 919f      	POP  R25
0014b5 940e 1ecf 	CALL __MULF12
0014b7 91af      	POP  R26
0014b8 91bf      	POP  R27
0014b9 918f      	POP  R24
0014ba 919f      	POP  R25
0014bb 940e 1da9 	CALL __SWAPD12
0014bd 940e 1e7a 	CALL __SUBF12
0014bf 937f      	PUSH R23
0014c0 936f      	PUSH R22
0014c1 93ff      	PUSH R31
0014c2 93ef      	PUSH R30
0014c3 940e 1c28 	CALL SUBOPT_0x46
0014c5 937f      	PUSH R23
0014c6 936f      	PUSH R22
0014c7 93ff      	PUSH R31
0014c8 93ef      	PUSH R30
0014c9 940e 1c02 	CALL SUBOPT_0x44
0014cb 91af      	POP  R26
0014cc 91bf      	POP  R27
0014cd 918f      	POP  R24
0014ce 919f      	POP  R25
0014cf 940e 1ecf 	CALL __MULF12
0014d1 937f      	PUSH R23
0014d2 936f      	PUSH R22
0014d3 93ff      	PUSH R31
0014d4 93ef      	PUSH R30
0014d5 940e 1c3b 	CALL SUBOPT_0x47
0014d7 937f      	PUSH R23
0014d8 936f      	PUSH R22
0014d9 93ff      	PUSH R31
0014da 93ef      	PUSH R30
0014db 940e 1c15 	CALL SUBOPT_0x45
0014dd 91af      	POP  R26
0014de 91bf      	POP  R27
0014df 918f      	POP  R24
0014e0 919f      	POP  R25
0014e1 940e 1ecf 	CALL __MULF12
0014e3 91af      	POP  R26
0014e4 91bf      	POP  R27
0014e5 918f      	POP  R24
0014e6 919f      	POP  R25
0014e7 940e 1da9 	CALL __SWAPD12
0014e9 940e 1e7a 	CALL __SUBF12
0014eb 91af      	POP  R26
0014ec 91bf      	POP  R27
0014ed 918f      	POP  R24
0014ee 919f      	POP  R25
0014ef 940e 1f01 	CALL __DIVF21
0014f1 93e0 04c9 	STS  _A_G7,R30
0014f3 93f0 04ca 	STS  _A_G7+1,R31
0014f5 9360 04cb 	STS  _A_G7+2,R22
0014f7 9370 04cc 	STS  _A_G7+3,R23
         ;    2492         B = ( (A * ((float)Xt3 - (float)Xt2)) + (float)Xd2 - (float)Xd3) / ((float)Yt2 - (float)Yt3);
0014f9 940e 1c4e 	CALL SUBOPT_0x48
0014fb 91a0 04c9 	LDS  R26,_A_G7
0014fd 91b0 04ca 	LDS  R27,_A_G7+1
0014ff 9180 04cb 	LDS  R24,_A_G7+2
001501 9190 04cc 	LDS  R25,_A_G7+3
001503 940e 1ecf 	CALL __MULF12
001505 01df      	MOVW R26,R30
001506 01cb      	MOVW R24,R22
001507 89e9      	LDD  R30,Y+17
001508 89fa      	LDD  R31,Y+17+1
001509 940e 1c61 	CALL SUBOPT_0x49
00150b 85ef      	LDD  R30,Y+15
00150c 89f8      	LDD  R31,Y+15+1
00150d 940e 1c6a 	CALL SUBOPT_0x4A
00150f 937f      	PUSH R23
001510 936f      	PUSH R22
001511 93ff      	PUSH R31
001512 93ef      	PUSH R30
001513 940e 1c02 	CALL SUBOPT_0x44
001515 91af      	POP  R26
001516 91bf      	POP  R27
001517 918f      	POP  R24
001518 919f      	POP  R25
001519 940e 1f01 	CALL __DIVF21
00151b 93e0 04cd 	STS  _B_G7,R30
00151d 93f0 04ce 	STS  _B_G7+1,R31
00151f 9360 04cf 	STS  _B_G7+2,R22
001521 9370 04d0 	STS  _B_G7+3,R23
         ;    2493         C = (float)Xd3 - (A * (float)Xt3) - (B * (float)Yt3);  
001523 85ef      	LDD  R30,Y+15
001524 89f8      	LDD  R31,Y+15+1
001525 2766      	CLR  R22
001526 2777      	CLR  R23
001527 940e 1e43 	CALL __CDF1
001529 937f      	PUSH R23
00152a 936f      	PUSH R22
00152b 93ff      	PUSH R31
00152c 93ef      	PUSH R30
00152d   +  	__GETW1R 20,21
00152f 940e 1b47 	CALL SUBOPT_0x37
001531 91af      	POP  R26
001532 91bf      	POP  R27
001533 918f      	POP  R24
001534 919f      	POP  R25
001535 940e 1da9 	CALL __SWAPD12
001537 940e 1e7a 	CALL __SUBF12
001539 937f      	PUSH R23
00153a 936f      	PUSH R22
00153b 93ff      	PUSH R31
00153c 93ef      	PUSH R30
00153d 89ed      	LDD  R30,Y+21
00153e 89fe      	LDD  R31,Y+21+1
00153f 940e 1b56 	CALL SUBOPT_0x38
001541 91af      	POP  R26
001542 91bf      	POP  R27
001543 918f      	POP  R24
001544 919f      	POP  R25
001545 940e 1da9 	CALL __SWAPD12
001547 940e 1e7a 	CALL __SUBF12
001549 93e0 04d1 	STS  _C_G7,R30
00154b 93f0 04d2 	STS  _C_G7+1,R31
00154d 9360 04d3 	STS  _C_G7+2,R22
00154f 9370 04d4 	STS  _C_G7+3,R23
         ;    2494         D = ((((float)Yd1 - (float)Yd3) * ((float)Yt2 - (float)Yt3)) - (((float)Yd2 - (float)Yd3) * ((float)Yt1 - (float)Yt3))) / ((((float)Xt1 - (float)Xt3) * ((float)Yt2 - (float)Yt3)) - (((float)Xt2 - (float)Xt3) * ((float)Yt1 - (float)Yt3)));
001551 85ed      	LDD  R30,Y+13
001552 85fe      	LDD  R31,Y+13+1
001553 940e 1c73 	CALL SUBOPT_0x4B
001555 937f      	PUSH R23
001556 936f      	PUSH R22
001557 93ff      	PUSH R31
001558 93ef      	PUSH R30
001559 940e 1c02 	CALL SUBOPT_0x44
00155b 91af      	POP  R26
00155c 91bf      	POP  R27
00155d 918f      	POP  R24
00155e 919f      	POP  R25
00155f 940e 1ecf 	CALL __MULF12
001561 937f      	PUSH R23
001562 936f      	PUSH R22
001563 93ff      	PUSH R31
001564 93ef      	PUSH R30
001565 85eb      	LDD  R30,Y+11
001566 85fc      	LDD  R31,Y+11+1
001567 940e 1c73 	CALL SUBOPT_0x4B
001569 937f      	PUSH R23
00156a 936f      	PUSH R22
00156b 93ff      	PUSH R31
00156c 93ef      	PUSH R30
00156d 940e 1c15 	CALL SUBOPT_0x45
00156f 91af      	POP  R26
001570 91bf      	POP  R27
001571 918f      	POP  R24
001572 919f      	POP  R25
001573 940e 1ecf 	CALL __MULF12
001575 91af      	POP  R26
001576 91bf      	POP  R27
001577 918f      	POP  R24
001578 919f      	POP  R25
001579 940e 1da9 	CALL __SWAPD12
00157b 940e 1e7a 	CALL __SUBF12
00157d 937f      	PUSH R23
00157e 936f      	PUSH R22
00157f 93ff      	PUSH R31
001580 93ef      	PUSH R30
001581 940e 1c28 	CALL SUBOPT_0x46
001583 937f      	PUSH R23
001584 936f      	PUSH R22
001585 93ff      	PUSH R31
001586 93ef      	PUSH R30
001587 940e 1c02 	CALL SUBOPT_0x44
001589 91af      	POP  R26
00158a 91bf      	POP  R27
00158b 918f      	POP  R24
00158c 919f      	POP  R25
00158d 940e 1ecf 	CALL __MULF12
00158f 937f      	PUSH R23
001590 936f      	PUSH R22
001591 93ff      	PUSH R31
001592 93ef      	PUSH R30
001593 940e 1c3b 	CALL SUBOPT_0x47
001595 937f      	PUSH R23
001596 936f      	PUSH R22
001597 93ff      	PUSH R31
001598 93ef      	PUSH R30
001599 940e 1c15 	CALL SUBOPT_0x45
00159b 91af      	POP  R26
00159c 91bf      	POP  R27
00159d 918f      	POP  R24
00159e 919f      	POP  R25
00159f 940e 1ecf 	CALL __MULF12
0015a1 91af      	POP  R26
0015a2 91bf      	POP  R27
0015a3 918f      	POP  R24
0015a4 919f      	POP  R25
0015a5 940e 1da9 	CALL __SWAPD12
0015a7 940e 1e7a 	CALL __SUBF12
0015a9 91af      	POP  R26
0015aa 91bf      	POP  R27
0015ab 918f      	POP  R24
0015ac 919f      	POP  R25
0015ad 940e 1f01 	CALL __DIVF21
0015af 93e0 04d5 	STS  _D_G7,R30
0015b1 93f0 04d6 	STS  _D_G7+1,R31
0015b3 9360 04d7 	STS  _D_G7+2,R22
0015b5 9370 04d8 	STS  _D_G7+3,R23
         ;    2495         E = ((D * ((float)Xt3 - (float)Xt2)) + (float)Yd2 - (float)Yd3) / ((float)Yt2 - (float)Yt3);
0015b7 940e 1c4e 	CALL SUBOPT_0x48
0015b9 91a0 04d5 	LDS  R26,_D_G7
0015bb 91b0 04d6 	LDS  R27,_D_G7+1
0015bd 9180 04d7 	LDS  R24,_D_G7+2
0015bf 9190 04d8 	LDS  R25,_D_G7+3
0015c1 940e 1ecf 	CALL __MULF12
0015c3 01df      	MOVW R26,R30
0015c4 01cb      	MOVW R24,R22
0015c5 85eb      	LDD  R30,Y+11
0015c6 85fc      	LDD  R31,Y+11+1
0015c7 940e 1c61 	CALL SUBOPT_0x49
0015c9 85e9      	LDD  R30,Y+9
0015ca 85fa      	LDD  R31,Y+9+1
0015cb 940e 1c6a 	CALL SUBOPT_0x4A
0015cd 937f      	PUSH R23
0015ce 936f      	PUSH R22
0015cf 93ff      	PUSH R31
0015d0 93ef      	PUSH R30
0015d1 940e 1c02 	CALL SUBOPT_0x44
0015d3 91af      	POP  R26
0015d4 91bf      	POP  R27
0015d5 918f      	POP  R24
0015d6 919f      	POP  R25
0015d7 940e 1f01 	CALL __DIVF21
0015d9 93e0 04d9 	STS  _E_G7,R30
0015db 93f0 04da 	STS  _E_G7+1,R31
0015dd 9360 04db 	STS  _E_G7+2,R22
0015df 9370 04dc 	STS  _E_G7+3,R23
         ;    2496         F = (float)Yd3 - (D * (float)Xt3) - (E * (float)Yt3);
0015e1 85e9      	LDD  R30,Y+9
0015e2 85fa      	LDD  R31,Y+9+1
0015e3 2766      	CLR  R22
0015e4 2777      	CLR  R23
0015e5 940e 1e43 	CALL __CDF1
0015e7 937f      	PUSH R23
0015e8 936f      	PUSH R22
0015e9 93ff      	PUSH R31
0015ea 93ef      	PUSH R30
0015eb   +  	__GETW1R 20,21
0015ed 940e 1b65 	CALL SUBOPT_0x39
0015ef 91af      	POP  R26
0015f0 91bf      	POP  R27
0015f1 918f      	POP  R24
0015f2 919f      	POP  R25
0015f3 940e 1da9 	CALL __SWAPD12
0015f5 940e 1e7a 	CALL __SUBF12
0015f7 937f      	PUSH R23
0015f8 936f      	PUSH R22
0015f9 93ff      	PUSH R31
0015fa 93ef      	PUSH R30
0015fb 89ed      	LDD  R30,Y+21
0015fc 89fe      	LDD  R31,Y+21+1
0015fd 940e 1b74 	CALL SUBOPT_0x3A
0015ff 91af      	POP  R26
001600 91bf      	POP  R27
001601 918f      	POP  R24
001602 919f      	POP  R25
001603 940e 1da9 	CALL __SWAPD12
001605 940e 1e7a 	CALL __SUBF12
001607 93e0 04dd 	STS  _F_G7,R30
001609 93f0 04de 	STS  _F_G7+1,R31
00160b 9360 04df 	STS  _F_G7+2,R22
00160d 9370 04e0 	STS  _F_G7+3,R23
         ;    2497        
         ;    2498         
         ;    2499         //Sla waardes op in de EEPROM
         ;    2500         ee_float1 = A;
00160f 91e0 04c9 	LDS  R30,_A_G7
001611 91f0 04ca 	LDS  R31,_A_G7+1
001613 9160 04cb 	LDS  R22,_A_G7+2
001615 9170 04cc 	LDS  R23,_A_G7+3
001617 e0a1      	LDI  R26,LOW(_ee_float1)
001618 e0b0      	LDI  R27,HIGH(_ee_float1)
001619 940e 1dcb 	CALL __EEPROMWRD
         ;    2501         ee_float2 = B;
00161b 91e0 04cd 	LDS  R30,_B_G7
00161d 91f0 04ce 	LDS  R31,_B_G7+1
00161f 9160 04cf 	LDS  R22,_B_G7+2
001621 9170 04d0 	LDS  R23,_B_G7+3
001623 e0a5      	LDI  R26,LOW(_ee_float2)
001624 e0b0      	LDI  R27,HIGH(_ee_float2)
001625 940e 1dcb 	CALL __EEPROMWRD
         ;    2502         ee_float3 = C;
001627 91e0 04d1 	LDS  R30,_C_G7
001629 91f0 04d2 	LDS  R31,_C_G7+1
00162b 9160 04d3 	LDS  R22,_C_G7+2
00162d 9170 04d4 	LDS  R23,_C_G7+3
00162f e0a9      	LDI  R26,LOW(_ee_float3)
001630 e0b0      	LDI  R27,HIGH(_ee_float3)
001631 940e 1dcb 	CALL __EEPROMWRD
         ;    2503         ee_float4 = D;
001633 91e0 04d5 	LDS  R30,_D_G7
001635 91f0 04d6 	LDS  R31,_D_G7+1
001637 9160 04d7 	LDS  R22,_D_G7+2
001639 9170 04d8 	LDS  R23,_D_G7+3
00163b e0ad      	LDI  R26,LOW(_ee_float4)
00163c e0b0      	LDI  R27,HIGH(_ee_float4)
00163d 940e 1dcb 	CALL __EEPROMWRD
         ;    2504         ee_float5 = E;
00163f 91e0 04d9 	LDS  R30,_E_G7
001641 91f0 04da 	LDS  R31,_E_G7+1
001643 9160 04db 	LDS  R22,_E_G7+2
001645 9170 04dc 	LDS  R23,_E_G7+3
001647 e1a1      	LDI  R26,LOW(_ee_float5)
001648 e0b0      	LDI  R27,HIGH(_ee_float5)
001649 940e 1dcb 	CALL __EEPROMWRD
         ;    2505         ee_float6 = F;
00164b 91e0 04dd 	LDS  R30,_F_G7
00164d 91f0 04de 	LDS  R31,_F_G7+1
00164f 9160 04df 	LDS  R22,_F_G7+2
001651 9170 04e0 	LDS  R23,_F_G7+3
001653 e1a5      	LDI  R26,LOW(_ee_float6)
001654 e0b0      	LDI  R27,HIGH(_ee_float6)
001655 940e 1dcb 	CALL __EEPROMWRD
         ;    2506 
         ;    2507         //Meten punt 3 klaar
         ;    2508         //Wis kruis meetpunt 3
         ;    2509         //S1D13705_Draw_Horizontal_Line(27,35,215,15);                  //Stuur kleur wit om de pixels te wissen         
         ;    2510         //S1D13705_Draw_Vertical_Line(31,211,219,15);                                                       
         ;    2511         S1D13705_Draw_Horizontal_Line(283,291,119,15);                  //Stuur kleur wit om de pixels te wissen       
001657 940e 1bcf 	CALL SUBOPT_0x41
001659 940e 196c 	CALL SUBOPT_0x8
00165b 940e 0d10 	CALL _S1D13705_Draw_Horizontal_Line
         ;    2512         S1D13705_Draw_Vertical_Line(287,115,123,15);                                                    
00165d 940e 1be0 	CALL SUBOPT_0x42
00165f 940e 196c 	CALL SUBOPT_0x8
001661 940e 0d6a 	CALL _S1D13705_Draw_Vertical_Line
         ;    2513 
         ;    2514         //Zet Flag in register dat calibratie is gedaan en wis calprocces
         ;    2515         Touchscreen.Flag_Register &= ~(1<<TouchCalProcess);             //Wis de TouchCalProcess bit      
001663 91e0 042e 	LDS  R30,_Touchscreen
001665 7feb      	ANDI R30,0xFB
001666 93e0 042e 	STS  _Touchscreen,R30
         ;    2516         Touchscreen.Flag_Register &= ~(1<<TouchPressed);                //Wis de TouchPressed bit
001668 940e 1b41 	CALL SUBOPT_0x36
         ;    2517         Touchscreen.Flag_Register |= (1<<TouchCalibratie);              
00166a 91e0 042e 	LDS  R30,_Touchscreen
00166c 60e2      	ORI  R30,2
00166d 93e0 042e 	STS  _Touchscreen,R30
         ;    2518         ee_Touch_Flag = Touchscreen.Flag_Register;                      //Sla Flag register op in eeprom
00166f e0a0      	LDI  R26,LOW(_ee_Touch_Flag)
001670 e0b0      	LDI  R27,HIGH(_ee_Touch_Flag)
001671 940e 1dde 	CALL __EEPROMWRB
         ;    2519 
         ;    2520         return;
001673 940e 1f57 	CALL __LOADLOCR6
001675 966b      	ADIW R28,27
001676 9508      	RET
         ;    2521 }                                         
         ;    2522 //*************************************
         ;    2523 /**************************************
         ;    2524           ADC LTC 1298 driver
         ;    2525 **************************************/
         ;    2526 #include "lcd_test_defs.h"             
         ;    2527 #include "adc_ltc1298.h"
         ;    2528 
         ;    2529 /**************************************
         ;    2530 Function: ADC On 
         ;    2531 **************************************/
         ;    2532 void ADC_LTC1298_On(void)
         ;    2533 {                                                
          _ADC_LTC1298_On:
         ;    2534         //SPI clock 125Khz
         ;    2535         //SPI_CLK_125K;  
         ;    2536         
         ;    2537         //Zet ADC actief
         ;    2538         ADC_LTC1298_Power_On;
001677 983a      	CBI  0x7,2
         ;    2539         
         ;    2540         return;
001678 9508      	RET
         ;    2541 }
         ;    2542 //*************************************
         ;    2543 
         ;    2544 /**************************************
         ;    2545 Function: ADC off
         ;    2546 **************************************/
         ;    2547 void ADC_LTC1298_Off(void)
         ;    2548 {
          _ADC_LTC1298_Off:
         ;    2549         //Set ADC off
         ;    2550         ADC_LTC1298_Power_Off;
001679 9a3a      	SBI  0x7,2
         ;    2551         
         ;    2552         return;
00167a 9508      	RET
         ;    2553 }
         ;    2554 //*************************************
         ;    2555 
         ;    2556 /**************************************
         ;    2557 Function: ADC measure data
         ;    2558 **************************************/
         ;    2559 unsigned int ADC_LTC1298_Data(unsigned char Channel)
         ;    2560 {
          _ADC_LTC1298_Data:
         ;    2561         unsigned char LowByte;
         ;    2562         unsigned int HighByte;
         ;    2563         unsigned int test;   
         ;    2564         unsigned int test2;
         ;    2565         
         ;    2566         ADC_LTC1298_On();                                       //Set ADC active
00167b 9722      	SBIW R28,2
00167c 940e 1f51 	CALL __SAVELOCR5
         ;	Channel -> Y+7
         ;	LowByte -> R16
         ;	HighByte -> R17,R18
         ;	test -> R19,R20
         ;	test2 -> Y+5
00167e 940e 1677 	CALL _ADC_LTC1298_On
         ;    2567         SPI_ON;                                                 //Set SPI on
001680 9a6e      	SBI  0xD,6
         ;    2568         
         ;    2569         //Check wich channel must be measure
         ;    2570         if(Channel == 0)                                        //Channel 0
001681 81ef      	LDD  R30,Y+7
001682 30e0      	CPI  R30,0
001683 f411      	BRNE _0x19D
         ;    2571                 spi(ADC_LTC1298_Channel_0);                     //Zend starbit en config voor channel 0
001684 e0ed      	LDI  R30,LOW(13)
001685 c001      	RJMP _0x24E
         ;    2572         else                                                    //Channel 1
          _0x19D:
         ;    2573                 spi(ADC_LTC1298_Channel_1);                     //Zend startbit en config voor channel 1
001686 e0ef      	LDI  R30,LOW(15)
          _0x24E:
001687 93ea      	ST   -Y,R30
001688 940e 1935 	CALL _spi
         ;    2574                
         ;    2575         //Ontvang 12bit data, MSB eerst
         ;    2576         HighByte = spi(0xFF);        
00168a 940e 1c7c 	CALL SUBOPT_0x4C
00168c e0f0      	LDI  R31,0
00168d   +  	__PUTW1R 17,18
         ;    2577         LowByte = spi(0xFF);                                    //Send dummy data on the spi to create CLK    
00168f 940e 1c7c 	CALL SUBOPT_0x4C
001691 2f0e      	MOV  R16,R30
         ;    2578         
         ;    2579         ADC_LTC1298_Off();                                      //Set ADC inactive
001692 940e 1679 	CALL _ADC_LTC1298_Off
         ;    2580         SPI_OFF;                                                //Set SPI off
001694 986e      	CBI  0xD,6
         ;    2581         
         ;    2582         //Schuif HighByte naar hoge byte daarna lowbyte dan 
         ;    2583         //correctie voor 12bit waarde, 3 naar rechts schuiven
         ;    2584         return(((HighByte << 8) | LowByte) >> 3);               //Return with measure data
001695   +  	__GETW1R 17,18
001697 2ffe      	MOV  R31,R30
001698 e0e0      	LDI  R30,0
001699 01df      	MOVW R26,R30
00169a 2fe0      	MOV  R30,R16
00169b e0f0      	LDI  R31,0
00169c 2bea      	OR   R30,R26
00169d 2bfb      	OR   R31,R27
00169e 940e 1d3c 	CALL __LSRW3
0016a0 940e 1f58 	CALL __LOADLOCR5
0016a2 9628      	ADIW R28,8
0016a3 9508      	RET
         ;    2585 }
         ;    2586 //*************************************
         ;    2587 
         
          _getchar:
0016a4 9b5f           sbis usr,rxc
0016a5 cffe           rjmp _getchar
0016a6 b1ec           in   r30,udr
0016a7 9508      	RET
          _putchar:
0016a8 9b5d           sbis usr,udre
0016a9 cffe           rjmp _putchar
0016aa 81e8           ld   r30,y
0016ab b9ec           out  udr,r30
0016ac 9621      	ADIW R28,1
0016ad 9508      	RET
          __put_G9:
          	put:
0016ae 81a8      	LD   R26,Y
0016af 81b9      	LDD  R27,Y+1
0016b0 940e 1d99 	CALL __GETW1P
0016b2 9730      	SBIW R30,0
0016b3 f031      	BREQ _0x19F
0016b4 940e 1c7f 	CALL SUBOPT_0x4D
0016b6 9731      	SBIW R30,1
0016b7 81aa      	LDD  R26,Y+2
0016b8 83a0      	STD  Z+0,R26
0016b9 c004      	RJMP _0x1A0
          _0x19F:
0016ba 81ea      	LDD  R30,Y+2
0016bb 93ea      	ST   -Y,R30
0016bc 940e 16a8 	CALL _putchar
          _0x1A0:
0016be 9623      	ADIW R28,3
0016bf 9508      	RET
          __print_G9:
0016c0 9726      	SBIW R28,6
0016c1 940e 1f50 	CALL __SAVELOCR6
0016c3 e000      	LDI  R16,0
          _0x1A1:
0016c4 89e8      	LDD  R30,Y+16
0016c5 89f9      	LDD  R31,Y+16+1
0016c6 9631      	ADIW R30,1
0016c7 8be8      	STD  Y+16,R30
0016c8 8bf9      	STD  Y+16+1,R31
0016c9 9731      	SBIW R30,1
0016ca 91e4      	LPM  R30,Z
0016cb 2f3e      	MOV  R19,R30
0016cc 30e0      	CPI  R30,0
0016cd f411      	BRNE PC+3
0016ce 940c 17e7 	JMP _0x1A3
0016d0 2fe0      	MOV  R30,R16
0016d1 30e0      	CPI  R30,0
0016d2 f439      	BRNE _0x1A7
0016d3 3235      	CPI  R19,37
0016d4 f411      	BRNE _0x1A8
0016d5 e001      	LDI  R16,LOW(1)
0016d6 c002      	RJMP _0x1A9
          _0x1A8:
0016d7 940e 1c85 	CALL SUBOPT_0x4E
          _0x1A9:
0016d9 c10c      	RJMP _0x1A6
          _0x1A7:
0016da 30e1      	CPI  R30,LOW(0x1)
0016db f4b1      	BRNE _0x1AA
0016dc 3235      	CPI  R19,37
0016dd f421      	BRNE _0x1AB
0016de 940e 1c85 	CALL SUBOPT_0x4E
0016e0 e000      	LDI  R16,LOW(0)
0016e1 c104      	RJMP _0x1A6
          _0x1AB:
0016e2 e002      	LDI  R16,LOW(2)
0016e3 e050      	LDI  R21,LOW(0)
0016e4 e010      	LDI  R17,LOW(0)
0016e5 323d      	CPI  R19,45
0016e6 f411      	BRNE _0x1AC
0016e7 e011      	LDI  R17,LOW(1)
0016e8 c0fd      	RJMP _0x1A6
          _0x1AC:
0016e9 323b      	CPI  R19,43
0016ea f411      	BRNE _0x1AD
0016eb e25b      	LDI  R21,LOW(43)
0016ec c0f9      	RJMP _0x1A6
          _0x1AD:
0016ed 3230      	CPI  R19,32
0016ee f411      	BRNE _0x1AE
0016ef e250      	LDI  R21,LOW(32)
0016f0 c0f5      	RJMP _0x1A6
          _0x1AE:
0016f1 c002      	RJMP _0x1AF
          _0x1AA:
0016f2 30e2      	CPI  R30,LOW(0x2)
0016f3 f439      	BRNE _0x1B0
          _0x1AF:
0016f4 e040      	LDI  R20,LOW(0)
0016f5 e003      	LDI  R16,LOW(3)
0016f6 3330      	CPI  R19,48
0016f7 f411      	BRNE _0x1B1
0016f8 6810      	ORI  R17,LOW(128)
0016f9 c0ec      	RJMP _0x1A6
          _0x1B1:
0016fa c004      	RJMP _0x1B2
          _0x1B0:
0016fb 30e3      	CPI  R30,LOW(0x3)
0016fc f011      	BREQ PC+3
0016fd 940c 17e6 	JMP _0x1A6
          _0x1B2:
0016ff 3330      	CPI  R19,48
001700 f010      	BRLO _0x1B5
001701 333a      	CPI  R19,58
001702 f008      	BRLO _0x1B6
          _0x1B5:
001703 c006      	RJMP _0x1B4
          _0x1B6:
001704 940e 1c8c 	CALL SUBOPT_0x4F
001706 2fe3      	MOV  R30,R19
001707 53e0      	SUBI R30,LOW(48)
001708 0f4e      	ADD  R20,R30
001709 c0dc      	RJMP _0x1A6
          _0x1B4:
00170a 2fe3      	MOV  R30,R19
00170b 36e3      	CPI  R30,LOW(0x63)
00170c f431      	BRNE _0x1BA
00170d 940e 1c92 	CALL SUBOPT_0x50
00170f 91ec      	LD   R30,X
001710 940e 1c99 	CALL SUBOPT_0x51
001712 c0d2      	RJMP _0x1BB
          _0x1BA:
001713 37e3      	CPI  R30,LOW(0x73)
001714 f441      	BRNE _0x1BD
001715 940e 1c92 	CALL SUBOPT_0x50
001717 940e 1ca0 	CALL SUBOPT_0x52
001719 940e 1ce3 	CALL _strlen
00171b 2f0e      	MOV  R16,R30
00171c c00a      	RJMP _0x1BE
          _0x1BD:
00171d 37e0      	CPI  R30,LOW(0x70)
00171e f461      	BRNE _0x1C0
00171f 940e 1c92 	CALL SUBOPT_0x50
001721 940e 1ca0 	CALL SUBOPT_0x52
001723 940e 1ced 	CALL _strlenf
001725 2f0e      	MOV  R16,R30
001726 6018      	ORI  R17,LOW(8)
          _0x1BE:
001727 6012      	ORI  R17,LOW(2)
001728 771f      	ANDI R17,LOW(127)
001729 e020      	LDI  R18,LOW(0)
00172a c038      	RJMP _0x1C1
          _0x1C0:
00172b 36e4      	CPI  R30,LOW(0x64)
00172c f011      	BREQ _0x1C4
00172d 36e9      	CPI  R30,LOW(0x69)
00172e f411      	BRNE _0x1C5
          _0x1C4:
00172f 6014      	ORI  R17,LOW(4)
001730 c002      	RJMP _0x1C6
          _0x1C5:
001731 37e5      	CPI  R30,LOW(0x75)
001732 f431      	BRNE _0x1C7
          _0x1C6:
001733 e0e6      	LDI  R30,LOW(_tbl10_G9*2)
001734 e0fb      	LDI  R31,HIGH(_tbl10_G9*2)
001735 83ee      	STD  Y+6,R30
001736 83ff      	STD  Y+6+1,R31
001737 e005      	LDI  R16,LOW(5)
001738 c00d      	RJMP _0x1C8
          _0x1C7:
001739 35e8      	CPI  R30,LOW(0x58)
00173a f411      	BRNE _0x1CA
00173b 6018      	ORI  R17,LOW(8)
00173c c004      	RJMP _0x1CB
          _0x1CA:
00173d 37e8      	CPI  R30,LOW(0x78)
00173e f011      	BREQ PC+3
00173f 940c 17e5 	JMP _0x1F9
          _0x1CB:
001741 e1e0      	LDI  R30,LOW(_tbl16_G9*2)
001742 e0fb      	LDI  R31,HIGH(_tbl16_G9*2)
001743 83ee      	STD  Y+6,R30
001744 83ff      	STD  Y+6+1,R31
001745 e004      	LDI  R16,LOW(4)
          _0x1C8:
001746 ff12      	SBRS R17,2
001747 c015      	RJMP _0x1CD
001748 940e 1c92 	CALL SUBOPT_0x50
00174a 940e 1d99 	CALL __GETW1P
00174c 87ea      	STD  Y+10,R30
00174d 87fb      	STD  Y+10+1,R31
00174e 85aa      	LDD  R26,Y+10
00174f 85bb      	LDD  R27,Y+10+1
001750 9710      	SBIW R26,0
001751 f42c      	BRGE _0x1CE
001752 940e 1d1c 	CALL __ANEGW1
001754 87ea      	STD  Y+10,R30
001755 87fb      	STD  Y+10+1,R31
001756 e25d      	LDI  R21,LOW(45)
          _0x1CE:
001757 3050      	CPI  R21,0
001758 f011      	BREQ _0x1CF
001759 5f0f      	SUBI R16,-LOW(1)
00175a c001      	RJMP _0x1D0
          _0x1CF:
00175b 7f1b      	ANDI R17,LOW(251)
          _0x1D0:
00175c c006      	RJMP _0x1D1
          _0x1CD:
00175d 940e 1c92 	CALL SUBOPT_0x50
00175f 940e 1d99 	CALL __GETW1P
001761 87ea      	STD  Y+10,R30
001762 87fb      	STD  Y+10+1,R31
          _0x1D1:
          _0x1C1:
001763 fd10      	SBRC R17,0
001764 c011      	RJMP _0x1D2
          _0x1D3:
001765 1704      	CP   R16,R20
001766 f478      	BRSH _0x1D5
001767 ff17      	SBRS R17,7
001768 c008      	RJMP _0x1D6
001769 ff12      	SBRS R17,2
00176a c004      	RJMP _0x1D7
00176b 7f1b      	ANDI R17,LOW(251)
00176c 2f35      	MOV  R19,R21
00176d 5001      	SUBI R16,LOW(1)
00176e c001      	RJMP _0x1D8
          _0x1D7:
00176f e330      	LDI  R19,LOW(48)
          _0x1D8:
001770 c001      	RJMP _0x1D9
          _0x1D6:
001771 e230      	LDI  R19,LOW(32)
          _0x1D9:
001772 940e 1c85 	CALL SUBOPT_0x4E
001774 5041      	SUBI R20,LOW(1)
001775 cfef      	RJMP _0x1D3
          _0x1D5:
          _0x1D2:
001776 2f20      	MOV  R18,R16
001777 ff11      	SBRS R17,1
001778 c01a      	RJMP _0x1DA
          _0x1DB:
001779 3020      	CPI  R18,0
00177a f0b9      	BREQ _0x1DD
00177b ff13      	SBRS R17,3
00177c c008      	RJMP _0x1DE
00177d 81ee      	LDD  R30,Y+6
00177e 81ff      	LDD  R31,Y+6+1
00177f 9631      	ADIW R30,1
001780 83ee      	STD  Y+6,R30
001781 83ff      	STD  Y+6+1,R31
001782 9731      	SBIW R30,1
001783 91e4      	LPM  R30,Z
001784 c005      	RJMP _0x24F
          _0x1DE:
001785 81ae      	LDD  R26,Y+6
001786 81bf      	LDD  R27,Y+6+1
001787 91ed      	LD   R30,X+
001788 83ae      	STD  Y+6,R26
001789 83bf      	STD  Y+6+1,R27
          _0x24F:
00178a 93ea      	ST   -Y,R30
00178b 940e 1ca7 	CALL SUBOPT_0x53
00178d 3040      	CPI  R20,0
00178e f009      	BREQ _0x1E0
00178f 5041      	SUBI R20,LOW(1)
          _0x1E0:
001790 5021      	SUBI R18,LOW(1)
001791 cfe7      	RJMP _0x1DB
          _0x1DD:
001792 c04a      	RJMP _0x1E1
          _0x1DA:
          _0x1E3:
001793 e330      	LDI  R19,LOW(48)
001794 81ee      	LDD  R30,Y+6
001795 81ff      	LDD  R31,Y+6+1
001796 9632      	ADIW R30,2
001797 83ee      	STD  Y+6,R30
001798 83ff      	STD  Y+6+1,R31
001799 9732      	SBIW R30,2
00179a 940e 1d9d 	CALL __GETW1PF
00179c 87e8      	STD  Y+8,R30
00179d 87f9      	STD  Y+8+1,R31
00179e 85aa                                            ldd  r26,y+10  ;R26,R27=n
00179f 85bb                                            ldd  r27,y+11
                                            calc_digit:
0017a0 17ae                                            cp   r26,r30
0017a1 07bf                                            cpc  r27,r31
0017a2 f020                                            brlo calc_digit_done
0017a3 5f3f      	SUBI R19,-LOW(1)
0017a4 1bae      	                                  sub  r26,r30
0017a5 0bbf      	                                  sbc  r27,r31
0017a6 f7c9      	                                  brne calc_digit
                                            calc_digit_done:
0017a7 87aa                                            std  Y+10,r26 ;n=R26,R27
0017a8 87bb                                            std  y+11,r27
0017a9 e3e9      	LDI  R30,LOW(57)
0017aa 17e3      	CP   R30,R19
0017ab f428      	BRSH _0x1E5
0017ac ff13      	SBRS R17,3
0017ad c002      	RJMP _0x1E6
0017ae 5f39      	SUBI R19,-LOW(7)
0017af c001      	RJMP _0x1E7
          _0x1E6:
0017b0 5d39      	SUBI R19,-LOW(39)
          _0x1E7:
          _0x1E5:
0017b1 fd14      	SBRC R17,4
0017b2 c01d      	RJMP _0x1E9
0017b3 e3e0      	LDI  R30,LOW(48)
0017b4 17e3      	CP   R30,R19
0017b5 f030      	BRLO _0x1EB
0017b6 85a8      	LDD  R26,Y+8
0017b7 85b9      	LDD  R27,Y+8+1
0017b8 30a1      	CPI  R26,LOW(0x1)
0017b9 e0e0      	LDI  R30,HIGH(0x1)
0017ba 07be      	CPC  R27,R30
0017bb f411      	BRNE _0x1EA
          _0x1EB:
0017bc 6110      	ORI  R17,LOW(16)
0017bd c00a      	RJMP _0x1ED
          _0x1EA:
0017be 1742      	CP   R20,R18
0017bf f010      	BRLO _0x1EF
0017c0 ff10      	SBRS R17,0
0017c1 c001      	RJMP _0x1F0
          _0x1EF:
0017c2 c011      	RJMP _0x1EE
          _0x1F0:
0017c3 e230      	LDI  R19,LOW(32)
0017c4 ff17      	SBRS R17,7
0017c5 c00a      	RJMP _0x1F1
0017c6 e330      	LDI  R19,LOW(48)
0017c7 6110      	ORI  R17,LOW(16)
          _0x1ED:
0017c8 ff12      	SBRS R17,2
0017c9 c006      	RJMP _0x1F2
0017ca 7f1b      	ANDI R17,LOW(251)
0017cb 935a      	ST   -Y,R21
0017cc d4da      	RCALL SUBOPT_0x53
0017cd 3040      	CPI  R20,0
0017ce f009      	BREQ _0x1F3
0017cf 5041      	SUBI R20,LOW(1)
          _0x1F3:
          _0x1F2:
          _0x1F1:
          _0x1E9:
0017d0 d4b4      	RCALL SUBOPT_0x4E
0017d1 3040      	CPI  R20,0
0017d2 f009      	BREQ _0x1F4
0017d3 5041      	SUBI R20,LOW(1)
          _0x1F4:
          _0x1EE:
0017d4 5021      	SUBI R18,LOW(1)
0017d5 85a8      	LDD  R26,Y+8
0017d6 85b9      	LDD  R27,Y+8+1
0017d7 e0e1      	LDI  R30,LOW(1)
0017d8 e0f0      	LDI  R31,HIGH(1)
0017d9 17ea      	CP   R30,R26
0017da 07fb      	CPC  R31,R27
0017db f408      	BRSH _0x1E4
0017dc cfb6      	RJMP _0x1E3
          _0x1E4:
          _0x1E1:
0017dd ff10      	SBRS R17,0
0017de c006      	RJMP _0x1F5
          _0x1F6:
0017df 3040      	CPI  R20,0
0017e0 f021      	BREQ _0x1F8
0017e1 5041      	SUBI R20,LOW(1)
0017e2 e2e0      	LDI  R30,LOW(32)
0017e3 d4b5      	RCALL SUBOPT_0x51
0017e4 cffa      	RJMP _0x1F6
          _0x1F8:
          _0x1F5:
          _0x1F9:
          _0x1BB:
0017e5 e000      	LDI  R16,LOW(0)
          _0x1A6:
0017e6 cedd      	RJMP _0x1A1
          _0x1A3:
0017e7 940e 1f57 	CALL __LOADLOCR6
0017e9 9662      	ADIW R28,18
0017ea 9508      	RET
          _sprintf:
0017eb 92ff      	PUSH R15
0017ec 2ef8      	MOV  R15,R24
0017ed d4bf      	RCALL SUBOPT_0x54
0017ee 01de      	MOVW R26,R28
0017ef 9616      	ADIW R26,6
0017f0 940e 1d04 	CALL __ADDW2R15
0017f2 940e 1d99 	CALL __GETW1P
0017f4 83ea      	STD  Y+2,R30
0017f5 83fb      	STD  Y+2+1,R31
0017f6 d4bf      	RCALL SUBOPT_0x55
0017f7 81aa      	LDD  R26,Y+2
0017f8 81bb      	LDD  R27,Y+2+1
0017f9 e0e0      	LDI  R30,LOW(0)
0017fa 93ec      	ST   X,R30
0017fb c134      	RJMP _0x243
          _printf:
0017fc 92ff      	PUSH R15
0017fd 2ef8      	MOV  R15,R24
0017fe d4ae      	RCALL SUBOPT_0x54
0017ff e0e0      	LDI  R30,0
001800 83ea      	STD  Y+2,R30
001801 83eb      	STD  Y+2+1,R30
001802 d4b3      	RCALL SUBOPT_0x55
001803 c12c      	RJMP _0x243
          __get_G9:
001804 930a      	ST   -Y,R16
001805 81ab      	LDD  R26,Y+3
001806 81bc      	LDD  R27,Y+3+1
001807 91ec      	LD   R30,X
001808 2f0e      	MOV  R16,R30
001809 30e0      	CPI  R30,0
00180a f019      	BREQ _0x1FA
00180b e0e0      	LDI  R30,LOW(0)
00180c 93ec      	ST   X,R30
00180d c011      	RJMP _0x1FB
          _0x1FA:
00180e 81a9      	LDD  R26,Y+1
00180f 81ba      	LDD  R27,Y+1+1
001810 940e 1d99 	CALL __GETW1P
001812 9730      	SBIW R30,0
001813 f041      	BREQ _0x1FC
001814 940e 1d99 	CALL __GETW1P
001816 81e0      	LD   R30,Z
001817 2f0e      	MOV  R16,R30
001818 30e0      	CPI  R30,0
001819 f009      	BREQ _0x1FD
00181a d464      	RCALL SUBOPT_0x4D
          _0x1FD:
00181b c003      	RJMP _0x1FE
          _0x1FC:
00181c 940e 16a4 	CALL _getchar
00181e 2f0e      	MOV  R16,R30
          _0x1FE:
          _0x1FB:
00181f 2fe0      	MOV  R30,R16
001820 8108      	LDD  R16,Y+0
001821 9625      	ADIW R28,5
001822 9508      	RET
          __scanf_G9:
001823 9724      	SBIW R28,4
001824 940e 1f50 	CALL __SAVELOCR6
001826 e0e0      	LDI  R30,LOW(0)
001827 87e9      	STD  Y+9,R30
001828 2f5e      	MOV  R21,R30
          _0x1FF:
001829 85ee      	LDD  R30,Y+14
00182a 85ff      	LDD  R31,Y+14+1
00182b 9631      	ADIW R30,1
00182c 87ee      	STD  Y+14,R30
00182d 87ff      	STD  Y+14+1,R31
00182e 9731      	SBIW R30,1
00182f 91e4      	LPM  R30,Z
001830 2f2e      	MOV  R18,R30
001831 30e0      	CPI  R30,0
001832 f411      	BRNE PC+3
001833 940c 1916 	JMP _0x201
001835 d490      	RCALL SUBOPT_0x56
001836 f081      	BREQ _0x202
          _0x203:
001837 b7ed      	IN   R30,SPL
001838 b7fe      	IN   R31,SPH
001839 93fa      	ST   -Y,R31
00183a 93ea      	ST   -Y,R30
00183b 935f      	PUSH R21
00183c d48e      	RCALL SUBOPT_0x57
00183d 915f      	POP  R21
00183e 2f2e      	MOV  R18,R30
00183f 30e0      	CPI  R30,0
001840 f011      	BREQ _0x206
001841 d484      	RCALL SUBOPT_0x56
001842 f409      	BRNE _0x207
          _0x206:
001843 c001      	RJMP _0x205
          _0x207:
001844 cff2      	RJMP _0x203
          _0x205:
001845 2f52      	MOV  R21,R18
001846 c0ce      	RJMP _0x208
          _0x202:
001847 3225      	CPI  R18,37
001848 f011      	BREQ PC+3
001849 940c 1906 	JMP _0x209
00184b e040      	LDI  R20,LOW(0)
          _0x20A:
00184c 85ee      	LDD  R30,Y+14
00184d 85ff      	LDD  R31,Y+14+1
00184e 9125      	LPM  R18,Z+
00184f 87ee      	STD  Y+14,R30
001850 87ff      	STD  Y+14+1,R31
001851 3320      	CPI  R18,48
001852 f018      	BRLO _0x20E
001853 e3e9      	LDI  R30,LOW(57)
001854 17e2      	CP   R30,R18
001855 f408      	BRSH _0x20D
          _0x20E:
001856 c005      	RJMP _0x20C
          _0x20D:
001857 d434      	RCALL SUBOPT_0x4F
001858 2fe2      	MOV  R30,R18
001859 53e0      	SUBI R30,LOW(48)
00185a 0f4e      	ADD  R20,R30
00185b cff0      	RJMP _0x20A
          _0x20C:
00185c 3020      	CPI  R18,0
00185d f409      	BRNE _0x210
00185e c0b7      	RJMP _0x201
          _0x210:
          _0x211:
00185f b7ed      	IN   R30,SPL
001860 b7fe      	IN   R31,SPH
001861 93fa      	ST   -Y,R31
001862 93ea      	ST   -Y,R30
001863 935f      	PUSH R21
001864 d466      	RCALL SUBOPT_0x57
001865 915f      	POP  R21
001866 2f3e      	MOV  R19,R30
001867 93ea      	ST   -Y,R30
001868 940e 1cd9 	CALL _isspace
00186a 30e0      	CPI  R30,0
00186b f799      	BRNE _0x211
00186c 3030      	CPI  R19,0
00186d f409      	BRNE _0x214
00186e c0a0      	RJMP _0x215
          _0x214:
00186f 2f53      	MOV  R21,R19
001870 3040      	CPI  R20,0
001871 f409      	BRNE _0x216
001872 ef4f      	LDI  R20,LOW(255)
          _0x216:
001873 2fe2      	MOV  R30,R18
001874 36e3      	CPI  R30,LOW(0x63)
001875 f461      	BRNE _0x21A
001876 d459      	RCALL SUBOPT_0x58
001877 b7ed      	IN   R30,SPL
001878 b7fe      	IN   R31,SPH
001879 93fa      	ST   -Y,R31
00187a 93ea      	ST   -Y,R30
00187b 935f      	PUSH R21
00187c d44e      	RCALL SUBOPT_0x57
00187d 915f      	POP  R21
00187e   +  	__GETW2R 16,17
001880 93ec      	ST   X,R30
001881 c080      	RJMP _0x219
          _0x21A:
001882 37e3      	CPI  R30,LOW(0x73)
001883 f501      	BRNE _0x222
001884 d44b      	RCALL SUBOPT_0x58
          _0x21C:
001885 2fe4      	MOV  R30,R20
001886 5041      	SUBI R20,1
001887 30e0      	CPI  R30,0
001888 f0b1      	BREQ _0x21E
001889 b7ed      	IN   R30,SPL
00188a b7fe      	IN   R31,SPH
00188b 93fa      	ST   -Y,R31
00188c 93ea      	ST   -Y,R30
00188d 935f      	PUSH R21
00188e d43c      	RCALL SUBOPT_0x57
00188f 915f      	POP  R21
001890 2f2e      	MOV  R18,R30
001891 30e0      	CPI  R30,0
001892 f011      	BREQ _0x220
001893 d432      	RCALL SUBOPT_0x56
001894 f009      	BREQ _0x21F
          _0x220:
001895 c009      	RJMP _0x21E
          _0x21F:
001896 931f      	PUSH R17
001897 930f      	PUSH R16
001898   +  	__ADDWRN 16,17,1
00189a 2fe2      	MOV  R30,R18
00189b 91af      	POP  R26
00189c 91bf      	POP  R27
00189d 93ec      	ST   X,R30
00189e cfe6      	RJMP _0x21C
          _0x21E:
00189f   +  	__GETW2R 16,17
0018a1 e0e0      	LDI  R30,LOW(0)
0018a2 93ec      	ST   X,R30
0018a3 c05e      	RJMP _0x219
          _0x222:
0018a4 e0e1      	LDI  R30,LOW(1)
0018a5 87e8      	STD  Y+8,R30
0018a6 2fe2      	MOV  R30,R18
0018a7 36e4      	CPI  R30,LOW(0x64)
0018a8 f011      	BREQ _0x227
0018a9 36e9      	CPI  R30,LOW(0x69)
0018aa f419      	BRNE _0x228
          _0x227:
0018ab e0e0      	LDI  R30,LOW(0)
0018ac 87e8      	STD  Y+8,R30
0018ad c002      	RJMP _0x229
          _0x228:
0018ae 37e5      	CPI  R30,LOW(0x75)
0018af f411      	BRNE _0x22A
          _0x229:
0018b0 e03a      	LDI  R19,LOW(10)
0018b1 c009      	RJMP _0x225
          _0x22A:
0018b2 37e8      	CPI  R30,LOW(0x78)
0018b3 f411      	BRNE _0x22B
0018b4 e130      	LDI  R19,LOW(16)
0018b5 c005      	RJMP _0x225
          _0x22B:
0018b6 32e5      	CPI  R30,LOW(0x25)
0018b7 f409      	BRNE _0x22E
0018b8 c04d      	RJMP _0x22D
          _0x22E:
0018b9 85e9      	LDD  R30,Y+9
0018ba c05c      	RJMP _0x244
          _0x225:
0018bb e0e0      	LDI  R30,0
0018bc 83ee      	STD  Y+6,R30
0018bd 83ef      	STD  Y+6+1,R30
          _0x22F:
0018be 2fe4      	MOV  R30,R20
0018bf 5041      	SUBI R20,1
0018c0 30e0      	CPI  R30,0
0018c1 f199      	BREQ _0x231
0018c2 b7ed      	IN   R30,SPL
0018c3 b7fe      	IN   R31,SPH
0018c4 93fa      	ST   -Y,R31
0018c5 93ea      	ST   -Y,R30
0018c6 935f      	PUSH R21
0018c7 d403      	RCALL SUBOPT_0x57
0018c8 915f      	POP  R21
0018c9 2f2e      	MOV  R18,R30
0018ca 2fae      	MOV  R26,R30
0018cb e2e0      	LDI  R30,LOW(32)
0018cc 17ea      	CP   R30,R26
0018cd f4b8      	BRSH _0x233
0018ce 85e8      	LDD  R30,Y+8
0018cf 30e0      	CPI  R30,0
0018d0 f439      	BRNE _0x234
0018d1 322d      	CPI  R18,45
0018d2 f419      	BRNE _0x235
0018d3 efef      	LDI  R30,LOW(255)
0018d4 87e8      	STD  Y+8,R30
0018d5 cfe8      	RJMP _0x22F
          _0x235:
0018d6 e0e1      	LDI  R30,LOW(1)
0018d7 87e8      	STD  Y+8,R30
          _0x234:
0018d8 3320      	CPI  R18,48
0018d9 f058      	BRLO _0x233
0018da 3621      	CPI  R18,97
0018db f010      	BRLO _0x238
0018dc 5527      	SUBI R18,LOW(87)
0018dd c005      	RJMP _0x239
          _0x238:
0018de 3421      	CPI  R18,65
0018df f010      	BRLO _0x23A
0018e0 5327      	SUBI R18,LOW(55)
0018e1 c001      	RJMP _0x23B
          _0x23A:
0018e2 5320      	SUBI R18,LOW(48)
          _0x23B:
          _0x239:
0018e3 1723      	CP   R18,R19
0018e4 f010      	BRLO _0x23C
          _0x233:
0018e5 2f52      	MOV  R21,R18
0018e6 c00e      	RJMP _0x231
          _0x23C:
0018e7 2fe3      	MOV  R30,R19
0018e8 81ae      	LDD  R26,Y+6
0018e9 81bf      	LDD  R27,Y+6+1
0018ea e0f0      	LDI  R31,0
0018eb 940e 1d5e 	CALL __MULW12U
0018ed 01df      	MOVW R26,R30
0018ee 2fe2      	MOV  R30,R18
0018ef e0f0      	LDI  R31,0
0018f0 0fea      	ADD  R30,R26
0018f1 1ffb      	ADC  R31,R27
0018f2 83ee      	STD  Y+6,R30
0018f3 83ff      	STD  Y+6+1,R31
0018f4 cfc9      	RJMP _0x22F
          _0x231:
0018f5 d3da      	RCALL SUBOPT_0x58
0018f6 85e8      	LDD  R30,Y+8
0018f7 81ae      	LDD  R26,Y+6
0018f8 81bf      	LDD  R27,Y+6+1
0018f9 e0f0      	LDI  R31,0
0018fa fde7      	SBRC R30,7
0018fb efff      	SER  R31
0018fc 940e 1d5e 	CALL __MULW12U
0018fe   +  	__GETW2R 16,17
001900 93ed      	ST   X+,R30
001901 93fc      	ST   X,R31
          _0x219:
001902 85e9      	LDD  R30,Y+9
001903 5fef      	SUBI R30,-LOW(1)
001904 87e9      	STD  Y+9,R30
001905 c00f      	RJMP _0x23D
          _0x209:
          _0x22D:
001906 b7ed      	IN   R30,SPL
001907 b7fe      	IN   R31,SPH
001908 93fa      	ST   -Y,R31
001909 93ea      	ST   -Y,R30
00190a 935f      	PUSH R21
00190b d3bf      	RCALL SUBOPT_0x57
00190c 915f      	POP  R21
00190d 17e2      	CP   R30,R18
00190e f031      	BREQ _0x23E
          _0x215:
00190f 85e9      	LDD  R30,Y+9
001910 30e0      	CPI  R30,0
001911 f411      	BRNE _0x23F
001912 efef      	LDI  R30,LOW(255)
001913 c003      	RJMP _0x244
          _0x23F:
001914 c001      	RJMP _0x201
          _0x23E:
          _0x23D:
          _0x208:
001915 cf13      	RJMP _0x1FF
          _0x201:
001916 85e9      	LDD  R30,Y+9
          _0x244:
001917 940e 1f57 	CALL __LOADLOCR6
001919 9660      	ADIW R28,16
00191a 9508      	RET
          _scanf:
00191b 92ff      	PUSH R15
00191c 2ef8      	MOV  R15,R24
00191d d38f      	RCALL SUBOPT_0x54
00191e e0e0      	LDI  R30,0
00191f 83ea      	STD  Y+2,R30
001920 83eb      	STD  Y+2+1,R30
001921 01de      	MOVW R26,R28
001922 9614      	ADIW R26,4
001923 940e 1d04 	CALL __ADDW2R15
001925 940e 1d99 	CALL __GETW1P
001927 93fa      	ST   -Y,R31
001928 93ea      	ST   -Y,R30
001929 931a      	ST   -Y,R17
00192a 930a      	ST   -Y,R16
00192b 01fe      	MOVW R30,R28
00192c 9636      	ADIW R30,6
00192d 93fa      	ST   -Y,R31
00192e 93ea      	ST   -Y,R30
00192f def3      	RCALL __scanf_G9
          _0x243:
001930 8119      	LDD  R17,Y+1
001931 8108      	LDD  R16,Y+0
001932 9624      	ADIW R28,4
001933 90ff      	POP  R15
001934 9508      	RET
          _spi:
001935 81e8      	LD   R30,Y
001936 b9ef      	OUT  0xF,R30
          _0x240:
001937 9b77      	SBIS 0xE,7
001938 cffe      	RJMP _0x240
001939 b1ef      	IN   R30,0xF
00193a 9621      	ADIW R28,1
00193b 9508      	RET
         
         ;OPTIMIZER ADDED SUBROUTINE, CALLED 3 TIMES
          SUBOPT_0x0:
00193c 93fa      	ST   -Y,R31
00193d 93ea      	ST   -Y,R30
00193e   +  	__GETW1R 16,17
001940 940e 1d48 	CALL __CWD1
001942 940e 1da4 	CALL __PUTPARD1
001944 9508      	RET
         
         ;OPTIMIZER ADDED SUBROUTINE, CALLED 3 TIMES
          SUBOPT_0x1:
001945 9724      	SBIW R28,4
001946 931a      	ST   -Y,R17
001947 930a      	ST   -Y,R16
001948 9508      	RET
         
         ;OPTIMIZER ADDED SUBROUTINE, CALLED 2 TIMES
          SUBOPT_0x2:
001949 91e0 042e 	LDS  R30,_Touchscreen
00194b 60e1      	ORI  R30,1
00194c 93e0 042e 	STS  _Touchscreen,R30
00194e 9508      	RET
         
         ;OPTIMIZER ADDED SUBROUTINE, CALLED 5 TIMES
          SUBOPT_0x3:
00194f b7ea      	IN   R30,0x3A
001950 64e0      	ORI  R30,0x40
001951 bfea      	OUT  0x3A,R30
001952 b7eb      	IN   R30,0x3B
001953 64e0      	ORI  R30,0x40
001954 bfeb      	OUT  0x3B,R30
001955 9508      	RET
         
         ;OPTIMIZER ADDED SUBROUTINE, CALLED 4 TIMES
          SUBOPT_0x4:
001956 9733      	SBIW R30,3
001957 2766      	CLR  R22
001958 2777      	CLR  R23
001959 940e 1da4 	CALL __PUTPARD1
00195b 9508      	RET
         
         ;OPTIMIZER ADDED SUBROUTINE, CALLED 4 TIMES
          SUBOPT_0x5:
00195c 9633      	ADIW R30,3
00195d 2766      	CLR  R22
00195e 2777      	CLR  R23
00195f 940e 1da4 	CALL __PUTPARD1
001961 9508      	RET
         
         ;OPTIMIZER ADDED SUBROUTINE, CALLED 4 TIMES
          SUBOPT_0x6:
001962 940e 1da4 	CALL __PUTPARD1
001964 e0e0      	LDI  R30,LOW(0)
001965 93ea      	ST   -Y,R30
001966 940c 0d10 	JMP  _S1D13705_Draw_Horizontal_Line
         
         ;OPTIMIZER ADDED SUBROUTINE, CALLED 4 TIMES
          SUBOPT_0x7:
001968 e0e0      	LDI  R30,LOW(0)
001969 93ea      	ST   -Y,R30
00196a 940c 0d6a 	JMP  _S1D13705_Draw_Vertical_Line
         
         ;OPTIMIZER ADDED SUBROUTINE, CALLED 8 TIMES
          SUBOPT_0x8:
00196c 940e 1da4 	CALL __PUTPARD1
00196e e0ef      	LDI  R30,LOW(15)
00196f 93ea      	ST   -Y,R30
001970 9508      	RET
         
         ;OPTIMIZER ADDED SUBROUTINE, CALLED 11 TIMES
          SUBOPT_0x9:
001971 93fa      	ST   -Y,R31
001972 93ea      	ST   -Y,R30
001973 e0e0      	LDI  R30,LOW(0)
001974 93ea      	ST   -Y,R30
001975 9508      	RET
         
         ;OPTIMIZER ADDED SUBROUTINE, CALLED 2 TIMES
          SUBOPT_0xA:
001976 de74      	RCALL _sprintf
001977 9624      	ADIW R28,4
001978   +  	__GETD1N 0x1
00197c 940e 1da4 	CALL __PUTPARD1
00197e 9508      	RET
         
         ;OPTIMIZER ADDED SUBROUTINE, CALLED 10 TIMES
          SUBOPT_0xB:
00197f 940e 1da4 	CALL __PUTPARD1
001981 efea      	LDI  R30,LOW(_string)
001982 e0f3      	LDI  R31,HIGH(_string)
001983 cfed      	RJMP SUBOPT_0x9
         
         ;OPTIMIZER ADDED SUBROUTINE, CALLED 2 TIMES
          SUBOPT_0xC:
001984 940e 0c2f 	CALL _S1D13705_Text_LCD
001986 efea      	LDI  R30,LOW(_string)
001987 e0f3      	LDI  R31,HIGH(_string)
001988 93fa      	ST   -Y,R31
001989 93ea      	ST   -Y,R30
00198a 9508      	RET
         
         ;OPTIMIZER ADDED SUBROUTINE, CALLED 2 TIMES
          SUBOPT_0xD:
00198b de70      	RCALL _printf
00198c 9622      	ADIW R28,2
00198d 940c 13a7 	JMP  _Touchscreen_Calibratie
         
         ;OPTIMIZER ADDED SUBROUTINE, CALLED 2 TIMES
          SUBOPT_0xE:
00198f 93fa      	ST   -Y,R31
001990 93ea      	ST   -Y,R30
001991 2fe0      	MOV  R30,R16
001992 27ff      	CLR  R31
001993 2766      	CLR  R22
001994 2777      	CLR  R23
001995 940e 1da4 	CALL __PUTPARD1
001997 9508      	RET
         
         ;OPTIMIZER ADDED SUBROUTINE, CALLED 2 TIMES
          SUBOPT_0xF:
001998 efef      	LDI  R30,LOW(255)
001999 bbea      	OUT  0x1A,R30
00199a   +  	__GETD1S 5
00199e   +  	__ANDD1N 0x10000
0019a2   +  	__CPD1N 0x10000
0019a9 9508      	RET
         
         ;OPTIMIZER ADDED SUBROUTINE, CALLED 2 TIMES
          SUBOPT_0x10:
0019aa 81ed      	LDD  R30,Y+5
0019ab 81fe      	LDD  R31,Y+5+1
0019ac 2fef      	MOV  R30,R31
0019ad   +  	__ANDD1N 0xFF
0019b1 9508      	RET
         
         ;OPTIMIZER ADDED SUBROUTINE, CALLED 2 TIMES
          SUBOPT_0x11:
0019b2 81e9      	LDD  R30,Y+1
0019b3   +  	__GETD2N 0x1FFE0
0019b7 27ff      	CLR  R31
0019b8 2766      	CLR  R22
0019b9 2777      	CLR  R23
0019ba 940e 1d08 	CALL __ADDD12
0019bc 940e 1da4 	CALL __PUTPARD1
0019be 9508      	RET
         
         ;OPTIMIZER ADDED SUBROUTINE, CALLED 2 TIMES
          SUBOPT_0x12:
0019bf 81ec      	LDD  R30,Y+4
0019c0 93ea      	ST   -Y,R30
0019c1 940c 0bd2 	JMP  _S1D13705_Write_Data
         
         ;OPTIMIZER ADDED SUBROUTINE, CALLED 2 TIMES
          SUBOPT_0x13:
0019c3 85ac      	LDD  R26,Y+12
0019c4 85bd      	LDD  R27,Y+12+1
0019c5 91ec      	LD   R30,X
0019c6 30e0      	CPI  R30,0
0019c7 9508      	RET
         
         ;OPTIMIZER ADDED SUBROUTINE, CALLED 2 TIMES
          SUBOPT_0x14:
0019c8 85ac      	LDD  R26,Y+12
0019c9 85bd      	LDD  R27,Y+12+1
0019ca 914d      	LD   R20,X+
0019cb 87ac      	STD  Y+12,R26
0019cc 87bd      	STD  Y+12+1,R27
0019cd 9508      	RET
         
         ;OPTIMIZER ADDED SUBROUTINE, CALLED 2 TIMES
          SUBOPT_0x15:
0019ce ebaa      	LDI  R26,LOW(_FontTable*2)
0019cf e0b0      	LDI  R27,HIGH(_FontTable*2)
0019d0 2fe4      	MOV  R30,R20
0019d1 52e0      	SUBI R30,LOW(32)
0019d2 e0f0      	LDI  R31,0
0019d3 940e 1d35 	CALL __LSLW3
0019d5 0fea      	ADD  R30,R26
0019d6 1ffb      	ADC  R31,R27
0019d7 0fe0      	ADD  R30,R16
0019d8 1ff1      	ADC  R31,R17
0019d9 9124      	LPM  R18,Z
0019da   +  	__GETW2R 16,17
0019dc 9508      	RET
         
         ;OPTIMIZER ADDED SUBROUTINE, CALLED 2 TIMES
          SUBOPT_0x16:
0019dd 940e 1d5e 	CALL __MULW12U
0019df   +  	__GETD2S 18
0019e3 2766      	CLR  R22
0019e4 2777      	CLR  R23
0019e5 940e 1d08 	CALL __ADDD12
0019e7 9508      	RET
         
         ;OPTIMIZER ADDED SUBROUTINE, CALLED 4 TIMES
          SUBOPT_0x17:
0019e8 85eb      	LDD  R30,Y+11
0019e9 95e2      	SWAP R30
0019ea 7fe0      	ANDI R30,0xF0
0019eb 60ef      	ORI  R30,LOW(0xF)
0019ec 2f3e      	MOV  R19,R30
0019ed 9508      	RET
         
         ;OPTIMIZER ADDED SUBROUTINE, CALLED 5 TIMES
          SUBOPT_0x18:
0019ee   +  	__GETD1S 7
0019f2   +  	__SUBD1N -1
0019f6   +  	__PUTD1S 7
0019fa 9731      	SBIW R30,1
0019fb 4060      	SBCI R22,0
0019fc 4070      	SBCI R23,0
0019fd 940e 1da4 	CALL __PUTPARD1
0019ff 933a      	ST   -Y,R19
001a00 940c 0bd2 	JMP  _S1D13705_Write_Data
         
         ;OPTIMIZER ADDED SUBROUTINE, CALLED 2 TIMES
          SUBOPT_0x19:
001a02 940e 1da4 	CALL __PUTPARD1
001a04 85ea      	LDD  R30,Y+10
001a05 93ea      	ST   -Y,R30
001a06 940c 0bd2 	JMP  _S1D13705_Write_Data
         
         ;OPTIMIZER ADDED SUBROUTINE, CALLED 2 TIMES
          SUBOPT_0x1A:
001a08   +  	__GETD1S 2
001a0c   +  	__SUBD1N -1
001a10   +  	__PUTD1S 2
001a14 9508      	RET
         
         ;OPTIMIZER ADDED SUBROUTINE, CALLED 2 TIMES
          SUBOPT_0x1B:
001a15   +  	__GETD1S 0
001a19   +  	__GETD2S 13
001a1d 940e 1d0d 	CALL __ADDD21
001a1f   +  	__GETD1N 0x140
001a23 940e 1d66 	CALL __MULD12U
001a25   +  	__GETD2S 17
001a29 940e 1d08 	CALL __ADDD12
001a2b   +  	__PUTD1S 4
001a2f 940e 1da4 	CALL __PUTPARD1
001a31 85ec      	LDD  R30,Y+12
001a32 93ea      	ST   -Y,R30
001a33 940c 0bd2 	JMP  _S1D13705_Write_Data
         
         ;OPTIMIZER ADDED SUBROUTINE, CALLED 2 TIMES
          SUBOPT_0x1C:
001a35   +  	__GETD1S 0
001a39 9731      	SBIW R30,1
001a3a 4060      	SBCI R22,0
001a3b 4070      	SBCI R23,0
001a3c   +  	__PUTD1S 0
001a40   +  	__SUBD1N -1
001a44 9508      	RET
         
         ;OPTIMIZER ADDED SUBROUTINE, CALLED 3 TIMES
          SUBOPT_0x1D:
001a45   +  	__GETD1S 5
001a49   +  	__SUBD1N -1
001a4d   +  	__PUTD1S 5
001a51 9731      	SBIW R30,1
001a52 4060      	SBCI R22,0
001a53 4070      	SBCI R23,0
001a54 940e 1da4 	CALL __PUTPARD1
001a56 9508      	RET
         
         ;OPTIMIZER ADDED SUBROUTINE, CALLED 3 TIMES
          SUBOPT_0x1E:
001a57 e1e5      	LDI  R30,LOW(21)
001a58 93ea      	ST   -Y,R30
001a59 e0e0      	LDI  R30,LOW(0)
001a5a 93ea      	ST   -Y,R30
001a5b 940c 0c06 	JMP  _S1D13705_Write_Register
         
         ;OPTIMIZER ADDED SUBROUTINE, CALLED 3 TIMES
          SUBOPT_0x1F:
001a5d e1e7      	LDI  R30,LOW(23)
001a5e 93ea      	ST   -Y,R30
001a5f   +  	__GETW1R 16,17
001a61 91e4      	LPM  R30,Z
001a62 93ea      	ST   -Y,R30
001a63 940c 0c06 	JMP  _S1D13705_Write_Register
         
         ;OPTIMIZER ADDED SUBROUTINE, CALLED 2 TIMES
          SUBOPT_0x20:
001a65 e0e7      	LDI  R30,LOW(7)
001a66 93ea      	ST   -Y,R30
001a67 940e 0e55 	CALL _CF_Read_Register
001a69 2f0e      	MOV  R16,R30
001a6a 9508      	RET
         
         ;OPTIMIZER ADDED SUBROUTINE, CALLED 5 TIMES
          SUBOPT_0x21:
001a6b e0e0      	LDI  R30,LOW(0)
001a6c 60e1      	ORI  R30,1
001a6d 2fae      	MOV  R26,R30
001a6e 9508      	RET
         
         ;OPTIMIZER ADDED SUBROUTINE, CALLED 4 TIMES
          SUBOPT_0x22:
001a6f e0e1      	LDI  R30,LOW(1)
001a70 60e1      	ORI  R30,1
001a71 2fae      	MOV  R26,R30
001a72 9508      	RET
         
         ;OPTIMIZER ADDED SUBROUTINE, CALLED 2 TIMES
          SUBOPT_0x23:
001a73 9723      	SBIW R28,3
001a74 931a      	ST   -Y,R17
001a75 930a      	ST   -Y,R16
001a76 9508      	RET
         
         ;OPTIMIZER ADDED SUBROUTINE, CALLED 2 TIMES
          SUBOPT_0x24:
001a77 940e 0df2 	CALL _CF_Wait_RDY
001a79   +  	__GETD1S 5
001a7d   +  	__ANDD1N 0xFF
001a81 83ea      	STD  Y+2,R30
001a82   +  	__GETD1S 5
001a86   +  	__ANDD1N 0xFF00
001a8a 01df      	MOVW R26,R30
001a8b 01cb      	MOVW R24,R22
001a8c e0e8      	LDI  R30,LOW(8)
001a8d 940e 1d29 	CALL __LSRD12
001a8f 83eb      	STD  Y+3,R30
001a90   +  	__GETD1S 5
001a94   +  	__ANDD1N 0xFF0000
001a98 940e 1d43 	CALL __LSRD16
001a9a 83ec      	STD  Y+4,R30
001a9b e0e2      	LDI  R30,LOW(2)
001a9c 93ea      	ST   -Y,R30
001a9d e0e1      	LDI  R30,LOW(1)
001a9e 93ea      	ST   -Y,R30
001a9f 940e 0e03 	CALL _CF_Write_Register
001aa1 e0e3      	LDI  R30,LOW(3)
001aa2 93ea      	ST   -Y,R30
001aa3 81eb      	LDD  R30,Y+3
001aa4 93ea      	ST   -Y,R30
001aa5 940e 0e03 	CALL _CF_Write_Register
001aa7 e0e4      	LDI  R30,LOW(4)
001aa8 93ea      	ST   -Y,R30
001aa9 81ec      	LDD  R30,Y+4
001aaa 93ea      	ST   -Y,R30
001aab 940e 0e03 	CALL _CF_Write_Register
001aad e0e5      	LDI  R30,LOW(5)
001aae 93ea      	ST   -Y,R30
001aaf 81ed      	LDD  R30,Y+5
001ab0 93ea      	ST   -Y,R30
001ab1 940e 0e03 	CALL _CF_Write_Register
001ab3 e0e6      	LDI  R30,LOW(6)
001ab4 93ea      	ST   -Y,R30
001ab5 eee0      	LDI  R30,LOW(224)
001ab6 93ea      	ST   -Y,R30
001ab7 940e 0e03 	CALL _CF_Write_Register
001ab9 e0e7      	LDI  R30,LOW(7)
001aba 93ea      	ST   -Y,R30
001abb 9508      	RET
         
         ;OPTIMIZER ADDED SUBROUTINE, CALLED 2 TIMES
          SUBOPT_0x25:
001abc 93ea      	ST   -Y,R30
001abd 940e 0e03 	CALL _CF_Write_Register
001abf 940c 0dfa 	JMP  _CF_Wait_DRQ
         
         ;OPTIMIZER ADDED SUBROUTINE, CALLED 2 TIMES
          SUBOPT_0x26:
001ac1 2fa0      	MOV  R26,R16
001ac2 e0b0      	LDI  R27,0
001ac3 5fa2      	SUBI R26,LOW(-_CF_Page)
001ac4 4fbb      	SBCI R27,HIGH(-_CF_Page)
001ac5 9508      	RET
         
         ;OPTIMIZER ADDED SUBROUTINE, CALLED 3 TIMES
          SUBOPT_0x27:
001ac6   +  	__GETD2N 0x98
001aca 940e 1d66 	CALL __MULD12U
001acc   +  	__ADDD1N 1
001ad0 9508      	RET
         
         ;OPTIMIZER ADDED SUBROUTINE, CALLED 6 TIMES
          SUBOPT_0x28:
001ad1   +  	__GETD1S 9
001ad5   +  	__SUBD1N -1
001ad9   +  	__PUTD1S 9
001add 9508      	RET
         
         ;OPTIMIZER ADDED SUBROUTINE, CALLED 4 TIMES
          SUBOPT_0x29:
001ade 9731      	SBIW R30,1
001adf 4060      	SBCI R22,0
001ae0 4070      	SBCI R23,0
001ae1 940e 1da4 	CALL __PUTPARD1
001ae3 940c 0eaa 	JMP  _CF_Read_Sector
         
         ;OPTIMIZER ADDED SUBROUTINE, CALLED 2 TIMES
          SUBOPT_0x2A:
001ae5 dd16      	RCALL _printf
001ae6 9622      	ADIW R28,2
001ae7 e0e2      	LDI  R30,LOW(2)
001ae8 93ea      	ST   -Y,R30
001ae9 9508      	RET
         
         ;OPTIMIZER ADDED SUBROUTINE, CALLED 2 TIMES
          SUBOPT_0x2B:
001aea 93ea      	ST   -Y,R30
001aeb 940e 0c06 	CALL _S1D13705_Write_Register
001aed e1ec      	LDI  R30,LOW(28)
001aee 93ea      	ST   -Y,R30
001aef 9508      	RET
         
         ;OPTIMIZER ADDED SUBROUTINE, CALLED 2 TIMES
          SUBOPT_0x2C:
001af0 93ea      	ST   -Y,R30
001af1 940e 0c06 	CALL _S1D13705_Write_Register
001af3 cf63      	RJMP SUBOPT_0x1E
         
         ;OPTIMIZER ADDED SUBROUTINE, CALLED 9 TIMES
          SUBOPT_0x2D:
001af4 85ef      	LDD  R30,Y+15
001af5 89f8      	LDD  R31,Y+15+1
001af6 9631      	ADIW R30,1
001af7 87ef      	STD  Y+15,R30
001af8 8bf8      	STD  Y+15+1,R31
001af9 9731      	SBIW R30,1
001afa 50e6      	SUBI R30,LOW(-_CF_Sector_Data)
001afb 4ffe      	SBCI R31,HIGH(-_CF_Sector_Data)
001afc 9508      	RET
         
         ;OPTIMIZER ADDED SUBROUTINE, CALLED 3 TIMES
          SUBOPT_0x2E:
001afd 8120      	LD   R18,Z
001afe e1e7      	LDI  R30,LOW(23)
001aff 93ea      	ST   -Y,R30
001b00 932a      	ST   -Y,R18
001b01 940e 0c06 	CALL _S1D13705_Write_Register
001b03 e1e7      	LDI  R30,LOW(23)
001b04 93ea      	ST   -Y,R30
001b05 931a      	ST   -Y,R17
001b06 940e 0c06 	CALL _S1D13705_Write_Register
001b08 e1e7      	LDI  R30,LOW(23)
001b09 93ea      	ST   -Y,R30
001b0a 930a      	ST   -Y,R16
001b0b 940c 0c06 	JMP  _S1D13705_Write_Register
         
         ;OPTIMIZER ADDED SUBROUTINE, CALLED 6 TIMES
          SUBOPT_0x2F:
001b0d dcdd      	RCALL _sprintf
001b0e 9624      	ADIW R28,4
001b0f   +  	__GETD1N 0x0
001b13 940e 1da4 	CALL __PUTPARD1
001b15 9508      	RET
         
         ;OPTIMIZER ADDED SUBROUTINE, CALLED 3 TIMES
          SUBOPT_0x30:
001b16 940e 109f 	CALL _TX_Ready_Sign
001b18   +  	__GETW1R 17,18
001b1a 50e6      	SUBI R30,LOW(-_CF_Sector_Data)
001b1b 4ffe      	SBCI R31,HIGH(-_CF_Sector_Data)
001b1c 9508      	RET
         
         ;OPTIMIZER ADDED SUBROUTINE, CALLED 3 TIMES
          SUBOPT_0x31:
001b1d   +  	__GETD1S 5
001b21 940e 1da4 	CALL __PUTPARD1
001b23 940e 0ed3 	CALL _CF_Write_Sector
001b25   +  	__GETD1S 5
001b29 9508      	RET
         
         ;OPTIMIZER ADDED SUBROUTINE, CALLED 6 TIMES
          SUBOPT_0x32:
001b2a e0e0      	LDI  R30,LOW(0)
001b2b 2bea      	OR   R30,R26
001b2c 2fae      	MOV  R26,R30
001b2d 9508      	RET
         
         ;OPTIMIZER ADDED SUBROUTINE, CALLED 4 TIMES
          SUBOPT_0x33:
001b2e e0e0      	LDI  R30,LOW(0)
001b2f 2bea      	OR   R30,R26
001b30 91e0 042e 	LDS  R30,_Touchscreen
001b32 7fee      	ANDI R30,0xFE
001b33 93e0 042e 	STS  _Touchscreen,R30
001b35 9508      	RET
         
         ;OPTIMIZER ADDED SUBROUTINE, CALLED 4 TIMES
          SUBOPT_0x34:
001b36 e0ea      	LDI  R30,LOW(10)
001b37 e0f0      	LDI  R31,HIGH(10)
001b38 93fa      	ST   -Y,R31
001b39 93ea      	ST   -Y,R30
001b3a 940c 1cf8 	JMP  _delay_ms
         
         ;OPTIMIZER ADDED SUBROUTINE, CALLED 4 TIMES
          SUBOPT_0x35:
001b3c 940e 12ab 	CALL _Touchscreen_Pressed
001b3e 83ee      	STD  Y+6,R30
001b3f 30e1      	CPI  R30,LOW(0x1)
001b40 9508      	RET
         
         ;OPTIMIZER ADDED SUBROUTINE, CALLED 3 TIMES
          SUBOPT_0x36:
001b41 91e0 042e 	LDS  R30,_Touchscreen
001b43 7fee      	ANDI R30,0xFE
001b44 93e0 042e 	STS  _Touchscreen,R30
001b46 9508      	RET
         
         ;OPTIMIZER ADDED SUBROUTINE, CALLED 2 TIMES
          SUBOPT_0x37:
001b47 2766      	CLR  R22
001b48 2777      	CLR  R23
001b49 940e 1e43 	CALL __CDF1
001b4b 91a0 04c9 	LDS  R26,_A_G7
001b4d 91b0 04ca 	LDS  R27,_A_G7+1
001b4f 9180 04cb 	LDS  R24,_A_G7+2
001b51 9190 04cc 	LDS  R25,_A_G7+3
001b53 940e 1ecf 	CALL __MULF12
001b55 9508      	RET
         
         ;OPTIMIZER ADDED SUBROUTINE, CALLED 2 TIMES
          SUBOPT_0x38:
001b56 2766      	CLR  R22
001b57 2777      	CLR  R23
001b58 940e 1e43 	CALL __CDF1
001b5a 91a0 04cd 	LDS  R26,_B_G7
001b5c 91b0 04ce 	LDS  R27,_B_G7+1
001b5e 9180 04cf 	LDS  R24,_B_G7+2
001b60 9190 04d0 	LDS  R25,_B_G7+3
001b62 940e 1ecf 	CALL __MULF12
001b64 9508      	RET
         
         ;OPTIMIZER ADDED SUBROUTINE, CALLED 2 TIMES
          SUBOPT_0x39:
001b65 2766      	CLR  R22
001b66 2777      	CLR  R23
001b67 940e 1e43 	CALL __CDF1
001b69 91a0 04d5 	LDS  R26,_D_G7
001b6b 91b0 04d6 	LDS  R27,_D_G7+1
001b6d 9180 04d7 	LDS  R24,_D_G7+2
001b6f 9190 04d8 	LDS  R25,_D_G7+3
001b71 940e 1ecf 	CALL __MULF12
001b73 9508      	RET
         
         ;OPTIMIZER ADDED SUBROUTINE, CALLED 2 TIMES
          SUBOPT_0x3A:
001b74 2766      	CLR  R22
001b75 2777      	CLR  R23
001b76 940e 1e43 	CALL __CDF1
001b78 91a0 04d9 	LDS  R26,_E_G7
001b7a 91b0 04da 	LDS  R27,_E_G7+1
001b7c 9180 04db 	LDS  R24,_E_G7+2
001b7e 9190 04dc 	LDS  R25,_E_G7+3
001b80 940e 1ecf 	CALL __MULF12
001b82 9508      	RET
         
         ;OPTIMIZER ADDED SUBROUTINE, CALLED 2 TIMES
          SUBOPT_0x3B:
001b83   +  	__GETD1N 0x1B
001b87 940e 1da4 	CALL __PUTPARD1
001b89   +  	__GETD1N 0x23
001b8d 940e 1da4 	CALL __PUTPARD1
001b8f   +  	__GETD1N 0xD7
001b93 9508      	RET
         
         ;OPTIMIZER ADDED SUBROUTINE, CALLED 2 TIMES
          SUBOPT_0x3C:
001b94   +  	__GETD1N 0x1F
001b98 940e 1da4 	CALL __PUTPARD1
001b9a   +  	__GETD1N 0xD3
001b9e 940e 1da4 	CALL __PUTPARD1
001ba0   +  	__GETD1N 0xDB
001ba4 9508      	RET
         
         ;OPTIMIZER ADDED SUBROUTINE, CALLED 3 TIMES
          SUBOPT_0x3D:
001ba5 85e8      	LDD  R30,Y+8
001ba6 93ea      	ST   -Y,R30
001ba7 940c 12b3 	JMP  _Touchscreen_Value
         
         ;OPTIMIZER ADDED SUBROUTINE, CALLED 3 TIMES
          SUBOPT_0x3E:
001ba9 81ef      	LDD  R30,Y+7
001baa 93ea      	ST   -Y,R30
001bab 940c 12b3 	JMP  _Touchscreen_Value
         
         ;OPTIMIZER ADDED SUBROUTINE, CALLED 2 TIMES
          SUBOPT_0x3F:
001bad   +  	__GETD1N 0x9B
001bb1 940e 1da4 	CALL __PUTPARD1
001bb3   +  	__GETD1N 0xA3
001bb7 940e 1da4 	CALL __PUTPARD1
001bb9   +  	__GETD1N 0x17
001bbd 9508      	RET
         
         ;OPTIMIZER ADDED SUBROUTINE, CALLED 2 TIMES
          SUBOPT_0x40:
001bbe   +  	__GETD1N 0x9F
001bc2 940e 1da4 	CALL __PUTPARD1
001bc4   +  	__GETD1N 0x13
001bc8 940e 1da4 	CALL __PUTPARD1
001bca   +  	__GETD1N 0x1B
001bce 9508      	RET
         
         ;OPTIMIZER ADDED SUBROUTINE, CALLED 2 TIMES
          SUBOPT_0x41:
001bcf   +  	__GETD1N 0x11B
001bd3 940e 1da4 	CALL __PUTPARD1
001bd5   +  	__GETD1N 0x123
001bd9 940e 1da4 	CALL __PUTPARD1
001bdb   +  	__GETD1N 0x77
001bdf 9508      	RET
         
         ;OPTIMIZER ADDED SUBROUTINE, CALLED 2 TIMES
          SUBOPT_0x42:
001be0   +  	__GETD1N 0x11F
001be4 940e 1da4 	CALL __PUTPARD1
001be6   +  	__GETD1N 0x73
001bea 940e 1da4 	CALL __PUTPARD1
001bec   +  	__GETD1N 0x7B
001bf0 9508      	RET
         
         ;OPTIMIZER ADDED SUBROUTINE, CALLED 2 TIMES
          SUBOPT_0x43:
001bf1 2766      	CLR  R22
001bf2 2777      	CLR  R23
001bf3 940e 1e43 	CALL __CDF1
001bf5 01df      	MOVW R26,R30
001bf6 01cb      	MOVW R24,R22
001bf7 85ef      	LDD  R30,Y+15
001bf8 89f8      	LDD  R31,Y+15+1
001bf9 2766      	CLR  R22
001bfa 2777      	CLR  R23
001bfb 940e 1e43 	CALL __CDF1
001bfd 940e 1da9 	CALL __SWAPD12
001bff 940e 1e7a 	CALL __SUBF12
001c01 9508      	RET
         
         ;OPTIMIZER ADDED SUBROUTINE, CALLED 6 TIMES
          SUBOPT_0x44:
001c02 89ef      	LDD  R30,Y+23
001c03 8df8      	LDD  R31,Y+23+1
001c04 2766      	CLR  R22
001c05 2777      	CLR  R23
001c06 940e 1e43 	CALL __CDF1
001c08 01df      	MOVW R26,R30
001c09 01cb      	MOVW R24,R22
001c0a 89ed      	LDD  R30,Y+21
001c0b 89fe      	LDD  R31,Y+21+1
001c0c 2766      	CLR  R22
001c0d 2777      	CLR  R23
001c0e 940e 1e43 	CALL __CDF1
001c10 940e 1da9 	CALL __SWAPD12
001c12 940e 1e7a 	CALL __SUBF12
001c14 9508      	RET
         
         ;OPTIMIZER ADDED SUBROUTINE, CALLED 4 TIMES
          SUBOPT_0x45:
001c15 8de9      	LDD  R30,Y+25
001c16 8dfa      	LDD  R31,Y+25+1
001c17 2766      	CLR  R22
001c18 2777      	CLR  R23
001c19 940e 1e43 	CALL __CDF1
001c1b 01df      	MOVW R26,R30
001c1c 01cb      	MOVW R24,R22
001c1d 89ed      	LDD  R30,Y+21
001c1e 89fe      	LDD  R31,Y+21+1
001c1f 2766      	CLR  R22
001c20 2777      	CLR  R23
001c21 940e 1e43 	CALL __CDF1
001c23 940e 1da9 	CALL __SWAPD12
001c25 940e 1e7a 	CALL __SUBF12
001c27 9508      	RET
         
         ;OPTIMIZER ADDED SUBROUTINE, CALLED 2 TIMES
          SUBOPT_0x46:
001c28   +  	__GETW1R 16,17
001c2a 2766      	CLR  R22
001c2b 2777      	CLR  R23
001c2c 940e 1e43 	CALL __CDF1
001c2e 01df      	MOVW R26,R30
001c2f 01cb      	MOVW R24,R22
001c30   +  	__GETW1R 20,21
001c32 2766      	CLR  R22
001c33 2777      	CLR  R23
001c34 940e 1e43 	CALL __CDF1
001c36 940e 1da9 	CALL __SWAPD12
001c38 940e 1e7a 	CALL __SUBF12
001c3a 9508      	RET
         
         ;OPTIMIZER ADDED SUBROUTINE, CALLED 2 TIMES
          SUBOPT_0x47:
001c3b   +  	__GETW1R 18,19
001c3d 2766      	CLR  R22
001c3e 2777      	CLR  R23
001c3f 940e 1e43 	CALL __CDF1
001c41 01df      	MOVW R26,R30
001c42 01cb      	MOVW R24,R22
001c43   +  	__GETW1R 20,21
001c45 2766      	CLR  R22
001c46 2777      	CLR  R23
001c47 940e 1e43 	CALL __CDF1
001c49 940e 1da9 	CALL __SWAPD12
001c4b 940e 1e7a 	CALL __SUBF12
001c4d 9508      	RET
         
         ;OPTIMIZER ADDED SUBROUTINE, CALLED 2 TIMES
          SUBOPT_0x48:
001c4e   +  	__GETW1R 20,21
001c50 2766      	CLR  R22
001c51 2777      	CLR  R23
001c52 940e 1e43 	CALL __CDF1
001c54 01df      	MOVW R26,R30
001c55 01cb      	MOVW R24,R22
001c56   +  	__GETW1R 18,19
001c58 2766      	CLR  R22
001c59 2777      	CLR  R23
001c5a 940e 1e43 	CALL __CDF1
001c5c 940e 1da9 	CALL __SWAPD12
001c5e 940e 1e7a 	CALL __SUBF12
001c60 9508      	RET
         
         ;OPTIMIZER ADDED SUBROUTINE, CALLED 2 TIMES
          SUBOPT_0x49:
001c61 2766      	CLR  R22
001c62 2777      	CLR  R23
001c63 940e 1e43 	CALL __CDF1
001c65 940e 1e81 	CALL __ADDF12
001c67 01df      	MOVW R26,R30
001c68 01cb      	MOVW R24,R22
001c69 9508      	RET
         
         ;OPTIMIZER ADDED SUBROUTINE, CALLED 4 TIMES
          SUBOPT_0x4A:
001c6a 2766      	CLR  R22
001c6b 2777      	CLR  R23
001c6c 940e 1e43 	CALL __CDF1
001c6e 940e 1da9 	CALL __SWAPD12
001c70 940e 1e7a 	CALL __SUBF12
001c72 9508      	RET
         
         ;OPTIMIZER ADDED SUBROUTINE, CALLED 2 TIMES
          SUBOPT_0x4B:
001c73 2766      	CLR  R22
001c74 2777      	CLR  R23
001c75 940e 1e43 	CALL __CDF1
001c77 01df      	MOVW R26,R30
001c78 01cb      	MOVW R24,R22
001c79 85e9      	LDD  R30,Y+9
001c7a 85fa      	LDD  R31,Y+9+1
001c7b cfee      	RJMP SUBOPT_0x4A
         
         ;OPTIMIZER ADDED SUBROUTINE, CALLED 2 TIMES
          SUBOPT_0x4C:
001c7c efef      	LDI  R30,LOW(255)
001c7d 93ea      	ST   -Y,R30
001c7e ccb6      	RJMP _spi
         
         ;OPTIMIZER ADDED SUBROUTINE, CALLED 2 TIMES
          SUBOPT_0x4D:
001c7f 940e 1d99 	CALL __GETW1P
001c81 9631      	ADIW R30,1
001c82 93ed      	ST   X+,R30
001c83 93fc      	ST   X,R31
001c84 9508      	RET
         
         ;OPTIMIZER ADDED SUBROUTINE, CALLED 4 TIMES
          SUBOPT_0x4E:
001c85 933a      	ST   -Y,R19
001c86 85ed      	LDD  R30,Y+13
001c87 85fe      	LDD  R31,Y+13+1
001c88 93fa      	ST   -Y,R31
001c89 93ea      	ST   -Y,R30
001c8a 940c 16ae 	JMP  __put_G9
         
         ;OPTIMIZER ADDED SUBROUTINE, CALLED 2 TIMES
          SUBOPT_0x4F:
001c8c 2fa4      	MOV  R26,R20
001c8d e0ea      	LDI  R30,LOW(10)
001c8e 9fea      	MUL  R30,R26
001c8f 2de0      	MOV  R30,R0
001c90 2f4e      	MOV  R20,R30
001c91 9508      	RET
         
         ;OPTIMIZER ADDED SUBROUTINE, CALLED 5 TIMES
          SUBOPT_0x50:
001c92 85ae      	LDD  R26,Y+14
001c93 85bf      	LDD  R27,Y+14+1
001c94 9714      	SBIW R26,4
001c95 87ae      	STD  Y+14,R26
001c96 87bf      	STD  Y+14+1,R27
001c97 9614      	ADIW R26,4
001c98 9508      	RET
         
         ;OPTIMIZER ADDED SUBROUTINE, CALLED 2 TIMES
          SUBOPT_0x51:
001c99 93ea      	ST   -Y,R30
001c9a 85ed      	LDD  R30,Y+13
001c9b 85fe      	LDD  R31,Y+13+1
001c9c 93fa      	ST   -Y,R31
001c9d 93ea      	ST   -Y,R30
001c9e 940c 16ae 	JMP  __put_G9
         
         ;OPTIMIZER ADDED SUBROUTINE, CALLED 2 TIMES
          SUBOPT_0x52:
001ca0 940e 1d99 	CALL __GETW1P
001ca2 83ee      	STD  Y+6,R30
001ca3 83ff      	STD  Y+6+1,R31
001ca4 93fa      	ST   -Y,R31
001ca5 93ea      	ST   -Y,R30
001ca6 9508      	RET
         
         ;OPTIMIZER ADDED SUBROUTINE, CALLED 2 TIMES
          SUBOPT_0x53:
001ca7 85ed      	LDD  R30,Y+13
001ca8 85fe      	LDD  R31,Y+13+1
001ca9 93fa      	ST   -Y,R31
001caa 93ea      	ST   -Y,R30
001cab 940c 16ae 	JMP  __put_G9
         
         ;OPTIMIZER ADDED SUBROUTINE, CALLED 3 TIMES
          SUBOPT_0x54:
001cad 9722      	SBIW R28,2
001cae 931a      	ST   -Y,R17
001caf 930a      	ST   -Y,R16
001cb0 01de      	MOVW R26,R28
001cb1 940e 1d04 	CALL __ADDW2R15
001cb3   +  	__PUTW2R 16,17
001cb5 9508      	RET
         
         ;OPTIMIZER ADDED SUBROUTINE, CALLED 2 TIMES
          SUBOPT_0x55:
001cb6 01de      	MOVW R26,R28
001cb7 9614      	ADIW R26,4
001cb8 940e 1d04 	CALL __ADDW2R15
001cba 940e 1d99 	CALL __GETW1P
001cbc 93fa      	ST   -Y,R31
001cbd 93ea      	ST   -Y,R30
001cbe 931a      	ST   -Y,R17
001cbf 930a      	ST   -Y,R16
001cc0 01fe      	MOVW R30,R28
001cc1 9636      	ADIW R30,6
001cc2 93fa      	ST   -Y,R31
001cc3 93ea      	ST   -Y,R30
001cc4 940c 16c0 	JMP  __print_G9
         
         ;OPTIMIZER ADDED SUBROUTINE, CALLED 3 TIMES
          SUBOPT_0x56:
001cc6 932a      	ST   -Y,R18
001cc7 940e 1cd9 	CALL _isspace
001cc9 30e0      	CPI  R30,0
001cca 9508      	RET
         
         ;OPTIMIZER ADDED SUBROUTINE, CALLED 6 TIMES
          SUBOPT_0x57:
001ccb 85ec      	LDD  R30,Y+12
001ccc 85fd      	LDD  R31,Y+12+1
001ccd 93fa      	ST   -Y,R31
001cce 93ea      	ST   -Y,R30
001ccf cb34      	RJMP __get_G9
         
         ;OPTIMIZER ADDED SUBROUTINE, CALLED 3 TIMES
          SUBOPT_0x58:
001cd0 85ac      	LDD  R26,Y+12
001cd1 85bd      	LDD  R27,Y+12+1
001cd2 9714      	SBIW R26,4
001cd3 87ac      	STD  Y+12,R26
001cd4 87bd      	STD  Y+12+1,R27
001cd5 9614      	ADIW R26,4
001cd6 910d      	LD   R16,X+
001cd7 911c      	LD   R17,X
001cd8 9508      	RET
         
          _isspace:
001cd9 e0e1      	ldi  r30,1
001cda 91f9      	ld   r31,y+
001cdb 32f0      	cpi  r31,' '
001cdc f029      	breq __isspace1
001cdd 30f9      	cpi  r31,9
001cde f010      	brlo __isspace0
001cdf 30fe      	cpi  r31,14
001ce0 f008      	brlo __isspace1
          __isspace0:
001ce1 27ee      	clr  r30
          __isspace1:
001ce2 9508      	ret
         
          _strlen:
001ce3 91a9      	ld   r26,y+
001ce4 91b9      	ld   r27,y+
001ce5 27ee      	clr  r30
001ce6 27ff      	clr  r31
          __strlen0:
001ce7 916d      	ld   r22,x+
001ce8 2366      	tst  r22
001ce9 f011      	breq __strlen1
001cea 9631      	adiw r30,1
001ceb cffb      	rjmp __strlen0
          __strlen1:
001cec 9508      	ret
         
          _strlenf:
001ced 27aa      	clr  r26
001cee 27bb      	clr  r27
001cef 91e9      	ld   r30,y+
001cf0 91f9      	ld   r31,y+
          __strlenf0:
001cf1 9005      	lpm  r0,z+
001cf2 2000      	tst  r0
001cf3 f011      	breq __strlenf1
001cf4 9611      	adiw r26,1
001cf5 cffb      	rjmp __strlenf0
          __strlenf1:
001cf6 01fd      	movw r30,r26
001cf7 9508      	ret
         
          _delay_ms:
001cf8 91e9      	ld   r30,y+
001cf9 91f9      	ld   r31,y+
001cfa 9630      	adiw r30,0
001cfb f039      	breq __delay_ms1
          __delay_ms0:
001cfc   +  	__DELAY_USW 0xFA0
001d00 95a8      	wdr
001d01 9731      	sbiw r30,1
001d02 f7c9      	brne __delay_ms0
          __delay_ms1:
001d03 9508      	ret
         
          __ADDW2R15:
001d04 2400      	CLR  R0
001d05 0daf      	ADD  R26,R15
001d06 1db0      	ADC  R27,R0
001d07 9508      	RET
         
          __ADDD12:
001d08 0fea      	ADD  R30,R26
001d09 1ffb      	ADC  R31,R27
001d0a 1f68      	ADC  R22,R24
001d0b 1f79      	ADC  R23,R25
001d0c 9508      	RET
         
          __ADDD21:
001d0d 0fae      	ADD  R26,R30
001d0e 1fbf      	ADC  R27,R31
001d0f 1f86      	ADC  R24,R22
001d10 1f97      	ADC  R25,R23
001d11 9508      	RET
         
          __SUBD12:
001d12 1bea      	SUB  R30,R26
001d13 0bfb      	SBC  R31,R27
001d14 0b68      	SBC  R22,R24
001d15 0b79      	SBC  R23,R25
001d16 9508      	RET
         
          __SUBD21:
001d17 1bae      	SUB  R26,R30
001d18 0bbf      	SBC  R27,R31
001d19 0b86      	SBC  R24,R22
001d1a 0b97      	SBC  R25,R23
001d1b 9508      	RET
         
          __ANEGW1:
001d1c 95e0      	COM  R30
001d1d 95f0      	COM  R31
001d1e 9631      	ADIW R30,1
001d1f 9508      	RET
         
          __ANEGD1:
001d20 95e0      	COM  R30
001d21 95f0      	COM  R31
001d22 9560      	COM  R22
001d23 9570      	COM  R23
001d24 5fef      	SUBI R30,-1
001d25 4fff      	SBCI R31,-1
001d26 4f6f      	SBCI R22,-1
001d27 4f7f      	SBCI R23,-1
001d28 9508      	RET
         
          __LSRD12:
001d29 23ee      	TST  R30
001d2a 2e0e      	MOV  R0,R30
001d2b 01fd      	MOVW R30,R26
001d2c 01bc      	MOVW R22,R24
001d2d f031      	BREQ __LSRD12R
          __LSRD12L:
001d2e 9576      	LSR  R23
001d2f 9567      	ROR  R22
001d30 95f7      	ROR  R31
001d31 95e7      	ROR  R30
001d32 940a      	DEC  R0
001d33 f7d1      	BRNE __LSRD12L
          __LSRD12R:
001d34 9508      	RET
         
          __LSLW3:
001d35 0fee      	LSL  R30
001d36 1fff      	ROL  R31
          __LSLW2:
001d37 0fee      	LSL  R30
001d38 1fff      	ROL  R31
001d39 0fee      	LSL  R30
001d3a 1fff      	ROL  R31
001d3b 9508      	RET
         
          __LSRW3:
001d3c 95f6      	LSR  R31
001d3d 95e7      	ROR  R30
          __LSRW2:
001d3e 95f6      	LSR  R31
001d3f 95e7      	ROR  R30
001d40 95f6      	LSR  R31
001d41 95e7      	ROR  R30
001d42 9508      	RET
         
          __LSRD16:
001d43 2fe6      	MOV  R30,R22
001d44 2ff7      	MOV  R31,R23
001d45 e060      	LDI  R22,0
001d46 e070      	LDI  R23,0
001d47 9508      	RET
         
          __CWD1:
001d48 2f6f      	MOV  R22,R31
001d49 0f66      	ADD  R22,R22
001d4a 0b66      	SBC  R22,R22
001d4b 2f76      	MOV  R23,R22
001d4c 9508      	RET
         
          __EQB12:
001d4d 17ea      	CP   R30,R26
001d4e e0e1      	LDI  R30,1
001d4f f009      	BREQ __EQB12T
001d50 27ee      	CLR  R30
          __EQB12T:
001d51 9508      	RET
         
          __LTW12:
001d52 17ae      	CP   R26,R30
001d53 07bf      	CPC  R27,R31
001d54 e0e1      	LDI  R30,1
001d55 f00c      	BRLT __LTW12T
001d56 27ee      	CLR  R30
          __LTW12T:
001d57 9508      	RET
         
          __GTW12:
001d58 17ea      	CP   R30,R26
001d59 07fb      	CPC  R31,R27
001d5a e0e1      	LDI  R30,1
001d5b f00c      	BRLT __GTW12T
001d5c 27ee      	CLR  R30
          __GTW12T:
001d5d 9508      	RET
         
          __MULW12U:
001d5e 9ffa      	MUL  R31,R26
001d5f 2df0      	MOV  R31,R0
001d60 9feb      	MUL  R30,R27
001d61 0df0      	ADD  R31,R0
001d62 9fea      	MUL  R30,R26
001d63 2de0      	MOV  R30,R0
001d64 0df1      	ADD  R31,R1
001d65 9508      	RET
         
          __MULD12U:
001d66 9f7a      	MUL  R23,R26
001d67 2d70      	MOV  R23,R0
001d68 9f6b      	MUL  R22,R27
001d69 0d70      	ADD  R23,R0
001d6a 9ff8      	MUL  R31,R24
001d6b 0d70      	ADD  R23,R0
001d6c 9fe9      	MUL  R30,R25
001d6d 0d70      	ADD  R23,R0
001d6e 9f6a      	MUL  R22,R26
001d6f 2d60      	MOV  R22,R0
001d70 0d71      	ADD  R23,R1
001d71 9ffb      	MUL  R31,R27
001d72 0d60      	ADD  R22,R0
001d73 1d71      	ADC  R23,R1
001d74 9fe8      	MUL  R30,R24
001d75 0d60      	ADD  R22,R0
001d76 1d71      	ADC  R23,R1
001d77 2788      	CLR  R24
001d78 9ffa      	MUL  R31,R26
001d79 2df0      	MOV  R31,R0
001d7a 0d61      	ADD  R22,R1
001d7b 1f78      	ADC  R23,R24
001d7c 9feb      	MUL  R30,R27
001d7d 0df0      	ADD  R31,R0
001d7e 1d61      	ADC  R22,R1
001d7f 1f78      	ADC  R23,R24
001d80 9fea      	MUL  R30,R26
001d81 2de0      	MOV  R30,R0
001d82 0df1      	ADD  R31,R1
001d83 1f68      	ADC  R22,R24
001d84 1f78      	ADC  R23,R24
001d85 9508      	RET
         
          __DIVW21U:
001d86 2400      	CLR  R0
001d87 2411      	CLR  R1
001d88 e190      	LDI  R25,16
          __DIVW21U1:
001d89 0faa      	LSL  R26
001d8a 1fbb      	ROL  R27
001d8b 1c00      	ROL  R0
001d8c 1c11      	ROL  R1
001d8d 1a0e      	SUB  R0,R30
001d8e 0a1f      	SBC  R1,R31
001d8f f418      	BRCC __DIVW21U2
001d90 0e0e      	ADD  R0,R30
001d91 1e1f      	ADC  R1,R31
001d92 c001      	RJMP __DIVW21U3
          __DIVW21U2:
001d93 60a1      	SBR  R26,1
          __DIVW21U3:
001d94 959a      	DEC  R25
001d95 f799      	BRNE __DIVW21U1
001d96 01fd      	MOVW R30,R26
001d97 01d0      	MOVW R26,R0
001d98 9508      	RET
         
          __GETW1P:
001d99 91ed      	LD   R30,X+
001d9a 91fc      	LD   R31,X
001d9b 9711      	SBIW R26,1
001d9c 9508      	RET
         
          __GETW1PF:
001d9d 9005      	LPM  R0,Z+
001d9e 91f4      	LPM  R31,Z
001d9f 2de0      	MOV  R30,R0
001da0 9508      	RET
         
          __PUTPARD1LDEC:
001da1 9731      	SBIW R30,1
          __PUTPARD1L:
001da2 e060      	LDI  R22,0
001da3 e070      	LDI  R23,0
          __PUTPARD1:
001da4 937a      	ST   -Y,R23
001da5 936a      	ST   -Y,R22
001da6 93fa      	ST   -Y,R31
001da7 93ea      	ST   -Y,R30
001da8 9508      	RET
         
          __SWAPD12:
001da9 2e18      	MOV  R1,R24
001daa 2f86      	MOV  R24,R22
001dab 2d61      	MOV  R22,R1
001dac 2e19      	MOV  R1,R25
001dad 2f97      	MOV  R25,R23
001dae 2d71      	MOV  R23,R1
         
          __SWAPW12:
001daf 2e1b      	MOV  R1,R27
001db0 2fbf      	MOV  R27,R31
001db1 2df1      	MOV  R31,R1
         
          __SWAPB12:
001db2 2e1a      	MOV  R1,R26
001db3 2fae      	MOV  R26,R30
001db4 2de1      	MOV  R30,R1
001db5 9508      	RET
         
          __EEPROMRDD:
001db6 9612      	ADIW R26,2
001db7 d003      	RCALL __EEPROMRDW
001db8 2f7f      	MOV  R23,R31
001db9 2f6e      	MOV  R22,R30
001dba 9712      	SBIW R26,2
         
          __EEPROMRDW:
001dbb 9611      	ADIW R26,1
001dbc d002      	RCALL __EEPROMRDB
001dbd 2ffe      	MOV  R31,R30
001dbe 9711      	SBIW R26,1
         
          __EEPROMRDB:
001dbf 99e1      	SBIC EECR,EEWE
001dc0 cffe      	RJMP __EEPROMRDB
001dc1 93ff      	PUSH R31
001dc2 b7ff      	IN   R31,SREG
001dc3 94f8      	CLI
001dc4 bbae      	OUT  EEARL,R26
001dc5 bbbf      	OUT  EEARH,R27
001dc6 9ae0      	SBI  EECR,EERE
001dc7 b3ed      	IN   R30,EEDR
001dc8 bfff      	OUT  SREG,R31
001dc9 91ff      	POP  R31
001dca 9508      	RET
         
          __EEPROMWRD:
001dcb d00a      	RCALL __EEPROMWRW
001dcc 9612      	ADIW R26,2
001dcd 2e0e      	MOV  R0,R30
001dce 2e1f      	MOV  R1,R31
001dcf 2fe6      	MOV  R30,R22
001dd0 2ff7      	MOV  R31,R23
001dd1 d004      	RCALL __EEPROMWRW
001dd2 2de0      	MOV  R30,R0
001dd3 2df1      	MOV  R31,R1
001dd4 9712      	SBIW R26,2
001dd5 9508      	RET
         
          __EEPROMWRW:
001dd6 d007      	RCALL __EEPROMWRB
001dd7 9611      	ADIW R26,1
001dd8 93ef      	PUSH R30
001dd9 2fef      	MOV  R30,R31
001dda d003      	RCALL __EEPROMWRB
001ddb 91ef      	POP  R30
001ddc 9711      	SBIW R26,1
001ddd 9508      	RET
         
          __EEPROMWRB:
001dde 99e1      	SBIC EECR,EEWE
001ddf cffe      	RJMP __EEPROMWRB
001de0 b79f      	IN   R25,SREG
001de1 94f8      	CLI
001de2 bbae      	OUT  EEARL,R26
001de3 bbbf      	OUT  EEARH,R27
001de4 9ae0      	SBI  EECR,EERE
001de5 b38d      	IN   R24,EEDR
001de6 17e8      	CP   R30,R24
001de7 f019      	BREQ __EEPROMWRB0
001de8 bbed      	OUT  EEDR,R30
001de9 9ae2      	SBI  EECR,EEMWE
001dea 9ae1      	SBI  EECR,EEWE
          __EEPROMWRB0:
001deb bf9f      	OUT  SREG,R25
001dec 9508      	RET
         
          __REPACK:
001ded e850      	LDI  R21,0x80
001dee 2757      	EOR  R21,R23
001def f411      	BRNE __REPACK0
001df0 935f      	PUSH R21
001df1 c0d1      	RJMP __ZERORES
          __REPACK0:
001df2 3f5f      	CPI  R21,0xFF
001df3 f031      	BREQ __REPACK1
001df4 0f66      	LSL  R22
001df5 0c00      	LSL  R0
001df6 9557      	ROR  R21
001df7 9567      	ROR  R22
001df8 2f75      	MOV  R23,R21
001df9 9508      	RET
          __REPACK1:
001dfa 935f      	PUSH R21
001dfb 2000      	TST  R0
001dfc f00a      	BRMI __REPACK2
001dfd c0cb      	RJMP __MAXRES
          __REPACK2:
001dfe c0be      	RJMP __MINRES
         
          __UNPACK:
001dff e850      	LDI  R21,0x80
001e00 2e19      	MOV  R1,R25
001e01 2215      	AND  R1,R21
001e02 0f88      	LSL  R24
001e03 1f99      	ROL  R25
001e04 2795      	EOR  R25,R21
001e05 0f55      	LSL  R21
001e06 9587      	ROR  R24
         
          __UNPACK1:
001e07 e850      	LDI  R21,0x80
001e08 2e07      	MOV  R0,R23
001e09 2205      	AND  R0,R21
001e0a 0f66      	LSL  R22
001e0b 1f77      	ROL  R23
001e0c 2775      	EOR  R23,R21
001e0d 0f55      	LSL  R21
001e0e 9567      	ROR  R22
001e0f 9508      	RET
         
          __CFD1:
001e10 935f      	PUSH R21
001e11 dff5      	RCALL __UNPACK1
001e12 3870      	CPI  R23,0x80
001e13 f018      	BRLO __CFD10
001e14 3f7f      	CPI  R23,0xFF
001e15 f408      	BRCC __CFD10
001e16 c0ac      	RJMP __ZERORES
          __CFD10:
001e17 e156      	LDI  R21,22
001e18 1b57      	SUB  R21,R23
001e19 f492      	BRPL __CFD11
001e1a 9551      	NEG  R21
001e1b 3058      	CPI  R21,8
001e1c f028      	BRLO __CFD17
001e1d efef      	SER  R30
001e1e efff      	SER  R31
001e1f ef6f      	SER  R22
001e20 e77f      	LDI  R23,0x7F
001e21 c01a      	RJMP __CFD15
          __CFD17:
001e22 2777      	CLR  R23
001e23 2355      	TST  R21
001e24 f0b9      	BREQ __CFD15
          __CFD18:
001e25 0fee      	LSL  R30
001e26 1fff      	ROL  R31
001e27 1f66      	ROL  R22
001e28 1f77      	ROL  R23
001e29 955a      	DEC  R21
001e2a f7d1      	BRNE __CFD18
001e2b c010      	RJMP __CFD15
          __CFD11:
001e2c 2777      	CLR  R23
          __CFD12:
001e2d 3058      	CPI  R21,8
001e2e f028      	BRLO __CFD13
001e2f 2fef      	MOV  R30,R31
001e30 2ff6      	MOV  R31,R22
001e31 2f67      	MOV  R22,R23
001e32 5058      	SUBI R21,8
001e33 cff9      	RJMP __CFD12
          __CFD13:
001e34 2355      	TST  R21
001e35 f031      	BREQ __CFD15
          __CFD14:
001e36 9576      	LSR  R23
001e37 9567      	ROR  R22
001e38 95f7      	ROR  R31
001e39 95e7      	ROR  R30
001e3a 955a      	DEC  R21
001e3b f7d1      	BRNE __CFD14
          __CFD15:
001e3c 2000      	TST  R0
001e3d f40a      	BRPL __CFD16
001e3e dee1      	RCALL __ANEGD1
          __CFD16:
001e3f 915f      	POP  R21
001e40 9508      	RET
         
          __CDF1U:
001e41 9468      	SET
001e42 c001      	RJMP __CDF1U0
          __CDF1:
001e43 94e8      	CLT
          __CDF1U0:
001e44 9730      	SBIW R30,0
001e45 4060      	SBCI R22,0
001e46 4070      	SBCI R23,0
001e47 f0b1      	BREQ __CDF10
001e48 2400      	CLR  R0
001e49 f026      	BRTS __CDF11
001e4a 2377      	TST  R23
001e4b f412      	BRPL __CDF11
001e4c 9400      	COM  R0
001e4d ded2      	RCALL __ANEGD1
          __CDF11:
001e4e 2e17      	MOV  R1,R23
001e4f e17e      	LDI  R23,30
001e50 2011      	TST  R1
          __CDF12:
001e51 f032      	BRMI __CDF13
001e52 957a      	DEC  R23
001e53 0fee      	LSL  R30
001e54 1fff      	ROL  R31
001e55 1f66      	ROL  R22
001e56 1c11      	ROL  R1
001e57 cff9      	RJMP __CDF12
          __CDF13:
001e58 2fef      	MOV  R30,R31
001e59 2ff6      	MOV  R31,R22
001e5a 2d61      	MOV  R22,R1
001e5b 935f      	PUSH R21
001e5c df90      	RCALL __REPACK
001e5d 915f      	POP  R21
          __CDF10:
001e5e 9508      	RET
         
          __SWAPACC:
001e5f 2f5e      	MOV  R21,R30
001e60 2fea      	MOV  R30,R26
001e61 2fa5      	MOV  R26,R21
001e62 2f5f      	MOV  R21,R31
001e63 2ffb      	MOV  R31,R27
001e64 2fb5      	MOV  R27,R21
001e65 2f56      	MOV  R21,R22
001e66 2f68      	MOV  R22,R24
001e67 2f85      	MOV  R24,R21
001e68 2f57      	MOV  R21,R23
001e69 2f79      	MOV  R23,R25
001e6a 2f95      	MOV  R25,R21
001e6b 2d50      	MOV  R21,R0
001e6c 2c01      	MOV  R0,R1
001e6d 2e15      	MOV  R1,R21
001e6e 9508      	RET
         
          __UADD12:
001e6f 0fea      	ADD  R30,R26
001e70 1ffb      	ADC  R31,R27
001e71 1f68      	ADC  R22,R24
001e72 9508      	RET
         
          __NEGMAN1:
001e73 95e0      	COM  R30
001e74 95f0      	COM  R31
001e75 9560      	COM  R22
001e76 5fef      	SUBI R30,-1
001e77 4fff      	SBCI R31,-1
001e78 4f6f      	SBCI R22,-1
001e79 9508      	RET
         
          __SUBF12:
001e7a 935f      	PUSH R21
001e7b df83      	RCALL __UNPACK
001e7c 3890      	CPI  R25,0x80
001e7d f171      	BREQ __ADDF129
001e7e e850      	LDI  R21,0x80
001e7f 2615      	EOR  R1,R21
         
001e80 c004      	RJMP __ADDF120
         
          __ADDF12:
001e81 935f      	PUSH R21
001e82 df7c      	RCALL __UNPACK
001e83 3890      	CPI  R25,0x80
001e84 f139      	BREQ __ADDF129
         
          __ADDF120:
001e85 3870      	CPI  R23,0x80
001e86 f121      	BREQ __ADDF128
          __ADDF121:
001e87 2f57      	MOV  R21,R23
001e88 1b59      	SUB  R21,R25
001e89 f113      	BRVS __ADDF129
001e8a f412      	BRPL __ADDF122
001e8b dfd3      	RCALL __SWAPACC
001e8c cffa      	RJMP __ADDF121
          __ADDF122:
001e8d 3158      	CPI  R21,24
001e8e f018      	BRLO __ADDF123
001e8f 27aa      	CLR  R26
001e90 27bb      	CLR  R27
001e91 2788      	CLR  R24
          __ADDF123:
001e92 3058      	CPI  R21,8
001e93 f028      	BRLO __ADDF124
001e94 2fab      	MOV  R26,R27
001e95 2fb8      	MOV  R27,R24
001e96 2788      	CLR  R24
001e97 5058      	SUBI R21,8
001e98 cff9      	RJMP __ADDF123
          __ADDF124:
001e99 2355      	TST  R21
001e9a f029      	BREQ __ADDF126
          __ADDF125:
001e9b 9586      	LSR  R24
001e9c 95b7      	ROR  R27
001e9d 95a7      	ROR  R26
001e9e 955a      	DEC  R21
001e9f f7d9      	BRNE __ADDF125
          __ADDF126:
001ea0 2d50      	MOV  R21,R0
001ea1 2551      	EOR  R21,R1
001ea2 f062      	BRMI __ADDF127
001ea3 dfcb      	RCALL __UADD12
001ea4 f438      	BRCC __ADDF129
001ea5 9567      	ROR  R22
001ea6 95f7      	ROR  R31
001ea7 95e7      	ROR  R30
001ea8 9573      	INC  R23
001ea9 f413      	BRVC __ADDF129
001eaa c01e      	RJMP __MAXRES
          __ADDF128:
001eab dfb3      	RCALL __SWAPACC
          __ADDF129:
001eac df40      	RCALL __REPACK
001ead 915f      	POP  R21
001eae 9508      	RET
          __ADDF127:
001eaf 1bea      	SUB  R30,R26
001eb0 0bfb      	SBC  R31,R27
001eb1 0b68      	SBC  R22,R24
001eb2 f081      	BREQ __ZERORES
001eb3 f410      	BRCC __ADDF1210
001eb4 9400      	COM  R0
001eb5 dfbd      	RCALL __NEGMAN1
          __ADDF1210:
001eb6 2366      	TST  R22
001eb7 f3a2      	BRMI __ADDF129
001eb8 0fee      	LSL  R30
001eb9 1fff      	ROL  R31
001eba 1f66      	ROL  R22
001ebb 957a      	DEC  R23
001ebc f7cb      	BRVC __ADDF1210
         
          __MINRES:
001ebd efef      	SER  R30
001ebe efff      	SER  R31
001ebf e76f      	LDI  R22,0x7F
001ec0 ef7f      	SER  R23
001ec1 915f      	POP  R21
001ec2 9508      	RET
         
          __ZERORES:
001ec3 27ee      	CLR  R30
001ec4 27ff      	CLR  R31
001ec5 2766      	CLR  R22
001ec6 2777      	CLR  R23
001ec7 915f      	POP  R21
001ec8 9508      	RET
         
          __MAXRES:
001ec9 efef      	SER  R30
001eca efff      	SER  R31
001ecb e76f      	LDI  R22,0x7F
001ecc e77f      	LDI  R23,0x7F
001ecd 915f      	POP  R21
001ece 9508      	RET
         
          __MULF12:
001ecf 935f      	PUSH R21
001ed0 df2e      	RCALL __UNPACK
001ed1 3870      	CPI  R23,0x80
001ed2 f381      	BREQ __ZERORES
001ed3 3890      	CPI  R25,0x80
001ed4 f371      	BREQ __ZERORES
001ed5 2401      	EOR  R0,R1
001ed6 9408      	SEC
001ed7 1f79      	ADC  R23,R25
001ed8 f423      	BRVC __MULF124
001ed9 f34c      	BRLT __ZERORES
          __MULF125:
001eda 2000      	TST  R0
001edb f30a      	BRMI __MINRES
001edc cfec      	RJMP __MAXRES
          __MULF124:
001edd 933f      	PUSH R19
001ede 934f      	PUSH R20
001edf 2411      	CLR  R1
001ee0 2733      	CLR  R19
001ee1 2744      	CLR  R20
001ee2 2755      	CLR  R21
001ee3 e198      	LDI  R25,24
          __MULF120:
001ee4 0f33      	LSL  R19
001ee5 1f44      	ROL  R20
001ee6 1f55      	ROL  R21
001ee7 1fee      	ROL  R30
001ee8 1fff      	ROL  R31
001ee9 1f66      	ROL  R22
001eea f430      	BRCC __MULF121
001eeb 0f3a      	ADD  R19,R26
001eec 1f4b      	ADC  R20,R27
001eed 1f58      	ADC  R21,R24
001eee 1de1      	ADC  R30,R1
001eef 1df1      	ADC  R31,R1
001ef0 1d61      	ADC  R22,R1
          __MULF121:
001ef1 959a      	DEC  R25
001ef2 f789      	BRNE __MULF120
001ef3 914f      	POP  R20
001ef4 913f      	POP  R19
001ef5 2366      	TST  R22
001ef6 f02a      	BRMI __MULF122
001ef7 0f55      	LSL  R21
001ef8 1fee      	ROL  R30
001ef9 1fff      	ROL  R31
001efa 1f66      	ROL  R22
001efb c002      	RJMP __MULF123
          __MULF122:
001efc 9573      	INC  R23
001efd f2e3      	BRVS __MULF125
          __MULF123:
001efe deee      	RCALL __REPACK
001eff 915f      	POP  R21
001f00 9508      	RET
         
          __DIVF21:
001f01 935f      	PUSH R21
001f02 defc      	RCALL __UNPACK
001f03 3870      	CPI  R23,0x80
001f04 f419      	BRNE __DIVF210
001f05 2011      	TST  R1
          __DIVF211:
001f06 f612      	BRPL __MAXRES
001f07 cfb5      	RJMP __MINRES
          __DIVF210:
001f08 3890      	CPI  R25,0x80
001f09 f409      	BRNE __DIVF218
          __DIVF217:
001f0a cfb8      	RJMP __ZERORES
          __DIVF218:
001f0b 2401      	EOR  R0,R1
001f0c 9408      	SEC
001f0d 0b97      	SBC  R25,R23
001f0e f41b      	BRVC __DIVF216
001f0f f3d4      	BRLT __DIVF217
001f10 2000      	TST  R0
001f11 cff4      	RJMP __DIVF211
          __DIVF216:
001f12 2f79      	MOV  R23,R25
001f13 9566      	LSR  R22
001f14 95f7      	ROR  R31
001f15 95e7      	ROR  R30
001f16 9586      	LSR  R24
001f17 95b7      	ROR  R27
001f18 95a7      	ROR  R26
001f19 934f      	PUSH R20
001f1a 2411      	CLR  R1
001f1b 2744      	CLR  R20
001f1c 2755      	CLR  R21
001f1d e198      	LDI  R25,24
          __DIVF212:
001f1e 17ae      	CP   R26,R30
001f1f 07bf      	CPC  R27,R31
001f20 0786      	CPC  R24,R22
001f21 f028      	BRLO __DIVF213
001f22 1bae      	SUB  R26,R30
001f23 0bbf      	SBC  R27,R31
001f24 0b86      	SBC  R24,R22
001f25 9408      	SEC
001f26 c001      	RJMP __DIVF214
          __DIVF213:
001f27 9488      	CLC
          __DIVF214:
001f28 1c11      	ROL  R1
001f29 1f44      	ROL  R20
001f2a 1f55      	ROL  R21
001f2b 1faa      	ROL  R26
001f2c 1fbb      	ROL  R27
001f2d 1f88      	ROL  R24
001f2e 959a      	DEC  R25
001f2f f771      	BRNE __DIVF212
001f30 2de1      	MOV  R30,R1
001f31 2ff4      	MOV  R31,R20
001f32 2f65      	MOV  R22,R21
001f33 95a6      	LSR  R26
001f34 1fe9      	ADC  R30,R25
001f35 1ff9      	ADC  R31,R25
001f36 1f69      	ADC  R22,R25
001f37 914f      	POP  R20
001f38 2366      	TST  R22
001f39 f02a      	BRMI __DIVF215
001f3a 0fee      	LSL  R30
001f3b 1fff      	ROL  R31
001f3c 1f66      	ROL  R22
001f3d 957a      	DEC  R23
001f3e f25b      	BRVS __DIVF217
          __DIVF215:
001f3f dead      	RCALL __REPACK
001f40 915f      	POP  R21
001f41 9508      	RET
         
          __CPW02:
001f42 2400      	CLR  R0
001f43 160a      	CP   R0,R26
001f44 060b      	CPC  R0,R27
001f45 9508      	RET
         
          __CPD12:
001f46 17ea      	CP   R30,R26
001f47 07fb      	CPC  R31,R27
001f48 0768      	CPC  R22,R24
001f49 0779      	CPC  R23,R25
001f4a 9508      	RET
         
          __CPD21:
001f4b 17ae      	CP   R26,R30
001f4c 07bf      	CPC  R27,R31
001f4d 0786      	CPC  R24,R22
001f4e 0797      	CPC  R25,R23
001f4f 9508      	RET
         
          __SAVELOCR6:
001f50 935a      	ST   -Y,R21
          __SAVELOCR5:
001f51 934a      	ST   -Y,R20
          __SAVELOCR4:
001f52 933a      	ST   -Y,R19
          __SAVELOCR3:
001f53 932a      	ST   -Y,R18
          __SAVELOCR2:
001f54 931a      	ST   -Y,R17
001f55 930a      	ST   -Y,R16
001f56 9508      	RET
         
          __LOADLOCR6:
001f57 815d      	LDD  R21,Y+5
          __LOADLOCR5:
001f58 814c      	LDD  R20,Y+4
          __LOADLOCR4:
001f59 813b      	LDD  R19,Y+3
          __LOADLOCR3:
001f5a 812a      	LDD  R18,Y+2
          __LOADLOCR2:
001f5b 8119      	LDD  R17,Y+1
001f5c 8108      	LD   R16,Y
001f5d 9508      	RET
         
          __INITLOCB:
          __INITLOCW:
001f5e 0fac      	ADD R26,R28
001f5f 1fbd      	ADC R27,R29
          __INITLOC0:
001f60 9005      	LPM  R0,Z+
001f61 920d      	ST   X+,R0
001f62 958a      	DEC  R24
001f63 f7e1      	BRNE __INITLOC0
001f64 9508      	RET
         
         ;END OF CODE MARKER
          __END_OF_CODE:

Assembly complete with no errors.
