
PhorsePOV.elf:     file format elf32-avr


Disassembly of section .text:

00000000 <__vectors>:
   0:	fa c0       	rjmp	.+500    	; 0x1f6 <__ctors_end>
   2:	13 c1       	rjmp	.+550    	; 0x22a <__bad_interrupt>
   4:	12 c1       	rjmp	.+548    	; 0x22a <__bad_interrupt>
   6:	11 c1       	rjmp	.+546    	; 0x22a <__bad_interrupt>
   8:	10 c1       	rjmp	.+544    	; 0x22a <__bad_interrupt>
   a:	0f c1       	rjmp	.+542    	; 0x22a <__bad_interrupt>
   c:	0e c1       	rjmp	.+540    	; 0x22a <__bad_interrupt>
   e:	0d c1       	rjmp	.+538    	; 0x22a <__bad_interrupt>
  10:	0c c1       	rjmp	.+536    	; 0x22a <__bad_interrupt>
  12:	0b c1       	rjmp	.+534    	; 0x22a <__bad_interrupt>
  14:	ab c2       	rjmp	.+1366   	; 0x56c <__vector_10>
  16:	09 c1       	rjmp	.+530    	; 0x22a <__bad_interrupt>
  18:	08 c1       	rjmp	.+528    	; 0x22a <__bad_interrupt>
  1a:	07 c1       	rjmp	.+526    	; 0x22a <__bad_interrupt>
  1c:	06 c1       	rjmp	.+524    	; 0x22a <__bad_interrupt>

0000001e <kNumTable>:
  1e:	00 01       	movw	r0, r0
  20:	2e 20       	and	r2, r14
  22:	30 31       	cpi	r19, 0x10	; 16
  24:	23 07       	cpc	r18, r19
  26:	38 39       	cpi	r19, 0x98	; 152
  28:	32 33       	cpi	r19, 0x32	; 50
  2a:	34 35       	cpi	r19, 0x54	; 84
  2c:	36 37       	cpi	r19, 0x76	; 118
  2e:	28 3a       	cpi	r18, 0xA8	; 168
  30:	29 27       	eor	r18, r25
  32:	22 21       	and	r18, r2
  34:	40 2d       	mov	r20, r0
  36:	24 2b       	or	r18, r20
  38:	25 08       	sbc	r2, r5
  3a:	2a 3d       	cpi	r18, 0xDA	; 218
  3c:	2f 3b       	cpi	r18, 0xBF	; 191

0000003e <kAlphaTable>:
  3e:	00 01       	movw	r0, r0
  40:	2e 20       	and	r2, r14
  42:	53 5a       	subi	r21, 0xA3	; 163
  44:	06 07       	cpc	r16, r22
  46:	54 57       	subi	r21, 0x74	; 116
  48:	41 44       	sbci	r20, 0x41	; 65
  4a:	47 4a       	sbci	r20, 0xA7	; 167
  4c:	4d 50       	subi	r20, 0x0D	; 13
  4e:	55 56       	subi	r21, 0x65	; 101
  50:	58 59       	subi	r21, 0x98	; 152
  52:	42 43       	sbci	r20, 0x32	; 50
  54:	45 46       	sbci	r20, 0x65	; 101
  56:	48 49       	sbci	r20, 0x98	; 152
  58:	4b 4c       	sbci	r20, 0xCB	; 203
  5a:	4e 4f       	sbci	r20, 0xFE	; 254
  5c:	51 52       	subi	r21, 0x21	; 33

0000005e <kCharBitMap>:
	...
  66:	1d 00       	.word	0x001d	; ????
  68:	00 00       	nop
  6a:	00 05       	cpc	r16, r0
  6c:	00 05       	cpc	r16, r0
  6e:	00 00       	nop
  70:	06 1f       	adc	r16, r22
  72:	06 1f       	adc	r16, r22
  74:	06 00       	.word	0x0006	; ????
  76:	08 18       	sub	r0, r8
  78:	3f 06       	cpc	r3, r31
  7a:	04 00       	.word	0x0004	; ????
  7c:	0d 07       	cpc	r16, r29
  7e:	10 0e       	add	r1, r16
  80:	0b 00       	.word	0x000b	; ????
  82:	06 19       	sub	r16, r6
  84:	0e 02       	muls	r16, r30
  86:	18 00       	.word	0x0018	; ????
  88:	00 00       	nop
  8a:	05 00       	.word	0x0005	; ????
  8c:	00 00       	nop
  8e:	00 00       	nop
  90:	16 09       	sbc	r17, r6
  92:	00 00       	nop
  94:	00 00       	nop
  96:	09 16       	cp	r0, r25
  98:	00 00       	nop
  9a:	0c 12       	cpse	r0, r28
  9c:	1e 12       	cpse	r1, r30
  9e:	0c 00       	.word	0x000c	; ????
  a0:	10 10       	cpse	r1, r0
  a2:	1f 10       	cpse	r1, r15
  a4:	10 00       	.word	0x0010	; ????
  a6:	00 00       	nop
  a8:	20 08       	sbc	r2, r0
  aa:	00 00       	nop
  ac:	10 10       	cpse	r1, r0
  ae:	10 10       	cpse	r1, r0
  b0:	10 00       	.word	0x0010	; ????
  b2:	00 00       	nop
  b4:	08 00       	.word	0x0008	; ????
  b6:	00 00       	nop
  b8:	08 02       	muls	r16, r24
  ba:	10 04       	cpc	r1, r0
  bc:	01 00       	.word	0x0001	; ????
  be:	16 0b       	sbc	r17, r22
  c0:	19 0d       	add	r17, r9
  c2:	16 00       	.word	0x0016	; ????
  c4:	00 0c       	add	r0, r0
  c6:	1f 08       	sbc	r1, r15
  c8:	00 00       	nop
  ca:	0b 19       	sub	r16, r11
  cc:	19 19       	sub	r17, r9
  ce:	0c 00       	.word	0x000c	; ????
  d0:	09 19       	sub	r16, r9
  d2:	19 19       	sub	r17, r9
  d4:	06 00       	.word	0x0006	; ????
  d6:	12 06       	cpc	r1, r18
  d8:	03 1f       	adc	r16, r19
  da:	02 00       	.word	0x0002	; ????
  dc:	1d 19       	sub	r17, r13
  de:	19 19       	sub	r17, r9
  e0:	03 00       	.word	0x0003	; ????
  e2:	12 1c       	adc	r1, r2
  e4:	19 19       	sub	r17, r9
  e6:	03 00       	.word	0x0003	; ????
  e8:	01 01       	movw	r0, r2
  ea:	0b 11       	cpse	r16, r11
  ec:	05 00       	.word	0x0005	; ????
  ee:	06 19       	sub	r16, r6
  f0:	19 19       	sub	r17, r9
  f2:	06 00       	.word	0x0006	; ????
  f4:	04 19       	sub	r16, r4
  f6:	19 13       	cpse	r17, r25
  f8:	14 00       	.word	0x0014	; ????
  fa:	00 00       	nop
  fc:	18 00       	.word	0x0018	; ????
  fe:	00 00       	nop
 100:	00 00       	nop
 102:	20 18       	sub	r2, r0
 104:	00 00       	nop
 106:	00 10       	cpse	r0, r0
 108:	06 09       	sbc	r16, r6
 10a:	00 00       	nop
 10c:	06 06       	cpc	r0, r22
 10e:	06 06       	cpc	r0, r22
 110:	06 00       	.word	0x0006	; ????
 112:	00 09       	sbc	r16, r0
 114:	06 10       	cpse	r0, r6
 116:	00 00       	nop
 118:	04 01       	movw	r0, r8
 11a:	19 11       	cpse	r17, r9
 11c:	04 00       	.word	0x0004	; ????
 11e:	16 09       	sbc	r17, r6
 120:	1d 19       	sub	r17, r13
 122:	1c 00       	.word	0x001c	; ????
 124:	1e 11       	cpse	r17, r14
 126:	11 11       	cpse	r17, r1
 128:	1e 00       	.word	0x001e	; ????
 12a:	1f 19       	sub	r17, r15
 12c:	19 19       	sub	r17, r9
 12e:	06 00       	.word	0x0006	; ????
 130:	16 09       	sbc	r17, r6
 132:	09 09       	sbc	r16, r9
 134:	09 00       	.word	0x0009	; ????
 136:	1f 09       	sbc	r17, r15
 138:	09 06       	cpc	r0, r25
 13a:	10 00       	.word	0x0010	; ????
 13c:	1f 19       	sub	r17, r15
 13e:	19 19       	sub	r17, r9
 140:	09 00       	.word	0x0009	; ????
 142:	1f 11       	cpse	r17, r15
 144:	11 11       	cpse	r17, r1
 146:	01 00       	.word	0x0001	; ????
 148:	16 09       	sbc	r17, r6
 14a:	19 19       	sub	r17, r9
 14c:	1b 00       	.word	0x001b	; ????
 14e:	1f 10       	cpse	r1, r15
 150:	10 10       	cpse	r1, r0
 152:	1f 00       	.word	0x001f	; ????
 154:	00 09       	sbc	r16, r0
 156:	1f 09       	sbc	r17, r15
 158:	00 00       	nop
 15a:	00 08       	sbc	r0, r0
 15c:	09 17       	cp	r16, r25
 15e:	01 00       	.word	0x0001	; ????
 160:	00 1f       	adc	r16, r16
 162:	10 06       	cpc	r1, r16
 164:	09 00       	.word	0x0009	; ????
 166:	00 1f       	adc	r16, r16
 168:	08 08       	sbc	r0, r8
 16a:	08 00       	.word	0x0008	; ????
 16c:	1f 04       	cpc	r1, r15
 16e:	10 04       	cpc	r1, r0
 170:	1f 00       	.word	0x001f	; ????
 172:	1f 04       	cpc	r1, r15
 174:	10 02       	muls	r17, r16
 176:	1f 00       	.word	0x001f	; ????
 178:	16 09       	sbc	r17, r6
 17a:	09 09       	sbc	r16, r9
 17c:	16 00       	.word	0x0016	; ????
 17e:	1f 11       	cpse	r17, r15
 180:	11 11       	cpse	r17, r1
 182:	04 00       	.word	0x0004	; ????
 184:	16 09       	sbc	r17, r6
 186:	19 0b       	sbc	r17, r25
 188:	1e 00       	.word	0x001e	; ????
 18a:	1e 11       	cpse	r17, r14
 18c:	13 19       	sub	r17, r3
 18e:	0c 00       	.word	0x000c	; ????
 190:	04 19       	sub	r16, r4
 192:	19 19       	sub	r17, r9
 194:	02 00       	.word	0x0002	; ????
 196:	01 01       	movw	r0, r2
 198:	1f 01       	movw	r2, r30
 19a:	01 00       	.word	0x0001	; ????
 19c:	17 08       	sbc	r1, r7
 19e:	08 08       	sbc	r0, r8
 1a0:	17 00       	.word	0x0017	; ????
 1a2:	15 02       	muls	r17, r21
 1a4:	08 02       	muls	r16, r24
 1a6:	15 00       	.word	0x0015	; ????
 1a8:	17 08       	sbc	r1, r7
 1aa:	12 08       	sbc	r1, r2
 1ac:	17 00       	.word	0x0017	; ????
 1ae:	09 06       	cpc	r0, r25
 1b0:	10 06       	cpc	r1, r16
 1b2:	09 00       	.word	0x0009	; ????
 1b4:	01 04       	cpc	r0, r1
 1b6:	1a 04       	cpc	r1, r10
 1b8:	01 00       	.word	0x0001	; ????
 1ba:	09 0b       	sbc	r16, r25
 1bc:	19 0d       	add	r17, r9
 1be:	09 00       	.word	0x0009	; ????
 1c0:	00 00       	nop
 1c2:	1f 09       	sbc	r17, r15
 1c4:	00 00       	nop
 1c6:	16 09       	sbc	r17, r6
 1c8:	19 1f       	adc	r17, r25
 1ca:	16 00       	.word	0x0016	; ????
 1cc:	00 00       	nop
 1ce:	09 1f       	adc	r16, r25
 1d0:	00 00       	nop
 1d2:	00 00       	nop
 1d4:	3f 00       	.word	0x003f	; ????
	...

000001de <gRowPortSetting>:
 1de:	07 00       	.word	0x0007	; ????
 1e0:	03 01       	movw	r0, r6
 1e2:	06 04       	cpc	r0, r6
 1e4:	07 05       	cpc	r16, r7
 1e6:	07 00       	.word	0x0007	; ????
 1e8:	03 02       	muls	r16, r19
 1ea:	05 04       	cpc	r0, r5
 1ec:	07 06       	cpc	r0, r23
 1ee:	07 00       	.word	0x0007	; ????
 1f0:	06 02       	muls	r16, r22
 1f2:	05 01       	movw	r0, r10
 1f4:	07 03       	mulsu	r16, r23

000001f6 <__ctors_end>:
 1f6:	11 24       	eor	r1, r1
 1f8:	1f be       	out	0x3f, r1	; 63
 1fa:	cf ed       	ldi	r28, 0xDF	; 223
 1fc:	cd bf       	out	0x3d, r28	; 61

000001fe <__do_copy_data>:
 1fe:	10 e0       	ldi	r17, 0x00	; 0
 200:	a0 e6       	ldi	r26, 0x60	; 96
 202:	b0 e0       	ldi	r27, 0x00	; 0
 204:	ea ea       	ldi	r30, 0xAA	; 170
 206:	f6 e0       	ldi	r31, 0x06	; 6
 208:	03 c0       	rjmp	.+6      	; 0x210 <.do_copy_data_start>

0000020a <.do_copy_data_loop>:
 20a:	c8 95       	lpm
 20c:	31 96       	adiw	r30, 0x01	; 1
 20e:	0d 92       	st	X+, r0

00000210 <.do_copy_data_start>:
 210:	a8 36       	cpi	r26, 0x68	; 104
 212:	b1 07       	cpc	r27, r17
 214:	d1 f7       	brne	.-12     	; 0x20a <.do_copy_data_loop>

00000216 <__do_clear_bss>:
 216:	10 e0       	ldi	r17, 0x00	; 0
 218:	a8 e6       	ldi	r26, 0x68	; 104
 21a:	b0 e0       	ldi	r27, 0x00	; 0
 21c:	01 c0       	rjmp	.+2      	; 0x220 <.do_clear_bss_start>

0000021e <.do_clear_bss_loop>:
 21e:	1d 92       	st	X+, r1

00000220 <.do_clear_bss_start>:
 220:	a6 37       	cpi	r26, 0x76	; 118
 222:	b1 07       	cpc	r27, r17
 224:	e1 f7       	brne	.-8      	; 0x21e <.do_clear_bss_loop>
 226:	dd d1       	rcall	.+954    	; 0x5e2 <main>
 228:	3f c2       	rjmp	.+1150   	; 0x6a8 <_exit>

0000022a <__bad_interrupt>:
 22a:	ea ce       	rjmp	.-556    	; 0x0 <__vectors>

0000022c <DoPovScan>:
 22c:	70 e0       	ldi	r23, 0x00	; 0
 22e:	48 2f       	mov	r20, r24
 230:	55 27       	eor	r21, r21
 232:	60 91 72 00 	lds	r22, 0x0072
 236:	26 2f       	mov	r18, r22
 238:	33 27       	eor	r19, r19
 23a:	22 0f       	add	r18, r18
 23c:	33 1f       	adc	r19, r19
 23e:	02 2e       	mov	r0, r18
 240:	02 c0       	rjmp	.+4      	; 0x246 <DoPovScan+0x1a>
 242:	55 95       	asr	r21
 244:	47 95       	ror	r20
 246:	0a 94       	dec	r0
 248:	e2 f7       	brpl	.-8      	; 0x242 <DoPovScan+0x16>
 24a:	88 b3       	in	r24, 0x18	; 24
 24c:	8a 7f       	andi	r24, 0xFA	; 250
 24e:	88 bb       	out	0x18, r24	; 24
 250:	b3 2f       	mov	r27, r19
 252:	a2 2f       	mov	r26, r18
 254:	aa 0f       	add	r26, r26
 256:	bb 1f       	adc	r27, r27
 258:	43 70       	andi	r20, 0x03	; 3
 25a:	50 70       	andi	r21, 0x00	; 0
 25c:	a4 0f       	add	r26, r20
 25e:	b5 1f       	adc	r27, r21
 260:	aa 0f       	add	r26, r26
 262:	bb 1f       	adc	r27, r27
 264:	a2 52       	subi	r26, 0x22	; 34
 266:	be 4f       	sbci	r27, 0xFE	; 254
 268:	27 b3       	in	r18, 0x17	; 23
 26a:	28 7f       	andi	r18, 0xF8	; 248
 26c:	8a 2f       	mov	r24, r26
 26e:	9b 2f       	mov	r25, r27
 270:	11 96       	adiw	r26, 0x01	; 1
 272:	f9 2f       	mov	r31, r25
 274:	e8 2f       	mov	r30, r24
 276:	c8 95       	lpm
 278:	80 2d       	mov	r24, r0
 27a:	28 2b       	or	r18, r24
 27c:	27 bb       	out	0x17, r18	; 23
 27e:	88 b3       	in	r24, 0x18	; 24
 280:	88 7f       	andi	r24, 0xF8	; 248
 282:	fb 2f       	mov	r31, r27
 284:	ea 2f       	mov	r30, r26
 286:	c8 95       	lpm
 288:	90 2d       	mov	r25, r0
 28a:	89 2b       	or	r24, r25
 28c:	88 bb       	out	0x18, r24	; 24
 28e:	86 2f       	mov	r24, r22
 290:	8f 5f       	subi	r24, 0xFF	; 255
 292:	80 93 72 00 	sts	0x0072, r24
 296:	83 30       	cpi	r24, 0x03	; 3
 298:	60 f0       	brcs	.+24     	; 0x2b2 <DoPovScan+0x86>
 29a:	70 93 72 00 	sts	0x0072, r23
 29e:	80 91 71 00 	lds	r24, 0x0071
 2a2:	8f 5f       	subi	r24, 0xFF	; 255
 2a4:	80 93 71 00 	sts	0x0071, r24
 2a8:	82 30       	cpi	r24, 0x02	; 2
 2aa:	18 f0       	brcs	.+6      	; 0x2b2 <DoPovScan+0x86>
 2ac:	70 93 71 00 	sts	0x0071, r23
 2b0:	71 e0       	ldi	r23, 0x01	; 1
 2b2:	87 2f       	mov	r24, r23
 2b4:	99 27       	eor	r25, r25
 2b6:	08 95       	ret

000002b8 <ResetPov>:
 2b8:	8f ef       	ldi	r24, 0xFF	; 255
 2ba:	80 93 64 00 	sts	0x0064, r24
 2be:	10 92 70 00 	sts	0x0070, r1
 2c2:	10 92 6f 00 	sts	0x006F, r1
 2c6:	10 92 6e 00 	sts	0x006E, r1
 2ca:	81 e0       	ldi	r24, 0x01	; 1
 2cc:	80 93 65 00 	sts	0x0065, r24
 2d0:	10 92 73 00 	sts	0x0073, r1
 2d4:	08 95       	ret

000002d6 <E2PromRdCh>:
 2d6:	e1 99       	sbic	0x1c, 1	; 28
 2d8:	fe cf       	rjmp	.-4      	; 0x2d6 <E2PromRdCh>
 2da:	9f bb       	out	0x1f, r25	; 31
 2dc:	8e bb       	out	0x1e, r24	; 30
 2de:	e0 9a       	sbi	0x1c, 0	; 28
 2e0:	8d b3       	in	r24, 0x1d	; 29
 2e2:	99 27       	eor	r25, r25
 2e4:	87 fd       	sbrc	r24, 7
 2e6:	90 95       	com	r25
 2e8:	08 95       	ret

000002ea <PovMsg>:
 2ea:	cf 93       	push	r28
 2ec:	30 e0       	ldi	r19, 0x00	; 0
 2ee:	c0 91 6f 00 	lds	r28, 0x006F
 2f2:	80 91 70 00 	lds	r24, 0x0070
 2f6:	88 3a       	cpi	r24, 0xA8	; 168
 2f8:	e0 f0       	brcs	.+56     	; 0x332 <PovMsg+0x48>
 2fa:	30 93 70 00 	sts	0x0070, r19
 2fe:	80 91 73 00 	lds	r24, 0x0073
 302:	8f 5f       	subi	r24, 0xFF	; 255
 304:	80 93 73 00 	sts	0x0073, r24
 308:	80 91 64 00 	lds	r24, 0x0064
 30c:	8f 5f       	subi	r24, 0xFF	; 255
 30e:	80 93 64 00 	sts	0x0064, r24
 312:	86 30       	cpi	r24, 0x06	; 6
 314:	70 f0       	brcs	.+28     	; 0x332 <PovMsg+0x48>
 316:	20 91 6a 00 	lds	r18, 0x006A
 31a:	98 2f       	mov	r25, r24
 31c:	cf 5f       	subi	r28, 0xFF	; 255
 31e:	c2 17       	cp	r28, r18
 320:	08 f0       	brcs	.+2      	; 0x324 <PovMsg+0x3a>
 322:	c0 e0       	ldi	r28, 0x00	; 0
 324:	89 2f       	mov	r24, r25
 326:	86 50       	subi	r24, 0x06	; 6
 328:	98 2f       	mov	r25, r24
 32a:	86 30       	cpi	r24, 0x06	; 6
 32c:	b8 f7       	brcc	.-18     	; 0x31c <PovMsg+0x32>
 32e:	80 93 64 00 	sts	0x0064, r24
 332:	20 91 70 00 	lds	r18, 0x0070
 336:	26 30       	cpi	r18, 0x06	; 6
 338:	89 f4       	brne	.+34     	; 0x35c <PovMsg+0x72>
 33a:	c0 93 6e 00 	sts	0x006E, r28
 33e:	90 91 64 00 	lds	r25, 0x0064
 342:	90 93 67 00 	sts	0x0067, r25
 346:	80 91 65 00 	lds	r24, 0x0065
 34a:	87 ff       	sbrs	r24, 7
 34c:	07 c0       	rjmp	.+14     	; 0x35c <PovMsg+0x72>
 34e:	c5 5f       	subi	r28, 0xF5	; 245
 350:	c0 93 6e 00 	sts	0x006E, r28
 354:	cb 50       	subi	r28, 0x0B	; 11
 356:	9b 5f       	subi	r25, 0xFB	; 251
 358:	90 93 67 00 	sts	0x0067, r25
 35c:	26 50       	subi	r18, 0x06	; 6
 35e:	28 34       	cpi	r18, 0x48	; 72
 360:	08 f0       	brcs	.+2      	; 0x364 <PovMsg+0x7a>
 362:	40 c0       	rjmp	.+128    	; 0x3e4 <PovMsg+0xfa>
 364:	80 91 67 00 	lds	r24, 0x0067
 368:	86 30       	cpi	r24, 0x06	; 6
 36a:	b0 f0       	brcs	.+44     	; 0x398 <PovMsg+0xae>
 36c:	99 27       	eor	r25, r25
 36e:	20 91 65 00 	lds	r18, 0x0065
 372:	12 16       	cp	r1, r18
 374:	14 f4       	brge	.+4      	; 0x37a <PovMsg+0x90>
 376:	86 50       	subi	r24, 0x06	; 6
 378:	01 c0       	rjmp	.+2      	; 0x37c <PovMsg+0x92>
 37a:	8a 5f       	subi	r24, 0xFA	; 250
 37c:	80 93 67 00 	sts	0x0067, r24
 380:	80 91 6e 00 	lds	r24, 0x006E
 384:	82 0f       	add	r24, r18
 386:	80 93 6e 00 	sts	0x006E, r24
 38a:	90 91 6a 00 	lds	r25, 0x006A
 38e:	89 17       	cp	r24, r25
 390:	18 f0       	brcs	.+6      	; 0x398 <PovMsg+0xae>
 392:	89 1b       	sub	r24, r25
 394:	80 93 6e 00 	sts	0x006E, r24
 398:	80 91 6a 00 	lds	r24, 0x006A
 39c:	88 23       	and	r24, r24
 39e:	d9 f0       	breq	.+54     	; 0x3d6 <PovMsg+0xec>
 3a0:	80 91 6e 00 	lds	r24, 0x006E
 3a4:	99 27       	eor	r25, r25
 3a6:	8f 5d       	subi	r24, 0xDF	; 223
 3a8:	9f 4f       	sbci	r25, 0xFF	; 255
 3aa:	95 df       	rcall	.-214    	; 0x2d6 <E2PromRdCh>
 3ac:	99 27       	eor	r25, r25
 3ae:	87 fd       	sbrc	r24, 7
 3b0:	90 95       	com	r25
 3b2:	f9 2f       	mov	r31, r25
 3b4:	e8 2f       	mov	r30, r24
 3b6:	ee 0f       	add	r30, r30
 3b8:	ff 1f       	adc	r31, r31
 3ba:	ee 0f       	add	r30, r30
 3bc:	ff 1f       	adc	r31, r31
 3be:	e8 0f       	add	r30, r24
 3c0:	f9 1f       	adc	r31, r25
 3c2:	e8 0f       	add	r30, r24
 3c4:	f9 1f       	adc	r31, r25
 3c6:	80 91 67 00 	lds	r24, 0x0067
 3ca:	e8 0f       	add	r30, r24
 3cc:	f1 1d       	adc	r31, r1
 3ce:	e2 56       	subi	r30, 0x62	; 98
 3d0:	f0 40       	sbci	r31, 0x00	; 0
 3d2:	c8 95       	lpm
 3d4:	30 2d       	mov	r19, r0
 3d6:	80 91 67 00 	lds	r24, 0x0067
 3da:	90 91 65 00 	lds	r25, 0x0065
 3de:	89 0f       	add	r24, r25
 3e0:	80 93 67 00 	sts	0x0067, r24
 3e4:	90 91 70 00 	lds	r25, 0x0070
 3e8:	9a 32       	cpi	r25, 0x2A	; 42
 3ea:	11 f0       	breq	.+4      	; 0x3f0 <PovMsg+0x106>
 3ec:	99 23       	and	r25, r25
 3ee:	21 f4       	brne	.+8      	; 0x3f8 <PovMsg+0x10e>
 3f0:	80 91 73 00 	lds	r24, 0x0073
 3f4:	80 fd       	sbrc	r24, 0
 3f6:	30 62       	ori	r19, 0x20	; 32
 3f8:	9f 5f       	subi	r25, 0xFF	; 255
 3fa:	90 93 70 00 	sts	0x0070, r25
 3fe:	c0 93 6f 00 	sts	0x006F, r28
 402:	83 2f       	mov	r24, r19
 404:	99 27       	eor	r25, r25
 406:	cf 91       	pop	r28
 408:	08 95       	ret

0000040a <PhorseButton>:
 40a:	b3 99       	sbic	0x16, 3	; 22
 40c:	17 c0       	rjmp	.+46     	; 0x43c <PhorseButton+0x32>
 40e:	80 91 6d 00 	lds	r24, 0x006D
 412:	8f 3f       	cpi	r24, 0xFF	; 255
 414:	19 f0       	breq	.+6      	; 0x41c <PhorseButton+0x12>
 416:	8f 5f       	subi	r24, 0xFF	; 255
 418:	80 93 6d 00 	sts	0x006D, r24
 41c:	80 91 6d 00 	lds	r24, 0x006D
 420:	8e 36       	cpi	r24, 0x6E	; 110
 422:	49 f4       	brne	.+18     	; 0x436 <PhorseButton+0x2c>
 424:	90 e0       	ldi	r25, 0x00	; 0
 426:	80 91 6b 00 	lds	r24, 0x006B
 42a:	88 23       	and	r24, r24
 42c:	09 f4       	brne	.+2      	; 0x430 <PhorseButton+0x26>
 42e:	91 e0       	ldi	r25, 0x01	; 1
 430:	90 93 6b 00 	sts	0x006B, r25
 434:	41 df       	rcall	.-382    	; 0x2b8 <ResetPov>
 436:	10 92 6c 00 	sts	0x006C, r1
 43a:	08 95       	ret
 43c:	80 91 6c 00 	lds	r24, 0x006C
 440:	8f 3f       	cpi	r24, 0xFF	; 255
 442:	19 f0       	breq	.+6      	; 0x44a <PhorseButton+0x40>
 444:	8f 5f       	subi	r24, 0xFF	; 255
 446:	80 93 6c 00 	sts	0x006C, r24
 44a:	20 91 6d 00 	lds	r18, 0x006D
 44e:	82 2f       	mov	r24, r18
 450:	82 50       	subi	r24, 0x02	; 2
 452:	8c 36       	cpi	r24, 0x6C	; 108
 454:	50 f4       	brcc	.+20     	; 0x46a <PhorseButton+0x60>
 456:	80 91 63 00 	lds	r24, 0x0063
 45a:	99 27       	eor	r25, r25
 45c:	88 0f       	add	r24, r24
 45e:	99 1f       	adc	r25, r25
 460:	2b 30       	cpi	r18, 0x0B	; 11
 462:	08 f0       	brcs	.+2      	; 0x466 <PhorseButton+0x5c>
 464:	81 60       	ori	r24, 0x01	; 1
 466:	80 93 63 00 	sts	0x0063, r24
 46a:	80 91 6c 00 	lds	r24, 0x006C
 46e:	8b 30       	cpi	r24, 0x0B	; 11
 470:	50 f0       	brcs	.+20     	; 0x486 <PhorseButton+0x7c>
 472:	90 91 62 00 	lds	r25, 0x0062
 476:	91 30       	cpi	r25, 0x01	; 1
 478:	31 f4       	brne	.+12     	; 0x486 <PhorseButton+0x7c>
 47a:	80 91 63 00 	lds	r24, 0x0063
 47e:	80 93 62 00 	sts	0x0062, r24
 482:	90 93 63 00 	sts	0x0063, r25
 486:	10 92 6d 00 	sts	0x006D, r1
 48a:	08 95       	ret

0000048c <KeyGet>:
 48c:	90 91 62 00 	lds	r25, 0x0062
 490:	91 30       	cpi	r25, 0x01	; 1
 492:	19 f0       	breq	.+6      	; 0x49a <KeyGet+0xe>
 494:	81 e0       	ldi	r24, 0x01	; 1
 496:	80 93 62 00 	sts	0x0062, r24
 49a:	96 30       	cpi	r25, 0x06	; 6
 49c:	19 f4       	brne	.+6      	; 0x4a4 <KeyGet+0x18>
 49e:	8e e1       	ldi	r24, 0x1E	; 30
 4a0:	90 e0       	ldi	r25, 0x00	; 0
 4a2:	04 c0       	rjmp	.+8      	; 0x4ac <KeyGet+0x20>
 4a4:	97 30       	cpi	r25, 0x07	; 7
 4a6:	41 f4       	brne	.+16     	; 0x4b8 <KeyGet+0x2c>
 4a8:	8e e3       	ldi	r24, 0x3E	; 62
 4aa:	90 e0       	ldi	r25, 0x00	; 0
 4ac:	90 93 61 00 	sts	0x0061, r25
 4b0:	80 93 60 00 	sts	0x0060, r24
 4b4:	91 e0       	ldi	r25, 0x01	; 1
 4b6:	04 c0       	rjmp	.+8      	; 0x4c0 <KeyGet+0x34>
 4b8:	90 32       	cpi	r25, 0x20	; 32
 4ba:	10 f0       	brcs	.+4      	; 0x4c0 <KeyGet+0x34>
 4bc:	89 2f       	mov	r24, r25
 4be:	08 c0       	rjmp	.+16     	; 0x4d0 <KeyGet+0x44>
 4c0:	e0 91 60 00 	lds	r30, 0x0060
 4c4:	f0 91 61 00 	lds	r31, 0x0061
 4c8:	e9 0f       	add	r30, r25
 4ca:	f1 1d       	adc	r31, r1
 4cc:	c8 95       	lpm
 4ce:	80 2d       	mov	r24, r0
 4d0:	99 27       	eor	r25, r25
 4d2:	87 fd       	sbrc	r24, 7
 4d4:	90 95       	com	r25
 4d6:	08 95       	ret

000004d8 <PovDisp>:
 4d8:	85 e0       	ldi	r24, 0x05	; 5
 4da:	8b b9       	out	0x0b, r24	; 11
 4dc:	08 95       	ret

000004de <PovEndStr>:
 4de:	e1 99       	sbic	0x1c, 1	; 28
 4e0:	fe cf       	rjmp	.-4      	; 0x4de <PovEndStr>
 4e2:	80 e1       	ldi	r24, 0x10	; 16
 4e4:	8c bb       	out	0x1c, r24	; 28
 4e6:	80 91 6a 00 	lds	r24, 0x006A
 4ea:	99 27       	eor	r25, r25
 4ec:	8f 5d       	subi	r24, 0xDF	; 223
 4ee:	9f 4f       	sbci	r25, 0xFF	; 255
 4f0:	9f bb       	out	0x1f, r25	; 31
 4f2:	8e bb       	out	0x1e, r24	; 30
 4f4:	f8 94       	cli
 4f6:	e2 9a       	sbi	0x1c, 2	; 28
 4f8:	e1 9a       	sbi	0x1c, 1	; 28
 4fa:	78 94       	sei
 4fc:	08 95       	ret

000004fe <PovAddCh>:
 4fe:	38 2f       	mov	r19, r24
 500:	20 91 6a 00 	lds	r18, 0x006A
 504:	2f 31       	cpi	r18, 0x1F	; 31
 506:	98 f4       	brcc	.+38     	; 0x52e <PovAddCh+0x30>
 508:	e1 99       	sbic	0x1c, 1	; 28
 50a:	fe cf       	rjmp	.-4      	; 0x508 <PovAddCh+0xa>
 50c:	80 e2       	ldi	r24, 0x20	; 32
 50e:	8c bb       	out	0x1c, r24	; 28
 510:	82 2f       	mov	r24, r18
 512:	99 27       	eor	r25, r25
 514:	8f 5d       	subi	r24, 0xDF	; 223
 516:	9f 4f       	sbci	r25, 0xFF	; 255
 518:	2f 5f       	subi	r18, 0xFF	; 255
 51a:	20 93 6a 00 	sts	0x006A, r18
 51e:	9f bb       	out	0x1f, r25	; 31
 520:	8e bb       	out	0x1e, r24	; 30
 522:	3d bb       	out	0x1d, r19	; 29
 524:	f8 94       	cli
 526:	e2 9a       	sbi	0x1c, 2	; 28
 528:	e1 9a       	sbi	0x1c, 1	; 28
 52a:	78 94       	sei
 52c:	d8 df       	rcall	.-80     	; 0x4de <PovEndStr>
 52e:	08 95       	ret

00000530 <PovClr>:
 530:	10 92 6a 00 	sts	0x006A, r1
 534:	d4 df       	rcall	.-88     	; 0x4de <PovEndStr>
 536:	08 95       	ret

00000538 <PovGetLen>:
 538:	cf 93       	push	r28
 53a:	c0 e0       	ldi	r28, 0x00	; 0
 53c:	01 c0       	rjmp	.+2      	; 0x540 <PovGetLen+0x8>
 53e:	cf 5f       	subi	r28, 0xFF	; 255
 540:	c0 32       	cpi	r28, 0x20	; 32
 542:	38 f4       	brcc	.+14     	; 0x552 <PovGetLen+0x1a>
 544:	8c 2f       	mov	r24, r28
 546:	99 27       	eor	r25, r25
 548:	8f 5d       	subi	r24, 0xDF	; 223
 54a:	9f 4f       	sbci	r25, 0xFF	; 255
 54c:	c4 de       	rcall	.-632    	; 0x2d6 <E2PromRdCh>
 54e:	8f 3f       	cpi	r24, 0xFF	; 255
 550:	b1 f7       	brne	.-20     	; 0x53e <PovGetLen+0x6>
 552:	c0 93 6a 00 	sts	0x006A, r28
 556:	cf 91       	pop	r28
 558:	08 95       	ret

0000055a <PovDelCh>:
 55a:	80 91 6a 00 	lds	r24, 0x006A
 55e:	88 23       	and	r24, r24
 560:	21 f0       	breq	.+8      	; 0x56a <PovDelCh+0x10>
 562:	81 50       	subi	r24, 0x01	; 1
 564:	80 93 6a 00 	sts	0x006A, r24
 568:	ba df       	rcall	.-140    	; 0x4de <PovEndStr>
 56a:	08 95       	ret

0000056c <__vector_10>:
 56c:	1f 92       	push	r1
 56e:	0f 92       	push	r0
 570:	0f b6       	in	r0, 0x3f	; 63
 572:	0f 92       	push	r0
 574:	11 24       	eor	r1, r1
 576:	8f 93       	push	r24
 578:	82 b7       	in	r24, 0x32	; 50
 57a:	81 5e       	subi	r24, 0xE1	; 225
 57c:	89 bd       	out	0x29, r24	; 41
 57e:	8f 91       	pop	r24
 580:	0f 90       	pop	r0
 582:	0f be       	out	0x3f, r0	; 63
 584:	0f 90       	pop	r0
 586:	1f 90       	pop	r1
 588:	18 95       	reti

0000058a <Setup>:
 58a:	bb 98       	cbi	0x17, 3	; 23
 58c:	c3 9a       	sbi	0x18, 3	; 24
 58e:	f8 94       	cli
 590:	1a bc       	out	0x2a, r1	; 42
 592:	8f e1       	ldi	r24, 0x1F	; 31
 594:	89 bd       	out	0x29, r24	; 41
 596:	82 e0       	ldi	r24, 0x02	; 2
 598:	83 bf       	out	0x33, r24	; 51
 59a:	89 b7       	in	r24, 0x39	; 57
 59c:	80 61       	ori	r24, 0x10	; 16
 59e:	89 bf       	out	0x39, r24	; 57
 5a0:	78 94       	sei
 5a2:	ca df       	rcall	.-108    	; 0x538 <PovGetLen>
 5a4:	08 95       	ret

000005a6 <Idle>:
 5a6:	85 b7       	in	r24, 0x35	; 53
 5a8:	87 7e       	andi	r24, 0xE7	; 231
 5aa:	85 bf       	out	0x35, r24	; 53
 5ac:	f8 94       	cli
 5ae:	85 b7       	in	r24, 0x35	; 53
 5b0:	80 62       	ori	r24, 0x20	; 32
 5b2:	85 bf       	out	0x35, r24	; 53
 5b4:	78 94       	sei
 5b6:	88 95       	sleep
 5b8:	85 b7       	in	r24, 0x35	; 53
 5ba:	8f 7d       	andi	r24, 0xDF	; 223
 5bc:	85 bf       	out	0x35, r24	; 53
 5be:	08 95       	ret

000005c0 <BinaryToScan>:
 5c0:	98 2f       	mov	r25, r24
 5c2:	80 e0       	ldi	r24, 0x00	; 0
 5c4:	42 e0       	ldi	r20, 0x02	; 2
 5c6:	88 0f       	add	r24, r24
 5c8:	88 0f       	add	r24, r24
 5ca:	29 2f       	mov	r18, r25
 5cc:	33 27       	eor	r19, r19
 5ce:	22 fd       	sbrc	r18, 2
 5d0:	8f 5f       	subi	r24, 0xFF	; 255
 5d2:	25 fd       	sbrc	r18, 5
 5d4:	8e 5f       	subi	r24, 0xFE	; 254
 5d6:	99 0f       	add	r25, r25
 5d8:	41 50       	subi	r20, 0x01	; 1
 5da:	47 ff       	sbrs	r20, 7
 5dc:	f4 cf       	rjmp	.-24     	; 0x5c6 <BinaryToScan+0x6>
 5de:	99 27       	eor	r25, r25
 5e0:	08 95       	ret

000005e2 <main>:
 5e2:	cf ed       	ldi	r28, 0xDF	; 223
 5e4:	d0 e0       	ldi	r29, 0x00	; 0
 5e6:	de bf       	out	0x3e, r29	; 62
 5e8:	cd bf       	out	0x3d, r28	; 61
 5ea:	00 e0       	ldi	r16, 0x00	; 0
 5ec:	ce df       	rcall	.-100    	; 0x58a <Setup>
 5ee:	db df       	rcall	.-74     	; 0x5a6 <Idle>
 5f0:	80 2f       	mov	r24, r16
 5f2:	1c de       	rcall	.-968    	; 0x22c <DoPovScan>
 5f4:	81 30       	cpi	r24, 0x01	; 1
 5f6:	c9 f4       	brne	.+50     	; 0x62a <main+0x48>
 5f8:	80 91 6b 00 	lds	r24, 0x006B
 5fc:	99 27       	eor	r25, r25
 5fe:	00 97       	sbiw	r24, 0x00	; 0
 600:	79 f0       	breq	.+30     	; 0x620 <main+0x3e>
 602:	01 97       	sbiw	r24, 0x01	; 1
 604:	a1 f7       	brne	.-24     	; 0x5ee <main+0xc>
 606:	c2 b7       	in	r28, 0x32	; 50
 608:	70 de       	rcall	.-800    	; 0x2ea <PovMsg>
 60a:	08 2f       	mov	r16, r24
 60c:	82 b7       	in	r24, 0x32	; 50
 60e:	8c 1b       	sub	r24, r28
 610:	c8 2f       	mov	r28, r24
 612:	80 91 68 00 	lds	r24, 0x0068
 616:	c8 17       	cp	r28, r24
 618:	50 f3       	brcs	.-44     	; 0x5ee <main+0xc>
 61a:	c0 93 68 00 	sts	0x0068, r28
 61e:	e7 cf       	rjmp	.-50     	; 0x5ee <main+0xc>
 620:	80 91 63 00 	lds	r24, 0x0063
 624:	cd df       	rcall	.-102    	; 0x5c0 <BinaryToScan>
 626:	08 2f       	mov	r16, r24
 628:	e2 cf       	rjmp	.-60     	; 0x5ee <main+0xc>
 62a:	80 91 69 00 	lds	r24, 0x0069
 62e:	8f 5f       	subi	r24, 0xFF	; 255
 630:	80 93 69 00 	sts	0x0069, r24
 634:	83 34       	cpi	r24, 0x43	; 67
 636:	d8 f2       	brcs	.-74     	; 0x5ee <main+0xc>
 638:	10 92 69 00 	sts	0x0069, r1
 63c:	e6 de       	rcall	.-564    	; 0x40a <PhorseButton>
 63e:	26 df       	rcall	.-436    	; 0x48c <KeyGet>
 640:	81 30       	cpi	r24, 0x01	; 1
 642:	a9 f2       	breq	.-86     	; 0x5ee <main+0xc>
 644:	28 2f       	mov	r18, r24
 646:	33 27       	eor	r19, r19
 648:	27 fd       	sbrc	r18, 7
 64a:	30 95       	com	r19
 64c:	23 32       	cpi	r18, 0x23	; 35
 64e:	31 05       	cpc	r19, r1
 650:	91 f0       	breq	.+36     	; 0x676 <main+0x94>
 652:	24 32       	cpi	r18, 0x24	; 36
 654:	31 05       	cpc	r19, r1
 656:	3c f4       	brge	.+14     	; 0x666 <main+0x84>
 658:	21 32       	cpi	r18, 0x21	; 33
 65a:	31 05       	cpc	r19, r1
 65c:	41 f0       	breq	.+16     	; 0x66e <main+0x8c>
 65e:	22 32       	cpi	r18, 0x22	; 34
 660:	31 05       	cpc	r19, r1
 662:	39 f0       	breq	.+14     	; 0x672 <main+0x90>
 664:	1f c0       	rjmp	.+62     	; 0x6a4 <main+0xc2>
 666:	21 33       	cpi	r18, 0x31	; 49
 668:	31 05       	cpc	r19, r1
 66a:	91 f0       	breq	.+36     	; 0x690 <main+0xae>
 66c:	1b c0       	rjmp	.+54     	; 0x6a4 <main+0xc2>
 66e:	60 df       	rcall	.-320    	; 0x530 <PovClr>
 670:	be cf       	rjmp	.-132    	; 0x5ee <main+0xc>
 672:	73 df       	rcall	.-282    	; 0x55a <PovDelCh>
 674:	bc cf       	rjmp	.-136    	; 0x5ee <main+0xc>
 676:	5c df       	rcall	.-328    	; 0x530 <PovClr>
 678:	c0 e0       	ldi	r28, 0x00	; 0
 67a:	d0 e0       	ldi	r29, 0x00	; 0
 67c:	1f e1       	ldi	r17, 0x1F	; 31
 67e:	8c 2f       	mov	r24, r28
 680:	9d 2f       	mov	r25, r29
 682:	29 de       	rcall	.-942    	; 0x2d6 <E2PromRdCh>
 684:	3c df       	rcall	.-392    	; 0x4fe <PovAddCh>
 686:	11 50       	subi	r17, 0x01	; 1
 688:	21 96       	adiw	r28, 0x01	; 1
 68a:	17 ff       	sbrs	r17, 7
 68c:	f8 cf       	rjmp	.-16     	; 0x67e <main+0x9c>
 68e:	af cf       	rjmp	.-162    	; 0x5ee <main+0xc>
 690:	80 91 68 00 	lds	r24, 0x0068
 694:	86 95       	lsr	r24
 696:	86 95       	lsr	r24
 698:	93 df       	rcall	.-218    	; 0x5c0 <BinaryToScan>
 69a:	08 2f       	mov	r16, r24
 69c:	82 e0       	ldi	r24, 0x02	; 2
 69e:	80 93 6b 00 	sts	0x006B, r24
 6a2:	a5 cf       	rjmp	.-182    	; 0x5ee <main+0xc>
 6a4:	2c df       	rcall	.-424    	; 0x4fe <PovAddCh>
 6a6:	a3 cf       	rjmp	.-186    	; 0x5ee <main+0xc>

000006a8 <_exit>:
 6a8:	ff cf       	rjmp	.-2      	; 0x6a8 <_exit>

Disassembly of section .data:

00800060 <__data_start>:
  800060:	3e 00       	.word	0x003e	; ????

00800062 <gKey>:
  800062:	01 01       	movw	r0, r2

00800063 <gNewKey>:
  800063:	01 ff       	sbrs	r16, 1

00800064 <gScroll>:
  800064:	ff 01       	movw	r30, r30

00800065 <gPovDir>:
  800065:	01 20       	and	r0, r1

00800066 <gPovPos>:
  800066:	20 05       	cpc	r18, r0

00800067 <gPovCol>:
  800067:	05 00       	Address 0x00800067 is out of bounds.
.word	0xffff	; ????

Disassembly of section .bss:

00800068 <__bss_start>:
	...

00800069 <gKbdCount>:
	...

0080006a <gPovLen>:
	...

0080006b <gDispMode>:
	...

0080006c <gButtonOffFor>:
	...

0080006d <gButtonOnFor>:
	...

0080006e <gCharPos>:
	...

0080006f <gScrollCh>:
	...

00800070 <gPovImgPos>:
	...

00800071 <gRowReps>:
	...

00800072 <gRow>:
	...

00800073 <gSyncScan>:
	...

00800074 <gBitPos>:
	...

Disassembly of section .eeprom:

00810000 <gDefaultBuff>:
  810000:	50 48       	sbci	r21, 0x80	; 128
  810002:	4f 52       	subi	r20, 0x2F	; 47
  810004:	53 45       	sbci	r21, 0x53	; 83
  810006:	50 4f       	sbci	r21, 0xF0	; 240
  810008:	56 20       	and	r5, r6
  81000a:	28 43       	sbci	r18, 0x38	; 56
  81000c:	29 4e       	sbci	r18, 0xE9	; 233
  81000e:	49 43       	sbci	r20, 0x39	; 57
  810010:	48 45       	sbci	r20, 0x58	; 88
  810012:	4d 41       	sbci	r20, 0x1D	; 29
  810014:	43 48       	sbci	r20, 0x83	; 131
  810016:	49 4e       	sbci	r20, 0xE9	; 233
  810018:	45 53       	subi	r20, 0x35	; 53
  81001a:	20 32       	cpi	r18, 0x20	; 32
  81001c:	30 31       	cpi	r19, 0x10	; 16
  81001e:	30 ff       	sbrs	r19, 0
	...

00810021 <gPovBuff>:
  810021:	50 48       	sbci	r21, 0x80	; 128
  810023:	4f 52       	subi	r20, 0x2F	; 47
  810025:	53 45       	sbci	r21, 0x53	; 83
  810027:	50 4f       	sbci	r21, 0xF0	; 240
  810029:	56 20       	and	r5, r6
  81002b:	28 43       	sbci	r18, 0x38	; 56
  81002d:	29 4e       	sbci	r18, 0xE9	; 233
  81002f:	49 43       	sbci	r20, 0x39	; 57
  810031:	48 45       	sbci	r20, 0x58	; 88
  810033:	4d 41       	sbci	r20, 0x1D	; 29
  810035:	43 48       	sbci	r20, 0x83	; 131
  810037:	49 4e       	sbci	r20, 0xE9	; 233
  810039:	45 53       	subi	r20, 0x35	; 53
  81003b:	20 32       	cpi	r18, 0x20	; 32
  81003d:	30 31       	cpi	r19, 0x10	; 16
  81003f:	30 ff       	sbrs	r19, 0
	...
