Archive member included because of file (symbol)

c:/winavr-20080610/bin/../lib/gcc/avr/4.3.0/avrxmega7\libgcc.a(_udivmodsi4.o)
                              spi.o (__udivmodsi4)
c:/winavr-20080610/bin/../lib/gcc/avr/4.3.0/avrxmega7\libgcc.a(_exit.o)
                              c:/winavr-20080610/bin/../lib/gcc/avr/4.3.0/../../../../avr/lib/avrxmega7/crtx128a1.o (exit)
c:/winavr-20080610/bin/../lib/gcc/avr/4.3.0/avrxmega7\libgcc.a(_clear_bss.o)
                              Drivers.o (__do_clear_bss)
c:/winavr-20080610/bin/../lib/gcc/avr/4.3.0/../../../../avr/lib/avrxmega7\libc.a(memcpy.o)
                              nvm.o (memcpy)

Allocating common symbols
Common symbol       size              file

rtc_data            0x8               rtc.o
sleepmgr_locks      0x6               sleepmgr.o

Memory Configuration

Name             Origin             Length             Attributes
text             0x00000000         0x00100000         xr
data             0x00802000         0x0000ffa0         rw !x
eeprom           0x00810000         0x00010000         rw !x
fuse             0x00820000         0x00000400         rw !x
lock             0x00830000         0x00000400         rw !x
signature        0x00840000         0x00000400         rw !x
*default*        0x00000000         0xffffffff

Linker script and memory map

LOAD c:/winavr-20080610/bin/../lib/gcc/avr/4.3.0/../../../../avr/lib/avrxmega7/crtx128a1.o
LOAD Drivers.o
LOAD main.o
LOAD init.o
LOAD sysclk.o
LOAD usart_serial.o
LOAD sleepmgr.o
LOAD adc.o
LOAD ccp.o
LOAD ioport.o
LOAD nvm.o
LOAD nvm_asm.o
LOAD rtc.o
LOAD spi.o
LOAD tc.o
LOAD twim.o
LOAD twis.o
LOAD usart.o
LOAD c:/winavr-20080610/bin/../lib/gcc/avr/4.3.0/avrxmega7\libgcc.a
LOAD c:/winavr-20080610/bin/../lib/gcc/avr/4.3.0/../../../../avr/lib/avrxmega7\libc.a
LOAD c:/winavr-20080610/bin/../lib/gcc/avr/4.3.0/avrxmega7\libgcc.a

.hash
 *(.hash)

.dynsym
 *(.dynsym)

.dynstr
 *(.dynstr)

.gnu.version
 *(.gnu.version)

.gnu.version_d
 *(.gnu.version_d)

.gnu.version_r
 *(.gnu.version_r)

.rel.init
 *(.rel.init)

.rela.init
 *(.rela.init)

.rel.text
 *(.rel.text)
 *(.rel.text.*)
 *(.rel.gnu.linkonce.t*)

.rela.text
 *(.rela.text)
 *(.rela.text.*)
 *(.rela.gnu.linkonce.t*)

.rel.fini
 *(.rel.fini)

.rela.fini
 *(.rela.fini)

.rel.rodata
 *(.rel.rodata)
 *(.rel.rodata.*)
 *(.rel.gnu.linkonce.r*)

.rela.rodata
 *(.rela.rodata)
 *(.rela.rodata.*)
 *(.rela.gnu.linkonce.r*)

.rel.data
 *(.rel.data)
 *(.rel.data.*)
 *(.rel.gnu.linkonce.d*)

.rela.data
 *(.rela.data)
 *(.rela.data.*)
 *(.rela.gnu.linkonce.d*)

.rel.ctors
 *(.rel.ctors)

.rela.ctors
 *(.rela.ctors)

.rel.dtors
 *(.rel.dtors)

.rela.dtors
 *(.rela.dtors)

.rel.got
 *(.rel.got)

.rela.got
 *(.rela.got)

.rel.bss
 *(.rel.bss)

.rela.bss
 *(.rela.bss)

.rel.plt
 *(.rel.plt)

.rela.plt
 *(.rela.plt)

.text           0x00000000     0x31cc
 *(.vectors)
 .vectors       0x00000000      0x1f4 c:/winavr-20080610/bin/../lib/gcc/avr/4.3.0/../../../../avr/lib/avrxmega7/crtx128a1.o
                0x00000000                __vectors
                0x00000000                __vector_default
 *(.vectors)
 *(.progmem.gcc*)
 *(.progmem*)
 .progmem.data  0x000001f4        0x6 sleepmgr.o
                0x000001f4                sleepmgr_configs
                0x000001fa                . = ALIGN (0x2)
                0x000001fa                __trampolines_start = .
 *(.trampolines)
 .trampolines   0x000001fa        0x0 linker stubs
 *(.trampolines*)
                0x000001fa                __trampolines_end = .
 *(.jumptables)
 *(.jumptables*)
 *(.lowtext)
 *(.lowtext*)
                0x000001fa                __ctors_start = .
 *(.ctors)
                0x000001fa                __ctors_end = .
                0x000001fa                __dtors_start = .
 *(.dtors)
                0x000001fa                __dtors_end = .
 SORT(*)(.ctors)
 SORT(*)(.dtors)
 *(.init0)
 .init0         0x000001fa        0x0 c:/winavr-20080610/bin/../lib/gcc/avr/4.3.0/../../../../avr/lib/avrxmega7/crtx128a1.o
                0x000001fa                __init
 *(.init0)
 *(.init1)
 *(.init1)
 *(.init2)
 .init2         0x000001fa       0x10 c:/winavr-20080610/bin/../lib/gcc/avr/4.3.0/../../../../avr/lib/avrxmega7/crtx128a1.o
 *(.init2)
 *(.init3)
 *(.init3)
 *(.init4)
 .init4         0x0000020a       0x1a c:/winavr-20080610/bin/../lib/gcc/avr/4.3.0/../../../../avr/lib/avrxmega7/crtx128a1.o
                0x0000020a                __do_copy_data
 .init4         0x00000224       0x10 c:/winavr-20080610/bin/../lib/gcc/avr/4.3.0/avrxmega7\libgcc.a(_clear_bss.o)
                0x00000224                __do_clear_bss
 *(.init4)
 *(.init5)
 *(.init5)
 *(.init6)
 *(.init6)
 *(.init7)
 *(.init7)
 *(.init8)
 *(.init8)
 *(.init9)
 .init9         0x00000234        0x8 c:/winavr-20080610/bin/../lib/gcc/avr/4.3.0/../../../../avr/lib/avrxmega7/crtx128a1.o
 *(.init9)
 *(.text)
 .text          0x0000023c        0x4 c:/winavr-20080610/bin/../lib/gcc/avr/4.3.0/../../../../avr/lib/avrxmega7/crtx128a1.o
                0x0000023c                __vector_38
                0x0000023c                __vector_104
                0x0000023c                __vector_63
                0x0000023c                __vector_28
                0x0000023c                __vector_67
                0x0000023c                __vector_1
                0x0000023c                __vector_119
                0x0000023c                __vector_32
                0x0000023c                __vector_75
                0x0000023c                __vector_71
                0x0000023c                __vector_91
                0x0000023c                __vector_34
                0x0000023c                __vector_62
                0x0000023c                __vector_102
                0x0000023c                __vector_24
                0x0000023c                __vector_12
                0x0000023c                __vector_69
                0x0000023c                __vector_90
                0x0000023c                __bad_interrupt
                0x0000023c                __vector_122
                0x0000023c                __vector_72
                0x0000023c                __vector_6
                0x0000023c                __vector_31
                0x0000023c                __vector_92
                0x0000023c                __vector_35
                0x0000023c                __vector_74
                0x0000023c                __vector_39
                0x0000023c                __vector_3
                0x0000023c                __vector_105
                0x0000023c                __vector_98
                0x0000023c                __vector_68
                0x0000023c                __vector_30
                0x0000023c                __vector_73
                0x0000023c                __vector_45
                0x0000023c                __vector_25
                0x0000023c                __vector_93
                0x0000023c                __vector_61
                0x0000023c                __vector_99
                0x0000023c                __vector_7
                0x0000023c                __vector_123
                0x0000023c                __vector_41
                0x0000023c                __vector_100
                0x0000023c                __vector_101
                0x0000023c                __vector_64
                0x0000023c                __vector_88
                0x0000023c                __vector_43
                0x0000023c                __vector_27
                0x0000023c                __vector_5
                0x0000023c                __vector_33
                0x0000023c                __vector_37
                0x0000023c                __vector_95
                0x0000023c                __vector_103
                0x0000023c                __vector_96
                0x0000023c                __vector_89
                0x0000023c                __vector_4
                0x0000023c                __vector_44
                0x0000023c                __vector_106
                0x0000023c                __vector_118
                0x0000023c                __vector_9
                0x0000023c                __vector_2
                0x0000023c                __vector_66
                0x0000023c                __vector_36
                0x0000023c                __vector_58
                0x0000023c                __vector_70
                0x0000023c                __vector_29
                0x0000023c                __vector_60
                0x0000023c                __vector_121
                0x0000023c                __vector_40
                0x0000023c                __vector_94
                0x0000023c                __vector_8
                0x0000023c                __vector_26
                0x0000023c                __vector_124
                0x0000023c                __vector_57
                0x0000023c                __vector_59
                0x0000023c                __vector_97
                0x0000023c                __vector_42
                0x0000023c                __vector_87
                0x0000023c                __vector_65
                0x0000023c                __vector_120
 .text          0x00000240       0xbe Drivers.o
                0x00000240                SPI_Sync
                0x00000274                SetExpansionOutputs
                0x000002a6                SPIFlash_ReadID
 .text          0x000002fe        0x6 main.o
                0x000002fe                main
 .text          0x00000304      0x23a init.o
                0x00000430                init_IOPorts
                0x00000336                init_PowerControl
                0x0000030c                init_USART
                0x000004da                board_init
                0x00000352                init_TWI
                0x000003e2                init_ADCA
                0x00000304                InitSPI_F
 .text          0x0000053e       0x6e sysclk.o
                0x0000053e                sysclk_enable_module
                0x00000556                sysclk_disable_module
                0x0000056c                sysclk_init
 .text          0x000005ac       0x70 usart_serial.o
                0x000005ac                usart_serial_read_packet
                0x000005e4                usart_serial_write_packet
 .text          0x0000061c        0x0 sleepmgr.o
 .text          0x0000061c      0x32a adc.o
                0x000007be                adc_read_configuration
                0x00000686                adc_enable
                0x000008c4                adc_write_configuration
                0x0000081e                adc_disable
                0x0000061c                adc_is_enabled
                0x000006fa                adcch_read_configuration
                0x0000075c                adcch_write_configuration
 .text          0x00000946        0x0 ccp.o
 .text          0x00000946       0x48 ioport.o
                0x00000946                ioport_configure_port_pin
 .text          0x0000098e      0x626 nvm.o
                0x00000b52                nvm_eeprom_split_write_page
                0x000009b4                nvm_eeprom_load_byte_to_buffer
                0x00000a9a                nvm_fuses_read
                0x00000a06                nvm_flash_read_buffer
                0x00000ee4                nvm_eeprom_read_buffer
                0x00000c50                nvm_eeprom_erase_all
                0x000009d6                nvm_eeprom_load_page_to_buffer
                0x00000b04                nvm_eeprom_erase_bytes_in_page
                0x00000ba0                nvm_eeprom_atomic_write_page
                0x0000098e                nvm_eeprom_read_byte
                0x00000bee                nvm_eeprom_flush_buffer
                0x00000c5c                nvm_eeprom_erase_page
                0x00000c70                nvm_eeprom_write_byte
                0x00000c12                nvm_eeprom_fill_buffer_with_value
                0x00000ad2                nvm_eeprom_erase_bytes_in_all_pages
                0x00000f24                nvm_read_device_serial
                0x00000cc8                nvm_eeprom_erase_and_write_buffer
                0x00000d12                nvm_flash_erase_and_write_buffer
 .text          0x00000fb4        0x0 nvm_asm.o
 .text          0x00000fb4      0x25c rtc.o
                0x000011d2                rtc_init
                0x000010e8                __vector_11
                0x00000ffa                rtc_get_time
                0x00001094                rtc_alarm_has_triggered
                0x000010a4                rtc_set_callback
                0x00001042                rtc_set_alarm
                0x00000fbe                rtc_set_time
                0x000010ae                __vector_10
 .text          0x00001210       0xf4 spi.o
                0x00001210                spi_xmega_set_baud_div
 .text          0x00001304     0x12b6 tc.o
                0x000015d4                __vector_22
                0x00001688                __vector_77
                0x00001cdc                __vector_55
                0x000017f0                __vector_81
                0x00001fac                __vector_114
                0x00001e44                __vector_110
                0x000016e2                __vector_78
                0x000020ba                __vector_117
                0x000023d8                tc_disable
                0x0000162e                __vector_23
                0x00001c82                __vector_54
                0x00002230                tc_set_cca_interrupt_callback
                0x00001412                __vector_17
                0x000014c6                __vector_19
                0x00001d36                __vector_56
                0x00001ac0                __vector_49
                0x000019b2                __vector_86
                0x00001dea                __vector_109
                0x00001f52                __vector_113
                0x00002114                tc_set_overflow_interrupt_callback
                0x00002006                __vector_115
                0x00002392                tc_set_ccd_interrupt_callback
                0x00001a0c                __vector_47
                0x00001bce                __vector_52
                0x00001d90                __vector_108
                0x0000234c                tc_set_ccc_interrupt_callback
                0x0000184a                __vector_82
                0x00001b74                __vector_51
                0x000022be                tc_set_ccb_interrupt_callback
                0x000024c8                tc_enable
                0x0000157a                __vector_21
                0x0000135e                __vector_15
                0x0000173c                __vector_79
                0x000018a4                __vector_83
                0x00001958                __vector_85
                0x000021a2                tc_set_error_interrupt_callback
                0x00001a66                __vector_48
                0x00002060                __vector_116
                0x00001ef8                __vector_112
                0x00001e9e                __vector_111
                0x00001796                __vector_80
                0x00001304                __vector_14
                0x000018fe                __vector_84
                0x00001c28                __vector_53
                0x00001b1a                __vector_50
                0x000013b8                __vector_16
                0x0000146c                __vector_18
                0x00001520                __vector_20
 .text          0x000025ba      0x42c twim.o
                0x00002660                twi_master_arbitration_lost_bus_error_handler
                0x00002692                twi_master_transaction_finished
                0x00002950                twi_master_write
                0x000027ac                twi_master_interrupt_handler
                0x00002886                __vector_46
                0x000028d6                __vector_107
                0x000025ba                twi_master_write_read
                0x00002926                twi_master_init
                0x000027e6                __vector_13
                0x0000273a                twi_master_read_handler
                0x00002836                __vector_76
                0x0000269e                twi_master_write_handler
                0x000029a0                twi_master_read
 .text          0x000029e6      0x20e twis.o
                0x00002afc                TWI_SlaveDataHandler
                0x00002b80                TWI_SlaveInterruptHandler
                0x000029fc                TWI_SlaveInitializeModule
                0x00002b1a                TWI_SlaveStopHandler
                0x00002b3e                TWI_SlaveAddressMatchHandler
                0x000029e6                TWI_SlaveInitializeDriver
                0x00002a1a                TWI_SlaveWriteHandler
                0x00002a8e                TWI_SlaveReadHandler
                0x00002a12                TWI_SlaveTransactionFinished
 .text          0x00002bf4      0x55e usart.o
                0x00002c10                usart_set_baudrate
                0x00002c04                usart_getchar
                0x0000306a                usart_init_rs232
                0x00002eb8                usart_init_spi
                0x00002e56                usart_spi_set_baudrate
                0x00002bf4                usart_putchar
 .text          0x00003152        0x0 c:/winavr-20080610/bin/../lib/gcc/avr/4.3.0/avrxmega7\libgcc.a(_udivmodsi4.o)
 .text          0x00003152        0x0 c:/winavr-20080610/bin/../lib/gcc/avr/4.3.0/avrxmega7\libgcc.a(_exit.o)
 .text          0x00003152        0x0 c:/winavr-20080610/bin/../lib/gcc/avr/4.3.0/avrxmega7\libgcc.a(_clear_bss.o)
 .text          0x00003152       0x12 c:/winavr-20080610/bin/../lib/gcc/avr/4.3.0/../../../../avr/lib/avrxmega7\libc.a(memcpy.o)
                0x00003152                memcpy
                0x00003164                . = ALIGN (0x2)
 *(.text.*)
 .text.ccp_write_io
                0x00003164        0xc ccp.o
                0x00003164                ccp_write_io
 .text.nvm_read_byte_near
                0x00003170       0x14 nvm_asm.o
                0x00003170                nvm_read_byte_near
 .text.libgcc   0x00003184       0x44 c:/winavr-20080610/bin/../lib/gcc/avr/4.3.0/avrxmega7\libgcc.a(_udivmodsi4.o)
                0x00003184                __udivmodsi4
 .text.libgcc   0x000031c8        0x0 c:/winavr-20080610/bin/../lib/gcc/avr/4.3.0/avrxmega7\libgcc.a(_exit.o)
 .text.libgcc   0x000031c8        0x0 c:/winavr-20080610/bin/../lib/gcc/avr/4.3.0/avrxmega7\libgcc.a(_clear_bss.o)
                0x000031c8                . = ALIGN (0x2)
 *(.fini9)
 .fini9         0x000031c8        0x0 c:/winavr-20080610/bin/../lib/gcc/avr/4.3.0/avrxmega7\libgcc.a(_exit.o)
                0x000031c8                exit
                0x000031c8                _exit
 *(.fini9)
 *(.fini8)
 *(.fini8)
 *(.fini7)
 *(.fini7)
 *(.fini6)
 *(.fini6)
 *(.fini5)
 *(.fini5)
 *(.fini4)
 *(.fini4)
 *(.fini3)
 *(.fini3)
 *(.fini2)
 *(.fini2)
 *(.fini1)
 *(.fini1)
 *(.fini0)
 .fini0         0x000031c8        0x4 c:/winavr-20080610/bin/../lib/gcc/avr/4.3.0/avrxmega7\libgcc.a(_exit.o)
 *(.fini0)
                0x000031cc                _etext = .

.BOOT           0x000031cc       0x44
 .BOOT          0x000031cc       0x44 nvm_asm.o
                0x000031cc                nvm_common_spm
                0x000031ea                nvm_flash_load_word_to_buffer

.data           0x00802000        0x0 load address 0x000031cc
                0x00802000                PROVIDE (__data_start, .)
 *(.data)
 .data          0x00802000        0x0 c:/winavr-20080610/bin/../lib/gcc/avr/4.3.0/../../../../avr/lib/avrxmega7/crtx128a1.o
 .data          0x00802000        0x0 Drivers.o
 .data          0x00802000        0x0 main.o
 .data          0x00802000        0x0 init.o
 .data          0x00802000        0x0 sysclk.o
 .data          0x00802000        0x0 usart_serial.o
 .data          0x00802000        0x0 sleepmgr.o
 .data          0x00802000        0x0 adc.o
 .data          0x00802000        0x0 ccp.o
 .data          0x00802000        0x0 ioport.o
 .data          0x00802000        0x0 nvm.o
 .data          0x00802000        0x0 nvm_asm.o
 .data          0x00802000        0x0 rtc.o
 .data          0x00802000        0x0 spi.o
 .data          0x00802000        0x0 tc.o
 .data          0x00802000        0x0 twim.o
 .data          0x00802000        0x0 twis.o
 .data          0x00802000        0x0 usart.o
 .data          0x00802000        0x0 c:/winavr-20080610/bin/../lib/gcc/avr/4.3.0/avrxmega7\libgcc.a(_udivmodsi4.o)
 .data          0x00802000        0x0 c:/winavr-20080610/bin/../lib/gcc/avr/4.3.0/avrxmega7\libgcc.a(_exit.o)
 .data          0x00802000        0x0 c:/winavr-20080610/bin/../lib/gcc/avr/4.3.0/avrxmega7\libgcc.a(_clear_bss.o)
 .data          0x00802000        0x0 c:/winavr-20080610/bin/../lib/gcc/avr/4.3.0/../../../../avr/lib/avrxmega7\libc.a(memcpy.o)
 *(.data*)
 *(.rodata)
 *(.rodata*)
 *(.gnu.linkonce.d*)
                0x00802000                . = ALIGN (0x2)
                0x00802000                _edata = .
                0x00802000                PROVIDE (__data_end, .)

.bss            0x00802000       0x6d load address 0x000031cc
                0x00802000                PROVIDE (__bss_start, .)
 *(.bss)
 .bss           0x00802000        0x0 c:/winavr-20080610/bin/../lib/gcc/avr/4.3.0/../../../../avr/lib/avrxmega7/crtx128a1.o
 .bss           0x00802000        0x0 Drivers.o
 .bss           0x00802000        0x0 main.o
 .bss           0x00802000        0x0 init.o
 .bss           0x00802000        0x0 sysclk.o
 .bss           0x00802000        0x0 usart_serial.o
 .bss           0x00802000        0x0 sleepmgr.o
 .bss           0x00802000        0x2 adc.o
 .bss           0x00802002        0x0 ccp.o
 .bss           0x00802002        0x0 ioport.o
 .bss           0x00802002        0x0 nvm.o
 .bss           0x00802002        0x0 nvm_asm.o
 .bss           0x00802002        0x0 rtc.o
 .bss           0x00802002        0x0 spi.o
 .bss           0x00802002       0x50 tc.o
 .bss           0x00802052        0xd twim.o
 .bss           0x0080205f        0x0 twis.o
 .bss           0x0080205f        0x0 usart.o
 .bss           0x0080205f        0x0 c:/winavr-20080610/bin/../lib/gcc/avr/4.3.0/avrxmega7\libgcc.a(_udivmodsi4.o)
 .bss           0x0080205f        0x0 c:/winavr-20080610/bin/../lib/gcc/avr/4.3.0/avrxmega7\libgcc.a(_exit.o)
 .bss           0x0080205f        0x0 c:/winavr-20080610/bin/../lib/gcc/avr/4.3.0/avrxmega7\libgcc.a(_clear_bss.o)
 .bss           0x0080205f        0x0 c:/winavr-20080610/bin/../lib/gcc/avr/4.3.0/../../../../avr/lib/avrxmega7\libc.a(memcpy.o)
 *(.bss*)
 *(COMMON)
 COMMON         0x0080205f        0x6 sleepmgr.o
                0x0080205f                sleepmgr_locks
 COMMON         0x00802065        0x8 rtc.o
                0x00802065                rtc_data
                0x0080206d                PROVIDE (__bss_end, .)
                0x000031cc                __data_load_start = LOADADDR (.data)
                0x000031cc                __data_load_end = (__data_load_start + SIZEOF (.data))

.noinit         0x0080206d        0x0
                0x0080206d                PROVIDE (__noinit_start, .)
 *(.noinit*)
                0x0080206d                PROVIDE (__noinit_end, .)
                0x0080206d                _end = .
                0x0080206d                PROVIDE (__heap_start, .)

.eeprom         0x00810000        0x0
 *(.eeprom*)
                0x00810000                __eeprom_end = .

.fuse
 *(.fuse)
 *(.lfuse)
 *(.hfuse)
 *(.efuse)

.lock
 *(.lock*)

.signature
 *(.signature*)

.stab
 *(.stab)

.stabstr
 *(.stabstr)

.stab.excl
 *(.stab.excl)

.stab.exclstr
 *(.stab.exclstr)

.stab.index
 *(.stab.index)

.stab.indexstr
 *(.stab.indexstr)

.comment
 *(.comment)

.debug
 *(.debug)

.line
 *(.line)

.debug_srcinfo
 *(.debug_srcinfo)

.debug_sfnames
 *(.debug_sfnames)

.debug_aranges  0x00000000      0x1c0
 *(.debug_aranges)
 .debug_aranges
                0x00000000       0x20 Drivers.o
 .debug_aranges
                0x00000020       0x20 main.o
 .debug_aranges
                0x00000040       0x20 init.o
 .debug_aranges
                0x00000060       0x20 sysclk.o
 .debug_aranges
                0x00000080       0x20 usart_serial.o
 .debug_aranges
                0x000000a0       0x20 adc.o
 .debug_aranges
                0x000000c0       0x20 ioport.o
 .debug_aranges
                0x000000e0       0x20 nvm.o
 .debug_aranges
                0x00000100       0x20 rtc.o
 .debug_aranges
                0x00000120       0x20 spi.o
 .debug_aranges
                0x00000140       0x20 tc.o
 .debug_aranges
                0x00000160       0x20 twim.o
 .debug_aranges
                0x00000180       0x20 twis.o
 .debug_aranges
                0x000001a0       0x20 usart.o

.debug_pubnames
                0x00000000      0xc49
 *(.debug_pubnames)
 .debug_pubnames
                0x00000000       0x4b Drivers.o
 .debug_pubnames
                0x0000004b       0x1b main.o
 .debug_pubnames
                0x00000066       0x80 init.o
 .debug_pubnames
                0x000000e6       0x55 sysclk.o
 .debug_pubnames
                0x0000013b       0x4d usart_serial.o
 .debug_pubnames
                0x00000188       0x3a sleepmgr.o
 .debug_pubnames
                0x000001c2       0xb6 adc.o
 .debug_pubnames
                0x00000278       0x30 ioport.o
 .debug_pubnames
                0x000002a8      0x23a nvm.o
 .debug_pubnames
                0x000004e2       0xb1 rtc.o
 .debug_pubnames
                0x00000593       0x2d spi.o
 .debug_pubnames
                0x000005c0      0x38c tc.o
 .debug_pubnames
                0x0000094c      0x15a twim.o
 .debug_pubnames
                0x00000aa6      0x113 twis.o
 .debug_pubnames
                0x00000bb9       0x90 usart.o

.debug_info     0x00000000     0x6c04
 *(.debug_info)
 .debug_info    0x00000000      0x51e Drivers.o
 .debug_info    0x0000051e      0x112 main.o
 .debug_info    0x00000630      0xc8a init.o
 .debug_info    0x000012ba      0x616 sysclk.o
 .debug_info    0x000018d0      0x246 usart_serial.o
 .debug_info    0x00001b16      0x100 sleepmgr.o
 .debug_info    0x00001c16      0xd6d adc.o
 .debug_info    0x00002983      0x100 ioport.o
 .debug_info    0x00002a83      0xcda nvm.o
 .debug_info    0x0000375d      0x6c1 rtc.o
 .debug_info    0x00003e1e      0x157 spi.o
 .debug_info    0x00003f75     0x1611 tc.o
 .debug_info    0x00005586      0x738 twim.o
 .debug_info    0x00005cbe      0x575 twis.o
 .debug_info    0x00006233      0x9d1 usart.o
 *(.gnu.linkonce.wi.*)

.debug_abbrev   0x00000000     0x19e8
 *(.debug_abbrev)
 .debug_abbrev  0x00000000      0x1df Drivers.o
 .debug_abbrev  0x000001df       0x95 main.o
 .debug_abbrev  0x00000274      0x261 init.o
 .debug_abbrev  0x000004d5      0x1d8 sysclk.o
 .debug_abbrev  0x000006ad       0xd1 usart_serial.o
 .debug_abbrev  0x0000077e       0x82 sleepmgr.o
 .debug_abbrev  0x00000800      0x2be adc.o
 .debug_abbrev  0x00000abe       0x89 ioport.o
 .debug_abbrev  0x00000b47      0x35f nvm.o
 .debug_abbrev  0x00000ea6      0x266 rtc.o
 .debug_abbrev  0x0000110c       0xbf spi.o
 .debug_abbrev  0x000011cb      0x259 tc.o
 .debug_abbrev  0x00001424      0x1c3 twim.o
 .debug_abbrev  0x000015e7      0x1ac twis.o
 .debug_abbrev  0x00001793      0x255 usart.o

.debug_line     0x00000000     0x3b9e
 *(.debug_line)
 .debug_line    0x00000000      0x228 Drivers.o
 .debug_line    0x00000228      0x11a main.o
 .debug_line    0x00000342      0x43b init.o
 .debug_line    0x0000077d      0x305 sysclk.o
 .debug_line    0x00000a82      0x1c0 usart_serial.o
 .debug_line    0x00000c42       0xe2 sleepmgr.o
 .debug_line    0x00000d24      0x6fc adc.o
 .debug_line    0x00001420      0x112 ioport.o
 .debug_line    0x00001532      0x802 nvm.o
 .debug_line    0x00001d34      0x445 rtc.o
 .debug_line    0x00002179      0x120 spi.o
 .debug_line    0x00002299      0xc45 tc.o
 .debug_line    0x00002ede      0x41b twim.o
 .debug_line    0x000032f9      0x399 twis.o
 .debug_line    0x00003692      0x50c usart.o

.debug_frame    0x00000000      0x910
 *(.debug_frame)
 .debug_frame   0x00000000       0x40 Drivers.o
 .debug_frame   0x00000040       0x20 main.o
 .debug_frame   0x00000060       0x80 init.o
 .debug_frame   0x000000e0       0x40 sysclk.o
 .debug_frame   0x00000120       0x30 usart_serial.o
 .debug_frame   0x00000150       0xb0 adc.o
 .debug_frame   0x00000200       0x20 ioport.o
 .debug_frame   0x00000220      0x130 nvm.o
 .debug_frame   0x00000350       0xa0 rtc.o
 .debug_frame   0x000003f0       0x20 spi.o
 .debug_frame   0x00000410      0x310 tc.o
 .debug_frame   0x00000720       0xe0 twim.o
 .debug_frame   0x00000800       0xa0 twis.o
 .debug_frame   0x000008a0       0x70 usart.o

.debug_str      0x00000000     0x2c05
 *(.debug_str)
 .debug_str     0x00000000      0x2d8 Drivers.o
                                0x325 (size before relaxing)
 .debug_str     0x000002d8       0x13 main.o
                                0x17f (size before relaxing)
 .debug_str     0x000002eb      0x69c init.o
                                0x930 (size before relaxing)
 .debug_str     0x00000987      0x32c sysclk.o
                                0x45d (size before relaxing)
 .debug_str     0x00000cb3      0x144 usart_serial.o
                                0x26b (size before relaxing)
 .debug_str     0x00000df7       0x35 sleepmgr.o
                                0x196 (size before relaxing)
 .debug_str     0x00000e2c      0x1fa adc.o
                                0x93c (size before relaxing)
 .debug_str     0x00001026       0x4c ioport.o
                                0x143 (size before relaxing)
 .debug_str     0x00001072      0x48a nvm.o
                                0x8bc (size before relaxing)
 .debug_str     0x000014fc      0x339 rtc.o
                                0x65b (size before relaxing)
 .debug_str     0x00001835       0x5b spi.o
                                0x15d (size before relaxing)
 .debug_str     0x00001890      0x86d tc.o
                                0xbe3 (size before relaxing)
 .debug_str     0x000020fd      0x43d twim.o
                                0x5f0 (size before relaxing)
 .debug_str     0x0000253a      0x312 twis.o
                                0x4ae (size before relaxing)
 .debug_str     0x0000284c      0x3b9 usart.o
                                0x8ce (size before relaxing)

.debug_loc      0x00000000     0x198d
 *(.debug_loc)
 .debug_loc     0x00000000       0x97 Drivers.o
 .debug_loc     0x00000097       0x30 init.o
 .debug_loc     0x000000c7       0x84 sysclk.o
 .debug_loc     0x0000014b      0x130 usart_serial.o
 .debug_loc     0x0000027b      0x404 adc.o
 .debug_loc     0x0000067f       0x28 ioport.o
 .debug_loc     0x000006a7      0x601 nvm.o
 .debug_loc     0x00000ca8      0x113 rtc.o
 .debug_loc     0x00000dbb       0xa6 spi.o
 .debug_loc     0x00000e61      0x1fc tc.o
 .debug_loc     0x0000105d      0x212 twim.o
 .debug_loc     0x0000126f      0x201 twis.o
 .debug_loc     0x00001470      0x51d usart.o

.debug_macinfo
 *(.debug_macinfo)
OUTPUT(ImuxVS4.elf elf32-avr)
LOAD linker stubs

.debug_ranges   0x00000000       0x18
 .debug_ranges  0x00000000       0x18 nvm.o
