
test_lcd.elf:     file format elf32-avr

Sections:
Idx Name          Size      VMA       LMA       File off  Algn
  0 .text         0000074c  00000000  00000000  00000094  2**0
                  CONTENTS, ALLOC, LOAD, READONLY, CODE
  1 .data         0000001e  00800060  0000074c  000007e0  2**0
                  CONTENTS, ALLOC, LOAD, DATA
  2 .bss          00000019  0080007e  0080007e  000007fe  2**0
                  ALLOC
  3 .noinit       00000000  00800097  00800097  000007fe  2**0
                  CONTENTS
  4 .eeprom       00000000  00810000  00810000  000007fe  2**0
                  CONTENTS
  5 .stab         000022b0  00000000  00000000  00000800  2**2
                  CONTENTS, READONLY, DEBUGGING
  6 .stabstr      00000d1d  00000000  00000000  00002ab0  2**0
                  CONTENTS, READONLY, DEBUGGING
Disassembly of section .text:

00000000 <__vectors>:
   0:	12 c0       	rjmp	.+36     	; 0x26 <__ctors_end>
   2:	2b c0       	rjmp	.+86     	; 0x5a <__bad_interrupt>
   4:	2b c0       	rjmp	.+86     	; 0x5c <__vector_2>
   6:	29 c0       	rjmp	.+82     	; 0x5a <__bad_interrupt>
   8:	67 c0       	rjmp	.+206    	; 0xd8 <__vector_4>
   a:	27 c0       	rjmp	.+78     	; 0x5a <__bad_interrupt>
   c:	26 c0       	rjmp	.+76     	; 0x5a <__bad_interrupt>
   e:	25 c0       	rjmp	.+74     	; 0x5a <__bad_interrupt>
  10:	3d c1       	rjmp	.+634    	; 0x28c <__vector_8>
  12:	23 c0       	rjmp	.+70     	; 0x5a <__bad_interrupt>
  14:	22 c0       	rjmp	.+68     	; 0x5a <__bad_interrupt>
  16:	21 c0       	rjmp	.+66     	; 0x5a <__bad_interrupt>
  18:	20 c0       	rjmp	.+64     	; 0x5a <__bad_interrupt>
  1a:	1f c0       	rjmp	.+62     	; 0x5a <__bad_interrupt>
  1c:	33 c0       	rjmp	.+102    	; 0x84 <__vector_14>
  1e:	1d c0       	rjmp	.+58     	; 0x5a <__bad_interrupt>
  20:	1c c0       	rjmp	.+56     	; 0x5a <__bad_interrupt>
  22:	1b c0       	rjmp	.+54     	; 0x5a <__bad_interrupt>
  24:	1a c0       	rjmp	.+52     	; 0x5a <__bad_interrupt>

00000026 <__ctors_end>:
  26:	11 24       	eor	r1, r1
  28:	1f be       	out	0x3f, r1	; 63
  2a:	cf e5       	ldi	r28, 0x5F	; 95
  2c:	d4 e0       	ldi	r29, 0x04	; 4
  2e:	de bf       	out	0x3e, r29	; 62
  30:	cd bf       	out	0x3d, r28	; 61

00000032 <__do_copy_data>:
  32:	10 e0       	ldi	r17, 0x00	; 0
  34:	a0 e6       	ldi	r26, 0x60	; 96
  36:	b0 e0       	ldi	r27, 0x00	; 0
  38:	ec e4       	ldi	r30, 0x4C	; 76
  3a:	f7 e0       	ldi	r31, 0x07	; 7
  3c:	02 c0       	rjmp	.+4      	; 0x42 <.do_copy_data_start>

0000003e <.do_copy_data_loop>:
  3e:	05 90       	lpm	r0, Z+
  40:	0d 92       	st	X+, r0

00000042 <.do_copy_data_start>:
  42:	ae 37       	cpi	r26, 0x7E	; 126
  44:	b1 07       	cpc	r27, r17
  46:	d9 f7       	brne	.-10     	; 0x3e <__SP_H__>

00000048 <__do_clear_bss>:
  48:	10 e0       	ldi	r17, 0x00	; 0
  4a:	ae e7       	ldi	r26, 0x7E	; 126
  4c:	b0 e0       	ldi	r27, 0x00	; 0
  4e:	01 c0       	rjmp	.+2      	; 0x52 <.do_clear_bss_start>

00000050 <.do_clear_bss_loop>:
  50:	1d 92       	st	X+, r1

00000052 <.do_clear_bss_start>:
  52:	a7 39       	cpi	r26, 0x97	; 151
  54:	b1 07       	cpc	r27, r17
  56:	e1 f7       	brne	.-8      	; 0x50 <.do_clear_bss_loop>
  58:	7d c1       	rjmp	.+762    	; 0x354 <main>

0000005a <__bad_interrupt>:
  5a:	d2 cf       	rjmp	.-92     	; 0x0 <__heap_end>

0000005c <__vector_2>:
  5c:	1f 92       	push	r1
  5e:	0f 92       	push	r0
  60:	0f b6       	in	r0, 0x3f	; 63
  62:	0f 92       	push	r0
  64:	11 24       	eor	r1, r1
  66:	8f 93       	push	r24
  68:	9f 93       	push	r25
  6a:	82 ed       	ldi	r24, 0xD2	; 210
  6c:	94 e0       	ldi	r25, 0x04	; 4
  6e:	90 93 94 00 	sts	0x0094, r25
  72:	80 93 93 00 	sts	0x0093, r24
  76:	9f 91       	pop	r25
  78:	8f 91       	pop	r24
  7a:	0f 90       	pop	r0
  7c:	0f be       	out	0x3f, r0	; 63
  7e:	0f 90       	pop	r0
  80:	1f 90       	pop	r1
  82:	18 95       	reti

00000084 <__vector_14>:
  84:	78 94       	sei
  86:	1f 92       	push	r1
  88:	0f 92       	push	r0
  8a:	0f b6       	in	r0, 0x3f	; 63
  8c:	0f 92       	push	r0
  8e:	11 24       	eor	r1, r1
  90:	2f 93       	push	r18
  92:	3f 93       	push	r19
  94:	8f 93       	push	r24
  96:	9f 93       	push	r25
  98:	84 b1       	in	r24, 0x04	; 4
  9a:	25 b1       	in	r18, 0x05	; 5
  9c:	33 27       	eor	r19, r19
  9e:	32 2f       	mov	r19, r18
  a0:	22 27       	eor	r18, r18
  a2:	99 27       	eor	r25, r25
  a4:	28 2b       	or	r18, r24
  a6:	39 2b       	or	r19, r25
  a8:	30 93 80 00 	sts	0x0080, r19
  ac:	20 93 7f 00 	sts	0x007F, r18
  b0:	10 92 7e 00 	sts	0x007E, r1
  b4:	80 91 93 00 	lds	r24, 0x0093
  b8:	90 91 94 00 	lds	r25, 0x0094
  bc:	01 96       	adiw	r24, 0x01	; 1
  be:	90 93 94 00 	sts	0x0094, r25
  c2:	80 93 93 00 	sts	0x0093, r24
  c6:	9f 91       	pop	r25
  c8:	8f 91       	pop	r24
  ca:	3f 91       	pop	r19
  cc:	2f 91       	pop	r18
  ce:	0f 90       	pop	r0
  d0:	0f be       	out	0x3f, r0	; 63
  d2:	0f 90       	pop	r0
  d4:	1f 90       	pop	r1
  d6:	18 95       	reti

000000d8 <__vector_4>:
  d8:	1f 92       	push	r1
  da:	0f 92       	push	r0
  dc:	0f b6       	in	r0, 0x3f	; 63
  de:	0f 92       	push	r0
  e0:	11 24       	eor	r1, r1
  e2:	2f 93       	push	r18
  e4:	3f 93       	push	r19
  e6:	4f 93       	push	r20
  e8:	5f 93       	push	r21
  ea:	6f 93       	push	r22
  ec:	7f 93       	push	r23
  ee:	8f 93       	push	r24
  f0:	9f 93       	push	r25
  f2:	af 93       	push	r26
  f4:	bf 93       	push	r27
  f6:	ef 93       	push	r30
  f8:	ff 93       	push	r31
  fa:	80 91 88 00 	lds	r24, 0x0088
  fe:	90 91 89 00 	lds	r25, 0x0089
 102:	01 96       	adiw	r24, 0x01	; 1
 104:	90 93 89 00 	sts	0x0089, r25
 108:	80 93 88 00 	sts	0x0088, r24
 10c:	80 91 88 00 	lds	r24, 0x0088
 110:	90 91 89 00 	lds	r25, 0x0089
 114:	44 97       	sbiw	r24, 0x14	; 20
 116:	09 f0       	breq	.+2      	; 0x11a <__vector_4+0x42>
 118:	a1 c0       	rjmp	.+322    	; 0x25c <__vector_4+0x184>
 11a:	60 e0       	ldi	r22, 0x00	; 0
 11c:	80 e0       	ldi	r24, 0x00	; 0
 11e:	ae d1       	rcall	.+860    	; 0x47c <lcd_gotoxy>
 120:	80 e6       	ldi	r24, 0x60	; 96
 122:	90 e0       	ldi	r25, 0x00	; 0
 124:	9a d1       	rcall	.+820    	; 0x45a <lcd_puts>
 126:	80 91 91 00 	lds	r24, 0x0091
 12a:	90 91 92 00 	lds	r25, 0x0092
 12e:	4a e0       	ldi	r20, 0x0A	; 10
 130:	50 e0       	ldi	r21, 0x00	; 0
 132:	6a e8       	ldi	r22, 0x8A	; 138
 134:	70 e0       	ldi	r23, 0x00	; 0
 136:	da d1       	rcall	.+948    	; 0x4ec <itoa>
 138:	8a e8       	ldi	r24, 0x8A	; 138
 13a:	90 e0       	ldi	r25, 0x00	; 0
 13c:	8e d1       	rcall	.+796    	; 0x45a <lcd_puts>
 13e:	87 e6       	ldi	r24, 0x67	; 103
 140:	90 e0       	ldi	r25, 0x00	; 0
 142:	8b d1       	rcall	.+790    	; 0x45a <lcd_puts>
 144:	8d e6       	ldi	r24, 0x6D	; 109
 146:	90 e0       	ldi	r25, 0x00	; 0
 148:	88 d1       	rcall	.+784    	; 0x45a <lcd_puts>
 14a:	80 91 7f 00 	lds	r24, 0x007F
 14e:	90 91 80 00 	lds	r25, 0x0080
 152:	60 e9       	ldi	r22, 0x90	; 144
 154:	71 e0       	ldi	r23, 0x01	; 1
 156:	d3 d2       	rcall	.+1446   	; 0x6fe <__divmodhi4>
 158:	60 93 81 00 	sts	0x0081, r22
 15c:	70 93 82 00 	sts	0x0082, r23
 160:	80 93 83 00 	sts	0x0083, r24
 164:	90 93 84 00 	sts	0x0084, r25
 168:	4a e0       	ldi	r20, 0x0A	; 10
 16a:	50 e0       	ldi	r21, 0x00	; 0
 16c:	6a e8       	ldi	r22, 0x8A	; 138
 16e:	70 e0       	ldi	r23, 0x00	; 0
 170:	80 91 81 00 	lds	r24, 0x0081
 174:	90 91 82 00 	lds	r25, 0x0082
 178:	b9 d1       	rcall	.+882    	; 0x4ec <itoa>
 17a:	8a e8       	ldi	r24, 0x8A	; 138
 17c:	90 e0       	ldi	r25, 0x00	; 0
 17e:	6d d1       	rcall	.+730    	; 0x45a <lcd_puts>
 180:	84 e7       	ldi	r24, 0x74	; 116
 182:	90 e0       	ldi	r25, 0x00	; 0
 184:	6a d1       	rcall	.+724    	; 0x45a <lcd_puts>
 186:	60 91 83 00 	lds	r22, 0x0083
 18a:	70 91 84 00 	lds	r23, 0x0084
 18e:	88 27       	eor	r24, r24
 190:	77 fd       	sbrc	r23, 7
 192:	80 95       	com	r24
 194:	98 2f       	mov	r25, r24
 196:	48 d2       	rcall	.+1168   	; 0x628 <__floatsisf>
 198:	2d ec       	ldi	r18, 0xCD	; 205
 19a:	3c ec       	ldi	r19, 0xCC	; 204
 19c:	4c ec       	ldi	r20, 0xCC	; 204
 19e:	5e e3       	ldi	r21, 0x3E	; 62
 1a0:	e0 d1       	rcall	.+960    	; 0x562 <__divsf3>
 1a2:	20 e0       	ldi	r18, 0x00	; 0
 1a4:	30 e0       	ldi	r19, 0x00	; 0
 1a6:	48 ec       	ldi	r20, 0xC8	; 200
 1a8:	52 e4       	ldi	r21, 0x42	; 66
 1aa:	48 d2       	rcall	.+1168   	; 0x63c <__eqsf2>
 1ac:	88 23       	and	r24, r24
 1ae:	1c f4       	brge	.+6      	; 0x1b6 <__vector_4+0xde>
 1b0:	86 e7       	ldi	r24, 0x76	; 118
 1b2:	90 e0       	ldi	r25, 0x00	; 0
 1b4:	52 d1       	rcall	.+676    	; 0x45a <lcd_puts>
 1b6:	60 91 83 00 	lds	r22, 0x0083
 1ba:	70 91 84 00 	lds	r23, 0x0084
 1be:	88 27       	eor	r24, r24
 1c0:	77 fd       	sbrc	r23, 7
 1c2:	80 95       	com	r24
 1c4:	98 2f       	mov	r25, r24
 1c6:	30 d2       	rcall	.+1120   	; 0x628 <__floatsisf>
 1c8:	2d ec       	ldi	r18, 0xCD	; 205
 1ca:	3c ec       	ldi	r19, 0xCC	; 204
 1cc:	4c ec       	ldi	r20, 0xCC	; 204
 1ce:	5e e3       	ldi	r21, 0x3E	; 62
 1d0:	c8 d1       	rcall	.+912    	; 0x562 <__divsf3>
 1d2:	20 e0       	ldi	r18, 0x00	; 0
 1d4:	30 e0       	ldi	r19, 0x00	; 0
 1d6:	40 e2       	ldi	r20, 0x20	; 32
 1d8:	51 e4       	ldi	r21, 0x41	; 65
 1da:	30 d2       	rcall	.+1120   	; 0x63c <__eqsf2>
 1dc:	88 23       	and	r24, r24
 1de:	1c f4       	brge	.+6      	; 0x1e6 <__vector_4+0x10e>
 1e0:	86 e7       	ldi	r24, 0x76	; 118
 1e2:	90 e0       	ldi	r25, 0x00	; 0
 1e4:	3a d1       	rcall	.+628    	; 0x45a <lcd_puts>
 1e6:	60 91 83 00 	lds	r22, 0x0083
 1ea:	70 91 84 00 	lds	r23, 0x0084
 1ee:	88 27       	eor	r24, r24
 1f0:	77 fd       	sbrc	r23, 7
 1f2:	80 95       	com	r24
 1f4:	98 2f       	mov	r25, r24
 1f6:	18 d2       	rcall	.+1072   	; 0x628 <__floatsisf>
 1f8:	2d ec       	ldi	r18, 0xCD	; 205
 1fa:	3c ec       	ldi	r19, 0xCC	; 204
 1fc:	4c ec       	ldi	r20, 0xCC	; 204
 1fe:	5e e3       	ldi	r21, 0x3E	; 62
 200:	b0 d1       	rcall	.+864    	; 0x562 <__divsf3>
 202:	f5 d1       	rcall	.+1002   	; 0x5ee <__fixsfsi>
 204:	dc 01       	movw	r26, r24
 206:	cb 01       	movw	r24, r22
 208:	4a e0       	ldi	r20, 0x0A	; 10
 20a:	50 e0       	ldi	r21, 0x00	; 0
 20c:	6a e8       	ldi	r22, 0x8A	; 138
 20e:	70 e0       	ldi	r23, 0x00	; 0
 210:	6d d1       	rcall	.+730    	; 0x4ec <itoa>
 212:	8a e8       	ldi	r24, 0x8A	; 138
 214:	90 e0       	ldi	r25, 0x00	; 0
 216:	21 d1       	rcall	.+578    	; 0x45a <lcd_puts>
 218:	88 e7       	ldi	r24, 0x78	; 120
 21a:	90 e0       	ldi	r25, 0x00	; 0
 21c:	1e d1       	rcall	.+572    	; 0x45a <lcd_puts>
 21e:	80 91 93 00 	lds	r24, 0x0093
 222:	90 91 94 00 	lds	r25, 0x0094
 226:	4a e0       	ldi	r20, 0x0A	; 10
 228:	50 e0       	ldi	r21, 0x00	; 0
 22a:	6a e8       	ldi	r22, 0x8A	; 138
 22c:	70 e0       	ldi	r23, 0x00	; 0
 22e:	5e d1       	rcall	.+700    	; 0x4ec <itoa>
 230:	8a e8       	ldi	r24, 0x8A	; 138
 232:	90 e0       	ldi	r25, 0x00	; 0
 234:	12 d1       	rcall	.+548    	; 0x45a <lcd_puts>
 236:	80 91 95 00 	lds	r24, 0x0095
 23a:	90 91 96 00 	lds	r25, 0x0096
 23e:	4a e0       	ldi	r20, 0x0A	; 10
 240:	50 e0       	ldi	r21, 0x00	; 0
 242:	6a e8       	ldi	r22, 0x8A	; 138
 244:	70 e0       	ldi	r23, 0x00	; 0
 246:	52 d1       	rcall	.+676    	; 0x4ec <itoa>
 248:	8b e7       	ldi	r24, 0x7B	; 123
 24a:	90 e0       	ldi	r25, 0x00	; 0
 24c:	06 d1       	rcall	.+524    	; 0x45a <lcd_puts>
 24e:	8a e8       	ldi	r24, 0x8A	; 138
 250:	90 e0       	ldi	r25, 0x00	; 0
 252:	03 d1       	rcall	.+518    	; 0x45a <lcd_puts>
 254:	10 92 89 00 	sts	0x0089, r1
 258:	10 92 88 00 	sts	0x0088, r1
 25c:	10 92 92 00 	sts	0x0092, r1
 260:	10 92 91 00 	sts	0x0091, r1
 264:	8c e3       	ldi	r24, 0x3C	; 60
 266:	84 bd       	out	0x24, r24	; 36
 268:	36 9a       	sbi	0x06, 6	; 6
 26a:	ff 91       	pop	r31
 26c:	ef 91       	pop	r30
 26e:	bf 91       	pop	r27
 270:	af 91       	pop	r26
 272:	9f 91       	pop	r25
 274:	8f 91       	pop	r24
 276:	7f 91       	pop	r23
 278:	6f 91       	pop	r22
 27a:	5f 91       	pop	r21
 27c:	4f 91       	pop	r20
 27e:	3f 91       	pop	r19
 280:	2f 91       	pop	r18
 282:	0f 90       	pop	r0
 284:	0f be       	out	0x3f, r0	; 63
 286:	0f 90       	pop	r0
 288:	1f 90       	pop	r1
 28a:	18 95       	reti

0000028c <__vector_8>:
 28c:	78 94       	sei
 28e:	1f 92       	push	r1
 290:	0f 92       	push	r0
 292:	0f b6       	in	r0, 0x3f	; 63
 294:	0f 92       	push	r0
 296:	11 24       	eor	r1, r1
 298:	2f 93       	push	r18
 29a:	8f 93       	push	r24
 29c:	9f 93       	push	r25
 29e:	81 ec       	ldi	r24, 0xC1	; 193
 2a0:	9f ef       	ldi	r25, 0xFF	; 255
 2a2:	9d bd       	out	0x2d, r25	; 45
 2a4:	8c bd       	out	0x2c, r24	; 44
 2a6:	80 91 91 00 	lds	r24, 0x0091
 2aa:	90 91 92 00 	lds	r25, 0x0092
 2ae:	01 96       	adiw	r24, 0x01	; 1
 2b0:	90 93 92 00 	sts	0x0092, r25
 2b4:	80 93 91 00 	sts	0x0091, r24
 2b8:	80 91 87 00 	lds	r24, 0x0087
 2bc:	88 23       	and	r24, r24
 2be:	19 f0       	breq	.+6      	; 0x2c6 <__vector_8+0x3a>
 2c0:	81 30       	cpi	r24, 0x01	; 1
 2c2:	31 f5       	brne	.+76     	; 0x310 <__vector_8+0x84>
 2c4:	14 c0       	rjmp	.+40     	; 0x2ee <__vector_8+0x62>
 2c6:	80 91 95 00 	lds	r24, 0x0095
 2ca:	90 91 96 00 	lds	r25, 0x0096
 2ce:	01 96       	adiw	r24, 0x01	; 1
 2d0:	90 93 96 00 	sts	0x0096, r25
 2d4:	80 93 95 00 	sts	0x0095, r24
 2d8:	80 91 95 00 	lds	r24, 0x0095
 2dc:	90 91 96 00 	lds	r25, 0x0096
 2e0:	84 58       	subi	r24, 0x84	; 132
 2e2:	93 40       	sbci	r25, 0x03	; 3
 2e4:	a9 f4       	brne	.+42     	; 0x310 <__vector_8+0x84>
 2e6:	81 e0       	ldi	r24, 0x01	; 1
 2e8:	80 93 87 00 	sts	0x0087, r24
 2ec:	11 c0       	rjmp	.+34     	; 0x310 <__vector_8+0x84>
 2ee:	80 91 95 00 	lds	r24, 0x0095
 2f2:	90 91 96 00 	lds	r25, 0x0096
 2f6:	01 97       	sbiw	r24, 0x01	; 1
 2f8:	90 93 96 00 	sts	0x0096, r25
 2fc:	80 93 95 00 	sts	0x0095, r24
 300:	80 91 95 00 	lds	r24, 0x0095
 304:	90 91 96 00 	lds	r25, 0x0096
 308:	c2 97       	sbiw	r24, 0x32	; 50
 30a:	11 f4       	brne	.+4      	; 0x310 <__vector_8+0x84>
 30c:	10 92 87 00 	sts	0x0087, r1
 310:	80 91 95 00 	lds	r24, 0x0095
 314:	90 91 96 00 	lds	r25, 0x0096
 318:	9b bd       	out	0x2b, r25	; 43
 31a:	8a bd       	out	0x2a, r24	; 42
 31c:	9f 91       	pop	r25
 31e:	8f 91       	pop	r24
 320:	2f 91       	pop	r18
 322:	0f 90       	pop	r0
 324:	0f be       	out	0x3f, r0	; 63
 326:	0f 90       	pop	r0
 328:	1f 90       	pop	r1
 32a:	18 95       	reti

0000032c <ioinit>:
 32c:	f8 94       	cli
 32e:	81 e0       	ldi	r24, 0x01	; 1
 330:	8e bd       	out	0x2e, r24	; 46
 332:	87 e0       	ldi	r24, 0x07	; 7
 334:	85 bd       	out	0x25, r24	; 37
 336:	82 e0       	ldi	r24, 0x02	; 2
 338:	88 bb       	out	0x18, r24	; 24
 33a:	1b bc       	out	0x2b, r1	; 43
 33c:	1a bc       	out	0x2a, r1	; 42
 33e:	87 bb       	out	0x17, r24	; 23
 340:	84 e4       	ldi	r24, 0x44	; 68
 342:	89 bf       	out	0x39, r24	; 57
 344:	85 b7       	in	r24, 0x35	; 53
 346:	83 7f       	andi	r24, 0xF3	; 243
 348:	85 bf       	out	0x35, r24	; 53
 34a:	8b b7       	in	r24, 0x3b	; 59
 34c:	8f 77       	andi	r24, 0x7F	; 127
 34e:	8b bf       	out	0x3b, r24	; 59
 350:	78 94       	sei
 352:	08 95       	ret

00000354 <main>:
 354:	cf e5       	ldi	r28, 0x5F	; 95
 356:	d4 e0       	ldi	r29, 0x04	; 4
 358:	de bf       	out	0x3e, r29	; 62
 35a:	cd bf       	out	0x3d, r28	; 61
 35c:	8b 98       	cbi	0x11, 3	; 17
 35e:	93 9a       	sbi	0x12, 3	; 18
 360:	e5 df       	rcall	.-54     	; 0x32c <ioinit>
 362:	84 ec       	ldi	r24, 0xC4	; 196
 364:	87 b9       	out	0x07, r24	; 7
 366:	8c e9       	ldi	r24, 0x9C	; 156
 368:	86 b9       	out	0x06, r24	; 6
 36a:	ff cf       	rjmp	.-2      	; 0x36a <main+0x16>

0000036c <toggle_e>:
 36c:	90 9a       	sbi	0x12, 0	; 18
 36e:	00 c0       	rjmp	.+0      	; 0x370 <toggle_e+0x4>
 370:	90 98       	cbi	0x12, 0	; 18
 372:	08 95       	ret

00000374 <lcd_write>:
 374:	0f 93       	push	r16
 376:	1f 93       	push	r17
 378:	08 2f       	mov	r16, r24
 37a:	66 23       	and	r22, r22
 37c:	11 f0       	breq	.+4      	; 0x382 <lcd_write+0xe>
 37e:	91 9a       	sbi	0x12, 1	; 18
 380:	01 c0       	rjmp	.+2      	; 0x384 <lcd_write+0x10>
 382:	91 98       	cbi	0x12, 1	; 18
 384:	92 98       	cbi	0x12, 2	; 18
 386:	84 b3       	in	r24, 0x14	; 20
 388:	8f 60       	ori	r24, 0x0F	; 15
 38a:	84 bb       	out	0x14, r24	; 20
 38c:	15 b3       	in	r17, 0x15	; 21
 38e:	10 7f       	andi	r17, 0xF0	; 240
 390:	80 2f       	mov	r24, r16
 392:	82 95       	swap	r24
 394:	8f 70       	andi	r24, 0x0F	; 15
 396:	81 2b       	or	r24, r17
 398:	85 bb       	out	0x15, r24	; 21
 39a:	e8 df       	rcall	.-48     	; 0x36c <toggle_e>
 39c:	0f 70       	andi	r16, 0x0F	; 15
 39e:	01 2b       	or	r16, r17
 3a0:	05 bb       	out	0x15, r16	; 21
 3a2:	e4 df       	rcall	.-56     	; 0x36c <toggle_e>
 3a4:	1f 60       	ori	r17, 0x0F	; 15
 3a6:	15 bb       	out	0x15, r17	; 21
 3a8:	1f 91       	pop	r17
 3aa:	0f 91       	pop	r16
 3ac:	08 95       	ret

000003ae <lcd_read>:
 3ae:	88 23       	and	r24, r24
 3b0:	11 f0       	breq	.+4      	; 0x3b6 <lcd_read+0x8>
 3b2:	91 9a       	sbi	0x12, 1	; 18
 3b4:	01 c0       	rjmp	.+2      	; 0x3b8 <lcd_read+0xa>
 3b6:	91 98       	cbi	0x12, 1	; 18
 3b8:	92 9a       	sbi	0x12, 2	; 18
 3ba:	84 b3       	in	r24, 0x14	; 20
 3bc:	80 7f       	andi	r24, 0xF0	; 240
 3be:	84 bb       	out	0x14, r24	; 20
 3c0:	90 9a       	sbi	0x12, 0	; 18
 3c2:	00 c0       	rjmp	.+0      	; 0x3c4 <lcd_read+0x16>
 3c4:	83 b3       	in	r24, 0x13	; 19
 3c6:	90 98       	cbi	0x12, 0	; 18
 3c8:	00 c0       	rjmp	.+0      	; 0x3ca <lcd_read+0x1c>
 3ca:	90 9a       	sbi	0x12, 0	; 18
 3cc:	00 c0       	rjmp	.+0      	; 0x3ce <lcd_read+0x20>
 3ce:	93 b3       	in	r25, 0x13	; 19
 3d0:	90 98       	cbi	0x12, 0	; 18
 3d2:	82 95       	swap	r24
 3d4:	80 7f       	andi	r24, 0xF0	; 240
 3d6:	9f 70       	andi	r25, 0x0F	; 15
 3d8:	89 2b       	or	r24, r25
 3da:	99 27       	eor	r25, r25
 3dc:	08 95       	ret

000003de <lcd_waitbusy>:
 3de:	80 e0       	ldi	r24, 0x00	; 0
 3e0:	e6 df       	rcall	.-52     	; 0x3ae <lcd_read>
 3e2:	87 fd       	sbrc	r24, 7
 3e4:	fc cf       	rjmp	.-8      	; 0x3de <lcd_waitbusy>
 3e6:	82 e0       	ldi	r24, 0x02	; 2
 3e8:	90 e0       	ldi	r25, 0x00	; 0
 3ea:	01 97       	sbiw	r24, 0x01	; 1
 3ec:	f1 f7       	brne	.-4      	; 0x3ea <lcd_waitbusy+0xc>
 3ee:	80 e0       	ldi	r24, 0x00	; 0
 3f0:	de df       	rcall	.-68     	; 0x3ae <lcd_read>
 3f2:	99 27       	eor	r25, r25
 3f4:	08 95       	ret

000003f6 <lcd_getxy>:
 3f6:	f3 df       	rcall	.-26     	; 0x3de <lcd_waitbusy>
 3f8:	99 27       	eor	r25, r25
 3fa:	08 95       	ret

000003fc <lcd_data>:
 3fc:	1f 93       	push	r17
 3fe:	18 2f       	mov	r17, r24
 400:	ee df       	rcall	.-36     	; 0x3de <lcd_waitbusy>
 402:	61 e0       	ldi	r22, 0x01	; 1
 404:	81 2f       	mov	r24, r17
 406:	b6 df       	rcall	.-148    	; 0x374 <lcd_write>
 408:	1f 91       	pop	r17
 40a:	08 95       	ret

0000040c <lcd_command>:
 40c:	1f 93       	push	r17
 40e:	18 2f       	mov	r17, r24
 410:	e6 df       	rcall	.-52     	; 0x3de <lcd_waitbusy>
 412:	60 e0       	ldi	r22, 0x00	; 0
 414:	81 2f       	mov	r24, r17
 416:	ae df       	rcall	.-164    	; 0x374 <lcd_write>
 418:	1f 91       	pop	r17
 41a:	08 95       	ret

0000041c <lcd_putc>:
 41c:	1f 93       	push	r17
 41e:	18 2f       	mov	r17, r24
 420:	de df       	rcall	.-68     	; 0x3de <lcd_waitbusy>
 422:	1a 30       	cpi	r17, 0x0A	; 10
 424:	41 f4       	brne	.+16     	; 0x436 <lcd_putc+0x1a>
 426:	80 34       	cpi	r24, 0x40	; 64
 428:	10 f4       	brcc	.+4      	; 0x42e <lcd_putc+0x12>
 42a:	80 e4       	ldi	r24, 0x40	; 64
 42c:	01 c0       	rjmp	.+2      	; 0x430 <lcd_putc+0x14>
 42e:	80 e0       	ldi	r24, 0x00	; 0
 430:	80 58       	subi	r24, 0x80	; 128
 432:	ec df       	rcall	.-40     	; 0x40c <lcd_command>
 434:	03 c0       	rjmp	.+6      	; 0x43c <lcd_putc+0x20>
 436:	61 e0       	ldi	r22, 0x01	; 1
 438:	81 2f       	mov	r24, r17
 43a:	9c df       	rcall	.-200    	; 0x374 <lcd_write>
 43c:	1f 91       	pop	r17
 43e:	08 95       	ret

00000440 <lcd_puts_p>:
 440:	cf 93       	push	r28
 442:	df 93       	push	r29
 444:	ec 01       	movw	r28, r24
 446:	01 c0       	rjmp	.+2      	; 0x44a <lcd_puts_p+0xa>
 448:	e9 df       	rcall	.-46     	; 0x41c <lcd_putc>
 44a:	fe 01       	movw	r30, r28
 44c:	21 96       	adiw	r28, 0x01	; 1
 44e:	84 91       	lpm	r24, Z
 450:	88 23       	and	r24, r24
 452:	d1 f7       	brne	.-12     	; 0x448 <lcd_puts_p+0x8>
 454:	df 91       	pop	r29
 456:	cf 91       	pop	r28
 458:	08 95       	ret

0000045a <lcd_puts>:
 45a:	cf 93       	push	r28
 45c:	df 93       	push	r29
 45e:	ec 01       	movw	r28, r24
 460:	01 c0       	rjmp	.+2      	; 0x464 <__stack+0x5>
 462:	dc df       	rcall	.-72     	; 0x41c <lcd_putc>
 464:	89 91       	ld	r24, Y+
 466:	88 23       	and	r24, r24
 468:	e1 f7       	brne	.-8      	; 0x462 <__stack+0x3>
 46a:	df 91       	pop	r29
 46c:	cf 91       	pop	r28
 46e:	08 95       	ret

00000470 <lcd_home>:
 470:	82 e0       	ldi	r24, 0x02	; 2
 472:	cc df       	rcall	.-104    	; 0x40c <lcd_command>
 474:	08 95       	ret

00000476 <lcd_clrscr>:
 476:	81 e0       	ldi	r24, 0x01	; 1
 478:	c9 df       	rcall	.-110    	; 0x40c <lcd_command>
 47a:	08 95       	ret

0000047c <lcd_gotoxy>:
 47c:	66 23       	and	r22, r22
 47e:	11 f4       	brne	.+4      	; 0x484 <lcd_gotoxy+0x8>
 480:	80 58       	subi	r24, 0x80	; 128
 482:	01 c0       	rjmp	.+2      	; 0x486 <lcd_gotoxy+0xa>
 484:	80 54       	subi	r24, 0x40	; 64
 486:	c2 df       	rcall	.-124    	; 0x40c <lcd_command>
 488:	08 95       	ret

0000048a <lcd_init>:
 48a:	ff 92       	push	r15
 48c:	0f 93       	push	r16
 48e:	1f 93       	push	r17
 490:	f8 2e       	mov	r15, r24
 492:	84 b3       	in	r24, 0x14	; 20
 494:	8f 60       	ori	r24, 0x0F	; 15
 496:	84 bb       	out	0x14, r24	; 20
 498:	89 9a       	sbi	0x11, 1	; 17
 49a:	8a 9a       	sbi	0x11, 2	; 17
 49c:	88 9a       	sbi	0x11, 0	; 17
 49e:	80 e8       	ldi	r24, 0x80	; 128
 4a0:	9e e3       	ldi	r25, 0x3E	; 62
 4a2:	01 97       	sbiw	r24, 0x01	; 1
 4a4:	f1 f7       	brne	.-4      	; 0x4a2 <lcd_init+0x18>
 4a6:	a9 9a       	sbi	0x15, 1	; 21
 4a8:	a8 9a       	sbi	0x15, 0	; 21
 4aa:	60 df       	rcall	.-320    	; 0x36c <toggle_e>
 4ac:	80 e8       	ldi	r24, 0x80	; 128
 4ae:	93 e1       	ldi	r25, 0x13	; 19
 4b0:	01 97       	sbiw	r24, 0x01	; 1
 4b2:	f1 f7       	brne	.-4      	; 0x4b0 <lcd_init+0x26>
 4b4:	5b df       	rcall	.-330    	; 0x36c <toggle_e>
 4b6:	00 e4       	ldi	r16, 0x40	; 64
 4b8:	10 e0       	ldi	r17, 0x00	; 0
 4ba:	c8 01       	movw	r24, r16
 4bc:	01 97       	sbiw	r24, 0x01	; 1
 4be:	f1 f7       	brne	.-4      	; 0x4bc <lcd_init+0x32>
 4c0:	55 df       	rcall	.-342    	; 0x36c <toggle_e>
 4c2:	c8 01       	movw	r24, r16
 4c4:	01 97       	sbiw	r24, 0x01	; 1
 4c6:	f1 f7       	brne	.-4      	; 0x4c4 <lcd_init+0x3a>
 4c8:	a8 98       	cbi	0x15, 0	; 21
 4ca:	50 df       	rcall	.-352    	; 0x36c <toggle_e>
 4cc:	c8 01       	movw	r24, r16
 4ce:	01 97       	sbiw	r24, 0x01	; 1
 4d0:	f1 f7       	brne	.-4      	; 0x4ce <lcd_init+0x44>
 4d2:	88 e2       	ldi	r24, 0x28	; 40
 4d4:	9b df       	rcall	.-202    	; 0x40c <lcd_command>
 4d6:	88 e0       	ldi	r24, 0x08	; 8
 4d8:	99 df       	rcall	.-206    	; 0x40c <lcd_command>
 4da:	cd df       	rcall	.-102    	; 0x476 <lcd_clrscr>
 4dc:	86 e0       	ldi	r24, 0x06	; 6
 4de:	96 df       	rcall	.-212    	; 0x40c <lcd_command>
 4e0:	8f 2d       	mov	r24, r15
 4e2:	94 df       	rcall	.-216    	; 0x40c <lcd_command>
 4e4:	1f 91       	pop	r17
 4e6:	0f 91       	pop	r16
 4e8:	ff 90       	pop	r15
 4ea:	08 95       	ret

000004ec <itoa>:
 4ec:	e6 2f       	mov	r30, r22
 4ee:	f7 2f       	mov	r31, r23
 4f0:	2e 2f       	mov	r18, r30
 4f2:	3f 2f       	mov	r19, r31
 4f4:	e8 94       	clt
 4f6:	42 30       	cpi	r20, 0x02	; 2
 4f8:	c4 f0       	brlt	.+48     	; 0x52a <terminate>
 4fa:	45 32       	cpi	r20, 0x25	; 37
 4fc:	b4 f4       	brge	.+44     	; 0x52a <terminate>
 4fe:	4a 30       	cpi	r20, 0x0A	; 10
 500:	29 f4       	brne	.+10     	; 0x50c <divide_loop>
 502:	97 fb       	bst	r25, 7
 504:	1e f4       	brtc	.+6      	; 0x50c <divide_loop>
 506:	90 95       	com	r25
 508:	81 95       	neg	r24
 50a:	9f 4f       	sbci	r25, 0xFF	; 255

0000050c <divide_loop>:
 50c:	64 2f       	mov	r22, r20
 50e:	77 27       	eor	r23, r23
 510:	09 d1       	rcall	.+530    	; 0x724 <__udivmodhi4>
 512:	80 5d       	subi	r24, 0xD0	; 208
 514:	8a 33       	cpi	r24, 0x3A	; 58
 516:	0c f0       	brlt	.+2      	; 0x51a <L_10>
 518:	89 5d       	subi	r24, 0xD9	; 217

0000051a <L_10>:
 51a:	81 93       	st	Z+, r24
 51c:	86 2f       	mov	r24, r22
 51e:	97 2f       	mov	r25, r23
 520:	00 97       	sbiw	r24, 0x00	; 0
 522:	a1 f7       	brne	.-24     	; 0x50c <divide_loop>
 524:	16 f4       	brtc	.+4      	; 0x52a <terminate>
 526:	5d e2       	ldi	r21, 0x2D	; 45
 528:	51 93       	st	Z+, r21

0000052a <terminate>:
 52a:	93 2f       	mov	r25, r19
 52c:	82 2f       	mov	r24, r18
 52e:	10 82       	st	Z, r1
 530:	00 c0       	rjmp	.+0      	; 0x532 <strrev>

00000532 <strrev>:
 532:	dc 01       	movw	r26, r24
 534:	fc 01       	movw	r30, r24

00000536 <.strrev_eos>:
 536:	01 90       	ld	r0, Z+
 538:	00 20       	and	r0, r0
 53a:	e9 f7       	brne	.-6      	; 0x536 <.strrev_eos>
 53c:	32 97       	sbiw	r30, 0x02	; 2

0000053e <.strrev_loop>:
 53e:	ae 17       	cp	r26, r30
 540:	bf 07       	cpc	r27, r31
 542:	30 f4       	brcc	.+12     	; 0x550 <.strrev_done>
 544:	7c 91       	ld	r23, X
 546:	60 81       	ld	r22, Z
 548:	70 83       	st	Z, r23
 54a:	31 97       	sbiw	r30, 0x01	; 1
 54c:	6d 93       	st	X+, r22
 54e:	f7 cf       	rjmp	.-18     	; 0x53e <.strrev_loop>

00000550 <.strrev_done>:
 550:	08 95       	ret

00000552 <__fp_inverse>:
 552:	59 2f       	mov	r21, r25
 554:	48 2f       	mov	r20, r24
 556:	37 2f       	mov	r19, r23
 558:	26 2f       	mov	r18, r22
 55a:	9f e3       	ldi	r25, 0x3F	; 63
 55c:	80 e8       	ldi	r24, 0x80	; 128
 55e:	77 27       	eor	r23, r23
 560:	66 27       	eor	r22, r22

00000562 <__divsf3>:
 562:	ae d0       	rcall	.+348    	; 0x6c0 <__fp_split3>
 564:	01 d0       	rcall	.+2      	; 0x568 <__divsf3x>
 566:	91 c0       	rjmp	.+290    	; 0x68a <__fp_merge>

00000568 <__divsf3x>:
 568:	55 23       	and	r21, r21
 56a:	59 f0       	breq	.+22     	; 0x582 <___divsf3x_INF>
 56c:	99 23       	and	r25, r25
 56e:	69 f0       	breq	.+26     	; 0x58a <___divsf3x_ZERO>

00000570 <___divsf3x_10>:
 570:	9f 57       	subi	r25, 0x7F	; 127
 572:	5f 57       	subi	r21, 0x7F	; 127
 574:	95 1b       	sub	r25, r21
 576:	33 f4       	brvc	.+12     	; 0x584 <___divsf3x_100>
 578:	42 f4       	brpl	.+16     	; 0x58a <___divsf3x_ZERO>
 57a:	90 38       	cpi	r25, 0x80	; 128
 57c:	11 f4       	brne	.+4      	; 0x582 <___divsf3x_INF>
 57e:	91 58       	subi	r25, 0x81	; 129
 580:	05 c0       	rjmp	.+10     	; 0x58c <___divsf3x_110>

00000582 <___divsf3x_INF>:
 582:	9b c0       	rjmp	.+310    	; 0x6ba <__fp_nan>

00000584 <___divsf3x_100>:
 584:	91 58       	subi	r25, 0x81	; 129
 586:	9f 3f       	cpi	r25, 0xFF	; 255
 588:	09 f4       	brne	.+2      	; 0x58c <___divsf3x_110>

0000058a <___divsf3x_ZERO>:
 58a:	b7 c0       	rjmp	.+366    	; 0x6fa <__fp_zerox>

0000058c <___divsf3x_110>:
 58c:	bb 27       	eor	r27, r27
 58e:	11 24       	eor	r1, r1
 590:	62 17       	cp	r22, r18
 592:	73 07       	cpc	r23, r19
 594:	84 07       	cpc	r24, r20
 596:	30 f4       	brcc	.+12     	; 0x5a4 <___divsf3x_140>
 598:	66 0f       	add	r22, r22
 59a:	77 1f       	adc	r23, r23
 59c:	88 1f       	adc	r24, r24
 59e:	bb 1f       	adc	r27, r27
 5a0:	91 50       	subi	r25, 0x01	; 1
 5a2:	98 f3       	brcs	.-26     	; 0x58a <___divsf3x_ZERO>

000005a4 <___divsf3x_140>:
 5a4:	11 d0       	rcall	.+34     	; 0x5c8 <___divsf3x_loop200>
 5a6:	0f 92       	push	r0
 5a8:	0f d0       	rcall	.+30     	; 0x5c8 <___divsf3x_loop200>
 5aa:	0f 92       	push	r0
 5ac:	0d d0       	rcall	.+26     	; 0x5c8 <___divsf3x_loop200>

000005ae <___divsf3x_300>:
 5ae:	a0 e8       	ldi	r26, 0x80	; 128
 5b0:	26 17       	cp	r18, r22
 5b2:	37 07       	cpc	r19, r23
 5b4:	48 07       	cpc	r20, r24
 5b6:	1b 06       	cpc	r1, r27
 5b8:	09 f0       	breq	.+2      	; 0x5bc <___divsf3x_310>
 5ba:	a0 48       	sbci	r26, 0x80	; 128

000005bc <___divsf3x_310>:
 5bc:	ba 2f       	mov	r27, r26
 5be:	60 2d       	mov	r22, r0
 5c0:	7f 91       	pop	r23
 5c2:	8f 91       	pop	r24
 5c4:	00 24       	eor	r0, r0
 5c6:	08 95       	ret

000005c8 <___divsf3x_loop200>:
 5c8:	a0 e8       	ldi	r26, 0x80	; 128
 5ca:	00 24       	eor	r0, r0

000005cc <___divsf3x_loop210>:
 5cc:	62 17       	cp	r22, r18
 5ce:	73 07       	cpc	r23, r19
 5d0:	84 07       	cpc	r24, r20
 5d2:	b1 05       	cpc	r27, r1
 5d4:	28 f0       	brcs	.+10     	; 0x5e0 <___divsf3x_loop211>
 5d6:	62 1b       	sub	r22, r18
 5d8:	73 0b       	sbc	r23, r19
 5da:	84 0b       	sbc	r24, r20
 5dc:	b1 09       	sbc	r27, r1
 5de:	0a 2a       	or	r0, r26

000005e0 <___divsf3x_loop211>:
 5e0:	66 0f       	add	r22, r22
 5e2:	77 1f       	adc	r23, r23
 5e4:	88 1f       	adc	r24, r24
 5e6:	bb 1f       	adc	r27, r27
 5e8:	a6 95       	lsr	r26
 5ea:	81 f7       	brne	.-32     	; 0x5cc <___divsf3x_loop210>
 5ec:	08 95       	ret

000005ee <__fixsfsi>:
 5ee:	97 fb       	bst	r25, 7
 5f0:	73 d0       	rcall	.+230    	; 0x6d8 <__fp_split1>
 5f2:	9f 37       	cpi	r25, 0x7F	; 127
 5f4:	38 f0       	brcs	.+14     	; 0x604 <___fixsfsi_zero>
 5f6:	fe e9       	ldi	r31, 0x9E	; 158
 5f8:	f9 1b       	sub	r31, r25
 5fa:	98 2f       	mov	r25, r24
 5fc:	87 2f       	mov	r24, r23
 5fe:	76 2f       	mov	r23, r22
 600:	6b 2f       	mov	r22, r27
 602:	05 c0       	rjmp	.+10     	; 0x60e <___fixsfsi_10>

00000604 <___fixsfsi_zero>:
 604:	77 c0       	rjmp	.+238    	; 0x6f4 <__fp_zero>

00000606 <___fixsfsi_05>:
 606:	96 95       	lsr	r25
 608:	87 95       	ror	r24
 60a:	77 95       	ror	r23
 60c:	67 95       	ror	r22

0000060e <___fixsfsi_10>:
 60e:	f1 50       	subi	r31, 0x01	; 1
 610:	d0 f7       	brcc	.-12     	; 0x606 <___fixsfsi_05>
 612:	3e f4       	brtc	.+14     	; 0x622 <no_neg>

00000614 <__fp_lneg>:
 614:	90 95       	com	r25
 616:	80 95       	com	r24
 618:	70 95       	com	r23
 61a:	61 95       	neg	r22
 61c:	7f 4f       	sbci	r23, 0xFF	; 255
 61e:	8f 4f       	sbci	r24, 0xFF	; 255
 620:	9f 4f       	sbci	r25, 0xFF	; 255

00000622 <no_neg>:
 622:	08 95       	ret

00000624 <__floatunssisf>:
 624:	e8 94       	clt
 626:	03 c0       	rjmp	.+6      	; 0x62e <___floatsisf_10>

00000628 <__floatsisf>:
 628:	97 fb       	bst	r25, 7
 62a:	0e f4       	brtc	.+2      	; 0x62e <___floatsisf_10>
 62c:	f3 df       	rcall	.-26     	; 0x614 <__fp_lneg>

0000062e <___floatsisf_10>:
 62e:	b6 2f       	mov	r27, r22
 630:	67 2f       	mov	r22, r23
 632:	78 2f       	mov	r23, r24
 634:	89 2f       	mov	r24, r25
 636:	9e e9       	ldi	r25, 0x9E	; 158
 638:	00 24       	eor	r0, r0
 63a:	27 c0       	rjmp	.+78     	; 0x68a <__fp_merge>

0000063c <__eqsf2>:
 63c:	0e d0       	rcall	.+28     	; 0x65a <.fp_cmp>
 63e:	5e f0       	brts	.+22     	; 0x656 <.fp_cmp_gt>
 640:	04 c0       	rjmp	.+8      	; 0x64a <.fp_cmp_ret>

00000642 <__gesf2>:
 642:	0b d0       	rcall	.+22     	; 0x65a <.fp_cmp>
 644:	26 f0       	brts	.+8      	; 0x64e <.fp_cmp_lt>
 646:	01 c0       	rjmp	.+2      	; 0x64a <.fp_cmp_ret>

00000648 <__cmpsf2>:
 648:	08 d0       	rcall	.+16     	; 0x65a <.fp_cmp>

0000064a <.fp_cmp_ret>:
 64a:	19 f0       	breq	.+6      	; 0x652 <.fp_cmp_eq>
 64c:	20 f4       	brcc	.+8      	; 0x656 <.fp_cmp_gt>

0000064e <.fp_cmp_lt>:
 64e:	8f ef       	ldi	r24, 0xFF	; 255
 650:	08 95       	ret

00000652 <.fp_cmp_eq>:
 652:	80 e0       	ldi	r24, 0x00	; 0
 654:	08 95       	ret

00000656 <.fp_cmp_gt>:
 656:	81 e0       	ldi	r24, 0x01	; 1
 658:	08 95       	ret

0000065a <.fp_cmp>:
 65a:	97 fb       	bst	r25, 7
 65c:	09 2e       	mov	r0, r25
 65e:	05 26       	eor	r0, r21
 660:	00 f8       	bld	r0, 0
 662:	68 94       	set
 664:	30 d0       	rcall	.+96     	; 0x6c6 <__fp_split2>
 666:	e8 94       	clt
 668:	07 fc       	sbrc	r0, 7
 66a:	07 c0       	rjmp	.+14     	; 0x67a <.fp_cmp_10>
 66c:	62 17       	cp	r22, r18
 66e:	73 07       	cpc	r23, r19
 670:	84 07       	cpc	r24, r20
 672:	95 07       	cpc	r25, r21
 674:	21 f0       	breq	.+8      	; 0x67e <.fp_cmp_20>
 676:	08 f4       	brcc	.+2      	; 0x67a <.fp_cmp_10>
 678:	00 94       	com	r0

0000067a <.fp_cmp_10>:
 67a:	07 94       	ror	r0
 67c:	98 94       	clz

0000067e <.fp_cmp_20>:
 67e:	08 95       	ret

00000680 <fp_merge_10>:
 680:	9a 95       	dec	r25
 682:	bb 0f       	add	r27, r27
 684:	66 1f       	adc	r22, r22
 686:	77 1f       	adc	r23, r23
 688:	88 1f       	adc	r24, r24

0000068a <__fp_merge>:
 68a:	11 24       	eor	r1, r1
 68c:	99 23       	and	r25, r25
 68e:	a1 f0       	breq	.+40     	; 0x6b8 <fp_merge300>
 690:	88 23       	and	r24, r24
 692:	b2 f7       	brpl	.-20     	; 0x680 <fp_merge_10>
 694:	9f 3f       	cpi	r25, 0xFF	; 255
 696:	59 f0       	breq	.+22     	; 0x6ae <fp_merge200>
 698:	bb 0f       	add	r27, r27
 69a:	48 f4       	brcc	.+18     	; 0x6ae <fp_merge200>
 69c:	21 f4       	brne	.+8      	; 0x6a6 <fp_merge100>
 69e:	00 20       	and	r0, r0
 6a0:	11 f4       	brne	.+4      	; 0x6a6 <fp_merge100>
 6a2:	60 ff       	sbrs	r22, 0
 6a4:	04 c0       	rjmp	.+8      	; 0x6ae <fp_merge200>

000006a6 <fp_merge100>:
 6a6:	6f 5f       	subi	r22, 0xFF	; 255
 6a8:	7f 4f       	sbci	r23, 0xFF	; 255
 6aa:	8f 4f       	sbci	r24, 0xFF	; 255
 6ac:	9f 4f       	sbci	r25, 0xFF	; 255

000006ae <fp_merge200>:
 6ae:	88 1f       	adc	r24, r24
 6b0:	97 95       	ror	r25
 6b2:	87 95       	ror	r24
 6b4:	97 f9       	bld	r25, 7
 6b6:	08 95       	ret

000006b8 <fp_merge300>:
 6b8:	1d c0       	rjmp	.+58     	; 0x6f4 <__fp_zero>

000006ba <__fp_nan>:
 6ba:	9f ef       	ldi	r25, 0xFF	; 255
 6bc:	80 ec       	ldi	r24, 0xC0	; 192
 6be:	08 95       	ret

000006c0 <__fp_split3>:
 6c0:	05 2e       	mov	r0, r21
 6c2:	09 26       	eor	r0, r25
 6c4:	07 fa       	bst	r0, 7

000006c6 <__fp_split2>:
 6c6:	44 0f       	add	r20, r20
 6c8:	55 1f       	adc	r21, r21
 6ca:	5f 3f       	cpi	r21, 0xFF	; 255
 6cc:	79 f0       	breq	.+30     	; 0x6ec <fp_split_nan>
 6ce:	aa 27       	eor	r26, r26
 6d0:	a5 17       	cp	r26, r21
 6d2:	08 f0       	brcs	.+2      	; 0x6d6 <__fp_split2+0x10>
 6d4:	51 e0       	ldi	r21, 0x01	; 1
 6d6:	47 95       	ror	r20

000006d8 <__fp_split1>:
 6d8:	88 0f       	add	r24, r24
 6da:	99 1f       	adc	r25, r25
 6dc:	9f 3f       	cpi	r25, 0xFF	; 255
 6de:	31 f0       	breq	.+12     	; 0x6ec <fp_split_nan>
 6e0:	bb 27       	eor	r27, r27
 6e2:	b9 17       	cp	r27, r25
 6e4:	08 f0       	brcs	.+2      	; 0x6e8 <__fp_split1+0x10>
 6e6:	91 e0       	ldi	r25, 0x01	; 1
 6e8:	87 95       	ror	r24
 6ea:	08 95       	ret

000006ec <fp_split_nan>:
 6ec:	9f 91       	pop	r25
 6ee:	9f 91       	pop	r25
 6f0:	11 24       	eor	r1, r1
 6f2:	e3 cf       	rjmp	.-58     	; 0x6ba <__fp_nan>

000006f4 <__fp_zero>:
 6f4:	66 27       	eor	r22, r22
 6f6:	77 27       	eor	r23, r23
 6f8:	88 27       	eor	r24, r24

000006fa <__fp_zerox>:
 6fa:	99 27       	eor	r25, r25
 6fc:	08 95       	ret

000006fe <__divmodhi4>:
 6fe:	97 fb       	bst	r25, 7
 700:	09 2e       	mov	r0, r25
 702:	07 26       	eor	r0, r23
 704:	0a d0       	rcall	.+20     	; 0x71a <__divmodhi4_neg1>
 706:	77 fd       	sbrc	r23, 7
 708:	04 d0       	rcall	.+8      	; 0x712 <__divmodhi4_neg2>
 70a:	0c d0       	rcall	.+24     	; 0x724 <__udivmodhi4>
 70c:	06 d0       	rcall	.+12     	; 0x71a <__divmodhi4_neg1>
 70e:	00 20       	and	r0, r0
 710:	1a f4       	brpl	.+6      	; 0x718 <__divmodhi4_exit>

00000712 <__divmodhi4_neg2>:
 712:	70 95       	com	r23
 714:	61 95       	neg	r22
 716:	7f 4f       	sbci	r23, 0xFF	; 255

00000718 <__divmodhi4_exit>:
 718:	08 95       	ret

0000071a <__divmodhi4_neg1>:
 71a:	f6 f7       	brtc	.-4      	; 0x718 <__divmodhi4_exit>
 71c:	90 95       	com	r25
 71e:	81 95       	neg	r24
 720:	9f 4f       	sbci	r25, 0xFF	; 255
 722:	08 95       	ret

00000724 <__udivmodhi4>:
 724:	aa 1b       	sub	r26, r26
 726:	bb 1b       	sub	r27, r27
 728:	51 e1       	ldi	r21, 0x11	; 17
 72a:	07 c0       	rjmp	.+14     	; 0x73a <__udivmodhi4_ep>

0000072c <__udivmodhi4_loop>:
 72c:	aa 1f       	adc	r26, r26
 72e:	bb 1f       	adc	r27, r27
 730:	a6 17       	cp	r26, r22
 732:	b7 07       	cpc	r27, r23
 734:	10 f0       	brcs	.+4      	; 0x73a <__udivmodhi4_ep>
 736:	a6 1b       	sub	r26, r22
 738:	b7 0b       	sbc	r27, r23

0000073a <__udivmodhi4_ep>:
 73a:	88 1f       	adc	r24, r24
 73c:	99 1f       	adc	r25, r25
 73e:	5a 95       	dec	r21
 740:	a9 f7       	brne	.-22     	; 0x72c <__udivmodhi4_loop>
 742:	80 95       	com	r24
 744:	90 95       	com	r25
 746:	bc 01       	movw	r22, r24
 748:	cd 01       	movw	r24, r26
 74a:	08 95       	ret