Archive member included because of file (symbol)

/usr/home/root/atmel/GCC/lib/gcc/avr/4.0.1/../../../../avr/lib/avr4/libm.a(divsf3.o)
                              test_lcd.o (__divsf3)
/usr/home/root/atmel/GCC/lib/gcc/avr/4.0.1/../../../../avr/lib/avr4/libm.a(divsf3x.o)
                              /usr/home/root/atmel/GCC/lib/gcc/avr/4.0.1/../../../../avr/lib/avr4/libm.a(divsf3.o) (__divsf3x)
/usr/home/root/atmel/GCC/lib/gcc/avr/4.0.1/../../../../avr/lib/avr4/libm.a(fixsfsi.o)
                              test_lcd.o (__fixsfsi)
/usr/home/root/atmel/GCC/lib/gcc/avr/4.0.1/../../../../avr/lib/avr4/libm.a(floatsisf.o)
                              test_lcd.o (__floatsisf)
/usr/home/root/atmel/GCC/lib/gcc/avr/4.0.1/../../../../avr/lib/avr4/libm.a(fp_cmp.o)
                              test_lcd.o (__ltsf2)
/usr/home/root/atmel/GCC/lib/gcc/avr/4.0.1/../../../../avr/lib/avr4/libm.a(fp_merge.o)
                              /usr/home/root/atmel/GCC/lib/gcc/avr/4.0.1/../../../../avr/lib/avr4/libm.a(divsf3.o) (__fp_merge)
/usr/home/root/atmel/GCC/lib/gcc/avr/4.0.1/../../../../avr/lib/avr4/libm.a(fp_nan.o)
                              /usr/home/root/atmel/GCC/lib/gcc/avr/4.0.1/../../../../avr/lib/avr4/libm.a(divsf3x.o) (__fp_nanx)
/usr/home/root/atmel/GCC/lib/gcc/avr/4.0.1/../../../../avr/lib/avr4/libm.a(fp_split.o)
                              /usr/home/root/atmel/GCC/lib/gcc/avr/4.0.1/../../../../avr/lib/avr4/libm.a(divsf3.o) (__fp_split3)
/usr/home/root/atmel/GCC/lib/gcc/avr/4.0.1/../../../../avr/lib/avr4/libm.a(fp_zero.o)
                              /usr/home/root/atmel/GCC/lib/gcc/avr/4.0.1/../../../../avr/lib/avr4/libm.a(fixsfsi.o) (__fp_zero)
/usr/home/root/atmel/GCC/lib/gcc/avr/4.0.1/avr4/libgcc.a(_divmodhi4.o)
                              test_lcd.o (__divmodhi4)
/usr/home/root/atmel/GCC/lib/gcc/avr/4.0.1/avr4/libgcc.a(_copy_data.o)
                              test_lcd.o (__do_copy_data)
/usr/home/root/atmel/GCC/lib/gcc/avr/4.0.1/avr4/libgcc.a(_clear_bss.o)
                              test_lcd.o (__do_clear_bss)
/usr/home/root/atmel/GCC/lib/gcc/avr/4.0.1/avr4/libgcc.a(_udivmodhi4.o)
                              /usr/home/root/atmel/GCC/lib/gcc/avr/4.0.1/avr4/libgcc.a(_divmodhi4.o) (__udivmodhi4)
/usr/home/root/atmel/GCC/lib/gcc/avr/4.0.1/../../../../avr/lib/avr4/libc.a(itoa.o)
                              test_lcd.o (itoa)
/usr/home/root/atmel/GCC/lib/gcc/avr/4.0.1/../../../../avr/lib/avr4/libc.a(strrev.o)
                              /usr/home/root/atmel/GCC/lib/gcc/avr/4.0.1/../../../../avr/lib/avr4/libc.a(itoa.o) (strrev)

Allocating common symbols
Common symbol       size              file

dfg                 0x4               test_lcd.o
freq                0x2               test_lcd.o
asd1                0x2               test_lcd.o
direction           0x1               test_lcd.o
asd                 0x2               test_lcd.o
buffer              0xa               test_lcd.o
num                 0x2               test_lcd.o
num1                0x2               test_lcd.o
pwm                 0x2               test_lcd.o

Memory Configuration

Name             Origin             Length             Attributes
text             0x00000000         0x00002000         xr
data             0x00800060         0x0000ffa0         rw !x
eeprom           0x00810000         0x00010000         rw !x
*default*        0x00000000         0xffffffff

Linker script and memory map

LOAD /usr/home/root/atmel/GCC/lib/gcc/avr/4.0.1/../../../../avr/lib/avr4/crtm8.o
LOAD test_lcd.o
LOAD lcd.o
LOAD /usr/home/root/atmel/GCC/lib/gcc/avr/4.0.1/../../../../avr/lib/avr4/libm.a
LOAD /usr/home/root/atmel/GCC/lib/gcc/avr/4.0.1/avr4/libgcc.a
LOAD /usr/home/root/atmel/GCC/lib/gcc/avr/4.0.1/../../../../avr/lib/avr4/libc.a
LOAD /usr/home/root/atmel/GCC/lib/gcc/avr/4.0.1/avr4/libgcc.a

.hash
 *(.hash)

.dynsym
 *(.dynsym)

.dynstr
 *(.dynstr)

.gnu.version
 *(.gnu.version)

.gnu.version_d
 *(.gnu.version_d)

.gnu.version_r
 *(.gnu.version_r)

.rel.init
 *(.rel.init)

.rela.init
 *(.rela.init)

.rel.text
 *(.rel.text)
 *(.rel.text.*)
 *(.rel.gnu.linkonce.t*)

.rela.text
 *(.rela.text)
 *(.rela.text.*)
 *(.rela.gnu.linkonce.t*)

.rel.fini
 *(.rel.fini)

.rela.fini
 *(.rela.fini)

.rel.rodata
 *(.rel.rodata)
 *(.rel.rodata.*)
 *(.rel.gnu.linkonce.r*)

.rela.rodata
 *(.rela.rodata)
 *(.rela.rodata.*)
 *(.rela.gnu.linkonce.r*)

.rel.data
 *(.rel.data)
 *(.rel.data.*)
 *(.rel.gnu.linkonce.d*)

.rela.data
 *(.rela.data)
 *(.rela.data.*)
 *(.rela.gnu.linkonce.d*)

.rel.ctors
 *(.rel.ctors)

.rela.ctors
 *(.rela.ctors)

.rel.dtors
 *(.rel.dtors)

.rela.dtors
 *(.rela.dtors)

.rel.got
 *(.rel.got)

.rela.got
 *(.rela.got)

.rel.bss
 *(.rel.bss)

.rela.bss
 *(.rela.bss)

.rel.plt
 *(.rel.plt)

.rela.plt
 *(.rela.plt)

.text           0x00000000      0x6ec
 *(.vectors)
 .vectors       0x00000000       0x26 /usr/home/root/atmel/GCC/lib/gcc/avr/4.0.1/../../../../avr/lib/avr4/crtm8.o
                0x00000000                __vectors
                0x00000000                __vector_default
                0x00000026                __ctors_start = .
 *(.ctors)
                0x00000026                __ctors_end = .
                0x00000026                __dtors_start = .
 *(.dtors)
                0x00000026                __dtors_end = .
 *(.progmem.gcc*)
 *(.progmem*)
                0x00000026                . = ALIGN (0x2)
 *(.init0)
 *(.init1)
 *(.init2)
 .init2         0x00000026        0xc /usr/home/root/atmel/GCC/lib/gcc/avr/4.0.1/../../../../avr/lib/avr4/crtm8.o
 *(.init3)
 *(.init4)
 .init4         0x00000032       0x16 /usr/home/root/atmel/GCC/lib/gcc/avr/4.0.1/avr4/libgcc.a(_copy_data.o)
                0x00000032                __do_copy_data
 .init4         0x00000048       0x10 /usr/home/root/atmel/GCC/lib/gcc/avr/4.0.1/avr4/libgcc.a(_clear_bss.o)
                0x00000048                __do_clear_bss
 *(.init5)
 *(.init6)
 *(.init7)
 *(.init8)
 *(.init9)
 .init9         0x00000058        0x2 /usr/home/root/atmel/GCC/lib/gcc/avr/4.0.1/../../../../avr/lib/avr4/crtm8.o
 *(.text)
 .text          0x0000005a        0x2 /usr/home/root/atmel/GCC/lib/gcc/avr/4.0.1/../../../../avr/lib/avr4/crtm8.o
                0x0000005a                __vector_1
                0x0000005a                __vector_12
                0x0000005a                __bad_interrupt
                0x0000005a                __vector_6
                0x0000005a                __vector_3
                0x0000005a                __vector_11
                0x0000005a                __vector_13
                0x0000005a                __vector_17
                0x0000005a                __vector_7
                0x0000005a                __vector_5
                0x0000005a                __vector_9
                0x0000005a                __vector_15
                0x0000005a                __vector_10
                0x0000005a                __vector_16
                0x0000005a                __vector_18
 .text          0x0000005c      0x2b0 test_lcd.o
                0x000002d0                ioinit
                0x000002f2                main
                0x000000d4                __vector_4
                0x0000005c                __vector_2
                0x0000029a                __vector_8
                0x00000092                __vector_14
 .text          0x0000030c      0x180 lcd.o
                0x0000039c                lcd_data
                0x0000041c                lcd_gotoxy
                0x000003bc                lcd_putc
                0x00000410                lcd_home
                0x00000416                lcd_clrscr
                0x00000396                lcd_getxy
                0x000003fa                lcd_puts
                0x000003e0                lcd_puts_p
                0x0000042a                lcd_init
                0x000003ac                lcd_command
 .text          0x0000048c       0x46 /usr/home/root/atmel/GCC/lib/gcc/avr/4.0.1/../../../../avr/lib/avr4/libc.a(itoa.o)
                0x0000048c                itoa
 .text          0x000004d2       0x20 /usr/home/root/atmel/GCC/lib/gcc/avr/4.0.1/../../../../avr/lib/avr4/libc.a(strrev.o)
                0x000004d2                strrev
                0x000004f2                . = ALIGN (0x2)
 *(.text.*)
 .text.fplib    0x000004f2       0x16 /usr/home/root/atmel/GCC/lib/gcc/avr/4.0.1/../../../../avr/lib/avr4/libm.a(divsf3.o)
                0x00000502                __divsf3
                0x000004f2                __fp_inverse
 .text.fplib    0x00000508       0x86 /usr/home/root/atmel/GCC/lib/gcc/avr/4.0.1/../../../../avr/lib/avr4/libm.a(divsf3x.o)
                0x00000508                __divsf3x
 .text.fplib    0x0000058e       0x36 /usr/home/root/atmel/GCC/lib/gcc/avr/4.0.1/../../../../avr/lib/avr4/libm.a(fixsfsi.o)
                0x0000058e                __fixsfsi
                0x000005b4                __fp_lneg
                0x0000058e                __fixunssfsi
 .text.fplib    0x000005c4       0x18 /usr/home/root/atmel/GCC/lib/gcc/avr/4.0.1/../../../../avr/lib/avr4/libm.a(floatsisf.o)
                0x000005c8                __floatsisf
                0x000005c4                __floatunssisf
 .text.fplib    0x000005dc       0x44 /usr/home/root/atmel/GCC/lib/gcc/avr/4.0.1/../../../../avr/lib/avr4/libm.a(fp_cmp.o)
                0x000005dc                __lesf2
                0x000005dc                __nesf2
                0x000005e2                __gtsf2
                0x000005dc                __eqsf2
                0x000005e8                __cmpsf2
                0x000005dc                __ltsf2
                0x000005e2                __gesf2
 .text.fplib    0x00000620       0x3a /usr/home/root/atmel/GCC/lib/gcc/avr/4.0.1/../../../../avr/lib/avr4/libm.a(fp_merge.o)
                0x0000062a                __fp_merge
 .text.fplib    0x0000065a        0x6 /usr/home/root/atmel/GCC/lib/gcc/avr/4.0.1/../../../../avr/lib/avr4/libm.a(fp_nan.o)
                0x0000065a                __fp_nanERANGE
                0x0000065a                __fp_nan
                0x0000065a                __fp_nanEDOM
                0x0000065a                __fp_nanx
 .text.fplib    0x00000660       0x34 /usr/home/root/atmel/GCC/lib/gcc/avr/4.0.1/../../../../avr/lib/avr4/libm.a(fp_split.o)
                0x00000660                __fp_split3
                0x00000666                __fp_split2
                0x00000678                __fp_split1
 .text.fplib    0x00000694        0xa /usr/home/root/atmel/GCC/lib/gcc/avr/4.0.1/../../../../avr/lib/avr4/libm.a(fp_zero.o)
                0x00000694                __fp_zero
                0x0000069a                __fp_zerox
 .text.libgcc   0x0000069e       0x26 /usr/home/root/atmel/GCC/lib/gcc/avr/4.0.1/avr4/libgcc.a(_divmodhi4.o)
                0x0000069e                __divmodhi4
                0x0000069e                _div
 .text.libgcc   0x000006c4       0x28 /usr/home/root/atmel/GCC/lib/gcc/avr/4.0.1/avr4/libgcc.a(_udivmodhi4.o)
                0x000006c4                __udivmodhi4
                0x000006ec                . = ALIGN (0x2)
 *(.fini9)
 *(.fini8)
 *(.fini7)
 *(.fini6)
 *(.fini5)
 *(.fini4)
 *(.fini3)
 *(.fini2)
 *(.fini1)
 *(.fini0)
                0x000006ec                _etext = .

.data           0x00800060       0x18 load address 0x000006ec
                0x00800060                PROVIDE (__data_start, .)
 *(.data)
 .data          0x00800060       0x18 test_lcd.o
                0x00800060                channel
 *(.gnu.linkonce.d*)
                0x00800078                . = ALIGN (0x2)
                0x00800078                _edata = .
                0x00800078                PROVIDE (__data_end, .)

.bss            0x00800078       0x1e
                0x00800078                PROVIDE (__bss_start, .)
 *(.bss)
 .bss           0x00800078        0x3 test_lcd.o
 *(COMMON)
 COMMON         0x0080007b       0x1b test_lcd.o
                0x0080007b                dfg
                0x0080007f                freq
                0x00800081                asd1
                0x00800083                direction
                0x00800084                asd
                0x00800086                buffer
                0x00800090                num
                0x00800092                num1
                0x00800094                pwm
                0x00800096                PROVIDE (__bss_end, .)
                0x000006ec                __data_load_start = LOADADDR (.data)
                0x00000704                __data_load_end = (__data_load_start + SIZEOF (.data))

.noinit         0x00800096        0x0
                0x00800096                PROVIDE (__noinit_start, .)
 *(.noinit*)
                0x00800096                PROVIDE (__noinit_end, .)
                0x00800096                _end = .
                0x00800096                PROVIDE (__heap_start, .)

.eeprom         0x00810000        0x0
 *(.eeprom*)
                0x00810000                __eeprom_end = .

.stab           0x00000000     0x2274
 *(.stab)
 .stab          0x00000000      0x2a0 /usr/home/root/atmel/GCC/lib/gcc/avr/4.0.1/../../../../avr/lib/avr4/crtm8.o
 .stab          0x000002a0      0x69c test_lcd.o
                                0x6a8 (size before relaxing)
 .stab          0x0000093c      0xa14 lcd.o
                                0xb34 (size before relaxing)
 .stab          0x00001350       0xc0 /usr/home/root/atmel/GCC/lib/gcc/avr/4.0.1/../../../../avr/lib/avr4/libm.a(divsf3.o)
                                 0xcc (size before relaxing)
 .stab          0x00001410      0x360 /usr/home/root/atmel/GCC/lib/gcc/avr/4.0.1/../../../../avr/lib/avr4/libm.a(divsf3x.o)
                                0x36c (size before relaxing)
 .stab          0x00001770      0x180 /usr/home/root/atmel/GCC/lib/gcc/avr/4.0.1/../../../../avr/lib/avr4/libm.a(fixsfsi.o)
                                0x18c (size before relaxing)
 .stab          0x000018f0       0xcc /usr/home/root/atmel/GCC/lib/gcc/avr/4.0.1/../../../../avr/lib/avr4/libm.a(floatsisf.o)
                                 0xd8 (size before relaxing)
 .stab          0x000019bc      0x21c /usr/home/root/atmel/GCC/lib/gcc/avr/4.0.1/../../../../avr/lib/avr4/libm.a(fp_cmp.o)
                                0x228 (size before relaxing)
 .stab          0x00001bd8      0x198 /usr/home/root/atmel/GCC/lib/gcc/avr/4.0.1/../../../../avr/lib/avr4/libm.a(fp_merge.o)
                                0x1a4 (size before relaxing)
 .stab          0x00001d70       0x60 /usr/home/root/atmel/GCC/lib/gcc/avr/4.0.1/../../../../avr/lib/avr4/libm.a(fp_nan.o)
                                 0x6c (size before relaxing)
 .stab          0x00001dd0      0x174 /usr/home/root/atmel/GCC/lib/gcc/avr/4.0.1/../../../../avr/lib/avr4/libm.a(fp_split.o)
                                0x180 (size before relaxing)
 .stab          0x00001f44       0x78 /usr/home/root/atmel/GCC/lib/gcc/avr/4.0.1/../../../../avr/lib/avr4/libm.a(fp_zero.o)
                                 0x84 (size before relaxing)
 .stab          0x00001fbc      0x1e0 /usr/home/root/atmel/GCC/lib/gcc/avr/4.0.1/../../../../avr/lib/avr4/libc.a(itoa.o)
                                0x1ec (size before relaxing)
 .stab          0x0000219c       0xd8 /usr/home/root/atmel/GCC/lib/gcc/avr/4.0.1/../../../../avr/lib/avr4/libc.a(strrev.o)
                                 0xe4 (size before relaxing)

.stabstr        0x00000000      0xd34
 *(.stabstr)
 .stabstr       0x00000000      0xd34 /usr/home/root/atmel/GCC/lib/gcc/avr/4.0.1/../../../../avr/lib/avr4/crtm8.o

.stab.excl
 *(.stab.excl)

.stab.exclstr
 *(.stab.exclstr)

.stab.index
 *(.stab.index)

.stab.indexstr
 *(.stab.indexstr)

.comment
 *(.comment)

.debug
 *(.debug)

.line
 *(.line)

.debug_srcinfo
 *(.debug_srcinfo)

.debug_sfnames
 *(.debug_sfnames)

.debug_aranges
 *(.debug_aranges)

.debug_pubnames
 *(.debug_pubnames)

.debug_info
 *(.debug_info)
 *(.gnu.linkonce.wi.*)

.debug_abbrev
 *(.debug_abbrev)

.debug_line
 *(.debug_line)

.debug_frame
 *(.debug_frame)

.debug_str
 *(.debug_str)

.debug_loc
 *(.debug_loc)

.debug_macinfo
 *(.debug_macinfo)
OUTPUT(test_lcd.elf elf32-avr)

Cross Reference Table

Symbol                                            File
__bad_interrupt                                   /usr/home/root/atmel/GCC/lib/gcc/avr/4.0.1/../../../../avr/lib/avr4/crtm8.o
__bss_end                                         /usr/home/root/atmel/GCC/lib/gcc/avr/4.0.1/avr4/libgcc.a(_clear_bss.o)
__bss_start                                       /usr/home/root/atmel/GCC/lib/gcc/avr/4.0.1/avr4/libgcc.a(_clear_bss.o)
__cmpsf2                                          /usr/home/root/atmel/GCC/lib/gcc/avr/4.0.1/../../../../avr/lib/avr4/libm.a(fp_cmp.o)
__data_end                                        /usr/home/root/atmel/GCC/lib/gcc/avr/4.0.1/avr4/libgcc.a(_copy_data.o)
__data_load_start                                 /usr/home/root/atmel/GCC/lib/gcc/avr/4.0.1/avr4/libgcc.a(_copy_data.o)
__data_start                                      /usr/home/root/atmel/GCC/lib/gcc/avr/4.0.1/avr4/libgcc.a(_copy_data.o)
__divmodhi4                                       /usr/home/root/atmel/GCC/lib/gcc/avr/4.0.1/avr4/libgcc.a(_divmodhi4.o)
                                                  test_lcd.o
__divsf3                                          /usr/home/root/atmel/GCC/lib/gcc/avr/4.0.1/../../../../avr/lib/avr4/libm.a(divsf3.o)
                                                  test_lcd.o
__divsf3x                                         /usr/home/root/atmel/GCC/lib/gcc/avr/4.0.1/../../../../avr/lib/avr4/libm.a(divsf3x.o)
                                                  /usr/home/root/atmel/GCC/lib/gcc/avr/4.0.1/../../../../avr/lib/avr4/libm.a(divsf3.o)
__do_clear_bss                                    /usr/home/root/atmel/GCC/lib/gcc/avr/4.0.1/avr4/libgcc.a(_clear_bss.o)
                                                  lcd.o
                                                  test_lcd.o
__do_copy_data                                    /usr/home/root/atmel/GCC/lib/gcc/avr/4.0.1/avr4/libgcc.a(_copy_data.o)
                                                  lcd.o
                                                  test_lcd.o
__eqsf2                                           /usr/home/root/atmel/GCC/lib/gcc/avr/4.0.1/../../../../avr/lib/avr4/libm.a(fp_cmp.o)
__fixsfsi                                         /usr/home/root/atmel/GCC/lib/gcc/avr/4.0.1/../../../../avr/lib/avr4/libm.a(fixsfsi.o)
                                                  test_lcd.o
__fixunssfsi                                      /usr/home/root/atmel/GCC/lib/gcc/avr/4.0.1/../../../../avr/lib/avr4/libm.a(fixsfsi.o)
__floatsisf                                       /usr/home/root/atmel/GCC/lib/gcc/avr/4.0.1/../../../../avr/lib/avr4/libm.a(floatsisf.o)
                                                  test_lcd.o
__floatunssisf                                    /usr/home/root/atmel/GCC/lib/gcc/avr/4.0.1/../../../../avr/lib/avr4/libm.a(floatsisf.o)
__fp_inverse                                      /usr/home/root/atmel/GCC/lib/gcc/avr/4.0.1/../../../../avr/lib/avr4/libm.a(divsf3.o)
__fp_lneg                                         /usr/home/root/atmel/GCC/lib/gcc/avr/4.0.1/../../../../avr/lib/avr4/libm.a(fixsfsi.o)
                                                  /usr/home/root/atmel/GCC/lib/gcc/avr/4.0.1/../../../../avr/lib/avr4/libm.a(floatsisf.o)
__fp_merge                                        /usr/home/root/atmel/GCC/lib/gcc/avr/4.0.1/../../../../avr/lib/avr4/libm.a(fp_merge.o)
                                                  /usr/home/root/atmel/GCC/lib/gcc/avr/4.0.1/../../../../avr/lib/avr4/libm.a(floatsisf.o)
                                                  /usr/home/root/atmel/GCC/lib/gcc/avr/4.0.1/../../../../avr/lib/avr4/libm.a(divsf3.o)
__fp_nan                                          /usr/home/root/atmel/GCC/lib/gcc/avr/4.0.1/../../../../avr/lib/avr4/libm.a(fp_nan.o)
                                                  /usr/home/root/atmel/GCC/lib/gcc/avr/4.0.1/../../../../avr/lib/avr4/libm.a(fp_split.o)
__fp_nanEDOM                                      /usr/home/root/atmel/GCC/lib/gcc/avr/4.0.1/../../../../avr/lib/avr4/libm.a(fp_nan.o)
__fp_nanERANGE                                    /usr/home/root/atmel/GCC/lib/gcc/avr/4.0.1/../../../../avr/lib/avr4/libm.a(fp_nan.o)
__fp_nanx                                         /usr/home/root/atmel/GCC/lib/gcc/avr/4.0.1/../../../../avr/lib/avr4/libm.a(fp_nan.o)
                                                  /usr/home/root/atmel/GCC/lib/gcc/avr/4.0.1/../../../../avr/lib/avr4/libm.a(divsf3x.o)
__fp_split1                                       /usr/home/root/atmel/GCC/lib/gcc/avr/4.0.1/../../../../avr/lib/avr4/libm.a(fp_split.o)
                                                  /usr/home/root/atmel/GCC/lib/gcc/avr/4.0.1/../../../../avr/lib/avr4/libm.a(fixsfsi.o)
__fp_split2                                       /usr/home/root/atmel/GCC/lib/gcc/avr/4.0.1/../../../../avr/lib/avr4/libm.a(fp_split.o)
                                                  /usr/home/root/atmel/GCC/lib/gcc/avr/4.0.1/../../../../avr/lib/avr4/libm.a(fp_cmp.o)
__fp_split3                                       /usr/home/root/atmel/GCC/lib/gcc/avr/4.0.1/../../../../avr/lib/avr4/libm.a(fp_split.o)
                                                  /usr/home/root/atmel/GCC/lib/gcc/avr/4.0.1/../../../../avr/lib/avr4/libm.a(divsf3.o)
__fp_zero                                         /usr/home/root/atmel/GCC/lib/gcc/avr/4.0.1/../../../../avr/lib/avr4/libm.a(fp_zero.o)
                                                  /usr/home/root/atmel/GCC/lib/gcc/avr/4.0.1/../../../../avr/lib/avr4/libm.a(fp_merge.o)
                                                  /usr/home/root/atmel/GCC/lib/gcc/avr/4.0.1/../../../../avr/lib/avr4/libm.a(fixsfsi.o)
__fp_zerox                                        /usr/home/root/atmel/GCC/lib/gcc/avr/4.0.1/../../../../avr/lib/avr4/libm.a(fp_zero.o)
                                                  /usr/home/root/atmel/GCC/lib/gcc/avr/4.0.1/../../../../avr/lib/avr4/libm.a(divsf3x.o)
__gesf2                                           /usr/home/root/atmel/GCC/lib/gcc/avr/4.0.1/../../../../avr/lib/avr4/libm.a(fp_cmp.o)
__gtsf2                                           /usr/home/root/atmel/GCC/lib/gcc/avr/4.0.1/../../../../avr/lib/avr4/libm.a(fp_cmp.o)
__heap_end                                        /usr/home/root/atmel/GCC/lib/gcc/avr/4.0.1/../../../../avr/lib/avr4/crtm8.o
__init                                            /usr/home/root/atmel/GCC/lib/gcc/avr/4.0.1/../../../../avr/lib/avr4/crtm8.o
__lesf2                                           /usr/home/root/atmel/GCC/lib/gcc/avr/4.0.1/../../../../avr/lib/avr4/libm.a(fp_cmp.o)
__ltsf2                                           /usr/home/root/atmel/GCC/lib/gcc/avr/4.0.1/../../../../avr/lib/avr4/libm.a(fp_cmp.o)
                                                  test_lcd.o
__nesf2                                           /usr/home/root/atmel/GCC/lib/gcc/avr/4.0.1/../../../../avr/lib/avr4/libm.a(fp_cmp.o)
__stack                                           /usr/home/root/atmel/GCC/lib/gcc/avr/4.0.1/../../../../avr/lib/avr4/crtm8.o
                                                  test_lcd.o
__udivmodhi4                                      /usr/home/root/atmel/GCC/lib/gcc/avr/4.0.1/avr4/libgcc.a(_udivmodhi4.o)
                                                  /usr/home/root/atmel/GCC/lib/gcc/avr/4.0.1/../../../../avr/lib/avr4/libc.a(itoa.o)
                                                  /usr/home/root/atmel/GCC/lib/gcc/avr/4.0.1/avr4/libgcc.a(_divmodhi4.o)
__vector_1                                        /usr/home/root/atmel/GCC/lib/gcc/avr/4.0.1/../../../../avr/lib/avr4/crtm8.o
__vector_10                                       /usr/home/root/atmel/GCC/lib/gcc/avr/4.0.1/../../../../avr/lib/avr4/crtm8.o
__vector_11                                       /usr/home/root/atmel/GCC/lib/gcc/avr/4.0.1/../../../../avr/lib/avr4/crtm8.o
__vector_12                                       /usr/home/root/atmel/GCC/lib/gcc/avr/4.0.1/../../../../avr/lib/avr4/crtm8.o
__vector_13                                       /usr/home/root/atmel/GCC/lib/gcc/avr/4.0.1/../../../../avr/lib/avr4/crtm8.o
__vector_14                                       test_lcd.o
                                                  /usr/home/root/atmel/GCC/lib/gcc/avr/4.0.1/../../../../avr/lib/avr4/crtm8.o
__vector_15                                       /usr/home/root/atmel/GCC/lib/gcc/avr/4.0.1/../../../../avr/lib/avr4/crtm8.o
__vector_16                                       /usr/home/root/atmel/GCC/lib/gcc/avr/4.0.1/../../../../avr/lib/avr4/crtm8.o
__vector_17                                       /usr/home/root/atmel/GCC/lib/gcc/avr/4.0.1/../../../../avr/lib/avr4/crtm8.o
__vector_18                                       /usr/home/root/atmel/GCC/lib/gcc/avr/4.0.1/../../../../avr/lib/avr4/crtm8.o
__vector_2                                        test_lcd.o
                                                  /usr/home/root/atmel/GCC/lib/gcc/avr/4.0.1/../../../../avr/lib/avr4/crtm8.o
__vector_3                                        /usr/home/root/atmel/GCC/lib/gcc/avr/4.0.1/../../../../avr/lib/avr4/crtm8.o
__vector_4                                        test_lcd.o
                                                  /usr/home/root/atmel/GCC/lib/gcc/avr/4.0.1/../../../../avr/lib/avr4/crtm8.o
__vector_5                                        /usr/home/root/atmel/GCC/lib/gcc/avr/4.0.1/../../../../avr/lib/avr4/crtm8.o
__vector_6                                        /usr/home/root/atmel/GCC/lib/gcc/avr/4.0.1/../../../../avr/lib/avr4/crtm8.o
__vector_7                                        /usr/home/root/atmel/GCC/lib/gcc/avr/4.0.1/../../../../avr/lib/avr4/crtm8.o
__vector_8                                        test_lcd.o
                                                  /usr/home/root/atmel/GCC/lib/gcc/avr/4.0.1/../../../../avr/lib/avr4/crtm8.o
__vector_9                                        /usr/home/root/atmel/GCC/lib/gcc/avr/4.0.1/../../../../avr/lib/avr4/crtm8.o
__vector_default                                  /usr/home/root/atmel/GCC/lib/gcc/avr/4.0.1/../../../../avr/lib/avr4/crtm8.o
__vectors                                         /usr/home/root/atmel/GCC/lib/gcc/avr/4.0.1/../../../../avr/lib/avr4/crtm8.o
_div                                              /usr/home/root/atmel/GCC/lib/gcc/avr/4.0.1/avr4/libgcc.a(_divmodhi4.o)
asd                                               test_lcd.o
asd1                                              test_lcd.o
buffer                                            test_lcd.o
channel                                           test_lcd.o
dfg                                               test_lcd.o
direction                                         test_lcd.o
freq                                              test_lcd.o
ioinit                                            test_lcd.o
itoa                                              /usr/home/root/atmel/GCC/lib/gcc/avr/4.0.1/../../../../avr/lib/avr4/libc.a(itoa.o)
                                                  test_lcd.o
lcd_clrscr                                        lcd.o
                                                  test_lcd.o
lcd_command                                       lcd.o
lcd_data                                          lcd.o
lcd_getxy                                         lcd.o
lcd_gotoxy                                        lcd.o
                                                  test_lcd.o
lcd_home                                          lcd.o
lcd_init                                          lcd.o
                                                  test_lcd.o
lcd_putc                                          lcd.o
lcd_puts                                          lcd.o
                                                  test_lcd.o
lcd_puts_p                                        lcd.o
main                                              test_lcd.o
                                                  /usr/home/root/atmel/GCC/lib/gcc/avr/4.0.1/../../../../avr/lib/avr4/crtm8.o
num                                               test_lcd.o
num1                                              test_lcd.o
pwm                                               test_lcd.o
strrev                                            /usr/home/root/atmel/GCC/lib/gcc/avr/4.0.1/../../../../avr/lib/avr4/libc.a(strrev.o)
                                                  /usr/home/root/atmel/GCC/lib/gcc/avr/4.0.1/../../../../avr/lib/avr4/libc.a(itoa.o)
