Archive member included because of file (symbol)

/usr/lib/gcc/avr/4.3.5/../../../avr/lib/avr51/libm.a(cmpsf2.o)
                              master.o (__ltsf2)
/usr/lib/gcc/avr/4.3.5/../../../avr/lib/avr51/libm.a(divsf3.o)
                              lcd.o (__divsf3)
/usr/lib/gcc/avr/4.3.5/../../../avr/lib/avr51/libm.a(divsf3x.o)
                              /usr/lib/gcc/avr/4.3.5/../../../avr/lib/avr51/libm.a(divsf3.o) (__divsf3x)
/usr/lib/gcc/avr/4.3.5/../../../avr/lib/avr51/libm.a(fixunssfsi.o)
                              master.o (__fixunssfsi)
/usr/lib/gcc/avr/4.3.5/../../../avr/lib/avr51/libm.a(fp_cmp.o)
                              /usr/lib/gcc/avr/4.3.5/../../../avr/lib/avr51/libm.a(cmpsf2.o) (__fp_cmp)
/usr/lib/gcc/avr/4.3.5/../../../avr/lib/avr51/libm.a(fp_inf.o)
                              /usr/lib/gcc/avr/4.3.5/../../../avr/lib/avr51/libm.a(divsf3x.o) (__fp_inf)
/usr/lib/gcc/avr/4.3.5/../../../avr/lib/avr51/libm.a(fp_nan.o)
                              /usr/lib/gcc/avr/4.3.5/../../../avr/lib/avr51/libm.a(divsf3x.o) (__fp_nan)
/usr/lib/gcc/avr/4.3.5/../../../avr/lib/avr51/libm.a(fp_pscA.o)
                              /usr/lib/gcc/avr/4.3.5/../../../avr/lib/avr51/libm.a(divsf3x.o) (__fp_pscA)
/usr/lib/gcc/avr/4.3.5/../../../avr/lib/avr51/libm.a(fp_pscB.o)
                              /usr/lib/gcc/avr/4.3.5/../../../avr/lib/avr51/libm.a(divsf3x.o) (__fp_pscB)
/usr/lib/gcc/avr/4.3.5/../../../avr/lib/avr51/libm.a(fp_round.o)
                              /usr/lib/gcc/avr/4.3.5/../../../avr/lib/avr51/libm.a(divsf3.o) (__fp_round)
/usr/lib/gcc/avr/4.3.5/../../../avr/lib/avr51/libm.a(fp_split3.o)
                              /usr/lib/gcc/avr/4.3.5/../../../avr/lib/avr51/libm.a(divsf3x.o) (__fp_split3)
/usr/lib/gcc/avr/4.3.5/../../../avr/lib/avr51/libm.a(fp_zero.o)
                              /usr/lib/gcc/avr/4.3.5/../../../avr/lib/avr51/libm.a(fixunssfsi.o) (__fp_zero)
/usr/lib/gcc/avr/4.3.5/../../../avr/lib/avr51/libm.a(gesf2.o)
                              master.o (__gtsf2)
/usr/lib/gcc/avr/4.3.5/../../../avr/lib/avr51/libm.a(mulsf3.o)
                              master.o (__mulsf3)
/usr/lib/gcc/avr/4.3.5/../../../avr/lib/avr51/libm.a(mulsf3x.o)
                              /usr/lib/gcc/avr/4.3.5/../../../avr/lib/avr51/libm.a(mulsf3.o) (__mulsf3x)
/usr/lib/gcc/avr/4.3.5/avr51/libgcc.a(_exit.o)
                              /usr/lib/gcc/avr/4.3.5/../../../avr/lib/avr51/crtm1284p.o (exit)
/usr/lib/gcc/avr/4.3.5/avr51/libgcc.a(_clear_bss.o)
                              master.o (__do_clear_bss)
/usr/lib/gcc/avr/4.3.5/../../../avr/lib/avr51/libc.a(itoa.o)
                              master.o (itoa)
/usr/lib/gcc/avr/4.3.5/../../../avr/lib/avr51/libc.a(strrev.o)
                              /usr/lib/gcc/avr/4.3.5/../../../avr/lib/avr51/libc.a(itoa.o) (strrev)
/usr/lib/gcc/avr/4.3.5/avr51/libgcc.a(_udivmodhi4.o)
                              /usr/lib/gcc/avr/4.3.5/../../../avr/lib/avr51/libc.a(itoa.o) (__udivmodhi4)

Allocating common symbols
Common symbol       size              file

j                   0x2               master.o
k                   0x2               master.o
i                   0x2               master.o

Memory Configuration

Name             Origin             Length             Attributes
text             0x0000000000000000 0x0000000000020000 xr
data             0x0000000000800060 0x000000000000ffa0 rw !x
eeprom           0x0000000000810000 0x0000000000010000 rw !x
fuse             0x0000000000820000 0x0000000000000400 rw !x
lock             0x0000000000830000 0x0000000000000400 rw !x
signature        0x0000000000840000 0x0000000000000400 rw !x
*default*        0x0000000000000000 0xffffffffffffffff

Linker script and memory map

Address of section .data set to 0x800100
LOAD /usr/lib/gcc/avr/4.3.5/../../../avr/lib/avr51/crtm1284p.o
LOAD master.o
LOAD lcd.o
LOAD /usr/lib/gcc/avr/4.3.5/../../../avr/lib/avr51/libm.a
LOAD /usr/lib/gcc/avr/4.3.5/avr51/libgcc.a
LOAD /usr/lib/gcc/avr/4.3.5/../../../avr/lib/avr51/libc.a
LOAD /usr/lib/gcc/avr/4.3.5/avr51/libgcc.a

.hash
 *(.hash)

.dynsym
 *(.dynsym)

.dynstr
 *(.dynstr)

.gnu.version
 *(.gnu.version)

.gnu.version_d
 *(.gnu.version_d)

.gnu.version_r
 *(.gnu.version_r)

.rel.init
 *(.rel.init)

.rela.init
 *(.rela.init)

.rel.text
 *(.rel.text)
 *(.rel.text.*)
 *(.rel.gnu.linkonce.t*)

.rela.text
 *(.rela.text)
 *(.rela.text.*)
 *(.rela.gnu.linkonce.t*)

.rel.fini
 *(.rel.fini)

.rela.fini
 *(.rela.fini)

.rel.rodata
 *(.rel.rodata)
 *(.rel.rodata.*)
 *(.rel.gnu.linkonce.r*)

.rela.rodata
 *(.rela.rodata)
 *(.rela.rodata.*)
 *(.rela.gnu.linkonce.r*)

.rel.data
 *(.rel.data)
 *(.rel.data.*)
 *(.rel.gnu.linkonce.d*)

.rela.data
 *(.rela.data)
 *(.rela.data.*)
 *(.rela.gnu.linkonce.d*)

.rel.ctors
 *(.rel.ctors)

.rela.ctors
 *(.rela.ctors)

.rel.dtors
 *(.rel.dtors)

.rela.dtors
 *(.rela.dtors)

.rel.got
 *(.rel.got)

.rela.got
 *(.rela.got)

.rel.bss
 *(.rel.bss)

.rela.bss
 *(.rela.bss)

.rel.plt
 *(.rel.plt)

.rela.plt
 *(.rela.plt)

.text           0x0000000000000000     0x20b8
 *(.vectors)
 .vectors       0x0000000000000000       0x8c /usr/lib/gcc/avr/4.3.5/../../../avr/lib/avr51/crtm1284p.o
                0x0000000000000000                __vectors
                0x0000000000000000                __vector_default
 *(.vectors)
 *(.progmem.gcc*)
 *(.progmem*)
                0x000000000000008c                . = ALIGN (0x2)
                0x000000000000008c                __trampolines_start = .
 *(.trampolines)
 .trampolines   0x000000000000008c        0x0 linker stubs
 *(.trampolines*)
                0x000000000000008c                __trampolines_end = .
 *(.jumptables)
 *(.jumptables*)
 *(.lowtext)
 *(.lowtext*)
                0x000000000000008c                __ctors_start = .
 *(.ctors)
                0x000000000000008c                __ctors_end = .
                0x000000000000008c                __dtors_start = .
 *(.dtors)
                0x000000000000008c                __dtors_end = .
 SORT(*)(.ctors)
 SORT(*)(.dtors)
 *(.init0)
 .init0         0x000000000000008c        0x0 /usr/lib/gcc/avr/4.3.5/../../../avr/lib/avr51/crtm1284p.o
                0x000000000000008c                __init
 *(.init0)
 *(.init1)
 *(.init1)
 *(.init2)
 .init2         0x000000000000008c        0xc /usr/lib/gcc/avr/4.3.5/../../../avr/lib/avr51/crtm1284p.o
 *(.init2)
 *(.init3)
 *(.init3)
 *(.init4)
 .init4         0x0000000000000098       0x1a /usr/lib/gcc/avr/4.3.5/../../../avr/lib/avr51/crtm1284p.o
                0x0000000000000098                __do_copy_data
 .init4         0x00000000000000b2       0x10 /usr/lib/gcc/avr/4.3.5/avr51/libgcc.a(_clear_bss.o)
                0x00000000000000b2                __do_clear_bss
 *(.init4)
 *(.init5)
 *(.init5)
 *(.init6)
 *(.init6)
 *(.init7)
 *(.init7)
 *(.init8)
 *(.init8)
 *(.init9)
 .init9         0x00000000000000c2        0x8 /usr/lib/gcc/avr/4.3.5/../../../avr/lib/avr51/crtm1284p.o
 *(.init9)
 *(.text)
 .text          0x00000000000000ca        0x4 /usr/lib/gcc/avr/4.3.5/../../../avr/lib/avr51/crtm1284p.o
                0x00000000000000ca                __vector_22
                0x00000000000000ca                __vector_28
                0x00000000000000ca                __vector_1
                0x00000000000000ca                __vector_32
                0x00000000000000ca                __vector_34
                0x00000000000000ca                __vector_24
                0x00000000000000ca                __vector_12
                0x00000000000000ca                __bad_interrupt
                0x00000000000000ca                __vector_6
                0x00000000000000ca                __vector_31
                0x00000000000000ca                __vector_3
                0x00000000000000ca                __vector_23
                0x00000000000000ca                __vector_30
                0x00000000000000ca                __vector_25
                0x00000000000000ca                __vector_11
                0x00000000000000ca                __vector_13
                0x00000000000000ca                __vector_17
                0x00000000000000ca                __vector_19
                0x00000000000000ca                __vector_7
                0x00000000000000ca                __vector_27
                0x00000000000000ca                __vector_5
                0x00000000000000ca                __vector_33
                0x00000000000000ca                __vector_4
                0x00000000000000ca                __vector_9
                0x00000000000000ca                __vector_2
                0x00000000000000ca                __vector_21
                0x00000000000000ca                __vector_15
                0x00000000000000ca                __vector_29
                0x00000000000000ca                __vector_8
                0x00000000000000ca                __vector_26
                0x00000000000000ca                __vector_14
                0x00000000000000ca                __vector_10
                0x00000000000000ca                __vector_16
                0x00000000000000ca                __vector_18
                0x00000000000000ca                __vector_20
 .text          0x00000000000000ce      0xb82 master.o
                0x00000000000000ce                adc_reads
                0x000000000000023c                upd_mode1
                0x00000000000004be                upd_mode0
                0x0000000000000636                lonib
                0x0000000000000684                hinib
                0x00000000000006c2                dat_write
                0x00000000000007f6                main
 .text          0x0000000000000c50     0x10f2 lcd.o
                0x00000000000011ba                lcd_command
                0x00000000000011da                lcd_gotoxy
                0x000000000000120a                lcd_getxy
                0x0000000000001220                lcd_clrscr
                0x0000000000001234                lcd_home
                0x0000000000001248                lcd_putc
                0x00000000000012a6                lcd_puts
                0x00000000000012f4                lcd_init
 .text          0x0000000000001d42        0x0 /usr/lib/gcc/avr/4.3.5/../../../avr/lib/avr51/libm.a(cmpsf2.o)
 .text          0x0000000000001d42        0x0 /usr/lib/gcc/avr/4.3.5/../../../avr/lib/avr51/libm.a(divsf3.o)
 .text          0x0000000000001d42        0x0 /usr/lib/gcc/avr/4.3.5/../../../avr/lib/avr51/libm.a(divsf3x.o)
 .text          0x0000000000001d42        0x0 /usr/lib/gcc/avr/4.3.5/../../../avr/lib/avr51/libm.a(fixunssfsi.o)
 .text          0x0000000000001d42        0x0 /usr/lib/gcc/avr/4.3.5/../../../avr/lib/avr51/libm.a(fp_cmp.o)
 .text          0x0000000000001d42        0x0 /usr/lib/gcc/avr/4.3.5/../../../avr/lib/avr51/libm.a(fp_inf.o)
 .text          0x0000000000001d42        0x0 /usr/lib/gcc/avr/4.3.5/../../../avr/lib/avr51/libm.a(fp_nan.o)
 .text          0x0000000000001d42        0x0 /usr/lib/gcc/avr/4.3.5/../../../avr/lib/avr51/libm.a(fp_pscA.o)
 .text          0x0000000000001d42        0x0 /usr/lib/gcc/avr/4.3.5/../../../avr/lib/avr51/libm.a(fp_pscB.o)
 .text          0x0000000000001d42        0x0 /usr/lib/gcc/avr/4.3.5/../../../avr/lib/avr51/libm.a(fp_round.o)
 .text          0x0000000000001d42        0x0 /usr/lib/gcc/avr/4.3.5/../../../avr/lib/avr51/libm.a(fp_split3.o)
 .text          0x0000000000001d42        0x0 /usr/lib/gcc/avr/4.3.5/../../../avr/lib/avr51/libm.a(fp_zero.o)
 .text          0x0000000000001d42        0x0 /usr/lib/gcc/avr/4.3.5/../../../avr/lib/avr51/libm.a(gesf2.o)
 .text          0x0000000000001d42        0x0 /usr/lib/gcc/avr/4.3.5/../../../avr/lib/avr51/libm.a(mulsf3.o)
 .text          0x0000000000001d42        0x0 /usr/lib/gcc/avr/4.3.5/../../../avr/lib/avr51/libm.a(mulsf3x.o)
 .text          0x0000000000001d42        0x0 /usr/lib/gcc/avr/4.3.5/avr51/libgcc.a(_exit.o)
 .text          0x0000000000001d42        0x0 /usr/lib/gcc/avr/4.3.5/avr51/libgcc.a(_clear_bss.o)
 .text          0x0000000000001d42        0x0 /usr/lib/gcc/avr/4.3.5/../../../avr/lib/avr51/libc.a(itoa.o)
 .text          0x0000000000001d42        0x0 /usr/lib/gcc/avr/4.3.5/../../../avr/lib/avr51/libc.a(strrev.o)
 .text          0x0000000000001d42        0x0 /usr/lib/gcc/avr/4.3.5/avr51/libgcc.a(_udivmodhi4.o)
                0x0000000000001d42                . = ALIGN (0x2)
 *(.text.*)
 .text.avr-libc.fplib
                0x0000000000001d42        0x8 /usr/lib/gcc/avr/4.3.5/../../../avr/lib/avr51/libm.a(cmpsf2.o)
                0x0000000000001d42                __lesf2
                0x0000000000001d42                __nesf2
                0x0000000000001d42                __eqsf2
                0x0000000000001d42                __cmpsf2
                0x0000000000001d42                __ltsf2
 .text.avr-libc.fplib
                0x0000000000001d4a        0x4 /usr/lib/gcc/avr/4.3.5/../../../avr/lib/avr51/libm.a(divsf3.o)
                0x0000000000001d4a                __divsf3
 .text.avr-libc.fplib
                0x0000000000001d4e       0xcc /usr/lib/gcc/avr/4.3.5/../../../avr/lib/avr51/libm.a(divsf3x.o)
                0x0000000000001d64                __divsf3x
                0x0000000000001d68                __divsf3_pse
 .text.avr-libc.fplib
                0x0000000000001e1a       0x58 /usr/lib/gcc/avr/4.3.5/../../../avr/lib/avr51/libm.a(fixunssfsi.o)
                0x0000000000001e1a                __fixunssfsi
 .text.avr-libc.fplib
                0x0000000000001e72       0x48 /usr/lib/gcc/avr/4.3.5/../../../avr/lib/avr51/libm.a(fp_cmp.o)
                0x0000000000001e72                __fp_cmp
 .text.avr-libc.fplib
                0x0000000000001eba        0xc /usr/lib/gcc/avr/4.3.5/../../../avr/lib/avr51/libm.a(fp_inf.o)
                0x0000000000001eba                __fp_inf
 .text.avr-libc.fplib
                0x0000000000001ec6        0x6 /usr/lib/gcc/avr/4.3.5/../../../avr/lib/avr51/libm.a(fp_nan.o)
                0x0000000000001ec6                __fp_nan
 .text.avr-libc.fplib
                0x0000000000001ecc        0xe /usr/lib/gcc/avr/4.3.5/../../../avr/lib/avr51/libm.a(fp_pscA.o)
                0x0000000000001ecc                __fp_pscA
 .text.avr-libc.fplib
                0x0000000000001eda        0xe /usr/lib/gcc/avr/4.3.5/../../../avr/lib/avr51/libm.a(fp_pscB.o)
                0x0000000000001eda                __fp_pscB
 .text.avr-libc.fplib
                0x0000000000001ee8       0x22 /usr/lib/gcc/avr/4.3.5/../../../avr/lib/avr51/libm.a(fp_round.o)
                0x0000000000001ee8                __fp_round
 .text.avr-libc.fplib
                0x0000000000001f0a       0x44 /usr/lib/gcc/avr/4.3.5/../../../avr/lib/avr51/libm.a(fp_split3.o)
                0x0000000000001f0a                __fp_split3
                0x0000000000001f1a                __fp_splitA
 .text.avr-libc.fplib
                0x0000000000001f4e        0xe /usr/lib/gcc/avr/4.3.5/../../../avr/lib/avr51/libm.a(fp_zero.o)
                0x0000000000001f4e                __fp_zero
                0x0000000000001f50                __fp_szero
 .text.avr-libc.fplib
                0x0000000000001f5c        0x8 /usr/lib/gcc/avr/4.3.5/../../../avr/lib/avr51/libm.a(gesf2.o)
                0x0000000000001f5c                __gtsf2
                0x0000000000001f5c                __gesf2
 .text.avr-libc.fplib
                0x0000000000001f64        0x4 /usr/lib/gcc/avr/4.3.5/../../../avr/lib/avr51/libm.a(mulsf3.o)
                0x0000000000001f64                __mulsf3
 .text.avr-libc.fplib
                0x0000000000001f68       0xc2 /usr/lib/gcc/avr/4.3.5/../../../avr/lib/avr51/libm.a(mulsf3x.o)
                0x0000000000001f7c                __mulsf3x
                0x0000000000001f80                __mulsf3_pse
 .text.libgcc   0x000000000000202a        0x0 /usr/lib/gcc/avr/4.3.5/avr51/libgcc.a(_exit.o)
 .text.libgcc   0x000000000000202a        0x0 /usr/lib/gcc/avr/4.3.5/avr51/libgcc.a(_clear_bss.o)
 .text.avr-libc
                0x000000000000202a       0x42 /usr/lib/gcc/avr/4.3.5/../../../avr/lib/avr51/libc.a(itoa.o)
                0x000000000000202a                itoa
 .text.avr-libc
                0x000000000000206c       0x20 /usr/lib/gcc/avr/4.3.5/../../../avr/lib/avr51/libc.a(strrev.o)
                0x000000000000206c                strrev
 .text.libgcc   0x000000000000208c       0x28 /usr/lib/gcc/avr/4.3.5/avr51/libgcc.a(_udivmodhi4.o)
                0x000000000000208c                __udivmodhi4
                0x00000000000020b4                . = ALIGN (0x2)
 *(.fini9)
 .fini9         0x00000000000020b4        0x0 /usr/lib/gcc/avr/4.3.5/avr51/libgcc.a(_exit.o)
                0x00000000000020b4                exit
                0x00000000000020b4                _exit
 *(.fini9)
 *(.fini8)
 *(.fini8)
 *(.fini7)
 *(.fini7)
 *(.fini6)
 *(.fini6)
 *(.fini5)
 *(.fini5)
 *(.fini4)
 *(.fini4)
 *(.fini3)
 *(.fini3)
 *(.fini2)
 *(.fini2)
 *(.fini1)
 *(.fini1)
 *(.fini0)
 .fini0         0x00000000000020b4        0x4 /usr/lib/gcc/avr/4.3.5/avr51/libgcc.a(_exit.o)
 *(.fini0)
                0x00000000000020b8                _etext = .

.data           0x0000000000800100       0x34 load address 0x00000000000020b8
                0x0000000000800100                PROVIDE (__data_start, .)
 *(.data)
 .data          0x0000000000800100        0x0 /usr/lib/gcc/avr/4.3.5/../../../avr/lib/avr51/crtm1284p.o
 .data          0x0000000000800100       0x33 master.o
 .data          0x0000000000800133        0x0 lcd.o
 .data          0x0000000000800133        0x0 /usr/lib/gcc/avr/4.3.5/../../../avr/lib/avr51/libm.a(cmpsf2.o)
 .data          0x0000000000800133        0x0 /usr/lib/gcc/avr/4.3.5/../../../avr/lib/avr51/libm.a(divsf3.o)
 .data          0x0000000000800133        0x0 /usr/lib/gcc/avr/4.3.5/../../../avr/lib/avr51/libm.a(divsf3x.o)
 .data          0x0000000000800133        0x0 /usr/lib/gcc/avr/4.3.5/../../../avr/lib/avr51/libm.a(fixunssfsi.o)
 .data          0x0000000000800133        0x0 /usr/lib/gcc/avr/4.3.5/../../../avr/lib/avr51/libm.a(fp_cmp.o)
 .data          0x0000000000800133        0x0 /usr/lib/gcc/avr/4.3.5/../../../avr/lib/avr51/libm.a(fp_inf.o)
 .data          0x0000000000800133        0x0 /usr/lib/gcc/avr/4.3.5/../../../avr/lib/avr51/libm.a(fp_nan.o)
 .data          0x0000000000800133        0x0 /usr/lib/gcc/avr/4.3.5/../../../avr/lib/avr51/libm.a(fp_pscA.o)
 .data          0x0000000000800133        0x0 /usr/lib/gcc/avr/4.3.5/../../../avr/lib/avr51/libm.a(fp_pscB.o)
 .data          0x0000000000800133        0x0 /usr/lib/gcc/avr/4.3.5/../../../avr/lib/avr51/libm.a(fp_round.o)
 .data          0x0000000000800133        0x0 /usr/lib/gcc/avr/4.3.5/../../../avr/lib/avr51/libm.a(fp_split3.o)
 .data          0x0000000000800133        0x0 /usr/lib/gcc/avr/4.3.5/../../../avr/lib/avr51/libm.a(fp_zero.o)
 .data          0x0000000000800133        0x0 /usr/lib/gcc/avr/4.3.5/../../../avr/lib/avr51/libm.a(gesf2.o)
 .data          0x0000000000800133        0x0 /usr/lib/gcc/avr/4.3.5/../../../avr/lib/avr51/libm.a(mulsf3.o)
 .data          0x0000000000800133        0x0 /usr/lib/gcc/avr/4.3.5/../../../avr/lib/avr51/libm.a(mulsf3x.o)
 .data          0x0000000000800133        0x0 /usr/lib/gcc/avr/4.3.5/avr51/libgcc.a(_exit.o)
 .data          0x0000000000800133        0x0 /usr/lib/gcc/avr/4.3.5/avr51/libgcc.a(_clear_bss.o)
 .data          0x0000000000800133        0x0 /usr/lib/gcc/avr/4.3.5/../../../avr/lib/avr51/libc.a(itoa.o)
 .data          0x0000000000800133        0x0 /usr/lib/gcc/avr/4.3.5/../../../avr/lib/avr51/libc.a(strrev.o)
 .data          0x0000000000800133        0x0 /usr/lib/gcc/avr/4.3.5/avr51/libgcc.a(_udivmodhi4.o)
 *(.data*)
 *(.rodata)
 *(.rodata*)
 *(.gnu.linkonce.d*)
                0x0000000000800134                . = ALIGN (0x2)
 *fill*         0x0000000000800133        0x1 00
                0x0000000000800134                _edata = .
                0x0000000000800134                PROVIDE (__data_end, .)

.bss            0x0000000000800134        0xf
                0x0000000000800134                PROVIDE (__bss_start, .)
 *(.bss)
 .bss           0x0000000000800134        0x0 /usr/lib/gcc/avr/4.3.5/../../../avr/lib/avr51/crtm1284p.o
 .bss           0x0000000000800134        0x9 master.o
 .bss           0x000000000080013d        0x0 lcd.o
 .bss           0x000000000080013d        0x0 /usr/lib/gcc/avr/4.3.5/../../../avr/lib/avr51/libm.a(cmpsf2.o)
 .bss           0x000000000080013d        0x0 /usr/lib/gcc/avr/4.3.5/../../../avr/lib/avr51/libm.a(divsf3.o)
 .bss           0x000000000080013d        0x0 /usr/lib/gcc/avr/4.3.5/../../../avr/lib/avr51/libm.a(divsf3x.o)
 .bss           0x000000000080013d        0x0 /usr/lib/gcc/avr/4.3.5/../../../avr/lib/avr51/libm.a(fixunssfsi.o)
 .bss           0x000000000080013d        0x0 /usr/lib/gcc/avr/4.3.5/../../../avr/lib/avr51/libm.a(fp_cmp.o)
 .bss           0x000000000080013d        0x0 /usr/lib/gcc/avr/4.3.5/../../../avr/lib/avr51/libm.a(fp_inf.o)
 .bss           0x000000000080013d        0x0 /usr/lib/gcc/avr/4.3.5/../../../avr/lib/avr51/libm.a(fp_nan.o)
 .bss           0x000000000080013d        0x0 /usr/lib/gcc/avr/4.3.5/../../../avr/lib/avr51/libm.a(fp_pscA.o)
 .bss           0x000000000080013d        0x0 /usr/lib/gcc/avr/4.3.5/../../../avr/lib/avr51/libm.a(fp_pscB.o)
 .bss           0x000000000080013d        0x0 /usr/lib/gcc/avr/4.3.5/../../../avr/lib/avr51/libm.a(fp_round.o)
 .bss           0x000000000080013d        0x0 /usr/lib/gcc/avr/4.3.5/../../../avr/lib/avr51/libm.a(fp_split3.o)
 .bss           0x000000000080013d        0x0 /usr/lib/gcc/avr/4.3.5/../../../avr/lib/avr51/libm.a(fp_zero.o)
 .bss           0x000000000080013d        0x0 /usr/lib/gcc/avr/4.3.5/../../../avr/lib/avr51/libm.a(gesf2.o)
 .bss           0x000000000080013d        0x0 /usr/lib/gcc/avr/4.3.5/../../../avr/lib/avr51/libm.a(mulsf3.o)
 .bss           0x000000000080013d        0x0 /usr/lib/gcc/avr/4.3.5/../../../avr/lib/avr51/libm.a(mulsf3x.o)
 .bss           0x000000000080013d        0x0 /usr/lib/gcc/avr/4.3.5/avr51/libgcc.a(_exit.o)
 .bss           0x000000000080013d        0x0 /usr/lib/gcc/avr/4.3.5/avr51/libgcc.a(_clear_bss.o)
 .bss           0x000000000080013d        0x0 /usr/lib/gcc/avr/4.3.5/../../../avr/lib/avr51/libc.a(itoa.o)
 .bss           0x000000000080013d        0x0 /usr/lib/gcc/avr/4.3.5/../../../avr/lib/avr51/libc.a(strrev.o)
 .bss           0x000000000080013d        0x0 /usr/lib/gcc/avr/4.3.5/avr51/libgcc.a(_udivmodhi4.o)
 *(.bss*)
 *(COMMON)
 COMMON         0x000000000080013d        0x6 master.o
                0x000000000080013d                j
                0x000000000080013f                k
                0x0000000000800141                i
                0x0000000000800143                PROVIDE (__bss_end, .)
                0x00000000000020b8                __data_load_start = LOADADDR (.data)
                0x00000000000020ec                __data_load_end = (__data_load_start + SIZEOF (.data))

.noinit         0x0000000000800143        0x0
                0x0000000000800143                PROVIDE (__noinit_start, .)
 *(.noinit*)
                0x0000000000800143                PROVIDE (__noinit_end, .)
                0x0000000000800143                _end = .
                0x0000000000800143                PROVIDE (__heap_start, .)

.eeprom         0x0000000000810000        0x0
 *(.eeprom*)
                0x0000000000810000                __eeprom_end = .

.fuse
 *(.fuse)
 *(.lfuse)
 *(.hfuse)
 *(.efuse)

.lock
 *(.lock*)

.signature
 *(.signature*)

.stab           0x0000000000000000     0x3f9c
 *(.stab)
 .stab          0x0000000000000000      0x750 /usr/lib/gcc/avr/4.3.5/../../../avr/lib/avr51/crtm1284p.o
 .stab          0x0000000000000750     0x1008 master.o
                                       0x1014 (size before relaxing)
 .stab          0x0000000000001758     0x10f8 lcd.o
                                       0x135c (size before relaxing)
 .stab          0x0000000000002850       0x90 /usr/lib/gcc/avr/4.3.5/../../../avr/lib/avr51/libm.a(cmpsf2.o)
                                         0x9c (size before relaxing)
 .stab          0x00000000000028e0       0x48 /usr/lib/gcc/avr/4.3.5/../../../avr/lib/avr51/libm.a(divsf3.o)
                                         0x54 (size before relaxing)
 .stab          0x0000000000002928      0x510 /usr/lib/gcc/avr/4.3.5/../../../avr/lib/avr51/libm.a(divsf3x.o)
                                        0x51c (size before relaxing)
 .stab          0x0000000000002e38      0x240 /usr/lib/gcc/avr/4.3.5/../../../avr/lib/avr51/libm.a(fixunssfsi.o)
                                        0x24c (size before relaxing)
 .stab          0x0000000000003078      0x1e0 /usr/lib/gcc/avr/4.3.5/../../../avr/lib/avr51/libm.a(fp_cmp.o)
                                        0x1ec (size before relaxing)
 .stab          0x0000000000003258       0x78 /usr/lib/gcc/avr/4.3.5/../../../avr/lib/avr51/libm.a(fp_inf.o)
                                         0x84 (size before relaxing)
 .stab          0x00000000000032d0       0x54 /usr/lib/gcc/avr/4.3.5/../../../avr/lib/avr51/libm.a(fp_nan.o)
                                         0x60 (size before relaxing)
 .stab          0x0000000000003324       0x84 /usr/lib/gcc/avr/4.3.5/../../../avr/lib/avr51/libm.a(fp_pscA.o)
                                         0x90 (size before relaxing)
 .stab          0x00000000000033a8       0x84 /usr/lib/gcc/avr/4.3.5/../../../avr/lib/avr51/libm.a(fp_pscB.o)
                                         0x90 (size before relaxing)
 .stab          0x000000000000342c       0xfc /usr/lib/gcc/avr/4.3.5/../../../avr/lib/avr51/libm.a(fp_round.o)
                                        0x108 (size before relaxing)
 .stab          0x0000000000003528      0x1d4 /usr/lib/gcc/avr/4.3.5/../../../avr/lib/avr51/libm.a(fp_split3.o)
                                        0x1e0 (size before relaxing)
 .stab          0x00000000000036fc       0x90 /usr/lib/gcc/avr/4.3.5/../../../avr/lib/avr51/libm.a(fp_zero.o)
                                         0x9c (size before relaxing)
 .stab          0x000000000000378c       0x6c /usr/lib/gcc/avr/4.3.5/../../../avr/lib/avr51/libm.a(gesf2.o)
                                         0x78 (size before relaxing)
 .stab          0x00000000000037f8       0x48 /usr/lib/gcc/avr/4.3.5/../../../avr/lib/avr51/libm.a(mulsf3.o)
                                         0x54 (size before relaxing)
 .stab          0x0000000000003840      0x4d4 /usr/lib/gcc/avr/4.3.5/../../../avr/lib/avr51/libm.a(mulsf3x.o)
                                        0x4e0 (size before relaxing)
 .stab          0x0000000000003d14      0x1b0 /usr/lib/gcc/avr/4.3.5/../../../avr/lib/avr51/libc.a(itoa.o)
                                        0x1bc (size before relaxing)
 .stab          0x0000000000003ec4       0xd8 /usr/lib/gcc/avr/4.3.5/../../../avr/lib/avr51/libc.a(strrev.o)
                                         0xe4 (size before relaxing)

.stabstr        0x0000000000000000     0x10c0
 *(.stabstr)
 .stabstr       0x0000000000000000     0x10c0 /usr/lib/gcc/avr/4.3.5/../../../avr/lib/avr51/crtm1284p.o

.stab.excl
 *(.stab.excl)

.stab.exclstr
 *(.stab.exclstr)

.stab.index
 *(.stab.index)

.stab.indexstr
 *(.stab.indexstr)

.comment
 *(.comment)

.debug
 *(.debug)

.line
 *(.line)

.debug_srcinfo
 *(.debug_srcinfo)

.debug_sfnames
 *(.debug_sfnames)

.debug_aranges
 *(.debug_aranges)

.debug_pubnames
 *(.debug_pubnames)

.debug_info
 *(.debug_info)
 *(.gnu.linkonce.wi.*)

.debug_abbrev
 *(.debug_abbrev)

.debug_line
 *(.debug_line)

.debug_frame
 *(.debug_frame)

.debug_str
 *(.debug_str)

.debug_loc
 *(.debug_loc)

.debug_macinfo
 *(.debug_macinfo)
OUTPUT(master.elf elf32-avr)
LOAD linker stubs

Cross Reference Table

Symbol                                            File
__bad_interrupt                                   /usr/lib/gcc/avr/4.3.5/../../../avr/lib/avr51/crtm1284p.o
__bss_end                                         /usr/lib/gcc/avr/4.3.5/avr51/libgcc.a(_clear_bss.o)
__bss_start                                       /usr/lib/gcc/avr/4.3.5/avr51/libgcc.a(_clear_bss.o)
__cmpsf2                                          /usr/lib/gcc/avr/4.3.5/../../../avr/lib/avr51/libm.a(cmpsf2.o)
__data_end                                        /usr/lib/gcc/avr/4.3.5/../../../avr/lib/avr51/crtm1284p.o
__data_load_start                                 /usr/lib/gcc/avr/4.3.5/../../../avr/lib/avr51/crtm1284p.o
__data_start                                      /usr/lib/gcc/avr/4.3.5/../../../avr/lib/avr51/crtm1284p.o
__divsf3                                          /usr/lib/gcc/avr/4.3.5/../../../avr/lib/avr51/libm.a(divsf3.o)
                                                  lcd.o
__divsf3_pse                                      /usr/lib/gcc/avr/4.3.5/../../../avr/lib/avr51/libm.a(divsf3x.o)
__divsf3x                                         /usr/lib/gcc/avr/4.3.5/../../../avr/lib/avr51/libm.a(divsf3x.o)
                                                  /usr/lib/gcc/avr/4.3.5/../../../avr/lib/avr51/libm.a(divsf3.o)
__do_clear_bss                                    /usr/lib/gcc/avr/4.3.5/avr51/libgcc.a(_clear_bss.o)
                                                  master.o
__do_copy_data                                    /usr/lib/gcc/avr/4.3.5/../../../avr/lib/avr51/crtm1284p.o
                                                  master.o
__eqsf2                                           /usr/lib/gcc/avr/4.3.5/../../../avr/lib/avr51/libm.a(cmpsf2.o)
__fixunssfsi                                      /usr/lib/gcc/avr/4.3.5/../../../avr/lib/avr51/libm.a(fixunssfsi.o)
                                                  lcd.o
                                                  master.o
__fp_cmp                                          /usr/lib/gcc/avr/4.3.5/../../../avr/lib/avr51/libm.a(fp_cmp.o)
                                                  /usr/lib/gcc/avr/4.3.5/../../../avr/lib/avr51/libm.a(gesf2.o)
                                                  /usr/lib/gcc/avr/4.3.5/../../../avr/lib/avr51/libm.a(cmpsf2.o)
__fp_inf                                          /usr/lib/gcc/avr/4.3.5/../../../avr/lib/avr51/libm.a(fp_inf.o)
                                                  /usr/lib/gcc/avr/4.3.5/../../../avr/lib/avr51/libm.a(mulsf3x.o)
                                                  /usr/lib/gcc/avr/4.3.5/../../../avr/lib/avr51/libm.a(divsf3x.o)
__fp_nan                                          /usr/lib/gcc/avr/4.3.5/../../../avr/lib/avr51/libm.a(fp_nan.o)
                                                  /usr/lib/gcc/avr/4.3.5/../../../avr/lib/avr51/libm.a(mulsf3x.o)
                                                  /usr/lib/gcc/avr/4.3.5/../../../avr/lib/avr51/libm.a(divsf3x.o)
__fp_pscA                                         /usr/lib/gcc/avr/4.3.5/../../../avr/lib/avr51/libm.a(fp_pscA.o)
                                                  /usr/lib/gcc/avr/4.3.5/../../../avr/lib/avr51/libm.a(mulsf3x.o)
                                                  /usr/lib/gcc/avr/4.3.5/../../../avr/lib/avr51/libm.a(divsf3x.o)
__fp_pscB                                         /usr/lib/gcc/avr/4.3.5/../../../avr/lib/avr51/libm.a(fp_pscB.o)
                                                  /usr/lib/gcc/avr/4.3.5/../../../avr/lib/avr51/libm.a(mulsf3x.o)
                                                  /usr/lib/gcc/avr/4.3.5/../../../avr/lib/avr51/libm.a(divsf3x.o)
__fp_round                                        /usr/lib/gcc/avr/4.3.5/../../../avr/lib/avr51/libm.a(fp_round.o)
                                                  /usr/lib/gcc/avr/4.3.5/../../../avr/lib/avr51/libm.a(mulsf3.o)
                                                  /usr/lib/gcc/avr/4.3.5/../../../avr/lib/avr51/libm.a(divsf3.o)
__fp_split3                                       /usr/lib/gcc/avr/4.3.5/../../../avr/lib/avr51/libm.a(fp_split3.o)
                                                  /usr/lib/gcc/avr/4.3.5/../../../avr/lib/avr51/libm.a(mulsf3x.o)
                                                  /usr/lib/gcc/avr/4.3.5/../../../avr/lib/avr51/libm.a(divsf3x.o)
__fp_splitA                                       /usr/lib/gcc/avr/4.3.5/../../../avr/lib/avr51/libm.a(fp_split3.o)
                                                  /usr/lib/gcc/avr/4.3.5/../../../avr/lib/avr51/libm.a(fixunssfsi.o)
__fp_szero                                        /usr/lib/gcc/avr/4.3.5/../../../avr/lib/avr51/libm.a(fp_zero.o)
                                                  /usr/lib/gcc/avr/4.3.5/../../../avr/lib/avr51/libm.a(mulsf3x.o)
                                                  /usr/lib/gcc/avr/4.3.5/../../../avr/lib/avr51/libm.a(divsf3x.o)
__fp_zero                                         /usr/lib/gcc/avr/4.3.5/../../../avr/lib/avr51/libm.a(fp_zero.o)
                                                  /usr/lib/gcc/avr/4.3.5/../../../avr/lib/avr51/libm.a(fixunssfsi.o)
__gesf2                                           /usr/lib/gcc/avr/4.3.5/../../../avr/lib/avr51/libm.a(gesf2.o)
__gtsf2                                           /usr/lib/gcc/avr/4.3.5/../../../avr/lib/avr51/libm.a(gesf2.o)
                                                  lcd.o
                                                  master.o
__heap_end                                        /usr/lib/gcc/avr/4.3.5/../../../avr/lib/avr51/crtm1284p.o
__init                                            /usr/lib/gcc/avr/4.3.5/../../../avr/lib/avr51/crtm1284p.o
__lesf2                                           /usr/lib/gcc/avr/4.3.5/../../../avr/lib/avr51/libm.a(cmpsf2.o)
__ltsf2                                           /usr/lib/gcc/avr/4.3.5/../../../avr/lib/avr51/libm.a(cmpsf2.o)
                                                  lcd.o
                                                  master.o
__mulsf3                                          /usr/lib/gcc/avr/4.3.5/../../../avr/lib/avr51/libm.a(mulsf3.o)
                                                  lcd.o
                                                  master.o
__mulsf3_pse                                      /usr/lib/gcc/avr/4.3.5/../../../avr/lib/avr51/libm.a(mulsf3x.o)
__mulsf3x                                         /usr/lib/gcc/avr/4.3.5/../../../avr/lib/avr51/libm.a(mulsf3x.o)
                                                  /usr/lib/gcc/avr/4.3.5/../../../avr/lib/avr51/libm.a(mulsf3.o)
__nesf2                                           /usr/lib/gcc/avr/4.3.5/../../../avr/lib/avr51/libm.a(cmpsf2.o)
__stack                                           /usr/lib/gcc/avr/4.3.5/../../../avr/lib/avr51/crtm1284p.o
__udivmodhi4                                      /usr/lib/gcc/avr/4.3.5/avr51/libgcc.a(_udivmodhi4.o)
                                                  /usr/lib/gcc/avr/4.3.5/../../../avr/lib/avr51/libc.a(itoa.o)
__vector_1                                        /usr/lib/gcc/avr/4.3.5/../../../avr/lib/avr51/crtm1284p.o
__vector_10                                       /usr/lib/gcc/avr/4.3.5/../../../avr/lib/avr51/crtm1284p.o
__vector_11                                       /usr/lib/gcc/avr/4.3.5/../../../avr/lib/avr51/crtm1284p.o
__vector_12                                       /usr/lib/gcc/avr/4.3.5/../../../avr/lib/avr51/crtm1284p.o
__vector_13                                       /usr/lib/gcc/avr/4.3.5/../../../avr/lib/avr51/crtm1284p.o
__vector_14                                       /usr/lib/gcc/avr/4.3.5/../../../avr/lib/avr51/crtm1284p.o
__vector_15                                       /usr/lib/gcc/avr/4.3.5/../../../avr/lib/avr51/crtm1284p.o
__vector_16                                       /usr/lib/gcc/avr/4.3.5/../../../avr/lib/avr51/crtm1284p.o
__vector_17                                       /usr/lib/gcc/avr/4.3.5/../../../avr/lib/avr51/crtm1284p.o
__vector_18                                       /usr/lib/gcc/avr/4.3.5/../../../avr/lib/avr51/crtm1284p.o
__vector_19                                       /usr/lib/gcc/avr/4.3.5/../../../avr/lib/avr51/crtm1284p.o
__vector_2                                        /usr/lib/gcc/avr/4.3.5/../../../avr/lib/avr51/crtm1284p.o
__vector_20                                       /usr/lib/gcc/avr/4.3.5/../../../avr/lib/avr51/crtm1284p.o
__vector_21                                       /usr/lib/gcc/avr/4.3.5/../../../avr/lib/avr51/crtm1284p.o
__vector_22                                       /usr/lib/gcc/avr/4.3.5/../../../avr/lib/avr51/crtm1284p.o
__vector_23                                       /usr/lib/gcc/avr/4.3.5/../../../avr/lib/avr51/crtm1284p.o
__vector_24                                       /usr/lib/gcc/avr/4.3.5/../../../avr/lib/avr51/crtm1284p.o
__vector_25                                       /usr/lib/gcc/avr/4.3.5/../../../avr/lib/avr51/crtm1284p.o
__vector_26                                       /usr/lib/gcc/avr/4.3.5/../../../avr/lib/avr51/crtm1284p.o
__vector_27                                       /usr/lib/gcc/avr/4.3.5/../../../avr/lib/avr51/crtm1284p.o
__vector_28                                       /usr/lib/gcc/avr/4.3.5/../../../avr/lib/avr51/crtm1284p.o
__vector_29                                       /usr/lib/gcc/avr/4.3.5/../../../avr/lib/avr51/crtm1284p.o
__vector_3                                        /usr/lib/gcc/avr/4.3.5/../../../avr/lib/avr51/crtm1284p.o
__vector_30                                       /usr/lib/gcc/avr/4.3.5/../../../avr/lib/avr51/crtm1284p.o
__vector_31                                       /usr/lib/gcc/avr/4.3.5/../../../avr/lib/avr51/crtm1284p.o
__vector_32                                       /usr/lib/gcc/avr/4.3.5/../../../avr/lib/avr51/crtm1284p.o
__vector_33                                       /usr/lib/gcc/avr/4.3.5/../../../avr/lib/avr51/crtm1284p.o
__vector_34                                       /usr/lib/gcc/avr/4.3.5/../../../avr/lib/avr51/crtm1284p.o
__vector_4                                        /usr/lib/gcc/avr/4.3.5/../../../avr/lib/avr51/crtm1284p.o
__vector_5                                        /usr/lib/gcc/avr/4.3.5/../../../avr/lib/avr51/crtm1284p.o
__vector_6                                        /usr/lib/gcc/avr/4.3.5/../../../avr/lib/avr51/crtm1284p.o
__vector_7                                        /usr/lib/gcc/avr/4.3.5/../../../avr/lib/avr51/crtm1284p.o
__vector_8                                        /usr/lib/gcc/avr/4.3.5/../../../avr/lib/avr51/crtm1284p.o
__vector_9                                        /usr/lib/gcc/avr/4.3.5/../../../avr/lib/avr51/crtm1284p.o
__vector_default                                  /usr/lib/gcc/avr/4.3.5/../../../avr/lib/avr51/crtm1284p.o
__vectors                                         /usr/lib/gcc/avr/4.3.5/../../../avr/lib/avr51/crtm1284p.o
_exit                                             /usr/lib/gcc/avr/4.3.5/avr51/libgcc.a(_exit.o)
adc_reads                                         master.o
dat_write                                         master.o
exit                                              /usr/lib/gcc/avr/4.3.5/avr51/libgcc.a(_exit.o)
                                                  /usr/lib/gcc/avr/4.3.5/../../../avr/lib/avr51/crtm1284p.o
hinib                                             master.o
i                                                 master.o
itoa                                              /usr/lib/gcc/avr/4.3.5/../../../avr/lib/avr51/libc.a(itoa.o)
                                                  master.o
j                                                 master.o
k                                                 master.o
lcd_clrscr                                        lcd.o
                                                  master.o
lcd_command                                       lcd.o
lcd_getxy                                         lcd.o
lcd_gotoxy                                        lcd.o
                                                  master.o
lcd_home                                          lcd.o
lcd_init                                          lcd.o
                                                  master.o
lcd_putc                                          lcd.o
                                                  master.o
lcd_puts                                          lcd.o
                                                  master.o
lonib                                             master.o
main                                              master.o
                                                  /usr/lib/gcc/avr/4.3.5/../../../avr/lib/avr51/crtm1284p.o
strrev                                            /usr/lib/gcc/avr/4.3.5/../../../avr/lib/avr51/libc.a(strrev.o)
                                                  /usr/lib/gcc/avr/4.3.5/../../../avr/lib/avr51/libc.a(itoa.o)
upd_mode0                                         master.o
upd_mode1                                         master.o
