
ad9850-re.elf:     file format elf32-avr

Sections:
Idx Name          Size      VMA       LMA       File off  Algn
  0 .text         00001936  00000000  00000000  00000094  2**1
                  CONTENTS, ALLOC, LOAD, READONLY, CODE
  1 .data         000001b2  00800060  00001936  000019ca  2**0
                  CONTENTS, ALLOC, LOAD, DATA
  2 .bss          0000001c  00800212  00800212  00001b7c  2**0
                  ALLOC
  3 .debug_aranges 00000040  00000000  00000000  00001b7c  2**0
                  CONTENTS, READONLY, DEBUGGING
  4 .debug_pubnames 0000005f  00000000  00000000  00001bbc  2**0
                  CONTENTS, READONLY, DEBUGGING
  5 .debug_info   000009cd  00000000  00000000  00001c1b  2**0
                  CONTENTS, READONLY, DEBUGGING
  6 .debug_abbrev 000002db  00000000  00000000  000025e8  2**0
                  CONTENTS, READONLY, DEBUGGING
  7 .debug_line   00000303  00000000  00000000  000028c3  2**0
                  CONTENTS, READONLY, DEBUGGING
  8 .debug_frame  00000040  00000000  00000000  00002bc8  2**2
                  CONTENTS, READONLY, DEBUGGING
  9 .debug_str    00000146  00000000  00000000  00002c08  2**0
                  CONTENTS, READONLY, DEBUGGING
 10 .debug_loc    00000f40  00000000  00000000  00002d4e  2**0
                  CONTENTS, READONLY, DEBUGGING
 11 .debug_ranges 00000018  00000000  00000000  00003c8e  2**0
                  CONTENTS, READONLY, DEBUGGING

Disassembly of section .text:

00000000 <__vectors>:
       0:	12 c0       	rjmp	.+36     	; 0x26 <__ctors_end>
       2:	b2 c9       	rjmp	.-3228   	; 0xfffff368 <__eeprom_end+0xff7ef368>
       4:	04 ca       	rjmp	.-3064   	; 0xfffff40e <__eeprom_end+0xff7ef40e>
       6:	2a c0       	rjmp	.+84     	; 0x5c <__bad_interrupt>
       8:	29 c0       	rjmp	.+82     	; 0x5c <__bad_interrupt>
       a:	28 c0       	rjmp	.+80     	; 0x5c <__bad_interrupt>
       c:	27 c0       	rjmp	.+78     	; 0x5c <__bad_interrupt>
       e:	26 c0       	rjmp	.+76     	; 0x5c <__bad_interrupt>
      10:	25 c0       	rjmp	.+74     	; 0x5c <__bad_interrupt>
      12:	24 c0       	rjmp	.+72     	; 0x5c <__bad_interrupt>
      14:	23 c0       	rjmp	.+70     	; 0x5c <__bad_interrupt>
      16:	22 c0       	rjmp	.+68     	; 0x5c <__bad_interrupt>
      18:	21 c0       	rjmp	.+66     	; 0x5c <__bad_interrupt>
      1a:	20 c0       	rjmp	.+64     	; 0x5c <__bad_interrupt>
      1c:	1f c0       	rjmp	.+62     	; 0x5c <__bad_interrupt>
      1e:	1e c0       	rjmp	.+60     	; 0x5c <__bad_interrupt>
      20:	1d c0       	rjmp	.+58     	; 0x5c <__bad_interrupt>
      22:	1c c0       	rjmp	.+56     	; 0x5c <__bad_interrupt>
      24:	1b c0       	rjmp	.+54     	; 0x5c <__bad_interrupt>

00000026 <__ctors_end>:
      26:	11 24       	eor	r1, r1
      28:	1f be       	out	0x3f, r1	; 63
      2a:	cf e5       	ldi	r28, 0x5F	; 95
      2c:	d4 e0       	ldi	r29, 0x04	; 4
      2e:	de bf       	out	0x3e, r29	; 62
      30:	cd bf       	out	0x3d, r28	; 61

00000032 <__do_copy_data>:
      32:	12 e0       	ldi	r17, 0x02	; 2
      34:	a0 e6       	ldi	r26, 0x60	; 96
      36:	b0 e0       	ldi	r27, 0x00	; 0
      38:	e6 e3       	ldi	r30, 0x36	; 54
      3a:	f9 e1       	ldi	r31, 0x19	; 25
      3c:	02 c0       	rjmp	.+4      	; 0x42 <.do_copy_data_start>

0000003e <.do_copy_data_loop>:
      3e:	05 90       	lpm	r0, Z+
      40:	0d 92       	st	X+, r0

00000042 <.do_copy_data_start>:
      42:	a2 31       	cpi	r26, 0x12	; 18
      44:	b1 07       	cpc	r27, r17
      46:	d9 f7       	brne	.-10     	; 0x3e <.do_copy_data_loop>

00000048 <__do_clear_bss>:
      48:	12 e0       	ldi	r17, 0x02	; 2
      4a:	a2 e1       	ldi	r26, 0x12	; 18
      4c:	b2 e0       	ldi	r27, 0x02	; 2
      4e:	01 c0       	rjmp	.+2      	; 0x52 <.do_clear_bss_start>

00000050 <.do_clear_bss_loop>:
      50:	1d 92       	st	X+, r1

00000052 <.do_clear_bss_start>:
      52:	ae 32       	cpi	r26, 0x2E	; 46
      54:	b1 07       	cpc	r27, r17
      56:	e1 f7       	brne	.-8      	; 0x50 <.do_clear_bss_loop>
      58:	42 da       	rcall	.-2940   	; 0xfffff4de <__eeprom_end+0xff7ef4de>
      5a:	6b cc       	rjmp	.-1834   	; 0xfffff932 <__eeprom_end+0xff7ef932>

0000005c <__bad_interrupt>:
      5c:	d1 cf       	rjmp	.-94     	; 0x0 <__vectors>

0000005e <__muldi3>:
      5e:	a0 e3       	ldi	r26, 0x30	; 48
      60:	b0 e0       	ldi	r27, 0x00	; 0
      62:	e4 e3       	ldi	r30, 0x34	; 52
      64:	f0 e0       	ldi	r31, 0x00	; 0
      66:	f4 cb       	rjmp	.-2072   	; 0xfffff850 <__eeprom_end+0xff7ef850>
      68:	a8 e0       	ldi	r26, 0x08	; 8
      6a:	4e 01       	movw	r8, r28
      6c:	08 94       	sec
      6e:	81 1c       	adc	r8, r1
      70:	91 1c       	adc	r9, r1
      72:	f4 01       	movw	r30, r8
      74:	ba 2f       	mov	r27, r26
      76:	11 92       	st	Z+, r1
      78:	ba 95       	dec	r27
      7a:	e9 f7       	brne	.-6      	; 0x76 <__muldi3+0x18>
      7c:	29 83       	std	Y+1, r18	; 0x01
      7e:	3a 83       	std	Y+2, r19	; 0x02
      80:	4b 83       	std	Y+3, r20	; 0x03
      82:	5c 83       	std	Y+4, r21	; 0x04
      84:	6d 83       	std	Y+5, r22	; 0x05
      86:	7e 83       	std	Y+6, r23	; 0x06
      88:	8f 83       	std	Y+7, r24	; 0x07
      8a:	98 87       	std	Y+8, r25	; 0x08
      8c:	ce 01       	movw	r24, r28
      8e:	09 96       	adiw	r24, 0x09	; 9
      90:	fc 01       	movw	r30, r24
      92:	11 92       	st	Z+, r1
      94:	aa 95       	dec	r26
      96:	e9 f7       	brne	.-6      	; 0x92 <__muldi3+0x34>
      98:	a9 86       	std	Y+9, r10	; 0x09
      9a:	ba 86       	std	Y+10, r11	; 0x0a
      9c:	cb 86       	std	Y+11, r12	; 0x0b
      9e:	dc 86       	std	Y+12, r13	; 0x0c
      a0:	ed 86       	std	Y+13, r14	; 0x0d
      a2:	fe 86       	std	Y+14, r15	; 0x0e
      a4:	0f 87       	std	Y+15, r16	; 0x0f
      a6:	18 8b       	std	Y+16, r17	; 0x10
      a8:	29 81       	ldd	r18, Y+1	; 0x01
      aa:	3a 81       	ldd	r19, Y+2	; 0x02
      ac:	4b 81       	ldd	r20, Y+3	; 0x03
      ae:	5c 81       	ldd	r21, Y+4	; 0x04
      b0:	2d a7       	std	Y+45, r18	; 0x2d
      b2:	3e a7       	std	Y+46, r19	; 0x2e
      b4:	4f a7       	std	Y+47, r20	; 0x2f
      b6:	58 ab       	std	Y+48, r21	; 0x30
      b8:	79 01       	movw	r14, r18
      ba:	8a 01       	movw	r16, r20
      bc:	8f ef       	ldi	r24, 0xFF	; 255
      be:	9f ef       	ldi	r25, 0xFF	; 255
      c0:	a0 e0       	ldi	r26, 0x00	; 0
      c2:	b0 e0       	ldi	r27, 0x00	; 0
      c4:	e8 22       	and	r14, r24
      c6:	f9 22       	and	r15, r25
      c8:	0a 23       	and	r16, r26
      ca:	1b 23       	and	r17, r27
      cc:	1a 01       	movw	r2, r20
      ce:	44 24       	eor	r4, r4
      d0:	55 24       	eor	r5, r5
      d2:	29 85       	ldd	r18, Y+9	; 0x09
      d4:	3a 85       	ldd	r19, Y+10	; 0x0a
      d6:	4b 85       	ldd	r20, Y+11	; 0x0b
      d8:	5c 85       	ldd	r21, Y+12	; 0x0c
      da:	29 a7       	std	Y+41, r18	; 0x29
      dc:	3a a7       	std	Y+42, r19	; 0x2a
      de:	4b a7       	std	Y+43, r20	; 0x2b
      e0:	5c a7       	std	Y+44, r21	; 0x2c
      e2:	59 01       	movw	r10, r18
      e4:	6a 01       	movw	r12, r20
      e6:	a8 22       	and	r10, r24
      e8:	b9 22       	and	r11, r25
      ea:	ca 22       	and	r12, r26
      ec:	db 22       	and	r13, r27
      ee:	3a 01       	movw	r6, r20
      f0:	88 24       	eor	r8, r8
      f2:	99 24       	eor	r9, r9
      f4:	c6 01       	movw	r24, r12
      f6:	b5 01       	movw	r22, r10
      f8:	a8 01       	movw	r20, r16
      fa:	97 01       	movw	r18, r14
      fc:	68 db       	rcall	.-2352   	; 0xfffff7ce <__eeprom_end+0xff7ef7ce>
      fe:	6d a3       	std	Y+37, r22	; 0x25
     100:	7e a3       	std	Y+38, r23	; 0x26
     102:	8f a3       	std	Y+39, r24	; 0x27
     104:	98 a7       	std	Y+40, r25	; 0x28
     106:	c4 01       	movw	r24, r8
     108:	b3 01       	movw	r22, r6
     10a:	61 db       	rcall	.-2366   	; 0xfffff7ce <__eeprom_end+0xff7ef7ce>
     10c:	69 a3       	std	Y+33, r22	; 0x21
     10e:	7a a3       	std	Y+34, r23	; 0x22
     110:	8b a3       	std	Y+35, r24	; 0x23
     112:	9c a3       	std	Y+36, r25	; 0x24
     114:	c6 01       	movw	r24, r12
     116:	b5 01       	movw	r22, r10
     118:	a2 01       	movw	r20, r4
     11a:	91 01       	movw	r18, r2
     11c:	58 db       	rcall	.-2384   	; 0xfffff7ce <__eeprom_end+0xff7ef7ce>
     11e:	7b 01       	movw	r14, r22
     120:	8c 01       	movw	r16, r24
     122:	c4 01       	movw	r24, r8
     124:	b3 01       	movw	r22, r6
     126:	53 db       	rcall	.-2394   	; 0xfffff7ce <__eeprom_end+0xff7ef7ce>
     128:	5b 01       	movw	r10, r22
     12a:	6c 01       	movw	r12, r24
     12c:	89 a1       	ldd	r24, Y+33	; 0x21
     12e:	9a a1       	ldd	r25, Y+34	; 0x22
     130:	ab a1       	ldd	r26, Y+35	; 0x23
     132:	bc a1       	ldd	r27, Y+36	; 0x24
     134:	8e 0d       	add	r24, r14
     136:	9f 1d       	adc	r25, r15
     138:	a0 1f       	adc	r26, r16
     13a:	b1 1f       	adc	r27, r17
     13c:	89 a3       	std	Y+33, r24	; 0x21
     13e:	9a a3       	std	Y+34, r25	; 0x22
     140:	ab a3       	std	Y+35, r26	; 0x23
     142:	bc a3       	std	Y+36, r27	; 0x24
     144:	2d a1       	ldd	r18, Y+37	; 0x25
     146:	3e a1       	ldd	r19, Y+38	; 0x26
     148:	4f a1       	ldd	r20, Y+39	; 0x27
     14a:	58 a5       	ldd	r21, Y+40	; 0x28
     14c:	ca 01       	movw	r24, r20
     14e:	aa 27       	eor	r26, r26
     150:	bb 27       	eor	r27, r27
     152:	29 a1       	ldd	r18, Y+33	; 0x21
     154:	3a a1       	ldd	r19, Y+34	; 0x22
     156:	4b a1       	ldd	r20, Y+35	; 0x23
     158:	5c a1       	ldd	r21, Y+36	; 0x24
     15a:	28 0f       	add	r18, r24
     15c:	39 1f       	adc	r19, r25
     15e:	4a 1f       	adc	r20, r26
     160:	5b 1f       	adc	r21, r27
     162:	29 a3       	std	Y+33, r18	; 0x21
     164:	3a a3       	std	Y+34, r19	; 0x22
     166:	4b a3       	std	Y+35, r20	; 0x23
     168:	5c a3       	std	Y+36, r21	; 0x24
     16a:	2e 15       	cp	r18, r14
     16c:	3f 05       	cpc	r19, r15
     16e:	40 07       	cpc	r20, r16
     170:	51 07       	cpc	r21, r17
     172:	40 f4       	brcc	.+16     	; 0x184 <__muldi3+0x126>
     174:	80 e0       	ldi	r24, 0x00	; 0
     176:	90 e0       	ldi	r25, 0x00	; 0
     178:	a1 e0       	ldi	r26, 0x01	; 1
     17a:	b0 e0       	ldi	r27, 0x00	; 0
     17c:	a8 0e       	add	r10, r24
     17e:	b9 1e       	adc	r11, r25
     180:	ca 1e       	adc	r12, r26
     182:	db 1e       	adc	r13, r27
     184:	89 a1       	ldd	r24, Y+33	; 0x21
     186:	9a a1       	ldd	r25, Y+34	; 0x22
     188:	ab a1       	ldd	r26, Y+35	; 0x23
     18a:	bc a1       	ldd	r27, Y+36	; 0x24
     18c:	9d 01       	movw	r18, r26
     18e:	44 27       	eor	r20, r20
     190:	55 27       	eor	r21, r21
     192:	2a 0d       	add	r18, r10
     194:	3b 1d       	adc	r19, r11
     196:	4c 1d       	adc	r20, r12
     198:	5d 1d       	adc	r21, r13
     19a:	2d 8f       	std	Y+29, r18	; 0x1d
     19c:	3e 8f       	std	Y+30, r19	; 0x1e
     19e:	4f 8f       	std	Y+31, r20	; 0x1f
     1a0:	58 a3       	std	Y+32, r21	; 0x20
     1a2:	6c 01       	movw	r12, r24
     1a4:	bb 24       	eor	r11, r11
     1a6:	aa 24       	eor	r10, r10
     1a8:	8d a1       	ldd	r24, Y+37	; 0x25
     1aa:	9e a1       	ldd	r25, Y+38	; 0x26
     1ac:	af a1       	ldd	r26, Y+39	; 0x27
     1ae:	b8 a5       	ldd	r27, Y+40	; 0x28
     1b0:	a0 70       	andi	r26, 0x00	; 0
     1b2:	b0 70       	andi	r27, 0x00	; 0
     1b4:	a8 0e       	add	r10, r24
     1b6:	b9 1e       	adc	r11, r25
     1b8:	ca 1e       	adc	r12, r26
     1ba:	db 1e       	adc	r13, r27
     1bc:	a9 8e       	std	Y+25, r10	; 0x19
     1be:	ba 8e       	std	Y+26, r11	; 0x1a
     1c0:	cb 8e       	std	Y+27, r12	; 0x1b
     1c2:	dc 8e       	std	Y+28, r13	; 0x1c
     1c4:	9a 8c       	ldd	r9, Y+26	; 0x1a
     1c6:	8b 8c       	ldd	r8, Y+27	; 0x1b
     1c8:	7c 8c       	ldd	r7, Y+28	; 0x1c
     1ca:	9e 8d       	ldd	r25, Y+30	; 0x1e
     1cc:	6f 8d       	ldd	r22, Y+31	; 0x1f
     1ce:	78 a1       	ldd	r23, Y+32	; 0x20
     1d0:	fe 01       	movw	r30, r28
     1d2:	71 96       	adiw	r30, 0x11	; 17
     1d4:	88 e0       	ldi	r24, 0x08	; 8
     1d6:	df 01       	movw	r26, r30
     1d8:	1d 92       	st	X+, r1
     1da:	8a 95       	dec	r24
     1dc:	e9 f7       	brne	.-6      	; 0x1d8 <__muldi3+0x17a>
     1de:	2d 8b       	std	Y+21, r18	; 0x15
     1e0:	9e 8b       	std	Y+22, r25	; 0x16
     1e2:	6f 8b       	std	Y+23, r22	; 0x17
     1e4:	78 8f       	std	Y+24, r23	; 0x18
     1e6:	2d 85       	ldd	r18, Y+13	; 0x0d
     1e8:	3e 85       	ldd	r19, Y+14	; 0x0e
     1ea:	4f 85       	ldd	r20, Y+15	; 0x0f
     1ec:	58 89       	ldd	r21, Y+16	; 0x10
     1ee:	6d a5       	ldd	r22, Y+45	; 0x2d
     1f0:	7e a5       	ldd	r23, Y+46	; 0x2e
     1f2:	8f a5       	ldd	r24, Y+47	; 0x2f
     1f4:	98 a9       	ldd	r25, Y+48	; 0x30
     1f6:	eb da       	rcall	.-2602   	; 0xfffff7ce <__eeprom_end+0xff7ef7ce>
     1f8:	7b 01       	movw	r14, r22
     1fa:	8c 01       	movw	r16, r24
     1fc:	2d 81       	ldd	r18, Y+5	; 0x05
     1fe:	3e 81       	ldd	r19, Y+6	; 0x06
     200:	4f 81       	ldd	r20, Y+7	; 0x07
     202:	58 85       	ldd	r21, Y+8	; 0x08
     204:	69 a5       	ldd	r22, Y+41	; 0x29
     206:	7a a5       	ldd	r23, Y+42	; 0x2a
     208:	8b a5       	ldd	r24, Y+43	; 0x2b
     20a:	9c a5       	ldd	r25, Y+44	; 0x2c
     20c:	e0 da       	rcall	.-2624   	; 0xfffff7ce <__eeprom_end+0xff7ef7ce>
     20e:	e6 0e       	add	r14, r22
     210:	f7 1e       	adc	r15, r23
     212:	08 1f       	adc	r16, r24
     214:	19 1f       	adc	r17, r25
     216:	6d 89       	ldd	r22, Y+21	; 0x15
     218:	7e 89       	ldd	r23, Y+22	; 0x16
     21a:	8f 89       	ldd	r24, Y+23	; 0x17
     21c:	98 8d       	ldd	r25, Y+24	; 0x18
     21e:	6e 0d       	add	r22, r14
     220:	7f 1d       	adc	r23, r15
     222:	80 1f       	adc	r24, r16
     224:	91 1f       	adc	r25, r17
     226:	6d 8b       	std	Y+21, r22	; 0x15
     228:	7e 8b       	std	Y+22, r23	; 0x16
     22a:	8f 8b       	std	Y+23, r24	; 0x17
     22c:	98 8f       	std	Y+24, r25	; 0x18
     22e:	ee 89       	ldd	r30, Y+22	; 0x16
     230:	2a 2d       	mov	r18, r10
     232:	39 2d       	mov	r19, r9
     234:	48 2d       	mov	r20, r8
     236:	57 2d       	mov	r21, r7
     238:	7e 2f       	mov	r23, r30
     23a:	8f 89       	ldd	r24, Y+23	; 0x17
     23c:	98 8d       	ldd	r25, Y+24	; 0x18
     23e:	e0 96       	adiw	r28, 0x30	; 48
     240:	e2 e1       	ldi	r30, 0x12	; 18
     242:	22 cb       	rjmp	.-2492   	; 0xfffff888 <__eeprom_end+0xff7ef888>

00000244 <__udivdi3>:
     244:	ae e5       	ldi	r26, 0x5E	; 94
     246:	b0 e0       	ldi	r27, 0x00	; 0
     248:	e7 e2       	ldi	r30, 0x27	; 39
     24a:	f1 e0       	ldi	r31, 0x01	; 1
     24c:	01 cb       	rjmp	.-2558   	; 0xfffff850 <__eeprom_end+0xff7ef850>
     24e:	a8 e0       	ldi	r26, 0x08	; 8
     250:	4e 01       	movw	r8, r28
     252:	08 94       	sec
     254:	81 1c       	adc	r8, r1
     256:	91 1c       	adc	r9, r1
     258:	f4 01       	movw	r30, r8
     25a:	6a 2e       	mov	r6, r26
     25c:	11 92       	st	Z+, r1
     25e:	6a 94       	dec	r6
     260:	e9 f7       	brne	.-6      	; 0x25c <__udivdi3+0x18>
     262:	29 83       	std	Y+1, r18	; 0x01
     264:	3a 83       	std	Y+2, r19	; 0x02
     266:	4b 83       	std	Y+3, r20	; 0x03
     268:	5c 83       	std	Y+4, r21	; 0x04
     26a:	6d 83       	std	Y+5, r22	; 0x05
     26c:	7e 83       	std	Y+6, r23	; 0x06
     26e:	8f 83       	std	Y+7, r24	; 0x07
     270:	98 87       	std	Y+8, r25	; 0x08
     272:	ce 01       	movw	r24, r28
     274:	09 96       	adiw	r24, 0x09	; 9
     276:	fc 01       	movw	r30, r24
     278:	11 92       	st	Z+, r1
     27a:	aa 95       	dec	r26
     27c:	e9 f7       	brne	.-6      	; 0x278 <__udivdi3+0x34>
     27e:	a9 86       	std	Y+9, r10	; 0x09
     280:	ba 86       	std	Y+10, r11	; 0x0a
     282:	cb 86       	std	Y+11, r12	; 0x0b
     284:	dc 86       	std	Y+12, r13	; 0x0c
     286:	ed 86       	std	Y+13, r14	; 0x0d
     288:	fe 86       	std	Y+14, r15	; 0x0e
     28a:	0f 87       	std	Y+15, r16	; 0x0f
     28c:	18 8b       	std	Y+16, r17	; 0x10
     28e:	29 84       	ldd	r2, Y+9	; 0x09
     290:	3a 84       	ldd	r3, Y+10	; 0x0a
     292:	4b 84       	ldd	r4, Y+11	; 0x0b
     294:	5c 84       	ldd	r5, Y+12	; 0x0c
     296:	ed 84       	ldd	r14, Y+13	; 0x0d
     298:	fe 84       	ldd	r15, Y+14	; 0x0e
     29a:	0f 85       	ldd	r16, Y+15	; 0x0f
     29c:	18 89       	ldd	r17, Y+16	; 0x10
     29e:	69 80       	ldd	r6, Y+1	; 0x01
     2a0:	7a 80       	ldd	r7, Y+2	; 0x02
     2a2:	8b 80       	ldd	r8, Y+3	; 0x03
     2a4:	9c 80       	ldd	r9, Y+4	; 0x04
     2a6:	6d a6       	std	Y+45, r6	; 0x2d
     2a8:	7e a6       	std	Y+46, r7	; 0x2e
     2aa:	8f a6       	std	Y+47, r8	; 0x2f
     2ac:	98 aa       	std	Y+48, r9	; 0x30
     2ae:	6d 80       	ldd	r6, Y+5	; 0x05
     2b0:	7e 80       	ldd	r7, Y+6	; 0x06
     2b2:	8f 80       	ldd	r8, Y+7	; 0x07
     2b4:	98 84       	ldd	r9, Y+8	; 0x08
     2b6:	e1 14       	cp	r14, r1
     2b8:	f1 04       	cpc	r15, r1
     2ba:	01 05       	cpc	r16, r1
     2bc:	11 05       	cpc	r17, r1
     2be:	09 f0       	breq	.+2      	; 0x2c2 <__udivdi3+0x7e>
     2c0:	a0 c3       	rjmp	.+1856   	; 0xa02 <__stack+0x5a3>
     2c2:	62 14       	cp	r6, r2
     2c4:	73 04       	cpc	r7, r3
     2c6:	84 04       	cpc	r8, r4
     2c8:	95 04       	cpc	r9, r5
     2ca:	08 f0       	brcs	.+2      	; 0x2ce <__udivdi3+0x8a>
     2cc:	37 c1       	rjmp	.+622    	; 0x53c <__stack+0xdd>
     2ce:	00 e0       	ldi	r16, 0x00	; 0
     2d0:	20 16       	cp	r2, r16
     2d2:	00 e0       	ldi	r16, 0x00	; 0
     2d4:	30 06       	cpc	r3, r16
     2d6:	01 e0       	ldi	r16, 0x01	; 1
     2d8:	40 06       	cpc	r4, r16
     2da:	00 e0       	ldi	r16, 0x00	; 0
     2dc:	50 06       	cpc	r5, r16
     2de:	88 f4       	brcc	.+34     	; 0x302 <__udivdi3+0xbe>
     2e0:	1f ef       	ldi	r17, 0xFF	; 255
     2e2:	21 16       	cp	r2, r17
     2e4:	31 04       	cpc	r3, r1
     2e6:	41 04       	cpc	r4, r1
     2e8:	51 04       	cpc	r5, r1
     2ea:	39 f0       	breq	.+14     	; 0x2fa <__udivdi3+0xb6>
     2ec:	30 f0       	brcs	.+12     	; 0x2fa <__udivdi3+0xb6>
     2ee:	48 e0       	ldi	r20, 0x08	; 8
     2f0:	e4 2e       	mov	r14, r20
     2f2:	f1 2c       	mov	r15, r1
     2f4:	01 2d       	mov	r16, r1
     2f6:	11 2d       	mov	r17, r1
     2f8:	18 c0       	rjmp	.+48     	; 0x32a <__udivdi3+0xe6>
     2fa:	ee 24       	eor	r14, r14
     2fc:	ff 24       	eor	r15, r15
     2fe:	87 01       	movw	r16, r14
     300:	14 c0       	rjmp	.+40     	; 0x32a <__udivdi3+0xe6>
     302:	20 e0       	ldi	r18, 0x00	; 0
     304:	22 16       	cp	r2, r18
     306:	20 e0       	ldi	r18, 0x00	; 0
     308:	32 06       	cpc	r3, r18
     30a:	20 e0       	ldi	r18, 0x00	; 0
     30c:	42 06       	cpc	r4, r18
     30e:	21 e0       	ldi	r18, 0x01	; 1
     310:	52 06       	cpc	r5, r18
     312:	30 f0       	brcs	.+12     	; 0x320 <__udivdi3+0xdc>
     314:	38 e1       	ldi	r19, 0x18	; 24
     316:	e3 2e       	mov	r14, r19
     318:	f1 2c       	mov	r15, r1
     31a:	01 2d       	mov	r16, r1
     31c:	11 2d       	mov	r17, r1
     31e:	05 c0       	rjmp	.+10     	; 0x32a <__udivdi3+0xe6>
     320:	20 e1       	ldi	r18, 0x10	; 16
     322:	e2 2e       	mov	r14, r18
     324:	f1 2c       	mov	r15, r1
     326:	01 2d       	mov	r16, r1
     328:	11 2d       	mov	r17, r1
     32a:	d2 01       	movw	r26, r4
     32c:	c1 01       	movw	r24, r2
     32e:	0e 2c       	mov	r0, r14
     330:	04 c0       	rjmp	.+8      	; 0x33a <__udivdi3+0xf6>
     332:	b6 95       	lsr	r27
     334:	a7 95       	ror	r26
     336:	97 95       	ror	r25
     338:	87 95       	ror	r24
     33a:	0a 94       	dec	r0
     33c:	d2 f7       	brpl	.-12     	; 0x332 <__udivdi3+0xee>
     33e:	82 50       	subi	r24, 0x02	; 2
     340:	9f 4f       	sbci	r25, 0xFF	; 255
     342:	dc 01       	movw	r26, r24
     344:	2c 91       	ld	r18, X
     346:	80 e2       	ldi	r24, 0x20	; 32
     348:	90 e0       	ldi	r25, 0x00	; 0
     34a:	a0 e0       	ldi	r26, 0x00	; 0
     34c:	b0 e0       	ldi	r27, 0x00	; 0
     34e:	8e 19       	sub	r24, r14
     350:	9f 09       	sbc	r25, r15
     352:	a0 0b       	sbc	r26, r16
     354:	b1 0b       	sbc	r27, r17
     356:	7c 01       	movw	r14, r24
     358:	8d 01       	movw	r16, r26
     35a:	e2 1a       	sub	r14, r18
     35c:	f1 08       	sbc	r15, r1
     35e:	01 09       	sbc	r16, r1
     360:	11 09       	sbc	r17, r1
     362:	e1 14       	cp	r14, r1
     364:	f1 04       	cpc	r15, r1
     366:	01 05       	cpc	r16, r1
     368:	11 05       	cpc	r17, r1
     36a:	a1 f1       	breq	.+104    	; 0x3d4 <__udivdi3+0x190>
     36c:	0e 2c       	mov	r0, r14
     36e:	04 c0       	rjmp	.+8      	; 0x378 <__udivdi3+0x134>
     370:	22 0c       	add	r2, r2
     372:	33 1c       	adc	r3, r3
     374:	44 1c       	adc	r4, r4
     376:	55 1c       	adc	r5, r5
     378:	0a 94       	dec	r0
     37a:	d2 f7       	brpl	.-12     	; 0x370 <__udivdi3+0x12c>
     37c:	a4 01       	movw	r20, r8
     37e:	93 01       	movw	r18, r6
     380:	0e 2c       	mov	r0, r14
     382:	04 c0       	rjmp	.+8      	; 0x38c <__udivdi3+0x148>
     384:	22 0f       	add	r18, r18
     386:	33 1f       	adc	r19, r19
     388:	44 1f       	adc	r20, r20
     38a:	55 1f       	adc	r21, r21
     38c:	0a 94       	dec	r0
     38e:	d2 f7       	brpl	.-12     	; 0x384 <__udivdi3+0x140>
     390:	80 e2       	ldi	r24, 0x20	; 32
     392:	90 e0       	ldi	r25, 0x00	; 0
     394:	8e 19       	sub	r24, r14
     396:	9f 09       	sbc	r25, r15
     398:	6d a4       	ldd	r6, Y+45	; 0x2d
     39a:	7e a4       	ldd	r7, Y+46	; 0x2e
     39c:	8f a4       	ldd	r8, Y+47	; 0x2f
     39e:	98 a8       	ldd	r9, Y+48	; 0x30
     3a0:	04 c0       	rjmp	.+8      	; 0x3aa <__udivdi3+0x166>
     3a2:	96 94       	lsr	r9
     3a4:	87 94       	ror	r8
     3a6:	77 94       	ror	r7
     3a8:	67 94       	ror	r6
     3aa:	8a 95       	dec	r24
     3ac:	d2 f7       	brpl	.-12     	; 0x3a2 <__udivdi3+0x15e>
     3ae:	62 2a       	or	r6, r18
     3b0:	73 2a       	or	r7, r19
     3b2:	84 2a       	or	r8, r20
     3b4:	95 2a       	or	r9, r21
     3b6:	ad a4       	ldd	r10, Y+45	; 0x2d
     3b8:	be a4       	ldd	r11, Y+46	; 0x2e
     3ba:	cf a4       	ldd	r12, Y+47	; 0x2f
     3bc:	d8 a8       	ldd	r13, Y+48	; 0x30
     3be:	04 c0       	rjmp	.+8      	; 0x3c8 <__udivdi3+0x184>
     3c0:	aa 0c       	add	r10, r10
     3c2:	bb 1c       	adc	r11, r11
     3c4:	cc 1c       	adc	r12, r12
     3c6:	dd 1c       	adc	r13, r13
     3c8:	ea 94       	dec	r14
     3ca:	d2 f7       	brpl	.-12     	; 0x3c0 <__udivdi3+0x17c>
     3cc:	ad a6       	std	Y+45, r10	; 0x2d
     3ce:	be a6       	std	Y+46, r11	; 0x2e
     3d0:	cf a6       	std	Y+47, r12	; 0x2f
     3d2:	d8 aa       	std	Y+48, r13	; 0x30
     3d4:	62 01       	movw	r12, r4
     3d6:	ee 24       	eor	r14, r14
     3d8:	ff 24       	eor	r15, r15
     3da:	cd aa       	std	Y+53, r12	; 0x35
     3dc:	de aa       	std	Y+54, r13	; 0x36
     3de:	ef aa       	std	Y+55, r14	; 0x37
     3e0:	f8 ae       	std	Y+56, r15	; 0x38
     3e2:	92 01       	movw	r18, r4
     3e4:	81 01       	movw	r16, r2
     3e6:	20 70       	andi	r18, 0x00	; 0
     3e8:	30 70       	andi	r19, 0x00	; 0
     3ea:	09 af       	std	Y+57, r16	; 0x39
     3ec:	1a af       	std	Y+58, r17	; 0x3a
     3ee:	2b af       	std	Y+59, r18	; 0x3b
     3f0:	3c af       	std	Y+60, r19	; 0x3c
     3f2:	c4 01       	movw	r24, r8
     3f4:	b3 01       	movw	r22, r6
     3f6:	a7 01       	movw	r20, r14
     3f8:	96 01       	movw	r18, r12
     3fa:	08 da       	rcall	.-3056   	; 0xfffff80c <__eeprom_end+0xff7ef80c>
     3fc:	7b 01       	movw	r14, r22
     3fe:	8c 01       	movw	r16, r24
     400:	c4 01       	movw	r24, r8
     402:	b3 01       	movw	r22, r6
     404:	2d a9       	ldd	r18, Y+53	; 0x35
     406:	3e a9       	ldd	r19, Y+54	; 0x36
     408:	4f a9       	ldd	r20, Y+55	; 0x37
     40a:	58 ad       	ldd	r21, Y+56	; 0x38
     40c:	ff d9       	rcall	.-3074   	; 0xfffff80c <__eeprom_end+0xff7ef80c>
     40e:	c9 01       	movw	r24, r18
     410:	da 01       	movw	r26, r20
     412:	3c 01       	movw	r6, r24
     414:	4d 01       	movw	r8, r26
     416:	c4 01       	movw	r24, r8
     418:	b3 01       	movw	r22, r6
     41a:	29 ad       	ldd	r18, Y+57	; 0x39
     41c:	3a ad       	ldd	r19, Y+58	; 0x3a
     41e:	4b ad       	ldd	r20, Y+59	; 0x3b
     420:	5c ad       	ldd	r21, Y+60	; 0x3c
     422:	d5 d9       	rcall	.-3158   	; 0xfffff7ce <__eeprom_end+0xff7ef7ce>
     424:	9b 01       	movw	r18, r22
     426:	ac 01       	movw	r20, r24
     428:	87 01       	movw	r16, r14
     42a:	ff 24       	eor	r15, r15
     42c:	ee 24       	eor	r14, r14
     42e:	ad a4       	ldd	r10, Y+45	; 0x2d
     430:	be a4       	ldd	r11, Y+46	; 0x2e
     432:	cf a4       	ldd	r12, Y+47	; 0x2f
     434:	d8 a8       	ldd	r13, Y+48	; 0x30
     436:	c6 01       	movw	r24, r12
     438:	aa 27       	eor	r26, r26
     43a:	bb 27       	eor	r27, r27
     43c:	57 01       	movw	r10, r14
     43e:	68 01       	movw	r12, r16
     440:	a8 2a       	or	r10, r24
     442:	b9 2a       	or	r11, r25
     444:	ca 2a       	or	r12, r26
     446:	db 2a       	or	r13, r27
     448:	a2 16       	cp	r10, r18
     44a:	b3 06       	cpc	r11, r19
     44c:	c4 06       	cpc	r12, r20
     44e:	d5 06       	cpc	r13, r21
     450:	e0 f4       	brcc	.+56     	; 0x48a <__stack+0x2b>
     452:	08 94       	sec
     454:	61 08       	sbc	r6, r1
     456:	71 08       	sbc	r7, r1
     458:	81 08       	sbc	r8, r1
     45a:	91 08       	sbc	r9, r1
     45c:	a2 0c       	add	r10, r2
     45e:	b3 1c       	adc	r11, r3
     460:	c4 1c       	adc	r12, r4
     462:	d5 1c       	adc	r13, r5
     464:	a2 14       	cp	r10, r2
     466:	b3 04       	cpc	r11, r3
     468:	c4 04       	cpc	r12, r4
     46a:	d5 04       	cpc	r13, r5
     46c:	70 f0       	brcs	.+28     	; 0x48a <__stack+0x2b>
     46e:	a2 16       	cp	r10, r18
     470:	b3 06       	cpc	r11, r19
     472:	c4 06       	cpc	r12, r20
     474:	d5 06       	cpc	r13, r21
     476:	48 f4       	brcc	.+18     	; 0x48a <__stack+0x2b>
     478:	08 94       	sec
     47a:	61 08       	sbc	r6, r1
     47c:	71 08       	sbc	r7, r1
     47e:	81 08       	sbc	r8, r1
     480:	91 08       	sbc	r9, r1
     482:	a2 0c       	add	r10, r2
     484:	b3 1c       	adc	r11, r3
     486:	c4 1c       	adc	r12, r4
     488:	d5 1c       	adc	r13, r5
     48a:	a2 1a       	sub	r10, r18
     48c:	b3 0a       	sbc	r11, r19
     48e:	c4 0a       	sbc	r12, r20
     490:	d5 0a       	sbc	r13, r21
     492:	c6 01       	movw	r24, r12
     494:	b5 01       	movw	r22, r10
     496:	2d a9       	ldd	r18, Y+53	; 0x35
     498:	3e a9       	ldd	r19, Y+54	; 0x36
     49a:	4f a9       	ldd	r20, Y+55	; 0x37
     49c:	58 ad       	ldd	r21, Y+56	; 0x38
     49e:	b6 d9       	rcall	.-3220   	; 0xfffff80c <__eeprom_end+0xff7ef80c>
     4a0:	7b 01       	movw	r14, r22
     4a2:	8c 01       	movw	r16, r24
     4a4:	c6 01       	movw	r24, r12
     4a6:	b5 01       	movw	r22, r10
     4a8:	2d a9       	ldd	r18, Y+53	; 0x35
     4aa:	3e a9       	ldd	r19, Y+54	; 0x36
     4ac:	4f a9       	ldd	r20, Y+55	; 0x37
     4ae:	58 ad       	ldd	r21, Y+56	; 0x38
     4b0:	ad d9       	rcall	.-3238   	; 0xfffff80c <__eeprom_end+0xff7ef80c>
     4b2:	c9 01       	movw	r24, r18
     4b4:	da 01       	movw	r26, r20
     4b6:	5c 01       	movw	r10, r24
     4b8:	6d 01       	movw	r12, r26
     4ba:	c6 01       	movw	r24, r12
     4bc:	b5 01       	movw	r22, r10
     4be:	29 ad       	ldd	r18, Y+57	; 0x39
     4c0:	3a ad       	ldd	r19, Y+58	; 0x3a
     4c2:	4b ad       	ldd	r20, Y+59	; 0x3b
     4c4:	5c ad       	ldd	r21, Y+60	; 0x3c
     4c6:	83 d9       	rcall	.-3322   	; 0xfffff7ce <__eeprom_end+0xff7ef7ce>
     4c8:	9b 01       	movw	r18, r22
     4ca:	ac 01       	movw	r20, r24
     4cc:	87 01       	movw	r16, r14
     4ce:	ff 24       	eor	r15, r15
     4d0:	ee 24       	eor	r14, r14
     4d2:	8d a5       	ldd	r24, Y+45	; 0x2d
     4d4:	9e a5       	ldd	r25, Y+46	; 0x2e
     4d6:	af a5       	ldd	r26, Y+47	; 0x2f
     4d8:	b8 a9       	ldd	r27, Y+48	; 0x30
     4da:	a0 70       	andi	r26, 0x00	; 0
     4dc:	b0 70       	andi	r27, 0x00	; 0
     4de:	e8 2a       	or	r14, r24
     4e0:	f9 2a       	or	r15, r25
     4e2:	0a 2b       	or	r16, r26
     4e4:	1b 2b       	or	r17, r27
     4e6:	e2 16       	cp	r14, r18
     4e8:	f3 06       	cpc	r15, r19
     4ea:	04 07       	cpc	r16, r20
     4ec:	15 07       	cpc	r17, r21
     4ee:	c0 f4       	brcc	.+48     	; 0x520 <__stack+0xc1>
     4f0:	08 94       	sec
     4f2:	a1 08       	sbc	r10, r1
     4f4:	b1 08       	sbc	r11, r1
     4f6:	c1 08       	sbc	r12, r1
     4f8:	d1 08       	sbc	r13, r1
     4fa:	e2 0c       	add	r14, r2
     4fc:	f3 1c       	adc	r15, r3
     4fe:	04 1d       	adc	r16, r4
     500:	15 1d       	adc	r17, r5
     502:	e2 14       	cp	r14, r2
     504:	f3 04       	cpc	r15, r3
     506:	04 05       	cpc	r16, r4
     508:	15 05       	cpc	r17, r5
     50a:	50 f0       	brcs	.+20     	; 0x520 <__stack+0xc1>
     50c:	e2 16       	cp	r14, r18
     50e:	f3 06       	cpc	r15, r19
     510:	04 07       	cpc	r16, r20
     512:	15 07       	cpc	r17, r21
     514:	28 f4       	brcc	.+10     	; 0x520 <__stack+0xc1>
     516:	08 94       	sec
     518:	a1 08       	sbc	r10, r1
     51a:	b1 08       	sbc	r11, r1
     51c:	c1 08       	sbc	r12, r1
     51e:	d1 08       	sbc	r13, r1
     520:	d3 01       	movw	r26, r6
     522:	99 27       	eor	r25, r25
     524:	88 27       	eor	r24, r24
     526:	86 01       	movw	r16, r12
     528:	75 01       	movw	r14, r10
     52a:	e8 2a       	or	r14, r24
     52c:	f9 2a       	or	r15, r25
     52e:	0a 2b       	or	r16, r26
     530:	1b 2b       	or	r17, r27
     532:	e9 aa       	std	Y+49, r14	; 0x31
     534:	fa aa       	std	Y+50, r15	; 0x32
     536:	0b ab       	std	Y+51, r16	; 0x33
     538:	1c ab       	std	Y+52, r17	; 0x34
     53a:	b8 c4       	rjmp	.+2416   	; 0xeac <__stack+0xa4d>
     53c:	21 14       	cp	r2, r1
     53e:	31 04       	cpc	r3, r1
     540:	41 04       	cpc	r4, r1
     542:	51 04       	cpc	r5, r1
     544:	69 f4       	brne	.+26     	; 0x560 <__stack+0x101>
     546:	61 e0       	ldi	r22, 0x01	; 1
     548:	70 e0       	ldi	r23, 0x00	; 0
     54a:	80 e0       	ldi	r24, 0x00	; 0
     54c:	90 e0       	ldi	r25, 0x00	; 0
     54e:	20 e0       	ldi	r18, 0x00	; 0
     550:	30 e0       	ldi	r19, 0x00	; 0
     552:	40 e0       	ldi	r20, 0x00	; 0
     554:	50 e0       	ldi	r21, 0x00	; 0
     556:	5a d9       	rcall	.-3404   	; 0xfffff80c <__eeprom_end+0xff7ef80c>
     558:	c9 01       	movw	r24, r18
     55a:	da 01       	movw	r26, r20
     55c:	1c 01       	movw	r2, r24
     55e:	2d 01       	movw	r4, r26
     560:	00 e0       	ldi	r16, 0x00	; 0
     562:	20 16       	cp	r2, r16
     564:	00 e0       	ldi	r16, 0x00	; 0
     566:	30 06       	cpc	r3, r16
     568:	01 e0       	ldi	r16, 0x01	; 1
     56a:	40 06       	cpc	r4, r16
     56c:	00 e0       	ldi	r16, 0x00	; 0
     56e:	50 06       	cpc	r5, r16
     570:	88 f4       	brcc	.+34     	; 0x594 <__stack+0x135>
     572:	1f ef       	ldi	r17, 0xFF	; 255
     574:	21 16       	cp	r2, r17
     576:	31 04       	cpc	r3, r1
     578:	41 04       	cpc	r4, r1
     57a:	51 04       	cpc	r5, r1
     57c:	31 f0       	breq	.+12     	; 0x58a <__stack+0x12b>
     57e:	28 f0       	brcs	.+10     	; 0x58a <__stack+0x12b>
     580:	48 e0       	ldi	r20, 0x08	; 8
     582:	50 e0       	ldi	r21, 0x00	; 0
     584:	60 e0       	ldi	r22, 0x00	; 0
     586:	70 e0       	ldi	r23, 0x00	; 0
     588:	17 c0       	rjmp	.+46     	; 0x5b8 <__stack+0x159>
     58a:	40 e0       	ldi	r20, 0x00	; 0
     58c:	50 e0       	ldi	r21, 0x00	; 0
     58e:	60 e0       	ldi	r22, 0x00	; 0
     590:	70 e0       	ldi	r23, 0x00	; 0
     592:	12 c0       	rjmp	.+36     	; 0x5b8 <__stack+0x159>
     594:	20 e0       	ldi	r18, 0x00	; 0
     596:	22 16       	cp	r2, r18
     598:	20 e0       	ldi	r18, 0x00	; 0
     59a:	32 06       	cpc	r3, r18
     59c:	20 e0       	ldi	r18, 0x00	; 0
     59e:	42 06       	cpc	r4, r18
     5a0:	21 e0       	ldi	r18, 0x01	; 1
     5a2:	52 06       	cpc	r5, r18
     5a4:	28 f0       	brcs	.+10     	; 0x5b0 <__stack+0x151>
     5a6:	48 e1       	ldi	r20, 0x18	; 24
     5a8:	50 e0       	ldi	r21, 0x00	; 0
     5aa:	60 e0       	ldi	r22, 0x00	; 0
     5ac:	70 e0       	ldi	r23, 0x00	; 0
     5ae:	04 c0       	rjmp	.+8      	; 0x5b8 <__stack+0x159>
     5b0:	40 e1       	ldi	r20, 0x10	; 16
     5b2:	50 e0       	ldi	r21, 0x00	; 0
     5b4:	60 e0       	ldi	r22, 0x00	; 0
     5b6:	70 e0       	ldi	r23, 0x00	; 0
     5b8:	d2 01       	movw	r26, r4
     5ba:	c1 01       	movw	r24, r2
     5bc:	04 2e       	mov	r0, r20
     5be:	04 c0       	rjmp	.+8      	; 0x5c8 <__stack+0x169>
     5c0:	b6 95       	lsr	r27
     5c2:	a7 95       	ror	r26
     5c4:	97 95       	ror	r25
     5c6:	87 95       	ror	r24
     5c8:	0a 94       	dec	r0
     5ca:	d2 f7       	brpl	.-12     	; 0x5c0 <__stack+0x161>
     5cc:	82 50       	subi	r24, 0x02	; 2
     5ce:	9f 4f       	sbci	r25, 0xFF	; 255
     5d0:	dc 01       	movw	r26, r24
     5d2:	2c 91       	ld	r18, X
     5d4:	e0 e2       	ldi	r30, 0x20	; 32
     5d6:	ee 2e       	mov	r14, r30
     5d8:	f1 2c       	mov	r15, r1
     5da:	01 2d       	mov	r16, r1
     5dc:	11 2d       	mov	r17, r1
     5de:	d8 01       	movw	r26, r16
     5e0:	c7 01       	movw	r24, r14
     5e2:	84 1b       	sub	r24, r20
     5e4:	95 0b       	sbc	r25, r21
     5e6:	a6 0b       	sbc	r26, r22
     5e8:	b7 0b       	sbc	r27, r23
     5ea:	82 1b       	sub	r24, r18
     5ec:	91 09       	sbc	r25, r1
     5ee:	a1 09       	sbc	r26, r1
     5f0:	b1 09       	sbc	r27, r1
     5f2:	00 97       	sbiw	r24, 0x00	; 0
     5f4:	a1 05       	cpc	r26, r1
     5f6:	b1 05       	cpc	r27, r1
     5f8:	61 f4       	brne	.+24     	; 0x612 <__stack+0x1b3>
     5fa:	64 01       	movw	r12, r8
     5fc:	53 01       	movw	r10, r6
     5fe:	a2 18       	sub	r10, r2
     600:	b3 08       	sbc	r11, r3
     602:	c4 08       	sbc	r12, r4
     604:	d5 08       	sbc	r13, r5
     606:	31 e0       	ldi	r19, 0x01	; 1
     608:	63 2e       	mov	r6, r19
     60a:	71 2c       	mov	r7, r1
     60c:	81 2c       	mov	r8, r1
     60e:	91 2c       	mov	r9, r1
     610:	18 c1       	rjmp	.+560    	; 0x842 <__stack+0x3e3>
     612:	6f 96       	adiw	r28, 0x1f	; 31
     614:	8f af       	std	Y+63, r24	; 0x3f
     616:	6f 97       	sbiw	r28, 0x1f	; 31
     618:	08 2e       	mov	r0, r24
     61a:	04 c0       	rjmp	.+8      	; 0x624 <__stack+0x1c5>
     61c:	22 0c       	add	r2, r2
     61e:	33 1c       	adc	r3, r3
     620:	44 1c       	adc	r4, r4
     622:	55 1c       	adc	r5, r5
     624:	0a 94       	dec	r0
     626:	d2 f7       	brpl	.-12     	; 0x61c <__stack+0x1bd>
     628:	ee 2d       	mov	r30, r14
     62a:	e8 1b       	sub	r30, r24
     62c:	64 01       	movw	r12, r8
     62e:	53 01       	movw	r10, r6
     630:	0e 2e       	mov	r0, r30
     632:	04 c0       	rjmp	.+8      	; 0x63c <__stack+0x1dd>
     634:	d6 94       	lsr	r13
     636:	c7 94       	ror	r12
     638:	b7 94       	ror	r11
     63a:	a7 94       	ror	r10
     63c:	0a 94       	dec	r0
     63e:	d2 f7       	brpl	.-12     	; 0x634 <__stack+0x1d5>
     640:	a4 01       	movw	r20, r8
     642:	93 01       	movw	r18, r6
     644:	6f 96       	adiw	r28, 0x1f	; 31
     646:	0f ac       	ldd	r0, Y+63	; 0x3f
     648:	6f 97       	sbiw	r28, 0x1f	; 31
     64a:	04 c0       	rjmp	.+8      	; 0x654 <__stack+0x1f5>
     64c:	22 0f       	add	r18, r18
     64e:	33 1f       	adc	r19, r19
     650:	44 1f       	adc	r20, r20
     652:	55 1f       	adc	r21, r21
     654:	0a 94       	dec	r0
     656:	d2 f7       	brpl	.-12     	; 0x64c <__stack+0x1ed>
     658:	6d a4       	ldd	r6, Y+45	; 0x2d
     65a:	7e a4       	ldd	r7, Y+46	; 0x2e
     65c:	8f a4       	ldd	r8, Y+47	; 0x2f
     65e:	98 a8       	ldd	r9, Y+48	; 0x30
     660:	0e 2e       	mov	r0, r30
     662:	04 c0       	rjmp	.+8      	; 0x66c <__stack+0x20d>
     664:	96 94       	lsr	r9
     666:	87 94       	ror	r8
     668:	77 94       	ror	r7
     66a:	67 94       	ror	r6
     66c:	0a 94       	dec	r0
     66e:	d2 f7       	brpl	.-12     	; 0x664 <__stack+0x205>
     670:	84 01       	movw	r16, r8
     672:	73 01       	movw	r14, r6
     674:	e2 2a       	or	r14, r18
     676:	f3 2a       	or	r15, r19
     678:	04 2b       	or	r16, r20
     67a:	15 2b       	or	r17, r21
     67c:	e9 a6       	std	Y+41, r14	; 0x29
     67e:	fa a6       	std	Y+42, r15	; 0x2a
     680:	0b a7       	std	Y+43, r16	; 0x2b
     682:	1c a7       	std	Y+44, r17	; 0x2c
     684:	32 01       	movw	r6, r4
     686:	88 24       	eor	r8, r8
     688:	99 24       	eor	r9, r9
     68a:	92 01       	movw	r18, r4
     68c:	81 01       	movw	r16, r2
     68e:	20 70       	andi	r18, 0x00	; 0
     690:	30 70       	andi	r19, 0x00	; 0
     692:	21 96       	adiw	r28, 0x01	; 1
     694:	0c af       	std	Y+60, r16	; 0x3c
     696:	1d af       	std	Y+61, r17	; 0x3d
     698:	2e af       	std	Y+62, r18	; 0x3e
     69a:	3f af       	std	Y+63, r19	; 0x3f
     69c:	21 97       	sbiw	r28, 0x01	; 1
     69e:	c6 01       	movw	r24, r12
     6a0:	b5 01       	movw	r22, r10
     6a2:	a4 01       	movw	r20, r8
     6a4:	93 01       	movw	r18, r6
     6a6:	b2 d8       	rcall	.-3740   	; 0xfffff80c <__eeprom_end+0xff7ef80c>
     6a8:	7b 01       	movw	r14, r22
     6aa:	8c 01       	movw	r16, r24
     6ac:	c6 01       	movw	r24, r12
     6ae:	b5 01       	movw	r22, r10
     6b0:	a4 01       	movw	r20, r8
     6b2:	93 01       	movw	r18, r6
     6b4:	ab d8       	rcall	.-3754   	; 0xfffff80c <__eeprom_end+0xff7ef80c>
     6b6:	c9 01       	movw	r24, r18
     6b8:	da 01       	movw	r26, r20
     6ba:	25 96       	adiw	r28, 0x05	; 5
     6bc:	8c af       	std	Y+60, r24	; 0x3c
     6be:	9d af       	std	Y+61, r25	; 0x3d
     6c0:	ae af       	std	Y+62, r26	; 0x3e
     6c2:	bf af       	std	Y+63, r27	; 0x3f
     6c4:	25 97       	sbiw	r28, 0x05	; 5
     6c6:	bc 01       	movw	r22, r24
     6c8:	cd 01       	movw	r24, r26
     6ca:	21 96       	adiw	r28, 0x01	; 1
     6cc:	2c ad       	ldd	r18, Y+60	; 0x3c
     6ce:	3d ad       	ldd	r19, Y+61	; 0x3d
     6d0:	4e ad       	ldd	r20, Y+62	; 0x3e
     6d2:	5f ad       	ldd	r21, Y+63	; 0x3f
     6d4:	21 97       	sbiw	r28, 0x01	; 1
     6d6:	7b d8       	rcall	.-3850   	; 0xfffff7ce <__eeprom_end+0xff7ef7ce>
     6d8:	9b 01       	movw	r18, r22
     6da:	ac 01       	movw	r20, r24
     6dc:	87 01       	movw	r16, r14
     6de:	ff 24       	eor	r15, r15
     6e0:	ee 24       	eor	r14, r14
     6e2:	a9 a4       	ldd	r10, Y+41	; 0x29
     6e4:	ba a4       	ldd	r11, Y+42	; 0x2a
     6e6:	cb a4       	ldd	r12, Y+43	; 0x2b
     6e8:	dc a4       	ldd	r13, Y+44	; 0x2c
     6ea:	c6 01       	movw	r24, r12
     6ec:	aa 27       	eor	r26, r26
     6ee:	bb 27       	eor	r27, r27
     6f0:	5c 01       	movw	r10, r24
     6f2:	6d 01       	movw	r12, r26
     6f4:	ae 28       	or	r10, r14
     6f6:	bf 28       	or	r11, r15
     6f8:	c0 2a       	or	r12, r16
     6fa:	d1 2a       	or	r13, r17
     6fc:	a2 16       	cp	r10, r18
     6fe:	b3 06       	cpc	r11, r19
     700:	c4 06       	cpc	r12, r20
     702:	d5 06       	cpc	r13, r21
     704:	60 f5       	brcc	.+88     	; 0x75e <__stack+0x2ff>
     706:	25 96       	adiw	r28, 0x05	; 5
     708:	6c ad       	ldd	r22, Y+60	; 0x3c
     70a:	7d ad       	ldd	r23, Y+61	; 0x3d
     70c:	8e ad       	ldd	r24, Y+62	; 0x3e
     70e:	9f ad       	ldd	r25, Y+63	; 0x3f
     710:	25 97       	sbiw	r28, 0x05	; 5
     712:	61 50       	subi	r22, 0x01	; 1
     714:	70 40       	sbci	r23, 0x00	; 0
     716:	80 40       	sbci	r24, 0x00	; 0
     718:	90 40       	sbci	r25, 0x00	; 0
     71a:	25 96       	adiw	r28, 0x05	; 5
     71c:	6c af       	std	Y+60, r22	; 0x3c
     71e:	7d af       	std	Y+61, r23	; 0x3d
     720:	8e af       	std	Y+62, r24	; 0x3e
     722:	9f af       	std	Y+63, r25	; 0x3f
     724:	25 97       	sbiw	r28, 0x05	; 5
     726:	a2 0c       	add	r10, r2
     728:	b3 1c       	adc	r11, r3
     72a:	c4 1c       	adc	r12, r4
     72c:	d5 1c       	adc	r13, r5
     72e:	a2 14       	cp	r10, r2
     730:	b3 04       	cpc	r11, r3
     732:	c4 04       	cpc	r12, r4
     734:	d5 04       	cpc	r13, r5
     736:	98 f0       	brcs	.+38     	; 0x75e <__stack+0x2ff>
     738:	a2 16       	cp	r10, r18
     73a:	b3 06       	cpc	r11, r19
     73c:	c4 06       	cpc	r12, r20
     73e:	d5 06       	cpc	r13, r21
     740:	70 f4       	brcc	.+28     	; 0x75e <__stack+0x2ff>
     742:	61 50       	subi	r22, 0x01	; 1
     744:	70 40       	sbci	r23, 0x00	; 0
     746:	80 40       	sbci	r24, 0x00	; 0
     748:	90 40       	sbci	r25, 0x00	; 0
     74a:	25 96       	adiw	r28, 0x05	; 5
     74c:	6c af       	std	Y+60, r22	; 0x3c
     74e:	7d af       	std	Y+61, r23	; 0x3d
     750:	8e af       	std	Y+62, r24	; 0x3e
     752:	9f af       	std	Y+63, r25	; 0x3f
     754:	25 97       	sbiw	r28, 0x05	; 5
     756:	a2 0c       	add	r10, r2
     758:	b3 1c       	adc	r11, r3
     75a:	c4 1c       	adc	r12, r4
     75c:	d5 1c       	adc	r13, r5
     75e:	a2 1a       	sub	r10, r18
     760:	b3 0a       	sbc	r11, r19
     762:	c4 0a       	sbc	r12, r20
     764:	d5 0a       	sbc	r13, r21
     766:	c6 01       	movw	r24, r12
     768:	b5 01       	movw	r22, r10
     76a:	a4 01       	movw	r20, r8
     76c:	93 01       	movw	r18, r6
     76e:	4e d8       	rcall	.-3940   	; 0xfffff80c <__eeprom_end+0xff7ef80c>
     770:	7b 01       	movw	r14, r22
     772:	8c 01       	movw	r16, r24
     774:	c6 01       	movw	r24, r12
     776:	b5 01       	movw	r22, r10
     778:	a4 01       	movw	r20, r8
     77a:	93 01       	movw	r18, r6
     77c:	47 d8       	rcall	.-3954   	; 0xfffff80c <__eeprom_end+0xff7ef80c>
     77e:	c9 01       	movw	r24, r18
     780:	da 01       	movw	r26, r20
     782:	3c 01       	movw	r6, r24
     784:	4d 01       	movw	r8, r26
     786:	c4 01       	movw	r24, r8
     788:	b3 01       	movw	r22, r6
     78a:	21 96       	adiw	r28, 0x01	; 1
     78c:	2c ad       	ldd	r18, Y+60	; 0x3c
     78e:	3d ad       	ldd	r19, Y+61	; 0x3d
     790:	4e ad       	ldd	r20, Y+62	; 0x3e
     792:	5f ad       	ldd	r21, Y+63	; 0x3f
     794:	21 97       	sbiw	r28, 0x01	; 1
     796:	1b d8       	rcall	.-4042   	; 0xfffff7ce <__eeprom_end+0xff7ef7ce>
     798:	9b 01       	movw	r18, r22
     79a:	ac 01       	movw	r20, r24
     79c:	87 01       	movw	r16, r14
     79e:	ff 24       	eor	r15, r15
     7a0:	ee 24       	eor	r14, r14
     7a2:	89 a5       	ldd	r24, Y+41	; 0x29
     7a4:	9a a5       	ldd	r25, Y+42	; 0x2a
     7a6:	ab a5       	ldd	r26, Y+43	; 0x2b
     7a8:	bc a5       	ldd	r27, Y+44	; 0x2c
     7aa:	a0 70       	andi	r26, 0x00	; 0
     7ac:	b0 70       	andi	r27, 0x00	; 0
     7ae:	57 01       	movw	r10, r14
     7b0:	68 01       	movw	r12, r16
     7b2:	a8 2a       	or	r10, r24
     7b4:	b9 2a       	or	r11, r25
     7b6:	ca 2a       	or	r12, r26
     7b8:	db 2a       	or	r13, r27
     7ba:	a2 16       	cp	r10, r18
     7bc:	b3 06       	cpc	r11, r19
     7be:	c4 06       	cpc	r12, r20
     7c0:	d5 06       	cpc	r13, r21
     7c2:	e0 f4       	brcc	.+56     	; 0x7fc <__stack+0x39d>
     7c4:	08 94       	sec
     7c6:	61 08       	sbc	r6, r1
     7c8:	71 08       	sbc	r7, r1
     7ca:	81 08       	sbc	r8, r1
     7cc:	91 08       	sbc	r9, r1
     7ce:	a2 0c       	add	r10, r2
     7d0:	b3 1c       	adc	r11, r3
     7d2:	c4 1c       	adc	r12, r4
     7d4:	d5 1c       	adc	r13, r5
     7d6:	a2 14       	cp	r10, r2
     7d8:	b3 04       	cpc	r11, r3
     7da:	c4 04       	cpc	r12, r4
     7dc:	d5 04       	cpc	r13, r5
     7de:	70 f0       	brcs	.+28     	; 0x7fc <__stack+0x39d>
     7e0:	a2 16       	cp	r10, r18
     7e2:	b3 06       	cpc	r11, r19
     7e4:	c4 06       	cpc	r12, r20
     7e6:	d5 06       	cpc	r13, r21
     7e8:	48 f4       	brcc	.+18     	; 0x7fc <__stack+0x39d>
     7ea:	08 94       	sec
     7ec:	61 08       	sbc	r6, r1
     7ee:	71 08       	sbc	r7, r1
     7f0:	81 08       	sbc	r8, r1
     7f2:	91 08       	sbc	r9, r1
     7f4:	a2 0c       	add	r10, r2
     7f6:	b3 1c       	adc	r11, r3
     7f8:	c4 1c       	adc	r12, r4
     7fa:	d5 1c       	adc	r13, r5
     7fc:	8d a5       	ldd	r24, Y+45	; 0x2d
     7fe:	9e a5       	ldd	r25, Y+46	; 0x2e
     800:	af a5       	ldd	r26, Y+47	; 0x2f
     802:	b8 a9       	ldd	r27, Y+48	; 0x30
     804:	6f 96       	adiw	r28, 0x1f	; 31
     806:	0f ac       	ldd	r0, Y+63	; 0x3f
     808:	6f 97       	sbiw	r28, 0x1f	; 31
     80a:	04 c0       	rjmp	.+8      	; 0x814 <__stack+0x3b5>
     80c:	88 0f       	add	r24, r24
     80e:	99 1f       	adc	r25, r25
     810:	aa 1f       	adc	r26, r26
     812:	bb 1f       	adc	r27, r27
     814:	0a 94       	dec	r0
     816:	d2 f7       	brpl	.-12     	; 0x80c <__stack+0x3ad>
     818:	8d a7       	std	Y+45, r24	; 0x2d
     81a:	9e a7       	std	Y+46, r25	; 0x2e
     81c:	af a7       	std	Y+47, r26	; 0x2f
     81e:	b8 ab       	std	Y+48, r27	; 0x30
     820:	a2 1a       	sub	r10, r18
     822:	b3 0a       	sbc	r11, r19
     824:	c4 0a       	sbc	r12, r20
     826:	d5 0a       	sbc	r13, r21
     828:	25 96       	adiw	r28, 0x05	; 5
     82a:	ec ac       	ldd	r14, Y+60	; 0x3c
     82c:	fd ac       	ldd	r15, Y+61	; 0x3d
     82e:	0e ad       	ldd	r16, Y+62	; 0x3e
     830:	1f ad       	ldd	r17, Y+63	; 0x3f
     832:	25 97       	sbiw	r28, 0x05	; 5
     834:	d7 01       	movw	r26, r14
     836:	99 27       	eor	r25, r25
     838:	88 27       	eor	r24, r24
     83a:	68 2a       	or	r6, r24
     83c:	79 2a       	or	r7, r25
     83e:	8a 2a       	or	r8, r26
     840:	9b 2a       	or	r9, r27
     842:	82 01       	movw	r16, r4
     844:	22 27       	eor	r18, r18
     846:	33 27       	eor	r19, r19
     848:	29 96       	adiw	r28, 0x09	; 9
     84a:	0c af       	std	Y+60, r16	; 0x3c
     84c:	1d af       	std	Y+61, r17	; 0x3d
     84e:	2e af       	std	Y+62, r18	; 0x3e
     850:	3f af       	std	Y+63, r19	; 0x3f
     852:	29 97       	sbiw	r28, 0x09	; 9
     854:	a2 01       	movw	r20, r4
     856:	91 01       	movw	r18, r2
     858:	40 70       	andi	r20, 0x00	; 0
     85a:	50 70       	andi	r21, 0x00	; 0
     85c:	2d 96       	adiw	r28, 0x0d	; 13
     85e:	2c af       	std	Y+60, r18	; 0x3c
     860:	3d af       	std	Y+61, r19	; 0x3d
     862:	4e af       	std	Y+62, r20	; 0x3e
     864:	5f af       	std	Y+63, r21	; 0x3f
     866:	2d 97       	sbiw	r28, 0x0d	; 13
     868:	c6 01       	movw	r24, r12
     86a:	b5 01       	movw	r22, r10
     86c:	29 96       	adiw	r28, 0x09	; 9
     86e:	2c ad       	ldd	r18, Y+60	; 0x3c
     870:	3d ad       	ldd	r19, Y+61	; 0x3d
     872:	4e ad       	ldd	r20, Y+62	; 0x3e
     874:	5f ad       	ldd	r21, Y+63	; 0x3f
     876:	29 97       	sbiw	r28, 0x09	; 9
     878:	c9 d7       	rcall	.+3986   	; 0x180c <__udivmodsi4>
     87a:	7b 01       	movw	r14, r22
     87c:	8c 01       	movw	r16, r24
     87e:	c6 01       	movw	r24, r12
     880:	b5 01       	movw	r22, r10
     882:	29 96       	adiw	r28, 0x09	; 9
     884:	2c ad       	ldd	r18, Y+60	; 0x3c
     886:	3d ad       	ldd	r19, Y+61	; 0x3d
     888:	4e ad       	ldd	r20, Y+62	; 0x3e
     88a:	5f ad       	ldd	r21, Y+63	; 0x3f
     88c:	29 97       	sbiw	r28, 0x09	; 9
     88e:	be d7       	rcall	.+3964   	; 0x180c <__udivmodsi4>
     890:	c9 01       	movw	r24, r18
     892:	da 01       	movw	r26, r20
     894:	61 96       	adiw	r28, 0x11	; 17
     896:	8c af       	std	Y+60, r24	; 0x3c
     898:	9d af       	std	Y+61, r25	; 0x3d
     89a:	ae af       	std	Y+62, r26	; 0x3e
     89c:	bf af       	std	Y+63, r27	; 0x3f
     89e:	61 97       	sbiw	r28, 0x11	; 17
     8a0:	bc 01       	movw	r22, r24
     8a2:	cd 01       	movw	r24, r26
     8a4:	2d 96       	adiw	r28, 0x0d	; 13
     8a6:	2c ad       	ldd	r18, Y+60	; 0x3c
     8a8:	3d ad       	ldd	r19, Y+61	; 0x3d
     8aa:	4e ad       	ldd	r20, Y+62	; 0x3e
     8ac:	5f ad       	ldd	r21, Y+63	; 0x3f
     8ae:	2d 97       	sbiw	r28, 0x0d	; 13
     8b0:	8e d7       	rcall	.+3868   	; 0x17ce <__mulsi3>
     8b2:	9b 01       	movw	r18, r22
     8b4:	ac 01       	movw	r20, r24
     8b6:	87 01       	movw	r16, r14
     8b8:	ff 24       	eor	r15, r15
     8ba:	ee 24       	eor	r14, r14
     8bc:	ad a4       	ldd	r10, Y+45	; 0x2d
     8be:	be a4       	ldd	r11, Y+46	; 0x2e
     8c0:	cf a4       	ldd	r12, Y+47	; 0x2f
     8c2:	d8 a8       	ldd	r13, Y+48	; 0x30
     8c4:	c6 01       	movw	r24, r12
     8c6:	aa 27       	eor	r26, r26
     8c8:	bb 27       	eor	r27, r27
     8ca:	57 01       	movw	r10, r14
     8cc:	68 01       	movw	r12, r16
     8ce:	a8 2a       	or	r10, r24
     8d0:	b9 2a       	or	r11, r25
     8d2:	ca 2a       	or	r12, r26
     8d4:	db 2a       	or	r13, r27
     8d6:	a2 16       	cp	r10, r18
     8d8:	b3 06       	cpc	r11, r19
     8da:	c4 06       	cpc	r12, r20
     8dc:	d5 06       	cpc	r13, r21
     8de:	60 f5       	brcc	.+88     	; 0x938 <__stack+0x4d9>
     8e0:	61 96       	adiw	r28, 0x11	; 17
     8e2:	6c ad       	ldd	r22, Y+60	; 0x3c
     8e4:	7d ad       	ldd	r23, Y+61	; 0x3d
     8e6:	8e ad       	ldd	r24, Y+62	; 0x3e
     8e8:	9f ad       	ldd	r25, Y+63	; 0x3f
     8ea:	61 97       	sbiw	r28, 0x11	; 17
     8ec:	61 50       	subi	r22, 0x01	; 1
     8ee:	70 40       	sbci	r23, 0x00	; 0
     8f0:	80 40       	sbci	r24, 0x00	; 0
     8f2:	90 40       	sbci	r25, 0x00	; 0
     8f4:	61 96       	adiw	r28, 0x11	; 17
     8f6:	6c af       	std	Y+60, r22	; 0x3c
     8f8:	7d af       	std	Y+61, r23	; 0x3d
     8fa:	8e af       	std	Y+62, r24	; 0x3e
     8fc:	9f af       	std	Y+63, r25	; 0x3f
     8fe:	61 97       	sbiw	r28, 0x11	; 17
     900:	a2 0c       	add	r10, r2
     902:	b3 1c       	adc	r11, r3
     904:	c4 1c       	adc	r12, r4
     906:	d5 1c       	adc	r13, r5
     908:	a2 14       	cp	r10, r2
     90a:	b3 04       	cpc	r11, r3
     90c:	c4 04       	cpc	r12, r4
     90e:	d5 04       	cpc	r13, r5
     910:	98 f0       	brcs	.+38     	; 0x938 <__stack+0x4d9>
     912:	a2 16       	cp	r10, r18
     914:	b3 06       	cpc	r11, r19
     916:	c4 06       	cpc	r12, r20
     918:	d5 06       	cpc	r13, r21
     91a:	70 f4       	brcc	.+28     	; 0x938 <__stack+0x4d9>
     91c:	61 50       	subi	r22, 0x01	; 1
     91e:	70 40       	sbci	r23, 0x00	; 0
     920:	80 40       	sbci	r24, 0x00	; 0
     922:	90 40       	sbci	r25, 0x00	; 0
     924:	61 96       	adiw	r28, 0x11	; 17
     926:	6c af       	std	Y+60, r22	; 0x3c
     928:	7d af       	std	Y+61, r23	; 0x3d
     92a:	8e af       	std	Y+62, r24	; 0x3e
     92c:	9f af       	std	Y+63, r25	; 0x3f
     92e:	61 97       	sbiw	r28, 0x11	; 17
     930:	a2 0c       	add	r10, r2
     932:	b3 1c       	adc	r11, r3
     934:	c4 1c       	adc	r12, r4
     936:	d5 1c       	adc	r13, r5
     938:	a2 1a       	sub	r10, r18
     93a:	b3 0a       	sbc	r11, r19
     93c:	c4 0a       	sbc	r12, r20
     93e:	d5 0a       	sbc	r13, r21
     940:	c6 01       	movw	r24, r12
     942:	b5 01       	movw	r22, r10
     944:	29 96       	adiw	r28, 0x09	; 9
     946:	2c ad       	ldd	r18, Y+60	; 0x3c
     948:	3d ad       	ldd	r19, Y+61	; 0x3d
     94a:	4e ad       	ldd	r20, Y+62	; 0x3e
     94c:	5f ad       	ldd	r21, Y+63	; 0x3f
     94e:	29 97       	sbiw	r28, 0x09	; 9
     950:	5d d7       	rcall	.+3770   	; 0x180c <__udivmodsi4>
     952:	7b 01       	movw	r14, r22
     954:	8c 01       	movw	r16, r24
     956:	c6 01       	movw	r24, r12
     958:	b5 01       	movw	r22, r10
     95a:	29 96       	adiw	r28, 0x09	; 9
     95c:	2c ad       	ldd	r18, Y+60	; 0x3c
     95e:	3d ad       	ldd	r19, Y+61	; 0x3d
     960:	4e ad       	ldd	r20, Y+62	; 0x3e
     962:	5f ad       	ldd	r21, Y+63	; 0x3f
     964:	29 97       	sbiw	r28, 0x09	; 9
     966:	52 d7       	rcall	.+3748   	; 0x180c <__udivmodsi4>
     968:	c9 01       	movw	r24, r18
     96a:	da 01       	movw	r26, r20
     96c:	5c 01       	movw	r10, r24
     96e:	6d 01       	movw	r12, r26
     970:	c6 01       	movw	r24, r12
     972:	b5 01       	movw	r22, r10
     974:	2d 96       	adiw	r28, 0x0d	; 13
     976:	2c ad       	ldd	r18, Y+60	; 0x3c
     978:	3d ad       	ldd	r19, Y+61	; 0x3d
     97a:	4e ad       	ldd	r20, Y+62	; 0x3e
     97c:	5f ad       	ldd	r21, Y+63	; 0x3f
     97e:	2d 97       	sbiw	r28, 0x0d	; 13
     980:	26 d7       	rcall	.+3660   	; 0x17ce <__mulsi3>
     982:	9b 01       	movw	r18, r22
     984:	ac 01       	movw	r20, r24
     986:	87 01       	movw	r16, r14
     988:	ff 24       	eor	r15, r15
     98a:	ee 24       	eor	r14, r14
     98c:	8d a5       	ldd	r24, Y+45	; 0x2d
     98e:	9e a5       	ldd	r25, Y+46	; 0x2e
     990:	af a5       	ldd	r26, Y+47	; 0x2f
     992:	b8 a9       	ldd	r27, Y+48	; 0x30
     994:	a0 70       	andi	r26, 0x00	; 0
     996:	b0 70       	andi	r27, 0x00	; 0
     998:	e8 2a       	or	r14, r24
     99a:	f9 2a       	or	r15, r25
     99c:	0a 2b       	or	r16, r26
     99e:	1b 2b       	or	r17, r27
     9a0:	e2 16       	cp	r14, r18
     9a2:	f3 06       	cpc	r15, r19
     9a4:	04 07       	cpc	r16, r20
     9a6:	15 07       	cpc	r17, r21
     9a8:	c0 f4       	brcc	.+48     	; 0x9da <__stack+0x57b>
     9aa:	08 94       	sec
     9ac:	a1 08       	sbc	r10, r1
     9ae:	b1 08       	sbc	r11, r1
     9b0:	c1 08       	sbc	r12, r1
     9b2:	d1 08       	sbc	r13, r1
     9b4:	e2 0c       	add	r14, r2
     9b6:	f3 1c       	adc	r15, r3
     9b8:	04 1d       	adc	r16, r4
     9ba:	15 1d       	adc	r17, r5
     9bc:	e2 14       	cp	r14, r2
     9be:	f3 04       	cpc	r15, r3
     9c0:	04 05       	cpc	r16, r4
     9c2:	15 05       	cpc	r17, r5
     9c4:	50 f0       	brcs	.+20     	; 0x9da <__stack+0x57b>
     9c6:	e2 16       	cp	r14, r18
     9c8:	f3 06       	cpc	r15, r19
     9ca:	04 07       	cpc	r16, r20
     9cc:	15 07       	cpc	r17, r21
     9ce:	28 f4       	brcc	.+10     	; 0x9da <__stack+0x57b>
     9d0:	08 94       	sec
     9d2:	a1 08       	sbc	r10, r1
     9d4:	b1 08       	sbc	r11, r1
     9d6:	c1 08       	sbc	r12, r1
     9d8:	d1 08       	sbc	r13, r1
     9da:	61 96       	adiw	r28, 0x11	; 17
     9dc:	ec ac       	ldd	r14, Y+60	; 0x3c
     9de:	fd ac       	ldd	r15, Y+61	; 0x3d
     9e0:	0e ad       	ldd	r16, Y+62	; 0x3e
     9e2:	1f ad       	ldd	r17, Y+63	; 0x3f
     9e4:	61 97       	sbiw	r28, 0x11	; 17
     9e6:	d7 01       	movw	r26, r14
     9e8:	99 27       	eor	r25, r25
     9ea:	88 27       	eor	r24, r24
     9ec:	96 01       	movw	r18, r12
     9ee:	85 01       	movw	r16, r10
     9f0:	08 2b       	or	r16, r24
     9f2:	19 2b       	or	r17, r25
     9f4:	2a 2b       	or	r18, r26
     9f6:	3b 2b       	or	r19, r27
     9f8:	09 ab       	std	Y+49, r16	; 0x31
     9fa:	1a ab       	std	Y+50, r17	; 0x32
     9fc:	2b ab       	std	Y+51, r18	; 0x33
     9fe:	3c ab       	std	Y+52, r19	; 0x34
     a00:	58 c2       	rjmp	.+1200   	; 0xeb2 <__stack+0xa53>
     a02:	6e 14       	cp	r6, r14
     a04:	7f 04       	cpc	r7, r15
     a06:	80 06       	cpc	r8, r16
     a08:	91 06       	cpc	r9, r17
     a0a:	08 f4       	brcc	.+2      	; 0xa0e <__stack+0x5af>
     a0c:	47 c2       	rjmp	.+1166   	; 0xe9c <__stack+0xa3d>
     a0e:	20 e0       	ldi	r18, 0x00	; 0
     a10:	e2 16       	cp	r14, r18
     a12:	20 e0       	ldi	r18, 0x00	; 0
     a14:	f2 06       	cpc	r15, r18
     a16:	21 e0       	ldi	r18, 0x01	; 1
     a18:	02 07       	cpc	r16, r18
     a1a:	20 e0       	ldi	r18, 0x00	; 0
     a1c:	12 07       	cpc	r17, r18
     a1e:	88 f4       	brcc	.+34     	; 0xa42 <__stack+0x5e3>
     a20:	3f ef       	ldi	r19, 0xFF	; 255
     a22:	e3 16       	cp	r14, r19
     a24:	f1 04       	cpc	r15, r1
     a26:	01 05       	cpc	r16, r1
     a28:	11 05       	cpc	r17, r1
     a2a:	31 f0       	breq	.+12     	; 0xa38 <__stack+0x5d9>
     a2c:	28 f0       	brcs	.+10     	; 0xa38 <__stack+0x5d9>
     a2e:	48 e0       	ldi	r20, 0x08	; 8
     a30:	50 e0       	ldi	r21, 0x00	; 0
     a32:	60 e0       	ldi	r22, 0x00	; 0
     a34:	70 e0       	ldi	r23, 0x00	; 0
     a36:	17 c0       	rjmp	.+46     	; 0xa66 <__stack+0x607>
     a38:	40 e0       	ldi	r20, 0x00	; 0
     a3a:	50 e0       	ldi	r21, 0x00	; 0
     a3c:	60 e0       	ldi	r22, 0x00	; 0
     a3e:	70 e0       	ldi	r23, 0x00	; 0
     a40:	12 c0       	rjmp	.+36     	; 0xa66 <__stack+0x607>
     a42:	40 e0       	ldi	r20, 0x00	; 0
     a44:	e4 16       	cp	r14, r20
     a46:	40 e0       	ldi	r20, 0x00	; 0
     a48:	f4 06       	cpc	r15, r20
     a4a:	40 e0       	ldi	r20, 0x00	; 0
     a4c:	04 07       	cpc	r16, r20
     a4e:	41 e0       	ldi	r20, 0x01	; 1
     a50:	14 07       	cpc	r17, r20
     a52:	28 f0       	brcs	.+10     	; 0xa5e <__stack+0x5ff>
     a54:	48 e1       	ldi	r20, 0x18	; 24
     a56:	50 e0       	ldi	r21, 0x00	; 0
     a58:	60 e0       	ldi	r22, 0x00	; 0
     a5a:	70 e0       	ldi	r23, 0x00	; 0
     a5c:	04 c0       	rjmp	.+8      	; 0xa66 <__stack+0x607>
     a5e:	40 e1       	ldi	r20, 0x10	; 16
     a60:	50 e0       	ldi	r21, 0x00	; 0
     a62:	60 e0       	ldi	r22, 0x00	; 0
     a64:	70 e0       	ldi	r23, 0x00	; 0
     a66:	d8 01       	movw	r26, r16
     a68:	c7 01       	movw	r24, r14
     a6a:	04 2e       	mov	r0, r20
     a6c:	04 c0       	rjmp	.+8      	; 0xa76 <__stack+0x617>
     a6e:	b6 95       	lsr	r27
     a70:	a7 95       	ror	r26
     a72:	97 95       	ror	r25
     a74:	87 95       	ror	r24
     a76:	0a 94       	dec	r0
     a78:	d2 f7       	brpl	.-12     	; 0xa6e <__stack+0x60f>
     a7a:	82 50       	subi	r24, 0x02	; 2
     a7c:	9f 4f       	sbci	r25, 0xFF	; 255
     a7e:	dc 01       	movw	r26, r24
     a80:	2c 91       	ld	r18, X
     a82:	30 e2       	ldi	r19, 0x20	; 32
     a84:	a3 2e       	mov	r10, r19
     a86:	b1 2c       	mov	r11, r1
     a88:	c1 2c       	mov	r12, r1
     a8a:	d1 2c       	mov	r13, r1
     a8c:	d6 01       	movw	r26, r12
     a8e:	c5 01       	movw	r24, r10
     a90:	84 1b       	sub	r24, r20
     a92:	95 0b       	sbc	r25, r21
     a94:	a6 0b       	sbc	r26, r22
     a96:	b7 0b       	sbc	r27, r23
     a98:	82 1b       	sub	r24, r18
     a9a:	91 09       	sbc	r25, r1
     a9c:	a1 09       	sbc	r26, r1
     a9e:	b1 09       	sbc	r27, r1
     aa0:	00 97       	sbiw	r24, 0x00	; 0
     aa2:	a1 05       	cpc	r26, r1
     aa4:	b1 05       	cpc	r27, r1
     aa6:	89 f4       	brne	.+34     	; 0xaca <__stack+0x66b>
     aa8:	e6 14       	cp	r14, r6
     aaa:	f7 04       	cpc	r15, r7
     aac:	08 05       	cpc	r16, r8
     aae:	19 05       	cpc	r17, r9
     ab0:	08 f4       	brcc	.+2      	; 0xab4 <__stack+0x655>
     ab2:	e8 c1       	rjmp	.+976    	; 0xe84 <__stack+0xa25>
     ab4:	6d a4       	ldd	r6, Y+45	; 0x2d
     ab6:	7e a4       	ldd	r7, Y+46	; 0x2e
     ab8:	8f a4       	ldd	r8, Y+47	; 0x2f
     aba:	98 a8       	ldd	r9, Y+48	; 0x30
     abc:	62 14       	cp	r6, r2
     abe:	73 04       	cpc	r7, r3
     ac0:	84 04       	cpc	r8, r4
     ac2:	95 04       	cpc	r9, r5
     ac4:	08 f0       	brcs	.+2      	; 0xac8 <__stack+0x669>
     ac6:	de c1       	rjmp	.+956    	; 0xe84 <__stack+0xa25>
     ac8:	e9 c1       	rjmp	.+978    	; 0xe9c <__stack+0xa3d>
     aca:	6e 96       	adiw	r28, 0x1e	; 30
     acc:	8f af       	std	Y+63, r24	; 0x3f
     ace:	6e 97       	sbiw	r28, 0x1e	; 30
     ad0:	08 2e       	mov	r0, r24
     ad2:	04 c0       	rjmp	.+8      	; 0xadc <__stack+0x67d>
     ad4:	ee 0c       	add	r14, r14
     ad6:	ff 1c       	adc	r15, r15
     ad8:	00 1f       	adc	r16, r16
     ada:	11 1f       	adc	r17, r17
     adc:	0a 94       	dec	r0
     ade:	d2 f7       	brpl	.-12     	; 0xad4 <__stack+0x675>
     ae0:	6a 2d       	mov	r22, r10
     ae2:	68 1b       	sub	r22, r24
     ae4:	d2 01       	movw	r26, r4
     ae6:	c1 01       	movw	r24, r2
     ae8:	06 2e       	mov	r0, r22
     aea:	04 c0       	rjmp	.+8      	; 0xaf4 <__stack+0x695>
     aec:	b6 95       	lsr	r27
     aee:	a7 95       	ror	r26
     af0:	97 95       	ror	r25
     af2:	87 95       	ror	r24
     af4:	0a 94       	dec	r0
     af6:	d2 f7       	brpl	.-12     	; 0xaec <__stack+0x68d>
     af8:	5c 01       	movw	r10, r24
     afa:	6d 01       	movw	r12, r26
     afc:	ae 28       	or	r10, r14
     afe:	bf 28       	or	r11, r15
     b00:	c0 2a       	or	r12, r16
     b02:	d1 2a       	or	r13, r17
     b04:	ad a2       	std	Y+37, r10	; 0x25
     b06:	be a2       	std	Y+38, r11	; 0x26
     b08:	cf a2       	std	Y+39, r12	; 0x27
     b0a:	d8 a6       	std	Y+40, r13	; 0x28
     b0c:	72 01       	movw	r14, r4
     b0e:	61 01       	movw	r12, r2
     b10:	6e 96       	adiw	r28, 0x1e	; 30
     b12:	0f ac       	ldd	r0, Y+63	; 0x3f
     b14:	6e 97       	sbiw	r28, 0x1e	; 30
     b16:	04 c0       	rjmp	.+8      	; 0xb20 <__stack+0x6c1>
     b18:	cc 0c       	add	r12, r12
     b1a:	dd 1c       	adc	r13, r13
     b1c:	ee 1c       	adc	r14, r14
     b1e:	ff 1c       	adc	r15, r15
     b20:	0a 94       	dec	r0
     b22:	d2 f7       	brpl	.-12     	; 0xb18 <__stack+0x6b9>
     b24:	c9 a2       	std	Y+33, r12	; 0x21
     b26:	da a2       	std	Y+34, r13	; 0x22
     b28:	eb a2       	std	Y+35, r14	; 0x23
     b2a:	fc a2       	std	Y+36, r15	; 0x24
     b2c:	64 01       	movw	r12, r8
     b2e:	53 01       	movw	r10, r6
     b30:	06 2e       	mov	r0, r22
     b32:	04 c0       	rjmp	.+8      	; 0xb3c <__stack+0x6dd>
     b34:	d6 94       	lsr	r13
     b36:	c7 94       	ror	r12
     b38:	b7 94       	ror	r11
     b3a:	a7 94       	ror	r10
     b3c:	0a 94       	dec	r0
     b3e:	d2 f7       	brpl	.-12     	; 0xb34 <__stack+0x6d5>
     b40:	d4 01       	movw	r26, r8
     b42:	c3 01       	movw	r24, r6
     b44:	6e 96       	adiw	r28, 0x1e	; 30
     b46:	0f ac       	ldd	r0, Y+63	; 0x3f
     b48:	6e 97       	sbiw	r28, 0x1e	; 30
     b4a:	04 c0       	rjmp	.+8      	; 0xb54 <__stack+0x6f5>
     b4c:	88 0f       	add	r24, r24
     b4e:	99 1f       	adc	r25, r25
     b50:	aa 1f       	adc	r26, r26
     b52:	bb 1f       	adc	r27, r27
     b54:	0a 94       	dec	r0
     b56:	d2 f7       	brpl	.-12     	; 0xb4c <__stack+0x6ed>
     b58:	ed a4       	ldd	r14, Y+45	; 0x2d
     b5a:	fe a4       	ldd	r15, Y+46	; 0x2e
     b5c:	0f a5       	ldd	r16, Y+47	; 0x2f
     b5e:	18 a9       	ldd	r17, Y+48	; 0x30
     b60:	04 c0       	rjmp	.+8      	; 0xb6a <__stack+0x70b>
     b62:	16 95       	lsr	r17
     b64:	07 95       	ror	r16
     b66:	f7 94       	ror	r15
     b68:	e7 94       	ror	r14
     b6a:	6a 95       	dec	r22
     b6c:	d2 f7       	brpl	.-12     	; 0xb62 <__stack+0x703>
     b6e:	37 01       	movw	r6, r14
     b70:	48 01       	movw	r8, r16
     b72:	68 2a       	or	r6, r24
     b74:	79 2a       	or	r7, r25
     b76:	8a 2a       	or	r8, r26
     b78:	9b 2a       	or	r9, r27
     b7a:	6d 8e       	std	Y+29, r6	; 0x1d
     b7c:	7e 8e       	std	Y+30, r7	; 0x1e
     b7e:	8f 8e       	std	Y+31, r8	; 0x1f
     b80:	98 a2       	std	Y+32, r9	; 0x20
     b82:	ed a0       	ldd	r14, Y+37	; 0x25
     b84:	fe a0       	ldd	r15, Y+38	; 0x26
     b86:	0f a1       	ldd	r16, Y+39	; 0x27
     b88:	18 a5       	ldd	r17, Y+40	; 0x28
     b8a:	38 01       	movw	r6, r16
     b8c:	88 24       	eor	r8, r8
     b8e:	99 24       	eor	r9, r9
     b90:	98 01       	movw	r18, r16
     b92:	87 01       	movw	r16, r14
     b94:	20 70       	andi	r18, 0x00	; 0
     b96:	30 70       	andi	r19, 0x00	; 0
     b98:	65 96       	adiw	r28, 0x15	; 21
     b9a:	0c af       	std	Y+60, r16	; 0x3c
     b9c:	1d af       	std	Y+61, r17	; 0x3d
     b9e:	2e af       	std	Y+62, r18	; 0x3e
     ba0:	3f af       	std	Y+63, r19	; 0x3f
     ba2:	65 97       	sbiw	r28, 0x15	; 21
     ba4:	c6 01       	movw	r24, r12
     ba6:	b5 01       	movw	r22, r10
     ba8:	a4 01       	movw	r20, r8
     baa:	93 01       	movw	r18, r6
     bac:	2f d6       	rcall	.+3166   	; 0x180c <__udivmodsi4>
     bae:	7b 01       	movw	r14, r22
     bb0:	8c 01       	movw	r16, r24
     bb2:	c6 01       	movw	r24, r12
     bb4:	b5 01       	movw	r22, r10
     bb6:	a4 01       	movw	r20, r8
     bb8:	93 01       	movw	r18, r6
     bba:	28 d6       	rcall	.+3152   	; 0x180c <__udivmodsi4>
     bbc:	c9 01       	movw	r24, r18
     bbe:	da 01       	movw	r26, r20
     bc0:	1c 01       	movw	r2, r24
     bc2:	2d 01       	movw	r4, r26
     bc4:	c2 01       	movw	r24, r4
     bc6:	b1 01       	movw	r22, r2
     bc8:	65 96       	adiw	r28, 0x15	; 21
     bca:	2c ad       	ldd	r18, Y+60	; 0x3c
     bcc:	3d ad       	ldd	r19, Y+61	; 0x3d
     bce:	4e ad       	ldd	r20, Y+62	; 0x3e
     bd0:	5f ad       	ldd	r21, Y+63	; 0x3f
     bd2:	65 97       	sbiw	r28, 0x15	; 21
     bd4:	fc d5       	rcall	.+3064   	; 0x17ce <__mulsi3>
     bd6:	9b 01       	movw	r18, r22
     bd8:	ac 01       	movw	r20, r24
     bda:	87 01       	movw	r16, r14
     bdc:	ff 24       	eor	r15, r15
     bde:	ee 24       	eor	r14, r14
     be0:	ad 8c       	ldd	r10, Y+29	; 0x1d
     be2:	be 8c       	ldd	r11, Y+30	; 0x1e
     be4:	cf 8c       	ldd	r12, Y+31	; 0x1f
     be6:	d8 a0       	ldd	r13, Y+32	; 0x20
     be8:	c6 01       	movw	r24, r12
     bea:	aa 27       	eor	r26, r26
     bec:	bb 27       	eor	r27, r27
     bee:	57 01       	movw	r10, r14
     bf0:	68 01       	movw	r12, r16
     bf2:	a8 2a       	or	r10, r24
     bf4:	b9 2a       	or	r11, r25
     bf6:	ca 2a       	or	r12, r26
     bf8:	db 2a       	or	r13, r27
     bfa:	a2 16       	cp	r10, r18
     bfc:	b3 06       	cpc	r11, r19
     bfe:	c4 06       	cpc	r12, r20
     c00:	d5 06       	cpc	r13, r21
     c02:	00 f5       	brcc	.+64     	; 0xc44 <__stack+0x7e5>
     c04:	08 94       	sec
     c06:	21 08       	sbc	r2, r1
     c08:	31 08       	sbc	r3, r1
     c0a:	41 08       	sbc	r4, r1
     c0c:	51 08       	sbc	r5, r1
     c0e:	ed a0       	ldd	r14, Y+37	; 0x25
     c10:	fe a0       	ldd	r15, Y+38	; 0x26
     c12:	0f a1       	ldd	r16, Y+39	; 0x27
     c14:	18 a5       	ldd	r17, Y+40	; 0x28
     c16:	ae 0c       	add	r10, r14
     c18:	bf 1c       	adc	r11, r15
     c1a:	c0 1e       	adc	r12, r16
     c1c:	d1 1e       	adc	r13, r17
     c1e:	ae 14       	cp	r10, r14
     c20:	bf 04       	cpc	r11, r15
     c22:	c0 06       	cpc	r12, r16
     c24:	d1 06       	cpc	r13, r17
     c26:	70 f0       	brcs	.+28     	; 0xc44 <__stack+0x7e5>
     c28:	a2 16       	cp	r10, r18
     c2a:	b3 06       	cpc	r11, r19
     c2c:	c4 06       	cpc	r12, r20
     c2e:	d5 06       	cpc	r13, r21
     c30:	48 f4       	brcc	.+18     	; 0xc44 <__stack+0x7e5>
     c32:	08 94       	sec
     c34:	21 08       	sbc	r2, r1
     c36:	31 08       	sbc	r3, r1
     c38:	41 08       	sbc	r4, r1
     c3a:	51 08       	sbc	r5, r1
     c3c:	ae 0c       	add	r10, r14
     c3e:	bf 1c       	adc	r11, r15
     c40:	c0 1e       	adc	r12, r16
     c42:	d1 1e       	adc	r13, r17
     c44:	a2 1a       	sub	r10, r18
     c46:	b3 0a       	sbc	r11, r19
     c48:	c4 0a       	sbc	r12, r20
     c4a:	d5 0a       	sbc	r13, r21
     c4c:	c6 01       	movw	r24, r12
     c4e:	b5 01       	movw	r22, r10
     c50:	a4 01       	movw	r20, r8
     c52:	93 01       	movw	r18, r6
     c54:	db d5       	rcall	.+2998   	; 0x180c <__udivmodsi4>
     c56:	7b 01       	movw	r14, r22
     c58:	8c 01       	movw	r16, r24
     c5a:	c6 01       	movw	r24, r12
     c5c:	b5 01       	movw	r22, r10
     c5e:	a4 01       	movw	r20, r8
     c60:	93 01       	movw	r18, r6
     c62:	d4 d5       	rcall	.+2984   	; 0x180c <__udivmodsi4>
     c64:	c9 01       	movw	r24, r18
     c66:	da 01       	movw	r26, r20
     c68:	3c 01       	movw	r6, r24
     c6a:	4d 01       	movw	r8, r26
     c6c:	c4 01       	movw	r24, r8
     c6e:	b3 01       	movw	r22, r6
     c70:	65 96       	adiw	r28, 0x15	; 21
     c72:	2c ad       	ldd	r18, Y+60	; 0x3c
     c74:	3d ad       	ldd	r19, Y+61	; 0x3d
     c76:	4e ad       	ldd	r20, Y+62	; 0x3e
     c78:	5f ad       	ldd	r21, Y+63	; 0x3f
     c7a:	65 97       	sbiw	r28, 0x15	; 21
     c7c:	a8 d5       	rcall	.+2896   	; 0x17ce <__mulsi3>
     c7e:	9b 01       	movw	r18, r22
     c80:	ac 01       	movw	r20, r24
     c82:	87 01       	movw	r16, r14
     c84:	ff 24       	eor	r15, r15
     c86:	ee 24       	eor	r14, r14
     c88:	8d 8d       	ldd	r24, Y+29	; 0x1d
     c8a:	9e 8d       	ldd	r25, Y+30	; 0x1e
     c8c:	af 8d       	ldd	r26, Y+31	; 0x1f
     c8e:	b8 a1       	ldd	r27, Y+32	; 0x20
     c90:	a0 70       	andi	r26, 0x00	; 0
     c92:	b0 70       	andi	r27, 0x00	; 0
     c94:	57 01       	movw	r10, r14
     c96:	68 01       	movw	r12, r16
     c98:	a8 2a       	or	r10, r24
     c9a:	b9 2a       	or	r11, r25
     c9c:	ca 2a       	or	r12, r26
     c9e:	db 2a       	or	r13, r27
     ca0:	a2 16       	cp	r10, r18
     ca2:	b3 06       	cpc	r11, r19
     ca4:	c4 06       	cpc	r12, r20
     ca6:	d5 06       	cpc	r13, r21
     ca8:	00 f5       	brcc	.+64     	; 0xcea <__stack+0x88b>
     caa:	08 94       	sec
     cac:	61 08       	sbc	r6, r1
     cae:	71 08       	sbc	r7, r1
     cb0:	81 08       	sbc	r8, r1
     cb2:	91 08       	sbc	r9, r1
     cb4:	6d a1       	ldd	r22, Y+37	; 0x25
     cb6:	7e a1       	ldd	r23, Y+38	; 0x26
     cb8:	8f a1       	ldd	r24, Y+39	; 0x27
     cba:	98 a5       	ldd	r25, Y+40	; 0x28
     cbc:	a6 0e       	add	r10, r22
     cbe:	b7 1e       	adc	r11, r23
     cc0:	c8 1e       	adc	r12, r24
     cc2:	d9 1e       	adc	r13, r25
     cc4:	a6 16       	cp	r10, r22
     cc6:	b7 06       	cpc	r11, r23
     cc8:	c8 06       	cpc	r12, r24
     cca:	d9 06       	cpc	r13, r25
     ccc:	70 f0       	brcs	.+28     	; 0xcea <__stack+0x88b>
     cce:	a2 16       	cp	r10, r18
     cd0:	b3 06       	cpc	r11, r19
     cd2:	c4 06       	cpc	r12, r20
     cd4:	d5 06       	cpc	r13, r21
     cd6:	48 f4       	brcc	.+18     	; 0xcea <__stack+0x88b>
     cd8:	08 94       	sec
     cda:	61 08       	sbc	r6, r1
     cdc:	71 08       	sbc	r7, r1
     cde:	81 08       	sbc	r8, r1
     ce0:	91 08       	sbc	r9, r1
     ce2:	a6 0e       	add	r10, r22
     ce4:	b7 1e       	adc	r11, r23
     ce6:	c8 1e       	adc	r12, r24
     ce8:	d9 1e       	adc	r13, r25
     cea:	d6 01       	movw	r26, r12
     cec:	c5 01       	movw	r24, r10
     cee:	82 1b       	sub	r24, r18
     cf0:	93 0b       	sbc	r25, r19
     cf2:	a4 0b       	sbc	r26, r20
     cf4:	b5 0b       	sbc	r27, r21
     cf6:	89 8f       	std	Y+25, r24	; 0x19
     cf8:	9a 8f       	std	Y+26, r25	; 0x1a
     cfa:	ab 8f       	std	Y+27, r26	; 0x1b
     cfc:	bc 8f       	std	Y+28, r27	; 0x1c
     cfe:	d1 01       	movw	r26, r2
     d00:	99 27       	eor	r25, r25
     d02:	88 27       	eor	r24, r24
     d04:	64 01       	movw	r12, r8
     d06:	53 01       	movw	r10, r6
     d08:	a8 2a       	or	r10, r24
     d0a:	b9 2a       	or	r11, r25
     d0c:	ca 2a       	or	r12, r26
     d0e:	db 2a       	or	r13, r27
     d10:	a9 aa       	std	Y+49, r10	; 0x31
     d12:	ba aa       	std	Y+50, r11	; 0x32
     d14:	cb aa       	std	Y+51, r12	; 0x33
     d16:	dc aa       	std	Y+52, r13	; 0x34
     d18:	86 01       	movw	r16, r12
     d1a:	75 01       	movw	r14, r10
     d1c:	2f ef       	ldi	r18, 0xFF	; 255
     d1e:	3f ef       	ldi	r19, 0xFF	; 255
     d20:	40 e0       	ldi	r20, 0x00	; 0
     d22:	50 e0       	ldi	r21, 0x00	; 0
     d24:	e2 22       	and	r14, r18
     d26:	f3 22       	and	r15, r19
     d28:	04 23       	and	r16, r20
     d2a:	15 23       	and	r17, r21
     d2c:	a6 01       	movw	r20, r12
     d2e:	66 27       	eor	r22, r22
     d30:	77 27       	eor	r23, r23
     d32:	6d 96       	adiw	r28, 0x1d	; 29
     d34:	4c af       	std	Y+60, r20	; 0x3c
     d36:	5d af       	std	Y+61, r21	; 0x3d
     d38:	6e af       	std	Y+62, r22	; 0x3e
     d3a:	7f af       	std	Y+63, r23	; 0x3f
     d3c:	6d 97       	sbiw	r28, 0x1d	; 29
     d3e:	a9 a0       	ldd	r10, Y+33	; 0x21
     d40:	ba a0       	ldd	r11, Y+34	; 0x22
     d42:	cb a0       	ldd	r12, Y+35	; 0x23
     d44:	dc a0       	ldd	r13, Y+36	; 0x24
     d46:	6f ef       	ldi	r22, 0xFF	; 255
     d48:	7f ef       	ldi	r23, 0xFF	; 255
     d4a:	80 e0       	ldi	r24, 0x00	; 0
     d4c:	90 e0       	ldi	r25, 0x00	; 0
     d4e:	a6 22       	and	r10, r22
     d50:	b7 22       	and	r11, r23
     d52:	c8 22       	and	r12, r24
     d54:	d9 22       	and	r13, r25
     d56:	89 a1       	ldd	r24, Y+33	; 0x21
     d58:	9a a1       	ldd	r25, Y+34	; 0x22
     d5a:	ab a1       	ldd	r26, Y+35	; 0x23
     d5c:	bc a1       	ldd	r27, Y+36	; 0x24
     d5e:	1d 01       	movw	r2, r26
     d60:	44 24       	eor	r4, r4
     d62:	55 24       	eor	r5, r5
     d64:	c8 01       	movw	r24, r16
     d66:	b7 01       	movw	r22, r14
     d68:	a6 01       	movw	r20, r12
     d6a:	95 01       	movw	r18, r10
     d6c:	30 d5       	rcall	.+2656   	; 0x17ce <__mulsi3>
     d6e:	69 96       	adiw	r28, 0x19	; 25
     d70:	6c af       	std	Y+60, r22	; 0x3c
     d72:	7d af       	std	Y+61, r23	; 0x3d
     d74:	8e af       	std	Y+62, r24	; 0x3e
     d76:	9f af       	std	Y+63, r25	; 0x3f
     d78:	69 97       	sbiw	r28, 0x19	; 25
     d7a:	c8 01       	movw	r24, r16
     d7c:	b7 01       	movw	r22, r14
     d7e:	a2 01       	movw	r20, r4
     d80:	91 01       	movw	r18, r2
     d82:	25 d5       	rcall	.+2634   	; 0x17ce <__mulsi3>
     d84:	3b 01       	movw	r6, r22
     d86:	4c 01       	movw	r8, r24
     d88:	6d 96       	adiw	r28, 0x1d	; 29
     d8a:	6c ad       	ldd	r22, Y+60	; 0x3c
     d8c:	7d ad       	ldd	r23, Y+61	; 0x3d
     d8e:	8e ad       	ldd	r24, Y+62	; 0x3e
     d90:	9f ad       	ldd	r25, Y+63	; 0x3f
     d92:	6d 97       	sbiw	r28, 0x1d	; 29
     d94:	a6 01       	movw	r20, r12
     d96:	95 01       	movw	r18, r10
     d98:	1a d5       	rcall	.+2612   	; 0x17ce <__mulsi3>
     d9a:	7b 01       	movw	r14, r22
     d9c:	8c 01       	movw	r16, r24
     d9e:	6d 96       	adiw	r28, 0x1d	; 29
     da0:	6c ad       	ldd	r22, Y+60	; 0x3c
     da2:	7d ad       	ldd	r23, Y+61	; 0x3d
     da4:	8e ad       	ldd	r24, Y+62	; 0x3e
     da6:	9f ad       	ldd	r25, Y+63	; 0x3f
     da8:	6d 97       	sbiw	r28, 0x1d	; 29
     daa:	a2 01       	movw	r20, r4
     dac:	91 01       	movw	r18, r2
     dae:	0f d5       	rcall	.+2590   	; 0x17ce <__mulsi3>
     db0:	5b 01       	movw	r10, r22
     db2:	6c 01       	movw	r12, r24
     db4:	a8 01       	movw	r20, r16
     db6:	97 01       	movw	r18, r14
     db8:	26 0d       	add	r18, r6
     dba:	37 1d       	adc	r19, r7
     dbc:	48 1d       	adc	r20, r8
     dbe:	59 1d       	adc	r21, r9
     dc0:	69 96       	adiw	r28, 0x19	; 25
     dc2:	6c ac       	ldd	r6, Y+60	; 0x3c
     dc4:	7d ac       	ldd	r7, Y+61	; 0x3d
     dc6:	8e ac       	ldd	r8, Y+62	; 0x3e
     dc8:	9f ac       	ldd	r9, Y+63	; 0x3f
     dca:	69 97       	sbiw	r28, 0x19	; 25
     dcc:	c4 01       	movw	r24, r8
     dce:	aa 27       	eor	r26, r26
     dd0:	bb 27       	eor	r27, r27
     dd2:	28 0f       	add	r18, r24
     dd4:	39 1f       	adc	r19, r25
     dd6:	4a 1f       	adc	r20, r26
     dd8:	5b 1f       	adc	r21, r27
     dda:	2e 15       	cp	r18, r14
     ddc:	3f 05       	cpc	r19, r15
     dde:	40 07       	cpc	r20, r16
     de0:	51 07       	cpc	r21, r17
     de2:	48 f4       	brcc	.+18     	; 0xdf6 <__stack+0x997>
     de4:	e1 2c       	mov	r14, r1
     de6:	f1 2c       	mov	r15, r1
     de8:	61 e0       	ldi	r22, 0x01	; 1
     dea:	06 2f       	mov	r16, r22
     dec:	11 2d       	mov	r17, r1
     dee:	ae 0c       	add	r10, r14
     df0:	bf 1c       	adc	r11, r15
     df2:	c0 1e       	adc	r12, r16
     df4:	d1 1e       	adc	r13, r17
     df6:	ca 01       	movw	r24, r20
     df8:	aa 27       	eor	r26, r26
     dfa:	bb 27       	eor	r27, r27
     dfc:	bc 01       	movw	r22, r24
     dfe:	cd 01       	movw	r24, r26
     e00:	6a 0d       	add	r22, r10
     e02:	7b 1d       	adc	r23, r11
     e04:	8c 1d       	adc	r24, r12
     e06:	9d 1d       	adc	r25, r13
     e08:	69 8c       	ldd	r6, Y+25	; 0x19
     e0a:	7a 8c       	ldd	r7, Y+26	; 0x1a
     e0c:	8b 8c       	ldd	r8, Y+27	; 0x1b
     e0e:	9c 8c       	ldd	r9, Y+28	; 0x1c
     e10:	66 16       	cp	r6, r22
     e12:	77 06       	cpc	r7, r23
     e14:	88 06       	cpc	r8, r24
     e16:	99 06       	cpc	r9, r25
     e18:	40 f1       	brcs	.+80     	; 0xe6a <__stack+0xa0b>
     e1a:	66 15       	cp	r22, r6
     e1c:	77 05       	cpc	r23, r7
     e1e:	88 05       	cpc	r24, r8
     e20:	99 05       	cpc	r25, r9
     e22:	09 f0       	breq	.+2      	; 0xe26 <__stack+0x9c7>
     e24:	43 c0       	rjmp	.+134    	; 0xeac <__stack+0xa4d>
     e26:	d9 01       	movw	r26, r18
     e28:	99 27       	eor	r25, r25
     e2a:	88 27       	eor	r24, r24
     e2c:	69 96       	adiw	r28, 0x19	; 25
     e2e:	2c ad       	ldd	r18, Y+60	; 0x3c
     e30:	3d ad       	ldd	r19, Y+61	; 0x3d
     e32:	4e ad       	ldd	r20, Y+62	; 0x3e
     e34:	5f ad       	ldd	r21, Y+63	; 0x3f
     e36:	69 97       	sbiw	r28, 0x19	; 25
     e38:	40 70       	andi	r20, 0x00	; 0
     e3a:	50 70       	andi	r21, 0x00	; 0
     e3c:	82 0f       	add	r24, r18
     e3e:	93 1f       	adc	r25, r19
     e40:	a4 1f       	adc	r26, r20
     e42:	b5 1f       	adc	r27, r21
     e44:	2d a5       	ldd	r18, Y+45	; 0x2d
     e46:	3e a5       	ldd	r19, Y+46	; 0x2e
     e48:	4f a5       	ldd	r20, Y+47	; 0x2f
     e4a:	58 a9       	ldd	r21, Y+48	; 0x30
     e4c:	6e 96       	adiw	r28, 0x1e	; 30
     e4e:	0f ac       	ldd	r0, Y+63	; 0x3f
     e50:	6e 97       	sbiw	r28, 0x1e	; 30
     e52:	04 c0       	rjmp	.+8      	; 0xe5c <__stack+0x9fd>
     e54:	22 0f       	add	r18, r18
     e56:	33 1f       	adc	r19, r19
     e58:	44 1f       	adc	r20, r20
     e5a:	55 1f       	adc	r21, r21
     e5c:	0a 94       	dec	r0
     e5e:	d2 f7       	brpl	.-12     	; 0xe54 <__stack+0x9f5>
     e60:	28 17       	cp	r18, r24
     e62:	39 07       	cpc	r19, r25
     e64:	4a 07       	cpc	r20, r26
     e66:	5b 07       	cpc	r21, r27
     e68:	08 f5       	brcc	.+66     	; 0xeac <__stack+0xa4d>
     e6a:	09 a9       	ldd	r16, Y+49	; 0x31
     e6c:	1a a9       	ldd	r17, Y+50	; 0x32
     e6e:	2b a9       	ldd	r18, Y+51	; 0x33
     e70:	3c a9       	ldd	r19, Y+52	; 0x34
     e72:	01 50       	subi	r16, 0x01	; 1
     e74:	10 40       	sbci	r17, 0x00	; 0
     e76:	20 40       	sbci	r18, 0x00	; 0
     e78:	30 40       	sbci	r19, 0x00	; 0
     e7a:	09 ab       	std	Y+49, r16	; 0x31
     e7c:	1a ab       	std	Y+50, r17	; 0x32
     e7e:	2b ab       	std	Y+51, r18	; 0x33
     e80:	3c ab       	std	Y+52, r19	; 0x34
     e82:	14 c0       	rjmp	.+40     	; 0xeac <__stack+0xa4d>
     e84:	66 24       	eor	r6, r6
     e86:	77 24       	eor	r7, r7
     e88:	43 01       	movw	r8, r6
     e8a:	21 e0       	ldi	r18, 0x01	; 1
     e8c:	30 e0       	ldi	r19, 0x00	; 0
     e8e:	40 e0       	ldi	r20, 0x00	; 0
     e90:	50 e0       	ldi	r21, 0x00	; 0
     e92:	29 ab       	std	Y+49, r18	; 0x31
     e94:	3a ab       	std	Y+50, r19	; 0x32
     e96:	4b ab       	std	Y+51, r20	; 0x33
     e98:	5c ab       	std	Y+52, r21	; 0x34
     e9a:	0b c0       	rjmp	.+22     	; 0xeb2 <__stack+0xa53>
     e9c:	66 24       	eor	r6, r6
     e9e:	77 24       	eor	r7, r7
     ea0:	43 01       	movw	r8, r6
     ea2:	19 aa       	std	Y+49, r1	; 0x31
     ea4:	1a aa       	std	Y+50, r1	; 0x32
     ea6:	1b aa       	std	Y+51, r1	; 0x33
     ea8:	1c aa       	std	Y+52, r1	; 0x34
     eaa:	03 c0       	rjmp	.+6      	; 0xeb2 <__stack+0xa53>
     eac:	66 24       	eor	r6, r6
     eae:	77 24       	eor	r7, r7
     eb0:	43 01       	movw	r8, r6
     eb2:	fe 01       	movw	r30, r28
     eb4:	71 96       	adiw	r30, 0x11	; 17
     eb6:	88 e0       	ldi	r24, 0x08	; 8
     eb8:	df 01       	movw	r26, r30
     eba:	1d 92       	st	X+, r1
     ebc:	8a 95       	dec	r24
     ebe:	e9 f7       	brne	.-6      	; 0xeba <__stack+0xa5b>
     ec0:	a9 a8       	ldd	r10, Y+49	; 0x31
     ec2:	ba a8       	ldd	r11, Y+50	; 0x32
     ec4:	cb a8       	ldd	r12, Y+51	; 0x33
     ec6:	dc a8       	ldd	r13, Y+52	; 0x34
     ec8:	a9 8a       	std	Y+17, r10	; 0x11
     eca:	ba 8a       	std	Y+18, r11	; 0x12
     ecc:	cb 8a       	std	Y+19, r12	; 0x13
     ece:	dc 8a       	std	Y+20, r13	; 0x14
     ed0:	6d 8a       	std	Y+21, r6	; 0x15
     ed2:	7e 8a       	std	Y+22, r7	; 0x16
     ed4:	8f 8a       	std	Y+23, r8	; 0x17
     ed6:	98 8e       	std	Y+24, r9	; 0x18
     ed8:	29 a9       	ldd	r18, Y+49	; 0x31
     eda:	3a 89       	ldd	r19, Y+18	; 0x12
     edc:	4b 89       	ldd	r20, Y+19	; 0x13
     ede:	5c 89       	ldd	r21, Y+20	; 0x14
     ee0:	66 2d       	mov	r22, r6
     ee2:	7e 89       	ldd	r23, Y+22	; 0x16
     ee4:	8f 89       	ldd	r24, Y+23	; 0x17
     ee6:	98 8d       	ldd	r25, Y+24	; 0x18
     ee8:	c2 5a       	subi	r28, 0xA2	; 162
     eea:	df 4f       	sbci	r29, 0xFF	; 255
     eec:	e2 e1       	ldi	r30, 0x12	; 18
     eee:	cc c4       	rjmp	.+2456   	; 0x1888 <__epilogue_restores__>

00000ef0 <lcd_write>:
     ef0:	28 2f       	mov	r18, r24
     ef2:	66 23       	and	r22, r22
     ef4:	11 f0       	breq	.+4      	; 0xefa <lcd_write+0xa>
     ef6:	c4 9a       	sbi	0x18, 4	; 24
     ef8:	01 c0       	rjmp	.+2      	; 0xefc <lcd_write+0xc>
     efa:	c4 98       	cbi	0x18, 4	; 24
     efc:	c5 98       	cbi	0x18, 5	; 24
     efe:	87 b3       	in	r24, 0x17	; 23
     f00:	8f 60       	ori	r24, 0x0F	; 15
     f02:	87 bb       	out	0x17, r24	; 23
     f04:	98 b3       	in	r25, 0x18	; 24
     f06:	90 7f       	andi	r25, 0xF0	; 240
     f08:	82 2f       	mov	r24, r18
     f0a:	82 95       	swap	r24
     f0c:	8f 70       	andi	r24, 0x0F	; 15
     f0e:	89 2b       	or	r24, r25
     f10:	88 bb       	out	0x18, r24	; 24
     f12:	c6 9a       	sbi	0x18, 6	; 24
     f14:	00 c0       	rjmp	.+0      	; 0xf16 <lcd_write+0x26>
     f16:	c6 98       	cbi	0x18, 6	; 24
     f18:	2f 70       	andi	r18, 0x0F	; 15
     f1a:	29 2b       	or	r18, r25
     f1c:	28 bb       	out	0x18, r18	; 24
     f1e:	c6 9a       	sbi	0x18, 6	; 24
     f20:	00 c0       	rjmp	.+0      	; 0xf22 <lcd_write+0x32>
     f22:	c6 98       	cbi	0x18, 6	; 24
     f24:	9f 60       	ori	r25, 0x0F	; 15
     f26:	98 bb       	out	0x18, r25	; 24
     f28:	08 95       	ret

00000f2a <lcd_read>:
     f2a:	88 23       	and	r24, r24
     f2c:	11 f0       	breq	.+4      	; 0xf32 <lcd_read+0x8>
     f2e:	c4 9a       	sbi	0x18, 4	; 24
     f30:	01 c0       	rjmp	.+2      	; 0xf34 <lcd_read+0xa>
     f32:	c4 98       	cbi	0x18, 4	; 24
     f34:	c5 9a       	sbi	0x18, 5	; 24
     f36:	87 b3       	in	r24, 0x17	; 23
     f38:	80 7f       	andi	r24, 0xF0	; 240
     f3a:	87 bb       	out	0x17, r24	; 23
     f3c:	c6 9a       	sbi	0x18, 6	; 24
     f3e:	00 c0       	rjmp	.+0      	; 0xf40 <lcd_read+0x16>
     f40:	96 b3       	in	r25, 0x16	; 22
     f42:	c6 98       	cbi	0x18, 6	; 24
     f44:	00 c0       	rjmp	.+0      	; 0xf46 <lcd_read+0x1c>
     f46:	c6 9a       	sbi	0x18, 6	; 24
     f48:	00 c0       	rjmp	.+0      	; 0xf4a <lcd_read+0x20>
     f4a:	86 b3       	in	r24, 0x16	; 22
     f4c:	8f 70       	andi	r24, 0x0F	; 15
     f4e:	92 95       	swap	r25
     f50:	90 7f       	andi	r25, 0xF0	; 240
     f52:	c6 98       	cbi	0x18, 6	; 24
     f54:	89 2b       	or	r24, r25
     f56:	08 95       	ret

00000f58 <lcd_waitbusy>:
     f58:	80 e0       	ldi	r24, 0x00	; 0
     f5a:	e7 df       	rcall	.-50     	; 0xf2a <lcd_read>
     f5c:	87 fd       	sbrc	r24, 7
     f5e:	fc cf       	rjmp	.-8      	; 0xf58 <lcd_waitbusy>
     f60:	84 e0       	ldi	r24, 0x04	; 4
     f62:	90 e0       	ldi	r25, 0x00	; 0
     f64:	01 97       	sbiw	r24, 0x01	; 1
     f66:	f1 f7       	brne	.-4      	; 0xf64 <lcd_waitbusy+0xc>
     f68:	80 e0       	ldi	r24, 0x00	; 0
     f6a:	df df       	rcall	.-66     	; 0xf2a <lcd_read>
     f6c:	08 95       	ret

00000f6e <lcd_command>:
     f6e:	1f 93       	push	r17
     f70:	18 2f       	mov	r17, r24
     f72:	f2 df       	rcall	.-28     	; 0xf58 <lcd_waitbusy>
     f74:	81 2f       	mov	r24, r17
     f76:	60 e0       	ldi	r22, 0x00	; 0
     f78:	bb df       	rcall	.-138    	; 0xef0 <lcd_write>
     f7a:	1f 91       	pop	r17
     f7c:	08 95       	ret

00000f7e <lcd_data>:
     f7e:	1f 93       	push	r17
     f80:	18 2f       	mov	r17, r24
     f82:	ea df       	rcall	.-44     	; 0xf58 <lcd_waitbusy>
     f84:	81 2f       	mov	r24, r17
     f86:	61 e0       	ldi	r22, 0x01	; 1
     f88:	b3 df       	rcall	.-154    	; 0xef0 <lcd_write>
     f8a:	1f 91       	pop	r17
     f8c:	08 95       	ret

00000f8e <lcd_gotoxy>:
     f8e:	66 23       	and	r22, r22
     f90:	11 f4       	brne	.+4      	; 0xf96 <lcd_gotoxy+0x8>
     f92:	80 58       	subi	r24, 0x80	; 128
     f94:	01 c0       	rjmp	.+2      	; 0xf98 <lcd_gotoxy+0xa>
     f96:	80 54       	subi	r24, 0x40	; 64
     f98:	ea df       	rcall	.-44     	; 0xf6e <lcd_command>
     f9a:	08 95       	ret

00000f9c <lcd_getxy>:
     f9c:	dd df       	rcall	.-70     	; 0xf58 <lcd_waitbusy>
     f9e:	90 e0       	ldi	r25, 0x00	; 0
     fa0:	08 95       	ret

00000fa2 <lcd_clrscr>:
     fa2:	81 e0       	ldi	r24, 0x01	; 1
     fa4:	e4 df       	rcall	.-56     	; 0xf6e <lcd_command>
     fa6:	08 95       	ret

00000fa8 <lcd_home>:
     fa8:	82 e0       	ldi	r24, 0x02	; 2
     faa:	e1 df       	rcall	.-62     	; 0xf6e <lcd_command>
     fac:	08 95       	ret

00000fae <lcd_putc>:
     fae:	1f 93       	push	r17
     fb0:	18 2f       	mov	r17, r24
     fb2:	d2 df       	rcall	.-92     	; 0xf58 <lcd_waitbusy>
     fb4:	1a 30       	cpi	r17, 0x0A	; 10
     fb6:	41 f4       	brne	.+16     	; 0xfc8 <lcd_putc+0x1a>
     fb8:	80 34       	cpi	r24, 0x40	; 64
     fba:	10 f0       	brcs	.+4      	; 0xfc0 <lcd_putc+0x12>
     fbc:	80 e0       	ldi	r24, 0x00	; 0
     fbe:	01 c0       	rjmp	.+2      	; 0xfc2 <lcd_putc+0x14>
     fc0:	80 e4       	ldi	r24, 0x40	; 64
     fc2:	80 58       	subi	r24, 0x80	; 128
     fc4:	d4 df       	rcall	.-88     	; 0xf6e <lcd_command>
     fc6:	03 c0       	rjmp	.+6      	; 0xfce <lcd_putc+0x20>
     fc8:	81 2f       	mov	r24, r17
     fca:	61 e0       	ldi	r22, 0x01	; 1
     fcc:	91 df       	rcall	.-222    	; 0xef0 <lcd_write>
     fce:	1f 91       	pop	r17
     fd0:	08 95       	ret

00000fd2 <lcd_puts>:
     fd2:	cf 93       	push	r28
     fd4:	df 93       	push	r29
     fd6:	ec 01       	movw	r28, r24
     fd8:	01 c0       	rjmp	.+2      	; 0xfdc <lcd_puts+0xa>
     fda:	e9 df       	rcall	.-46     	; 0xfae <lcd_putc>
     fdc:	89 91       	ld	r24, Y+
     fde:	88 23       	and	r24, r24
     fe0:	e1 f7       	brne	.-8      	; 0xfda <lcd_puts+0x8>
     fe2:	df 91       	pop	r29
     fe4:	cf 91       	pop	r28
     fe6:	08 95       	ret

00000fe8 <lcd_puts_p>:
     fe8:	cf 93       	push	r28
     fea:	df 93       	push	r29
     fec:	ec 01       	movw	r28, r24
     fee:	01 c0       	rjmp	.+2      	; 0xff2 <lcd_puts_p+0xa>
     ff0:	de df       	rcall	.-68     	; 0xfae <lcd_putc>
     ff2:	fe 01       	movw	r30, r28
     ff4:	21 96       	adiw	r28, 0x01	; 1
     ff6:	84 91       	lpm	r24, Z+
     ff8:	88 23       	and	r24, r24
     ffa:	d1 f7       	brne	.-12     	; 0xff0 <lcd_puts_p+0x8>
     ffc:	df 91       	pop	r29
     ffe:	cf 91       	pop	r28
    1000:	08 95       	ret

00001002 <lcd_init>:
    1002:	1f 93       	push	r17
    1004:	18 2f       	mov	r17, r24
    1006:	87 b3       	in	r24, 0x17	; 23
    1008:	8f 67       	ori	r24, 0x7F	; 127
    100a:	87 bb       	out	0x17, r24	; 23
    100c:	80 e0       	ldi	r24, 0x00	; 0
    100e:	9d e7       	ldi	r25, 0x7D	; 125
    1010:	01 97       	sbiw	r24, 0x01	; 1
    1012:	f1 f7       	brne	.-4      	; 0x1010 <lcd_init+0xe>
    1014:	c1 9a       	sbi	0x18, 1	; 24
    1016:	c0 9a       	sbi	0x18, 0	; 24
    1018:	c6 9a       	sbi	0x18, 6	; 24
    101a:	00 c0       	rjmp	.+0      	; 0x101c <lcd_init+0x1a>
    101c:	c6 98       	cbi	0x18, 6	; 24
    101e:	80 e0       	ldi	r24, 0x00	; 0
    1020:	97 e2       	ldi	r25, 0x27	; 39
    1022:	01 97       	sbiw	r24, 0x01	; 1
    1024:	f1 f7       	brne	.-4      	; 0x1022 <lcd_init+0x20>
    1026:	c6 9a       	sbi	0x18, 6	; 24
    1028:	00 c0       	rjmp	.+0      	; 0x102a <lcd_init+0x28>
    102a:	c6 98       	cbi	0x18, 6	; 24
    102c:	80 e8       	ldi	r24, 0x80	; 128
    102e:	90 e0       	ldi	r25, 0x00	; 0
    1030:	fc 01       	movw	r30, r24
    1032:	31 97       	sbiw	r30, 0x01	; 1
    1034:	f1 f7       	brne	.-4      	; 0x1032 <lcd_init+0x30>
    1036:	c6 9a       	sbi	0x18, 6	; 24
    1038:	00 c0       	rjmp	.+0      	; 0x103a <lcd_init+0x38>
    103a:	c6 98       	cbi	0x18, 6	; 24
    103c:	fc 01       	movw	r30, r24
    103e:	31 97       	sbiw	r30, 0x01	; 1
    1040:	f1 f7       	brne	.-4      	; 0x103e <lcd_init+0x3c>
    1042:	c0 98       	cbi	0x18, 0	; 24
    1044:	c6 9a       	sbi	0x18, 6	; 24
    1046:	00 c0       	rjmp	.+0      	; 0x1048 <lcd_init+0x46>
    1048:	c6 98       	cbi	0x18, 6	; 24
    104a:	01 97       	sbiw	r24, 0x01	; 1
    104c:	f1 f7       	brne	.-4      	; 0x104a <lcd_init+0x48>
    104e:	88 e2       	ldi	r24, 0x28	; 40
    1050:	8e df       	rcall	.-228    	; 0xf6e <lcd_command>
    1052:	88 e0       	ldi	r24, 0x08	; 8
    1054:	8c df       	rcall	.-232    	; 0xf6e <lcd_command>
    1056:	a5 df       	rcall	.-182    	; 0xfa2 <lcd_clrscr>
    1058:	86 e0       	ldi	r24, 0x06	; 6
    105a:	89 df       	rcall	.-238    	; 0xf6e <lcd_command>
    105c:	81 2f       	mov	r24, r17
    105e:	87 df       	rcall	.-242    	; 0xf6e <lcd_command>
    1060:	1f 91       	pop	r17
    1062:	08 95       	ret

00001064 <setup_parallel>:
    1064:	8f ef       	ldi	r24, 0xFF	; 255
    1066:	87 bb       	out	0x17, r24	; 23
    1068:	8f ec       	ldi	r24, 0xCF	; 207
    106a:	84 bb       	out	0x14, r24	; 20
    106c:	18 ba       	out	0x18, r1	; 24
    106e:	80 e3       	ldi	r24, 0x30	; 48
    1070:	85 bb       	out	0x15, r24	; 21
    1072:	ab 9a       	sbi	0x15, 3	; 21
    1074:	85 e0       	ldi	r24, 0x05	; 5
    1076:	98 2f       	mov	r25, r24
    1078:	9a 95       	dec	r25
    107a:	f1 f7       	brne	.-4      	; 0x1078 <setup_parallel+0x14>
    107c:	ab 98       	cbi	0x15, 3	; 21
    107e:	98 2f       	mov	r25, r24
    1080:	9a 95       	dec	r25
    1082:	f1 f7       	brne	.-4      	; 0x1080 <setup_parallel+0x1c>
    1084:	a8 9a       	sbi	0x15, 0	; 21
    1086:	98 2f       	mov	r25, r24
    1088:	9a 95       	dec	r25
    108a:	f1 f7       	brne	.-4      	; 0x1088 <setup_parallel+0x24>
    108c:	a8 98       	cbi	0x15, 0	; 21
    108e:	98 2f       	mov	r25, r24
    1090:	9a 95       	dec	r25
    1092:	f1 f7       	brne	.-4      	; 0x1090 <setup_parallel+0x2c>
    1094:	aa 9a       	sbi	0x15, 2	; 21
    1096:	98 2f       	mov	r25, r24
    1098:	9a 95       	dec	r25
    109a:	f1 f7       	brne	.-4      	; 0x1098 <setup_parallel+0x34>
    109c:	aa 98       	cbi	0x15, 2	; 21
    109e:	8a 95       	dec	r24
    10a0:	f1 f7       	brne	.-4      	; 0x109e <setup_parallel+0x3a>
    10a2:	08 95       	ret

000010a4 <setup_serial>:
    10a4:	8f ec       	ldi	r24, 0xCF	; 207
    10a6:	84 bb       	out	0x14, r24	; 20
    10a8:	80 e3       	ldi	r24, 0x30	; 48
    10aa:	85 bb       	out	0x15, r24	; 21
    10ac:	ab 9a       	sbi	0x15, 3	; 21
    10ae:	95 e0       	ldi	r25, 0x05	; 5
    10b0:	89 2f       	mov	r24, r25
    10b2:	8a 95       	dec	r24
    10b4:	f1 f7       	brne	.-4      	; 0x10b2 <setup_serial+0xe>
    10b6:	ab 98       	cbi	0x15, 3	; 21
    10b8:	89 2f       	mov	r24, r25
    10ba:	8a 95       	dec	r24
    10bc:	f1 f7       	brne	.-4      	; 0x10ba <setup_serial+0x16>
    10be:	a8 9a       	sbi	0x15, 0	; 21
    10c0:	89 2f       	mov	r24, r25
    10c2:	8a 95       	dec	r24
    10c4:	f1 f7       	brne	.-4      	; 0x10c2 <setup_serial+0x1e>
    10c6:	a8 98       	cbi	0x15, 0	; 21
    10c8:	89 2f       	mov	r24, r25
    10ca:	8a 95       	dec	r24
    10cc:	f1 f7       	brne	.-4      	; 0x10ca <setup_serial+0x26>
    10ce:	aa 9a       	sbi	0x15, 2	; 21
    10d0:	89 e0       	ldi	r24, 0x09	; 9
    10d2:	28 2f       	mov	r18, r24
    10d4:	2a 95       	dec	r18
    10d6:	f1 f7       	brne	.-4      	; 0x10d4 <setup_serial+0x30>
    10d8:	aa 98       	cbi	0x15, 2	; 21
    10da:	28 2f       	mov	r18, r24
    10dc:	2a 95       	dec	r18
    10de:	f1 f7       	brne	.-4      	; 0x10dc <setup_serial+0x38>
    10e0:	a9 98       	cbi	0x15, 1	; 21
    10e2:	a8 9a       	sbi	0x15, 0	; 21
    10e4:	29 2f       	mov	r18, r25
    10e6:	2a 95       	dec	r18
    10e8:	f1 f7       	brne	.-4      	; 0x10e6 <setup_serial+0x42>
    10ea:	a8 98       	cbi	0x15, 0	; 21
    10ec:	9a 95       	dec	r25
    10ee:	f1 f7       	brne	.-4      	; 0x10ec <setup_serial+0x48>
    10f0:	aa 9a       	sbi	0x15, 2	; 21
    10f2:	98 2f       	mov	r25, r24
    10f4:	9a 95       	dec	r25
    10f6:	f1 f7       	brne	.-4      	; 0x10f4 <setup_serial+0x50>
    10f8:	aa 98       	cbi	0x15, 2	; 21
    10fa:	8a 95       	dec	r24
    10fc:	f1 f7       	brne	.-4      	; 0x10fa <setup_serial+0x56>
    10fe:	08 95       	ret

00001100 <pulse_clk>:
    1100:	88 bb       	out	0x18, r24	; 24
    1102:	85 e0       	ldi	r24, 0x05	; 5
    1104:	98 2f       	mov	r25, r24
    1106:	9a 95       	dec	r25
    1108:	f1 f7       	brne	.-4      	; 0x1106 <pulse_clk+0x6>
    110a:	a8 9a       	sbi	0x15, 0	; 21
    110c:	98 2f       	mov	r25, r24
    110e:	9a 95       	dec	r25
    1110:	f1 f7       	brne	.-4      	; 0x110e <pulse_clk+0xe>
    1112:	a8 98       	cbi	0x15, 0	; 21
    1114:	8a 95       	dec	r24
    1116:	f1 f7       	brne	.-4      	; 0x1114 <pulse_clk+0x14>
    1118:	08 95       	ret

0000111a <make_tuning_word>:
    111a:	2f 92       	push	r2
    111c:	3f 92       	push	r3
    111e:	4f 92       	push	r4
    1120:	5f 92       	push	r5
    1122:	6f 92       	push	r6
    1124:	7f 92       	push	r7
    1126:	8f 92       	push	r8
    1128:	9f 92       	push	r9
    112a:	af 92       	push	r10
    112c:	bf 92       	push	r11
    112e:	cf 92       	push	r12
    1130:	df 92       	push	r13
    1132:	ef 92       	push	r14
    1134:	ff 92       	push	r15
    1136:	0f 93       	push	r16
    1138:	1f 93       	push	r17
    113a:	df 93       	push	r29
    113c:	cf 93       	push	r28
    113e:	cd b7       	in	r28, 0x3d	; 61
    1140:	de b7       	in	r29, 0x3e	; 62
    1142:	68 97       	sbiw	r28, 0x18	; 24
    1144:	0f b6       	in	r0, 0x3f	; 63
    1146:	f8 94       	cli
    1148:	de bf       	out	0x3e, r29	; 62
    114a:	0f be       	out	0x3f, r0	; 63
    114c:	cd bf       	out	0x3d, r28	; 61
    114e:	6d 83       	std	Y+5, r22	; 0x05
    1150:	7e 83       	std	Y+6, r23	; 0x06
    1152:	8f 83       	std	Y+7, r24	; 0x07
    1154:	98 87       	std	Y+8, r25	; 0x08
    1156:	a0 90 fe 01 	lds	r10, 0x01FE
    115a:	a9 8a       	std	Y+17, r10	; 0x11
    115c:	b0 90 ff 01 	lds	r11, 0x01FF
    1160:	ba 8a       	std	Y+18, r11	; 0x12
    1162:	c0 90 00 02 	lds	r12, 0x0200
    1166:	cb 8a       	std	Y+19, r12	; 0x13
    1168:	d0 90 01 02 	lds	r13, 0x0201
    116c:	dc 8a       	std	Y+20, r13	; 0x14
    116e:	e0 90 02 02 	lds	r14, 0x0202
    1172:	ed 8a       	std	Y+21, r14	; 0x15
    1174:	f0 90 03 02 	lds	r15, 0x0203
    1178:	fe 8a       	std	Y+22, r15	; 0x16
    117a:	00 91 04 02 	lds	r16, 0x0204
    117e:	0f 8b       	std	Y+23, r16	; 0x17
    1180:	10 91 05 02 	lds	r17, 0x0205
    1184:	18 8f       	std	Y+24, r17	; 0x18
    1186:	80 91 06 02 	lds	r24, 0x0206
    118a:	90 91 07 02 	lds	r25, 0x0207
    118e:	a0 91 08 02 	lds	r26, 0x0208
    1192:	b0 91 09 02 	lds	r27, 0x0209
    1196:	89 83       	std	Y+1, r24	; 0x01
    1198:	9a 83       	std	Y+2, r25	; 0x02
    119a:	ab 83       	std	Y+3, r26	; 0x03
    119c:	bc 83       	std	Y+4, r27	; 0x04
    119e:	bc 01       	movw	r22, r24
    11a0:	cd 01       	movw	r24, r26
    11a2:	24 e6       	ldi	r18, 0x64	; 100
    11a4:	30 e0       	ldi	r19, 0x00	; 0
    11a6:	40 e0       	ldi	r20, 0x00	; 0
    11a8:	50 e0       	ldi	r21, 0x00	; 0
    11aa:	30 d3       	rcall	.+1632   	; 0x180c <__udivmodsi4>
    11ac:	19 01       	movw	r2, r18
    11ae:	2a 01       	movw	r4, r20
    11b0:	95 01       	movw	r18, r10
    11b2:	a6 01       	movw	r20, r12
    11b4:	b7 01       	movw	r22, r14
    11b6:	c8 01       	movw	r24, r16
    11b8:	51 01       	movw	r10, r2
    11ba:	62 01       	movw	r12, r4
    11bc:	ee 24       	eor	r14, r14
    11be:	ff 24       	eor	r15, r15
    11c0:	00 e0       	ldi	r16, 0x00	; 0
    11c2:	10 e0       	ldi	r17, 0x00	; 0
    11c4:	3f d8       	rcall	.-3970   	; 0x244 <__udivdi3>
    11c6:	b9 01       	movw	r22, r18
    11c8:	ca 01       	movw	r24, r20
    11ca:	24 e6       	ldi	r18, 0x64	; 100
    11cc:	30 e0       	ldi	r19, 0x00	; 0
    11ce:	40 e0       	ldi	r20, 0x00	; 0
    11d0:	50 e0       	ldi	r21, 0x00	; 0
    11d2:	1c d3       	rcall	.+1592   	; 0x180c <__udivmodsi4>
    11d4:	7b 01       	movw	r14, r22
    11d6:	8c 01       	movw	r16, r24
    11d8:	6d 81       	ldd	r22, Y+5	; 0x05
    11da:	7e 81       	ldd	r23, Y+6	; 0x06
    11dc:	8f 81       	ldd	r24, Y+7	; 0x07
    11de:	98 85       	ldd	r25, Y+8	; 0x08
    11e0:	20 ea       	ldi	r18, 0xA0	; 160
    11e2:	36 e8       	ldi	r19, 0x86	; 134
    11e4:	41 e0       	ldi	r20, 0x01	; 1
    11e6:	50 e0       	ldi	r21, 0x00	; 0
    11e8:	11 d3       	rcall	.+1570   	; 0x180c <__udivmodsi4>
    11ea:	c8 01       	movw	r24, r16
    11ec:	b7 01       	movw	r22, r14
    11ee:	ef d2       	rcall	.+1502   	; 0x17ce <__mulsi3>
    11f0:	3b 01       	movw	r6, r22
    11f2:	4c 01       	movw	r8, r24
    11f4:	60 93 19 02 	sts	0x0219, r22
    11f8:	70 93 1a 02 	sts	0x021A, r23
    11fc:	80 93 1b 02 	sts	0x021B, r24
    1200:	90 93 1c 02 	sts	0x021C, r25
    1204:	8d 81       	ldd	r24, Y+5	; 0x05
    1206:	9e 81       	ldd	r25, Y+6	; 0x06
    1208:	af 81       	ldd	r26, Y+7	; 0x07
    120a:	b8 85       	ldd	r27, Y+8	; 0x08
    120c:	5c 01       	movw	r10, r24
    120e:	6d 01       	movw	r12, r26
    1210:	9c 01       	movw	r18, r24
    1212:	a6 01       	movw	r20, r12
    1214:	60 e0       	ldi	r22, 0x00	; 0
    1216:	70 e0       	ldi	r23, 0x00	; 0
    1218:	80 e0       	ldi	r24, 0x00	; 0
    121a:	90 e0       	ldi	r25, 0x00	; 0
    121c:	a9 88       	ldd	r10, Y+17	; 0x11
    121e:	ba 88       	ldd	r11, Y+18	; 0x12
    1220:	cb 88       	ldd	r12, Y+19	; 0x13
    1222:	dc 88       	ldd	r13, Y+20	; 0x14
    1224:	ed 88       	ldd	r14, Y+21	; 0x15
    1226:	fe 88       	ldd	r15, Y+22	; 0x16
    1228:	0f 89       	ldd	r16, Y+23	; 0x17
    122a:	18 8d       	ldd	r17, Y+24	; 0x18
    122c:	18 d7       	rcall	.+3632   	; 0x205e <__data_load_end+0x576>
    122e:	c9 80       	ldd	r12, Y+1	; 0x01
    1230:	da 80       	ldd	r13, Y+2	; 0x02
    1232:	eb 80       	ldd	r14, Y+3	; 0x03
    1234:	fc 80       	ldd	r15, Y+4	; 0x04
    1236:	56 01       	movw	r10, r12
    1238:	67 01       	movw	r12, r14
    123a:	ee 24       	eor	r14, r14
    123c:	ff 24       	eor	r15, r15
    123e:	87 01       	movw	r16, r14
    1240:	a9 86       	std	Y+9, r10	; 0x09
    1242:	ba 86       	std	Y+10, r11	; 0x0a
    1244:	cb 86       	std	Y+11, r12	; 0x0b
    1246:	dc 86       	std	Y+12, r13	; 0x0c
    1248:	ed 86       	std	Y+13, r14	; 0x0d
    124a:	fe 86       	std	Y+14, r15	; 0x0e
    124c:	0f 87       	std	Y+15, r16	; 0x0f
    124e:	18 8b       	std	Y+16, r17	; 0x10
    1250:	ee 24       	eor	r14, r14
    1252:	ff 24       	eor	r15, r15
    1254:	00 e0       	ldi	r16, 0x00	; 0
    1256:	10 e0       	ldi	r17, 0x00	; 0
    1258:	f5 d7       	rcall	.+4074   	; 0x2244 <__data_load_end+0x75c>
    125a:	59 01       	movw	r10, r18
    125c:	6a 01       	movw	r12, r20
    125e:	6a 0c       	add	r6, r10
    1260:	7b 1c       	adc	r7, r11
    1262:	8c 1c       	adc	r8, r12
    1264:	9d 1c       	adc	r9, r13
    1266:	60 92 21 02 	sts	0x0221, r6
    126a:	70 92 22 02 	sts	0x0222, r7
    126e:	80 92 23 02 	sts	0x0223, r8
    1272:	90 92 24 02 	sts	0x0224, r9
    1276:	b3 01       	movw	r22, r6
    1278:	c4 01       	movw	r24, r8
    127a:	68 96       	adiw	r28, 0x18	; 24
    127c:	0f b6       	in	r0, 0x3f	; 63
    127e:	f8 94       	cli
    1280:	de bf       	out	0x3e, r29	; 62
    1282:	0f be       	out	0x3f, r0	; 63
    1284:	cd bf       	out	0x3d, r28	; 61
    1286:	cf 91       	pop	r28
    1288:	df 91       	pop	r29
    128a:	1f 91       	pop	r17
    128c:	0f 91       	pop	r16
    128e:	ff 90       	pop	r15
    1290:	ef 90       	pop	r14
    1292:	df 90       	pop	r13
    1294:	cf 90       	pop	r12
    1296:	bf 90       	pop	r11
    1298:	af 90       	pop	r10
    129a:	9f 90       	pop	r9
    129c:	8f 90       	pop	r8
    129e:	7f 90       	pop	r7
    12a0:	6f 90       	pop	r6
    12a2:	5f 90       	pop	r5
    12a4:	4f 90       	pop	r4
    12a6:	3f 90       	pop	r3
    12a8:	2f 90       	pop	r2
    12aa:	08 95       	ret

000012ac <load_tuning_word_parallel>:
    12ac:	cf 93       	push	r28
    12ae:	df 93       	push	r29
    12b0:	e4 e1       	ldi	r30, 0x14	; 20
    12b2:	f2 e0       	ldi	r31, 0x02	; 2
    12b4:	61 93       	st	Z+, r22
    12b6:	67 2f       	mov	r22, r23
    12b8:	78 2f       	mov	r23, r24
    12ba:	89 2f       	mov	r24, r25
    12bc:	99 27       	eor	r25, r25
    12be:	22 e0       	ldi	r18, 0x02	; 2
    12c0:	e9 31       	cpi	r30, 0x19	; 25
    12c2:	f2 07       	cpc	r31, r18
    12c4:	b9 f7       	brne	.-18     	; 0x12b4 <load_tuning_word_parallel+0x8>
    12c6:	aa 9a       	sbi	0x15, 2	; 21
    12c8:	89 e0       	ldi	r24, 0x09	; 9
    12ca:	98 2f       	mov	r25, r24
    12cc:	9a 95       	dec	r25
    12ce:	f1 f7       	brne	.-4      	; 0x12cc <load_tuning_word_parallel+0x20>
    12d0:	aa 98       	cbi	0x15, 2	; 21
    12d2:	8a 95       	dec	r24
    12d4:	f1 f7       	brne	.-4      	; 0x12d2 <load_tuning_word_parallel+0x26>
    12d6:	ef 01       	movw	r28, r30
    12d8:	21 97       	sbiw	r28, 0x01	; 1
    12da:	88 81       	ld	r24, Y
    12dc:	11 df       	rcall	.-478    	; 0x1100 <pulse_clk>
    12de:	21 97       	sbiw	r28, 0x01	; 1
    12e0:	82 e0       	ldi	r24, 0x02	; 2
    12e2:	c3 31       	cpi	r28, 0x13	; 19
    12e4:	d8 07       	cpc	r29, r24
    12e6:	c9 f7       	brne	.-14     	; 0x12da <load_tuning_word_parallel+0x2e>
    12e8:	aa 9a       	sbi	0x15, 2	; 21
    12ea:	89 e0       	ldi	r24, 0x09	; 9
    12ec:	98 2f       	mov	r25, r24
    12ee:	9a 95       	dec	r25
    12f0:	f1 f7       	brne	.-4      	; 0x12ee <load_tuning_word_parallel+0x42>
    12f2:	aa 98       	cbi	0x15, 2	; 21
    12f4:	8a 95       	dec	r24
    12f6:	f1 f7       	brne	.-4      	; 0x12f4 <load_tuning_word_parallel+0x48>
    12f8:	df 91       	pop	r29
    12fa:	cf 91       	pop	r28
    12fc:	08 95       	ret

000012fe <load_tuning_word_serial>:
    12fe:	ac 01       	movw	r20, r24
    1300:	cb 01       	movw	r24, r22
    1302:	da 01       	movw	r26, r20
    1304:	9c 01       	movw	r18, r24
    1306:	ad 01       	movw	r20, r26
    1308:	60 e0       	ldi	r22, 0x00	; 0
    130a:	75 e0       	ldi	r23, 0x05	; 5
    130c:	c9 01       	movw	r24, r18
    130e:	81 70       	andi	r24, 0x01	; 1
    1310:	90 70       	andi	r25, 0x00	; 0
    1312:	89 2b       	or	r24, r25
    1314:	11 f0       	breq	.+4      	; 0x131a <load_tuning_word_serial+0x1c>
    1316:	a9 9a       	sbi	0x15, 1	; 21
    1318:	01 c0       	rjmp	.+2      	; 0x131c <load_tuning_word_serial+0x1e>
    131a:	a9 98       	cbi	0x15, 1	; 21
    131c:	a8 9a       	sbi	0x15, 0	; 21
    131e:	87 2f       	mov	r24, r23
    1320:	8a 95       	dec	r24
    1322:	f1 f7       	brne	.-4      	; 0x1320 <load_tuning_word_serial+0x22>
    1324:	a8 98       	cbi	0x15, 0	; 21
    1326:	87 2f       	mov	r24, r23
    1328:	8a 95       	dec	r24
    132a:	f1 f7       	brne	.-4      	; 0x1328 <load_tuning_word_serial+0x2a>
    132c:	6f 5f       	subi	r22, 0xFF	; 255
    132e:	68 32       	cpi	r22, 0x28	; 40
    1330:	29 f0       	breq	.+10     	; 0x133c <load_tuning_word_serial+0x3e>
    1332:	56 95       	lsr	r21
    1334:	47 95       	ror	r20
    1336:	37 95       	ror	r19
    1338:	27 95       	ror	r18
    133a:	e8 cf       	rjmp	.-48     	; 0x130c <load_tuning_word_serial+0xe>
    133c:	aa 9a       	sbi	0x15, 2	; 21
    133e:	89 e0       	ldi	r24, 0x09	; 9
    1340:	98 2f       	mov	r25, r24
    1342:	9a 95       	dec	r25
    1344:	f1 f7       	brne	.-4      	; 0x1342 <load_tuning_word_serial+0x44>
    1346:	aa 98       	cbi	0x15, 2	; 21
    1348:	8a 95       	dec	r24
    134a:	f1 f7       	brne	.-4      	; 0x1348 <load_tuning_word_serial+0x4a>
    134c:	08 95       	ret

0000134e <initInterrupts>:
    134e:	85 b7       	in	r24, 0x35	; 53
    1350:	82 60       	ori	r24, 0x02	; 2
    1352:	85 bf       	out	0x35, r24	; 53
    1354:	8b b7       	in	r24, 0x3b	; 59
    1356:	80 64       	ori	r24, 0x40	; 64
    1358:	8b bf       	out	0x3b, r24	; 59
    135a:	85 b7       	in	r24, 0x35	; 53
    135c:	88 60       	ori	r24, 0x08	; 8
    135e:	85 bf       	out	0x35, r24	; 53
    1360:	8b b7       	in	r24, 0x3b	; 59
    1362:	80 68       	ori	r24, 0x80	; 128
    1364:	8b bf       	out	0x3b, r24	; 59
    1366:	08 95       	ret

00001368 <__vector_1>:
    1368:	1f 92       	push	r1
    136a:	0f 92       	push	r0
    136c:	0f b6       	in	r0, 0x3f	; 63
    136e:	0f 92       	push	r0
    1370:	11 24       	eor	r1, r1
    1372:	2f 93       	push	r18
    1374:	3f 93       	push	r19
    1376:	4f 93       	push	r20
    1378:	5f 93       	push	r21
    137a:	8f 93       	push	r24
    137c:	9f 93       	push	r25
    137e:	af 93       	push	r26
    1380:	bf 93       	push	r27
    1382:	86 9b       	sbis	0x10, 6	; 16
    1384:	15 c0       	rjmp	.+42     	; 0x13b0 <__vector_1+0x48>
    1386:	20 91 0a 02 	lds	r18, 0x020A
    138a:	30 91 0b 02 	lds	r19, 0x020B
    138e:	40 91 0c 02 	lds	r20, 0x020C
    1392:	50 91 0d 02 	lds	r21, 0x020D
    1396:	80 91 0e 02 	lds	r24, 0x020E
    139a:	90 91 0f 02 	lds	r25, 0x020F
    139e:	a0 91 10 02 	lds	r26, 0x0210
    13a2:	b0 91 11 02 	lds	r27, 0x0211
    13a6:	82 0f       	add	r24, r18
    13a8:	93 1f       	adc	r25, r19
    13aa:	a4 1f       	adc	r26, r20
    13ac:	b5 1f       	adc	r27, r21
    13ae:	16 c0       	rjmp	.+44     	; 0x13dc <__vector_1+0x74>
    13b0:	86 99       	sbic	0x10, 6	; 16
    13b2:	1c c0       	rjmp	.+56     	; 0x13ec <__vector_1+0x84>
    13b4:	80 91 0a 02 	lds	r24, 0x020A
    13b8:	90 91 0b 02 	lds	r25, 0x020B
    13bc:	a0 91 0c 02 	lds	r26, 0x020C
    13c0:	b0 91 0d 02 	lds	r27, 0x020D
    13c4:	20 91 0e 02 	lds	r18, 0x020E
    13c8:	30 91 0f 02 	lds	r19, 0x020F
    13cc:	40 91 10 02 	lds	r20, 0x0210
    13d0:	50 91 11 02 	lds	r21, 0x0211
    13d4:	82 1b       	sub	r24, r18
    13d6:	93 0b       	sbc	r25, r19
    13d8:	a4 0b       	sbc	r26, r20
    13da:	b5 0b       	sbc	r27, r21
    13dc:	80 93 0a 02 	sts	0x020A, r24
    13e0:	90 93 0b 02 	sts	0x020B, r25
    13e4:	a0 93 0c 02 	sts	0x020C, r26
    13e8:	b0 93 0d 02 	sts	0x020D, r27
    13ec:	88 e8       	ldi	r24, 0x88	; 136
    13ee:	93 e1       	ldi	r25, 0x13	; 19
    13f0:	01 97       	sbiw	r24, 0x01	; 1
    13f2:	f1 f7       	brne	.-4      	; 0x13f0 <__vector_1+0x88>
    13f4:	bf 91       	pop	r27
    13f6:	af 91       	pop	r26
    13f8:	9f 91       	pop	r25
    13fa:	8f 91       	pop	r24
    13fc:	5f 91       	pop	r21
    13fe:	4f 91       	pop	r20
    1400:	3f 91       	pop	r19
    1402:	2f 91       	pop	r18
    1404:	0f 90       	pop	r0
    1406:	0f be       	out	0x3f, r0	; 63
    1408:	0f 90       	pop	r0
    140a:	1f 90       	pop	r1
    140c:	18 95       	reti

0000140e <__vector_2>:
    140e:	1f 92       	push	r1
    1410:	0f 92       	push	r0
    1412:	0f b6       	in	r0, 0x3f	; 63
    1414:	0f 92       	push	r0
    1416:	11 24       	eor	r1, r1
    1418:	2f 93       	push	r18
    141a:	3f 93       	push	r19
    141c:	8f 93       	push	r24
    141e:	9f 93       	push	r25
    1420:	af 93       	push	r26
    1422:	bf 93       	push	r27
    1424:	ef 93       	push	r30
    1426:	ff 93       	push	r31
    1428:	80 91 13 02 	lds	r24, 0x0213
    142c:	82 30       	cpi	r24, 0x02	; 2
    142e:	99 f0       	breq	.+38     	; 0x1456 <__vector_2+0x48>
    1430:	83 30       	cpi	r24, 0x03	; 3
    1432:	28 f4       	brcc	.+10     	; 0x143e <__vector_2+0x30>
    1434:	88 23       	and	r24, r24
    1436:	19 f1       	breq	.+70     	; 0x147e <__vector_2+0x70>
    1438:	81 30       	cpi	r24, 0x01	; 1
    143a:	09 f5       	brne	.+66     	; 0x147e <__vector_2+0x70>
    143c:	07 c0       	rjmp	.+14     	; 0x144c <__vector_2+0x3e>
    143e:	84 30       	cpi	r24, 0x04	; 4
    1440:	a1 f0       	breq	.+40     	; 0x146a <__vector_2+0x5c>
    1442:	84 30       	cpi	r24, 0x04	; 4
    1444:	68 f0       	brcs	.+26     	; 0x1460 <__vector_2+0x52>
    1446:	85 30       	cpi	r24, 0x05	; 5
    1448:	d1 f4       	brne	.+52     	; 0x147e <__vector_2+0x70>
    144a:	14 c0       	rjmp	.+40     	; 0x1474 <__vector_2+0x66>
    144c:	80 e1       	ldi	r24, 0x10	; 16
    144e:	97 e2       	ldi	r25, 0x27	; 39
    1450:	a0 e0       	ldi	r26, 0x00	; 0
    1452:	b0 e0       	ldi	r27, 0x00	; 0
    1454:	18 c0       	rjmp	.+48     	; 0x1486 <__vector_2+0x78>
    1456:	80 ea       	ldi	r24, 0xA0	; 160
    1458:	96 e8       	ldi	r25, 0x86	; 134
    145a:	a1 e0       	ldi	r26, 0x01	; 1
    145c:	b0 e0       	ldi	r27, 0x00	; 0
    145e:	13 c0       	rjmp	.+38     	; 0x1486 <__vector_2+0x78>
    1460:	81 e0       	ldi	r24, 0x01	; 1
    1462:	90 e0       	ldi	r25, 0x00	; 0
    1464:	a0 e0       	ldi	r26, 0x00	; 0
    1466:	b0 e0       	ldi	r27, 0x00	; 0
    1468:	0e c0       	rjmp	.+28     	; 0x1486 <__vector_2+0x78>
    146a:	8a e0       	ldi	r24, 0x0A	; 10
    146c:	90 e0       	ldi	r25, 0x00	; 0
    146e:	a0 e0       	ldi	r26, 0x00	; 0
    1470:	b0 e0       	ldi	r27, 0x00	; 0
    1472:	09 c0       	rjmp	.+18     	; 0x1486 <__vector_2+0x78>
    1474:	84 e6       	ldi	r24, 0x64	; 100
    1476:	90 e0       	ldi	r25, 0x00	; 0
    1478:	a0 e0       	ldi	r26, 0x00	; 0
    147a:	b0 e0       	ldi	r27, 0x00	; 0
    147c:	04 c0       	rjmp	.+8      	; 0x1486 <__vector_2+0x78>
    147e:	88 ee       	ldi	r24, 0xE8	; 232
    1480:	93 e0       	ldi	r25, 0x03	; 3
    1482:	a0 e0       	ldi	r26, 0x00	; 0
    1484:	b0 e0       	ldi	r27, 0x00	; 0
    1486:	80 93 0e 02 	sts	0x020E, r24
    148a:	90 93 0f 02 	sts	0x020F, r25
    148e:	a0 93 10 02 	sts	0x0210, r26
    1492:	b0 93 11 02 	sts	0x0211, r27
    1496:	81 e0       	ldi	r24, 0x01	; 1
    1498:	80 93 12 02 	sts	0x0212, r24
    149c:	80 91 13 02 	lds	r24, 0x0213
    14a0:	8f 5f       	subi	r24, 0xFF	; 255
    14a2:	80 93 13 02 	sts	0x0213, r24
    14a6:	80 91 13 02 	lds	r24, 0x0213
    14aa:	86 30       	cpi	r24, 0x06	; 6
    14ac:	11 f4       	brne	.+4      	; 0x14b2 <__vector_2+0xa4>
    14ae:	10 92 13 02 	sts	0x0213, r1
    14b2:	8c eb       	ldi	r24, 0xBC	; 188
    14b4:	92 e0       	ldi	r25, 0x02	; 2
    14b6:	24 e6       	ldi	r18, 0x64	; 100
    14b8:	30 e0       	ldi	r19, 0x00	; 0
    14ba:	f9 01       	movw	r30, r18
    14bc:	31 97       	sbiw	r30, 0x01	; 1
    14be:	f1 f7       	brne	.-4      	; 0x14bc <__vector_2+0xae>
    14c0:	01 97       	sbiw	r24, 0x01	; 1
    14c2:	d9 f7       	brne	.-10     	; 0x14ba <__vector_2+0xac>
    14c4:	ff 91       	pop	r31
    14c6:	ef 91       	pop	r30
    14c8:	bf 91       	pop	r27
    14ca:	af 91       	pop	r26
    14cc:	9f 91       	pop	r25
    14ce:	8f 91       	pop	r24
    14d0:	3f 91       	pop	r19
    14d2:	2f 91       	pop	r18
    14d4:	0f 90       	pop	r0
    14d6:	0f be       	out	0x3f, r0	; 63
    14d8:	0f 90       	pop	r0
    14da:	1f 90       	pop	r1
    14dc:	18 95       	reti

000014de <main>:
    14de:	2f 92       	push	r2
    14e0:	3f 92       	push	r3
    14e2:	4f 92       	push	r4
    14e4:	5f 92       	push	r5
    14e6:	6f 92       	push	r6
    14e8:	7f 92       	push	r7
    14ea:	8f 92       	push	r8
    14ec:	9f 92       	push	r9
    14ee:	af 92       	push	r10
    14f0:	bf 92       	push	r11
    14f2:	cf 92       	push	r12
    14f4:	df 92       	push	r13
    14f6:	ef 92       	push	r14
    14f8:	ff 92       	push	r15
    14fa:	0f 93       	push	r16
    14fc:	1f 93       	push	r17
    14fe:	df 93       	push	r29
    1500:	cf 93       	push	r28
    1502:	cd b7       	in	r28, 0x3d	; 61
    1504:	de b7       	in	r29, 0x3e	; 62
    1506:	6b 97       	sbiw	r28, 0x1b	; 27
    1508:	0f b6       	in	r0, 0x3f	; 63
    150a:	f8 94       	cli
    150c:	de bf       	out	0x3e, r29	; 62
    150e:	0f be       	out	0x3f, r0	; 63
    1510:	cd bf       	out	0x3d, r28	; 61
    1512:	80 e8       	ldi	r24, 0x80	; 128
    1514:	81 bb       	out	0x11, r24	; 17
    1516:	8f e7       	ldi	r24, 0x7F	; 127
    1518:	82 bb       	out	0x12, r24	; 18
    151a:	c4 dd       	rcall	.-1144   	; 0x10a4 <setup_serial>
    151c:	8c e0       	ldi	r24, 0x0C	; 12
    151e:	71 dd       	rcall	.-1310   	; 0x1002 <lcd_init>
    1520:	80 e6       	ldi	r24, 0x60	; 96
    1522:	90 e0       	ldi	r25, 0x00	; 0
    1524:	56 dd       	rcall	.-1364   	; 0xfd2 <lcd_puts>
    1526:	81 e7       	ldi	r24, 0x71	; 113
    1528:	90 e0       	ldi	r25, 0x00	; 0
    152a:	53 dd       	rcall	.-1370   	; 0xfd2 <lcd_puts>
    152c:	80 e2       	ldi	r24, 0x20	; 32
    152e:	9e e4       	ldi	r25, 0x4E	; 78
    1530:	24 e6       	ldi	r18, 0x64	; 100
    1532:	30 e0       	ldi	r19, 0x00	; 0
    1534:	f9 01       	movw	r30, r18
    1536:	31 97       	sbiw	r30, 0x01	; 1
    1538:	f1 f7       	brne	.-4      	; 0x1536 <main+0x58>
    153a:	01 97       	sbiw	r24, 0x01	; 1
    153c:	d9 f7       	brne	.-10     	; 0x1534 <main+0x56>
    153e:	07 df       	rcall	.-498    	; 0x134e <initInterrupts>
    1540:	78 94       	sei
    1542:	aa 24       	eor	r10, r10
    1544:	bb 24       	eor	r11, r11
    1546:	65 01       	movw	r12, r10
    1548:	4e 01       	movw	r8, r28
    154a:	08 94       	sec
    154c:	81 1c       	adc	r8, r1
    154e:	91 1c       	adc	r9, r1
    1550:	fc e0       	ldi	r31, 0x0C	; 12
    1552:	6f 2e       	mov	r6, r31
    1554:	71 2c       	mov	r7, r1
    1556:	6c 0e       	add	r6, r28
    1558:	7d 1e       	adc	r7, r29
    155a:	84 9b       	sbis	0x10, 4	; 16
    155c:	04 c0       	rjmp	.+8      	; 0x1566 <main+0x88>
    155e:	aa 24       	eor	r10, r10
    1560:	bb 24       	eor	r11, r11
    1562:	65 01       	movw	r12, r10
    1564:	16 c0       	rjmp	.+44     	; 0x1592 <main+0xb4>
    1566:	f8 94       	cli
    1568:	08 94       	sec
    156a:	a1 1c       	adc	r10, r1
    156c:	b1 1c       	adc	r11, r1
    156e:	c1 1c       	adc	r12, r1
    1570:	d1 1c       	adc	r13, r1
    1572:	20 ee       	ldi	r18, 0xE0	; 224
    1574:	a2 16       	cp	r10, r18
    1576:	23 e9       	ldi	r18, 0x93	; 147
    1578:	b2 06       	cpc	r11, r18
    157a:	24 e0       	ldi	r18, 0x04	; 4
    157c:	c2 06       	cpc	r12, r18
    157e:	20 e0       	ldi	r18, 0x00	; 0
    1580:	d2 06       	cpc	r13, r18
    1582:	31 f4       	brne	.+12     	; 0x1590 <main+0xb2>
    1584:	82 b3       	in	r24, 0x12	; 18
    1586:	80 58       	subi	r24, 0x80	; 128
    1588:	82 bb       	out	0x12, r24	; 18
    158a:	aa 24       	eor	r10, r10
    158c:	bb 24       	eor	r11, r11
    158e:	65 01       	movw	r12, r10
    1590:	78 94       	sei
    1592:	20 91 0a 02 	lds	r18, 0x020A
    1596:	30 91 0b 02 	lds	r19, 0x020B
    159a:	40 91 0c 02 	lds	r20, 0x020C
    159e:	50 91 0d 02 	lds	r21, 0x020D
    15a2:	80 91 1d 02 	lds	r24, 0x021D
    15a6:	90 91 1e 02 	lds	r25, 0x021E
    15aa:	a0 91 1f 02 	lds	r26, 0x021F
    15ae:	b0 91 20 02 	lds	r27, 0x0220
    15b2:	28 17       	cp	r18, r24
    15b4:	39 07       	cpc	r19, r25
    15b6:	4a 07       	cpc	r20, r26
    15b8:	5b 07       	cpc	r21, r27
    15ba:	21 f4       	brne	.+8      	; 0x15c4 <main+0xe6>
    15bc:	80 91 12 02 	lds	r24, 0x0212
    15c0:	81 30       	cpi	r24, 0x01	; 1
    15c2:	59 f6       	brne	.-106    	; 0x155a <main+0x7c>
    15c4:	60 91 0a 02 	lds	r22, 0x020A
    15c8:	70 91 0b 02 	lds	r23, 0x020B
    15cc:	80 91 0c 02 	lds	r24, 0x020C
    15d0:	90 91 0d 02 	lds	r25, 0x020D
    15d4:	20 e4       	ldi	r18, 0x40	; 64
    15d6:	32 e4       	ldi	r19, 0x42	; 66
    15d8:	4f e0       	ldi	r20, 0x0F	; 15
    15da:	50 e0       	ldi	r21, 0x00	; 0
    15dc:	17 d1       	rcall	.+558    	; 0x180c <__udivmodsi4>
    15de:	52 2e       	mov	r5, r18
    15e0:	43 2e       	mov	r4, r19
    15e2:	34 2e       	mov	r3, r20
    15e4:	25 2e       	mov	r2, r21
    15e6:	62 2f       	mov	r22, r18
    15e8:	73 2f       	mov	r23, r19
    15ea:	84 2f       	mov	r24, r20
    15ec:	95 2f       	mov	r25, r21
    15ee:	a4 01       	movw	r20, r8
    15f0:	2a e0       	ldi	r18, 0x0A	; 10
    15f2:	30 e0       	ldi	r19, 0x00	; 0
    15f4:	6b d1       	rcall	.+726    	; 0x18cc <ultoa>
    15f6:	80 91 0e 02 	lds	r24, 0x020E
    15fa:	90 91 0f 02 	lds	r25, 0x020F
    15fe:	a0 91 10 02 	lds	r26, 0x0210
    1602:	b0 91 11 02 	lds	r27, 0x0211
    1606:	84 36       	cpi	r24, 0x64	; 100
    1608:	91 05       	cpc	r25, r1
    160a:	a1 05       	cpc	r26, r1
    160c:	b1 05       	cpc	r27, r1
    160e:	69 f1       	breq	.+90     	; 0x166a <main+0x18c>
    1610:	85 36       	cpi	r24, 0x65	; 101
    1612:	91 05       	cpc	r25, r1
    1614:	a1 05       	cpc	r26, r1
    1616:	b1 05       	cpc	r27, r1
    1618:	54 f4       	brge	.+20     	; 0x162e <main+0x150>
    161a:	81 30       	cpi	r24, 0x01	; 1
    161c:	91 05       	cpc	r25, r1
    161e:	a1 05       	cpc	r26, r1
    1620:	b1 05       	cpc	r27, r1
    1622:	d9 f0       	breq	.+54     	; 0x165a <main+0x17c>
    1624:	0a 97       	sbiw	r24, 0x0a	; 10
    1626:	a1 05       	cpc	r26, r1
    1628:	b1 05       	cpc	r27, r1
    162a:	79 f5       	brne	.+94     	; 0x168a <main+0x1ac>
    162c:	1a c0       	rjmp	.+52     	; 0x1662 <main+0x184>
    162e:	80 31       	cpi	r24, 0x10	; 16
    1630:	27 e2       	ldi	r18, 0x27	; 39
    1632:	92 07       	cpc	r25, r18
    1634:	20 e0       	ldi	r18, 0x00	; 0
    1636:	a2 07       	cpc	r26, r18
    1638:	20 e0       	ldi	r18, 0x00	; 0
    163a:	b2 07       	cpc	r27, r18
    163c:	f1 f0       	breq	.+60     	; 0x167a <main+0x19c>
    163e:	80 3a       	cpi	r24, 0xA0	; 160
    1640:	26 e8       	ldi	r18, 0x86	; 134
    1642:	92 07       	cpc	r25, r18
    1644:	21 e0       	ldi	r18, 0x01	; 1
    1646:	a2 07       	cpc	r26, r18
    1648:	20 e0       	ldi	r18, 0x00	; 0
    164a:	b2 07       	cpc	r27, r18
    164c:	d1 f0       	breq	.+52     	; 0x1682 <main+0x1a4>
    164e:	88 5e       	subi	r24, 0xE8	; 232
    1650:	93 40       	sbci	r25, 0x03	; 3
    1652:	a0 40       	sbci	r26, 0x00	; 0
    1654:	b0 40       	sbci	r27, 0x00	; 0
    1656:	c9 f4       	brne	.+50     	; 0x168a <main+0x1ac>
    1658:	0c c0       	rjmp	.+24     	; 0x1672 <main+0x194>
    165a:	c3 01       	movw	r24, r6
    165c:	62 e8       	ldi	r22, 0x82	; 130
    165e:	70 e0       	ldi	r23, 0x00	; 0
    1660:	17 c0       	rjmp	.+46     	; 0x1690 <main+0x1b2>
    1662:	c3 01       	movw	r24, r6
    1664:	61 e9       	ldi	r22, 0x91	; 145
    1666:	70 e0       	ldi	r23, 0x00	; 0
    1668:	13 c0       	rjmp	.+38     	; 0x1690 <main+0x1b2>
    166a:	c3 01       	movw	r24, r6
    166c:	60 ea       	ldi	r22, 0xA0	; 160
    166e:	70 e0       	ldi	r23, 0x00	; 0
    1670:	0f c0       	rjmp	.+30     	; 0x1690 <main+0x1b2>
    1672:	c3 01       	movw	r24, r6
    1674:	6f ea       	ldi	r22, 0xAF	; 175
    1676:	70 e0       	ldi	r23, 0x00	; 0
    1678:	0b c0       	rjmp	.+22     	; 0x1690 <main+0x1b2>
    167a:	c3 01       	movw	r24, r6
    167c:	6e eb       	ldi	r22, 0xBE	; 190
    167e:	70 e0       	ldi	r23, 0x00	; 0
    1680:	07 c0       	rjmp	.+14     	; 0x1690 <main+0x1b2>
    1682:	c3 01       	movw	r24, r6
    1684:	6d ec       	ldi	r22, 0xCD	; 205
    1686:	70 e0       	ldi	r23, 0x00	; 0
    1688:	03 c0       	rjmp	.+6      	; 0x1690 <main+0x1b2>
    168a:	c3 01       	movw	r24, r6
    168c:	6c ed       	ldi	r22, 0xDC	; 220
    168e:	70 e0       	ldi	r23, 0x00	; 0
    1690:	16 d1       	rcall	.+556    	; 0x18be <strcpy>
    1692:	87 dc       	rcall	.-1778   	; 0xfa2 <lcd_clrscr>
    1694:	8b ee       	ldi	r24, 0xEB	; 235
    1696:	90 e0       	ldi	r25, 0x00	; 0
    1698:	9c dc       	rcall	.-1736   	; 0xfd2 <lcd_puts>
    169a:	c3 01       	movw	r24, r6
    169c:	9a dc       	rcall	.-1740   	; 0xfd2 <lcd_puts>
    169e:	c4 01       	movw	r24, r8
    16a0:	98 dc       	rcall	.-1744   	; 0xfd2 <lcd_puts>
    16a2:	8f ee       	ldi	r24, 0xEF	; 239
    16a4:	90 e0       	ldi	r25, 0x00	; 0
    16a6:	95 dc       	rcall	.-1750   	; 0xfd2 <lcd_puts>
    16a8:	60 91 0a 02 	lds	r22, 0x020A
    16ac:	70 91 0b 02 	lds	r23, 0x020B
    16b0:	80 91 0c 02 	lds	r24, 0x020C
    16b4:	90 91 0d 02 	lds	r25, 0x020D
    16b8:	28 ee       	ldi	r18, 0xE8	; 232
    16ba:	33 e0       	ldi	r19, 0x03	; 3
    16bc:	40 e0       	ldi	r20, 0x00	; 0
    16be:	50 e0       	ldi	r21, 0x00	; 0
    16c0:	a5 d0       	rcall	.+330    	; 0x180c <__udivmodsi4>
    16c2:	79 01       	movw	r14, r18
    16c4:	8a 01       	movw	r16, r20
    16c6:	65 2d       	mov	r22, r5
    16c8:	74 2d       	mov	r23, r4
    16ca:	83 2d       	mov	r24, r3
    16cc:	92 2d       	mov	r25, r2
    16ce:	28 ee       	ldi	r18, 0xE8	; 232
    16d0:	33 e0       	ldi	r19, 0x03	; 3
    16d2:	40 e0       	ldi	r20, 0x00	; 0
    16d4:	50 e0       	ldi	r21, 0x00	; 0
    16d6:	7b d0       	rcall	.+246    	; 0x17ce <__mulsi3>
    16d8:	e6 1a       	sub	r14, r22
    16da:	f7 0a       	sbc	r15, r23
    16dc:	08 0b       	sbc	r16, r24
    16de:	19 0b       	sbc	r17, r25
    16e0:	8a e0       	ldi	r24, 0x0A	; 10
    16e2:	e8 16       	cp	r14, r24
    16e4:	f1 04       	cpc	r15, r1
    16e6:	01 05       	cpc	r16, r1
    16e8:	11 05       	cpc	r17, r1
    16ea:	48 f4       	brcc	.+18     	; 0x16fe <main+0x220>
    16ec:	c8 01       	movw	r24, r16
    16ee:	b7 01       	movw	r22, r14
    16f0:	a4 01       	movw	r20, r8
    16f2:	2a e0       	ldi	r18, 0x0A	; 10
    16f4:	30 e0       	ldi	r19, 0x00	; 0
    16f6:	ea d0       	rcall	.+468    	; 0x18cc <ultoa>
    16f8:	81 ef       	ldi	r24, 0xF1	; 241
    16fa:	90 e0       	ldi	r25, 0x00	; 0
    16fc:	0e c0       	rjmp	.+28     	; 0x171a <main+0x23c>
    16fe:	24 e6       	ldi	r18, 0x64	; 100
    1700:	e2 16       	cp	r14, r18
    1702:	f1 04       	cpc	r15, r1
    1704:	01 05       	cpc	r16, r1
    1706:	11 05       	cpc	r17, r1
    1708:	50 f4       	brcc	.+20     	; 0x171e <main+0x240>
    170a:	c8 01       	movw	r24, r16
    170c:	b7 01       	movw	r22, r14
    170e:	a4 01       	movw	r20, r8
    1710:	2a e0       	ldi	r18, 0x0A	; 10
    1712:	30 e0       	ldi	r19, 0x00	; 0
    1714:	db d0       	rcall	.+438    	; 0x18cc <ultoa>
    1716:	84 ef       	ldi	r24, 0xF4	; 244
    1718:	90 e0       	ldi	r25, 0x00	; 0
    171a:	5b dc       	rcall	.-1866   	; 0xfd2 <lcd_puts>
    171c:	06 c0       	rjmp	.+12     	; 0x172a <main+0x24c>
    171e:	c8 01       	movw	r24, r16
    1720:	b7 01       	movw	r22, r14
    1722:	a4 01       	movw	r20, r8
    1724:	2a e0       	ldi	r18, 0x0A	; 10
    1726:	30 e0       	ldi	r19, 0x00	; 0
    1728:	d1 d0       	rcall	.+418    	; 0x18cc <ultoa>
    172a:	c4 01       	movw	r24, r8
    172c:	52 dc       	rcall	.-1884   	; 0xfd2 <lcd_puts>
    172e:	86 ef       	ldi	r24, 0xF6	; 246
    1730:	90 e0       	ldi	r25, 0x00	; 0
    1732:	4f dc       	rcall	.-1890   	; 0xfd2 <lcd_puts>
    1734:	80 91 0a 02 	lds	r24, 0x020A
    1738:	90 91 0b 02 	lds	r25, 0x020B
    173c:	a0 91 0c 02 	lds	r26, 0x020C
    1740:	b0 91 0d 02 	lds	r27, 0x020D
    1744:	e0 90 0a 02 	lds	r14, 0x020A
    1748:	f0 90 0b 02 	lds	r15, 0x020B
    174c:	00 91 0c 02 	lds	r16, 0x020C
    1750:	10 91 0d 02 	lds	r17, 0x020D
    1754:	60 91 0a 02 	lds	r22, 0x020A
    1758:	70 91 0b 02 	lds	r23, 0x020B
    175c:	80 91 0c 02 	lds	r24, 0x020C
    1760:	90 91 0d 02 	lds	r25, 0x020D
    1764:	28 ee       	ldi	r18, 0xE8	; 232
    1766:	33 e0       	ldi	r19, 0x03	; 3
    1768:	40 e0       	ldi	r20, 0x00	; 0
    176a:	50 e0       	ldi	r21, 0x00	; 0
    176c:	4f d0       	rcall	.+158    	; 0x180c <__udivmodsi4>
    176e:	ca 01       	movw	r24, r20
    1770:	b9 01       	movw	r22, r18
    1772:	28 ee       	ldi	r18, 0xE8	; 232
    1774:	33 e0       	ldi	r19, 0x03	; 3
    1776:	40 e0       	ldi	r20, 0x00	; 0
    1778:	50 e0       	ldi	r21, 0x00	; 0
    177a:	29 d0       	rcall	.+82     	; 0x17ce <__mulsi3>
    177c:	e6 1a       	sub	r14, r22
    177e:	f7 0a       	sbc	r15, r23
    1780:	08 0b       	sbc	r16, r24
    1782:	19 0b       	sbc	r17, r25
    1784:	c8 01       	movw	r24, r16
    1786:	b7 01       	movw	r22, r14
    1788:	a4 01       	movw	r20, r8
    178a:	2a e0       	ldi	r18, 0x0A	; 10
    178c:	30 e0       	ldi	r19, 0x00	; 0
    178e:	9e d0       	rcall	.+316    	; 0x18cc <ultoa>
    1790:	c4 01       	movw	r24, r8
    1792:	1f dc       	rcall	.-1986   	; 0xfd2 <lcd_puts>
    1794:	60 91 0a 02 	lds	r22, 0x020A
    1798:	70 91 0b 02 	lds	r23, 0x020B
    179c:	80 91 0c 02 	lds	r24, 0x020C
    17a0:	90 91 0d 02 	lds	r25, 0x020D
    17a4:	ba dc       	rcall	.-1676   	; 0x111a <make_tuning_word>
    17a6:	ab dd       	rcall	.-1194   	; 0x12fe <load_tuning_word_serial>
    17a8:	80 91 0a 02 	lds	r24, 0x020A
    17ac:	90 91 0b 02 	lds	r25, 0x020B
    17b0:	a0 91 0c 02 	lds	r26, 0x020C
    17b4:	b0 91 0d 02 	lds	r27, 0x020D
    17b8:	80 93 1d 02 	sts	0x021D, r24
    17bc:	90 93 1e 02 	sts	0x021E, r25
    17c0:	a0 93 1f 02 	sts	0x021F, r26
    17c4:	b0 93 20 02 	sts	0x0220, r27
    17c8:	10 92 12 02 	sts	0x0212, r1
    17cc:	c6 ce       	rjmp	.-628    	; 0x155a <main+0x7c>

000017ce <__mulsi3>:
    17ce:	62 9f       	mul	r22, r18
    17d0:	d0 01       	movw	r26, r0
    17d2:	73 9f       	mul	r23, r19
    17d4:	f0 01       	movw	r30, r0
    17d6:	82 9f       	mul	r24, r18
    17d8:	e0 0d       	add	r30, r0
    17da:	f1 1d       	adc	r31, r1
    17dc:	64 9f       	mul	r22, r20
    17de:	e0 0d       	add	r30, r0
    17e0:	f1 1d       	adc	r31, r1
    17e2:	92 9f       	mul	r25, r18
    17e4:	f0 0d       	add	r31, r0
    17e6:	83 9f       	mul	r24, r19
    17e8:	f0 0d       	add	r31, r0
    17ea:	74 9f       	mul	r23, r20
    17ec:	f0 0d       	add	r31, r0
    17ee:	65 9f       	mul	r22, r21
    17f0:	f0 0d       	add	r31, r0
    17f2:	99 27       	eor	r25, r25
    17f4:	72 9f       	mul	r23, r18
    17f6:	b0 0d       	add	r27, r0
    17f8:	e1 1d       	adc	r30, r1
    17fa:	f9 1f       	adc	r31, r25
    17fc:	63 9f       	mul	r22, r19
    17fe:	b0 0d       	add	r27, r0
    1800:	e1 1d       	adc	r30, r1
    1802:	f9 1f       	adc	r31, r25
    1804:	bd 01       	movw	r22, r26
    1806:	cf 01       	movw	r24, r30
    1808:	11 24       	eor	r1, r1
    180a:	08 95       	ret

0000180c <__udivmodsi4>:
    180c:	a1 e2       	ldi	r26, 0x21	; 33
    180e:	1a 2e       	mov	r1, r26
    1810:	aa 1b       	sub	r26, r26
    1812:	bb 1b       	sub	r27, r27
    1814:	fd 01       	movw	r30, r26
    1816:	0d c0       	rjmp	.+26     	; 0x1832 <__udivmodsi4_ep>

00001818 <__udivmodsi4_loop>:
    1818:	aa 1f       	adc	r26, r26
    181a:	bb 1f       	adc	r27, r27
    181c:	ee 1f       	adc	r30, r30
    181e:	ff 1f       	adc	r31, r31
    1820:	a2 17       	cp	r26, r18
    1822:	b3 07       	cpc	r27, r19
    1824:	e4 07       	cpc	r30, r20
    1826:	f5 07       	cpc	r31, r21
    1828:	20 f0       	brcs	.+8      	; 0x1832 <__udivmodsi4_ep>
    182a:	a2 1b       	sub	r26, r18
    182c:	b3 0b       	sbc	r27, r19
    182e:	e4 0b       	sbc	r30, r20
    1830:	f5 0b       	sbc	r31, r21

00001832 <__udivmodsi4_ep>:
    1832:	66 1f       	adc	r22, r22
    1834:	77 1f       	adc	r23, r23
    1836:	88 1f       	adc	r24, r24
    1838:	99 1f       	adc	r25, r25
    183a:	1a 94       	dec	r1
    183c:	69 f7       	brne	.-38     	; 0x1818 <__udivmodsi4_loop>
    183e:	60 95       	com	r22
    1840:	70 95       	com	r23
    1842:	80 95       	com	r24
    1844:	90 95       	com	r25
    1846:	9b 01       	movw	r18, r22
    1848:	ac 01       	movw	r20, r24
    184a:	bd 01       	movw	r22, r26
    184c:	cf 01       	movw	r24, r30
    184e:	08 95       	ret

00001850 <__prologue_saves__>:
    1850:	2f 92       	push	r2
    1852:	3f 92       	push	r3
    1854:	4f 92       	push	r4
    1856:	5f 92       	push	r5
    1858:	6f 92       	push	r6
    185a:	7f 92       	push	r7
    185c:	8f 92       	push	r8
    185e:	9f 92       	push	r9
    1860:	af 92       	push	r10
    1862:	bf 92       	push	r11
    1864:	cf 92       	push	r12
    1866:	df 92       	push	r13
    1868:	ef 92       	push	r14
    186a:	ff 92       	push	r15
    186c:	0f 93       	push	r16
    186e:	1f 93       	push	r17
    1870:	cf 93       	push	r28
    1872:	df 93       	push	r29
    1874:	cd b7       	in	r28, 0x3d	; 61
    1876:	de b7       	in	r29, 0x3e	; 62
    1878:	ca 1b       	sub	r28, r26
    187a:	db 0b       	sbc	r29, r27
    187c:	0f b6       	in	r0, 0x3f	; 63
    187e:	f8 94       	cli
    1880:	de bf       	out	0x3e, r29	; 62
    1882:	0f be       	out	0x3f, r0	; 63
    1884:	cd bf       	out	0x3d, r28	; 61
    1886:	09 94       	ijmp

00001888 <__epilogue_restores__>:
    1888:	2a 88       	ldd	r2, Y+18	; 0x12
    188a:	39 88       	ldd	r3, Y+17	; 0x11
    188c:	48 88       	ldd	r4, Y+16	; 0x10
    188e:	5f 84       	ldd	r5, Y+15	; 0x0f
    1890:	6e 84       	ldd	r6, Y+14	; 0x0e
    1892:	7d 84       	ldd	r7, Y+13	; 0x0d
    1894:	8c 84       	ldd	r8, Y+12	; 0x0c
    1896:	9b 84       	ldd	r9, Y+11	; 0x0b
    1898:	aa 84       	ldd	r10, Y+10	; 0x0a
    189a:	b9 84       	ldd	r11, Y+9	; 0x09
    189c:	c8 84       	ldd	r12, Y+8	; 0x08
    189e:	df 80       	ldd	r13, Y+7	; 0x07
    18a0:	ee 80       	ldd	r14, Y+6	; 0x06
    18a2:	fd 80       	ldd	r15, Y+5	; 0x05
    18a4:	0c 81       	ldd	r16, Y+4	; 0x04
    18a6:	1b 81       	ldd	r17, Y+3	; 0x03
    18a8:	aa 81       	ldd	r26, Y+2	; 0x02
    18aa:	b9 81       	ldd	r27, Y+1	; 0x01
    18ac:	ce 0f       	add	r28, r30
    18ae:	d1 1d       	adc	r29, r1
    18b0:	0f b6       	in	r0, 0x3f	; 63
    18b2:	f8 94       	cli
    18b4:	de bf       	out	0x3e, r29	; 62
    18b6:	0f be       	out	0x3f, r0	; 63
    18b8:	cd bf       	out	0x3d, r28	; 61
    18ba:	ed 01       	movw	r28, r26
    18bc:	08 95       	ret

000018be <strcpy>:
    18be:	fb 01       	movw	r30, r22
    18c0:	dc 01       	movw	r26, r24
    18c2:	01 90       	ld	r0, Z+
    18c4:	0d 92       	st	X+, r0
    18c6:	00 20       	and	r0, r0
    18c8:	e1 f7       	brne	.-8      	; 0x18c2 <strcpy+0x4>
    18ca:	08 95       	ret

000018cc <ultoa>:
    18cc:	fa 01       	movw	r30, r20
    18ce:	cf 93       	push	r28
    18d0:	ff 93       	push	r31
    18d2:	ef 93       	push	r30
    18d4:	22 30       	cpi	r18, 0x02	; 2
    18d6:	c4 f0       	brlt	.+48     	; 0x1908 <ultoa+0x3c>
    18d8:	25 32       	cpi	r18, 0x25	; 37
    18da:	b4 f4       	brge	.+44     	; 0x1908 <ultoa+0x3c>
    18dc:	c2 2f       	mov	r28, r18
    18de:	2c 2f       	mov	r18, r28
    18e0:	33 27       	eor	r19, r19
    18e2:	44 27       	eor	r20, r20
    18e4:	55 27       	eor	r21, r21
    18e6:	ff 93       	push	r31
    18e8:	ef 93       	push	r30
    18ea:	90 df       	rcall	.-224    	; 0x180c <__udivmodsi4>
    18ec:	ef 91       	pop	r30
    18ee:	ff 91       	pop	r31
    18f0:	60 5d       	subi	r22, 0xD0	; 208
    18f2:	6a 33       	cpi	r22, 0x3A	; 58
    18f4:	0c f0       	brlt	.+2      	; 0x18f8 <ultoa+0x2c>
    18f6:	69 5d       	subi	r22, 0xD9	; 217
    18f8:	61 93       	st	Z+, r22
    18fa:	b9 01       	movw	r22, r18
    18fc:	ca 01       	movw	r24, r20
    18fe:	60 50       	subi	r22, 0x00	; 0
    1900:	70 40       	sbci	r23, 0x00	; 0
    1902:	80 40       	sbci	r24, 0x00	; 0
    1904:	90 40       	sbci	r25, 0x00	; 0
    1906:	59 f7       	brne	.-42     	; 0x18de <ultoa+0x12>
    1908:	10 82       	st	Z, r1
    190a:	8f 91       	pop	r24
    190c:	9f 91       	pop	r25
    190e:	cf 91       	pop	r28
    1910:	00 c0       	rjmp	.+0      	; 0x1912 <strrev>

00001912 <strrev>:
    1912:	dc 01       	movw	r26, r24
    1914:	fc 01       	movw	r30, r24
    1916:	67 2f       	mov	r22, r23
    1918:	71 91       	ld	r23, Z+
    191a:	77 23       	and	r23, r23
    191c:	e1 f7       	brne	.-8      	; 0x1916 <strrev+0x4>
    191e:	32 97       	sbiw	r30, 0x02	; 2
    1920:	04 c0       	rjmp	.+8      	; 0x192a <strrev+0x18>
    1922:	7c 91       	ld	r23, X
    1924:	6d 93       	st	X+, r22
    1926:	70 83       	st	Z, r23
    1928:	62 91       	ld	r22, -Z
    192a:	ae 17       	cp	r26, r30
    192c:	bf 07       	cpc	r27, r31
    192e:	c8 f3       	brcs	.-14     	; 0x1922 <strrev+0x10>
    1930:	08 95       	ret

00001932 <_exit>:
    1932:	f8 94       	cli

00001934 <__stop_program>:
    1934:	ff cf       	rjmp	.-2      	; 0x1934 <__stop_program>
