Archive member included because of file (symbol)

c:/winavr-20070525/bin/../lib/gcc/avr/4.1.2/avr5\libgcc.a(_mulsi3.o)
                              servo.o (__mulsi3)
c:/winavr-20070525/bin/../lib/gcc/avr/4.1.2/avr5\libgcc.a(_udivmodqi4.o)
                              softuart.o (__udivmodqi4)
c:/winavr-20070525/bin/../lib/gcc/avr/4.1.2/avr5\libgcc.a(_udivmodhi4.o)
                              filesystem.o (__udivmodhi4)
c:/winavr-20070525/bin/../lib/gcc/avr/4.1.2/avr5\libgcc.a(_divmodhi4.o)
                              mca25.o (__divmodhi4)
c:/winavr-20070525/bin/../lib/gcc/avr/4.1.2/avr5\libgcc.a(_udivmodsi4.o)
                              servo.o (__udivmodsi4)
c:/winavr-20070525/bin/../lib/gcc/avr/4.1.2/avr5\libgcc.a(_exit.o)
                              c:/winavr-20070525/bin/../lib/gcc/avr/4.1.2/../../../../avr/lib/avr5/crtm32.o (exit)
c:/winavr-20070525/bin/../lib/gcc/avr/4.1.2/avr5\libgcc.a(_copy_data.o)
                              avrETH1.o (__do_copy_data)
c:/winavr-20070525/bin/../lib/gcc/avr/4.1.2/avr5\libgcc.a(_clear_bss.o)
                              avrETH1.o (__do_clear_bss)
c:/winavr-20070525/bin/../lib/gcc/avr/4.1.2/../../../../avr/lib/avr5\libc.a(ee_rb.1C1D1E.o)
                              logger.o (__eeprom_read_byte_1C1D1E)
c:/winavr-20070525/bin/../lib/gcc/avr/4.1.2/../../../../avr/lib/avr5\libc.a(ee_wb.1C1D1E.o)
                              logger.o (__eeprom_write_byte_1C1D1E)

Allocating common symbols
Common symbol       size              file

servo_pos           0x1               servo.o
logger_lastsave     0x2               logger.o
logger_count        0x1               logger.o
logger_data         0x1               logger.o
arp_table_pointer   0x2               arp.o
httpd_conn          0x8c              httpd.o
filesystem_first_block
                    0x2               filesystem.o
nic_gateway_ip      0x4               mynic.o
tcp_sockets         0xbe              tcp.o
mca25_ready         0x1               mca25.o
mca25_buffer        0x28              mca25.o
mca25_allocated_timeout
                    0x1               mca25.o
ip_identification   0x2               ip.o
clock_timeout_timer
                    0x1               clock.o
mca25_mux_buffer    0x6               mca25.o
filesystem_file_pos
                    0x1               filesystem.o
filesystem_buffer   0x100             filesystem.o
buffer              0x41e             avrETH1.o
mca25_is_rev017     0x1               mca25.o
clock_new_flag      0x1               clock.o
clock_intcount      0x1               clock.o
ntp_client_call_again
                    0x1               ntp_client.o
mca25_allocated_for_socket
                    0x1               mca25.o
filesystem_block_count
                    0x2               filesystem.o
nic_mac             0x6               mynic.o
filesystem_filename_ext
                    0x3               filesystem.o
nic_ip              0x4               mynic.o
filesystem_fileid   0x2               filesystem.o
mca25_datapos       0x4               mca25.o
ntp_client_server_ip
                    0x4               ntp_client.o
enc28j60_revision   0x1               enc28j60.o
filesystem_current_block
                    0x2               filesystem.o
lm75_state          0x1               lm75.o
mca25_jpg_state     0x1               mca25.o
enc28j60_current_bank
                    0x1               enc28j60.o
arp_table           0x28              arp.o
enc28j60_next_packet_ptr
                    0x2               enc28j60.o
mca25_pic_state     0x1               mca25.o
clock               0x3               clock.o
filesystem_status   0x1               filesystem.o
lm75_temp_tmp       0x2               lm75.o
filesystem_filename
                    0x8               filesystem.o

Discarded input sections

 .stabstr       0x00000000        0x0 c:/winavr-20070525/bin/../lib/gcc/avr/4.1.2/../../../../avr/lib/avr5/crtm32.o

Memory Configuration

Name             Origin             Length             Attributes
text             0x00000000         0x00020000         xr
data             0x00800060         0x0000ffa0         rw !x
eeprom           0x00810000         0x00010000         rw !x
*default*        0x00000000         0xffffffff

Linker script and memory map

LOAD c:/winavr-20070525/bin/../lib/gcc/avr/4.1.2/../../../../avr/lib/avr5/crtm32.o
LOAD avrETH1.o
LOAD servo.o
LOAD base64.o
LOAD port.o
LOAD mpf10.o
LOAD mca25.o
LOAD logger.o
LOAD filesystem.o
LOAD lm75.o
LOAD string.o
LOAD plot.o
LOAD httpd.o
LOAD tcp.o
LOAD enc28j60.o
LOAD crc8.o
LOAD dataflash.o
LOAD softuart.o
LOAD clock.o
LOAD icmp.o
LOAD nethelp.o
LOAD mynic.o
LOAD arp.o
LOAD udp.o
LOAD ip.o
LOAD ntp_client.o
LOAD c:/winavr-20070525/bin/../lib/gcc/avr/4.1.2/avr5\libgcc.a
LOAD c:/winavr-20070525/bin/../lib/gcc/avr/4.1.2/../../../../avr/lib/avr5\libc.a
LOAD c:/winavr-20070525/bin/../lib/gcc/avr/4.1.2/avr5\libgcc.a

.hash
 *(.hash)

.dynsym
 *(.dynsym)

.dynstr
 *(.dynstr)

.gnu.version
 *(.gnu.version)

.gnu.version_d
 *(.gnu.version_d)

.gnu.version_r
 *(.gnu.version_r)

.rel.init
 *(.rel.init)

.rela.init
 *(.rela.init)

.rel.text
 *(.rel.text)
 *(.rel.text.*)
 *(.rel.gnu.linkonce.t*)

.rela.text
 *(.rela.text)
 *(.rela.text.*)
 *(.rela.gnu.linkonce.t*)

.rel.fini
 *(.rel.fini)

.rela.fini
 *(.rela.fini)

.rel.rodata
 *(.rel.rodata)
 *(.rel.rodata.*)
 *(.rel.gnu.linkonce.r*)

.rela.rodata
 *(.rela.rodata)
 *(.rela.rodata.*)
 *(.rela.gnu.linkonce.r*)

.rel.data
 *(.rel.data)
 *(.rel.data.*)
 *(.rel.gnu.linkonce.d*)

.rela.data
 *(.rela.data)
 *(.rela.data.*)
 *(.rela.gnu.linkonce.d*)

.rel.ctors
 *(.rel.ctors)

.rela.ctors
 *(.rela.ctors)

.rel.dtors
 *(.rel.dtors)

.rela.dtors
 *(.rela.dtors)

.rel.got
 *(.rel.got)

.rela.got
 *(.rela.got)

.rel.bss
 *(.rel.bss)

.rela.bss
 *(.rela.bss)

.rel.plt
 *(.rel.plt)

.rela.plt
 *(.rela.plt)

.text           0x00000000     0x7b60
 *(.vectors)
 .vectors       0x00000000       0x54 c:/winavr-20070525/bin/../lib/gcc/avr/4.1.2/../../../../avr/lib/avr5/crtm32.o
                0x00000000                __vectors
                0x00000000                __vector_default
 *(.vectors)
 *(.progmem.gcc*)
 .progmem.gcc_sw_table
                0x00000054       0x2a httpd.o
 *(.progmem*)
 .progmem.data  0x0000007e        0x6 avrETH1.o
 .progmem.data  0x00000084       0x3e servo.o
                0x00000084                SERVO_BMP_HEAD
 .progmem.data  0x000000c2      0x4f9 mca25.o
                0x00000162                MCA25_START_CAPTURING
                0x000001e3                MCA25_CONFIG_640x480
                0x000000c2                MCA25_START_JPG
 .progmem.data  0x000005bb       0x68 filesystem.o
 .progmem.data  0x00000623      0x1d3 plot.o
                0x00000661                PLOT_BMP_LEGEND
                0x00000623                PLOT_BMP_HEAD
 .progmem.data  0x000007f6     0x196f httpd.o
                0x00001127                HTTPD_FILE_SITE_MKFS_HTML
                0x00000840                HTTPD_RESPONSE_401
                0x000008e6                HTTPD_RESPONSE_404
                0x00000950                HTTPD_CTYPE_PNG
                0x0000093b                HTTPD_CTYPE_BMP
                0x0000095a                HTTPD_CTYPE_GIF
                0x00001169                HTTPD_FILE_SITE_MKFS2_HTML
                0x000017a7                HTTPD_FILE_SITE_IO_HTML
                0x00001b62                HTTPD_FILE_NOT_FOUND
                0x00001088                HTTPD_FILE_SITE_UPOK_HTML
                0x000013ff                HTTPD_FILE_SITE_CAM_HTML
                0x0000104a                HTTPD_FILE_SITE_FSLS_HTML
                0x00001b62                HTTPD_FILE_SITE_SERVO_OK
                0x00000931                HTTPD_CTYPE_HTML
                0x000007f6                HTTPD_RESPONSE_OK
                0x00001cb5                HTTPD_FILE_ICON_GIF
                0x00000945                HTTPD_CTYPE_JPG
                0x000016ad                HTTPD_FILE_SITE_UPLOAD_HTML
                0x00001218                HTTPD_FILE_SITE_TEMP_HTML
                0x000010be                HTTPD_FILE_SITE_UPERR_HTML
                0x00000f70                HTTPD_FILE_SITE_START_HTML
                0x00001baf                HTTPD_BUTTON_RED
                0x00000964                HTTPD_RNRN
                0x0000104f                HTTPD_FILE_SITE_RMOK_HTML
                0x00001cf8                HTTPD_CAM_BUSY_JPG
                0x00000969                HTTPD_FILE_INDEX_HTML
                0x00001c32                HTTPD_BUTTON_GREEN
 .progmem.data  0x00002165       0x2c enc28j60.o
                0x00002165                enc28j60_config
 .progmem.data  0x00002191        0x3 softuart.o
 .progmem.data  0x00002194        0xc ntp_client.o
                0x00002194                NTP_CLIENT_MONTH_TO_DAYS
                0x000021a0                . = ALIGN (0x2)
                0x000021a0                __trampolines_start = .
 *(.trampolines)
 .trampolines   0x000021a0        0x0 linker stubs
 *(.trampolines*)
                0x000021a0                __trampolines_end = .
 *(.jumptables)
 *(.jumptables*)
 *(.lowtext)
 *(.lowtext*)
                0x000021a0                __ctors_start = .
 *(.ctors)
                0x000021a0                __ctors_end = .
                0x000021a0                __dtors_start = .
 *(.dtors)
                0x000021a0                __dtors_end = .
 SORT(*)(.ctors)
 SORT(*)(.dtors)
 *(.init0)
 .init0         0x000021a0        0x0 c:/winavr-20070525/bin/../lib/gcc/avr/4.1.2/../../../../avr/lib/avr5/crtm32.o
                0x000021a0                __init
 *(.init0)
 *(.init1)
 *(.init1)
 *(.init2)
 .init2         0x000021a0        0xc c:/winavr-20070525/bin/../lib/gcc/avr/4.1.2/../../../../avr/lib/avr5/crtm32.o
 *(.init2)
 *(.init3)
 *(.init3)
 *(.init4)
 .init4         0x000021ac       0x16 c:/winavr-20070525/bin/../lib/gcc/avr/4.1.2/avr5\libgcc.a(_copy_data.o)
                0x000021ac                __do_copy_data
 .init4         0x000021c2       0x10 c:/winavr-20070525/bin/../lib/gcc/avr/4.1.2/avr5\libgcc.a(_clear_bss.o)
                0x000021c2                __do_clear_bss
 *(.init4)
 *(.init5)
 *(.init5)
 *(.init6)
 *(.init6)
 *(.init7)
 *(.init7)
 *(.init8)
 *(.init8)
 *(.init9)
 .init9         0x000021d2        0x8 c:/winavr-20070525/bin/../lib/gcc/avr/4.1.2/../../../../avr/lib/avr5/crtm32.o
 *(.init9)
 *(.text)
 .text          0x000021da        0x4 c:/winavr-20070525/bin/../lib/gcc/avr/4.1.2/../../../../avr/lib/avr5/crtm32.o
                0x000021da                __vector_1
                0x000021da                __vector_12
                0x000021da                __bad_interrupt
                0x000021da                __vector_6
                0x000021da                __vector_3
                0x000021da                __vector_11
                0x000021da                __vector_13
                0x000021da                __vector_17
                0x000021da                __vector_19
                0x000021da                __vector_7
                0x000021da                __vector_5
                0x000021da                __vector_4
                0x000021da                __vector_2
                0x000021da                __vector_15
                0x000021da                __vector_8
                0x000021da                __vector_14
                0x000021da                __vector_10
                0x000021da                __vector_16
                0x000021da                __vector_18
                0x000021da                __vector_20
 .text          0x000021de      0x164 avrETH1.o
                0x000021de                main
 .text          0x00002342       0xd0 servo.o
                0x0000236e                servo_init
                0x0000237c                servo_generate_bmp
                0x00002342                servo_set_pos
 .text          0x00002412      0x112 base64.o
                0x00002448                base64_decode_4to3
                0x000024b6                base64_decode
                0x00002412                base64_reverse_lookup
 .text          0x00002524       0xe2 port.o
                0x000025be                port_get_portbit
                0x00002524                port_set_portbit
 .text          0x00002606       0x4a mpf10.o
                0x0000260c                mpf10_fade
                0x00002606                mpf10_init
 .text          0x00002650      0xb3c mca25.o
                0x000026fc                mca25_uart_init_460800
                0x0000266e                mca25_read_at_command
                0x00002c36                mca25_handle_channel_x23
                0x000026ac                mca25_puts_progmem2
                0x000026ee                mca25_send_data_ack
                0x000026e0                mca25_send_ok
                0x00002be8                mca25_init
                0x00002726                mca25_read_mux_packet
                0x00002650                mca25_cleanup
                0x00002efc                mca25_grab_data
                0x00002c72                mca25_configure
                0x00002884                mca25_init_cam
                0x00002bfa                mca25_handle_channel_x03
                0x0000271e                mca25_uart_init_19200
                0x00002d54                mca25_start_image_grab
                0x0000270a                mca25_uart_init_9600
 .text          0x0000318c      0x1a8 logger.o
                0x00003244                logger_do
                0x0000318c                logger_output_temp
                0x000032e2                logger_init
 .text          0x00003334      0xffc filesystem.o
                0x00003db8                filesystem_open_file_wr
                0x00003cae                filesystem_delete_file
                0x00003aee                filesystem_list_files
                0x00003b36                filesystem_search_file
                0x00003a40                filesystem_filename_to_buffer
                0x000037a4                filesystem_get_data
                0x00003eb8                filesystem_init
                0x000033b8                filesystem_store_current_block
                0x00003334                filesystem_format
                0x000034fc                filesystem_write_data
                0x00003974                filesystem_get_next_byte
                0x00003714                filesystem_allocate_fileid
                0x00003596                filesystem_close_file
                0x00003376                filesystem_allocate_block
                0x00004038                filesystem_generate_index
                0x00003f04                filesystem_get_data_startat
 .text          0x00004330      0x1f8 lm75.o
                0x00004376                lm75_read
                0x00004386                lm75_write
                0x00004368                lm75_send_byte
                0x00004348                lm75_send_start
                0x00004394                lm75_nonblocking_temp_read
                0x00004330                lm75_init
                0x00004354                lm75_send_stop
                0x0000435a                lm75_send_device_address
 .text          0x00004528      0x2ae string.o
                0x000045fa                string_buffer_to_uint32
                0x00004712                string_uint8_to_buffer_02dez
                0x00004732                string_progmem_to_buffer
                0x00004528                string_compare_progmem2
                0x0000474c                string_search_progmem
                0x000046b4                string_uint8_to_buffer
                0x0000457a                string_compare_progmem_plen2
                0x000045ae                string_uint16_to_buffer
                0x00004674                string_buffer_to_uint16
 .text          0x000047d6      0x386 plot.o
                0x000047d8                plot_generate_bmp
                0x000047d6                plot_test
 .text          0x00004b5c     0x12c4 httpd.o
                0x00004ea2                httpd_data_in
                0x00004b86                httpd_add_progmem_data_bin
                0x00004bdc                httpd_add_progmem_data
                0x00005e06                httpd_init
                0x00004b5c                httpd_cleanup_conn
 .text          0x00005e20      0x75e tcp.o
                0x00006028                tcp_find_free_socket
                0x00005fec                tcp_ttl_cleanup
                0x00005fca                tcp_close_socket
                0x00006078                tcp_init
                0x00005e20                tcp_send_packet
                0x00006094                tcp_packet_in
 .text          0x0000657e      0x3c0 enc28j60.o
                0x00006810                enc28j60_send_packet
                0x000068a0                enc28j60_init
                0x0000657e                enc28j60_read_buffer
                0x000066a0                enc28j60_read_phy
                0x0000663a                enc28j60_read_address
                0x00006650                enc28j60_write_address
                0x000066e6                enc28j60_receive_packet
                0x000065a6                enc28j60_write_buffer
                0x000065f4                enc28j60_spi_write_word
                0x0000666e                enc28j60_write_phy
                0x00006606                enc28j60_select_bank
                0x000065ce                enc28j60_spi_read_byte
 .text          0x0000693e       0xd8 crc8.o
                0x000069da                crc8_calc
                0x0000698c                crc8_calc_byte
                0x0000693e                crc8_calc_byte_rev0x07
 .text          0x00006a16      0x388 dataflash.o
                0x00006b6c                dataflash_read_flash
                0x00006b40                dataflash_init
                0x00006a16                dataflash_busy_wait
                0x00006a94                dataflash_copy_page_to_buffer
                0x00006bf2                dataflash_read_n_to_buffer
                0x00006afc                dataflash_dump
                0x00006cc4                dataflash_write_n_to_page_buffer
                0x00006af0                dataflash_spi_writeread_byte
                0x00006d42                dataflash_copy_buffer_to_page
                0x00006a32                dataflash_read_buffer
                0x00006c66                dataflash_write_to_page_buffer
 .text          0x00006d9e      0x174 softuart.o
                0x00006e5e                softuart_put_uint16
                0x00006e10                softuart_put_uint8
                0x00006f0e                softuart_init
                0x00006d9e                softuart_putc
                0x00006de6                softuart_puts_progmem2
                0x00006dcc                softuart_puts
                0x00006ebe                softuart_put_ip
                0x00006e06                softuart_putnewline
 .text          0x00006f12       0xfc clock.o
                0x00006f8c                clock_do
                0x00006f12                clock_init
                0x00006f42                __vector_9
 .text          0x0000700e       0xe0 icmp.o
                0x0000700e                icmp_packet_in
 .text          0x000070ee       0x84 nethelp.o
                0x000070ee                nethelp_checksum
 .text          0x00007172      0x180 mynic.o
                0x000072b4                nic_init
                0x0000718c                nic_buffer_to_unsigned_int
                0x00007224                nic_buffer_to_seq
                0x000072ae                nic_send_packet
                0x000072a8                nic_receive_packet
                0x000071a0                nic_buffer_to_ip
                0x00007286                nic_seq_to_buffer
                0x00007202                nic_ip_to_buffer
                0x00007172                nic_copy_mac_to_buf
 .text          0x000072f2      0x35a arp.o
                0x000073d0                arp_search_by_ip
                0x000073ce                arp_print_table
                0x00007402                arp_send_request
                0x000072f2                arp_init
                0x0000733c                arp_add_mac2ip
                0x00007498                arp_packet_in
 .text          0x0000764c       0x76 udp.o
                0x0000764c                udp_generate_packet
 .text          0x000076c2       0xda ip.o
                0x000076c2                ip_generate_packet
 .text          0x0000779c      0x2b2 ntp_client.o
                0x00007970                ntp_client_send_request
                0x000077ba                ntp_client_timestamp_to_time
                0x0000779c                ntp_client_init
                0x000078dc                ntp_client_decode_packet
 .text          0x00007a4e        0x0 c:/winavr-20070525/bin/../lib/gcc/avr/4.1.2/avr5\libgcc.a(_mulsi3.o)
 .text          0x00007a4e        0x0 c:/winavr-20070525/bin/../lib/gcc/avr/4.1.2/avr5\libgcc.a(_udivmodqi4.o)
 .text          0x00007a4e        0x0 c:/winavr-20070525/bin/../lib/gcc/avr/4.1.2/avr5\libgcc.a(_udivmodhi4.o)
 .text          0x00007a4e        0x0 c:/winavr-20070525/bin/../lib/gcc/avr/4.1.2/avr5\libgcc.a(_divmodhi4.o)
 .text          0x00007a4e        0x0 c:/winavr-20070525/bin/../lib/gcc/avr/4.1.2/avr5\libgcc.a(_udivmodsi4.o)
 .text          0x00007a4e        0x0 c:/winavr-20070525/bin/../lib/gcc/avr/4.1.2/avr5\libgcc.a(_exit.o)
 .text          0x00007a4e        0x0 c:/winavr-20070525/bin/../lib/gcc/avr/4.1.2/avr5\libgcc.a(_copy_data.o)
 .text          0x00007a4e        0x0 c:/winavr-20070525/bin/../lib/gcc/avr/4.1.2/avr5\libgcc.a(_clear_bss.o)
 .text          0x00007a4e        0x0 c:/winavr-20070525/bin/../lib/gcc/avr/4.1.2/../../../../avr/lib/avr5\libc.a(ee_rb.1C1D1E.o)
 .text          0x00007a4e        0x0 c:/winavr-20070525/bin/../lib/gcc/avr/4.1.2/../../../../avr/lib/avr5\libc.a(ee_wb.1C1D1E.o)
                0x00007a4e                . = ALIGN (0x2)
 *(.text.*)
 .text.libgcc   0x00007a4e       0x3e c:/winavr-20070525/bin/../lib/gcc/avr/4.1.2/avr5\libgcc.a(_mulsi3.o)
                0x00007a4e                __mulsi3
 .text.libgcc   0x00007a8c       0x18 c:/winavr-20070525/bin/../lib/gcc/avr/4.1.2/avr5\libgcc.a(_udivmodqi4.o)
                0x00007a8c                __udivmodqi4
 .text.libgcc   0x00007aa4       0x28 c:/winavr-20070525/bin/../lib/gcc/avr/4.1.2/avr5\libgcc.a(_udivmodhi4.o)
                0x00007aa4                __udivmodhi4
 .text.libgcc   0x00007acc       0x26 c:/winavr-20070525/bin/../lib/gcc/avr/4.1.2/avr5\libgcc.a(_divmodhi4.o)
                0x00007acc                __divmodhi4
                0x00007acc                _div
 .text.libgcc   0x00007af2       0x44 c:/winavr-20070525/bin/../lib/gcc/avr/4.1.2/avr5\libgcc.a(_udivmodsi4.o)
                0x00007af2                __udivmodsi4
 .text.libgcc   0x00007b36        0x0 c:/winavr-20070525/bin/../lib/gcc/avr/4.1.2/avr5\libgcc.a(_exit.o)
 .text.libgcc   0x00007b36        0x0 c:/winavr-20070525/bin/../lib/gcc/avr/4.1.2/avr5\libgcc.a(_copy_data.o)
 .text.libgcc   0x00007b36        0x0 c:/winavr-20070525/bin/../lib/gcc/avr/4.1.2/avr5\libgcc.a(_clear_bss.o)
 .text.eeprom   0x00007b36       0x10 c:/winavr-20070525/bin/../lib/gcc/avr/4.1.2/../../../../avr/lib/avr5\libc.a(ee_rb.1C1D1E.o)
                0x00007b36                __eeprom_read_byte_1C1D1E
 .text.eeprom   0x00007b46       0x18 c:/winavr-20070525/bin/../lib/gcc/avr/4.1.2/../../../../avr/lib/avr5\libc.a(ee_wb.1C1D1E.o)
                0x00007b46                __eeprom_write_byte_1C1D1E
                0x00007b5e                . = ALIGN (0x2)
 *(.fini9)
 .fini9         0x00007b5e        0x0 c:/winavr-20070525/bin/../lib/gcc/avr/4.1.2/avr5\libgcc.a(_exit.o)
                0x00007b5e                exit
                0x00007b5e                _exit
 *(.fini9)
 *(.fini8)
 *(.fini8)
 *(.fini7)
 *(.fini7)
 *(.fini6)
 *(.fini6)
 *(.fini5)
 *(.fini5)
 *(.fini4)
 *(.fini4)
 *(.fini3)
 *(.fini3)
 *(.fini2)
 *(.fini2)
 *(.fini1)
 *(.fini1)
 *(.fini0)
 .fini0         0x00007b5e        0x2 c:/winavr-20070525/bin/../lib/gcc/avr/4.1.2/avr5\libgcc.a(_exit.o)
 *(.fini0)
                0x00007b60                _etext = .

.data           0x00800060       0x1c load address 0x00007b60
                0x00800060                PROVIDE (__data_start, .)
 *(.data)
 .data          0x00800060        0x0 c:/winavr-20070525/bin/../lib/gcc/avr/4.1.2/../../../../avr/lib/avr5/crtm32.o
 .data          0x00800060       0x10 avrETH1.o
 .data          0x00800070        0x0 servo.o
 .data          0x00800070        0x0 base64.o
 .data          0x00800070        0x0 port.o
 .data          0x00800070        0x0 mpf10.o
 .data          0x00800070        0x0 mca25.o
 .data          0x00800070        0x0 logger.o
 .data          0x00800070        0x0 filesystem.o
 .data          0x00800070        0x0 lm75.o
 .data          0x00800070        0x0 string.o
 .data          0x00800070        0x0 plot.o
 .data          0x00800070        0xb httpd.o
 .data          0x0080007b        0x0 tcp.o
 .data          0x0080007b        0x0 enc28j60.o
 .data          0x0080007b        0x0 crc8.o
 .data          0x0080007b        0x0 dataflash.o
 .data          0x0080007b        0x0 softuart.o
 .data          0x0080007b        0x0 clock.o
 .data          0x0080007b        0x0 icmp.o
 .data          0x0080007b        0x0 nethelp.o
 .data          0x0080007b        0x0 mynic.o
 .data          0x0080007b        0x0 arp.o
 .data          0x0080007b        0x0 udp.o
 .data          0x0080007b        0x0 ip.o
 .data          0x0080007b        0x0 ntp_client.o
 .data          0x0080007b        0x0 c:/winavr-20070525/bin/../lib/gcc/avr/4.1.2/avr5\libgcc.a(_mulsi3.o)
 .data          0x0080007b        0x0 c:/winavr-20070525/bin/../lib/gcc/avr/4.1.2/avr5\libgcc.a(_udivmodqi4.o)
 .data          0x0080007b        0x0 c:/winavr-20070525/bin/../lib/gcc/avr/4.1.2/avr5\libgcc.a(_udivmodhi4.o)
 .data          0x0080007b        0x0 c:/winavr-20070525/bin/../lib/gcc/avr/4.1.2/avr5\libgcc.a(_divmodhi4.o)
 .data          0x0080007b        0x0 c:/winavr-20070525/bin/../lib/gcc/avr/4.1.2/avr5\libgcc.a(_udivmodsi4.o)
 .data          0x0080007b        0x0 c:/winavr-20070525/bin/../lib/gcc/avr/4.1.2/avr5\libgcc.a(_exit.o)
 .data          0x0080007b        0x0 c:/winavr-20070525/bin/../lib/gcc/avr/4.1.2/avr5\libgcc.a(_copy_data.o)
 .data          0x0080007b        0x0 c:/winavr-20070525/bin/../lib/gcc/avr/4.1.2/avr5\libgcc.a(_clear_bss.o)
 .data          0x0080007b        0x0 c:/winavr-20070525/bin/../lib/gcc/avr/4.1.2/../../../../avr/lib/avr5\libc.a(ee_rb.1C1D1E.o)
 .data          0x0080007b        0x0 c:/winavr-20070525/bin/../lib/gcc/avr/4.1.2/../../../../avr/lib/avr5\libc.a(ee_wb.1C1D1E.o)
 *(.data*)
 *(.rodata)
 *(.rodata*)
 *(.gnu.linkonce.d*)
                0x0080007c                . = ALIGN (0x2)
 *fill*         0x0080007b        0x1 00
                0x0080007c                _edata = .
                0x0080007c                PROVIDE (__data_end, .)

.bss            0x0080007c      0x706
                0x0080007c                PROVIDE (__bss_start, .)
 *(.bss)
 .bss           0x0080007c        0x0 c:/winavr-20070525/bin/../lib/gcc/avr/4.1.2/../../../../avr/lib/avr5/crtm32.o
 .bss           0x0080007c        0x0 avrETH1.o
 .bss           0x0080007c        0x0 servo.o
 .bss           0x0080007c        0x0 base64.o
 .bss           0x0080007c        0x0 port.o
 .bss           0x0080007c        0x0 mpf10.o
 .bss           0x0080007c        0x0 mca25.o
 .bss           0x0080007c        0x0 logger.o
 .bss           0x0080007c        0x0 filesystem.o
 .bss           0x0080007c        0x0 lm75.o
 .bss           0x0080007c        0x0 string.o
 .bss           0x0080007c        0x0 plot.o
 .bss           0x0080007c        0x0 httpd.o
 .bss           0x0080007c        0x0 tcp.o
 .bss           0x0080007c        0x0 enc28j60.o
 .bss           0x0080007c        0x0 crc8.o
 .bss           0x0080007c        0x0 dataflash.o
 .bss           0x0080007c        0x0 softuart.o
 .bss           0x0080007c        0x0 clock.o
 .bss           0x0080007c        0x0 icmp.o
 .bss           0x0080007c        0x0 nethelp.o
 .bss           0x0080007c        0x0 mynic.o
 .bss           0x0080007c        0x0 arp.o
 .bss           0x0080007c        0x0 udp.o
 .bss           0x0080007c        0x0 ip.o
 .bss           0x0080007c        0x0 ntp_client.o
 .bss           0x0080007c        0x0 c:/winavr-20070525/bin/../lib/gcc/avr/4.1.2/avr5\libgcc.a(_mulsi3.o)
 .bss           0x0080007c        0x0 c:/winavr-20070525/bin/../lib/gcc/avr/4.1.2/avr5\libgcc.a(_udivmodqi4.o)
 .bss           0x0080007c        0x0 c:/winavr-20070525/bin/../lib/gcc/avr/4.1.2/avr5\libgcc.a(_udivmodhi4.o)
 .bss           0x0080007c        0x0 c:/winavr-20070525/bin/../lib/gcc/avr/4.1.2/avr5\libgcc.a(_divmodhi4.o)
 .bss           0x0080007c        0x0 c:/winavr-20070525/bin/../lib/gcc/avr/4.1.2/avr5\libgcc.a(_udivmodsi4.o)
 .bss           0x0080007c        0x0 c:/winavr-20070525/bin/../lib/gcc/avr/4.1.2/avr5\libgcc.a(_exit.o)
 .bss           0x0080007c        0x0 c:/winavr-20070525/bin/../lib/gcc/avr/4.1.2/avr5\libgcc.a(_copy_data.o)
 .bss           0x0080007c        0x0 c:/winavr-20070525/bin/../lib/gcc/avr/4.1.2/avr5\libgcc.a(_clear_bss.o)
 .bss           0x0080007c        0x0 c:/winavr-20070525/bin/../lib/gcc/avr/4.1.2/../../../../avr/lib/avr5\libc.a(ee_rb.1C1D1E.o)
 .bss           0x0080007c        0x0 c:/winavr-20070525/bin/../lib/gcc/avr/4.1.2/../../../../avr/lib/avr5\libc.a(ee_wb.1C1D1E.o)
 *(.bss*)
 *(COMMON)
 COMMON         0x0080007c      0x41e avrETH1.o
                0x0080007c                buffer
 COMMON         0x0080049a        0x1 servo.o
                0x0080049a                servo_pos
 COMMON         0x0080049b       0x38 mca25.o
                0x0080049b                mca25_ready
                0x0080049c                mca25_buffer
                0x008004c4                mca25_allocated_timeout
                0x008004c5                mca25_mux_buffer
                0x008004cb                mca25_is_rev017
                0x008004cc                mca25_allocated_for_socket
                0x008004cd                mca25_datapos
                0x008004d1                mca25_jpg_state
                0x008004d2                mca25_pic_state
 COMMON         0x008004d3        0x4 logger.o
                0x008004d3                logger_lastsave
                0x008004d5                logger_count
                0x008004d6                logger_data
 COMMON         0x008004d7      0x115 filesystem.o
                0x008004d7                filesystem_first_block
                0x008004d9                filesystem_file_pos
                0x008004da                filesystem_buffer
                0x008005da                filesystem_block_count
                0x008005dc                filesystem_filename_ext
                0x008005df                filesystem_fileid
                0x008005e1                filesystem_current_block
                0x008005e3                filesystem_status
                0x008005e4                filesystem_filename
 COMMON         0x008005ec        0x3 lm75.o
                0x008005ec                lm75_state
                0x008005ed                lm75_temp_tmp
 COMMON         0x008005ef       0x8c httpd.o
                0x008005ef                httpd_conn
 COMMON         0x0080067b       0xbe tcp.o
                0x0080067b                tcp_sockets
 COMMON         0x00800739        0x4 enc28j60.o
                0x00800739                enc28j60_revision
                0x0080073a                enc28j60_current_bank
                0x0080073b                enc28j60_next_packet_ptr
 COMMON         0x0080073d        0x6 clock.o
                0x0080073d                clock_timeout_timer
                0x0080073e                clock_new_flag
                0x0080073f                clock_intcount
                0x00800740                clock
 COMMON         0x00800743        0xe mynic.o
                0x00800743                nic_gateway_ip
                0x00800747                nic_mac
                0x0080074d                nic_ip
 COMMON         0x00800751       0x2a arp.o
                0x00800751                arp_table_pointer
                0x00800753                arp_table
 COMMON         0x0080077b        0x2 ip.o
                0x0080077b                ip_identification
 COMMON         0x0080077d        0x5 ntp_client.o
                0x0080077d                ntp_client_call_again
                0x0080077e                ntp_client_server_ip
                0x00800782                PROVIDE (__bss_end, .)
                0x00007b60                __data_load_start = LOADADDR (.data)
                0x00007b7c                __data_load_end = (__data_load_start + SIZEOF (.data))

.noinit         0x00800782        0x0
                0x00800782                PROVIDE (__noinit_start, .)
 *(.noinit*)
                0x00800782                PROVIDE (__noinit_end, .)
                0x00800782                _end = .
                0x00800782                PROVIDE (__heap_start, .)

.eeprom         0x00810000       0xf0
 *(.eeprom*)
 .eeprom        0x00810000       0xf0 logger.o
                0x00810000                logger_temp_today
                0x008100f0                __eeprom_end = .

.stab           0x00000000      0x378
 *(.stab)
 .stab          0x00000000      0x378 c:/winavr-20070525/bin/../lib/gcc/avr/4.1.2/../../../../avr/lib/avr5/crtm32.o

.stabstr        0x00000000       0x71
 *(.stabstr)
 .stabstr       0x00000000       0x71 c:/winavr-20070525/bin/../lib/gcc/avr/4.1.2/../../../../avr/lib/avr5/crtm32.o

.stab.excl
 *(.stab.excl)

.stab.exclstr
 *(.stab.exclstr)

.stab.index
 *(.stab.index)

.stab.indexstr
 *(.stab.indexstr)

.comment
 *(.comment)

.debug
 *(.debug)

.line
 *(.line)

.debug_srcinfo
 *(.debug_srcinfo)

.debug_sfnames
 *(.debug_sfnames)

.debug_aranges  0x00000000      0x320
 *(.debug_aranges)
 .debug_aranges
                0x00000000       0x20 avrETH1.o
 .debug_aranges
                0x00000020       0x20 servo.o
 .debug_aranges
                0x00000040       0x20 base64.o
 .debug_aranges
                0x00000060       0x20 port.o
 .debug_aranges
                0x00000080       0x20 mpf10.o
 .debug_aranges
                0x000000a0       0x20 mca25.o
 .debug_aranges
                0x000000c0       0x20 logger.o
 .debug_aranges
                0x000000e0       0x20 filesystem.o
 .debug_aranges
                0x00000100       0x20 lm75.o
 .debug_aranges
                0x00000120       0x20 string.o
 .debug_aranges
                0x00000140       0x20 plot.o
 .debug_aranges
                0x00000160       0x20 httpd.o
 .debug_aranges
                0x00000180       0x20 tcp.o
 .debug_aranges
                0x000001a0       0x20 enc28j60.o
 .debug_aranges
                0x000001c0       0x20 crc8.o
 .debug_aranges
                0x000001e0       0x20 dataflash.o
 .debug_aranges
                0x00000200       0x20 softuart.o
 .debug_aranges
                0x00000220       0x20 clock.o
 .debug_aranges
                0x00000240       0x20 icmp.o
 .debug_aranges
                0x00000260       0x20 nethelp.o
 .debug_aranges
                0x00000280       0x20 mynic.o
 .debug_aranges
                0x000002a0       0x20 arp.o
 .debug_aranges
                0x000002c0       0x20 udp.o
 .debug_aranges
                0x000002e0       0x20 ip.o
 .debug_aranges
                0x00000300       0x20 ntp_client.o

.debug_pubnames
                0x00000000     0x14ed
 *(.debug_pubnames)
 .debug_pubnames
                0x00000000       0x26 avrETH1.o
 .debug_pubnames
                0x00000026       0x6b servo.o
 .debug_pubnames
                0x00000091       0x55 base64.o
 .debug_pubnames
                0x000000e6       0x3c port.o
 .debug_pubnames
                0x00000122       0x30 mpf10.o
 .debug_pubnames
                0x00000152      0x28d mca25.o
 .debug_pubnames
                0x000003df       0x92 logger.o
 .debug_pubnames
                0x00000471      0x2b2 filesystem.o
 .debug_pubnames
                0x00000723       0xd4 lm75.o
 .debug_pubnames
                0x000007f7      0x116 string.o
 .debug_pubnames
                0x0000090d       0x5c plot.o
 .debug_pubnames
                0x00000969      0x342 httpd.o
 .debug_pubnames
                0x00000cab       0x97 tcp.o
 .debug_pubnames
                0x00000d42      0x19f enc28j60.o
 .debug_pubnames
                0x00000ee1       0x4e crc8.o
 .debug_pubnames
                0x00000f2f      0x14f dataflash.o
 .debug_pubnames
                0x0000107e       0xbe softuart.o
 .debug_pubnames
                0x0000113c       0x85 clock.o
 .debug_pubnames
                0x000011c1       0x25 icmp.o
 .debug_pubnames
                0x000011e6       0x27 nethelp.o
 .debug_pubnames
                0x0000120d      0x101 mynic.o
 .debug_pubnames
                0x0000130e       0xa6 arp.o
 .debug_pubnames
                0x000013b4       0x2a udp.o
 .debug_pubnames
                0x000013de       0x3f ip.o
 .debug_pubnames
                0x0000141d       0xd0 ntp_client.o

.debug_info     0x00000000     0x6947
 *(.debug_info)
 .debug_info    0x00000000      0x30f avrETH1.o
 .debug_info    0x0000030f      0x230 servo.o
 .debug_info    0x0000053f      0x15f base64.o
 .debug_info    0x0000069e      0x143 port.o
 .debug_info    0x000007e1      0x1b5 mpf10.o
 .debug_info    0x00000996      0xe0b mca25.o
 .debug_info    0x000017a1      0x2eb logger.o
 .debug_info    0x00001a8c      0x8dc filesystem.o
 .debug_info    0x00002368      0x299 lm75.o
 .debug_info    0x00002601      0x47f string.o
 .debug_info    0x00002a80      0x3af plot.o
 .debug_info    0x00002e2f      0xf82 httpd.o
 .debug_info    0x00003db1      0x3d9 tcp.o
 .debug_info    0x0000418a      0x5df enc28j60.o
 .debug_info    0x00004769      0x17b crc8.o
 .debug_info    0x000048e4      0xcae dataflash.o
 .debug_info    0x00005592      0x3e9 softuart.o
 .debug_info    0x0000597b      0x14a clock.o
 .debug_info    0x00005ac5      0x175 icmp.o
 .debug_info    0x00005c3a      0x112 nethelp.o
 .debug_info    0x00005d4c      0x2de mynic.o
 .debug_info    0x0000602a      0x2e8 arp.o
 .debug_info    0x00006312      0x131 udp.o
 .debug_info    0x00006443      0x1a5 ip.o
 .debug_info    0x000065e8      0x35f ntp_client.o
 *(.gnu.linkonce.wi.*)

.debug_abbrev   0x00000000     0x1ea5
 *(.debug_abbrev)
 .debug_abbrev  0x00000000      0x132 avrETH1.o
 .debug_abbrev  0x00000132      0x13c servo.o
 .debug_abbrev  0x0000026e       0xae base64.o
 .debug_abbrev  0x0000031c       0xa6 port.o
 .debug_abbrev  0x000003c2       0xfa mpf10.o
 .debug_abbrev  0x000004bc      0x29b mca25.o
 .debug_abbrev  0x00000757      0x16f logger.o
 .debug_abbrev  0x000008c6      0x18f filesystem.o
 .debug_abbrev  0x00000a55      0x13e lm75.o
 .debug_abbrev  0x00000b93      0x134 string.o
 .debug_abbrev  0x00000cc7      0x17e plot.o
 .debug_abbrev  0x00000e45      0x26a httpd.o
 .debug_abbrev  0x000010af      0x192 tcp.o
 .debug_abbrev  0x00001241      0x1fe enc28j60.o
 .debug_abbrev  0x0000143f       0x88 crc8.o
 .debug_abbrev  0x000014c7      0x201 dataflash.o
 .debug_abbrev  0x000016c8      0x154 softuart.o
 .debug_abbrev  0x0000181c       0x8f clock.o
 .debug_abbrev  0x000018ab       0xc5 icmp.o
 .debug_abbrev  0x00001970       0x86 nethelp.o
 .debug_abbrev  0x000019f6       0xf1 mynic.o
 .debug_abbrev  0x00001ae7      0x13f arp.o
 .debug_abbrev  0x00001c26       0x75 udp.o
 .debug_abbrev  0x00001c9b       0xcc ip.o
 .debug_abbrev  0x00001d67      0x13e ntp_client.o

.debug_line     0x00000000     0x5b52
 *(.debug_line)
 .debug_line    0x00000000      0x2ec avrETH1.o
 .debug_line    0x000002ec      0x1c0 servo.o
 .debug_line    0x000004ac      0x19a base64.o
 .debug_line    0x00000646      0x195 port.o
 .debug_line    0x000007db      0x182 mpf10.o
 .debug_line    0x0000095d      0xa75 mca25.o
 .debug_line    0x000013d2      0x26b logger.o
 .debug_line    0x0000163d      0xa24 filesystem.o
 .debug_line    0x00002061      0x36f lm75.o
 .debug_line    0x000023d0      0x2df string.o
 .debug_line    0x000026af      0x3d3 plot.o
 .debug_line    0x00002a82      0xa10 httpd.o
 .debug_line    0x00003492      0x534 tcp.o
 .debug_line    0x000039c6      0x4e9 enc28j60.o
 .debug_line    0x00003eaf      0x1c9 crc8.o
 .debug_line    0x00004078      0x858 dataflash.o
 .debug_line    0x000048d0      0x297 softuart.o
 .debug_line    0x00004b67      0x1e6 clock.o
 .debug_line    0x00004d4d      0x1a2 icmp.o
 .debug_line    0x00004eef      0x133 nethelp.o
 .debug_line    0x00005022      0x204 mynic.o
 .debug_line    0x00005226      0x32f arp.o
 .debug_line    0x00005555      0x166 udp.o
 .debug_line    0x000056bb      0x1e0 ip.o
 .debug_line    0x0000589b      0x2b7 ntp_client.o

.debug_frame    0x00000000      0xa10
 *(.debug_frame)
 .debug_frame   0x00000000       0x20 avrETH1.o
 .debug_frame   0x00000020       0x40 servo.o
 .debug_frame   0x00000060       0x40 base64.o
 .debug_frame   0x000000a0       0x30 port.o
 .debug_frame   0x000000d0       0x30 mpf10.o
 .debug_frame   0x00000100      0x110 mca25.o
 .debug_frame   0x00000210       0x40 logger.o
 .debug_frame   0x00000250      0x110 filesystem.o
 .debug_frame   0x00000360       0x90 lm75.o
 .debug_frame   0x000003f0       0xa0 string.o
 .debug_frame   0x00000490       0x30 plot.o
 .debug_frame   0x000004c0       0x60 httpd.o
 .debug_frame   0x00000520       0x70 tcp.o
 .debug_frame   0x00000590       0xd0 enc28j60.o
 .debug_frame   0x00000660       0x40 crc8.o
 .debug_frame   0x000006a0       0xc0 dataflash.o
 .debug_frame   0x00000760       0x90 softuart.o
 .debug_frame   0x000007f0       0x40 clock.o
 .debug_frame   0x00000830       0x20 icmp.o
 .debug_frame   0x00000850       0x20 nethelp.o
 .debug_frame   0x00000870       0xa0 mynic.o
 .debug_frame   0x00000910       0x70 arp.o
 .debug_frame   0x00000980       0x20 udp.o
 .debug_frame   0x000009a0       0x20 ip.o
 .debug_frame   0x000009c0       0x50 ntp_client.o

.debug_str      0x00000000     0x15b4
 *(.debug_str)
 .debug_str     0x00000000      0x10f avrETH1.o
                                0x178 (size before relaxing)
 .debug_str     0x0000010f       0x98 servo.o
                                0x18b (size before relaxing)
 .debug_str     0x000001a7       0x47 base64.o
                                0x12b (size before relaxing)
 .debug_str     0x000001ee       0x38 port.o
                                0x126 (size before relaxing)
 .debug_str     0x00000226       0x49 mpf10.o
                                0x157 (size before relaxing)
 .debug_str     0x0000026f      0x262 mca25.o
                                0x3d5 (size before relaxing)
 .debug_str     0x000004d1       0xa8 logger.o
                                0x1b9 (size before relaxing)
 .debug_str     0x00000579      0x2aa filesystem.o
                                0x3e1 (size before relaxing)
 .debug_str     0x00000823       0xae lm75.o
                                0x1a1 (size before relaxing)
 .debug_str     0x000008d1      0x110 string.o
                                0x22d (size before relaxing)
 .debug_str     0x000009e1       0x82 plot.o
                                0x1ea (size before relaxing)
 .debug_str     0x00000a63      0x3f9 httpd.o
                                0x54b (size before relaxing)
 .debug_str     0x00000e5c       0xc3 tcp.o
                                0x227 (size before relaxing)
 .debug_str     0x00000f1f      0x15a enc28j60.o
                                0x2da (size before relaxing)
 .debug_str     0x00001079       0x49 crc8.o
                                0x132 (size before relaxing)
 .debug_str     0x000010c2      0x12a dataflash.o
                                0x266 (size before relaxing)
 .debug_str     0x000011ec       0x9d softuart.o
                                0x1e7 (size before relaxing)
 .debug_str     0x00001289       0x45 clock.o
                                0x152 (size before relaxing)
 .debug_str     0x000012ce       0x1d icmp.o
                                0x12b (size before relaxing)
 .debug_str     0x000012eb       0x3f nethelp.o
                                0x12a (size before relaxing)
 .debug_str     0x0000132a       0xb8 mynic.o
                                0x1c8 (size before relaxing)
 .debug_str     0x000013e2       0x8d arp.o
                                0x1a3 (size before relaxing)
 .debug_str     0x0000146f       0x36 udp.o
                                0x13f (size before relaxing)
 .debug_str     0x000014a5       0x3f ip.o
                                0x17a (size before relaxing)
 .debug_str     0x000014e4       0xd0 ntp_client.o
                                0x245 (size before relaxing)

.debug_loc      0x00000000     0x4072
 *(.debug_loc)
 .debug_loc     0x00000000      0x150 avrETH1.o
 .debug_loc     0x00000150      0x190 servo.o
 .debug_loc     0x000002e0       0xfe base64.o
 .debug_loc     0x000003de      0x101 port.o
 .debug_loc     0x000004df       0x3c mpf10.o
 .debug_loc     0x0000051b      0x426 mca25.o
 .debug_loc     0x00000941      0x167 logger.o
 .debug_loc     0x00000aa8      0x7f4 filesystem.o
 .debug_loc     0x0000129c       0x8a lm75.o
 .debug_loc     0x00001326      0x41f string.o
 .debug_loc     0x00001745      0x4c4 plot.o
 .debug_loc     0x00001c09      0xb5e httpd.o
 .debug_loc     0x00002767      0x47b tcp.o
 .debug_loc     0x00002be2      0x2e6 enc28j60.o
 .debug_loc     0x00002ec8      0x19e crc8.o
 .debug_loc     0x00003066      0x618 dataflash.o
 .debug_loc     0x0000367e      0x213 softuart.o
 .debug_loc     0x00003891       0x29 clock.o
 .debug_loc     0x000038ba       0xd0 icmp.o
 .debug_loc     0x0000398a       0x98 nethelp.o
 .debug_loc     0x00003a22      0x100 mynic.o
 .debug_loc     0x00003b22      0x18e arp.o
 .debug_loc     0x00003cb0       0xa8 udp.o
 .debug_loc     0x00003d58       0x98 ip.o
 .debug_loc     0x00003df0      0x282 ntp_client.o

.debug_macinfo
 *(.debug_macinfo)
OUTPUT(avrETH1.elf elf32-avr)
LOAD linker stubs

.debug_ranges   0x00000000       0x90
 .debug_ranges  0x00000000       0x30 servo.o
 .debug_ranges  0x00000030       0x18 mca25.o
 .debug_ranges  0x00000048       0x18 filesystem.o
 .debug_ranges  0x00000060       0x18 plot.o
 .debug_ranges  0x00000078       0x18 httpd.o
