
sos-led.elf:     file format elf32-avr

Sections:
Idx Name          Size      VMA       LMA       File off  Algn
  0 .text         000001bc  00000000  00000000  00000054  2**1
                  CONTENTS, ALLOC, LOAD, READONLY, CODE
  1 .stab         000006b4  00000000  00000000  00000210  2**2
                  CONTENTS, READONLY, DEBUGGING
  2 .stabstr      00000085  00000000  00000000  000008c4  2**0
                  CONTENTS, READONLY, DEBUGGING
  3 .debug_aranges 00000080  00000000  00000000  00000950  2**3
                  CONTENTS, READONLY, DEBUGGING
  4 .debug_info   00000900  00000000  00000000  000009d0  2**0
                  CONTENTS, READONLY, DEBUGGING
  5 .debug_abbrev 00000118  00000000  00000000  000012d0  2**0
                  CONTENTS, READONLY, DEBUGGING
  6 .debug_line   0000047f  00000000  00000000  000013e8  2**0
                  CONTENTS, READONLY, DEBUGGING
  7 .debug_frame  00000024  00000000  00000000  00001868  2**2
                  CONTENTS, READONLY, DEBUGGING
  8 .debug_str    000000f4  00000000  00000000  0000188c  2**0
                  CONTENTS, READONLY, DEBUGGING

Disassembly of section .text:

00000000 <__vectors>:
   0:	12 c0       	rjmp	.+36     	; 0x26 <__ctors_end>
   2:	2a c0       	rjmp	.+84     	; 0x58 <__bad_interrupt>
   4:	29 c0       	rjmp	.+82     	; 0x58 <__bad_interrupt>
   6:	28 c0       	rjmp	.+80     	; 0x58 <__bad_interrupt>
   8:	27 c0       	rjmp	.+78     	; 0x58 <__bad_interrupt>
   a:	26 c0       	rjmp	.+76     	; 0x58 <__bad_interrupt>
   c:	25 c0       	rjmp	.+74     	; 0x58 <__bad_interrupt>
   e:	24 c0       	rjmp	.+72     	; 0x58 <__bad_interrupt>
  10:	23 c0       	rjmp	.+70     	; 0x58 <__bad_interrupt>
  12:	22 c0       	rjmp	.+68     	; 0x58 <__bad_interrupt>
  14:	21 c0       	rjmp	.+66     	; 0x58 <__bad_interrupt>
  16:	20 c0       	rjmp	.+64     	; 0x58 <__bad_interrupt>
  18:	1f c0       	rjmp	.+62     	; 0x58 <__bad_interrupt>
  1a:	1e c0       	rjmp	.+60     	; 0x58 <__bad_interrupt>
  1c:	1d c0       	rjmp	.+58     	; 0x58 <__bad_interrupt>
  1e:	1c c0       	rjmp	.+56     	; 0x58 <__bad_interrupt>
  20:	1b c0       	rjmp	.+54     	; 0x58 <__bad_interrupt>
  22:	1a c0       	rjmp	.+52     	; 0x58 <__bad_interrupt>
  24:	19 c0       	rjmp	.+50     	; 0x58 <__bad_interrupt>

00000026 <__ctors_end>:
  26:	11 24       	eor	r1, r1
  28:	1f be       	out	0x3f, r1	; 63
  2a:	cf ed       	ldi	r28, 0xDF	; 223
  2c:	cd bf       	out	0x3d, r28	; 61

0000002e <__do_copy_data>:
  2e:	10 e0       	ldi	r17, 0x00	; 0
  30:	a0 e6       	ldi	r26, 0x60	; 96
  32:	b0 e0       	ldi	r27, 0x00	; 0
  34:	ec eb       	ldi	r30, 0xBC	; 188
  36:	f1 e0       	ldi	r31, 0x01	; 1
  38:	02 c0       	rjmp	.+4      	; 0x3e <__SP_H__>
  3a:	05 90       	lpm	r0, Z+
  3c:	0d 92       	st	X+, r0
  3e:	a0 36       	cpi	r26, 0x60	; 96
  40:	b1 07       	cpc	r27, r17
  42:	d9 f7       	brne	.-10     	; 0x3a <__CCP__+0x6>

00000044 <__do_clear_bss>:
  44:	10 e0       	ldi	r17, 0x00	; 0
  46:	a0 e6       	ldi	r26, 0x60	; 96
  48:	b0 e0       	ldi	r27, 0x00	; 0
  4a:	01 c0       	rjmp	.+2      	; 0x4e <.do_clear_bss_start>

0000004c <.do_clear_bss_loop>:
  4c:	1d 92       	st	X+, r1

0000004e <.do_clear_bss_start>:
  4e:	a0 36       	cpi	r26, 0x60	; 96
  50:	b1 07       	cpc	r27, r17
  52:	e1 f7       	brne	.-8      	; 0x4c <.do_clear_bss_loop>
  54:	02 d0       	rcall	.+4      	; 0x5a <main>
  56:	b0 c0       	rjmp	.+352    	; 0x1b8 <_exit>

00000058 <__bad_interrupt>:
  58:	d3 cf       	rjmp	.-90     	; 0x0 <__vectors>

0000005a <main>:
#define F_CPU 4000000 
#include <util/delay.h>

int main(void)
{
	DDRB = 0x03; 
  5a:	83 e0       	ldi	r24, 0x03	; 3
  5c:	87 bb       	out	0x17, r24	; 23
	
    while(1)
    {
		// 3 krótkie
        PORTB = 0x01;
  5e:	81 e0       	ldi	r24, 0x01	; 1
  60:	88 bb       	out	0x18, r24	; 24
	#else
		//round up by default
		__ticks_dc = (uint32_t)(ceil(fabs(__tmp)));
	#endif

	__builtin_avr_delay_cycles(__ticks_dc);
  62:	ef e4       	ldi	r30, 0x4F	; 79
  64:	f3 ec       	ldi	r31, 0xC3	; 195
  66:	31 97       	sbiw	r30, 0x01	; 1
  68:	f1 f7       	brne	.-4      	; 0x66 <main+0xc>
  6a:	00 c0       	rjmp	.+0      	; 0x6c <main+0x12>
  6c:	00 00       	nop
		_delay_ms(50);
		PORTB = 0x00;
  6e:	18 ba       	out	0x18, r1	; 24
  70:	ef e4       	ldi	r30, 0x4F	; 79
  72:	f3 ec       	ldi	r31, 0xC3	; 195
  74:	31 97       	sbiw	r30, 0x01	; 1
  76:	f1 f7       	brne	.-4      	; 0x74 <main+0x1a>
  78:	00 c0       	rjmp	.+0      	; 0x7a <main+0x20>
  7a:	00 00       	nop
		_delay_ms(50);
		PORTB = 0x01;
  7c:	88 bb       	out	0x18, r24	; 24
  7e:	ef e4       	ldi	r30, 0x4F	; 79
  80:	f3 ec       	ldi	r31, 0xC3	; 195
  82:	31 97       	sbiw	r30, 0x01	; 1
  84:	f1 f7       	brne	.-4      	; 0x82 <main+0x28>
  86:	00 c0       	rjmp	.+0      	; 0x88 <main+0x2e>
  88:	00 00       	nop
		_delay_ms(50);
		PORTB = 0x00;
  8a:	18 ba       	out	0x18, r1	; 24
  8c:	ef e4       	ldi	r30, 0x4F	; 79
  8e:	f3 ec       	ldi	r31, 0xC3	; 195
  90:	31 97       	sbiw	r30, 0x01	; 1
  92:	f1 f7       	brne	.-4      	; 0x90 <main+0x36>
  94:	00 c0       	rjmp	.+0      	; 0x96 <main+0x3c>
  96:	00 00       	nop
		_delay_ms(50);
		PORTB = 0x01;
  98:	88 bb       	out	0x18, r24	; 24
  9a:	ef e4       	ldi	r30, 0x4F	; 79
  9c:	f3 ec       	ldi	r31, 0xC3	; 195
  9e:	31 97       	sbiw	r30, 0x01	; 1
  a0:	f1 f7       	brne	.-4      	; 0x9e <main+0x44>
  a2:	00 c0       	rjmp	.+0      	; 0xa4 <main+0x4a>
  a4:	00 00       	nop
		_delay_ms(50);
		PORTB = 0x00;
  a6:	18 ba       	out	0x18, r1	; 24
  a8:	ef e4       	ldi	r30, 0x4F	; 79
  aa:	f3 ec       	ldi	r31, 0xC3	; 195
  ac:	31 97       	sbiw	r30, 0x01	; 1
  ae:	f1 f7       	brne	.-4      	; 0xac <main+0x52>
  b0:	00 c0       	rjmp	.+0      	; 0xb2 <main+0x58>
  b2:	00 00       	nop
		_delay_ms(50);
		
		// 3 dlugie
		PORTB = 0x01;
  b4:	88 bb       	out	0x18, r24	; 24
  b6:	2f ef       	ldi	r18, 0xFF	; 255
  b8:	30 e7       	ldi	r19, 0x70	; 112
  ba:	42 e0       	ldi	r20, 0x02	; 2
  bc:	21 50       	subi	r18, 0x01	; 1
  be:	30 40       	sbci	r19, 0x00	; 0
  c0:	40 40       	sbci	r20, 0x00	; 0
  c2:	e1 f7       	brne	.-8      	; 0xbc <main+0x62>
  c4:	00 c0       	rjmp	.+0      	; 0xc6 <main+0x6c>
  c6:	00 00       	nop
		_delay_ms(200);
		PORTB = 0x00;
  c8:	18 ba       	out	0x18, r1	; 24
  ca:	ef e4       	ldi	r30, 0x4F	; 79
  cc:	f3 ec       	ldi	r31, 0xC3	; 195
  ce:	31 97       	sbiw	r30, 0x01	; 1
  d0:	f1 f7       	brne	.-4      	; 0xce <main+0x74>
  d2:	00 c0       	rjmp	.+0      	; 0xd4 <main+0x7a>
  d4:	00 00       	nop
		_delay_ms(50);
		PORTB = 0x01;
  d6:	88 bb       	out	0x18, r24	; 24
  d8:	2f ef       	ldi	r18, 0xFF	; 255
  da:	30 e7       	ldi	r19, 0x70	; 112
  dc:	42 e0       	ldi	r20, 0x02	; 2
  de:	21 50       	subi	r18, 0x01	; 1
  e0:	30 40       	sbci	r19, 0x00	; 0
  e2:	40 40       	sbci	r20, 0x00	; 0
  e4:	e1 f7       	brne	.-8      	; 0xde <main+0x84>
  e6:	00 c0       	rjmp	.+0      	; 0xe8 <__stack+0x9>
  e8:	00 00       	nop
		_delay_ms(200);
		PORTB = 0x00;
  ea:	18 ba       	out	0x18, r1	; 24
  ec:	ef e4       	ldi	r30, 0x4F	; 79
  ee:	f3 ec       	ldi	r31, 0xC3	; 195
  f0:	31 97       	sbiw	r30, 0x01	; 1
  f2:	f1 f7       	brne	.-4      	; 0xf0 <__stack+0x11>
  f4:	00 c0       	rjmp	.+0      	; 0xf6 <__stack+0x17>
  f6:	00 00       	nop
		_delay_ms(50);	
		PORTB = 0x01;
  f8:	88 bb       	out	0x18, r24	; 24
  fa:	2f ef       	ldi	r18, 0xFF	; 255
  fc:	30 e7       	ldi	r19, 0x70	; 112
  fe:	42 e0       	ldi	r20, 0x02	; 2
 100:	21 50       	subi	r18, 0x01	; 1
 102:	30 40       	sbci	r19, 0x00	; 0
 104:	40 40       	sbci	r20, 0x00	; 0
 106:	e1 f7       	brne	.-8      	; 0x100 <__stack+0x21>
 108:	00 c0       	rjmp	.+0      	; 0x10a <__stack+0x2b>
 10a:	00 00       	nop
		_delay_ms(200);
		PORTB = 0x00;
 10c:	18 ba       	out	0x18, r1	; 24
 10e:	ef e4       	ldi	r30, 0x4F	; 79
 110:	f3 ec       	ldi	r31, 0xC3	; 195
 112:	31 97       	sbiw	r30, 0x01	; 1
 114:	f1 f7       	brne	.-4      	; 0x112 <__stack+0x33>
 116:	00 c0       	rjmp	.+0      	; 0x118 <__stack+0x39>
 118:	00 00       	nop
		_delay_ms(50);
		
		// 3 krótkie
        PORTB = 0x01;
 11a:	88 bb       	out	0x18, r24	; 24
 11c:	ef e4       	ldi	r30, 0x4F	; 79
 11e:	f3 ec       	ldi	r31, 0xC3	; 195
 120:	31 97       	sbiw	r30, 0x01	; 1
 122:	f1 f7       	brne	.-4      	; 0x120 <__stack+0x41>
 124:	00 c0       	rjmp	.+0      	; 0x126 <__stack+0x47>
 126:	00 00       	nop
        _delay_ms(50);
        PORTB = 0x00;
 128:	18 ba       	out	0x18, r1	; 24
 12a:	ef e4       	ldi	r30, 0x4F	; 79
 12c:	f3 ec       	ldi	r31, 0xC3	; 195
 12e:	31 97       	sbiw	r30, 0x01	; 1
 130:	f1 f7       	brne	.-4      	; 0x12e <__stack+0x4f>
 132:	00 c0       	rjmp	.+0      	; 0x134 <__stack+0x55>
 134:	00 00       	nop
        _delay_ms(50);
        PORTB = 0x01;
 136:	88 bb       	out	0x18, r24	; 24
 138:	ef e4       	ldi	r30, 0x4F	; 79
 13a:	f3 ec       	ldi	r31, 0xC3	; 195
 13c:	31 97       	sbiw	r30, 0x01	; 1
 13e:	f1 f7       	brne	.-4      	; 0x13c <__stack+0x5d>
 140:	00 c0       	rjmp	.+0      	; 0x142 <__stack+0x63>
 142:	00 00       	nop
        _delay_ms(50);
        PORTB = 0x00;
 144:	18 ba       	out	0x18, r1	; 24
 146:	ef e4       	ldi	r30, 0x4F	; 79
 148:	f3 ec       	ldi	r31, 0xC3	; 195
 14a:	31 97       	sbiw	r30, 0x01	; 1
 14c:	f1 f7       	brne	.-4      	; 0x14a <__stack+0x6b>
 14e:	00 c0       	rjmp	.+0      	; 0x150 <__stack+0x71>
 150:	00 00       	nop
        _delay_ms(50);
        PORTB = 0x01;
 152:	88 bb       	out	0x18, r24	; 24
 154:	ef e4       	ldi	r30, 0x4F	; 79
 156:	f3 ec       	ldi	r31, 0xC3	; 195
 158:	31 97       	sbiw	r30, 0x01	; 1
 15a:	f1 f7       	brne	.-4      	; 0x158 <__stack+0x79>
 15c:	00 c0       	rjmp	.+0      	; 0x15e <__stack+0x7f>
 15e:	00 00       	nop
        _delay_ms(50);
        PORTB = 0x00;
 160:	18 ba       	out	0x18, r1	; 24
 162:	ef e4       	ldi	r30, 0x4F	; 79
 164:	f3 ec       	ldi	r31, 0xC3	; 195
 166:	31 97       	sbiw	r30, 0x01	; 1
 168:	f1 f7       	brne	.-4      	; 0x166 <__stack+0x87>
 16a:	00 c0       	rjmp	.+0      	; 0x16c <__stack+0x8d>
 16c:	00 00       	nop
 16e:	2f e3       	ldi	r18, 0x3F	; 63
 170:	3d e0       	ldi	r19, 0x0D	; 13
 172:	43 e0       	ldi	r20, 0x03	; 3
 174:	21 50       	subi	r18, 0x01	; 1
 176:	30 40       	sbci	r19, 0x00	; 0
 178:	40 40       	sbci	r20, 0x00	; 0
 17a:	e1 f7       	brne	.-8      	; 0x174 <__stack+0x95>
 17c:	00 c0       	rjmp	.+0      	; 0x17e <__stack+0x9f>
 17e:	00 00       	nop
 180:	2f e3       	ldi	r18, 0x3F	; 63
 182:	3d e0       	ldi	r19, 0x0D	; 13
 184:	43 e0       	ldi	r20, 0x03	; 3
 186:	21 50       	subi	r18, 0x01	; 1
 188:	30 40       	sbci	r19, 0x00	; 0
 18a:	40 40       	sbci	r20, 0x00	; 0
 18c:	e1 f7       	brne	.-8      	; 0x186 <__stack+0xa7>
 18e:	00 c0       	rjmp	.+0      	; 0x190 <__stack+0xb1>
 190:	00 00       	nop
 192:	2f e3       	ldi	r18, 0x3F	; 63
 194:	3d e0       	ldi	r19, 0x0D	; 13
 196:	43 e0       	ldi	r20, 0x03	; 3
 198:	21 50       	subi	r18, 0x01	; 1
 19a:	30 40       	sbci	r19, 0x00	; 0
 19c:	40 40       	sbci	r20, 0x00	; 0
 19e:	e1 f7       	brne	.-8      	; 0x198 <__stack+0xb9>
 1a0:	00 c0       	rjmp	.+0      	; 0x1a2 <__stack+0xc3>
 1a2:	00 00       	nop
 1a4:	2f e3       	ldi	r18, 0x3F	; 63
 1a6:	3d e0       	ldi	r19, 0x0D	; 13
 1a8:	43 e0       	ldi	r20, 0x03	; 3
 1aa:	21 50       	subi	r18, 0x01	; 1
 1ac:	30 40       	sbci	r19, 0x00	; 0
 1ae:	40 40       	sbci	r20, 0x00	; 0
 1b0:	e1 f7       	brne	.-8      	; 0x1aa <__stack+0xcb>
 1b2:	00 c0       	rjmp	.+0      	; 0x1b4 <__stack+0xd5>
 1b4:	00 00       	nop
 1b6:	54 cf       	rjmp	.-344    	; 0x60 <main+0x6>

000001b8 <_exit>:
 1b8:	f8 94       	cli

000001ba <__stop_program>:
 1ba:	ff cf       	rjmp	.-2      	; 0x1ba <__stop_program>
