Archive member included because of file (symbol)

c:/winavr/bin/../lib/gcc/avr/4.1.1/avr4\libgcc.a(_udivmodqi4.o)
                              RebClock.o (__udivmodqi4)
c:/winavr/bin/../lib/gcc/avr/4.1.1/avr4\libgcc.a(_udivmodhi4.o)
                              RebClock.o (__udivmodhi4)
c:/winavr/bin/../lib/gcc/avr/4.1.1/avr4\libgcc.a(_copy_data.o)
                              RebClock.o (__do_copy_data)
c:/winavr/bin/../lib/gcc/avr/4.1.1/avr4\libgcc.a(_clear_bss.o)
                              RebClock.o (__do_clear_bss)
c:/winavr/bin/../lib/gcc/avr/4.1.1/../../../../avr/lib/avr4\libc.a(strcpy.o)
                              RebClock.o (strcpy)
c:/winavr/bin/../lib/gcc/avr/4.1.1/../../../../avr/lib/avr4\libc.a(ee_rb.1C1D1E.o)
                              RebClock.o (__eeprom_read_byte_1C1D1E)
c:/winavr/bin/../lib/gcc/avr/4.1.1/../../../../avr/lib/avr4\libc.a(ee_wb.1C1D1E.o)
                              RebClock.o (__eeprom_write_byte_1C1D1E)

Allocating common symbols
Common symbol       size              file

u08ArrayStrTemp     0x2               RebClock.o
twi_rtc             0x1               RebClock.o
boolLedAlarm        0x1               RebClock.o
twi_status          0x1               RebClock.o
u08TmrUpdateDisplay
                    0x1               RebClock.o
u08BtnMnTmr         0x1               RebClock.o
u08RtcHour          0x1               RebClock.o
u08BtnHrTmr         0x1               RebClock.o
u08ToLoad           0x4               RebClock.o
u08AlarmMinute      0x1               RebClock.o
u08PhotocellValue   0x1               RebClock.o
boolLedAm           0x1               RebClock.o
u08RtcDay           0x1               RebClock.o
u08RtcMonth         0x1               RebClock.o
u08TmrAdc           0x1               RebClock.o
u08RtcSecond        0x1               RebClock.o
boolDisplayOff      0x1               RebClock.o
u08RtcMinute        0x1               RebClock.o
u08BtnAlarmTmr      0x1               RebClock.o
u08RtcYear          0x2               RebClock.o
u08BtnTimeTmr       0x1               RebClock.o
str                 0x6               RebClock.o
u08Temp             0x1               RebClock.o
u08AlarmHour        0x1               RebClock.o
u08TmrAlarmOsc      0x1               RebClock.o

Discarded input sections

 .stabstr       0x00000000        0x0 c:/winavr/bin/../lib/gcc/avr/4.1.1/../../../../avr/lib/avr4/crtm8535.o

Memory Configuration

Name             Origin             Length             Attributes
text             0x00000000         0x00002000         xr
data             0x00800060         0x0000ffa0         rw !x
eeprom           0x00810000         0x00010000         rw !x
*default*        0x00000000         0xffffffff

Linker script and memory map

LOAD c:/winavr/bin/../lib/gcc/avr/4.1.1/../../../../avr/lib/avr4/crtm8535.o
LOAD RebClock.o
LOAD c:/winavr/bin/../lib/gcc/avr/4.1.1/avr4\libgcc.a
LOAD c:/winavr/bin/../lib/gcc/avr/4.1.1/../../../../avr/lib/avr4\libc.a
LOAD c:/winavr/bin/../lib/gcc/avr/4.1.1/avr4\libgcc.a

.hash
 *(.hash)

.dynsym
 *(.dynsym)

.dynstr
 *(.dynstr)

.gnu.version
 *(.gnu.version)

.gnu.version_d
 *(.gnu.version_d)

.gnu.version_r
 *(.gnu.version_r)

.rel.init
 *(.rel.init)

.rela.init
 *(.rela.init)

.rel.text
 *(.rel.text)
 *(.rel.text.*)
 *(.rel.gnu.linkonce.t*)

.rela.text
 *(.rela.text)
 *(.rela.text.*)
 *(.rela.gnu.linkonce.t*)

.rel.fini
 *(.rel.fini)

.rela.fini
 *(.rela.fini)

.rel.rodata
 *(.rel.rodata)
 *(.rel.rodata.*)
 *(.rel.gnu.linkonce.r*)

.rela.rodata
 *(.rela.rodata)
 *(.rela.rodata.*)
 *(.rela.gnu.linkonce.r*)

.rel.data
 *(.rel.data)
 *(.rel.data.*)
 *(.rel.gnu.linkonce.d*)

.rela.data
 *(.rela.data)
 *(.rela.data.*)
 *(.rela.gnu.linkonce.d*)

.rel.ctors
 *(.rel.ctors)

.rela.ctors
 *(.rela.ctors)

.rel.dtors
 *(.rel.dtors)

.rela.dtors
 *(.rela.dtors)

.rel.got
 *(.rel.got)

.rela.got
 *(.rela.got)

.rel.bss
 *(.rel.bss)

.rela.bss
 *(.rela.bss)

.rel.plt
 *(.rel.plt)

.rela.plt
 *(.rela.plt)

.text           0x00000000      0xd3c
 *(.vectors)
 .vectors       0x00000000       0x2a c:/winavr/bin/../lib/gcc/avr/4.1.1/../../../../avr/lib/avr4/crtm8535.o
                0x00000000                __vectors
                0x00000000                __vector_default
 *(.vectors)
 *(.progmem.gcc*)
 *(.progmem*)
 .progmem.data  0x0000002a       0x18 RebClock.o
                0x00000036                strLedDrivU4
                0x0000002a                strLedDrivU3
                0x00000042                . = ALIGN (0x2)
                0x00000042                __trampolines_start = .
 *(.trampolines)
 .trampolines   0x00000042        0x0 linker stubs
 *(.trampolines*)
                0x00000042                __trampolines_end = .
 *(.jumptables)
 *(.jumptables*)
 *(.lowtext)
 *(.lowtext*)
                0x00000042                __ctors_start = .
 *(.ctors)
                0x00000042                __ctors_end = .
                0x00000042                __dtors_start = .
 *(.dtors)
                0x00000042                __dtors_end = .
 SORT(*)(.ctors)
 SORT(*)(.dtors)
 *(.init0)
 .init0         0x00000042        0x0 c:/winavr/bin/../lib/gcc/avr/4.1.1/../../../../avr/lib/avr4/crtm8535.o
                0x00000042                __init
 *(.init0)
 *(.init1)
 *(.init1)
 *(.init2)
 .init2         0x00000042        0xc c:/winavr/bin/../lib/gcc/avr/4.1.1/../../../../avr/lib/avr4/crtm8535.o
 *(.init2)
 *(.init3)
 *(.init3)
 *(.init4)
 .init4         0x0000004e       0x16 c:/winavr/bin/../lib/gcc/avr/4.1.1/avr4\libgcc.a(_copy_data.o)
                0x0000004e                __do_copy_data
 .init4         0x00000064       0x10 c:/winavr/bin/../lib/gcc/avr/4.1.1/avr4\libgcc.a(_clear_bss.o)
                0x00000064                __do_clear_bss
 *(.init4)
 *(.init5)
 *(.init5)
 *(.init6)
 *(.init6)
 *(.init7)
 *(.init7)
 *(.init8)
 *(.init8)
 *(.init9)
 .init9         0x00000074        0x2 c:/winavr/bin/../lib/gcc/avr/4.1.1/../../../../avr/lib/avr4/crtm8535.o
 *(.init9)
 *(.text)
 .text          0x00000076        0x2 c:/winavr/bin/../lib/gcc/avr/4.1.1/../../../../avr/lib/avr4/crtm8535.o
                0x00000076                __vector_1
                0x00000076                __vector_12
                0x00000076                __bad_interrupt
                0x00000076                __vector_6
                0x00000076                __vector_3
                0x00000076                __vector_11
                0x00000076                __vector_13
                0x00000076                __vector_17
                0x00000076                __vector_19
                0x00000076                __vector_7
                0x00000076                __vector_5
                0x00000076                __vector_4
                0x00000076                __vector_2
                0x00000076                __vector_15
                0x00000076                __vector_8
                0x00000076                __vector_14
                0x00000076                __vector_10
                0x00000076                __vector_16
                0x00000076                __vector_18
                0x00000076                __vector_20
 .text          0x00000078      0xc4e RebClock.o
                0x00000260                rtc_set_date
                0x00000078                twi_setup
                0x00000766                alarmSounding
                0x000003e4                sendToLEDdriver
                0x00000304                rtc_get_timeNdate
                0x00000164                twi_write
                0x00000498                showDigit
                0x00000780                integerToArray
                0x0000074c                AlarmShutdown
                0x00000c8c                main
                0x00000776                alarmSilent
                0x000005ce                __vector_9
                0x000000c4                twi_read
                0x000007ce                SrvTock
                0x000006a6                uCinit
                0x000002ec                _FF_bcd2bin
                0x000001fc                rtc_set_time
                0x000001d4                _FF_bin2bcd
                0x00000082                twi_step
 .text          0x00000cc6        0x0 c:/winavr/bin/../lib/gcc/avr/4.1.1/avr4\libgcc.a(_udivmodqi4.o)
 .text          0x00000cc6        0x0 c:/winavr/bin/../lib/gcc/avr/4.1.1/avr4\libgcc.a(_udivmodhi4.o)
 .text          0x00000cc6        0x0 c:/winavr/bin/../lib/gcc/avr/4.1.1/avr4\libgcc.a(_copy_data.o)
 .text          0x00000cc6        0x0 c:/winavr/bin/../lib/gcc/avr/4.1.1/avr4\libgcc.a(_clear_bss.o)
 .text          0x00000cc6        0xe c:/winavr/bin/../lib/gcc/avr/4.1.1/../../../../avr/lib/avr4\libc.a(strcpy.o)
                0x00000cc6                strcpy
 .text          0x00000cd4        0x0 c:/winavr/bin/../lib/gcc/avr/4.1.1/../../../../avr/lib/avr4\libc.a(ee_rb.1C1D1E.o)
 .text          0x00000cd4        0x0 c:/winavr/bin/../lib/gcc/avr/4.1.1/../../../../avr/lib/avr4\libc.a(ee_wb.1C1D1E.o)
                0x00000cd4                . = ALIGN (0x2)
 *(.text.*)
 .text.libgcc   0x00000cd4       0x18 c:/winavr/bin/../lib/gcc/avr/4.1.1/avr4\libgcc.a(_udivmodqi4.o)
                0x00000cd4                __udivmodqi4
 .text.libgcc   0x00000cec       0x28 c:/winavr/bin/../lib/gcc/avr/4.1.1/avr4\libgcc.a(_udivmodhi4.o)
                0x00000cec                __udivmodhi4
 .text.libgcc   0x00000d14        0x0 c:/winavr/bin/../lib/gcc/avr/4.1.1/avr4\libgcc.a(_copy_data.o)
 .text.libgcc   0x00000d14        0x0 c:/winavr/bin/../lib/gcc/avr/4.1.1/avr4\libgcc.a(_clear_bss.o)
 .text.eeprom   0x00000d14       0x10 c:/winavr/bin/../lib/gcc/avr/4.1.1/../../../../avr/lib/avr4\libc.a(ee_rb.1C1D1E.o)
                0x00000d14                __eeprom_read_byte_1C1D1E
 .text.eeprom   0x00000d24       0x18 c:/winavr/bin/../lib/gcc/avr/4.1.1/../../../../avr/lib/avr4\libc.a(ee_wb.1C1D1E.o)
                0x00000d24                __eeprom_write_byte_1C1D1E
                0x00000d3c                . = ALIGN (0x2)
 *(.fini9)
 *(.fini9)
 *(.fini8)
 *(.fini8)
 *(.fini7)
 *(.fini7)
 *(.fini6)
 *(.fini6)
 *(.fini5)
 *(.fini5)
 *(.fini4)
 *(.fini4)
 *(.fini3)
 *(.fini3)
 *(.fini2)
 *(.fini2)
 *(.fini1)
 *(.fini1)
 *(.fini0)
 *(.fini0)
                0x00000d3c                _etext = .

.data           0x00800060        0xc load address 0x00000d3c
                0x00800060                PROVIDE (__data_start, .)
 *(.data)
 .data          0x00800060        0x0 c:/winavr/bin/../lib/gcc/avr/4.1.1/../../../../avr/lib/avr4/crtm8535.o
 .data          0x00800060        0xb RebClock.o
                0x0080006a                u08LedIntensity
                0x00800069                u08TmrLedDimming
                0x00800068                boolAlarmCanBeTurnedOff
                0x00800066                uTock
 .data          0x0080006b        0x0 c:/winavr/bin/../lib/gcc/avr/4.1.1/avr4\libgcc.a(_udivmodqi4.o)
 .data          0x0080006b        0x0 c:/winavr/bin/../lib/gcc/avr/4.1.1/avr4\libgcc.a(_udivmodhi4.o)
 .data          0x0080006b        0x0 c:/winavr/bin/../lib/gcc/avr/4.1.1/avr4\libgcc.a(_copy_data.o)
 .data          0x0080006b        0x0 c:/winavr/bin/../lib/gcc/avr/4.1.1/avr4\libgcc.a(_clear_bss.o)
 .data          0x0080006b        0x0 c:/winavr/bin/../lib/gcc/avr/4.1.1/../../../../avr/lib/avr4\libc.a(strcpy.o)
 .data          0x0080006b        0x0 c:/winavr/bin/../lib/gcc/avr/4.1.1/../../../../avr/lib/avr4\libc.a(ee_rb.1C1D1E.o)
 .data          0x0080006b        0x0 c:/winavr/bin/../lib/gcc/avr/4.1.1/../../../../avr/lib/avr4\libc.a(ee_wb.1C1D1E.o)
 *(.data*)
 *(.rodata)
 *(.rodata*)
 *(.gnu.linkonce.d*)
                0x0080006c                . = ALIGN (0x2)
 *fill*         0x0080006b        0x1 00
                0x0080006c                _edata = .
                0x0080006c                PROVIDE (__data_end, .)

.bss            0x0080006c       0x29
                0x0080006c                PROVIDE (__bss_start, .)
 *(.bss)
 .bss           0x0080006c        0x0 c:/winavr/bin/../lib/gcc/avr/4.1.1/../../../../avr/lib/avr4/crtm8535.o
 .bss           0x0080006c        0x6 RebClock.o
                0x0080006f                boolAlarmSounding
                0x0080006e                u08OldPhotocell
                0x0080006c                u08State
                0x0080006d                u08TmrStateDelay
                0x00800070                u16TmrShutOffAlarm
 .bss           0x00800072        0x0 c:/winavr/bin/../lib/gcc/avr/4.1.1/avr4\libgcc.a(_udivmodqi4.o)
 .bss           0x00800072        0x0 c:/winavr/bin/../lib/gcc/avr/4.1.1/avr4\libgcc.a(_udivmodhi4.o)
 .bss           0x00800072        0x0 c:/winavr/bin/../lib/gcc/avr/4.1.1/avr4\libgcc.a(_copy_data.o)
 .bss           0x00800072        0x0 c:/winavr/bin/../lib/gcc/avr/4.1.1/avr4\libgcc.a(_clear_bss.o)
 .bss           0x00800072        0x0 c:/winavr/bin/../lib/gcc/avr/4.1.1/../../../../avr/lib/avr4\libc.a(strcpy.o)
 .bss           0x00800072        0x0 c:/winavr/bin/../lib/gcc/avr/4.1.1/../../../../avr/lib/avr4\libc.a(ee_rb.1C1D1E.o)
 .bss           0x00800072        0x0 c:/winavr/bin/../lib/gcc/avr/4.1.1/../../../../avr/lib/avr4\libc.a(ee_wb.1C1D1E.o)
 *(.bss*)
 *(COMMON)
 COMMON         0x00800072       0x23 RebClock.o
                0x00800072                u08ArrayStrTemp
                0x00800074                twi_rtc
                0x00800075                boolLedAlarm
                0x00800076                twi_status
                0x00800077                u08TmrUpdateDisplay
                0x00800078                u08BtnMnTmr
                0x00800079                u08RtcHour
                0x0080007a                u08BtnHrTmr
                0x0080007b                u08ToLoad
                0x0080007f                u08AlarmMinute
                0x00800080                u08PhotocellValue
                0x00800081                boolLedAm
                0x00800082                u08RtcDay
                0x00800083                u08RtcMonth
                0x00800084                u08TmrAdc
                0x00800085                u08RtcSecond
                0x00800086                boolDisplayOff
                0x00800087                u08RtcMinute
                0x00800088                u08BtnAlarmTmr
                0x00800089                u08RtcYear
                0x0080008b                u08BtnTimeTmr
                0x0080008c                str
                0x00800092                u08Temp
                0x00800093                u08AlarmHour
                0x00800094                u08TmrAlarmOsc
                0x00800095                PROVIDE (__bss_end, .)
                0x00000d3c                __data_load_start = LOADADDR (.data)
                0x00000d48                __data_load_end = (__data_load_start + SIZEOF (.data))

.noinit         0x00800095        0x0
                0x00800095                PROVIDE (__noinit_start, .)
 *(.noinit*)
                0x00800095                PROVIDE (__noinit_end, .)
                0x00800095                _end = .
                0x00800095                PROVIDE (__heap_start, .)

.eeprom         0x00810000        0x3
 *(.eeprom*)
 .eeprom        0x00810000        0x3 RebClock.o
                0x00810000                EEalarmMinute
                0x00810002                EEalarmOn
                0x00810001                EEalarmHour
                0x00810003                __eeprom_end = .

.stab           0x00000000      0x36c
 *(.stab)
 .stab          0x00000000      0x36c c:/winavr/bin/../lib/gcc/avr/4.1.1/../../../../avr/lib/avr4/crtm8535.o

.stabstr        0x00000000       0x84
 *(.stabstr)
 .stabstr       0x00000000       0x84 c:/winavr/bin/../lib/gcc/avr/4.1.1/../../../../avr/lib/avr4/crtm8535.o

.stab.excl
 *(.stab.excl)

.stab.exclstr
 *(.stab.exclstr)

.stab.index
 *(.stab.index)

.stab.indexstr
 *(.stab.indexstr)

.comment
 *(.comment)

.debug
 *(.debug)

.line
 *(.line)

.debug_srcinfo
 *(.debug_srcinfo)

.debug_sfnames
 *(.debug_sfnames)

.debug_aranges  0x00000000       0x20
 *(.debug_aranges)
 .debug_aranges
                0x00000000       0x20 RebClock.o

.debug_pubnames
                0x00000000      0x3d5
 *(.debug_pubnames)
 .debug_pubnames
                0x00000000      0x3d5 RebClock.o

.debug_info     0x00000000      0xbfb
 *(.debug_info)
 .debug_info    0x00000000      0xbfb RebClock.o
 *(.gnu.linkonce.wi.*)

.debug_abbrev   0x00000000      0x296
 *(.debug_abbrev)
 .debug_abbrev  0x00000000      0x296 RebClock.o

.debug_line     0x00000000      0xdb1
 *(.debug_line)
 .debug_line    0x00000000      0xdb1 RebClock.o

.debug_frame    0x00000000      0x140
 *(.debug_frame)
 .debug_frame   0x00000000      0x140 RebClock.o

.debug_str      0x00000000      0x4f5
 *(.debug_str)
 .debug_str     0x00000000      0x4f5 RebClock.o
                                0x566 (size before relaxing)

.debug_loc      0x00000000      0x5e5
 *(.debug_loc)
 .debug_loc     0x00000000      0x5e5 RebClock.o

.debug_macinfo
 *(.debug_macinfo)
OUTPUT(RebClock.elf elf32-avr)
LOAD linker stubs
