
main.elf:     file format elf32-avr

Sections:
Idx Name          Size      VMA       LMA       File off  Algn
  0 .text         00002334  00000000  00000000  00000094  2**1
                  CONTENTS, ALLOC, LOAD, READONLY, CODE
  1 .data         00000008  00800060  00002334  000023c8  2**0
                  CONTENTS, ALLOC, LOAD, DATA
  2 .bss          0000006c  00800068  00800068  000023d0  2**0
                  ALLOC
  3 .stab         0000036c  00000000  00000000  000023d0  2**2
                  CONTENTS, READONLY, DEBUGGING
  4 .stabstr      00000054  00000000  00000000  0000273c  2**0
                  CONTENTS, READONLY, DEBUGGING
Disassembly of section .text:

00000000 <__vectors>:
       0:	0c 94 1c 03 	jmp	0x638	; 0x638 <__init>
       4:	0c 94 37 03 	jmp	0x66e	; 0x66e <__bad_interrupt>
       8:	0c 94 37 03 	jmp	0x66e	; 0x66e <__bad_interrupt>
       c:	0c 94 9a 07 	jmp	0xf34	; 0xf34 <__vector_3>
      10:	0c 94 37 03 	jmp	0x66e	; 0x66e <__bad_interrupt>
      14:	0c 94 37 03 	jmp	0x66e	; 0x66e <__bad_interrupt>
      18:	0c 94 37 03 	jmp	0x66e	; 0x66e <__bad_interrupt>
      1c:	0c 94 37 03 	jmp	0x66e	; 0x66e <__bad_interrupt>
      20:	0c 94 37 03 	jmp	0x66e	; 0x66e <__bad_interrupt>
      24:	0c 94 37 03 	jmp	0x66e	; 0x66e <__bad_interrupt>
      28:	0c 94 37 03 	jmp	0x66e	; 0x66e <__bad_interrupt>
      2c:	0c 94 37 03 	jmp	0x66e	; 0x66e <__bad_interrupt>
      30:	0c 94 37 03 	jmp	0x66e	; 0x66e <__bad_interrupt>
      34:	0c 94 37 03 	jmp	0x66e	; 0x66e <__bad_interrupt>
      38:	0c 94 37 03 	jmp	0x66e	; 0x66e <__bad_interrupt>
      3c:	0c 94 37 03 	jmp	0x66e	; 0x66e <__bad_interrupt>
      40:	0c 94 37 03 	jmp	0x66e	; 0x66e <__bad_interrupt>
      44:	0c 94 37 03 	jmp	0x66e	; 0x66e <__bad_interrupt>
      48:	0c 94 37 03 	jmp	0x66e	; 0x66e <__bad_interrupt>
      4c:	0c 94 37 03 	jmp	0x66e	; 0x66e <__bad_interrupt>
      50:	0c 94 37 03 	jmp	0x66e	; 0x66e <__bad_interrupt>

00000054 <__ctors_end>:
      54:	56 0a       	sbc	r5, r22
      56:	21 0a       	sbc	r2, r17
      58:	8b 0a       	sbc	r8, r27
      5a:	07 08       	sbc	r0, r7
      5c:	db 08       	sbc	r13, r11
      5e:	07 08       	sbc	r0, r7
      60:	07 08       	sbc	r0, r7
      62:	07 08       	sbc	r0, r7
      64:	07 08       	sbc	r0, r7
      66:	07 08       	sbc	r0, r7
      68:	b7 09       	sbc	r27, r7
      6a:	07 08       	sbc	r0, r7
      6c:	82 09       	sbc	r24, r2
      6e:	07 08       	sbc	r0, r7
      70:	07 08       	sbc	r0, r7
      72:	07 08       	sbc	r0, r7
      74:	07 08       	sbc	r0, r7
      76:	07 08       	sbc	r0, r7
      78:	07 08       	sbc	r0, r7
      7a:	ec 09       	sbc	r30, r12
      7c:	07 08       	sbc	r0, r7
      7e:	07 08       	sbc	r0, r7
      80:	07 08       	sbc	r0, r7
      82:	07 08       	sbc	r0, r7
      84:	07 08       	sbc	r0, r7
      86:	07 08       	sbc	r0, r7
      88:	07 08       	sbc	r0, r7
      8a:	96 08       	sbc	r9, r6
      8c:	07 08       	sbc	r0, r7
      8e:	07 08       	sbc	r0, r7
      90:	c8 0a       	sbc	r12, r24
      92:	07 08       	sbc	r0, r7
      94:	c0 0a       	sbc	r12, r16
      96:	d3 08       	sbc	r13, r3
      98:	cb 08       	sbc	r12, r11
      9a:	07 08       	sbc	r0, r7
      9c:	45 09       	sbc	r20, r5
      9e:	07 08       	sbc	r0, r7
      a0:	07 08       	sbc	r0, r7
      a2:	10 09       	sbc	r17, r0
      a4:	4d 09       	sbc	r20, r13
      a6:	07 08       	sbc	r0, r7
      a8:	8e 08       	sbc	r8, r14
      aa:	07 08       	sbc	r0, r7
      ac:	86 08       	sbc	r8, r6
      ae:	52 08       	sbc	r5, r2
      b0:	07 08       	sbc	r0, r7
      b2:	07 08       	sbc	r0, r7
      b4:	07 08       	sbc	r0, r7
      b6:	07 08       	sbc	r0, r7
      b8:	1c 08       	sbc	r1, r12
      ba:	14 08       	sbc	r1, r4

000000bc <auto_text>:
      bc:	41 75 74 6f 6d 61 74 69 63 20 6f 70 65 72 61 74     Automatic operat
      cc:	69 6f 6e 20 6d 6f 64 65 2c 20 50 20 72 65 67 75     ion mode, P regu
      dc:	6c 61 74 69 6f 6e 3a 20 00                          lation: .

000000e5 <monitor_text>:
      e5:	0a 20 2d 2d 2d 20 4d 6f 6e 69 74 6f 72 20 6f 70     . --- Monitor op
      f5:	65 72 61 74 69 6f 6e 20 6d 6f 64 65 3a 20 2d 2d     eration mode: --
     105:	2d 0a 0d 0a 63 49 6e 3b 63 4d 6f 3b 41 44 43 3b     -...cIn;cMo;ADC;
     115:	50 57 4d 0a 0d 00                                   PWM...

0000011b <manual_text>:
     11b:	4d 61 6e 75 61 6c 20 6f 70 65 72 61 74 69 6f 6e     Manual operation
     12b:	20 6d 6f 64 65 3a 20 00                              mode: .

00000133 <sleep_text>:
     133:	53 6c 65 65 70 20 6d 6f 64 65 2e 20 54 6f 20 77     Sleep mode. To w
     143:	61 6b 65 20 75 70 2c 20 70 72 65 73 73 20 27 6f     ake up, press 'o
     153:	27 20 28 6f 6e 29 3a 20 00                          ' (on): .

0000015c <auto_2_text>:
     15c:	41 75 74 6f 6d 61 74 69 63 20 6f 70 65 72 61 74     Automatic operat
     16c:	69 6f 6e 20 6d 6f 64 65 2c 20 6f 70 65 6e 2d 6c     ion mode, open-l
     17c:	6f 6f 70 20 64 69 67 69 74 61 6c 20 72 65 67 75     oop digital regu
     18c:	6c 61 74 69 6f 6e 3a 20 00                          lation: .

00000195 <mode_text_ptr>:
     195:	bc 00 e5 00 1b 01 33 01 5c 01                       ......3.\.

0000019f <err_text>:
     19f:	0a 0d 20 45 72 72 6f 72 20 6d 65 73 73 61 67 65     .. Error message
     1af:	3a 20 00                                            : .

000001b2 <err_text_0>:
     1b2:	0a 0d 20 46 6f 72 20 73 68 75 72 65 20 68 61 70     .. For shure hap
     1c2:	70 65 6e 65 64 20 73 6f 6d 65 74 68 69 6e 67 20     pened something 
     1d2:	77 69 65 72 64 2e 20 54 68 69 73 20 6d 65 73 73     wierd. This mess
     1e2:	61 67 65 20 77 61 73 20 6e 6f 74 20 73 75 70 70     age was not supp
     1f2:	6f 73 65 64 20 74 6f 20 62 65 20 73 65 65 6e 2e     osed to be seen.
     202:	0a 0d 0a 0d 00                                      .....

00000207 <err_text_1>:
     207:	0a 0d 20 50 61 63 6b 65 74 20 77 69 74 68 6f 75     .. Packet withou
     217:	74 20 64 61 74 61 2e 0a 0d 0a 0d 00                 t data......

00000223 <err_text_2>:
     223:	0a 0d 20 54 68 69 73 20 69 73 20 61 20 63 6f 6d     .. This is a com
     233:	6d 61 6e 64 2c 20 6e 6f 74 20 61 20 70 61 72 61     mand, not a para
     243:	6d 65 74 65 72 2e 20 54 72 79 20 6c 6f 77 65 72     meter. Try lower
     253:	63 61 73 65 2e 0a 0d 0a 0d 00                       case......

0000025d <err_text_3>:
     25d:	0a 0d 20 54 68 69 73 20 69 73 20 61 20 6f 70 65     .. This is a ope
     26d:	72 61 74 69 6f 6e 20 6d 6f 64 65 20 63 6f 6d 6d     ration mode comm
     27d:	61 6e 64 2e 0a 0d 0a 0d 00                          and......

00000286 <err_text_4>:
     286:	0a 0d 20 27 78 27 20 72 65 74 75 72 6e 73 20 63     .. 'x' returns c
     296:	6f 6e 74 72 6f 6c 6c 65 72 20 74 6f 20 69 74 73     ontroller to its
     2a6:	20 20 64 65 66 61 75 6c 74 20 73 74 61 74 65 20       default state 
     2b6:	28 41 75 74 6f 6d 61 74 69 63 29 2e 0a 0d 0a 0d     (Automatic).....
	...

000002c7 <err_text_5>:
     2c7:	0a 0d 20 49 6e 76 61 6c 69 64 20 69 6e 70 75 74     .. Invalid input
     2d7:	2e 20 41 74 20 65 6e 64 20 6f 66 20 73 74 72 69     . At end of stri
     2e7:	6e 67 20 70 72 65 73 73 20 65 6e 74 65 72 20 28     ng press enter (
     2f7:	72 65 74 75 72 6e 29 2e 0a 0d 0a 0d 00              return)......

00000304 <err_text_6>:
     304:	0a 0d 20 55 6e 6b 6e 6f 77 6e 20 63 6f 6d 6d 61     .. Unknown comma
     314:	6e 64 20 6f 72 20 70 61 72 61 6d 65 74 65 72 2e     nd or parameter.
     324:	0a 0d 0a 0d 00                                      .....

00000329 <err_text_ptr>:
     329:	b2 01 07 02 23 02 5d 02 86 02 c7 02 04 03           ....#.].......

00000337 <ASCII_number_table>:
     337:	30 30 30 30 30 31 30 30 32 30 30 33 30 30 34 30     0000010020030040
     347:	30 35 30 30 36 30 30 37 30 30 38 30 30 39 30 31     0500600700800901
     357:	30 30 31 31 30 31 32 30 31 33 30 31 34 30 31 35     0011012013014015
     367:	30 31 36 30 31 37 30 31 38 30 31 39 30 32 30 30     0160170180190200
     377:	32 31 30 32 32 30 32 33 30 32 34 30 32 35 30 32     2102202302402502
     387:	36 30 32 37 30 32 38 30 32 39 30 33 30 30 33 31     6027028029030031
     397:	30 33 32 30 33 33 30 33 34 30 33 35 30 33 36 30     0320330340350360
     3a7:	33 37 30 33 38 30 33 39 30 34 30 30 34 31 30 34     3703803904004104
     3b7:	32 30 34 33 30 34 34 30 34 35 30 34 36 30 34 37     2043044045046047
     3c7:	30 34 38 30 34 39 30 35 30 30 35 31 30 35 32 30     0480490500510520
     3d7:	35 33 30 35 34 30 35 35 30 35 36 30 35 37 30 35     5305405505605705
     3e7:	38 30 35 39 30 36 30 30 36 31 30 36 32 30 36 33     8059060061062063
     3f7:	30 36 34 30 36 35 30 36 36 30 36 37 30 36 38 30     0640650660670680
     407:	36 39 30 37 30 30 37 31 30 37 32 30 37 33 30 37     6907007107207307
     417:	34 30 37 35 30 37 36 30 37 37 30 37 38 30 37 39     4075076077078079
     427:	30 38 30 30 38 31 30 38 32 30 38 33 30 38 34 30     0800810820830840
     437:	38 35 30 38 36 30 38 37 30 38 38 30 38 39 30 39     8508608708808909
     447:	30 30 39 31 30 39 32 30 39 33 30 39 34 30 39 35     0091092093094095
     457:	30 39 36 30 39 37 30 39 38 30 39 39 31 30 30 31     0960970980991001
     467:	30 31 31 30 32 31 30 33 31 30 34 31 30 35 31 30     0110210310410510
     477:	36 31 30 37 31 30 38 31 30 39 31 31 30 31 31 31     6107108109110111
     487:	31 31 32 31 31 33 31 31 34 31 31 35 31 31 36 31     1121131141151161
     497:	31 37 31 31 38 31 31 39 31 32 30 31 32 31 31 32     1711811912012112
     4a7:	32 31 32 33 31 32 34 31 32 35 31 32 36 31 32 37     2123124125126127
     4b7:	31 32 38 31 32 39 31 33 30 31 33 31 31 33 32 31     1281291301311321
     4c7:	33 33 31 33 34 31 33 35 31 33 36 31 33 37 31 33     3313413513613713
     4d7:	38 31 33 39 31 34 30 31 34 31 31 34 32 31 34 33     8139140141142143
     4e7:	31 34 34 31 34 35 31 34 36 31 34 37 31 34 38 31     1441451461471481
     4f7:	34 39 31 35 30 31 35 31 31 35 32 31 35 33 31 35     4915015115215315
     507:	34 31 35 35 31 35 36 31 35 37 31 35 38 31 35 39     4155156157158159
     517:	31 36 30 31 36 31 31 36 32 31 36 33 31 36 34 31     1601611621631641
     527:	36 35 31 36 36 31 36 37 31 36 38 31 36 39 31 37     6516616716816917
     537:	30 31 37 31 31 37 32 31 37 33 31 37 34 31 37 35     0171172173174175
     547:	31 37 36 31 37 37 31 37 38 31 37 39 31 38 30 31     1761771781791801
     557:	38 31 31 38 32 31 38 33 31 38 34 31 38 35 31 38     8118218318418518
     567:	36 31 38 37 31 38 38 31 38 39 31 39 30 31 39 31     6187188189190191
     577:	31 39 32 31 39 33 31 39 34 31 39 35 31 39 36 31     1921931941951961
     587:	39 37 31 39 38 31 39 39 32 30 30 32 30 31 32 30     9719819920020120
     597:	32 32 30 33 32 30 34 32 30 35 32 30 36 32 30 37     2203204205206207
     5a7:	32 30 38 32 30 39 32 31 30 32 31 31 32 31 32 32     2082092102112122
     5b7:	31 33 32 31 34 32 31 35 32 31 36 32 31 37 32 31     1321421521621721
     5c7:	38 32 31 39 32 32 30 32 32 31 32 32 32 32 32 33     8219220221222223
     5d7:	32 32 34 32 32 35 32 32 36 32 32 37 32 32 38 32     2242252262272282
     5e7:	32 39 32 33 30 32 33 31 32 33 32 32 33 33 32 33     2923023123223323
     5f7:	34 32 33 35 32 33 36 32 33 37 32 33 38 32 33 39     4235236237238239
     607:	32 34 30 32 34 31 32 34 32 32 34 33 32 34 34 32     2402412422432442
     617:	34 35 32 34 36 32 34 37 32 34 38 32 34 39 32 35     4524624724824925
     627:	30 32 35 31 32 35 32 32 35 33 32 35 34 32 35 35     0251252253254255
	...

00000638 <__init>:
     638:	11 24       	eor	r1, r1
     63a:	1f be       	out	0x3f, r1	; 63
     63c:	cf e5       	ldi	r28, 0x5F	; 95
     63e:	d4 e0       	ldi	r29, 0x04	; 4
     640:	de bf       	out	0x3e, r29	; 62
     642:	cd bf       	out	0x3d, r28	; 61

00000644 <__do_copy_data>:
     644:	10 e0       	ldi	r17, 0x00	; 0
     646:	a0 e6       	ldi	r26, 0x60	; 96
     648:	b0 e0       	ldi	r27, 0x00	; 0
     64a:	e4 e3       	ldi	r30, 0x34	; 52
     64c:	f3 e2       	ldi	r31, 0x23	; 35
     64e:	02 c0       	rjmp	.+4      	; 0x654 <.do_copy_data_start>

00000650 <.do_copy_data_loop>:
     650:	05 90       	lpm	r0, Z+
     652:	0d 92       	st	X+, r0

00000654 <.do_copy_data_start>:
     654:	a8 36       	cpi	r26, 0x68	; 104
     656:	b1 07       	cpc	r27, r17
     658:	d9 f7       	brne	.-10     	; 0x650 <.do_copy_data_loop>

0000065a <__do_clear_bss>:
     65a:	10 e0       	ldi	r17, 0x00	; 0
     65c:	a8 e6       	ldi	r26, 0x68	; 104
     65e:	b0 e0       	ldi	r27, 0x00	; 0
     660:	01 c0       	rjmp	.+2      	; 0x664 <.do_clear_bss_start>

00000662 <.do_clear_bss_loop>:
     662:	1d 92       	st	X+, r1

00000664 <.do_clear_bss_start>:
     664:	a4 3d       	cpi	r26, 0xD4	; 212
     666:	b1 07       	cpc	r27, r17
     668:	e1 f7       	brne	.-8      	; 0x662 <.do_clear_bss_loop>
     66a:	0c 94 c0 0e 	jmp	0x1d80	; 0x1d80 <main>

0000066e <__bad_interrupt>:
     66e:	0c 94 00 00 	jmp	0	; 0x0 <__heap_end>

00000672 <PWM_init>:
     672:	bb 9a       	sbi	0x17, 3	; 23
     674:	83 b7       	in	r24, 0x33	; 51
     676:	89 66       	ori	r24, 0x69	; 105
     678:	83 bf       	out	0x33, r24	; 51
     67a:	1c be       	out	0x3c, r1	; 60
     67c:	08 95       	ret

0000067e <PWM_output>:
     67e:	88 23       	and	r24, r24
     680:	11 f4       	brne	.+4      	; 0x686 <PWM_output+0x8>
     682:	bb 98       	cbi	0x17, 3	; 23
     684:	08 95       	ret
     686:	bb 9a       	sbi	0x17, 3	; 23
     688:	8c bf       	out	0x3c, r24	; 60
     68a:	08 95       	ret

0000068c <ADC_init>:
     68c:	87 b1       	in	r24, 0x07	; 7
     68e:	81 62       	ori	r24, 0x21	; 33
     690:	87 b9       	out	0x07, r24	; 7
     692:	86 b1       	in	r24, 0x06	; 6
     694:	87 60       	ori	r24, 0x07	; 7
     696:	86 b9       	out	0x06, r24	; 6
     698:	37 9a       	sbi	0x06, 7	; 6
     69a:	a8 9a       	sbi	0x15, 0	; 21
     69c:	85 b3       	in	r24, 0x15	; 21
     69e:	a0 9a       	sbi	0x14, 0	; 20
     6a0:	84 b3       	in	r24, 0x14	; 20
     6a2:	08 95       	ret

000006a4 <ADC_output>:
     6a4:	36 9a       	sbi	0x06, 6	; 6
     6a6:	90 e0       	ldi	r25, 0x00	; 0
     6a8:	20 e0       	ldi	r18, 0x00	; 0
     6aa:	30 e0       	ldi	r19, 0x00	; 0
     6ac:	34 9b       	sbis	0x06, 4	; 6
     6ae:	fe cf       	rjmp	.-4      	; 0x6ac <ADC_output+0x8>
     6b0:	85 b1       	in	r24, 0x05	; 5
     6b2:	28 0f       	add	r18, r24
     6b4:	31 1d       	adc	r19, r1
     6b6:	9f 5f       	subi	r25, 0xFF	; 255
     6b8:	90 32       	cpi	r25, 0x20	; 32
     6ba:	c0 f3       	brcs	.-16     	; 0x6ac <ADC_output+0x8>
     6bc:	36 95       	lsr	r19
     6be:	27 95       	ror	r18
     6c0:	32 95       	swap	r19
     6c2:	22 95       	swap	r18
     6c4:	2f 70       	andi	r18, 0x0F	; 15
     6c6:	23 27       	eor	r18, r19
     6c8:	3f 70       	andi	r19, 0x0F	; 15
     6ca:	23 27       	eor	r18, r19
     6cc:	80 91 d0 00 	lds	r24, 0x00D0
     6d0:	88 23       	and	r24, r24
     6d2:	79 f4       	brne	.+30     	; 0x6f2 <ADC_output+0x4e>
     6d4:	90 91 d1 00 	lds	r25, 0x00D1
     6d8:	e9 2f       	mov	r30, r25
     6da:	ff 27       	eor	r31, r31
     6dc:	e4 59       	subi	r30, 0x94	; 148
     6de:	ff 4f       	sbci	r31, 0xFF	; 255
     6e0:	20 83       	st	Z, r18
     6e2:	94 36       	cpi	r25, 0x64	; 100
     6e4:	29 f1       	breq	.+74     	; 0x730 <ADC_output+0x8c>
     6e6:	9f 5f       	subi	r25, 0xFF	; 255
     6e8:	90 93 d1 00 	sts	0x00D1, r25
     6ec:	80 e0       	ldi	r24, 0x00	; 0
     6ee:	90 e0       	ldi	r25, 0x00	; 0
     6f0:	08 95       	ret
     6f2:	81 30       	cpi	r24, 0x01	; 1
     6f4:	d9 f7       	brne	.-10     	; 0x6ec <ADC_output+0x48>
     6f6:	ac e6       	ldi	r26, 0x6C	; 108
     6f8:	b0 e0       	ldi	r27, 0x00	; 0
     6fa:	fd 01       	movw	r30, r26
     6fc:	81 81       	ldd	r24, Z+1	; 0x01
     6fe:	8d 93       	st	X+, r24
     700:	f0 e0       	ldi	r31, 0x00	; 0
     702:	a0 3d       	cpi	r26, 0xD0	; 208
     704:	bf 07       	cpc	r27, r31
     706:	c9 f7       	brne	.-14     	; 0x6fa <ADC_output+0x56>
     708:	20 93 cf 00 	sts	0x00CF, r18
     70c:	ec e6       	ldi	r30, 0x6C	; 108
     70e:	f0 e0       	ldi	r31, 0x00	; 0
     710:	20 e0       	ldi	r18, 0x00	; 0
     712:	30 e0       	ldi	r19, 0x00	; 0
     714:	81 91       	ld	r24, Z+
     716:	28 0f       	add	r18, r24
     718:	31 1d       	adc	r19, r1
     71a:	ae 17       	cp	r26, r30
     71c:	bf 07       	cpc	r27, r31
     71e:	d1 f7       	brne	.-12     	; 0x714 <ADC_output+0x70>
     720:	c9 01       	movw	r24, r18
     722:	64 e6       	ldi	r22, 0x64	; 100
     724:	70 e0       	ldi	r23, 0x00	; 0
     726:	0e 94 86 11 	call	0x230c	; 0x230c <__udivmodhi4>
     72a:	86 2f       	mov	r24, r22
     72c:	99 27       	eor	r25, r25
     72e:	08 95       	ret
     730:	81 e0       	ldi	r24, 0x01	; 1
     732:	80 93 d0 00 	sts	0x00D0, r24
     736:	d7 cf       	rjmp	.-82     	; 0x6e6 <ADC_output+0x42>

00000738 <sleep_m>:
     738:	08 95       	ret

0000073a <UART_init>:
     73a:	29 2f       	mov	r18, r25
     73c:	33 27       	eor	r19, r19
     73e:	20 bd       	out	0x20, r18	; 32
     740:	89 b9       	out	0x09, r24	; 9
     742:	80 b5       	in	r24, 0x20	; 32
     744:	8e 68       	ori	r24, 0x8E	; 142
     746:	80 bd       	out	0x20, r24	; 32
     748:	8a b1       	in	r24, 0x0a	; 10
     74a:	88 61       	ori	r24, 0x18	; 24
     74c:	8a b9       	out	0x0a, r24	; 10
     74e:	08 95       	ret

00000750 <error_handling>:
     750:	38 2f       	mov	r19, r24
     752:	ef e9       	ldi	r30, 0x9F	; 159
     754:	f1 e0       	ldi	r31, 0x01	; 1
     756:	84 91       	lpm	r24, Z
     758:	88 23       	and	r24, r24
     75a:	69 f0       	breq	.+26     	; 0x776 <error_handling+0x26>
     75c:	90 e0       	ldi	r25, 0x00	; 0
     75e:	5d 9b       	sbis	0x0b, 5	; 11
     760:	fe cf       	rjmp	.-4      	; 0x75e <error_handling+0xe>
     762:	9f 5f       	subi	r25, 0xFF	; 255
     764:	84 91       	lpm	r24, Z
     766:	8c b9       	out	0x0c, r24	; 12
     768:	e9 2f       	mov	r30, r25
     76a:	ff 27       	eor	r31, r31
     76c:	e1 56       	subi	r30, 0x61	; 97
     76e:	fe 4f       	sbci	r31, 0xFE	; 254
     770:	84 91       	lpm	r24, Z
     772:	88 23       	and	r24, r24
     774:	a1 f7       	brne	.-24     	; 0x75e <error_handling+0xe>
     776:	83 e0       	ldi	r24, 0x03	; 3
     778:	38 9f       	mul	r19, r24
     77a:	c0 01       	movw	r24, r0
     77c:	11 24       	eor	r1, r1
     77e:	89 5c       	subi	r24, 0xC9	; 201
     780:	9c 4f       	sbci	r25, 0xFC	; 252
     782:	20 e0       	ldi	r18, 0x00	; 0
     784:	5d 9b       	sbis	0x0b, 5	; 11
     786:	fe cf       	rjmp	.-4      	; 0x784 <error_handling+0x34>
     788:	fc 01       	movw	r30, r24
     78a:	e2 0f       	add	r30, r18
     78c:	f1 1d       	adc	r31, r1
     78e:	e4 91       	lpm	r30, Z
     790:	ec b9       	out	0x0c, r30	; 12
     792:	2f 5f       	subi	r18, 0xFF	; 255
     794:	23 30       	cpi	r18, 0x03	; 3
     796:	b0 f3       	brcs	.-20     	; 0x784 <error_handling+0x34>
     798:	e3 2f       	mov	r30, r19
     79a:	ff 27       	eor	r31, r31
     79c:	ee 0f       	add	r30, r30
     79e:	ff 1f       	adc	r31, r31
     7a0:	e7 5d       	subi	r30, 0xD7	; 215
     7a2:	fc 4f       	sbci	r31, 0xFC	; 252
     7a4:	01 90       	ld	r0, Z+
     7a6:	f0 81       	ld	r31, Z
     7a8:	e0 2d       	mov	r30, r0
     7aa:	9f 01       	movw	r18, r30
     7ac:	84 91       	lpm	r24, Z
     7ae:	88 23       	and	r24, r24
     7b0:	61 f0       	breq	.+24     	; 0x7ca <error_handling+0x7a>
     7b2:	90 e0       	ldi	r25, 0x00	; 0
     7b4:	5d 9b       	sbis	0x0b, 5	; 11
     7b6:	fe cf       	rjmp	.-4      	; 0x7b4 <error_handling+0x64>
     7b8:	9f 5f       	subi	r25, 0xFF	; 255
     7ba:	84 91       	lpm	r24, Z
     7bc:	8c b9       	out	0x0c, r24	; 12
     7be:	f9 01       	movw	r30, r18
     7c0:	e9 0f       	add	r30, r25
     7c2:	f1 1d       	adc	r31, r1
     7c4:	84 91       	lpm	r24, Z
     7c6:	88 23       	and	r24, r24
     7c8:	a9 f7       	brne	.-22     	; 0x7b4 <error_handling+0x64>
     7ca:	08 95       	ret

000007cc <UART_recive>:
     7cc:	bc 01       	movw	r22, r24
     7ce:	40 e0       	ldi	r20, 0x00	; 0
     7d0:	5f 9b       	sbis	0x0b, 7	; 11
     7d2:	fe cf       	rjmp	.-4      	; 0x7d0 <UART_recive+0x4>
     7d4:	24 2f       	mov	r18, r20
     7d6:	33 27       	eor	r19, r19
     7d8:	f9 01       	movw	r30, r18
     7da:	e6 0f       	add	r30, r22
     7dc:	f7 1f       	adc	r31, r23
     7de:	8c b1       	in	r24, 0x0c	; 12
     7e0:	80 83       	st	Z, r24
     7e2:	5d 9b       	sbis	0x0b, 5	; 11
     7e4:	fe cf       	rjmp	.-4      	; 0x7e2 <UART_recive+0x16>
     7e6:	80 81       	ld	r24, Z
     7e8:	8c b9       	out	0x0c, r24	; 12
     7ea:	80 81       	ld	r24, Z
     7ec:	8d 30       	cpi	r24, 0x0D	; 13
     7ee:	29 f0       	breq	.+10     	; 0x7fa <UART_recive+0x2e>
     7f0:	4f 5f       	subi	r20, 0xFF	; 255
     7f2:	45 30       	cpi	r20, 0x05	; 5
     7f4:	68 f3       	brcs	.-38     	; 0x7d0 <UART_recive+0x4>
     7f6:	24 2f       	mov	r18, r20
     7f8:	33 27       	eor	r19, r19
     7fa:	5d 9b       	sbis	0x0b, 5	; 11
     7fc:	fe cf       	rjmp	.-4      	; 0x7fa <UART_recive+0x2e>
     7fe:	8a e0       	ldi	r24, 0x0A	; 10
     800:	8c b9       	out	0x0c, r24	; 12
     802:	c9 01       	movw	r24, r18
     804:	08 95       	ret

00000806 <packet_assembler>:
     806:	cf 93       	push	r28
     808:	df 93       	push	r29
     80a:	da 01       	movw	r26, r20
     80c:	8c 93       	st	X, r24
     80e:	8d e3       	ldi	r24, 0x3D	; 61
     810:	ea 01       	movw	r28, r20
     812:	89 83       	std	Y+1, r24	; 0x01
     814:	9a 01       	movw	r18, r20
     816:	2e 5f       	subi	r18, 0xFE	; 254
     818:	3f 4f       	sbci	r19, 0xFF	; 255
     81a:	77 27       	eor	r23, r23
     81c:	fb 01       	movw	r30, r22
     81e:	ee 0f       	add	r30, r30
     820:	ff 1f       	adc	r31, r31
     822:	e6 0f       	add	r30, r22
     824:	f7 1f       	adc	r31, r23
     826:	e9 5c       	subi	r30, 0xC9	; 201
     828:	fc 4f       	sbci	r31, 0xFC	; 252
     82a:	84 91       	lpm	r24, Z
     82c:	8a 83       	std	Y+2, r24	; 0x02
     82e:	31 96       	adiw	r30, 0x01	; 1
     830:	84 91       	lpm	r24, Z
     832:	e9 01       	movw	r28, r18
     834:	89 83       	std	Y+1, r24	; 0x01
     836:	31 96       	adiw	r30, 0x01	; 1
     838:	e4 91       	lpm	r30, Z
     83a:	ea 83       	std	Y+2, r30	; 0x02
     83c:	df 91       	pop	r29
     83e:	cf 91       	pop	r28
     840:	08 95       	ret

00000842 <UART_send>:
     842:	66 23       	and	r22, r22
     844:	49 f0       	breq	.+18     	; 0x858 <UART_send+0x16>
     846:	fc 01       	movw	r30, r24
     848:	90 e0       	ldi	r25, 0x00	; 0
     84a:	5d 9b       	sbis	0x0b, 5	; 11
     84c:	fe cf       	rjmp	.-4      	; 0x84a <UART_send+0x8>
     84e:	81 91       	ld	r24, Z+
     850:	8c b9       	out	0x0c, r24	; 12
     852:	9f 5f       	subi	r25, 0xFF	; 255
     854:	96 17       	cp	r25, r22
     856:	c9 f7       	brne	.-14     	; 0x84a <UART_send+0x8>
     858:	5d 9b       	sbis	0x0b, 5	; 11
     85a:	fe cf       	rjmp	.-4      	; 0x858 <UART_send+0x16>
     85c:	8d e0       	ldi	r24, 0x0D	; 13
     85e:	8c b9       	out	0x0c, r24	; 12
     860:	5d 9b       	sbis	0x0b, 5	; 11
     862:	fe cf       	rjmp	.-4      	; 0x860 <UART_send+0x1e>
     864:	8a e0       	ldi	r24, 0x0A	; 10
     866:	8c b9       	out	0x0c, r24	; 12
     868:	08 95       	ret

0000086a <flash_string_send>:
     86a:	fc 01       	movw	r30, r24
     86c:	9c 01       	movw	r18, r24
     86e:	84 91       	lpm	r24, Z
     870:	88 23       	and	r24, r24
     872:	61 f0       	breq	.+24     	; 0x88c <flash_string_send+0x22>
     874:	90 e0       	ldi	r25, 0x00	; 0
     876:	5d 9b       	sbis	0x0b, 5	; 11
     878:	fe cf       	rjmp	.-4      	; 0x876 <flash_string_send+0xc>
     87a:	9f 5f       	subi	r25, 0xFF	; 255
     87c:	84 91       	lpm	r24, Z
     87e:	8c b9       	out	0x0c, r24	; 12
     880:	f9 01       	movw	r30, r18
     882:	e9 0f       	add	r30, r25
     884:	f1 1d       	adc	r31, r1
     886:	84 91       	lpm	r24, Z
     888:	88 23       	and	r24, r24
     88a:	a9 f7       	brne	.-22     	; 0x876 <flash_string_send+0xc>
     88c:	08 95       	ret

0000088e <UART_transmit_TF>:
     88e:	93 e0       	ldi	r25, 0x03	; 3
     890:	89 9f       	mul	r24, r25
     892:	c0 01       	movw	r24, r0
     894:	11 24       	eor	r1, r1
     896:	89 5c       	subi	r24, 0xC9	; 201
     898:	9c 4f       	sbci	r25, 0xFC	; 252
     89a:	20 e0       	ldi	r18, 0x00	; 0
     89c:	5d 9b       	sbis	0x0b, 5	; 11
     89e:	fe cf       	rjmp	.-4      	; 0x89c <UART_transmit_TF+0xe>
     8a0:	fc 01       	movw	r30, r24
     8a2:	e2 0f       	add	r30, r18
     8a4:	f1 1d       	adc	r31, r1
     8a6:	e4 91       	lpm	r30, Z
     8a8:	ec b9       	out	0x0c, r30	; 12
     8aa:	2f 5f       	subi	r18, 0xFF	; 255
     8ac:	23 30       	cpi	r18, 0x03	; 3
     8ae:	b0 f3       	brcs	.-20     	; 0x89c <UART_transmit_TF+0xe>
     8b0:	5d 9b       	sbis	0x0b, 5	; 11
     8b2:	fe cf       	rjmp	.-4      	; 0x8b0 <UART_transmit_TF+0x22>
     8b4:	8a e0       	ldi	r24, 0x0A	; 10
     8b6:	8c b9       	out	0x0c, r24	; 12
     8b8:	5d 9b       	sbis	0x0b, 5	; 11
     8ba:	fe cf       	rjmp	.-4      	; 0x8b8 <UART_transmit_TF+0x2a>
     8bc:	8d e0       	ldi	r24, 0x0D	; 13
     8be:	8c b9       	out	0x0c, r24	; 12
     8c0:	08 95       	ret

000008c2 <UART_transmit_TFb>:
     8c2:	98 2f       	mov	r25, r24
     8c4:	5d 9b       	sbis	0x0b, 5	; 11
     8c6:	fe cf       	rjmp	.-4      	; 0x8c4 <UART_transmit_TFb+0x2>
     8c8:	84 e5       	ldi	r24, 0x54	; 84
     8ca:	8c b9       	out	0x0c, r24	; 12
     8cc:	83 e0       	ldi	r24, 0x03	; 3
     8ce:	98 9f       	mul	r25, r24
     8d0:	c0 01       	movw	r24, r0
     8d2:	11 24       	eor	r1, r1
     8d4:	89 5c       	subi	r24, 0xC9	; 201
     8d6:	9c 4f       	sbci	r25, 0xFC	; 252
     8d8:	20 e0       	ldi	r18, 0x00	; 0
     8da:	5d 9b       	sbis	0x0b, 5	; 11
     8dc:	fe cf       	rjmp	.-4      	; 0x8da <UART_transmit_TFb+0x18>
     8de:	fc 01       	movw	r30, r24
     8e0:	e2 0f       	add	r30, r18
     8e2:	f1 1d       	adc	r31, r1
     8e4:	e4 91       	lpm	r30, Z
     8e6:	ec b9       	out	0x0c, r30	; 12
     8e8:	2f 5f       	subi	r18, 0xFF	; 255
     8ea:	23 30       	cpi	r18, 0x03	; 3
     8ec:	b0 f3       	brcs	.-20     	; 0x8da <UART_transmit_TFb+0x18>
     8ee:	5d 9b       	sbis	0x0b, 5	; 11
     8f0:	fe cf       	rjmp	.-4      	; 0x8ee <UART_transmit_TFb+0x2c>
     8f2:	8a e0       	ldi	r24, 0x0A	; 10
     8f4:	8c b9       	out	0x0c, r24	; 12
     8f6:	5d 9b       	sbis	0x0b, 5	; 11
     8f8:	fe cf       	rjmp	.-4      	; 0x8f6 <UART_transmit_TFb+0x34>
     8fa:	8d e0       	ldi	r24, 0x0D	; 13
     8fc:	8c b9       	out	0x0c, r24	; 12
     8fe:	08 95       	ret

00000900 <ioinit>:
     900:	85 b5       	in	r24, 0x25	; 37
     902:	8e 60       	ori	r24, 0x0E	; 14
     904:	85 bd       	out	0x25, r24	; 37
     906:	89 b7       	in	r24, 0x39	; 57
     908:	80 68       	ori	r24, 0x80	; 128
     90a:	89 bf       	out	0x39, r24	; 57
     90c:	8a ef       	ldi	r24, 0xFA	; 250
     90e:	83 bd       	out	0x23, r24	; 35
     910:	8a b3       	in	r24, 0x1a	; 26
     912:	80 6f       	ori	r24, 0xF0	; 240
     914:	8a bb       	out	0x1a, r24	; 26
     916:	bb 9a       	sbi	0x17, 3	; 23
     918:	83 b7       	in	r24, 0x33	; 51
     91a:	89 66       	ori	r24, 0x69	; 105
     91c:	83 bf       	out	0x33, r24	; 51
     91e:	1c be       	out	0x3c, r1	; 60
     920:	87 b1       	in	r24, 0x07	; 7
     922:	81 62       	ori	r24, 0x21	; 33
     924:	87 b9       	out	0x07, r24	; 7
     926:	86 b1       	in	r24, 0x06	; 6
     928:	87 60       	ori	r24, 0x07	; 7
     92a:	86 b9       	out	0x06, r24	; 6
     92c:	37 9a       	sbi	0x06, 7	; 6
     92e:	a8 9a       	sbi	0x15, 0	; 21
     930:	85 b3       	in	r24, 0x15	; 21
     932:	a0 9a       	sbi	0x14, 0	; 20
     934:	84 b3       	in	r24, 0x14	; 20
     936:	10 bc       	out	0x20, r1	; 32
     938:	88 e1       	ldi	r24, 0x18	; 24
     93a:	89 b9       	out	0x09, r24	; 9
     93c:	80 b5       	in	r24, 0x20	; 32
     93e:	8e 68       	ori	r24, 0x8E	; 142
     940:	80 bd       	out	0x20, r24	; 32
     942:	8a b1       	in	r24, 0x0a	; 10
     944:	88 61       	ori	r24, 0x18	; 24
     946:	8a b9       	out	0x0a, r24	; 10
     948:	78 94       	sei
     94a:	08 95       	ret

0000094c <monitor_mode>:
     94c:	5f 99       	sbic	0x0b, 7	; 11
     94e:	62 c0       	rjmp	.+196    	; 0xa14 <monitor_mode+0xc8>
     950:	90 91 6a 00 	lds	r25, 0x006A
     954:	83 e0       	ldi	r24, 0x03	; 3
     956:	98 9f       	mul	r25, r24
     958:	c0 01       	movw	r24, r0
     95a:	11 24       	eor	r1, r1
     95c:	89 5c       	subi	r24, 0xC9	; 201
     95e:	9c 4f       	sbci	r25, 0xFC	; 252
     960:	20 e0       	ldi	r18, 0x00	; 0
     962:	5d 9b       	sbis	0x0b, 5	; 11
     964:	fe cf       	rjmp	.-4      	; 0x962 <monitor_mode+0x16>
     966:	fc 01       	movw	r30, r24
     968:	e2 0f       	add	r30, r18
     96a:	f1 1d       	adc	r31, r1
     96c:	e4 91       	lpm	r30, Z
     96e:	ec b9       	out	0x0c, r30	; 12
     970:	2f 5f       	subi	r18, 0xFF	; 255
     972:	23 30       	cpi	r18, 0x03	; 3
     974:	b0 f3       	brcs	.-20     	; 0x962 <monitor_mode+0x16>
     976:	90 91 6b 00 	lds	r25, 0x006B
     97a:	9f 5f       	subi	r25, 0xFF	; 255
     97c:	90 93 6b 00 	sts	0x006B, r25
     980:	5d 9b       	sbis	0x0b, 5	; 11
     982:	fe cf       	rjmp	.-4      	; 0x980 <monitor_mode+0x34>
     984:	8b e3       	ldi	r24, 0x3B	; 59
     986:	8c b9       	out	0x0c, r24	; 12
     988:	83 e0       	ldi	r24, 0x03	; 3
     98a:	98 9f       	mul	r25, r24
     98c:	c0 01       	movw	r24, r0
     98e:	11 24       	eor	r1, r1
     990:	89 5c       	subi	r24, 0xC9	; 201
     992:	9c 4f       	sbci	r25, 0xFC	; 252
     994:	20 e0       	ldi	r18, 0x00	; 0
     996:	5d 9b       	sbis	0x0b, 5	; 11
     998:	fe cf       	rjmp	.-4      	; 0x996 <monitor_mode+0x4a>
     99a:	fc 01       	movw	r30, r24
     99c:	e2 0f       	add	r30, r18
     99e:	f1 1d       	adc	r31, r1
     9a0:	e4 91       	lpm	r30, Z
     9a2:	ec b9       	out	0x0c, r30	; 12
     9a4:	2f 5f       	subi	r18, 0xFF	; 255
     9a6:	23 30       	cpi	r18, 0x03	; 3
     9a8:	b0 f3       	brcs	.-20     	; 0x996 <monitor_mode+0x4a>
     9aa:	5d 9b       	sbis	0x0b, 5	; 11
     9ac:	fe cf       	rjmp	.-4      	; 0x9aa <monitor_mode+0x5e>
     9ae:	8b e3       	ldi	r24, 0x3B	; 59
     9b0:	8c b9       	out	0x0c, r24	; 12
     9b2:	90 91 d3 00 	lds	r25, 0x00D3
     9b6:	83 e0       	ldi	r24, 0x03	; 3
     9b8:	98 9f       	mul	r25, r24
     9ba:	c0 01       	movw	r24, r0
     9bc:	11 24       	eor	r1, r1
     9be:	89 5c       	subi	r24, 0xC9	; 201
     9c0:	9c 4f       	sbci	r25, 0xFC	; 252
     9c2:	20 e0       	ldi	r18, 0x00	; 0
     9c4:	5d 9b       	sbis	0x0b, 5	; 11
     9c6:	fe cf       	rjmp	.-4      	; 0x9c4 <monitor_mode+0x78>
     9c8:	fc 01       	movw	r30, r24
     9ca:	e2 0f       	add	r30, r18
     9cc:	f1 1d       	adc	r31, r1
     9ce:	e4 91       	lpm	r30, Z
     9d0:	ec b9       	out	0x0c, r30	; 12
     9d2:	2f 5f       	subi	r18, 0xFF	; 255
     9d4:	23 30       	cpi	r18, 0x03	; 3
     9d6:	b0 f3       	brcs	.-20     	; 0x9c4 <monitor_mode+0x78>
     9d8:	5d 9b       	sbis	0x0b, 5	; 11
     9da:	fe cf       	rjmp	.-4      	; 0x9d8 <monitor_mode+0x8c>
     9dc:	8b e3       	ldi	r24, 0x3B	; 59
     9de:	8c b9       	out	0x0c, r24	; 12
     9e0:	90 91 d2 00 	lds	r25, 0x00D2
     9e4:	83 e0       	ldi	r24, 0x03	; 3
     9e6:	98 9f       	mul	r25, r24
     9e8:	c0 01       	movw	r24, r0
     9ea:	11 24       	eor	r1, r1
     9ec:	89 5c       	subi	r24, 0xC9	; 201
     9ee:	9c 4f       	sbci	r25, 0xFC	; 252
     9f0:	20 e0       	ldi	r18, 0x00	; 0
     9f2:	5d 9b       	sbis	0x0b, 5	; 11
     9f4:	fe cf       	rjmp	.-4      	; 0x9f2 <monitor_mode+0xa6>
     9f6:	fc 01       	movw	r30, r24
     9f8:	e2 0f       	add	r30, r18
     9fa:	f1 1d       	adc	r31, r1
     9fc:	e4 91       	lpm	r30, Z
     9fe:	ec b9       	out	0x0c, r30	; 12
     a00:	2f 5f       	subi	r18, 0xFF	; 255
     a02:	23 30       	cpi	r18, 0x03	; 3
     a04:	b0 f3       	brcs	.-20     	; 0x9f2 <monitor_mode+0xa6>
     a06:	5d 9b       	sbis	0x0b, 5	; 11
     a08:	fe cf       	rjmp	.-4      	; 0xa06 <monitor_mode+0xba>
     a0a:	8d e0       	ldi	r24, 0x0D	; 13
     a0c:	8c b9       	out	0x0c, r24	; 12
     a0e:	5d 9b       	sbis	0x0b, 5	; 11
     a10:	fe cf       	rjmp	.-4      	; 0xa0e <monitor_mode+0xc2>
     a12:	09 c0       	rjmp	.+18     	; 0xa26 <monitor_mode+0xda>
     a14:	8c b1       	in	r24, 0x0c	; 12
     a16:	88 37       	cpi	r24, 0x78	; 120
     a18:	09 f0       	breq	.+2      	; 0xa1c <monitor_mode+0xd0>
     a1a:	9a cf       	rjmp	.-204    	; 0x950 <monitor_mode+0x4>
     a1c:	80 91 69 00 	lds	r24, 0x0069
     a20:	80 93 68 00 	sts	0x0068, r24
     a24:	95 cf       	rjmp	.-214    	; 0x950 <monitor_mode+0x4>
     a26:	8a e0       	ldi	r24, 0x0A	; 10
     a28:	8c b9       	out	0x0c, r24	; 12
     a2a:	08 95       	ret

00000a2c <sleeping_mode>:
     a2c:	5f 9b       	sbis	0x0b, 7	; 11
     a2e:	16 c0       	rjmp	.+44     	; 0xa5c <sleeping_mode+0x30>
     a30:	8c b1       	in	r24, 0x0c	; 12
     a32:	8f 36       	cpi	r24, 0x6F	; 111
     a34:	99 f4       	brne	.+38     	; 0xa5c <sleeping_mode+0x30>
     a36:	85 b7       	in	r24, 0x35	; 53
     a38:	8f 7b       	andi	r24, 0xBF	; 191
     a3a:	85 bf       	out	0x35, r24	; 53
     a3c:	5d 9b       	sbis	0x0b, 5	; 11
     a3e:	fe cf       	rjmp	.-4      	; 0xa3c <sleeping_mode+0x10>
     a40:	8f e6       	ldi	r24, 0x6F	; 111
     a42:	8c b9       	out	0x0c, r24	; 12
     a44:	5d 9b       	sbis	0x0b, 5	; 11
     a46:	fe cf       	rjmp	.-4      	; 0xa44 <sleeping_mode+0x18>
     a48:	8d e0       	ldi	r24, 0x0D	; 13
     a4a:	8c b9       	out	0x0c, r24	; 12
     a4c:	5d 9b       	sbis	0x0b, 5	; 11
     a4e:	fe cf       	rjmp	.-4      	; 0xa4c <sleeping_mode+0x20>
     a50:	8a e0       	ldi	r24, 0x0A	; 10
     a52:	8c b9       	out	0x0c, r24	; 12
     a54:	80 91 69 00 	lds	r24, 0x0069
     a58:	80 93 68 00 	sts	0x0068, r24
     a5c:	85 b7       	in	r24, 0x35	; 53
     a5e:	80 64       	ori	r24, 0x40	; 64
     a60:	85 bf       	out	0x35, r24	; 53
     a62:	85 b7       	in	r24, 0x35	; 53
     a64:	8f 74       	andi	r24, 0x4F	; 79
     a66:	85 bf       	out	0x35, r24	; 53
     a68:	85 b7       	in	r24, 0x35	; 53
     a6a:	80 64       	ori	r24, 0x40	; 64
     a6c:	85 bf       	out	0x35, r24	; 53
     a6e:	88 95       	sleep
     a70:	85 b7       	in	r24, 0x35	; 53
     a72:	8f 7b       	andi	r24, 0xBF	; 191
     a74:	85 bf       	out	0x35, r24	; 53
     a76:	08 95       	ret

00000a78 <manual_m>:
     a78:	36 9a       	sbi	0x06, 6	; 6
     a7a:	90 e0       	ldi	r25, 0x00	; 0
     a7c:	20 e0       	ldi	r18, 0x00	; 0
     a7e:	30 e0       	ldi	r19, 0x00	; 0
     a80:	34 9b       	sbis	0x06, 4	; 6
     a82:	fe cf       	rjmp	.-4      	; 0xa80 <manual_m+0x8>
     a84:	85 b1       	in	r24, 0x05	; 5
     a86:	28 0f       	add	r18, r24
     a88:	31 1d       	adc	r19, r1
     a8a:	9f 5f       	subi	r25, 0xFF	; 255
     a8c:	90 32       	cpi	r25, 0x20	; 32
     a8e:	c0 f3       	brcs	.-16     	; 0xa80 <manual_m+0x8>
     a90:	36 95       	lsr	r19
     a92:	27 95       	ror	r18
     a94:	32 95       	swap	r19
     a96:	22 95       	swap	r18
     a98:	2f 70       	andi	r18, 0x0F	; 15
     a9a:	23 27       	eor	r18, r19
     a9c:	3f 70       	andi	r19, 0x0F	; 15
     a9e:	23 27       	eor	r18, r19
     aa0:	80 91 d0 00 	lds	r24, 0x00D0
     aa4:	88 23       	and	r24, r24
     aa6:	a9 f4       	brne	.+42     	; 0xad2 <manual_m+0x5a>
     aa8:	90 91 d1 00 	lds	r25, 0x00D1
     aac:	e9 2f       	mov	r30, r25
     aae:	ff 27       	eor	r31, r31
     ab0:	e4 59       	subi	r30, 0x94	; 148
     ab2:	ff 4f       	sbci	r31, 0xFF	; 255
     ab4:	20 83       	st	Z, r18
     ab6:	94 36       	cpi	r25, 0x64	; 100
     ab8:	89 f1       	breq	.+98     	; 0xb1c <manual_m+0xa4>
     aba:	9f 5f       	subi	r25, 0xFF	; 255
     abc:	90 93 d1 00 	sts	0x00D1, r25
     ac0:	60 e0       	ldi	r22, 0x00	; 0
     ac2:	60 93 d3 00 	sts	0x00D3, r22
     ac6:	80 91 d2 00 	lds	r24, 0x00D2
     aca:	88 23       	and	r24, r24
     acc:	21 f5       	brne	.+72     	; 0xb16 <manual_m+0x9e>
     ace:	bb 98       	cbi	0x17, 3	; 23
     ad0:	29 c0       	rjmp	.+82     	; 0xb24 <manual_m+0xac>
     ad2:	81 30       	cpi	r24, 0x01	; 1
     ad4:	a9 f7       	brne	.-22     	; 0xac0 <manual_m+0x48>
     ad6:	ac e6       	ldi	r26, 0x6C	; 108
     ad8:	b0 e0       	ldi	r27, 0x00	; 0
     ada:	fd 01       	movw	r30, r26
     adc:	81 81       	ldd	r24, Z+1	; 0x01
     ade:	8d 93       	st	X+, r24
     ae0:	f0 e0       	ldi	r31, 0x00	; 0
     ae2:	a0 3d       	cpi	r26, 0xD0	; 208
     ae4:	bf 07       	cpc	r27, r31
     ae6:	c9 f7       	brne	.-14     	; 0xada <manual_m+0x62>
     ae8:	20 93 cf 00 	sts	0x00CF, r18
     aec:	ec e6       	ldi	r30, 0x6C	; 108
     aee:	f0 e0       	ldi	r31, 0x00	; 0
     af0:	20 e0       	ldi	r18, 0x00	; 0
     af2:	30 e0       	ldi	r19, 0x00	; 0
     af4:	81 91       	ld	r24, Z+
     af6:	28 0f       	add	r18, r24
     af8:	31 1d       	adc	r19, r1
     afa:	ae 17       	cp	r26, r30
     afc:	bf 07       	cpc	r27, r31
     afe:	d1 f7       	brne	.-12     	; 0xaf4 <manual_m+0x7c>
     b00:	c9 01       	movw	r24, r18
     b02:	64 e6       	ldi	r22, 0x64	; 100
     b04:	70 e0       	ldi	r23, 0x00	; 0
     b06:	0e 94 86 11 	call	0x230c	; 0x230c <__udivmodhi4>
     b0a:	60 93 d3 00 	sts	0x00D3, r22
     b0e:	80 91 d2 00 	lds	r24, 0x00D2
     b12:	88 23       	and	r24, r24
     b14:	e1 f2       	breq	.-72     	; 0xace <manual_m+0x56>
     b16:	bb 9a       	sbi	0x17, 3	; 23
     b18:	8c bf       	out	0x3c, r24	; 60
     b1a:	04 c0       	rjmp	.+8      	; 0xb24 <manual_m+0xac>
     b1c:	81 e0       	ldi	r24, 0x01	; 1
     b1e:	80 93 d0 00 	sts	0x00D0, r24
     b22:	cb cf       	rjmp	.-106    	; 0xaba <manual_m+0x42>
     b24:	80 91 61 00 	lds	r24, 0x0061
     b28:	80 93 d2 00 	sts	0x00D2, r24
     b2c:	08 95       	ret

00000b2e <P_regulator>:
     b2e:	80 91 6a 00 	lds	r24, 0x006A
     b32:	8f 5f       	subi	r24, 0xFF	; 255
     b34:	80 93 6a 00 	sts	0x006A, r24
     b38:	36 9a       	sbi	0x06, 6	; 6
     b3a:	90 e0       	ldi	r25, 0x00	; 0
     b3c:	20 e0       	ldi	r18, 0x00	; 0
     b3e:	30 e0       	ldi	r19, 0x00	; 0
     b40:	34 9b       	sbis	0x06, 4	; 6
     b42:	fe cf       	rjmp	.-4      	; 0xb40 <P_regulator+0x12>
     b44:	85 b1       	in	r24, 0x05	; 5
     b46:	28 0f       	add	r18, r24
     b48:	31 1d       	adc	r19, r1
     b4a:	9f 5f       	subi	r25, 0xFF	; 255
     b4c:	90 32       	cpi	r25, 0x20	; 32
     b4e:	c0 f3       	brcs	.-16     	; 0xb40 <P_regulator+0x12>
     b50:	36 95       	lsr	r19
     b52:	27 95       	ror	r18
     b54:	32 95       	swap	r19
     b56:	22 95       	swap	r18
     b58:	2f 70       	andi	r18, 0x0F	; 15
     b5a:	23 27       	eor	r18, r19
     b5c:	3f 70       	andi	r19, 0x0F	; 15
     b5e:	23 27       	eor	r18, r19
     b60:	80 91 d0 00 	lds	r24, 0x00D0
     b64:	88 23       	and	r24, r24
     b66:	71 f5       	brne	.+92     	; 0xbc4 <P_regulator+0x96>
     b68:	90 91 d1 00 	lds	r25, 0x00D1
     b6c:	e9 2f       	mov	r30, r25
     b6e:	ff 27       	eor	r31, r31
     b70:	e4 59       	subi	r30, 0x94	; 148
     b72:	ff 4f       	sbci	r31, 0xFF	; 255
     b74:	20 83       	st	Z, r18
     b76:	94 36       	cpi	r25, 0x64	; 100
     b78:	09 f4       	brne	.+2      	; 0xb7c <P_regulator+0x4e>
     b7a:	52 c0       	rjmp	.+164    	; 0xc20 <P_regulator+0xf2>
     b7c:	9f 5f       	subi	r25, 0xFF	; 255
     b7e:	90 93 d1 00 	sts	0x00D1, r25
     b82:	60 e0       	ldi	r22, 0x00	; 0
     b84:	4f ef       	ldi	r20, 0xFF	; 255
     b86:	50 e0       	ldi	r21, 0x00	; 0
     b88:	60 93 d3 00 	sts	0x00D3, r22
     b8c:	90 91 d2 00 	lds	r25, 0x00D2
     b90:	99 23       	and	r25, r25
     b92:	f1 f5       	brne	.+124    	; 0xc10 <P_regulator+0xe2>
     b94:	bb 98       	cbi	0x17, 3	; 23
     b96:	20 91 61 00 	lds	r18, 0x0061
     b9a:	33 27       	eor	r19, r19
     b9c:	24 1b       	sub	r18, r20
     b9e:	35 0b       	sbc	r19, r21
     ba0:	80 91 60 00 	lds	r24, 0x0060
     ba4:	99 27       	eor	r25, r25
     ba6:	a9 01       	movw	r20, r18
     ba8:	48 9f       	mul	r20, r24
     baa:	90 01       	movw	r18, r0
     bac:	49 9f       	mul	r20, r25
     bae:	30 0d       	add	r19, r0
     bb0:	58 9f       	mul	r21, r24
     bb2:	30 0d       	add	r19, r0
     bb4:	11 24       	eor	r1, r1
     bb6:	37 fd       	sbrc	r19, 7
     bb8:	30 c0       	rjmp	.+96     	; 0xc1a <P_regulator+0xec>
     bba:	2f 3f       	cpi	r18, 0xFF	; 255
     bbc:	31 05       	cpc	r19, r1
     bbe:	a1 f1       	breq	.+104    	; 0xc28 <P_regulator+0xfa>
     bc0:	9c f1       	brlt	.+102    	; 0xc28 <P_regulator+0xfa>
     bc2:	29 c0       	rjmp	.+82     	; 0xc16 <P_regulator+0xe8>
     bc4:	81 30       	cpi	r24, 0x01	; 1
     bc6:	e9 f6       	brne	.-70     	; 0xb82 <P_regulator+0x54>
     bc8:	ac e6       	ldi	r26, 0x6C	; 108
     bca:	b0 e0       	ldi	r27, 0x00	; 0
     bcc:	fd 01       	movw	r30, r26
     bce:	81 81       	ldd	r24, Z+1	; 0x01
     bd0:	8d 93       	st	X+, r24
     bd2:	f0 e0       	ldi	r31, 0x00	; 0
     bd4:	a0 3d       	cpi	r26, 0xD0	; 208
     bd6:	bf 07       	cpc	r27, r31
     bd8:	c9 f7       	brne	.-14     	; 0xbcc <P_regulator+0x9e>
     bda:	20 93 cf 00 	sts	0x00CF, r18
     bde:	ec e6       	ldi	r30, 0x6C	; 108
     be0:	f0 e0       	ldi	r31, 0x00	; 0
     be2:	20 e0       	ldi	r18, 0x00	; 0
     be4:	30 e0       	ldi	r19, 0x00	; 0
     be6:	81 91       	ld	r24, Z+
     be8:	28 0f       	add	r18, r24
     bea:	31 1d       	adc	r19, r1
     bec:	ae 17       	cp	r26, r30
     bee:	bf 07       	cpc	r27, r31
     bf0:	d1 f7       	brne	.-12     	; 0xbe6 <P_regulator+0xb8>
     bf2:	c9 01       	movw	r24, r18
     bf4:	64 e6       	ldi	r22, 0x64	; 100
     bf6:	70 e0       	ldi	r23, 0x00	; 0
     bf8:	0e 94 86 11 	call	0x230c	; 0x230c <__udivmodhi4>
     bfc:	86 2f       	mov	r24, r22
     bfe:	80 95       	com	r24
     c00:	48 2f       	mov	r20, r24
     c02:	55 27       	eor	r21, r21
     c04:	60 93 d3 00 	sts	0x00D3, r22
     c08:	90 91 d2 00 	lds	r25, 0x00D2
     c0c:	99 23       	and	r25, r25
     c0e:	11 f2       	breq	.-124    	; 0xb94 <P_regulator+0x66>
     c10:	bb 9a       	sbi	0x17, 3	; 23
     c12:	9c bf       	out	0x3c, r25	; 60
     c14:	c0 cf       	rjmp	.-128    	; 0xb96 <P_regulator+0x68>
     c16:	2f ef       	ldi	r18, 0xFF	; 255
     c18:	07 c0       	rjmp	.+14     	; 0xc28 <P_regulator+0xfa>
     c1a:	20 e0       	ldi	r18, 0x00	; 0
     c1c:	30 e0       	ldi	r19, 0x00	; 0
     c1e:	04 c0       	rjmp	.+8      	; 0xc28 <P_regulator+0xfa>
     c20:	81 e0       	ldi	r24, 0x01	; 1
     c22:	80 93 d0 00 	sts	0x00D0, r24
     c26:	aa cf       	rjmp	.-172    	; 0xb7c <P_regulator+0x4e>
     c28:	20 93 d2 00 	sts	0x00D2, r18
     c2c:	08 95       	ret

00000c2e <regulator>:
     c2e:	36 9a       	sbi	0x06, 6	; 6
     c30:	90 e0       	ldi	r25, 0x00	; 0
     c32:	20 e0       	ldi	r18, 0x00	; 0
     c34:	30 e0       	ldi	r19, 0x00	; 0
     c36:	34 9b       	sbis	0x06, 4	; 6
     c38:	fe cf       	rjmp	.-4      	; 0xc36 <regulator+0x8>
     c3a:	85 b1       	in	r24, 0x05	; 5
     c3c:	28 0f       	add	r18, r24
     c3e:	31 1d       	adc	r19, r1
     c40:	9f 5f       	subi	r25, 0xFF	; 255
     c42:	90 32       	cpi	r25, 0x20	; 32
     c44:	c0 f3       	brcs	.-16     	; 0xc36 <regulator+0x8>
     c46:	36 95       	lsr	r19
     c48:	27 95       	ror	r18
     c4a:	32 95       	swap	r19
     c4c:	22 95       	swap	r18
     c4e:	2f 70       	andi	r18, 0x0F	; 15
     c50:	23 27       	eor	r18, r19
     c52:	3f 70       	andi	r19, 0x0F	; 15
     c54:	23 27       	eor	r18, r19
     c56:	80 91 d0 00 	lds	r24, 0x00D0
     c5a:	88 23       	and	r24, r24
     c5c:	81 f4       	brne	.+32     	; 0xc7e <regulator+0x50>
     c5e:	90 91 d1 00 	lds	r25, 0x00D1
     c62:	e9 2f       	mov	r30, r25
     c64:	ff 27       	eor	r31, r31
     c66:	e4 59       	subi	r30, 0x94	; 148
     c68:	ff 4f       	sbci	r31, 0xFF	; 255
     c6a:	20 83       	st	Z, r18
     c6c:	94 36       	cpi	r25, 0x64	; 100
     c6e:	09 f4       	brne	.+2      	; 0xc72 <regulator+0x44>
     c70:	48 c0       	rjmp	.+144    	; 0xd02 <regulator+0xd4>
     c72:	9f 5f       	subi	r25, 0xFF	; 255
     c74:	90 93 d1 00 	sts	0x00D1, r25
     c78:	10 92 d3 00 	sts	0x00D3, r1
     c7c:	08 95       	ret
     c7e:	81 30       	cpi	r24, 0x01	; 1
     c80:	d1 f0       	breq	.+52     	; 0xcb6 <regulator+0x88>
     c82:	60 e0       	ldi	r22, 0x00	; 0
     c84:	20 e0       	ldi	r18, 0x00	; 0
     c86:	30 e0       	ldi	r19, 0x00	; 0
     c88:	80 e0       	ldi	r24, 0x00	; 0
     c8a:	90 e0       	ldi	r25, 0x00	; 0
     c8c:	60 93 d3 00 	sts	0x00D3, r22
     c90:	89 2b       	or	r24, r25
     c92:	b1 f1       	breq	.+108    	; 0xd00 <regulator+0xd2>
     c94:	80 91 66 00 	lds	r24, 0x0066
     c98:	48 2f       	mov	r20, r24
     c9a:	55 27       	eor	r21, r21
     c9c:	80 91 65 00 	lds	r24, 0x0065
     ca0:	99 27       	eor	r25, r25
     ca2:	84 1b       	sub	r24, r20
     ca4:	95 0b       	sbc	r25, r21
     ca6:	28 17       	cp	r18, r24
     ca8:	39 07       	cpc	r19, r25
     caa:	7c f1       	brlt	.+94     	; 0xd0a <regulator+0xdc>
     cac:	dc 9a       	sbi	0x1b, 4	; 27
     cae:	dd 9a       	sbi	0x1b, 5	; 27
     cb0:	de 9a       	sbi	0x1b, 6	; 27
     cb2:	df 9a       	sbi	0x1b, 7	; 27
     cb4:	08 95       	ret
     cb6:	ac e6       	ldi	r26, 0x6C	; 108
     cb8:	b0 e0       	ldi	r27, 0x00	; 0
     cba:	fd 01       	movw	r30, r26
     cbc:	81 81       	ldd	r24, Z+1	; 0x01
     cbe:	8d 93       	st	X+, r24
     cc0:	f0 e0       	ldi	r31, 0x00	; 0
     cc2:	a0 3d       	cpi	r26, 0xD0	; 208
     cc4:	bf 07       	cpc	r27, r31
     cc6:	c9 f7       	brne	.-14     	; 0xcba <regulator+0x8c>
     cc8:	20 93 cf 00 	sts	0x00CF, r18
     ccc:	ec e6       	ldi	r30, 0x6C	; 108
     cce:	f0 e0       	ldi	r31, 0x00	; 0
     cd0:	20 e0       	ldi	r18, 0x00	; 0
     cd2:	30 e0       	ldi	r19, 0x00	; 0
     cd4:	81 91       	ld	r24, Z+
     cd6:	28 0f       	add	r18, r24
     cd8:	31 1d       	adc	r19, r1
     cda:	ae 17       	cp	r26, r30
     cdc:	bf 07       	cpc	r27, r31
     cde:	d1 f7       	brne	.-12     	; 0xcd4 <regulator+0xa6>
     ce0:	c9 01       	movw	r24, r18
     ce2:	64 e6       	ldi	r22, 0x64	; 100
     ce4:	70 e0       	ldi	r23, 0x00	; 0
     ce6:	0e 94 86 11 	call	0x230c	; 0x230c <__udivmodhi4>
     cea:	26 2f       	mov	r18, r22
     cec:	33 27       	eor	r19, r19
     cee:	88 27       	eor	r24, r24
     cf0:	99 27       	eor	r25, r25
     cf2:	82 1b       	sub	r24, r18
     cf4:	93 0b       	sbc	r25, r19
     cf6:	ca cf       	rjmp	.-108    	; 0xc8c <regulator+0x5e>
     cf8:	dc 98       	cbi	0x1b, 4	; 27
     cfa:	dd 98       	cbi	0x1b, 5	; 27
     cfc:	de 98       	cbi	0x1b, 6	; 27
     cfe:	df 98       	cbi	0x1b, 7	; 27
     d00:	08 95       	ret
     d02:	81 e0       	ldi	r24, 0x01	; 1
     d04:	80 93 d0 00 	sts	0x00D0, r24
     d08:	b4 cf       	rjmp	.-152    	; 0xc72 <regulator+0x44>
     d0a:	80 91 64 00 	lds	r24, 0x0064
     d0e:	99 27       	eor	r25, r25
     d10:	84 1b       	sub	r24, r20
     d12:	95 0b       	sbc	r25, r21
     d14:	28 17       	cp	r18, r24
     d16:	39 07       	cpc	r19, r25
     d18:	6c f4       	brge	.+26     	; 0xd34 <regulator+0x106>
     d1a:	80 91 63 00 	lds	r24, 0x0063
     d1e:	99 27       	eor	r25, r25
     d20:	84 1b       	sub	r24, r20
     d22:	95 0b       	sbc	r25, r21
     d24:	28 17       	cp	r18, r24
     d26:	39 07       	cpc	r19, r25
     d28:	54 f0       	brlt	.+20     	; 0xd3e <regulator+0x110>
     d2a:	dc 9a       	sbi	0x1b, 4	; 27
     d2c:	dd 9a       	sbi	0x1b, 5	; 27
     d2e:	de 98       	cbi	0x1b, 6	; 27
     d30:	df 98       	cbi	0x1b, 7	; 27
     d32:	08 95       	ret
     d34:	dc 9a       	sbi	0x1b, 4	; 27
     d36:	dd 9a       	sbi	0x1b, 5	; 27
     d38:	de 9a       	sbi	0x1b, 6	; 27
     d3a:	df 98       	cbi	0x1b, 7	; 27
     d3c:	08 95       	ret
     d3e:	80 91 62 00 	lds	r24, 0x0062
     d42:	99 27       	eor	r25, r25
     d44:	84 1b       	sub	r24, r20
     d46:	95 0b       	sbc	r25, r21
     d48:	28 17       	cp	r18, r24
     d4a:	39 07       	cpc	r19, r25
     d4c:	ac f2       	brlt	.-86     	; 0xcf8 <regulator+0xca>
     d4e:	dc 9a       	sbi	0x1b, 4	; 27
     d50:	dd 98       	cbi	0x1b, 5	; 27
     d52:	de 98       	cbi	0x1b, 6	; 27
     d54:	df 98       	cbi	0x1b, 7	; 27
     d56:	08 95       	ret

00000d58 <regulation>:
     d58:	40 91 68 00 	lds	r20, 0x0068
     d5c:	80 91 69 00 	lds	r24, 0x0069
     d60:	48 17       	cp	r20, r24
     d62:	29 f0       	breq	.+10     	; 0xd6e <regulation+0x16>
     d64:	bb 98       	cbi	0x17, 3	; 23
     d66:	dc 98       	cbi	0x1b, 4	; 27
     d68:	dd 98       	cbi	0x1b, 5	; 27
     d6a:	de 98       	cbi	0x1b, 6	; 27
     d6c:	df 98       	cbi	0x1b, 7	; 27
     d6e:	42 30       	cpi	r20, 0x02	; 2
     d70:	e0 f1       	brcs	.+120    	; 0xdea <regulation+0x92>
     d72:	42 30       	cpi	r20, 0x02	; 2
     d74:	31 f0       	breq	.+12     	; 0xd82 <regulation+0x2a>
     d76:	44 30       	cpi	r20, 0x04	; 4
     d78:	09 f0       	breq	.+2      	; 0xd7c <regulation+0x24>
     d7a:	08 95       	ret
     d7c:	0e 94 17 06 	call	0xc2e	; 0xc2e <regulator>
     d80:	08 95       	ret
     d82:	36 9a       	sbi	0x06, 6	; 6
     d84:	90 e0       	ldi	r25, 0x00	; 0
     d86:	20 e0       	ldi	r18, 0x00	; 0
     d88:	30 e0       	ldi	r19, 0x00	; 0
     d8a:	34 9b       	sbis	0x06, 4	; 6
     d8c:	fe cf       	rjmp	.-4      	; 0xd8a <regulation+0x32>
     d8e:	85 b1       	in	r24, 0x05	; 5
     d90:	28 0f       	add	r18, r24
     d92:	31 1d       	adc	r19, r1
     d94:	9f 5f       	subi	r25, 0xFF	; 255
     d96:	90 32       	cpi	r25, 0x20	; 32
     d98:	c0 f3       	brcs	.-16     	; 0xd8a <regulation+0x32>
     d9a:	36 95       	lsr	r19
     d9c:	27 95       	ror	r18
     d9e:	32 95       	swap	r19
     da0:	22 95       	swap	r18
     da2:	2f 70       	andi	r18, 0x0F	; 15
     da4:	23 27       	eor	r18, r19
     da6:	3f 70       	andi	r19, 0x0F	; 15
     da8:	23 27       	eor	r18, r19
     daa:	80 91 d0 00 	lds	r24, 0x00D0
     dae:	88 23       	and	r24, r24
     db0:	09 f0       	breq	.+2      	; 0xdb4 <regulation+0x5c>
     db2:	61 c0       	rjmp	.+194    	; 0xe76 <regulation+0x11e>
     db4:	90 91 d1 00 	lds	r25, 0x00D1
     db8:	e9 2f       	mov	r30, r25
     dba:	ff 27       	eor	r31, r31
     dbc:	e4 59       	subi	r30, 0x94	; 148
     dbe:	ff 4f       	sbci	r31, 0xFF	; 255
     dc0:	20 83       	st	Z, r18
     dc2:	94 36       	cpi	r25, 0x64	; 100
     dc4:	09 f4       	brne	.+2      	; 0xdc8 <regulation+0x70>
     dc6:	ae c0       	rjmp	.+348    	; 0xf24 <regulation+0x1cc>
     dc8:	9f 5f       	subi	r25, 0xFF	; 255
     dca:	90 93 d1 00 	sts	0x00D1, r25
     dce:	60 e0       	ldi	r22, 0x00	; 0
     dd0:	60 93 d3 00 	sts	0x00D3, r22
     dd4:	80 91 d2 00 	lds	r24, 0x00D2
     dd8:	88 23       	and	r24, r24
     dda:	09 f0       	breq	.+2      	; 0xdde <regulation+0x86>
     ddc:	77 c0       	rjmp	.+238    	; 0xecc <regulation+0x174>
     dde:	bb 98       	cbi	0x17, 3	; 23
     de0:	80 91 61 00 	lds	r24, 0x0061
     de4:	80 93 d2 00 	sts	0x00D2, r24
     de8:	08 95       	ret
     dea:	80 91 6a 00 	lds	r24, 0x006A
     dee:	8f 5f       	subi	r24, 0xFF	; 255
     df0:	80 93 6a 00 	sts	0x006A, r24
     df4:	36 9a       	sbi	0x06, 6	; 6
     df6:	90 e0       	ldi	r25, 0x00	; 0
     df8:	20 e0       	ldi	r18, 0x00	; 0
     dfa:	30 e0       	ldi	r19, 0x00	; 0
     dfc:	34 9b       	sbis	0x06, 4	; 6
     dfe:	fe cf       	rjmp	.-4      	; 0xdfc <regulation+0xa4>
     e00:	85 b1       	in	r24, 0x05	; 5
     e02:	28 0f       	add	r18, r24
     e04:	31 1d       	adc	r19, r1
     e06:	9f 5f       	subi	r25, 0xFF	; 255
     e08:	90 32       	cpi	r25, 0x20	; 32
     e0a:	c0 f3       	brcs	.-16     	; 0xdfc <regulation+0xa4>
     e0c:	36 95       	lsr	r19
     e0e:	27 95       	ror	r18
     e10:	32 95       	swap	r19
     e12:	22 95       	swap	r18
     e14:	2f 70       	andi	r18, 0x0F	; 15
     e16:	23 27       	eor	r18, r19
     e18:	3f 70       	andi	r19, 0x0F	; 15
     e1a:	23 27       	eor	r18, r19
     e1c:	80 91 d0 00 	lds	r24, 0x00D0
     e20:	88 23       	and	r24, r24
     e22:	09 f4       	brne	.+2      	; 0xe26 <regulation+0xce>
     e24:	46 c0       	rjmp	.+140    	; 0xeb2 <regulation+0x15a>
     e26:	81 30       	cpi	r24, 0x01	; 1
     e28:	09 f4       	brne	.+2      	; 0xe2c <regulation+0xd4>
     e2a:	5a c0       	rjmp	.+180    	; 0xee0 <regulation+0x188>
     e2c:	60 e0       	ldi	r22, 0x00	; 0
     e2e:	ef ef       	ldi	r30, 0xFF	; 255
     e30:	f0 e0       	ldi	r31, 0x00	; 0
     e32:	60 93 d3 00 	sts	0x00D3, r22
     e36:	90 91 d2 00 	lds	r25, 0x00D2
     e3a:	99 23       	and	r25, r25
     e3c:	09 f0       	breq	.+2      	; 0xe40 <regulation+0xe8>
     e3e:	4d c0       	rjmp	.+154    	; 0xeda <regulation+0x182>
     e40:	bb 98       	cbi	0x17, 3	; 23
     e42:	20 91 61 00 	lds	r18, 0x0061
     e46:	33 27       	eor	r19, r19
     e48:	2e 1b       	sub	r18, r30
     e4a:	3f 0b       	sbc	r19, r31
     e4c:	80 91 60 00 	lds	r24, 0x0060
     e50:	99 27       	eor	r25, r25
     e52:	f9 01       	movw	r30, r18
     e54:	e8 9f       	mul	r30, r24
     e56:	90 01       	movw	r18, r0
     e58:	e9 9f       	mul	r30, r25
     e5a:	30 0d       	add	r19, r0
     e5c:	f8 9f       	mul	r31, r24
     e5e:	30 0d       	add	r19, r0
     e60:	11 24       	eor	r1, r1
     e62:	37 fd       	sbrc	r19, 7
     e64:	5c c0       	rjmp	.+184    	; 0xf1e <regulation+0x1c6>
     e66:	2f 3f       	cpi	r18, 0xFF	; 255
     e68:	31 05       	cpc	r19, r1
     e6a:	11 f0       	breq	.+4      	; 0xe70 <regulation+0x118>
     e6c:	0c f0       	brlt	.+2      	; 0xe70 <regulation+0x118>
     e6e:	2f ef       	ldi	r18, 0xFF	; 255
     e70:	20 93 d2 00 	sts	0x00D2, r18
     e74:	7e cf       	rjmp	.-260    	; 0xd72 <regulation+0x1a>
     e76:	81 30       	cpi	r24, 0x01	; 1
     e78:	09 f0       	breq	.+2      	; 0xe7c <regulation+0x124>
     e7a:	a9 cf       	rjmp	.-174    	; 0xdce <regulation+0x76>
     e7c:	ac e6       	ldi	r26, 0x6C	; 108
     e7e:	b0 e0       	ldi	r27, 0x00	; 0
     e80:	fd 01       	movw	r30, r26
     e82:	81 81       	ldd	r24, Z+1	; 0x01
     e84:	8d 93       	st	X+, r24
     e86:	f0 e0       	ldi	r31, 0x00	; 0
     e88:	a0 3d       	cpi	r26, 0xD0	; 208
     e8a:	bf 07       	cpc	r27, r31
     e8c:	c9 f7       	brne	.-14     	; 0xe80 <regulation+0x128>
     e8e:	20 93 cf 00 	sts	0x00CF, r18
     e92:	ec e6       	ldi	r30, 0x6C	; 108
     e94:	f0 e0       	ldi	r31, 0x00	; 0
     e96:	20 e0       	ldi	r18, 0x00	; 0
     e98:	30 e0       	ldi	r19, 0x00	; 0
     e9a:	81 91       	ld	r24, Z+
     e9c:	28 0f       	add	r18, r24
     e9e:	31 1d       	adc	r19, r1
     ea0:	ae 17       	cp	r26, r30
     ea2:	bf 07       	cpc	r27, r31
     ea4:	d1 f7       	brne	.-12     	; 0xe9a <regulation+0x142>
     ea6:	c9 01       	movw	r24, r18
     ea8:	64 e6       	ldi	r22, 0x64	; 100
     eaa:	70 e0       	ldi	r23, 0x00	; 0
     eac:	0e 94 86 11 	call	0x230c	; 0x230c <__udivmodhi4>
     eb0:	8f cf       	rjmp	.-226    	; 0xdd0 <regulation+0x78>
     eb2:	90 91 d1 00 	lds	r25, 0x00D1
     eb6:	e9 2f       	mov	r30, r25
     eb8:	ff 27       	eor	r31, r31
     eba:	e4 59       	subi	r30, 0x94	; 148
     ebc:	ff 4f       	sbci	r31, 0xFF	; 255
     ebe:	20 83       	st	Z, r18
     ec0:	94 36       	cpi	r25, 0x64	; 100
     ec2:	a1 f1       	breq	.+104    	; 0xf2c <regulation+0x1d4>
     ec4:	9f 5f       	subi	r25, 0xFF	; 255
     ec6:	90 93 d1 00 	sts	0x00D1, r25
     eca:	b0 cf       	rjmp	.-160    	; 0xe2c <regulation+0xd4>
     ecc:	bb 9a       	sbi	0x17, 3	; 23
     ece:	8c bf       	out	0x3c, r24	; 60
     ed0:	80 91 61 00 	lds	r24, 0x0061
     ed4:	80 93 d2 00 	sts	0x00D2, r24
     ed8:	08 95       	ret
     eda:	bb 9a       	sbi	0x17, 3	; 23
     edc:	9c bf       	out	0x3c, r25	; 60
     ede:	b1 cf       	rjmp	.-158    	; 0xe42 <regulation+0xea>
     ee0:	ec e6       	ldi	r30, 0x6C	; 108
     ee2:	f0 e0       	ldi	r31, 0x00	; 0
     ee4:	81 81       	ldd	r24, Z+1	; 0x01
     ee6:	81 93       	st	Z+, r24
     ee8:	60 e0       	ldi	r22, 0x00	; 0
     eea:	e0 3d       	cpi	r30, 0xD0	; 208
     eec:	f6 07       	cpc	r31, r22
     eee:	d1 f7       	brne	.-12     	; 0xee4 <regulation+0x18c>
     ef0:	20 93 cf 00 	sts	0x00CF, r18
     ef4:	ec e6       	ldi	r30, 0x6C	; 108
     ef6:	f0 e0       	ldi	r31, 0x00	; 0
     ef8:	20 e0       	ldi	r18, 0x00	; 0
     efa:	30 e0       	ldi	r19, 0x00	; 0
     efc:	81 91       	ld	r24, Z+
     efe:	28 0f       	add	r18, r24
     f00:	31 1d       	adc	r19, r1
     f02:	70 e0       	ldi	r23, 0x00	; 0
     f04:	e0 3d       	cpi	r30, 0xD0	; 208
     f06:	f7 07       	cpc	r31, r23
     f08:	c9 f7       	brne	.-14     	; 0xefc <regulation+0x1a4>
     f0a:	c9 01       	movw	r24, r18
     f0c:	64 e6       	ldi	r22, 0x64	; 100
     f0e:	70 e0       	ldi	r23, 0x00	; 0
     f10:	0e 94 86 11 	call	0x230c	; 0x230c <__udivmodhi4>
     f14:	86 2f       	mov	r24, r22
     f16:	80 95       	com	r24
     f18:	e8 2f       	mov	r30, r24
     f1a:	ff 27       	eor	r31, r31
     f1c:	8a cf       	rjmp	.-236    	; 0xe32 <regulation+0xda>
     f1e:	20 e0       	ldi	r18, 0x00	; 0
     f20:	30 e0       	ldi	r19, 0x00	; 0
     f22:	a6 cf       	rjmp	.-180    	; 0xe70 <regulation+0x118>
     f24:	81 e0       	ldi	r24, 0x01	; 1
     f26:	80 93 d0 00 	sts	0x00D0, r24
     f2a:	4e cf       	rjmp	.-356    	; 0xdc8 <regulation+0x70>
     f2c:	81 e0       	ldi	r24, 0x01	; 1
     f2e:	80 93 d0 00 	sts	0x00D0, r24
     f32:	c8 cf       	rjmp	.-112    	; 0xec4 <regulation+0x16c>

00000f34 <__vector_3>:
     f34:	1f 92       	push	r1
     f36:	0f 92       	push	r0
     f38:	0f b6       	in	r0, 0x3f	; 63
     f3a:	0f 92       	push	r0
     f3c:	11 24       	eor	r1, r1
     f3e:	2f 93       	push	r18
     f40:	3f 93       	push	r19
     f42:	4f 93       	push	r20
     f44:	5f 93       	push	r21
     f46:	6f 93       	push	r22
     f48:	7f 93       	push	r23
     f4a:	8f 93       	push	r24
     f4c:	9f 93       	push	r25
     f4e:	af 93       	push	r26
     f50:	bf 93       	push	r27
     f52:	ef 93       	push	r30
     f54:	ff 93       	push	r31
     f56:	0e 94 ac 06 	call	0xd58	; 0xd58 <regulation>
     f5a:	ff 91       	pop	r31
     f5c:	ef 91       	pop	r30
     f5e:	bf 91       	pop	r27
     f60:	af 91       	pop	r26
     f62:	9f 91       	pop	r25
     f64:	8f 91       	pop	r24
     f66:	7f 91       	pop	r23
     f68:	6f 91       	pop	r22
     f6a:	5f 91       	pop	r21
     f6c:	4f 91       	pop	r20
     f6e:	3f 91       	pop	r19
     f70:	2f 91       	pop	r18
     f72:	0f 90       	pop	r0
     f74:	0f be       	out	0x3f, r0	; 63
     f76:	0f 90       	pop	r0
     f78:	1f 90       	pop	r1
     f7a:	18 95       	reti

00000f7c <parameter_handling>:
     f7c:	cf 92       	push	r12
     f7e:	df 92       	push	r13
     f80:	ef 92       	push	r14
     f82:	ff 92       	push	r15
     f84:	0f 93       	push	r16
     f86:	1f 93       	push	r17
     f88:	cf 93       	push	r28
     f8a:	df 93       	push	r29
     f8c:	cd b7       	in	r28, 0x3d	; 61
     f8e:	de b7       	in	r29, 0x3e	; 62
     f90:	58 2f       	mov	r21, r24
     f92:	db 01       	movw	r26, r22
     f94:	ed b6       	in	r14, 0x3d	; 61
     f96:	fe b6       	in	r15, 0x3e	; 62
     f98:	8d b7       	in	r24, 0x3d	; 61
     f9a:	9e b7       	in	r25, 0x3e	; 62
     f9c:	05 97       	sbiw	r24, 0x05	; 5
     f9e:	0f b6       	in	r0, 0x3f	; 63
     fa0:	f8 94       	cli
     fa2:	9e bf       	out	0x3e, r25	; 62
     fa4:	0f be       	out	0x3f, r0	; 63
     fa6:	8d bf       	out	0x3d, r24	; 61
     fa8:	0d b7       	in	r16, 0x3d	; 61
     faa:	1e b7       	in	r17, 0x3e	; 62
     fac:	0f 5f       	subi	r16, 0xFF	; 255
     fae:	1f 4f       	sbci	r17, 0xFF	; 255
     fb0:	52 30       	cpi	r21, 0x02	; 2
     fb2:	c0 f1       	brcs	.+112    	; 0x1024 <parameter_handling+0xa8>
     fb4:	e5 2f       	mov	r30, r21
     fb6:	ff 27       	eor	r31, r31
     fb8:	31 97       	sbiw	r30, 0x01	; 1
     fba:	e6 0f       	add	r30, r22
     fbc:	f7 1f       	adc	r31, r23
     fbe:	41 e0       	ldi	r20, 0x01	; 1
     fc0:	21 e0       	ldi	r18, 0x01	; 1
     fc2:	60 e0       	ldi	r22, 0x00	; 0
     fc4:	80 81       	ld	r24, Z
     fc6:	33 27       	eor	r19, r19
     fc8:	99 27       	eor	r25, r25
     fca:	c0 97       	sbiw	r24, 0x30	; 48
     fcc:	6c 01       	movw	r12, r24
     fce:	c2 9e       	mul	r12, r18
     fd0:	c0 01       	movw	r24, r0
     fd2:	c3 9e       	mul	r12, r19
     fd4:	90 0d       	add	r25, r0
     fd6:	d2 9e       	mul	r13, r18
     fd8:	90 0d       	add	r25, r0
     fda:	11 24       	eor	r1, r1
     fdc:	68 0f       	add	r22, r24
     fde:	c9 01       	movw	r24, r18
     fe0:	88 0f       	add	r24, r24
     fe2:	99 1f       	adc	r25, r25
     fe4:	88 0f       	add	r24, r24
     fe6:	99 1f       	adc	r25, r25
     fe8:	88 0f       	add	r24, r24
     fea:	99 1f       	adc	r25, r25
     fec:	22 0f       	add	r18, r18
     fee:	33 1f       	adc	r19, r19
     ff0:	28 0f       	add	r18, r24
     ff2:	4f 5f       	subi	r20, 0xFF	; 255
     ff4:	31 97       	sbiw	r30, 0x01	; 1
     ff6:	45 17       	cp	r20, r21
     ff8:	29 f7       	brne	.-54     	; 0xfc4 <parameter_handling+0x48>
     ffa:	8c 91       	ld	r24, X
     ffc:	99 27       	eor	r25, r25
     ffe:	aa 27       	eor	r26, r26
    1000:	bb 27       	eor	r27, r27
    1002:	fc 01       	movw	r30, r24
    1004:	e6 54       	subi	r30, 0x46	; 70
    1006:	f0 40       	sbci	r31, 0x00	; 0
    1008:	e4 33       	cpi	r30, 0x34	; 52
    100a:	f1 05       	cpc	r31, r1
    100c:	18 f0       	brcs	.+6      	; 0x1014 <parameter_handling+0x98>
    100e:	81 e0       	ldi	r24, 0x01	; 1
    1010:	90 e0       	ldi	r25, 0x00	; 0
    1012:	01 c6       	rjmp	.+3074   	; 0x1c16 <parameter_handling+0xc9a>
    1014:	e6 5d       	subi	r30, 0xD6	; 214
    1016:	ff 4f       	sbci	r31, 0xFF	; 255
    1018:	ee 0f       	add	r30, r30
    101a:	ff 1f       	adc	r31, r31
    101c:	05 90       	lpm	r0, Z+
    101e:	f4 91       	lpm	r31, Z
    1020:	e0 2d       	mov	r30, r0
    1022:	09 94       	ijmp
    1024:	60 e0       	ldi	r22, 0x00	; 0
    1026:	e9 cf       	rjmp	.-46     	; 0xffa <parameter_handling+0x7e>
    1028:	51 30       	cpi	r21, 0x01	; 1
    102a:	09 f4       	brne	.+2      	; 0x102e <parameter_handling+0xb2>
    102c:	f9 c2       	rjmp	.+1522   	; 0x1620 <parameter_handling+0x6a4>
    102e:	60 93 66 00 	sts	0x0066, r22
    1032:	80 e0       	ldi	r24, 0x00	; 0
    1034:	90 e0       	ldi	r25, 0x00	; 0
    1036:	ef c5       	rjmp	.+3038   	; 0x1c16 <parameter_handling+0xc9a>
    1038:	51 30       	cpi	r21, 0x01	; 1
    103a:	09 f4       	brne	.+2      	; 0x103e <parameter_handling+0xc2>
    103c:	de c2       	rjmp	.+1468   	; 0x15fa <parameter_handling+0x67e>
    103e:	ef e9       	ldi	r30, 0x9F	; 159
    1040:	f1 e0       	ldi	r31, 0x01	; 1
    1042:	84 91       	lpm	r24, Z
    1044:	88 23       	and	r24, r24
    1046:	69 f0       	breq	.+26     	; 0x1062 <parameter_handling+0xe6>
    1048:	90 e0       	ldi	r25, 0x00	; 0
    104a:	5d 9b       	sbis	0x0b, 5	; 11
    104c:	fe cf       	rjmp	.-4      	; 0x104a <parameter_handling+0xce>
    104e:	9f 5f       	subi	r25, 0xFF	; 255
    1050:	84 91       	lpm	r24, Z
    1052:	8c b9       	out	0x0c, r24	; 12
    1054:	e9 2f       	mov	r30, r25
    1056:	ff 27       	eor	r31, r31
    1058:	e1 56       	subi	r30, 0x61	; 97
    105a:	fe 4f       	sbci	r31, 0xFE	; 254
    105c:	84 91       	lpm	r24, Z
    105e:	88 23       	and	r24, r24
    1060:	a1 f7       	brne	.-24     	; 0x104a <parameter_handling+0xce>
    1062:	80 e0       	ldi	r24, 0x00	; 0
    1064:	5d 9b       	sbis	0x0b, 5	; 11
    1066:	fe cf       	rjmp	.-4      	; 0x1064 <parameter_handling+0xe8>
    1068:	e8 2f       	mov	r30, r24
    106a:	ff 27       	eor	r31, r31
    106c:	ed 5b       	subi	r30, 0xBD	; 189
    106e:	fc 4f       	sbci	r31, 0xFC	; 252
    1070:	e4 91       	lpm	r30, Z
    1072:	ec b9       	out	0x0c, r30	; 12
    1074:	8f 5f       	subi	r24, 0xFF	; 255
    1076:	83 30       	cpi	r24, 0x03	; 3
    1078:	a8 f3       	brcs	.-22     	; 0x1064 <parameter_handling+0xe8>
    107a:	e6 e8       	ldi	r30, 0x86	; 134
    107c:	f2 e0       	ldi	r31, 0x02	; 2
    107e:	84 91       	lpm	r24, Z
    1080:	88 23       	and	r24, r24
    1082:	69 f0       	breq	.+26     	; 0x109e <parameter_handling+0x122>
    1084:	90 e0       	ldi	r25, 0x00	; 0
    1086:	5d 9b       	sbis	0x0b, 5	; 11
    1088:	fe cf       	rjmp	.-4      	; 0x1086 <parameter_handling+0x10a>
    108a:	9f 5f       	subi	r25, 0xFF	; 255
    108c:	84 91       	lpm	r24, Z
    108e:	8c b9       	out	0x0c, r24	; 12
    1090:	e9 2f       	mov	r30, r25
    1092:	ff 27       	eor	r31, r31
    1094:	ea 57       	subi	r30, 0x7A	; 122
    1096:	fd 4f       	sbci	r31, 0xFD	; 253
    1098:	84 91       	lpm	r24, Z
    109a:	88 23       	and	r24, r24
    109c:	a1 f7       	brne	.-24     	; 0x1086 <parameter_handling+0x10a>
    109e:	80 e0       	ldi	r24, 0x00	; 0
    10a0:	90 e0       	ldi	r25, 0x00	; 0
    10a2:	b9 c5       	rjmp	.+2930   	; 0x1c16 <parameter_handling+0xc9a>
    10a4:	51 30       	cpi	r21, 0x01	; 1
    10a6:	09 f4       	brne	.+2      	; 0x10aa <parameter_handling+0x12e>
    10a8:	05 c5       	rjmp	.+2570   	; 0x1ab4 <parameter_handling+0xb38>
    10aa:	ef e9       	ldi	r30, 0x9F	; 159
    10ac:	f1 e0       	ldi	r31, 0x01	; 1
    10ae:	84 91       	lpm	r24, Z
    10b0:	88 23       	and	r24, r24
    10b2:	69 f0       	breq	.+26     	; 0x10ce <parameter_handling+0x152>
    10b4:	90 e0       	ldi	r25, 0x00	; 0
    10b6:	5d 9b       	sbis	0x0b, 5	; 11
    10b8:	fe cf       	rjmp	.-4      	; 0x10b6 <parameter_handling+0x13a>
    10ba:	9f 5f       	subi	r25, 0xFF	; 255
    10bc:	84 91       	lpm	r24, Z
    10be:	8c b9       	out	0x0c, r24	; 12
    10c0:	e9 2f       	mov	r30, r25
    10c2:	ff 27       	eor	r31, r31
    10c4:	e1 56       	subi	r30, 0x61	; 97
    10c6:	fe 4f       	sbci	r31, 0xFE	; 254
    10c8:	84 91       	lpm	r24, Z
    10ca:	88 23       	and	r24, r24
    10cc:	a1 f7       	brne	.-24     	; 0x10b6 <parameter_handling+0x13a>
    10ce:	80 e0       	ldi	r24, 0x00	; 0
    10d0:	5d 9b       	sbis	0x0b, 5	; 11
    10d2:	fe cf       	rjmp	.-4      	; 0x10d0 <parameter_handling+0x154>
    10d4:	e8 2f       	mov	r30, r24
    10d6:	ff 27       	eor	r31, r31
    10d8:	e0 5c       	subi	r30, 0xC0	; 192
    10da:	fc 4f       	sbci	r31, 0xFC	; 252
    10dc:	e4 91       	lpm	r30, Z
    10de:	ec b9       	out	0x0c, r30	; 12
    10e0:	8f 5f       	subi	r24, 0xFF	; 255
    10e2:	83 30       	cpi	r24, 0x03	; 3
    10e4:	a8 f3       	brcs	.-22     	; 0x10d0 <parameter_handling+0x154>
    10e6:	ed e5       	ldi	r30, 0x5D	; 93
    10e8:	f2 e0       	ldi	r31, 0x02	; 2
    10ea:	84 91       	lpm	r24, Z
    10ec:	88 23       	and	r24, r24
    10ee:	b9 f2       	breq	.-82     	; 0x109e <parameter_handling+0x122>
    10f0:	90 e0       	ldi	r25, 0x00	; 0
    10f2:	5d 9b       	sbis	0x0b, 5	; 11
    10f4:	fe cf       	rjmp	.-4      	; 0x10f2 <parameter_handling+0x176>
    10f6:	9f 5f       	subi	r25, 0xFF	; 255
    10f8:	84 91       	lpm	r24, Z
    10fa:	8c b9       	out	0x0c, r24	; 12
    10fc:	e9 2f       	mov	r30, r25
    10fe:	ff 27       	eor	r31, r31
    1100:	e3 5a       	subi	r30, 0xA3	; 163
    1102:	fd 4f       	sbci	r31, 0xFD	; 253
    1104:	84 91       	lpm	r24, Z
    1106:	88 23       	and	r24, r24
    1108:	a1 f7       	brne	.-24     	; 0x10f2 <parameter_handling+0x176>
    110a:	c9 cf       	rjmp	.-110    	; 0x109e <parameter_handling+0x122>
    110c:	51 30       	cpi	r21, 0x01	; 1
    110e:	09 f4       	brne	.+2      	; 0x1112 <parameter_handling+0x196>
    1110:	6d c4       	rjmp	.+2266   	; 0x19ec <parameter_handling+0xa70>
    1112:	60 93 61 00 	sts	0x0061, r22
    1116:	80 e0       	ldi	r24, 0x00	; 0
    1118:	90 e0       	ldi	r25, 0x00	; 0
    111a:	7d c5       	rjmp	.+2810   	; 0x1c16 <parameter_handling+0xc9a>
    111c:	51 30       	cpi	r21, 0x01	; 1
    111e:	09 f4       	brne	.+2      	; 0x1122 <parameter_handling+0x1a6>
    1120:	ab c3       	rjmp	.+1878   	; 0x1878 <parameter_handling+0x8fc>
    1122:	60 93 60 00 	sts	0x0060, r22
    1126:	80 e0       	ldi	r24, 0x00	; 0
    1128:	90 e0       	ldi	r25, 0x00	; 0
    112a:	75 c5       	rjmp	.+2794   	; 0x1c16 <parameter_handling+0xc9a>
    112c:	51 30       	cpi	r21, 0x01	; 1
    112e:	09 f4       	brne	.+2      	; 0x1132 <parameter_handling+0x1b6>
    1130:	64 c2       	rjmp	.+1224   	; 0x15fa <parameter_handling+0x67e>
    1132:	ef e9       	ldi	r30, 0x9F	; 159
    1134:	f1 e0       	ldi	r31, 0x01	; 1
    1136:	84 91       	lpm	r24, Z
    1138:	88 23       	and	r24, r24
    113a:	69 f0       	breq	.+26     	; 0x1156 <parameter_handling+0x1da>
    113c:	90 e0       	ldi	r25, 0x00	; 0
    113e:	5d 9b       	sbis	0x0b, 5	; 11
    1140:	fe cf       	rjmp	.-4      	; 0x113e <parameter_handling+0x1c2>
    1142:	9f 5f       	subi	r25, 0xFF	; 255
    1144:	84 91       	lpm	r24, Z
    1146:	8c b9       	out	0x0c, r24	; 12
    1148:	e9 2f       	mov	r30, r25
    114a:	ff 27       	eor	r31, r31
    114c:	e1 56       	subi	r30, 0x61	; 97
    114e:	fe 4f       	sbci	r31, 0xFE	; 254
    1150:	84 91       	lpm	r24, Z
    1152:	88 23       	and	r24, r24
    1154:	a1 f7       	brne	.-24     	; 0x113e <parameter_handling+0x1c2>
    1156:	80 e0       	ldi	r24, 0x00	; 0
    1158:	5d 9b       	sbis	0x0b, 5	; 11
    115a:	fe cf       	rjmp	.-4      	; 0x1158 <parameter_handling+0x1dc>
    115c:	e8 2f       	mov	r30, r24
    115e:	ff 27       	eor	r31, r31
    1160:	e0 5c       	subi	r30, 0xC0	; 192
    1162:	fc 4f       	sbci	r31, 0xFC	; 252
    1164:	e4 91       	lpm	r30, Z
    1166:	ec b9       	out	0x0c, r30	; 12
    1168:	8f 5f       	subi	r24, 0xFF	; 255
    116a:	83 30       	cpi	r24, 0x03	; 3
    116c:	a8 f3       	brcs	.-22     	; 0x1158 <parameter_handling+0x1dc>
    116e:	ed e5       	ldi	r30, 0x5D	; 93
    1170:	f2 e0       	ldi	r31, 0x02	; 2
    1172:	84 91       	lpm	r24, Z
    1174:	88 23       	and	r24, r24
    1176:	09 f4       	brne	.+2      	; 0x117a <parameter_handling+0x1fe>
    1178:	92 cf       	rjmp	.-220    	; 0x109e <parameter_handling+0x122>
    117a:	90 e0       	ldi	r25, 0x00	; 0
    117c:	5d 9b       	sbis	0x0b, 5	; 11
    117e:	fe cf       	rjmp	.-4      	; 0x117c <parameter_handling+0x200>
    1180:	9f 5f       	subi	r25, 0xFF	; 255
    1182:	84 91       	lpm	r24, Z
    1184:	8c b9       	out	0x0c, r24	; 12
    1186:	e9 2f       	mov	r30, r25
    1188:	ff 27       	eor	r31, r31
    118a:	e3 5a       	subi	r30, 0xA3	; 163
    118c:	fd 4f       	sbci	r31, 0xFD	; 253
    118e:	84 91       	lpm	r24, Z
    1190:	88 23       	and	r24, r24
    1192:	a1 f7       	brne	.-24     	; 0x117c <parameter_handling+0x200>
    1194:	84 cf       	rjmp	.-248    	; 0x109e <parameter_handling+0x122>
    1196:	51 30       	cpi	r21, 0x01	; 1
    1198:	09 f4       	brne	.+2      	; 0x119c <parameter_handling+0x220>
    119a:	a8 c4       	rjmp	.+2384   	; 0x1aec <parameter_handling+0xb70>
    119c:	60 93 64 00 	sts	0x0064, r22
    11a0:	80 e0       	ldi	r24, 0x00	; 0
    11a2:	90 e0       	ldi	r25, 0x00	; 0
    11a4:	38 c5       	rjmp	.+2672   	; 0x1c16 <parameter_handling+0xc9a>
    11a6:	51 30       	cpi	r21, 0x01	; 1
    11a8:	09 f4       	brne	.+2      	; 0x11ac <parameter_handling+0x230>
    11aa:	a1 c2       	rjmp	.+1346   	; 0x16ee <parameter_handling+0x772>
    11ac:	60 93 63 00 	sts	0x0063, r22
    11b0:	80 e0       	ldi	r24, 0x00	; 0
    11b2:	90 e0       	ldi	r25, 0x00	; 0
    11b4:	30 c5       	rjmp	.+2656   	; 0x1c16 <parameter_handling+0xc9a>
    11b6:	51 30       	cpi	r21, 0x01	; 1
    11b8:	09 f4       	brne	.+2      	; 0x11bc <parameter_handling+0x240>
    11ba:	e7 c3       	rjmp	.+1998   	; 0x198a <parameter_handling+0xa0e>
    11bc:	ef e9       	ldi	r30, 0x9F	; 159
    11be:	f1 e0       	ldi	r31, 0x01	; 1
    11c0:	84 91       	lpm	r24, Z
    11c2:	88 23       	and	r24, r24
    11c4:	69 f0       	breq	.+26     	; 0x11e0 <parameter_handling+0x264>
    11c6:	90 e0       	ldi	r25, 0x00	; 0
    11c8:	5d 9b       	sbis	0x0b, 5	; 11
    11ca:	fe cf       	rjmp	.-4      	; 0x11c8 <parameter_handling+0x24c>
    11cc:	9f 5f       	subi	r25, 0xFF	; 255
    11ce:	84 91       	lpm	r24, Z
    11d0:	8c b9       	out	0x0c, r24	; 12
    11d2:	e9 2f       	mov	r30, r25
    11d4:	ff 27       	eor	r31, r31
    11d6:	e1 56       	subi	r30, 0x61	; 97
    11d8:	fe 4f       	sbci	r31, 0xFE	; 254
    11da:	84 91       	lpm	r24, Z
    11dc:	88 23       	and	r24, r24
    11de:	a1 f7       	brne	.-24     	; 0x11c8 <parameter_handling+0x24c>
    11e0:	80 e0       	ldi	r24, 0x00	; 0
    11e2:	5d 9b       	sbis	0x0b, 5	; 11
    11e4:	fe cf       	rjmp	.-4      	; 0x11e2 <parameter_handling+0x266>
    11e6:	e8 2f       	mov	r30, r24
    11e8:	ff 27       	eor	r31, r31
    11ea:	e3 5c       	subi	r30, 0xC3	; 195
    11ec:	fc 4f       	sbci	r31, 0xFC	; 252
    11ee:	e4 91       	lpm	r30, Z
    11f0:	ec b9       	out	0x0c, r30	; 12
    11f2:	8f 5f       	subi	r24, 0xFF	; 255
    11f4:	83 30       	cpi	r24, 0x03	; 3
    11f6:	a8 f3       	brcs	.-22     	; 0x11e2 <parameter_handling+0x266>
    11f8:	e3 e2       	ldi	r30, 0x23	; 35
    11fa:	f2 e0       	ldi	r31, 0x02	; 2
    11fc:	84 91       	lpm	r24, Z
    11fe:	88 23       	and	r24, r24
    1200:	09 f4       	brne	.+2      	; 0x1204 <parameter_handling+0x288>
    1202:	4d cf       	rjmp	.-358    	; 0x109e <parameter_handling+0x122>
    1204:	90 e0       	ldi	r25, 0x00	; 0
    1206:	5d 9b       	sbis	0x0b, 5	; 11
    1208:	fe cf       	rjmp	.-4      	; 0x1206 <parameter_handling+0x28a>
    120a:	9f 5f       	subi	r25, 0xFF	; 255
    120c:	84 91       	lpm	r24, Z
    120e:	8c b9       	out	0x0c, r24	; 12
    1210:	e9 2f       	mov	r30, r25
    1212:	ff 27       	eor	r31, r31
    1214:	ed 5d       	subi	r30, 0xDD	; 221
    1216:	fd 4f       	sbci	r31, 0xFD	; 253
    1218:	84 91       	lpm	r24, Z
    121a:	88 23       	and	r24, r24
    121c:	a1 f7       	brne	.-24     	; 0x1206 <parameter_handling+0x28a>
    121e:	3f cf       	rjmp	.-386    	; 0x109e <parameter_handling+0x122>
    1220:	51 30       	cpi	r21, 0x01	; 1
    1222:	09 f4       	brne	.+2      	; 0x1226 <parameter_handling+0x2aa>
    1224:	a8 c3       	rjmp	.+1872   	; 0x1976 <parameter_handling+0x9fa>
    1226:	ef e9       	ldi	r30, 0x9F	; 159
    1228:	f1 e0       	ldi	r31, 0x01	; 1
    122a:	84 91       	lpm	r24, Z
    122c:	88 23       	and	r24, r24
    122e:	69 f0       	breq	.+26     	; 0x124a <parameter_handling+0x2ce>
    1230:	90 e0       	ldi	r25, 0x00	; 0
    1232:	5d 9b       	sbis	0x0b, 5	; 11
    1234:	fe cf       	rjmp	.-4      	; 0x1232 <parameter_handling+0x2b6>
    1236:	9f 5f       	subi	r25, 0xFF	; 255
    1238:	84 91       	lpm	r24, Z
    123a:	8c b9       	out	0x0c, r24	; 12
    123c:	e9 2f       	mov	r30, r25
    123e:	ff 27       	eor	r31, r31
    1240:	e1 56       	subi	r30, 0x61	; 97
    1242:	fe 4f       	sbci	r31, 0xFE	; 254
    1244:	84 91       	lpm	r24, Z
    1246:	88 23       	and	r24, r24
    1248:	a1 f7       	brne	.-24     	; 0x1232 <parameter_handling+0x2b6>
    124a:	80 e0       	ldi	r24, 0x00	; 0
    124c:	5d 9b       	sbis	0x0b, 5	; 11
    124e:	fe cf       	rjmp	.-4      	; 0x124c <parameter_handling+0x2d0>
    1250:	e8 2f       	mov	r30, r24
    1252:	ff 27       	eor	r31, r31
    1254:	e0 5c       	subi	r30, 0xC0	; 192
    1256:	fc 4f       	sbci	r31, 0xFC	; 252
    1258:	e4 91       	lpm	r30, Z
    125a:	ec b9       	out	0x0c, r30	; 12
    125c:	8f 5f       	subi	r24, 0xFF	; 255
    125e:	83 30       	cpi	r24, 0x03	; 3
    1260:	a8 f3       	brcs	.-22     	; 0x124c <parameter_handling+0x2d0>
    1262:	ed e5       	ldi	r30, 0x5D	; 93
    1264:	f2 e0       	ldi	r31, 0x02	; 2
    1266:	84 91       	lpm	r24, Z
    1268:	88 23       	and	r24, r24
    126a:	09 f4       	brne	.+2      	; 0x126e <parameter_handling+0x2f2>
    126c:	18 cf       	rjmp	.-464    	; 0x109e <parameter_handling+0x122>
    126e:	90 e0       	ldi	r25, 0x00	; 0
    1270:	5d 9b       	sbis	0x0b, 5	; 11
    1272:	fe cf       	rjmp	.-4      	; 0x1270 <parameter_handling+0x2f4>
    1274:	9f 5f       	subi	r25, 0xFF	; 255
    1276:	84 91       	lpm	r24, Z
    1278:	8c b9       	out	0x0c, r24	; 12
    127a:	e9 2f       	mov	r30, r25
    127c:	ff 27       	eor	r31, r31
    127e:	e3 5a       	subi	r30, 0xA3	; 163
    1280:	fd 4f       	sbci	r31, 0xFD	; 253
    1282:	84 91       	lpm	r24, Z
    1284:	88 23       	and	r24, r24
    1286:	a1 f7       	brne	.-24     	; 0x1270 <parameter_handling+0x2f4>
    1288:	0a cf       	rjmp	.-492    	; 0x109e <parameter_handling+0x122>
    128a:	51 30       	cpi	r21, 0x01	; 1
    128c:	09 f4       	brne	.+2      	; 0x1290 <parameter_handling+0x314>
    128e:	e0 c3       	rjmp	.+1984   	; 0x1a50 <parameter_handling+0xad4>
    1290:	60 93 65 00 	sts	0x0065, r22
    1294:	80 e0       	ldi	r24, 0x00	; 0
    1296:	90 e0       	ldi	r25, 0x00	; 0
    1298:	be c4       	rjmp	.+2428   	; 0x1c16 <parameter_handling+0xc9a>
    129a:	51 30       	cpi	r21, 0x01	; 1
    129c:	09 f4       	brne	.+2      	; 0x12a0 <parameter_handling+0x324>
    129e:	4f c3       	rjmp	.+1694   	; 0x193e <parameter_handling+0x9c2>
    12a0:	ef e9       	ldi	r30, 0x9F	; 159
    12a2:	f1 e0       	ldi	r31, 0x01	; 1
    12a4:	84 91       	lpm	r24, Z
    12a6:	88 23       	and	r24, r24
    12a8:	69 f0       	breq	.+26     	; 0x12c4 <parameter_handling+0x348>
    12aa:	90 e0       	ldi	r25, 0x00	; 0
    12ac:	5d 9b       	sbis	0x0b, 5	; 11
    12ae:	fe cf       	rjmp	.-4      	; 0x12ac <parameter_handling+0x330>
    12b0:	9f 5f       	subi	r25, 0xFF	; 255
    12b2:	84 91       	lpm	r24, Z
    12b4:	8c b9       	out	0x0c, r24	; 12
    12b6:	e9 2f       	mov	r30, r25
    12b8:	ff 27       	eor	r31, r31
    12ba:	e1 56       	subi	r30, 0x61	; 97
    12bc:	fe 4f       	sbci	r31, 0xFE	; 254
    12be:	84 91       	lpm	r24, Z
    12c0:	88 23       	and	r24, r24
    12c2:	a1 f7       	brne	.-24     	; 0x12ac <parameter_handling+0x330>
    12c4:	80 e0       	ldi	r24, 0x00	; 0
    12c6:	5d 9b       	sbis	0x0b, 5	; 11
    12c8:	fe cf       	rjmp	.-4      	; 0x12c6 <parameter_handling+0x34a>
    12ca:	e8 2f       	mov	r30, r24
    12cc:	ff 27       	eor	r31, r31
    12ce:	e0 5c       	subi	r30, 0xC0	; 192
    12d0:	fc 4f       	sbci	r31, 0xFC	; 252
    12d2:	e4 91       	lpm	r30, Z
    12d4:	ec b9       	out	0x0c, r30	; 12
    12d6:	8f 5f       	subi	r24, 0xFF	; 255
    12d8:	83 30       	cpi	r24, 0x03	; 3
    12da:	a8 f3       	brcs	.-22     	; 0x12c6 <parameter_handling+0x34a>
    12dc:	ed e5       	ldi	r30, 0x5D	; 93
    12de:	f2 e0       	ldi	r31, 0x02	; 2
    12e0:	84 91       	lpm	r24, Z
    12e2:	88 23       	and	r24, r24
    12e4:	09 f4       	brne	.+2      	; 0x12e8 <parameter_handling+0x36c>
    12e6:	db ce       	rjmp	.-586    	; 0x109e <parameter_handling+0x122>
    12e8:	90 e0       	ldi	r25, 0x00	; 0
    12ea:	5d 9b       	sbis	0x0b, 5	; 11
    12ec:	fe cf       	rjmp	.-4      	; 0x12ea <parameter_handling+0x36e>
    12ee:	9f 5f       	subi	r25, 0xFF	; 255
    12f0:	84 91       	lpm	r24, Z
    12f2:	8c b9       	out	0x0c, r24	; 12
    12f4:	e9 2f       	mov	r30, r25
    12f6:	ff 27       	eor	r31, r31
    12f8:	e3 5a       	subi	r30, 0xA3	; 163
    12fa:	fd 4f       	sbci	r31, 0xFD	; 253
    12fc:	84 91       	lpm	r24, Z
    12fe:	88 23       	and	r24, r24
    1300:	a1 f7       	brne	.-24     	; 0x12ea <parameter_handling+0x36e>
    1302:	cd ce       	rjmp	.-614    	; 0x109e <parameter_handling+0x122>
    1304:	51 30       	cpi	r21, 0x01	; 1
    1306:	09 f4       	brne	.+2      	; 0x130a <parameter_handling+0x38e>
    1308:	e9 c2       	rjmp	.+1490   	; 0x18dc <parameter_handling+0x960>
    130a:	ef e9       	ldi	r30, 0x9F	; 159
    130c:	f1 e0       	ldi	r31, 0x01	; 1
    130e:	84 91       	lpm	r24, Z
    1310:	88 23       	and	r24, r24
    1312:	69 f0       	breq	.+26     	; 0x132e <parameter_handling+0x3b2>
    1314:	90 e0       	ldi	r25, 0x00	; 0
    1316:	5d 9b       	sbis	0x0b, 5	; 11
    1318:	fe cf       	rjmp	.-4      	; 0x1316 <parameter_handling+0x39a>
    131a:	9f 5f       	subi	r25, 0xFF	; 255
    131c:	84 91       	lpm	r24, Z
    131e:	8c b9       	out	0x0c, r24	; 12
    1320:	e9 2f       	mov	r30, r25
    1322:	ff 27       	eor	r31, r31
    1324:	e1 56       	subi	r30, 0x61	; 97
    1326:	fe 4f       	sbci	r31, 0xFE	; 254
    1328:	84 91       	lpm	r24, Z
    132a:	88 23       	and	r24, r24
    132c:	a1 f7       	brne	.-24     	; 0x1316 <parameter_handling+0x39a>
    132e:	80 e0       	ldi	r24, 0x00	; 0
    1330:	5d 9b       	sbis	0x0b, 5	; 11
    1332:	fe cf       	rjmp	.-4      	; 0x1330 <parameter_handling+0x3b4>
    1334:	e8 2f       	mov	r30, r24
    1336:	ff 27       	eor	r31, r31
    1338:	e3 5c       	subi	r30, 0xC3	; 195
    133a:	fc 4f       	sbci	r31, 0xFC	; 252
    133c:	e4 91       	lpm	r30, Z
    133e:	ec b9       	out	0x0c, r30	; 12
    1340:	8f 5f       	subi	r24, 0xFF	; 255
    1342:	83 30       	cpi	r24, 0x03	; 3
    1344:	a8 f3       	brcs	.-22     	; 0x1330 <parameter_handling+0x3b4>
    1346:	e3 e2       	ldi	r30, 0x23	; 35
    1348:	f2 e0       	ldi	r31, 0x02	; 2
    134a:	84 91       	lpm	r24, Z
    134c:	88 23       	and	r24, r24
    134e:	09 f4       	brne	.+2      	; 0x1352 <parameter_handling+0x3d6>
    1350:	a6 ce       	rjmp	.-692    	; 0x109e <parameter_handling+0x122>
    1352:	90 e0       	ldi	r25, 0x00	; 0
    1354:	5d 9b       	sbis	0x0b, 5	; 11
    1356:	fe cf       	rjmp	.-4      	; 0x1354 <parameter_handling+0x3d8>
    1358:	9f 5f       	subi	r25, 0xFF	; 255
    135a:	84 91       	lpm	r24, Z
    135c:	8c b9       	out	0x0c, r24	; 12
    135e:	e9 2f       	mov	r30, r25
    1360:	ff 27       	eor	r31, r31
    1362:	ed 5d       	subi	r30, 0xDD	; 221
    1364:	fd 4f       	sbci	r31, 0xFD	; 253
    1366:	84 91       	lpm	r24, Z
    1368:	88 23       	and	r24, r24
    136a:	a1 f7       	brne	.-24     	; 0x1354 <parameter_handling+0x3d8>
    136c:	98 ce       	rjmp	.-720    	; 0x109e <parameter_handling+0x122>
    136e:	51 30       	cpi	r21, 0x01	; 1
    1370:	09 f4       	brne	.+2      	; 0x1374 <parameter_handling+0x3f8>
    1372:	51 c2       	rjmp	.+1186   	; 0x1816 <parameter_handling+0x89a>
    1374:	ef e9       	ldi	r30, 0x9F	; 159
    1376:	f1 e0       	ldi	r31, 0x01	; 1
    1378:	84 91       	lpm	r24, Z
    137a:	88 23       	and	r24, r24
    137c:	69 f0       	breq	.+26     	; 0x1398 <parameter_handling+0x41c>
    137e:	90 e0       	ldi	r25, 0x00	; 0
    1380:	5d 9b       	sbis	0x0b, 5	; 11
    1382:	fe cf       	rjmp	.-4      	; 0x1380 <parameter_handling+0x404>
    1384:	9f 5f       	subi	r25, 0xFF	; 255
    1386:	84 91       	lpm	r24, Z
    1388:	8c b9       	out	0x0c, r24	; 12
    138a:	e9 2f       	mov	r30, r25
    138c:	ff 27       	eor	r31, r31
    138e:	e1 56       	subi	r30, 0x61	; 97
    1390:	fe 4f       	sbci	r31, 0xFE	; 254
    1392:	84 91       	lpm	r24, Z
    1394:	88 23       	and	r24, r24
    1396:	a1 f7       	brne	.-24     	; 0x1380 <parameter_handling+0x404>
    1398:	80 e0       	ldi	r24, 0x00	; 0
    139a:	5d 9b       	sbis	0x0b, 5	; 11
    139c:	fe cf       	rjmp	.-4      	; 0x139a <parameter_handling+0x41e>
    139e:	e8 2f       	mov	r30, r24
    13a0:	ff 27       	eor	r31, r31
    13a2:	e3 5c       	subi	r30, 0xC3	; 195
    13a4:	fc 4f       	sbci	r31, 0xFC	; 252
    13a6:	e4 91       	lpm	r30, Z
    13a8:	ec b9       	out	0x0c, r30	; 12
    13aa:	8f 5f       	subi	r24, 0xFF	; 255
    13ac:	83 30       	cpi	r24, 0x03	; 3
    13ae:	a8 f3       	brcs	.-22     	; 0x139a <parameter_handling+0x41e>
    13b0:	e3 e2       	ldi	r30, 0x23	; 35
    13b2:	f2 e0       	ldi	r31, 0x02	; 2
    13b4:	84 91       	lpm	r24, Z
    13b6:	88 23       	and	r24, r24
    13b8:	09 f4       	brne	.+2      	; 0x13bc <parameter_handling+0x440>
    13ba:	71 ce       	rjmp	.-798    	; 0x109e <parameter_handling+0x122>
    13bc:	90 e0       	ldi	r25, 0x00	; 0
    13be:	5d 9b       	sbis	0x0b, 5	; 11
    13c0:	fe cf       	rjmp	.-4      	; 0x13be <parameter_handling+0x442>
    13c2:	9f 5f       	subi	r25, 0xFF	; 255
    13c4:	84 91       	lpm	r24, Z
    13c6:	8c b9       	out	0x0c, r24	; 12
    13c8:	e9 2f       	mov	r30, r25
    13ca:	ff 27       	eor	r31, r31
    13cc:	ed 5d       	subi	r30, 0xDD	; 221
    13ce:	fd 4f       	sbci	r31, 0xFD	; 253
    13d0:	84 91       	lpm	r24, Z
    13d2:	88 23       	and	r24, r24
    13d4:	a1 f7       	brne	.-24     	; 0x13be <parameter_handling+0x442>
    13d6:	63 ce       	rjmp	.-826    	; 0x109e <parameter_handling+0x122>
    13d8:	51 30       	cpi	r21, 0x01	; 1
    13da:	09 f4       	brne	.+2      	; 0x13de <parameter_handling+0x462>
    13dc:	eb c1       	rjmp	.+982    	; 0x17b4 <parameter_handling+0x838>
    13de:	ef e9       	ldi	r30, 0x9F	; 159
    13e0:	f1 e0       	ldi	r31, 0x01	; 1
    13e2:	84 91       	lpm	r24, Z
    13e4:	88 23       	and	r24, r24
    13e6:	69 f0       	breq	.+26     	; 0x1402 <parameter_handling+0x486>
    13e8:	90 e0       	ldi	r25, 0x00	; 0
    13ea:	5d 9b       	sbis	0x0b, 5	; 11
    13ec:	fe cf       	rjmp	.-4      	; 0x13ea <parameter_handling+0x46e>
    13ee:	9f 5f       	subi	r25, 0xFF	; 255
    13f0:	84 91       	lpm	r24, Z
    13f2:	8c b9       	out	0x0c, r24	; 12
    13f4:	e9 2f       	mov	r30, r25
    13f6:	ff 27       	eor	r31, r31
    13f8:	e1 56       	subi	r30, 0x61	; 97
    13fa:	fe 4f       	sbci	r31, 0xFE	; 254
    13fc:	84 91       	lpm	r24, Z
    13fe:	88 23       	and	r24, r24
    1400:	a1 f7       	brne	.-24     	; 0x13ea <parameter_handling+0x46e>
    1402:	80 e0       	ldi	r24, 0x00	; 0
    1404:	5d 9b       	sbis	0x0b, 5	; 11
    1406:	fe cf       	rjmp	.-4      	; 0x1404 <parameter_handling+0x488>
    1408:	e8 2f       	mov	r30, r24
    140a:	ff 27       	eor	r31, r31
    140c:	e3 5c       	subi	r30, 0xC3	; 195
    140e:	fc 4f       	sbci	r31, 0xFC	; 252
    1410:	e4 91       	lpm	r30, Z
    1412:	ec b9       	out	0x0c, r30	; 12
    1414:	8f 5f       	subi	r24, 0xFF	; 255
    1416:	83 30       	cpi	r24, 0x03	; 3
    1418:	a8 f3       	brcs	.-22     	; 0x1404 <parameter_handling+0x488>
    141a:	e3 e2       	ldi	r30, 0x23	; 35
    141c:	f2 e0       	ldi	r31, 0x02	; 2
    141e:	84 91       	lpm	r24, Z
    1420:	88 23       	and	r24, r24
    1422:	09 f4       	brne	.+2      	; 0x1426 <parameter_handling+0x4aa>
    1424:	3c ce       	rjmp	.-904    	; 0x109e <parameter_handling+0x122>
    1426:	90 e0       	ldi	r25, 0x00	; 0
    1428:	5d 9b       	sbis	0x0b, 5	; 11
    142a:	fe cf       	rjmp	.-4      	; 0x1428 <parameter_handling+0x4ac>
    142c:	9f 5f       	subi	r25, 0xFF	; 255
    142e:	84 91       	lpm	r24, Z
    1430:	8c b9       	out	0x0c, r24	; 12
    1432:	e9 2f       	mov	r30, r25
    1434:	ff 27       	eor	r31, r31
    1436:	ed 5d       	subi	r30, 0xDD	; 221
    1438:	fd 4f       	sbci	r31, 0xFD	; 253
    143a:	84 91       	lpm	r24, Z
    143c:	88 23       	and	r24, r24
    143e:	a1 f7       	brne	.-24     	; 0x1428 <parameter_handling+0x4ac>
    1440:	2e ce       	rjmp	.-932    	; 0x109e <parameter_handling+0x122>
    1442:	51 30       	cpi	r21, 0x01	; 1
    1444:	09 f4       	brne	.+2      	; 0x1448 <parameter_handling+0x4cc>
    1446:	85 c1       	rjmp	.+778    	; 0x1752 <parameter_handling+0x7d6>
    1448:	ef e9       	ldi	r30, 0x9F	; 159
    144a:	f1 e0       	ldi	r31, 0x01	; 1
    144c:	84 91       	lpm	r24, Z
    144e:	88 23       	and	r24, r24
    1450:	69 f0       	breq	.+26     	; 0x146c <parameter_handling+0x4f0>
    1452:	90 e0       	ldi	r25, 0x00	; 0
    1454:	5d 9b       	sbis	0x0b, 5	; 11
    1456:	fe cf       	rjmp	.-4      	; 0x1454 <parameter_handling+0x4d8>
    1458:	9f 5f       	subi	r25, 0xFF	; 255
    145a:	84 91       	lpm	r24, Z
    145c:	8c b9       	out	0x0c, r24	; 12
    145e:	e9 2f       	mov	r30, r25
    1460:	ff 27       	eor	r31, r31
    1462:	e1 56       	subi	r30, 0x61	; 97
    1464:	fe 4f       	sbci	r31, 0xFE	; 254
    1466:	84 91       	lpm	r24, Z
    1468:	88 23       	and	r24, r24
    146a:	a1 f7       	brne	.-24     	; 0x1454 <parameter_handling+0x4d8>
    146c:	80 e0       	ldi	r24, 0x00	; 0
    146e:	5d 9b       	sbis	0x0b, 5	; 11
    1470:	fe cf       	rjmp	.-4      	; 0x146e <parameter_handling+0x4f2>
    1472:	e8 2f       	mov	r30, r24
    1474:	ff 27       	eor	r31, r31
    1476:	e3 5c       	subi	r30, 0xC3	; 195
    1478:	fc 4f       	sbci	r31, 0xFC	; 252
    147a:	e4 91       	lpm	r30, Z
    147c:	ec b9       	out	0x0c, r30	; 12
    147e:	8f 5f       	subi	r24, 0xFF	; 255
    1480:	83 30       	cpi	r24, 0x03	; 3
    1482:	a8 f3       	brcs	.-22     	; 0x146e <parameter_handling+0x4f2>
    1484:	e3 e2       	ldi	r30, 0x23	; 35
    1486:	f2 e0       	ldi	r31, 0x02	; 2
    1488:	84 91       	lpm	r24, Z
    148a:	88 23       	and	r24, r24
    148c:	09 f4       	brne	.+2      	; 0x1490 <parameter_handling+0x514>
    148e:	07 ce       	rjmp	.-1010   	; 0x109e <parameter_handling+0x122>
    1490:	90 e0       	ldi	r25, 0x00	; 0
    1492:	5d 9b       	sbis	0x0b, 5	; 11
    1494:	fe cf       	rjmp	.-4      	; 0x1492 <parameter_handling+0x516>
    1496:	9f 5f       	subi	r25, 0xFF	; 255
    1498:	84 91       	lpm	r24, Z
    149a:	8c b9       	out	0x0c, r24	; 12
    149c:	e9 2f       	mov	r30, r25
    149e:	ff 27       	eor	r31, r31
    14a0:	ed 5d       	subi	r30, 0xDD	; 221
    14a2:	fd 4f       	sbci	r31, 0xFD	; 253
    14a4:	84 91       	lpm	r24, Z
    14a6:	88 23       	and	r24, r24
    14a8:	a1 f7       	brne	.-24     	; 0x1492 <parameter_handling+0x516>
    14aa:	f9 cd       	rjmp	.-1038   	; 0x109e <parameter_handling+0x122>
    14ac:	51 30       	cpi	r21, 0x01	; 1
    14ae:	09 f4       	brne	.+2      	; 0x14b2 <parameter_handling+0x536>
    14b0:	e9 c0       	rjmp	.+466    	; 0x1684 <parameter_handling+0x708>
    14b2:	ef e9       	ldi	r30, 0x9F	; 159
    14b4:	f1 e0       	ldi	r31, 0x01	; 1
    14b6:	84 91       	lpm	r24, Z
    14b8:	88 23       	and	r24, r24
    14ba:	69 f0       	breq	.+26     	; 0x14d6 <parameter_handling+0x55a>
    14bc:	90 e0       	ldi	r25, 0x00	; 0
    14be:	5d 9b       	sbis	0x0b, 5	; 11
    14c0:	fe cf       	rjmp	.-4      	; 0x14be <parameter_handling+0x542>
    14c2:	9f 5f       	subi	r25, 0xFF	; 255
    14c4:	84 91       	lpm	r24, Z
    14c6:	8c b9       	out	0x0c, r24	; 12
    14c8:	e9 2f       	mov	r30, r25
    14ca:	ff 27       	eor	r31, r31
    14cc:	e1 56       	subi	r30, 0x61	; 97
    14ce:	fe 4f       	sbci	r31, 0xFE	; 254
    14d0:	84 91       	lpm	r24, Z
    14d2:	88 23       	and	r24, r24
    14d4:	a1 f7       	brne	.-24     	; 0x14be <parameter_handling+0x542>
    14d6:	80 e0       	ldi	r24, 0x00	; 0
    14d8:	5d 9b       	sbis	0x0b, 5	; 11
    14da:	fe cf       	rjmp	.-4      	; 0x14d8 <parameter_handling+0x55c>
    14dc:	e8 2f       	mov	r30, r24
    14de:	ff 27       	eor	r31, r31
    14e0:	e3 5c       	subi	r30, 0xC3	; 195
    14e2:	fc 4f       	sbci	r31, 0xFC	; 252
    14e4:	e4 91       	lpm	r30, Z
    14e6:	ec b9       	out	0x0c, r30	; 12
    14e8:	8f 5f       	subi	r24, 0xFF	; 255
    14ea:	83 30       	cpi	r24, 0x03	; 3
    14ec:	a8 f3       	brcs	.-22     	; 0x14d8 <parameter_handling+0x55c>
    14ee:	e3 e2       	ldi	r30, 0x23	; 35
    14f0:	f2 e0       	ldi	r31, 0x02	; 2
    14f2:	84 91       	lpm	r24, Z
    14f4:	88 23       	and	r24, r24
    14f6:	09 f4       	brne	.+2      	; 0x14fa <parameter_handling+0x57e>
    14f8:	d2 cd       	rjmp	.-1116   	; 0x109e <parameter_handling+0x122>
    14fa:	90 e0       	ldi	r25, 0x00	; 0
    14fc:	5d 9b       	sbis	0x0b, 5	; 11
    14fe:	fe cf       	rjmp	.-4      	; 0x14fc <parameter_handling+0x580>
    1500:	9f 5f       	subi	r25, 0xFF	; 255
    1502:	84 91       	lpm	r24, Z
    1504:	8c b9       	out	0x0c, r24	; 12
    1506:	e9 2f       	mov	r30, r25
    1508:	ff 27       	eor	r31, r31
    150a:	ed 5d       	subi	r30, 0xDD	; 221
    150c:	fd 4f       	sbci	r31, 0xFD	; 253
    150e:	84 91       	lpm	r24, Z
    1510:	88 23       	and	r24, r24
    1512:	a1 f7       	brne	.-24     	; 0x14fc <parameter_handling+0x580>
    1514:	c4 cd       	rjmp	.-1144   	; 0x109e <parameter_handling+0x122>
    1516:	51 30       	cpi	r21, 0x01	; 1
    1518:	09 f4       	brne	.+2      	; 0x151c <parameter_handling+0x5a0>
    151a:	1a c3       	rjmp	.+1588   	; 0x1b50 <parameter_handling+0xbd4>
    151c:	ef e9       	ldi	r30, 0x9F	; 159
    151e:	f1 e0       	ldi	r31, 0x01	; 1
    1520:	84 91       	lpm	r24, Z
    1522:	88 23       	and	r24, r24
    1524:	69 f0       	breq	.+26     	; 0x1540 <parameter_handling+0x5c4>
    1526:	90 e0       	ldi	r25, 0x00	; 0
    1528:	5d 9b       	sbis	0x0b, 5	; 11
    152a:	fe cf       	rjmp	.-4      	; 0x1528 <parameter_handling+0x5ac>
    152c:	9f 5f       	subi	r25, 0xFF	; 255
    152e:	84 91       	lpm	r24, Z
    1530:	8c b9       	out	0x0c, r24	; 12
    1532:	e9 2f       	mov	r30, r25
    1534:	ff 27       	eor	r31, r31
    1536:	e1 56       	subi	r30, 0x61	; 97
    1538:	fe 4f       	sbci	r31, 0xFE	; 254
    153a:	84 91       	lpm	r24, Z
    153c:	88 23       	and	r24, r24
    153e:	a1 f7       	brne	.-24     	; 0x1528 <parameter_handling+0x5ac>
    1540:	80 e0       	ldi	r24, 0x00	; 0
    1542:	5d 9b       	sbis	0x0b, 5	; 11
    1544:	fe cf       	rjmp	.-4      	; 0x1542 <parameter_handling+0x5c6>
    1546:	e8 2f       	mov	r30, r24
    1548:	ff 27       	eor	r31, r31
    154a:	e3 5c       	subi	r30, 0xC3	; 195
    154c:	fc 4f       	sbci	r31, 0xFC	; 252
    154e:	e4 91       	lpm	r30, Z
    1550:	ec b9       	out	0x0c, r30	; 12
    1552:	8f 5f       	subi	r24, 0xFF	; 255
    1554:	83 30       	cpi	r24, 0x03	; 3
    1556:	a8 f3       	brcs	.-22     	; 0x1542 <parameter_handling+0x5c6>
    1558:	e3 e2       	ldi	r30, 0x23	; 35
    155a:	f2 e0       	ldi	r31, 0x02	; 2
    155c:	84 91       	lpm	r24, Z
    155e:	88 23       	and	r24, r24
    1560:	09 f4       	brne	.+2      	; 0x1564 <parameter_handling+0x5e8>
    1562:	9d cd       	rjmp	.-1222   	; 0x109e <parameter_handling+0x122>
    1564:	90 e0       	ldi	r25, 0x00	; 0
    1566:	5d 9b       	sbis	0x0b, 5	; 11
    1568:	fe cf       	rjmp	.-4      	; 0x1566 <parameter_handling+0x5ea>
    156a:	9f 5f       	subi	r25, 0xFF	; 255
    156c:	84 91       	lpm	r24, Z
    156e:	8c b9       	out	0x0c, r24	; 12
    1570:	e9 2f       	mov	r30, r25
    1572:	ff 27       	eor	r31, r31
    1574:	ed 5d       	subi	r30, 0xDD	; 221
    1576:	fd 4f       	sbci	r31, 0xFD	; 253
    1578:	84 91       	lpm	r24, Z
    157a:	88 23       	and	r24, r24
    157c:	a1 f7       	brne	.-24     	; 0x1566 <parameter_handling+0x5ea>
    157e:	8f cd       	rjmp	.-1250   	; 0x109e <parameter_handling+0x122>
    1580:	51 30       	cpi	r21, 0x01	; 1
    1582:	09 f4       	brne	.+2      	; 0x1586 <parameter_handling+0x60a>
    1584:	16 c3       	rjmp	.+1580   	; 0x1bb2 <parameter_handling+0xc36>
    1586:	60 93 62 00 	sts	0x0062, r22
    158a:	80 e0       	ldi	r24, 0x00	; 0
    158c:	90 e0       	ldi	r25, 0x00	; 0
    158e:	43 c3       	rjmp	.+1670   	; 0x1c16 <parameter_handling+0xc9a>
    1590:	51 30       	cpi	r21, 0x01	; 1
    1592:	09 f4       	brne	.+2      	; 0x1596 <parameter_handling+0x61a>
    1594:	3b c0       	rjmp	.+118    	; 0x160c <parameter_handling+0x690>
    1596:	ef e9       	ldi	r30, 0x9F	; 159
    1598:	f1 e0       	ldi	r31, 0x01	; 1
    159a:	84 91       	lpm	r24, Z
    159c:	88 23       	and	r24, r24
    159e:	69 f0       	breq	.+26     	; 0x15ba <parameter_handling+0x63e>
    15a0:	90 e0       	ldi	r25, 0x00	; 0
    15a2:	5d 9b       	sbis	0x0b, 5	; 11
    15a4:	fe cf       	rjmp	.-4      	; 0x15a2 <parameter_handling+0x626>
    15a6:	9f 5f       	subi	r25, 0xFF	; 255
    15a8:	84 91       	lpm	r24, Z
    15aa:	8c b9       	out	0x0c, r24	; 12
    15ac:	e9 2f       	mov	r30, r25
    15ae:	ff 27       	eor	r31, r31
    15b0:	e1 56       	subi	r30, 0x61	; 97
    15b2:	fe 4f       	sbci	r31, 0xFE	; 254
    15b4:	84 91       	lpm	r24, Z
    15b6:	88 23       	and	r24, r24
    15b8:	a1 f7       	brne	.-24     	; 0x15a2 <parameter_handling+0x626>
    15ba:	80 e0       	ldi	r24, 0x00	; 0
    15bc:	5d 9b       	sbis	0x0b, 5	; 11
    15be:	fe cf       	rjmp	.-4      	; 0x15bc <parameter_handling+0x640>
    15c0:	e8 2f       	mov	r30, r24
    15c2:	ff 27       	eor	r31, r31
    15c4:	e0 5c       	subi	r30, 0xC0	; 192
    15c6:	fc 4f       	sbci	r31, 0xFC	; 252
    15c8:	e4 91       	lpm	r30, Z
    15ca:	ec b9       	out	0x0c, r30	; 12
    15cc:	8f 5f       	subi	r24, 0xFF	; 255
    15ce:	83 30       	cpi	r24, 0x03	; 3
    15d0:	a8 f3       	brcs	.-22     	; 0x15bc <parameter_handling+0x640>
    15d2:	ed e5       	ldi	r30, 0x5D	; 93
    15d4:	f2 e0       	ldi	r31, 0x02	; 2
    15d6:	84 91       	lpm	r24, Z
    15d8:	88 23       	and	r24, r24
    15da:	09 f4       	brne	.+2      	; 0x15de <parameter_handling+0x662>
    15dc:	60 cd       	rjmp	.-1344   	; 0x109e <parameter_handling+0x122>
    15de:	90 e0       	ldi	r25, 0x00	; 0
    15e0:	5d 9b       	sbis	0x0b, 5	; 11
    15e2:	fe cf       	rjmp	.-4      	; 0x15e0 <parameter_handling+0x664>
    15e4:	9f 5f       	subi	r25, 0xFF	; 255
    15e6:	84 91       	lpm	r24, Z
    15e8:	8c b9       	out	0x0c, r24	; 12
    15ea:	e9 2f       	mov	r30, r25
    15ec:	ff 27       	eor	r31, r31
    15ee:	e3 5a       	subi	r30, 0xA3	; 163
    15f0:	fd 4f       	sbci	r31, 0xFD	; 253
    15f2:	84 91       	lpm	r24, Z
    15f4:	88 23       	and	r24, r24
    15f6:	a1 f7       	brne	.-24     	; 0x15e0 <parameter_handling+0x664>
    15f8:	52 cd       	rjmp	.-1372   	; 0x109e <parameter_handling+0x122>
    15fa:	80 91 68 00 	lds	r24, 0x0068
    15fe:	80 93 69 00 	sts	0x0069, r24
    1602:	10 92 68 00 	sts	0x0068, r1
    1606:	80 e0       	ldi	r24, 0x00	; 0
    1608:	90 e0       	ldi	r25, 0x00	; 0
    160a:	05 c3       	rjmp	.+1546   	; 0x1c16 <parameter_handling+0xc9a>
    160c:	80 91 68 00 	lds	r24, 0x0068
    1610:	80 93 69 00 	sts	0x0069, r24
    1614:	84 e0       	ldi	r24, 0x04	; 4
    1616:	80 93 68 00 	sts	0x0068, r24
    161a:	80 e0       	ldi	r24, 0x00	; 0
    161c:	90 e0       	ldi	r25, 0x00	; 0
    161e:	fb c2       	rjmp	.+1526   	; 0x1c16 <parameter_handling+0xc9a>
    1620:	ef e9       	ldi	r30, 0x9F	; 159
    1622:	f1 e0       	ldi	r31, 0x01	; 1
    1624:	84 91       	lpm	r24, Z
    1626:	88 23       	and	r24, r24
    1628:	69 f0       	breq	.+26     	; 0x1644 <parameter_handling+0x6c8>
    162a:	90 e0       	ldi	r25, 0x00	; 0
    162c:	5d 9b       	sbis	0x0b, 5	; 11
    162e:	fe cf       	rjmp	.-4      	; 0x162c <parameter_handling+0x6b0>
    1630:	9f 5f       	subi	r25, 0xFF	; 255
    1632:	84 91       	lpm	r24, Z
    1634:	8c b9       	out	0x0c, r24	; 12
    1636:	e9 2f       	mov	r30, r25
    1638:	ff 27       	eor	r31, r31
    163a:	e1 56       	subi	r30, 0x61	; 97
    163c:	fe 4f       	sbci	r31, 0xFE	; 254
    163e:	84 91       	lpm	r24, Z
    1640:	88 23       	and	r24, r24
    1642:	a1 f7       	brne	.-24     	; 0x162c <parameter_handling+0x6b0>
    1644:	80 e0       	ldi	r24, 0x00	; 0
    1646:	5d 9b       	sbis	0x0b, 5	; 11
    1648:	fe cf       	rjmp	.-4      	; 0x1646 <parameter_handling+0x6ca>
    164a:	e8 2f       	mov	r30, r24
    164c:	ff 27       	eor	r31, r31
    164e:	e6 5c       	subi	r30, 0xC6	; 198
    1650:	fc 4f       	sbci	r31, 0xFC	; 252
    1652:	e4 91       	lpm	r30, Z
    1654:	ec b9       	out	0x0c, r30	; 12
    1656:	8f 5f       	subi	r24, 0xFF	; 255
    1658:	83 30       	cpi	r24, 0x03	; 3
    165a:	a8 f3       	brcs	.-22     	; 0x1646 <parameter_handling+0x6ca>
    165c:	e7 e0       	ldi	r30, 0x07	; 7
    165e:	f2 e0       	ldi	r31, 0x02	; 2
    1660:	84 91       	lpm	r24, Z
    1662:	88 23       	and	r24, r24
    1664:	09 f4       	brne	.+2      	; 0x1668 <parameter_handling+0x6ec>
    1666:	1b cd       	rjmp	.-1482   	; 0x109e <parameter_handling+0x122>
    1668:	90 e0       	ldi	r25, 0x00	; 0
    166a:	5d 9b       	sbis	0x0b, 5	; 11
    166c:	fe cf       	rjmp	.-4      	; 0x166a <parameter_handling+0x6ee>
    166e:	9f 5f       	subi	r25, 0xFF	; 255
    1670:	84 91       	lpm	r24, Z
    1672:	8c b9       	out	0x0c, r24	; 12
    1674:	e9 2f       	mov	r30, r25
    1676:	ff 27       	eor	r31, r31
    1678:	e9 5f       	subi	r30, 0xF9	; 249
    167a:	fd 4f       	sbci	r31, 0xFD	; 253
    167c:	84 91       	lpm	r24, Z
    167e:	88 23       	and	r24, r24
    1680:	a1 f7       	brne	.-24     	; 0x166a <parameter_handling+0x6ee>
    1682:	0d cd       	rjmp	.-1510   	; 0x109e <parameter_handling+0x122>
    1684:	80 91 62 00 	lds	r24, 0x0062
    1688:	26 e6       	ldi	r18, 0x66	; 102
    168a:	f8 01       	movw	r30, r16
    168c:	20 83       	st	Z, r18
    168e:	2d e3       	ldi	r18, 0x3D	; 61
    1690:	21 83       	std	Z+1, r18	; 0x01
    1692:	99 27       	eor	r25, r25
    1694:	9c 01       	movw	r18, r24
    1696:	22 0f       	add	r18, r18
    1698:	33 1f       	adc	r19, r19
    169a:	28 0f       	add	r18, r24
    169c:	39 1f       	adc	r19, r25
    169e:	29 5c       	subi	r18, 0xC9	; 201
    16a0:	3c 4f       	sbci	r19, 0xFC	; 252
    16a2:	f9 01       	movw	r30, r18
    16a4:	84 91       	lpm	r24, Z
    16a6:	f8 01       	movw	r30, r16
    16a8:	82 83       	std	Z+2, r24	; 0x02
    16aa:	2f 5f       	subi	r18, 0xFF	; 255
    16ac:	3f 4f       	sbci	r19, 0xFF	; 255
    16ae:	f9 01       	movw	r30, r18
    16b0:	84 91       	lpm	r24, Z
    16b2:	f8 01       	movw	r30, r16
    16b4:	83 83       	std	Z+3, r24	; 0x03
    16b6:	2f 5f       	subi	r18, 0xFF	; 255
    16b8:	3f 4f       	sbci	r19, 0xFF	; 255
    16ba:	f9 01       	movw	r30, r18
    16bc:	84 91       	lpm	r24, Z
    16be:	f8 01       	movw	r30, r16
    16c0:	84 83       	std	Z+4, r24	; 0x04
    16c2:	90 e0       	ldi	r25, 0x00	; 0
    16c4:	5d 9b       	sbis	0x0b, 5	; 11
    16c6:	fe cf       	rjmp	.-4      	; 0x16c4 <parameter_handling+0x748>
    16c8:	f8 01       	movw	r30, r16
    16ca:	e9 0f       	add	r30, r25
    16cc:	f1 1d       	adc	r31, r1
    16ce:	80 81       	ld	r24, Z
    16d0:	8c b9       	out	0x0c, r24	; 12
    16d2:	9f 5f       	subi	r25, 0xFF	; 255
    16d4:	95 30       	cpi	r25, 0x05	; 5
    16d6:	b0 f3       	brcs	.-20     	; 0x16c4 <parameter_handling+0x748>
    16d8:	5d 9b       	sbis	0x0b, 5	; 11
    16da:	fe cf       	rjmp	.-4      	; 0x16d8 <parameter_handling+0x75c>
    16dc:	8d e0       	ldi	r24, 0x0D	; 13
    16de:	8c b9       	out	0x0c, r24	; 12
    16e0:	5d 9b       	sbis	0x0b, 5	; 11
    16e2:	fe cf       	rjmp	.-4      	; 0x16e0 <parameter_handling+0x764>
    16e4:	8a e0       	ldi	r24, 0x0A	; 10
    16e6:	8c b9       	out	0x0c, r24	; 12
    16e8:	80 e0       	ldi	r24, 0x00	; 0
    16ea:	90 e0       	ldi	r25, 0x00	; 0
    16ec:	94 c2       	rjmp	.+1320   	; 0x1c16 <parameter_handling+0xc9a>
    16ee:	ef e9       	ldi	r30, 0x9F	; 159
    16f0:	f1 e0       	ldi	r31, 0x01	; 1
    16f2:	84 91       	lpm	r24, Z
    16f4:	88 23       	and	r24, r24
    16f6:	69 f0       	breq	.+26     	; 0x1712 <parameter_handling+0x796>
    16f8:	90 e0       	ldi	r25, 0x00	; 0
    16fa:	5d 9b       	sbis	0x0b, 5	; 11
    16fc:	fe cf       	rjmp	.-4      	; 0x16fa <parameter_handling+0x77e>
    16fe:	9f 5f       	subi	r25, 0xFF	; 255
    1700:	84 91       	lpm	r24, Z
    1702:	8c b9       	out	0x0c, r24	; 12
    1704:	e9 2f       	mov	r30, r25
    1706:	ff 27       	eor	r31, r31
    1708:	e1 56       	subi	r30, 0x61	; 97
    170a:	fe 4f       	sbci	r31, 0xFE	; 254
    170c:	84 91       	lpm	r24, Z
    170e:	88 23       	and	r24, r24
    1710:	a1 f7       	brne	.-24     	; 0x16fa <parameter_handling+0x77e>
    1712:	80 e0       	ldi	r24, 0x00	; 0
    1714:	5d 9b       	sbis	0x0b, 5	; 11
    1716:	fe cf       	rjmp	.-4      	; 0x1714 <parameter_handling+0x798>
    1718:	e8 2f       	mov	r30, r24
    171a:	ff 27       	eor	r31, r31
    171c:	e6 5c       	subi	r30, 0xC6	; 198
    171e:	fc 4f       	sbci	r31, 0xFC	; 252
    1720:	e4 91       	lpm	r30, Z
    1722:	ec b9       	out	0x0c, r30	; 12
    1724:	8f 5f       	subi	r24, 0xFF	; 255
    1726:	83 30       	cpi	r24, 0x03	; 3
    1728:	a8 f3       	brcs	.-22     	; 0x1714 <parameter_handling+0x798>
    172a:	e7 e0       	ldi	r30, 0x07	; 7
    172c:	f2 e0       	ldi	r31, 0x02	; 2
    172e:	84 91       	lpm	r24, Z
    1730:	88 23       	and	r24, r24
    1732:	09 f4       	brne	.+2      	; 0x1736 <parameter_handling+0x7ba>
    1734:	b4 cc       	rjmp	.-1688   	; 0x109e <parameter_handling+0x122>
    1736:	90 e0       	ldi	r25, 0x00	; 0
    1738:	5d 9b       	sbis	0x0b, 5	; 11
    173a:	fe cf       	rjmp	.-4      	; 0x1738 <parameter_handling+0x7bc>
    173c:	9f 5f       	subi	r25, 0xFF	; 255
    173e:	84 91       	lpm	r24, Z
    1740:	8c b9       	out	0x0c, r24	; 12
    1742:	e9 2f       	mov	r30, r25
    1744:	ff 27       	eor	r31, r31
    1746:	e9 5f       	subi	r30, 0xF9	; 249
    1748:	fd 4f       	sbci	r31, 0xFD	; 253
    174a:	84 91       	lpm	r24, Z
    174c:	88 23       	and	r24, r24
    174e:	a1 f7       	brne	.-24     	; 0x1738 <parameter_handling+0x7bc>
    1750:	a6 cc       	rjmp	.-1716   	; 0x109e <parameter_handling+0x122>
    1752:	80 91 63 00 	lds	r24, 0x0063
    1756:	27 e6       	ldi	r18, 0x67	; 103
    1758:	f8 01       	movw	r30, r16
    175a:	20 83       	st	Z, r18
    175c:	2d e3       	ldi	r18, 0x3D	; 61
    175e:	21 83       	std	Z+1, r18	; 0x01
    1760:	99 27       	eor	r25, r25
    1762:	9c 01       	movw	r18, r24
    1764:	22 0f       	add	r18, r18
    1766:	33 1f       	adc	r19, r19
    1768:	28 0f       	add	r18, r24
    176a:	39 1f       	adc	r19, r25
    176c:	29 5c       	subi	r18, 0xC9	; 201
    176e:	3c 4f       	sbci	r19, 0xFC	; 252
    1770:	f9 01       	movw	r30, r18
    1772:	84 91       	lpm	r24, Z
    1774:	f8 01       	movw	r30, r16
    1776:	82 83       	std	Z+2, r24	; 0x02
    1778:	2f 5f       	subi	r18, 0xFF	; 255
    177a:	3f 4f       	sbci	r19, 0xFF	; 255
    177c:	f9 01       	movw	r30, r18
    177e:	84 91       	lpm	r24, Z
    1780:	f8 01       	movw	r30, r16
    1782:	83 83       	std	Z+3, r24	; 0x03
    1784:	2f 5f       	subi	r18, 0xFF	; 255
    1786:	3f 4f       	sbci	r19, 0xFF	; 255
    1788:	f9 01       	movw	r30, r18
    178a:	84 91       	lpm	r24, Z
    178c:	f8 01       	movw	r30, r16
    178e:	84 83       	std	Z+4, r24	; 0x04
    1790:	90 e0       	ldi	r25, 0x00	; 0
    1792:	5d 9b       	sbis	0x0b, 5	; 11
    1794:	fe cf       	rjmp	.-4      	; 0x1792 <parameter_handling+0x816>
    1796:	f8 01       	movw	r30, r16
    1798:	e9 0f       	add	r30, r25
    179a:	f1 1d       	adc	r31, r1
    179c:	80 81       	ld	r24, Z
    179e:	8c b9       	out	0x0c, r24	; 12
    17a0:	9f 5f       	subi	r25, 0xFF	; 255
    17a2:	95 30       	cpi	r25, 0x05	; 5
    17a4:	b0 f3       	brcs	.-20     	; 0x1792 <parameter_handling+0x816>
    17a6:	5d 9b       	sbis	0x0b, 5	; 11
    17a8:	fe cf       	rjmp	.-4      	; 0x17a6 <parameter_handling+0x82a>
    17aa:	8d e0       	ldi	r24, 0x0D	; 13
    17ac:	8c b9       	out	0x0c, r24	; 12
    17ae:	5d 9b       	sbis	0x0b, 5	; 11
    17b0:	fe cf       	rjmp	.-4      	; 0x17ae <parameter_handling+0x832>
    17b2:	98 cf       	rjmp	.-208    	; 0x16e4 <parameter_handling+0x768>
    17b4:	80 91 66 00 	lds	r24, 0x0066
    17b8:	29 e7       	ldi	r18, 0x79	; 121
    17ba:	f8 01       	movw	r30, r16
    17bc:	20 83       	st	Z, r18
    17be:	2d e3       	ldi	r18, 0x3D	; 61
    17c0:	21 83       	std	Z+1, r18	; 0x01
    17c2:	99 27       	eor	r25, r25
    17c4:	9c 01       	movw	r18, r24
    17c6:	22 0f       	add	r18, r18
    17c8:	33 1f       	adc	r19, r19
    17ca:	28 0f       	add	r18, r24
    17cc:	39 1f       	adc	r19, r25
    17ce:	29 5c       	subi	r18, 0xC9	; 201
    17d0:	3c 4f       	sbci	r19, 0xFC	; 252
    17d2:	f9 01       	movw	r30, r18
    17d4:	84 91       	lpm	r24, Z
    17d6:	f8 01       	movw	r30, r16
    17d8:	82 83       	std	Z+2, r24	; 0x02
    17da:	2f 5f       	subi	r18, 0xFF	; 255
    17dc:	3f 4f       	sbci	r19, 0xFF	; 255
    17de:	f9 01       	movw	r30, r18
    17e0:	84 91       	lpm	r24, Z
    17e2:	f8 01       	movw	r30, r16
    17e4:	83 83       	std	Z+3, r24	; 0x03
    17e6:	2f 5f       	subi	r18, 0xFF	; 255
    17e8:	3f 4f       	sbci	r19, 0xFF	; 255
    17ea:	f9 01       	movw	r30, r18
    17ec:	84 91       	lpm	r24, Z
    17ee:	f8 01       	movw	r30, r16
    17f0:	84 83       	std	Z+4, r24	; 0x04
    17f2:	90 e0       	ldi	r25, 0x00	; 0
    17f4:	5d 9b       	sbis	0x0b, 5	; 11
    17f6:	fe cf       	rjmp	.-4      	; 0x17f4 <parameter_handling+0x878>
    17f8:	f8 01       	movw	r30, r16
    17fa:	e9 0f       	add	r30, r25
    17fc:	f1 1d       	adc	r31, r1
    17fe:	80 81       	ld	r24, Z
    1800:	8c b9       	out	0x0c, r24	; 12
    1802:	9f 5f       	subi	r25, 0xFF	; 255
    1804:	95 30       	cpi	r25, 0x05	; 5
    1806:	b0 f3       	brcs	.-20     	; 0x17f4 <parameter_handling+0x878>
    1808:	5d 9b       	sbis	0x0b, 5	; 11
    180a:	fe cf       	rjmp	.-4      	; 0x1808 <parameter_handling+0x88c>
    180c:	8d e0       	ldi	r24, 0x0D	; 13
    180e:	8c b9       	out	0x0c, r24	; 12
    1810:	5d 9b       	sbis	0x0b, 5	; 11
    1812:	fe cf       	rjmp	.-4      	; 0x1810 <parameter_handling+0x894>
    1814:	67 cf       	rjmp	.-306    	; 0x16e4 <parameter_handling+0x768>
    1816:	80 91 60 00 	lds	r24, 0x0060
    181a:	20 e7       	ldi	r18, 0x70	; 112
    181c:	f8 01       	movw	r30, r16
    181e:	20 83       	st	Z, r18
    1820:	2d e3       	ldi	r18, 0x3D	; 61
    1822:	21 83       	std	Z+1, r18	; 0x01
    1824:	99 27       	eor	r25, r25
    1826:	9c 01       	movw	r18, r24
    1828:	22 0f       	add	r18, r18
    182a:	33 1f       	adc	r19, r19
    182c:	28 0f       	add	r18, r24
    182e:	39 1f       	adc	r19, r25
    1830:	29 5c       	subi	r18, 0xC9	; 201
    1832:	3c 4f       	sbci	r19, 0xFC	; 252
    1834:	f9 01       	movw	r30, r18
    1836:	84 91       	lpm	r24, Z
    1838:	f8 01       	movw	r30, r16
    183a:	82 83       	std	Z+2, r24	; 0x02
    183c:	2f 5f       	subi	r18, 0xFF	; 255
    183e:	3f 4f       	sbci	r19, 0xFF	; 255
    1840:	f9 01       	movw	r30, r18
    1842:	84 91       	lpm	r24, Z
    1844:	f8 01       	movw	r30, r16
    1846:	83 83       	std	Z+3, r24	; 0x03
    1848:	2f 5f       	subi	r18, 0xFF	; 255
    184a:	3f 4f       	sbci	r19, 0xFF	; 255
    184c:	f9 01       	movw	r30, r18
    184e:	84 91       	lpm	r24, Z
    1850:	f8 01       	movw	r30, r16
    1852:	84 83       	std	Z+4, r24	; 0x04
    1854:	90 e0       	ldi	r25, 0x00	; 0
    1856:	5d 9b       	sbis	0x0b, 5	; 11
    1858:	fe cf       	rjmp	.-4      	; 0x1856 <parameter_handling+0x8da>
    185a:	f8 01       	movw	r30, r16
    185c:	e9 0f       	add	r30, r25
    185e:	f1 1d       	adc	r31, r1
    1860:	80 81       	ld	r24, Z
    1862:	8c b9       	out	0x0c, r24	; 12
    1864:	9f 5f       	subi	r25, 0xFF	; 255
    1866:	95 30       	cpi	r25, 0x05	; 5
    1868:	b0 f3       	brcs	.-20     	; 0x1856 <parameter_handling+0x8da>
    186a:	5d 9b       	sbis	0x0b, 5	; 11
    186c:	fe cf       	rjmp	.-4      	; 0x186a <parameter_handling+0x8ee>
    186e:	8d e0       	ldi	r24, 0x0D	; 13
    1870:	8c b9       	out	0x0c, r24	; 12
    1872:	5d 9b       	sbis	0x0b, 5	; 11
    1874:	fe cf       	rjmp	.-4      	; 0x1872 <parameter_handling+0x8f6>
    1876:	36 cf       	rjmp	.-404    	; 0x16e4 <parameter_handling+0x768>
    1878:	ef e9       	ldi	r30, 0x9F	; 159
    187a:	f1 e0       	ldi	r31, 0x01	; 1
    187c:	84 91       	lpm	r24, Z
    187e:	88 23       	and	r24, r24
    1880:	69 f0       	breq	.+26     	; 0x189c <parameter_handling+0x920>
    1882:	90 e0       	ldi	r25, 0x00	; 0
    1884:	5d 9b       	sbis	0x0b, 5	; 11
    1886:	fe cf       	rjmp	.-4      	; 0x1884 <parameter_handling+0x908>
    1888:	9f 5f       	subi	r25, 0xFF	; 255
    188a:	84 91       	lpm	r24, Z
    188c:	8c b9       	out	0x0c, r24	; 12
    188e:	e9 2f       	mov	r30, r25
    1890:	ff 27       	eor	r31, r31
    1892:	e1 56       	subi	r30, 0x61	; 97
    1894:	fe 4f       	sbci	r31, 0xFE	; 254
    1896:	84 91       	lpm	r24, Z
    1898:	88 23       	and	r24, r24
    189a:	a1 f7       	brne	.-24     	; 0x1884 <parameter_handling+0x908>
    189c:	80 e0       	ldi	r24, 0x00	; 0
    189e:	5d 9b       	sbis	0x0b, 5	; 11
    18a0:	fe cf       	rjmp	.-4      	; 0x189e <parameter_handling+0x922>
    18a2:	e8 2f       	mov	r30, r24
    18a4:	ff 27       	eor	r31, r31
    18a6:	e6 5c       	subi	r30, 0xC6	; 198
    18a8:	fc 4f       	sbci	r31, 0xFC	; 252
    18aa:	e4 91       	lpm	r30, Z
    18ac:	ec b9       	out	0x0c, r30	; 12
    18ae:	8f 5f       	subi	r24, 0xFF	; 255
    18b0:	83 30       	cpi	r24, 0x03	; 3
    18b2:	a8 f3       	brcs	.-22     	; 0x189e <parameter_handling+0x922>
    18b4:	e7 e0       	ldi	r30, 0x07	; 7
    18b6:	f2 e0       	ldi	r31, 0x02	; 2
    18b8:	84 91       	lpm	r24, Z
    18ba:	88 23       	and	r24, r24
    18bc:	09 f4       	brne	.+2      	; 0x18c0 <parameter_handling+0x944>
    18be:	ef cb       	rjmp	.-2082   	; 0x109e <parameter_handling+0x122>
    18c0:	90 e0       	ldi	r25, 0x00	; 0
    18c2:	5d 9b       	sbis	0x0b, 5	; 11
    18c4:	fe cf       	rjmp	.-4      	; 0x18c2 <parameter_handling+0x946>
    18c6:	9f 5f       	subi	r25, 0xFF	; 255
    18c8:	84 91       	lpm	r24, Z
    18ca:	8c b9       	out	0x0c, r24	; 12
    18cc:	e9 2f       	mov	r30, r25
    18ce:	ff 27       	eor	r31, r31
    18d0:	e9 5f       	subi	r30, 0xF9	; 249
    18d2:	fd 4f       	sbci	r31, 0xFD	; 253
    18d4:	84 91       	lpm	r24, Z
    18d6:	88 23       	and	r24, r24
    18d8:	a1 f7       	brne	.-24     	; 0x18c2 <parameter_handling+0x946>
    18da:	e1 cb       	rjmp	.-2110   	; 0x109e <parameter_handling+0x122>
    18dc:	80 91 61 00 	lds	r24, 0x0061
    18e0:	22 e7       	ldi	r18, 0x72	; 114
    18e2:	f8 01       	movw	r30, r16
    18e4:	20 83       	st	Z, r18
    18e6:	2d e3       	ldi	r18, 0x3D	; 61
    18e8:	21 83       	std	Z+1, r18	; 0x01
    18ea:	99 27       	eor	r25, r25
    18ec:	9c 01       	movw	r18, r24
    18ee:	22 0f       	add	r18, r18
    18f0:	33 1f       	adc	r19, r19
    18f2:	28 0f       	add	r18, r24
    18f4:	39 1f       	adc	r19, r25
    18f6:	29 5c       	subi	r18, 0xC9	; 201
    18f8:	3c 4f       	sbci	r19, 0xFC	; 252
    18fa:	f9 01       	movw	r30, r18
    18fc:	84 91       	lpm	r24, Z
    18fe:	f8 01       	movw	r30, r16
    1900:	82 83       	std	Z+2, r24	; 0x02
    1902:	2f 5f       	subi	r18, 0xFF	; 255
    1904:	3f 4f       	sbci	r19, 0xFF	; 255
    1906:	f9 01       	movw	r30, r18
    1908:	84 91       	lpm	r24, Z
    190a:	f8 01       	movw	r30, r16
    190c:	83 83       	std	Z+3, r24	; 0x03
    190e:	2f 5f       	subi	r18, 0xFF	; 255
    1910:	3f 4f       	sbci	r19, 0xFF	; 255
    1912:	f9 01       	movw	r30, r18
    1914:	84 91       	lpm	r24, Z
    1916:	f8 01       	movw	r30, r16
    1918:	84 83       	std	Z+4, r24	; 0x04
    191a:	90 e0       	ldi	r25, 0x00	; 0
    191c:	5d 9b       	sbis	0x0b, 5	; 11
    191e:	fe cf       	rjmp	.-4      	; 0x191c <parameter_handling+0x9a0>
    1920:	f8 01       	movw	r30, r16
    1922:	e9 0f       	add	r30, r25
    1924:	f1 1d       	adc	r31, r1
    1926:	80 81       	ld	r24, Z
    1928:	8c b9       	out	0x0c, r24	; 12
    192a:	9f 5f       	subi	r25, 0xFF	; 255
    192c:	95 30       	cpi	r25, 0x05	; 5
    192e:	b0 f3       	brcs	.-20     	; 0x191c <parameter_handling+0x9a0>
    1930:	5d 9b       	sbis	0x0b, 5	; 11
    1932:	fe cf       	rjmp	.-4      	; 0x1930 <parameter_handling+0x9b4>
    1934:	8d e0       	ldi	r24, 0x0D	; 13
    1936:	8c b9       	out	0x0c, r24	; 12
    1938:	5d 9b       	sbis	0x0b, 5	; 11
    193a:	fe cf       	rjmp	.-4      	; 0x1938 <parameter_handling+0x9bc>
    193c:	d3 ce       	rjmp	.-602    	; 0x16e4 <parameter_handling+0x768>
    193e:	80 91 68 00 	lds	r24, 0x0068
    1942:	80 93 69 00 	sts	0x0069, r24
    1946:	e5 ee       	ldi	r30, 0xE5	; 229
    1948:	f0 e0       	ldi	r31, 0x00	; 0
    194a:	84 91       	lpm	r24, Z
    194c:	88 23       	and	r24, r24
    194e:	69 f0       	breq	.+26     	; 0x196a <parameter_handling+0x9ee>
    1950:	90 e0       	ldi	r25, 0x00	; 0
    1952:	5d 9b       	sbis	0x0b, 5	; 11
    1954:	fe cf       	rjmp	.-4      	; 0x1952 <parameter_handling+0x9d6>
    1956:	9f 5f       	subi	r25, 0xFF	; 255
    1958:	84 91       	lpm	r24, Z
    195a:	8c b9       	out	0x0c, r24	; 12
    195c:	e9 2f       	mov	r30, r25
    195e:	ff 27       	eor	r31, r31
    1960:	eb 51       	subi	r30, 0x1B	; 27
    1962:	ff 4f       	sbci	r31, 0xFF	; 255
    1964:	84 91       	lpm	r24, Z
    1966:	88 23       	and	r24, r24
    1968:	a1 f7       	brne	.-24     	; 0x1952 <parameter_handling+0x9d6>
    196a:	81 e0       	ldi	r24, 0x01	; 1
    196c:	80 93 68 00 	sts	0x0068, r24
    1970:	80 e0       	ldi	r24, 0x00	; 0
    1972:	90 e0       	ldi	r25, 0x00	; 0
    1974:	50 c1       	rjmp	.+672    	; 0x1c16 <parameter_handling+0xc9a>
    1976:	80 91 68 00 	lds	r24, 0x0068
    197a:	80 93 69 00 	sts	0x0069, r24
    197e:	82 e0       	ldi	r24, 0x02	; 2
    1980:	80 93 68 00 	sts	0x0068, r24
    1984:	80 e0       	ldi	r24, 0x00	; 0
    1986:	90 e0       	ldi	r25, 0x00	; 0
    1988:	46 c1       	rjmp	.+652    	; 0x1c16 <parameter_handling+0xc9a>
    198a:	80 91 65 00 	lds	r24, 0x0065
    198e:	2a e6       	ldi	r18, 0x6A	; 106
    1990:	f8 01       	movw	r30, r16
    1992:	20 83       	st	Z, r18
    1994:	2d e3       	ldi	r18, 0x3D	; 61
    1996:	21 83       	std	Z+1, r18	; 0x01
    1998:	99 27       	eor	r25, r25
    199a:	9c 01       	movw	r18, r24
    199c:	22 0f       	add	r18, r18
    199e:	33 1f       	adc	r19, r19
    19a0:	28 0f       	add	r18, r24
    19a2:	39 1f       	adc	r19, r25
    19a4:	29 5c       	subi	r18, 0xC9	; 201
    19a6:	3c 4f       	sbci	r19, 0xFC	; 252
    19a8:	f9 01       	movw	r30, r18
    19aa:	84 91       	lpm	r24, Z
    19ac:	f8 01       	movw	r30, r16
    19ae:	82 83       	std	Z+2, r24	; 0x02
    19b0:	2f 5f       	subi	r18, 0xFF	; 255
    19b2:	3f 4f       	sbci	r19, 0xFF	; 255
    19b4:	f9 01       	movw	r30, r18
    19b6:	84 91       	lpm	r24, Z
    19b8:	f8 01       	movw	r30, r16
    19ba:	83 83       	std	Z+3, r24	; 0x03
    19bc:	2f 5f       	subi	r18, 0xFF	; 255
    19be:	3f 4f       	sbci	r19, 0xFF	; 255
    19c0:	f9 01       	movw	r30, r18
    19c2:	84 91       	lpm	r24, Z
    19c4:	f8 01       	movw	r30, r16
    19c6:	84 83       	std	Z+4, r24	; 0x04
    19c8:	90 e0       	ldi	r25, 0x00	; 0
    19ca:	5d 9b       	sbis	0x0b, 5	; 11
    19cc:	fe cf       	rjmp	.-4      	; 0x19ca <parameter_handling+0xa4e>
    19ce:	f8 01       	movw	r30, r16
    19d0:	e9 0f       	add	r30, r25
    19d2:	f1 1d       	adc	r31, r1
    19d4:	80 81       	ld	r24, Z
    19d6:	8c b9       	out	0x0c, r24	; 12
    19d8:	9f 5f       	subi	r25, 0xFF	; 255
    19da:	95 30       	cpi	r25, 0x05	; 5
    19dc:	b0 f3       	brcs	.-20     	; 0x19ca <parameter_handling+0xa4e>
    19de:	5d 9b       	sbis	0x0b, 5	; 11
    19e0:	fe cf       	rjmp	.-4      	; 0x19de <parameter_handling+0xa62>
    19e2:	8d e0       	ldi	r24, 0x0D	; 13
    19e4:	8c b9       	out	0x0c, r24	; 12
    19e6:	5d 9b       	sbis	0x0b, 5	; 11
    19e8:	fe cf       	rjmp	.-4      	; 0x19e6 <parameter_handling+0xa6a>
    19ea:	7c ce       	rjmp	.-776    	; 0x16e4 <parameter_handling+0x768>
    19ec:	ef e9       	ldi	r30, 0x9F	; 159
    19ee:	f1 e0       	ldi	r31, 0x01	; 1
    19f0:	84 91       	lpm	r24, Z
    19f2:	88 23       	and	r24, r24
    19f4:	69 f0       	breq	.+26     	; 0x1a10 <parameter_handling+0xa94>
    19f6:	90 e0       	ldi	r25, 0x00	; 0
    19f8:	5d 9b       	sbis	0x0b, 5	; 11
    19fa:	fe cf       	rjmp	.-4      	; 0x19f8 <parameter_handling+0xa7c>
    19fc:	9f 5f       	subi	r25, 0xFF	; 255
    19fe:	84 91       	lpm	r24, Z
    1a00:	8c b9       	out	0x0c, r24	; 12
    1a02:	e9 2f       	mov	r30, r25
    1a04:	ff 27       	eor	r31, r31
    1a06:	e1 56       	subi	r30, 0x61	; 97
    1a08:	fe 4f       	sbci	r31, 0xFE	; 254
    1a0a:	84 91       	lpm	r24, Z
    1a0c:	88 23       	and	r24, r24
    1a0e:	a1 f7       	brne	.-24     	; 0x19f8 <parameter_handling+0xa7c>
    1a10:	80 e0       	ldi	r24, 0x00	; 0
    1a12:	5d 9b       	sbis	0x0b, 5	; 11
    1a14:	fe cf       	rjmp	.-4      	; 0x1a12 <parameter_handling+0xa96>
    1a16:	e8 2f       	mov	r30, r24
    1a18:	ff 27       	eor	r31, r31
    1a1a:	e6 5c       	subi	r30, 0xC6	; 198
    1a1c:	fc 4f       	sbci	r31, 0xFC	; 252
    1a1e:	e4 91       	lpm	r30, Z
    1a20:	ec b9       	out	0x0c, r30	; 12
    1a22:	8f 5f       	subi	r24, 0xFF	; 255
    1a24:	83 30       	cpi	r24, 0x03	; 3
    1a26:	a8 f3       	brcs	.-22     	; 0x1a12 <parameter_handling+0xa96>
    1a28:	e7 e0       	ldi	r30, 0x07	; 7
    1a2a:	f2 e0       	ldi	r31, 0x02	; 2
    1a2c:	84 91       	lpm	r24, Z
    1a2e:	88 23       	and	r24, r24
    1a30:	09 f4       	brne	.+2      	; 0x1a34 <parameter_handling+0xab8>
    1a32:	35 cb       	rjmp	.-2454   	; 0x109e <parameter_handling+0x122>
    1a34:	90 e0       	ldi	r25, 0x00	; 0
    1a36:	5d 9b       	sbis	0x0b, 5	; 11
    1a38:	fe cf       	rjmp	.-4      	; 0x1a36 <parameter_handling+0xaba>
    1a3a:	9f 5f       	subi	r25, 0xFF	; 255
    1a3c:	84 91       	lpm	r24, Z
    1a3e:	8c b9       	out	0x0c, r24	; 12
    1a40:	e9 2f       	mov	r30, r25
    1a42:	ff 27       	eor	r31, r31
    1a44:	e9 5f       	subi	r30, 0xF9	; 249
    1a46:	fd 4f       	sbci	r31, 0xFD	; 253
    1a48:	84 91       	lpm	r24, Z
    1a4a:	88 23       	and	r24, r24
    1a4c:	a1 f7       	brne	.-24     	; 0x1a36 <parameter_handling+0xaba>
    1a4e:	27 cb       	rjmp	.-2482   	; 0x109e <parameter_handling+0x122>
    1a50:	ef e9       	ldi	r30, 0x9F	; 159
    1a52:	f1 e0       	ldi	r31, 0x01	; 1
    1a54:	84 91       	lpm	r24, Z
    1a56:	88 23       	and	r24, r24
    1a58:	69 f0       	breq	.+26     	; 0x1a74 <parameter_handling+0xaf8>
    1a5a:	90 e0       	ldi	r25, 0x00	; 0
    1a5c:	5d 9b       	sbis	0x0b, 5	; 11
    1a5e:	fe cf       	rjmp	.-4      	; 0x1a5c <parameter_handling+0xae0>
    1a60:	9f 5f       	subi	r25, 0xFF	; 255
    1a62:	84 91       	lpm	r24, Z
    1a64:	8c b9       	out	0x0c, r24	; 12
    1a66:	e9 2f       	mov	r30, r25
    1a68:	ff 27       	eor	r31, r31
    1a6a:	e1 56       	subi	r30, 0x61	; 97
    1a6c:	fe 4f       	sbci	r31, 0xFE	; 254
    1a6e:	84 91       	lpm	r24, Z
    1a70:	88 23       	and	r24, r24
    1a72:	a1 f7       	brne	.-24     	; 0x1a5c <parameter_handling+0xae0>
    1a74:	80 e0       	ldi	r24, 0x00	; 0
    1a76:	5d 9b       	sbis	0x0b, 5	; 11
    1a78:	fe cf       	rjmp	.-4      	; 0x1a76 <parameter_handling+0xafa>
    1a7a:	e8 2f       	mov	r30, r24
    1a7c:	ff 27       	eor	r31, r31
    1a7e:	e6 5c       	subi	r30, 0xC6	; 198
    1a80:	fc 4f       	sbci	r31, 0xFC	; 252
    1a82:	e4 91       	lpm	r30, Z
    1a84:	ec b9       	out	0x0c, r30	; 12
    1a86:	8f 5f       	subi	r24, 0xFF	; 255
    1a88:	83 30       	cpi	r24, 0x03	; 3
    1a8a:	a8 f3       	brcs	.-22     	; 0x1a76 <parameter_handling+0xafa>
    1a8c:	e7 e0       	ldi	r30, 0x07	; 7
    1a8e:	f2 e0       	ldi	r31, 0x02	; 2
    1a90:	84 91       	lpm	r24, Z
    1a92:	88 23       	and	r24, r24
    1a94:	09 f4       	brne	.+2      	; 0x1a98 <parameter_handling+0xb1c>
    1a96:	03 cb       	rjmp	.-2554   	; 0x109e <parameter_handling+0x122>
    1a98:	90 e0       	ldi	r25, 0x00	; 0
    1a9a:	5d 9b       	sbis	0x0b, 5	; 11
    1a9c:	fe cf       	rjmp	.-4      	; 0x1a9a <parameter_handling+0xb1e>
    1a9e:	9f 5f       	subi	r25, 0xFF	; 255
    1aa0:	84 91       	lpm	r24, Z
    1aa2:	8c b9       	out	0x0c, r24	; 12
    1aa4:	e9 2f       	mov	r30, r25
    1aa6:	ff 27       	eor	r31, r31
    1aa8:	e9 5f       	subi	r30, 0xF9	; 249
    1aaa:	fd 4f       	sbci	r31, 0xFD	; 253
    1aac:	84 91       	lpm	r24, Z
    1aae:	88 23       	and	r24, r24
    1ab0:	a1 f7       	brne	.-24     	; 0x1a9a <parameter_handling+0xb1e>
    1ab2:	f5 ca       	rjmp	.-2582   	; 0x109e <parameter_handling+0x122>
    1ab4:	80 91 68 00 	lds	r24, 0x0068
    1ab8:	80 93 69 00 	sts	0x0069, r24
    1abc:	e3 e3       	ldi	r30, 0x33	; 51
    1abe:	f1 e0       	ldi	r31, 0x01	; 1
    1ac0:	84 91       	lpm	r24, Z
    1ac2:	88 23       	and	r24, r24
    1ac4:	69 f0       	breq	.+26     	; 0x1ae0 <parameter_handling+0xb64>
    1ac6:	90 e0       	ldi	r25, 0x00	; 0
    1ac8:	5d 9b       	sbis	0x0b, 5	; 11
    1aca:	fe cf       	rjmp	.-4      	; 0x1ac8 <parameter_handling+0xb4c>
    1acc:	9f 5f       	subi	r25, 0xFF	; 255
    1ace:	84 91       	lpm	r24, Z
    1ad0:	8c b9       	out	0x0c, r24	; 12
    1ad2:	e9 2f       	mov	r30, r25
    1ad4:	ff 27       	eor	r31, r31
    1ad6:	ed 5c       	subi	r30, 0xCD	; 205
    1ad8:	fe 4f       	sbci	r31, 0xFE	; 254
    1ada:	84 91       	lpm	r24, Z
    1adc:	88 23       	and	r24, r24
    1ade:	a1 f7       	brne	.-24     	; 0x1ac8 <parameter_handling+0xb4c>
    1ae0:	83 e0       	ldi	r24, 0x03	; 3
    1ae2:	80 93 68 00 	sts	0x0068, r24
    1ae6:	80 e0       	ldi	r24, 0x00	; 0
    1ae8:	90 e0       	ldi	r25, 0x00	; 0
    1aea:	95 c0       	rjmp	.+298    	; 0x1c16 <parameter_handling+0xc9a>
    1aec:	ef e9       	ldi	r30, 0x9F	; 159
    1aee:	f1 e0       	ldi	r31, 0x01	; 1
    1af0:	84 91       	lpm	r24, Z
    1af2:	88 23       	and	r24, r24
    1af4:	69 f0       	breq	.+26     	; 0x1b10 <parameter_handling+0xb94>
    1af6:	90 e0       	ldi	r25, 0x00	; 0
    1af8:	5d 9b       	sbis	0x0b, 5	; 11
    1afa:	fe cf       	rjmp	.-4      	; 0x1af8 <parameter_handling+0xb7c>
    1afc:	9f 5f       	subi	r25, 0xFF	; 255
    1afe:	84 91       	lpm	r24, Z
    1b00:	8c b9       	out	0x0c, r24	; 12
    1b02:	e9 2f       	mov	r30, r25
    1b04:	ff 27       	eor	r31, r31
    1b06:	e1 56       	subi	r30, 0x61	; 97
    1b08:	fe 4f       	sbci	r31, 0xFE	; 254
    1b0a:	84 91       	lpm	r24, Z
    1b0c:	88 23       	and	r24, r24
    1b0e:	a1 f7       	brne	.-24     	; 0x1af8 <parameter_handling+0xb7c>
    1b10:	80 e0       	ldi	r24, 0x00	; 0
    1b12:	5d 9b       	sbis	0x0b, 5	; 11
    1b14:	fe cf       	rjmp	.-4      	; 0x1b12 <parameter_handling+0xb96>
    1b16:	e8 2f       	mov	r30, r24
    1b18:	ff 27       	eor	r31, r31
    1b1a:	e6 5c       	subi	r30, 0xC6	; 198
    1b1c:	fc 4f       	sbci	r31, 0xFC	; 252
    1b1e:	e4 91       	lpm	r30, Z
    1b20:	ec b9       	out	0x0c, r30	; 12
    1b22:	8f 5f       	subi	r24, 0xFF	; 255
    1b24:	83 30       	cpi	r24, 0x03	; 3
    1b26:	a8 f3       	brcs	.-22     	; 0x1b12 <parameter_handling+0xb96>
    1b28:	e7 e0       	ldi	r30, 0x07	; 7
    1b2a:	f2 e0       	ldi	r31, 0x02	; 2
    1b2c:	84 91       	lpm	r24, Z
    1b2e:	88 23       	and	r24, r24
    1b30:	09 f4       	brne	.+2      	; 0x1b34 <parameter_handling+0xbb8>
    1b32:	b5 ca       	rjmp	.-2710   	; 0x109e <parameter_handling+0x122>
    1b34:	90 e0       	ldi	r25, 0x00	; 0
    1b36:	5d 9b       	sbis	0x0b, 5	; 11
    1b38:	fe cf       	rjmp	.-4      	; 0x1b36 <parameter_handling+0xbba>
    1b3a:	9f 5f       	subi	r25, 0xFF	; 255
    1b3c:	84 91       	lpm	r24, Z
    1b3e:	8c b9       	out	0x0c, r24	; 12
    1b40:	e9 2f       	mov	r30, r25
    1b42:	ff 27       	eor	r31, r31
    1b44:	e9 5f       	subi	r30, 0xF9	; 249
    1b46:	fd 4f       	sbci	r31, 0xFD	; 253
    1b48:	84 91       	lpm	r24, Z
    1b4a:	88 23       	and	r24, r24
    1b4c:	a1 f7       	brne	.-24     	; 0x1b36 <parameter_handling+0xbba>
    1b4e:	a7 ca       	rjmp	.-2738   	; 0x109e <parameter_handling+0x122>
    1b50:	80 91 64 00 	lds	r24, 0x0064
    1b54:	28 e6       	ldi	r18, 0x68	; 104
    1b56:	f8 01       	movw	r30, r16
    1b58:	20 83       	st	Z, r18
    1b5a:	2d e3       	ldi	r18, 0x3D	; 61
    1b5c:	21 83       	std	Z+1, r18	; 0x01
    1b5e:	99 27       	eor	r25, r25
    1b60:	9c 01       	movw	r18, r24
    1b62:	22 0f       	add	r18, r18
    1b64:	33 1f       	adc	r19, r19
    1b66:	28 0f       	add	r18, r24
    1b68:	39 1f       	adc	r19, r25
    1b6a:	29 5c       	subi	r18, 0xC9	; 201
    1b6c:	3c 4f       	sbci	r19, 0xFC	; 252
    1b6e:	f9 01       	movw	r30, r18
    1b70:	84 91       	lpm	r24, Z
    1b72:	f8 01       	movw	r30, r16
    1b74:	82 83       	std	Z+2, r24	; 0x02
    1b76:	2f 5f       	subi	r18, 0xFF	; 255
    1b78:	3f 4f       	sbci	r19, 0xFF	; 255
    1b7a:	f9 01       	movw	r30, r18
    1b7c:	84 91       	lpm	r24, Z
    1b7e:	f8 01       	movw	r30, r16
    1b80:	83 83       	std	Z+3, r24	; 0x03
    1b82:	2f 5f       	subi	r18, 0xFF	; 255
    1b84:	3f 4f       	sbci	r19, 0xFF	; 255
    1b86:	f9 01       	movw	r30, r18
    1b88:	84 91       	lpm	r24, Z
    1b8a:	f8 01       	movw	r30, r16
    1b8c:	84 83       	std	Z+4, r24	; 0x04
    1b8e:	90 e0       	ldi	r25, 0x00	; 0
    1b90:	5d 9b       	sbis	0x0b, 5	; 11
    1b92:	fe cf       	rjmp	.-4      	; 0x1b90 <parameter_handling+0xc14>
    1b94:	f8 01       	movw	r30, r16
    1b96:	e9 0f       	add	r30, r25
    1b98:	f1 1d       	adc	r31, r1
    1b9a:	80 81       	ld	r24, Z
    1b9c:	8c b9       	out	0x0c, r24	; 12
    1b9e:	9f 5f       	subi	r25, 0xFF	; 255
    1ba0:	95 30       	cpi	r25, 0x05	; 5
    1ba2:	b0 f3       	brcs	.-20     	; 0x1b90 <parameter_handling+0xc14>
    1ba4:	5d 9b       	sbis	0x0b, 5	; 11
    1ba6:	fe cf       	rjmp	.-4      	; 0x1ba4 <parameter_handling+0xc28>
    1ba8:	8d e0       	ldi	r24, 0x0D	; 13
    1baa:	8c b9       	out	0x0c, r24	; 12
    1bac:	5d 9b       	sbis	0x0b, 5	; 11
    1bae:	fe cf       	rjmp	.-4      	; 0x1bac <parameter_handling+0xc30>
    1bb0:	99 cd       	rjmp	.-1230   	; 0x16e4 <parameter_handling+0x768>
    1bb2:	ef e9       	ldi	r30, 0x9F	; 159
    1bb4:	f1 e0       	ldi	r31, 0x01	; 1
    1bb6:	84 91       	lpm	r24, Z
    1bb8:	88 23       	and	r24, r24
    1bba:	69 f0       	breq	.+26     	; 0x1bd6 <parameter_handling+0xc5a>
    1bbc:	90 e0       	ldi	r25, 0x00	; 0
    1bbe:	5d 9b       	sbis	0x0b, 5	; 11
    1bc0:	fe cf       	rjmp	.-4      	; 0x1bbe <parameter_handling+0xc42>
    1bc2:	9f 5f       	subi	r25, 0xFF	; 255
    1bc4:	84 91       	lpm	r24, Z
    1bc6:	8c b9       	out	0x0c, r24	; 12
    1bc8:	e9 2f       	mov	r30, r25
    1bca:	ff 27       	eor	r31, r31
    1bcc:	e1 56       	subi	r30, 0x61	; 97
    1bce:	fe 4f       	sbci	r31, 0xFE	; 254
    1bd0:	84 91       	lpm	r24, Z
    1bd2:	88 23       	and	r24, r24
    1bd4:	a1 f7       	brne	.-24     	; 0x1bbe <parameter_handling+0xc42>
    1bd6:	80 e0       	ldi	r24, 0x00	; 0
    1bd8:	5d 9b       	sbis	0x0b, 5	; 11
    1bda:	fe cf       	rjmp	.-4      	; 0x1bd8 <parameter_handling+0xc5c>
    1bdc:	e8 2f       	mov	r30, r24
    1bde:	ff 27       	eor	r31, r31
    1be0:	e6 5c       	subi	r30, 0xC6	; 198
    1be2:	fc 4f       	sbci	r31, 0xFC	; 252
    1be4:	e4 91       	lpm	r30, Z
    1be6:	ec b9       	out	0x0c, r30	; 12
    1be8:	8f 5f       	subi	r24, 0xFF	; 255
    1bea:	83 30       	cpi	r24, 0x03	; 3
    1bec:	a8 f3       	brcs	.-22     	; 0x1bd8 <parameter_handling+0xc5c>
    1bee:	e7 e0       	ldi	r30, 0x07	; 7
    1bf0:	f2 e0       	ldi	r31, 0x02	; 2
    1bf2:	84 91       	lpm	r24, Z
    1bf4:	88 23       	and	r24, r24
    1bf6:	09 f4       	brne	.+2      	; 0x1bfa <parameter_handling+0xc7e>
    1bf8:	52 ca       	rjmp	.-2908   	; 0x109e <parameter_handling+0x122>
    1bfa:	90 e0       	ldi	r25, 0x00	; 0
    1bfc:	5d 9b       	sbis	0x0b, 5	; 11
    1bfe:	fe cf       	rjmp	.-4      	; 0x1bfc <parameter_handling+0xc80>
    1c00:	9f 5f       	subi	r25, 0xFF	; 255
    1c02:	84 91       	lpm	r24, Z
    1c04:	8c b9       	out	0x0c, r24	; 12
    1c06:	e9 2f       	mov	r30, r25
    1c08:	ff 27       	eor	r31, r31
    1c0a:	e9 5f       	subi	r30, 0xF9	; 249
    1c0c:	fd 4f       	sbci	r31, 0xFD	; 253
    1c0e:	84 91       	lpm	r24, Z
    1c10:	88 23       	and	r24, r24
    1c12:	a1 f7       	brne	.-24     	; 0x1bfc <parameter_handling+0xc80>
    1c14:	44 ca       	rjmp	.-2936   	; 0x109e <parameter_handling+0x122>
    1c16:	0f b6       	in	r0, 0x3f	; 63
    1c18:	f8 94       	cli
    1c1a:	fe be       	out	0x3e, r15	; 62
    1c1c:	0f be       	out	0x3f, r0	; 63
    1c1e:	ed be       	out	0x3d, r14	; 61
    1c20:	df 91       	pop	r29
    1c22:	cf 91       	pop	r28
    1c24:	1f 91       	pop	r17
    1c26:	0f 91       	pop	r16
    1c28:	ff 90       	pop	r15
    1c2a:	ef 90       	pop	r14
    1c2c:	df 90       	pop	r13
    1c2e:	cf 90       	pop	r12
    1c30:	08 95       	ret

00001c32 <auto_mode>:
    1c32:	cf 93       	push	r28
    1c34:	df 93       	push	r29
    1c36:	cd b7       	in	r28, 0x3d	; 61
    1c38:	de b7       	in	r29, 0x3e	; 62
    1c3a:	25 97       	sbiw	r28, 0x05	; 5
    1c3c:	0f b6       	in	r0, 0x3f	; 63
    1c3e:	f8 94       	cli
    1c40:	de bf       	out	0x3e, r29	; 62
    1c42:	0f be       	out	0x3f, r0	; 63
    1c44:	cd bf       	out	0x3d, r28	; 61
    1c46:	90 e0       	ldi	r25, 0x00	; 0
    1c48:	be 01       	movw	r22, r28
    1c4a:	6f 5f       	subi	r22, 0xFF	; 255
    1c4c:	7f 4f       	sbci	r23, 0xFF	; 255
    1c4e:	5f 9b       	sbis	0x0b, 7	; 11
    1c50:	fe cf       	rjmp	.-4      	; 0x1c4e <auto_mode+0x1c>
    1c52:	fb 01       	movw	r30, r22
    1c54:	e9 0f       	add	r30, r25
    1c56:	f1 1d       	adc	r31, r1
    1c58:	8c b1       	in	r24, 0x0c	; 12
    1c5a:	80 83       	st	Z, r24
    1c5c:	5d 9b       	sbis	0x0b, 5	; 11
    1c5e:	fe cf       	rjmp	.-4      	; 0x1c5c <auto_mode+0x2a>
    1c60:	80 81       	ld	r24, Z
    1c62:	8c b9       	out	0x0c, r24	; 12
    1c64:	80 81       	ld	r24, Z
    1c66:	8d 30       	cpi	r24, 0x0D	; 13
    1c68:	19 f0       	breq	.+6      	; 0x1c70 <auto_mode+0x3e>
    1c6a:	9f 5f       	subi	r25, 0xFF	; 255
    1c6c:	95 30       	cpi	r25, 0x05	; 5
    1c6e:	78 f3       	brcs	.-34     	; 0x1c4e <auto_mode+0x1c>
    1c70:	5d 9b       	sbis	0x0b, 5	; 11
    1c72:	fe cf       	rjmp	.-4      	; 0x1c70 <auto_mode+0x3e>
    1c74:	8a e0       	ldi	r24, 0x0A	; 10
    1c76:	8c b9       	out	0x0c, r24	; 12
    1c78:	99 23       	and	r25, r25
    1c7a:	09 f4       	brne	.+2      	; 0x1c7e <auto_mode+0x4c>
    1c7c:	6b c0       	rjmp	.+214    	; 0x1d54 <auto_mode+0x122>
    1c7e:	95 30       	cpi	r25, 0x05	; 5
    1c80:	08 f4       	brcc	.+2      	; 0x1c84 <auto_mode+0x52>
    1c82:	32 c0       	rjmp	.+100    	; 0x1ce8 <auto_mode+0xb6>
    1c84:	ef e9       	ldi	r30, 0x9F	; 159
    1c86:	f1 e0       	ldi	r31, 0x01	; 1
    1c88:	84 91       	lpm	r24, Z
    1c8a:	88 23       	and	r24, r24
    1c8c:	69 f0       	breq	.+26     	; 0x1ca8 <auto_mode+0x76>
    1c8e:	90 e0       	ldi	r25, 0x00	; 0
    1c90:	5d 9b       	sbis	0x0b, 5	; 11
    1c92:	fe cf       	rjmp	.-4      	; 0x1c90 <auto_mode+0x5e>
    1c94:	9f 5f       	subi	r25, 0xFF	; 255
    1c96:	84 91       	lpm	r24, Z
    1c98:	8c b9       	out	0x0c, r24	; 12
    1c9a:	e9 2f       	mov	r30, r25
    1c9c:	ff 27       	eor	r31, r31
    1c9e:	e1 56       	subi	r30, 0x61	; 97
    1ca0:	fe 4f       	sbci	r31, 0xFE	; 254
    1ca2:	84 91       	lpm	r24, Z
    1ca4:	88 23       	and	r24, r24
    1ca6:	a1 f7       	brne	.-24     	; 0x1c90 <auto_mode+0x5e>
    1ca8:	80 e0       	ldi	r24, 0x00	; 0
    1caa:	5d 9b       	sbis	0x0b, 5	; 11
    1cac:	fe cf       	rjmp	.-4      	; 0x1caa <auto_mode+0x78>
    1cae:	e8 2f       	mov	r30, r24
    1cb0:	ff 27       	eor	r31, r31
    1cb2:	ea 5b       	subi	r30, 0xBA	; 186
    1cb4:	fc 4f       	sbci	r31, 0xFC	; 252
    1cb6:	e4 91       	lpm	r30, Z
    1cb8:	ec b9       	out	0x0c, r30	; 12
    1cba:	8f 5f       	subi	r24, 0xFF	; 255
    1cbc:	83 30       	cpi	r24, 0x03	; 3
    1cbe:	a8 f3       	brcs	.-22     	; 0x1caa <auto_mode+0x78>
    1cc0:	e7 ec       	ldi	r30, 0xC7	; 199
    1cc2:	f2 e0       	ldi	r31, 0x02	; 2
    1cc4:	84 91       	lpm	r24, Z
    1cc6:	88 23       	and	r24, r24
    1cc8:	09 f4       	brne	.+2      	; 0x1ccc <auto_mode+0x9a>
    1cca:	44 c0       	rjmp	.+136    	; 0x1d54 <auto_mode+0x122>
    1ccc:	90 e0       	ldi	r25, 0x00	; 0
    1cce:	5d 9b       	sbis	0x0b, 5	; 11
    1cd0:	fe cf       	rjmp	.-4      	; 0x1cce <auto_mode+0x9c>
    1cd2:	9f 5f       	subi	r25, 0xFF	; 255
    1cd4:	84 91       	lpm	r24, Z
    1cd6:	8c b9       	out	0x0c, r24	; 12
    1cd8:	e9 2f       	mov	r30, r25
    1cda:	ff 27       	eor	r31, r31
    1cdc:	e9 53       	subi	r30, 0x39	; 57
    1cde:	fd 4f       	sbci	r31, 0xFD	; 253
    1ce0:	84 91       	lpm	r24, Z
    1ce2:	88 23       	and	r24, r24
    1ce4:	a1 f7       	brne	.-24     	; 0x1cce <auto_mode+0x9c>
    1ce6:	36 c0       	rjmp	.+108    	; 0x1d54 <auto_mode+0x122>
    1ce8:	89 2f       	mov	r24, r25
    1cea:	0e 94 be 07 	call	0xf7c	; 0xf7c <parameter_handling>
    1cee:	81 30       	cpi	r24, 0x01	; 1
    1cf0:	09 f0       	breq	.+2      	; 0x1cf4 <auto_mode+0xc2>
    1cf2:	30 c0       	rjmp	.+96     	; 0x1d54 <auto_mode+0x122>
    1cf4:	ef e9       	ldi	r30, 0x9F	; 159
    1cf6:	f1 e0       	ldi	r31, 0x01	; 1
    1cf8:	84 91       	lpm	r24, Z
    1cfa:	88 23       	and	r24, r24
    1cfc:	69 f0       	breq	.+26     	; 0x1d18 <auto_mode+0xe6>
    1cfe:	90 e0       	ldi	r25, 0x00	; 0
    1d00:	5d 9b       	sbis	0x0b, 5	; 11
    1d02:	fe cf       	rjmp	.-4      	; 0x1d00 <auto_mode+0xce>
    1d04:	9f 5f       	subi	r25, 0xFF	; 255
    1d06:	84 91       	lpm	r24, Z
    1d08:	8c b9       	out	0x0c, r24	; 12
    1d0a:	e9 2f       	mov	r30, r25
    1d0c:	ff 27       	eor	r31, r31
    1d0e:	e1 56       	subi	r30, 0x61	; 97
    1d10:	fe 4f       	sbci	r31, 0xFE	; 254
    1d12:	84 91       	lpm	r24, Z
    1d14:	88 23       	and	r24, r24
    1d16:	a1 f7       	brne	.-24     	; 0x1d00 <auto_mode+0xce>
    1d18:	80 e0       	ldi	r24, 0x00	; 0
    1d1a:	5d 9b       	sbis	0x0b, 5	; 11
    1d1c:	fe cf       	rjmp	.-4      	; 0x1d1a <auto_mode+0xe8>
    1d1e:	e8 2f       	mov	r30, r24
    1d20:	ff 27       	eor	r31, r31
    1d22:	e7 5b       	subi	r30, 0xB7	; 183
    1d24:	fc 4f       	sbci	r31, 0xFC	; 252
    1d26:	e4 91       	lpm	r30, Z
    1d28:	ec b9       	out	0x0c, r30	; 12
    1d2a:	8f 5f       	subi	r24, 0xFF	; 255
    1d2c:	83 30       	cpi	r24, 0x03	; 3
    1d2e:	a8 f3       	brcs	.-22     	; 0x1d1a <auto_mode+0xe8>
    1d30:	e4 e0       	ldi	r30, 0x04	; 4
    1d32:	f3 e0       	ldi	r31, 0x03	; 3
    1d34:	84 91       	lpm	r24, Z
    1d36:	88 23       	and	r24, r24
    1d38:	69 f0       	breq	.+26     	; 0x1d54 <auto_mode+0x122>
    1d3a:	90 e0       	ldi	r25, 0x00	; 0
    1d3c:	5d 9b       	sbis	0x0b, 5	; 11
    1d3e:	fe cf       	rjmp	.-4      	; 0x1d3c <auto_mode+0x10a>
    1d40:	9f 5f       	subi	r25, 0xFF	; 255
    1d42:	84 91       	lpm	r24, Z
    1d44:	8c b9       	out	0x0c, r24	; 12
    1d46:	e9 2f       	mov	r30, r25
    1d48:	ff 27       	eor	r31, r31
    1d4a:	ec 5f       	subi	r30, 0xFC	; 252
    1d4c:	fc 4f       	sbci	r31, 0xFC	; 252
    1d4e:	84 91       	lpm	r24, Z
    1d50:	88 23       	and	r24, r24
    1d52:	a1 f7       	brne	.-24     	; 0x1d3c <auto_mode+0x10a>
    1d54:	85 b7       	in	r24, 0x35	; 53
    1d56:	80 64       	ori	r24, 0x40	; 64
    1d58:	85 bf       	out	0x35, r24	; 53
    1d5a:	85 b7       	in	r24, 0x35	; 53
    1d5c:	8f 74       	andi	r24, 0x4F	; 79
    1d5e:	85 bf       	out	0x35, r24	; 53
    1d60:	85 b7       	in	r24, 0x35	; 53
    1d62:	80 64       	ori	r24, 0x40	; 64
    1d64:	85 bf       	out	0x35, r24	; 53
    1d66:	88 95       	sleep
    1d68:	85 b7       	in	r24, 0x35	; 53
    1d6a:	8f 7b       	andi	r24, 0xBF	; 191
    1d6c:	85 bf       	out	0x35, r24	; 53
    1d6e:	25 96       	adiw	r28, 0x05	; 5
    1d70:	0f b6       	in	r0, 0x3f	; 63
    1d72:	f8 94       	cli
    1d74:	de bf       	out	0x3e, r29	; 62
    1d76:	0f be       	out	0x3f, r0	; 63
    1d78:	cd bf       	out	0x3d, r28	; 61
    1d7a:	df 91       	pop	r29
    1d7c:	cf 91       	pop	r28
    1d7e:	08 95       	ret

00001d80 <main>:
    1d80:	c1 e5       	ldi	r28, 0x51	; 81
    1d82:	d4 e0       	ldi	r29, 0x04	; 4
    1d84:	de bf       	out	0x3e, r29	; 62
    1d86:	cd bf       	out	0x3d, r28	; 61
    1d88:	85 b5       	in	r24, 0x25	; 37
    1d8a:	8e 60       	ori	r24, 0x0E	; 14
    1d8c:	85 bd       	out	0x25, r24	; 37
    1d8e:	89 b7       	in	r24, 0x39	; 57
    1d90:	80 68       	ori	r24, 0x80	; 128
    1d92:	89 bf       	out	0x39, r24	; 57
    1d94:	8a ef       	ldi	r24, 0xFA	; 250
    1d96:	83 bd       	out	0x23, r24	; 35
    1d98:	8a b3       	in	r24, 0x1a	; 26
    1d9a:	80 6f       	ori	r24, 0xF0	; 240
    1d9c:	8a bb       	out	0x1a, r24	; 26
    1d9e:	bb 9a       	sbi	0x17, 3	; 23
    1da0:	83 b7       	in	r24, 0x33	; 51
    1da2:	89 66       	ori	r24, 0x69	; 105
    1da4:	83 bf       	out	0x33, r24	; 51
    1da6:	1c be       	out	0x3c, r1	; 60
    1da8:	87 b1       	in	r24, 0x07	; 7
    1daa:	81 62       	ori	r24, 0x21	; 33
    1dac:	87 b9       	out	0x07, r24	; 7
    1dae:	86 b1       	in	r24, 0x06	; 6
    1db0:	87 60       	ori	r24, 0x07	; 7
    1db2:	86 b9       	out	0x06, r24	; 6
    1db4:	37 9a       	sbi	0x06, 7	; 6
    1db6:	a8 9a       	sbi	0x15, 0	; 21
    1db8:	85 b3       	in	r24, 0x15	; 21
    1dba:	a0 9a       	sbi	0x14, 0	; 20
    1dbc:	84 b3       	in	r24, 0x14	; 20
    1dbe:	10 bc       	out	0x20, r1	; 32
    1dc0:	88 e1       	ldi	r24, 0x18	; 24
    1dc2:	89 b9       	out	0x09, r24	; 9
    1dc4:	80 b5       	in	r24, 0x20	; 32
    1dc6:	8e 68       	ori	r24, 0x8E	; 142
    1dc8:	80 bd       	out	0x20, r24	; 32
    1dca:	8a b1       	in	r24, 0x0a	; 10
    1dcc:	88 61       	ori	r24, 0x18	; 24
    1dce:	8a b9       	out	0x0a, r24	; 10
    1dd0:	78 94       	sei
    1dd2:	30 91 68 00 	lds	r19, 0x0068
    1dd6:	8e 01       	movw	r16, r28
    1dd8:	0f 5f       	subi	r16, 0xFF	; 255
    1dda:	1f 4f       	sbci	r17, 0xFF	; 255
    1ddc:	bc e5       	ldi	r27, 0x5C	; 92
    1dde:	eb 2e       	mov	r14, r27
    1de0:	b1 e0       	ldi	r27, 0x01	; 1
    1de2:	fb 2e       	mov	r15, r27
    1de4:	f7 01       	movw	r30, r14
    1de6:	d4 90       	lpm	r13, Z
    1de8:	af e9       	ldi	r26, 0x9F	; 159
    1dea:	aa 2e       	mov	r10, r26
    1dec:	a1 e0       	ldi	r26, 0x01	; 1
    1dee:	ba 2e       	mov	r11, r26
    1df0:	f5 01       	movw	r30, r10
    1df2:	c4 90       	lpm	r12, Z
    1df4:	f4 e0       	ldi	r31, 0x04	; 4
    1df6:	8f 2e       	mov	r8, r31
    1df8:	f3 e0       	ldi	r31, 0x03	; 3
    1dfa:	9f 2e       	mov	r9, r31
    1dfc:	f4 01       	movw	r30, r8
    1dfe:	74 90       	lpm	r7, Z
    1e00:	6c 2c       	mov	r6, r12
    1e02:	e7 ec       	ldi	r30, 0xC7	; 199
    1e04:	4e 2e       	mov	r4, r30
    1e06:	e2 e0       	ldi	r30, 0x02	; 2
    1e08:	5e 2e       	mov	r5, r30
    1e0a:	f2 01       	movw	r30, r4
    1e0c:	34 90       	lpm	r3, Z
    1e0e:	ec eb       	ldi	r30, 0xBC	; 188
    1e10:	f0 e0       	ldi	r31, 0x00	; 0
    1e12:	24 90       	lpm	r2, Z
    1e14:	ce 82       	std	Y+6, r12	; 0x06
    1e16:	7f 82       	std	Y+7, r7	; 0x07
    1e18:	c8 86       	std	Y+8, r12	; 0x08
    1e1a:	39 86       	std	Y+9, r3	; 0x09
    1e1c:	eb e1       	ldi	r30, 0x1B	; 27
    1e1e:	f1 e0       	ldi	r31, 0x01	; 1
    1e20:	f4 91       	lpm	r31, Z
    1e22:	fa 87       	std	Y+10, r31	; 0x0a
    1e24:	cb 86       	std	Y+11, r12	; 0x0b
    1e26:	7c 86       	std	Y+12, r7	; 0x0c
    1e28:	cd 86       	std	Y+13, r12	; 0x0d
    1e2a:	3e 86       	std	Y+14, r3	; 0x0e
    1e2c:	32 30       	cpi	r19, 0x02	; 2
    1e2e:	09 f4       	brne	.+2      	; 0x1e32 <main+0xb2>
    1e30:	70 c0       	rjmp	.+224    	; 0x1f12 <main+0x192>
    1e32:	33 30       	cpi	r19, 0x03	; 3
    1e34:	08 f0       	brcs	.+2      	; 0x1e38 <main+0xb8>
    1e36:	d9 c0       	rjmp	.+434    	; 0x1fea <main+0x26a>
    1e38:	33 23       	and	r19, r19
    1e3a:	09 f4       	brne	.+2      	; 0x1e3e <main+0xbe>
    1e3c:	46 c1       	rjmp	.+652    	; 0x20ca <main+0x34a>
    1e3e:	31 30       	cpi	r19, 0x01	; 1
    1e40:	a9 f7       	brne	.-22     	; 0x1e2c <main+0xac>
    1e42:	5f 99       	sbic	0x0b, 7	; 11
    1e44:	42 c2       	rjmp	.+1156   	; 0x22ca <main+0x54a>
    1e46:	90 91 6a 00 	lds	r25, 0x006A
    1e4a:	83 e0       	ldi	r24, 0x03	; 3
    1e4c:	98 9f       	mul	r25, r24
    1e4e:	c0 01       	movw	r24, r0
    1e50:	11 24       	eor	r1, r1
    1e52:	89 5c       	subi	r24, 0xC9	; 201
    1e54:	9c 4f       	sbci	r25, 0xFC	; 252
    1e56:	20 e0       	ldi	r18, 0x00	; 0
    1e58:	5d 9b       	sbis	0x0b, 5	; 11
    1e5a:	fe cf       	rjmp	.-4      	; 0x1e58 <main+0xd8>
    1e5c:	fc 01       	movw	r30, r24
    1e5e:	e2 0f       	add	r30, r18
    1e60:	f1 1d       	adc	r31, r1
    1e62:	e4 91       	lpm	r30, Z
    1e64:	ec b9       	out	0x0c, r30	; 12
    1e66:	2f 5f       	subi	r18, 0xFF	; 255
    1e68:	23 30       	cpi	r18, 0x03	; 3
    1e6a:	b0 f3       	brcs	.-20     	; 0x1e58 <main+0xd8>
    1e6c:	90 91 6b 00 	lds	r25, 0x006B
    1e70:	9f 5f       	subi	r25, 0xFF	; 255
    1e72:	90 93 6b 00 	sts	0x006B, r25
    1e76:	5d 9b       	sbis	0x0b, 5	; 11
    1e78:	fe cf       	rjmp	.-4      	; 0x1e76 <main+0xf6>
    1e7a:	8b e3       	ldi	r24, 0x3B	; 59
    1e7c:	8c b9       	out	0x0c, r24	; 12
    1e7e:	83 e0       	ldi	r24, 0x03	; 3
    1e80:	98 9f       	mul	r25, r24
    1e82:	c0 01       	movw	r24, r0
    1e84:	11 24       	eor	r1, r1
    1e86:	89 5c       	subi	r24, 0xC9	; 201
    1e88:	9c 4f       	sbci	r25, 0xFC	; 252
    1e8a:	20 e0       	ldi	r18, 0x00	; 0
    1e8c:	5d 9b       	sbis	0x0b, 5	; 11
    1e8e:	fe cf       	rjmp	.-4      	; 0x1e8c <main+0x10c>
    1e90:	fc 01       	movw	r30, r24
    1e92:	e2 0f       	add	r30, r18
    1e94:	f1 1d       	adc	r31, r1
    1e96:	e4 91       	lpm	r30, Z
    1e98:	ec b9       	out	0x0c, r30	; 12
    1e9a:	2f 5f       	subi	r18, 0xFF	; 255
    1e9c:	23 30       	cpi	r18, 0x03	; 3
    1e9e:	b0 f3       	brcs	.-20     	; 0x1e8c <main+0x10c>
    1ea0:	5d 9b       	sbis	0x0b, 5	; 11
    1ea2:	fe cf       	rjmp	.-4      	; 0x1ea0 <main+0x120>
    1ea4:	8b e3       	ldi	r24, 0x3B	; 59
    1ea6:	8c b9       	out	0x0c, r24	; 12
    1ea8:	90 91 d3 00 	lds	r25, 0x00D3
    1eac:	83 e0       	ldi	r24, 0x03	; 3
    1eae:	98 9f       	mul	r25, r24
    1eb0:	c0 01       	movw	r24, r0
    1eb2:	11 24       	eor	r1, r1
    1eb4:	89 5c       	subi	r24, 0xC9	; 201
    1eb6:	9c 4f       	sbci	r25, 0xFC	; 252
    1eb8:	20 e0       	ldi	r18, 0x00	; 0
    1eba:	5d 9b       	sbis	0x0b, 5	; 11
    1ebc:	fe cf       	rjmp	.-4      	; 0x1eba <main+0x13a>
    1ebe:	fc 01       	movw	r30, r24
    1ec0:	e2 0f       	add	r30, r18
    1ec2:	f1 1d       	adc	r31, r1
    1ec4:	e4 91       	lpm	r30, Z
    1ec6:	ec b9       	out	0x0c, r30	; 12
    1ec8:	2f 5f       	subi	r18, 0xFF	; 255
    1eca:	23 30       	cpi	r18, 0x03	; 3
    1ecc:	b0 f3       	brcs	.-20     	; 0x1eba <main+0x13a>
    1ece:	5d 9b       	sbis	0x0b, 5	; 11
    1ed0:	fe cf       	rjmp	.-4      	; 0x1ece <main+0x14e>
    1ed2:	8b e3       	ldi	r24, 0x3B	; 59
    1ed4:	8c b9       	out	0x0c, r24	; 12
    1ed6:	90 91 d2 00 	lds	r25, 0x00D2
    1eda:	83 e0       	ldi	r24, 0x03	; 3
    1edc:	98 9f       	mul	r25, r24
    1ede:	c0 01       	movw	r24, r0
    1ee0:	11 24       	eor	r1, r1
    1ee2:	89 5c       	subi	r24, 0xC9	; 201
    1ee4:	9c 4f       	sbci	r25, 0xFC	; 252
    1ee6:	20 e0       	ldi	r18, 0x00	; 0
    1ee8:	5d 9b       	sbis	0x0b, 5	; 11
    1eea:	fe cf       	rjmp	.-4      	; 0x1ee8 <main+0x168>
    1eec:	fc 01       	movw	r30, r24
    1eee:	e2 0f       	add	r30, r18
    1ef0:	f1 1d       	adc	r31, r1
    1ef2:	e4 91       	lpm	r30, Z
    1ef4:	ec b9       	out	0x0c, r30	; 12
    1ef6:	2f 5f       	subi	r18, 0xFF	; 255
    1ef8:	23 30       	cpi	r18, 0x03	; 3
    1efa:	b0 f3       	brcs	.-20     	; 0x1ee8 <main+0x168>
    1efc:	5d 9b       	sbis	0x0b, 5	; 11
    1efe:	fe cf       	rjmp	.-4      	; 0x1efc <main+0x17c>
    1f00:	8d e0       	ldi	r24, 0x0D	; 13
    1f02:	8c b9       	out	0x0c, r24	; 12
    1f04:	5d 9b       	sbis	0x0b, 5	; 11
    1f06:	fe cf       	rjmp	.-4      	; 0x1f04 <main+0x184>
    1f08:	8a e0       	ldi	r24, 0x0A	; 10
    1f0a:	8c b9       	out	0x0c, r24	; 12
    1f0c:	32 30       	cpi	r19, 0x02	; 2
    1f0e:	09 f0       	breq	.+2      	; 0x1f12 <main+0x192>
    1f10:	90 cf       	rjmp	.-224    	; 0x1e32 <main+0xb2>
    1f12:	eb e1       	ldi	r30, 0x1B	; 27
    1f14:	f1 e0       	ldi	r31, 0x01	; 1
    1f16:	8a 85       	ldd	r24, Y+10	; 0x0a
    1f18:	88 23       	and	r24, r24
    1f1a:	69 f0       	breq	.+26     	; 0x1f36 <main+0x1b6>
    1f1c:	90 e0       	ldi	r25, 0x00	; 0
    1f1e:	5d 9b       	sbis	0x0b, 5	; 11
    1f20:	fe cf       	rjmp	.-4      	; 0x1f1e <main+0x19e>
    1f22:	9f 5f       	subi	r25, 0xFF	; 255
    1f24:	84 91       	lpm	r24, Z
    1f26:	8c b9       	out	0x0c, r24	; 12
    1f28:	e9 2f       	mov	r30, r25
    1f2a:	ff 27       	eor	r31, r31
    1f2c:	e5 5e       	subi	r30, 0xE5	; 229
    1f2e:	fe 4f       	sbci	r31, 0xFE	; 254
    1f30:	84 91       	lpm	r24, Z
    1f32:	88 23       	and	r24, r24
    1f34:	a1 f7       	brne	.-24     	; 0x1f1e <main+0x19e>
    1f36:	90 e0       	ldi	r25, 0x00	; 0
    1f38:	5f 9b       	sbis	0x0b, 7	; 11
    1f3a:	fe cf       	rjmp	.-4      	; 0x1f38 <main+0x1b8>
    1f3c:	f8 01       	movw	r30, r16
    1f3e:	e9 0f       	add	r30, r25
    1f40:	f1 1d       	adc	r31, r1
    1f42:	8c b1       	in	r24, 0x0c	; 12
    1f44:	80 83       	st	Z, r24
    1f46:	5d 9b       	sbis	0x0b, 5	; 11
    1f48:	fe cf       	rjmp	.-4      	; 0x1f46 <main+0x1c6>
    1f4a:	80 81       	ld	r24, Z
    1f4c:	8c b9       	out	0x0c, r24	; 12
    1f4e:	80 81       	ld	r24, Z
    1f50:	8d 30       	cpi	r24, 0x0D	; 13
    1f52:	19 f0       	breq	.+6      	; 0x1f5a <main+0x1da>
    1f54:	9f 5f       	subi	r25, 0xFF	; 255
    1f56:	95 30       	cpi	r25, 0x05	; 5
    1f58:	78 f3       	brcs	.-34     	; 0x1f38 <main+0x1b8>
    1f5a:	5d 9b       	sbis	0x0b, 5	; 11
    1f5c:	fe cf       	rjmp	.-4      	; 0x1f5a <main+0x1da>
    1f5e:	8a e0       	ldi	r24, 0x0A	; 10
    1f60:	8c b9       	out	0x0c, r24	; 12
    1f62:	99 23       	and	r25, r25
    1f64:	09 f4       	brne	.+2      	; 0x1f68 <main+0x1e8>
    1f66:	31 c0       	rjmp	.+98     	; 0x1fca <main+0x24a>
    1f68:	95 30       	cpi	r25, 0x05	; 5
    1f6a:	08 f4       	brcc	.+2      	; 0x1f6e <main+0x1ee>
    1f6c:	42 c1       	rjmp	.+644    	; 0x21f2 <main+0x472>
    1f6e:	f5 01       	movw	r30, r10
    1f70:	8d 85       	ldd	r24, Y+13	; 0x0d
    1f72:	88 23       	and	r24, r24
    1f74:	69 f0       	breq	.+26     	; 0x1f90 <main+0x210>
    1f76:	90 e0       	ldi	r25, 0x00	; 0
    1f78:	5d 9b       	sbis	0x0b, 5	; 11
    1f7a:	fe cf       	rjmp	.-4      	; 0x1f78 <main+0x1f8>
    1f7c:	9f 5f       	subi	r25, 0xFF	; 255
    1f7e:	84 91       	lpm	r24, Z
    1f80:	8c b9       	out	0x0c, r24	; 12
    1f82:	e9 2f       	mov	r30, r25
    1f84:	ff 27       	eor	r31, r31
    1f86:	e1 56       	subi	r30, 0x61	; 97
    1f88:	fe 4f       	sbci	r31, 0xFE	; 254
    1f8a:	84 91       	lpm	r24, Z
    1f8c:	88 23       	and	r24, r24
    1f8e:	a1 f7       	brne	.-24     	; 0x1f78 <main+0x1f8>
    1f90:	80 e0       	ldi	r24, 0x00	; 0
    1f92:	5d 9b       	sbis	0x0b, 5	; 11
    1f94:	fe cf       	rjmp	.-4      	; 0x1f92 <main+0x212>
    1f96:	e8 2f       	mov	r30, r24
    1f98:	ff 27       	eor	r31, r31
    1f9a:	ea 5b       	subi	r30, 0xBA	; 186
    1f9c:	fc 4f       	sbci	r31, 0xFC	; 252
    1f9e:	e4 91       	lpm	r30, Z
    1fa0:	ec b9       	out	0x0c, r30	; 12
    1fa2:	8f 5f       	subi	r24, 0xFF	; 255
    1fa4:	83 30       	cpi	r24, 0x03	; 3
    1fa6:	a8 f3       	brcs	.-22     	; 0x1f92 <main+0x212>
    1fa8:	f2 01       	movw	r30, r4
    1faa:	8e 85       	ldd	r24, Y+14	; 0x0e
    1fac:	88 23       	and	r24, r24
    1fae:	69 f0       	breq	.+26     	; 0x1fca <main+0x24a>
    1fb0:	90 e0       	ldi	r25, 0x00	; 0
    1fb2:	5d 9b       	sbis	0x0b, 5	; 11
    1fb4:	fe cf       	rjmp	.-4      	; 0x1fb2 <main+0x232>
    1fb6:	9f 5f       	subi	r25, 0xFF	; 255
    1fb8:	84 91       	lpm	r24, Z
    1fba:	8c b9       	out	0x0c, r24	; 12
    1fbc:	e9 2f       	mov	r30, r25
    1fbe:	ff 27       	eor	r31, r31
    1fc0:	e9 53       	subi	r30, 0x39	; 57
    1fc2:	fd 4f       	sbci	r31, 0xFD	; 253
    1fc4:	84 91       	lpm	r24, Z
    1fc6:	88 23       	and	r24, r24
    1fc8:	a1 f7       	brne	.-24     	; 0x1fb2 <main+0x232>
    1fca:	85 b7       	in	r24, 0x35	; 53
    1fcc:	80 64       	ori	r24, 0x40	; 64
    1fce:	85 bf       	out	0x35, r24	; 53
    1fd0:	85 b7       	in	r24, 0x35	; 53
    1fd2:	8f 74       	andi	r24, 0x4F	; 79
    1fd4:	85 bf       	out	0x35, r24	; 53
    1fd6:	85 b7       	in	r24, 0x35	; 53
    1fd8:	80 64       	ori	r24, 0x40	; 64
    1fda:	85 bf       	out	0x35, r24	; 53
    1fdc:	88 95       	sleep
    1fde:	85 b7       	in	r24, 0x35	; 53
    1fe0:	8f 7b       	andi	r24, 0xBF	; 191
    1fe2:	85 bf       	out	0x35, r24	; 53
    1fe4:	30 91 68 00 	lds	r19, 0x0068
    1fe8:	21 cf       	rjmp	.-446    	; 0x1e2c <main+0xac>
    1fea:	33 30       	cpi	r19, 0x03	; 3
    1fec:	09 f4       	brne	.+2      	; 0x1ff0 <main+0x270>
    1fee:	5d c0       	rjmp	.+186    	; 0x20aa <main+0x32a>
    1ff0:	34 30       	cpi	r19, 0x04	; 4
    1ff2:	09 f0       	breq	.+2      	; 0x1ff6 <main+0x276>
    1ff4:	1b cf       	rjmp	.-458    	; 0x1e2c <main+0xac>
    1ff6:	f7 01       	movw	r30, r14
    1ff8:	dd 20       	and	r13, r13
    1ffa:	69 f0       	breq	.+26     	; 0x2016 <main+0x296>
    1ffc:	90 e0       	ldi	r25, 0x00	; 0
    1ffe:	5d 9b       	sbis	0x0b, 5	; 11
    2000:	fe cf       	rjmp	.-4      	; 0x1ffe <main+0x27e>
    2002:	9f 5f       	subi	r25, 0xFF	; 255
    2004:	84 91       	lpm	r24, Z
    2006:	8c b9       	out	0x0c, r24	; 12
    2008:	e9 2f       	mov	r30, r25
    200a:	ff 27       	eor	r31, r31
    200c:	e4 5a       	subi	r30, 0xA4	; 164
    200e:	fe 4f       	sbci	r31, 0xFE	; 254
    2010:	84 91       	lpm	r24, Z
    2012:	88 23       	and	r24, r24
    2014:	a1 f7       	brne	.-24     	; 0x1ffe <main+0x27e>
    2016:	90 e0       	ldi	r25, 0x00	; 0
    2018:	5f 9b       	sbis	0x0b, 7	; 11
    201a:	fe cf       	rjmp	.-4      	; 0x2018 <main+0x298>
    201c:	f8 01       	movw	r30, r16
    201e:	e9 0f       	add	r30, r25
    2020:	f1 1d       	adc	r31, r1
    2022:	8c b1       	in	r24, 0x0c	; 12
    2024:	80 83       	st	Z, r24
    2026:	5d 9b       	sbis	0x0b, 5	; 11
    2028:	fe cf       	rjmp	.-4      	; 0x2026 <main+0x2a6>
    202a:	80 81       	ld	r24, Z
    202c:	8c b9       	out	0x0c, r24	; 12
    202e:	80 81       	ld	r24, Z
    2030:	8d 30       	cpi	r24, 0x0D	; 13
    2032:	19 f0       	breq	.+6      	; 0x203a <main+0x2ba>
    2034:	9f 5f       	subi	r25, 0xFF	; 255
    2036:	95 30       	cpi	r25, 0x05	; 5
    2038:	78 f3       	brcs	.-34     	; 0x2018 <main+0x298>
    203a:	5d 9b       	sbis	0x0b, 5	; 11
    203c:	fe cf       	rjmp	.-4      	; 0x203a <main+0x2ba>
    203e:	8a e0       	ldi	r24, 0x0A	; 10
    2040:	8c b9       	out	0x0c, r24	; 12
    2042:	99 23       	and	r25, r25
    2044:	09 f4       	brne	.+2      	; 0x2048 <main+0x2c8>
    2046:	c1 cf       	rjmp	.-126    	; 0x1fca <main+0x24a>
    2048:	95 30       	cpi	r25, 0x05	; 5
    204a:	08 f4       	brcc	.+2      	; 0x204e <main+0x2ce>
    204c:	09 c1       	rjmp	.+530    	; 0x2260 <main+0x4e0>
    204e:	f5 01       	movw	r30, r10
    2050:	66 20       	and	r6, r6
    2052:	69 f0       	breq	.+26     	; 0x206e <main+0x2ee>
    2054:	90 e0       	ldi	r25, 0x00	; 0
    2056:	5d 9b       	sbis	0x0b, 5	; 11
    2058:	fe cf       	rjmp	.-4      	; 0x2056 <main+0x2d6>
    205a:	9f 5f       	subi	r25, 0xFF	; 255
    205c:	84 91       	lpm	r24, Z
    205e:	8c b9       	out	0x0c, r24	; 12
    2060:	e9 2f       	mov	r30, r25
    2062:	ff 27       	eor	r31, r31
    2064:	e1 56       	subi	r30, 0x61	; 97
    2066:	fe 4f       	sbci	r31, 0xFE	; 254
    2068:	84 91       	lpm	r24, Z
    206a:	88 23       	and	r24, r24
    206c:	a1 f7       	brne	.-24     	; 0x2056 <main+0x2d6>
    206e:	80 e0       	ldi	r24, 0x00	; 0
    2070:	5d 9b       	sbis	0x0b, 5	; 11
    2072:	fe cf       	rjmp	.-4      	; 0x2070 <main+0x2f0>
    2074:	e8 2f       	mov	r30, r24
    2076:	ff 27       	eor	r31, r31
    2078:	ea 5b       	subi	r30, 0xBA	; 186
    207a:	fc 4f       	sbci	r31, 0xFC	; 252
    207c:	e4 91       	lpm	r30, Z
    207e:	ec b9       	out	0x0c, r30	; 12
    2080:	8f 5f       	subi	r24, 0xFF	; 255
    2082:	83 30       	cpi	r24, 0x03	; 3
    2084:	a8 f3       	brcs	.-22     	; 0x2070 <main+0x2f0>
    2086:	f2 01       	movw	r30, r4
    2088:	33 20       	and	r3, r3
    208a:	09 f4       	brne	.+2      	; 0x208e <main+0x30e>
    208c:	9e cf       	rjmp	.-196    	; 0x1fca <main+0x24a>
    208e:	90 e0       	ldi	r25, 0x00	; 0
    2090:	5d 9b       	sbis	0x0b, 5	; 11
    2092:	fe cf       	rjmp	.-4      	; 0x2090 <main+0x310>
    2094:	9f 5f       	subi	r25, 0xFF	; 255
    2096:	84 91       	lpm	r24, Z
    2098:	8c b9       	out	0x0c, r24	; 12
    209a:	e9 2f       	mov	r30, r25
    209c:	ff 27       	eor	r31, r31
    209e:	e9 53       	subi	r30, 0x39	; 57
    20a0:	fd 4f       	sbci	r31, 0xFD	; 253
    20a2:	84 91       	lpm	r24, Z
    20a4:	88 23       	and	r24, r24
    20a6:	a1 f7       	brne	.-24     	; 0x2090 <main+0x310>
    20a8:	90 cf       	rjmp	.-224    	; 0x1fca <main+0x24a>
    20aa:	5f 99       	sbic	0x0b, 7	; 11
    20ac:	17 c1       	rjmp	.+558    	; 0x22dc <main+0x55c>
    20ae:	85 b7       	in	r24, 0x35	; 53
    20b0:	80 64       	ori	r24, 0x40	; 64
    20b2:	85 bf       	out	0x35, r24	; 53
    20b4:	85 b7       	in	r24, 0x35	; 53
    20b6:	8f 74       	andi	r24, 0x4F	; 79
    20b8:	85 bf       	out	0x35, r24	; 53
    20ba:	85 b7       	in	r24, 0x35	; 53
    20bc:	80 64       	ori	r24, 0x40	; 64
    20be:	85 bf       	out	0x35, r24	; 53
    20c0:	88 95       	sleep
    20c2:	85 b7       	in	r24, 0x35	; 53
    20c4:	8f 7b       	andi	r24, 0xBF	; 191
    20c6:	85 bf       	out	0x35, r24	; 53
    20c8:	b1 ce       	rjmp	.-670    	; 0x1e2c <main+0xac>
    20ca:	ec eb       	ldi	r30, 0xBC	; 188
    20cc:	f0 e0       	ldi	r31, 0x00	; 0
    20ce:	22 20       	and	r2, r2
    20d0:	69 f0       	breq	.+26     	; 0x20ec <main+0x36c>
    20d2:	90 e0       	ldi	r25, 0x00	; 0
    20d4:	5d 9b       	sbis	0x0b, 5	; 11
    20d6:	fe cf       	rjmp	.-4      	; 0x20d4 <main+0x354>
    20d8:	9f 5f       	subi	r25, 0xFF	; 255
    20da:	84 91       	lpm	r24, Z
    20dc:	8c b9       	out	0x0c, r24	; 12
    20de:	e9 2f       	mov	r30, r25
    20e0:	ff 27       	eor	r31, r31
    20e2:	e4 54       	subi	r30, 0x44	; 68
    20e4:	ff 4f       	sbci	r31, 0xFF	; 255
    20e6:	84 91       	lpm	r24, Z
    20e8:	88 23       	and	r24, r24
    20ea:	a1 f7       	brne	.-24     	; 0x20d4 <main+0x354>
    20ec:	90 e0       	ldi	r25, 0x00	; 0
    20ee:	5f 9b       	sbis	0x0b, 7	; 11
    20f0:	fe cf       	rjmp	.-4      	; 0x20ee <main+0x36e>
    20f2:	f8 01       	movw	r30, r16
    20f4:	e9 0f       	add	r30, r25
    20f6:	f1 1d       	adc	r31, r1
    20f8:	8c b1       	in	r24, 0x0c	; 12
    20fa:	80 83       	st	Z, r24
    20fc:	5d 9b       	sbis	0x0b, 5	; 11
    20fe:	fe cf       	rjmp	.-4      	; 0x20fc <main+0x37c>
    2100:	80 81       	ld	r24, Z
    2102:	8c b9       	out	0x0c, r24	; 12
    2104:	80 81       	ld	r24, Z
    2106:	8d 30       	cpi	r24, 0x0D	; 13
    2108:	19 f0       	breq	.+6      	; 0x2110 <main+0x390>
    210a:	9f 5f       	subi	r25, 0xFF	; 255
    210c:	95 30       	cpi	r25, 0x05	; 5
    210e:	78 f3       	brcs	.-34     	; 0x20ee <main+0x36e>
    2110:	5d 9b       	sbis	0x0b, 5	; 11
    2112:	fe cf       	rjmp	.-4      	; 0x2110 <main+0x390>
    2114:	8a e0       	ldi	r24, 0x0A	; 10
    2116:	8c b9       	out	0x0c, r24	; 12
    2118:	99 23       	and	r25, r25
    211a:	09 f4       	brne	.+2      	; 0x211e <main+0x39e>
    211c:	56 cf       	rjmp	.-340    	; 0x1fca <main+0x24a>
    211e:	95 30       	cpi	r25, 0x05	; 5
    2120:	08 f4       	brcc	.+2      	; 0x2124 <main+0x3a4>
    2122:	30 c0       	rjmp	.+96     	; 0x2184 <main+0x404>
    2124:	f5 01       	movw	r30, r10
    2126:	88 85       	ldd	r24, Y+8	; 0x08
    2128:	88 23       	and	r24, r24
    212a:	69 f0       	breq	.+26     	; 0x2146 <main+0x3c6>
    212c:	90 e0       	ldi	r25, 0x00	; 0
    212e:	5d 9b       	sbis	0x0b, 5	; 11
    2130:	fe cf       	rjmp	.-4      	; 0x212e <main+0x3ae>
    2132:	9f 5f       	subi	r25, 0xFF	; 255
    2134:	84 91       	lpm	r24, Z
    2136:	8c b9       	out	0x0c, r24	; 12
    2138:	e9 2f       	mov	r30, r25
    213a:	ff 27       	eor	r31, r31
    213c:	e1 56       	subi	r30, 0x61	; 97
    213e:	fe 4f       	sbci	r31, 0xFE	; 254
    2140:	84 91       	lpm	r24, Z
    2142:	88 23       	and	r24, r24
    2144:	a1 f7       	brne	.-24     	; 0x212e <main+0x3ae>
    2146:	80 e0       	ldi	r24, 0x00	; 0
    2148:	5d 9b       	sbis	0x0b, 5	; 11
    214a:	fe cf       	rjmp	.-4      	; 0x2148 <main+0x3c8>
    214c:	e8 2f       	mov	r30, r24
    214e:	ff 27       	eor	r31, r31
    2150:	ea 5b       	subi	r30, 0xBA	; 186
    2152:	fc 4f       	sbci	r31, 0xFC	; 252
    2154:	e4 91       	lpm	r30, Z
    2156:	ec b9       	out	0x0c, r30	; 12
    2158:	8f 5f       	subi	r24, 0xFF	; 255
    215a:	83 30       	cpi	r24, 0x03	; 3
    215c:	a8 f3       	brcs	.-22     	; 0x2148 <main+0x3c8>
    215e:	f2 01       	movw	r30, r4
    2160:	89 85       	ldd	r24, Y+9	; 0x09
    2162:	88 23       	and	r24, r24
    2164:	09 f4       	brne	.+2      	; 0x2168 <main+0x3e8>
    2166:	31 cf       	rjmp	.-414    	; 0x1fca <main+0x24a>
    2168:	90 e0       	ldi	r25, 0x00	; 0
    216a:	5d 9b       	sbis	0x0b, 5	; 11
    216c:	fe cf       	rjmp	.-4      	; 0x216a <main+0x3ea>
    216e:	9f 5f       	subi	r25, 0xFF	; 255
    2170:	84 91       	lpm	r24, Z
    2172:	8c b9       	out	0x0c, r24	; 12
    2174:	e9 2f       	mov	r30, r25
    2176:	ff 27       	eor	r31, r31
    2178:	e9 53       	subi	r30, 0x39	; 57
    217a:	fd 4f       	sbci	r31, 0xFD	; 253
    217c:	84 91       	lpm	r24, Z
    217e:	88 23       	and	r24, r24
    2180:	a1 f7       	brne	.-24     	; 0x216a <main+0x3ea>
    2182:	23 cf       	rjmp	.-442    	; 0x1fca <main+0x24a>
    2184:	b8 01       	movw	r22, r16
    2186:	89 2f       	mov	r24, r25
    2188:	0e 94 be 07 	call	0xf7c	; 0xf7c <parameter_handling>
    218c:	81 30       	cpi	r24, 0x01	; 1
    218e:	09 f0       	breq	.+2      	; 0x2192 <main+0x412>
    2190:	1c cf       	rjmp	.-456    	; 0x1fca <main+0x24a>
    2192:	f5 01       	movw	r30, r10
    2194:	8e 81       	ldd	r24, Y+6	; 0x06
    2196:	88 23       	and	r24, r24
    2198:	69 f0       	breq	.+26     	; 0x21b4 <main+0x434>
    219a:	90 e0       	ldi	r25, 0x00	; 0
    219c:	5d 9b       	sbis	0x0b, 5	; 11
    219e:	fe cf       	rjmp	.-4      	; 0x219c <main+0x41c>
    21a0:	9f 5f       	subi	r25, 0xFF	; 255
    21a2:	84 91       	lpm	r24, Z
    21a4:	8c b9       	out	0x0c, r24	; 12
    21a6:	e9 2f       	mov	r30, r25
    21a8:	ff 27       	eor	r31, r31
    21aa:	e1 56       	subi	r30, 0x61	; 97
    21ac:	fe 4f       	sbci	r31, 0xFE	; 254
    21ae:	84 91       	lpm	r24, Z
    21b0:	88 23       	and	r24, r24
    21b2:	a1 f7       	brne	.-24     	; 0x219c <main+0x41c>
    21b4:	80 e0       	ldi	r24, 0x00	; 0
    21b6:	5d 9b       	sbis	0x0b, 5	; 11
    21b8:	fe cf       	rjmp	.-4      	; 0x21b6 <main+0x436>
    21ba:	e8 2f       	mov	r30, r24
    21bc:	ff 27       	eor	r31, r31
    21be:	e7 5b       	subi	r30, 0xB7	; 183
    21c0:	fc 4f       	sbci	r31, 0xFC	; 252
    21c2:	e4 91       	lpm	r30, Z
    21c4:	ec b9       	out	0x0c, r30	; 12
    21c6:	8f 5f       	subi	r24, 0xFF	; 255
    21c8:	83 30       	cpi	r24, 0x03	; 3
    21ca:	a8 f3       	brcs	.-22     	; 0x21b6 <main+0x436>
    21cc:	f4 01       	movw	r30, r8
    21ce:	8f 81       	ldd	r24, Y+7	; 0x07
    21d0:	88 23       	and	r24, r24
    21d2:	09 f4       	brne	.+2      	; 0x21d6 <main+0x456>
    21d4:	fa ce       	rjmp	.-524    	; 0x1fca <main+0x24a>
    21d6:	90 e0       	ldi	r25, 0x00	; 0
    21d8:	5d 9b       	sbis	0x0b, 5	; 11
    21da:	fe cf       	rjmp	.-4      	; 0x21d8 <main+0x458>
    21dc:	9f 5f       	subi	r25, 0xFF	; 255
    21de:	84 91       	lpm	r24, Z
    21e0:	8c b9       	out	0x0c, r24	; 12
    21e2:	e9 2f       	mov	r30, r25
    21e4:	ff 27       	eor	r31, r31
    21e6:	ec 5f       	subi	r30, 0xFC	; 252
    21e8:	fc 4f       	sbci	r31, 0xFC	; 252
    21ea:	84 91       	lpm	r24, Z
    21ec:	88 23       	and	r24, r24
    21ee:	a1 f7       	brne	.-24     	; 0x21d8 <main+0x458>
    21f0:	ec ce       	rjmp	.-552    	; 0x1fca <main+0x24a>
    21f2:	b8 01       	movw	r22, r16
    21f4:	89 2f       	mov	r24, r25
    21f6:	0e 94 be 07 	call	0xf7c	; 0xf7c <parameter_handling>
    21fa:	81 30       	cpi	r24, 0x01	; 1
    21fc:	09 f0       	breq	.+2      	; 0x2200 <main+0x480>
    21fe:	e5 ce       	rjmp	.-566    	; 0x1fca <main+0x24a>
    2200:	f5 01       	movw	r30, r10
    2202:	8b 85       	ldd	r24, Y+11	; 0x0b
    2204:	88 23       	and	r24, r24
    2206:	69 f0       	breq	.+26     	; 0x2222 <main+0x4a2>
    2208:	90 e0       	ldi	r25, 0x00	; 0
    220a:	5d 9b       	sbis	0x0b, 5	; 11
    220c:	fe cf       	rjmp	.-4      	; 0x220a <main+0x48a>
    220e:	9f 5f       	subi	r25, 0xFF	; 255
    2210:	84 91       	lpm	r24, Z
    2212:	8c b9       	out	0x0c, r24	; 12
    2214:	e9 2f       	mov	r30, r25
    2216:	ff 27       	eor	r31, r31
    2218:	e1 56       	subi	r30, 0x61	; 97
    221a:	fe 4f       	sbci	r31, 0xFE	; 254
    221c:	84 91       	lpm	r24, Z
    221e:	88 23       	and	r24, r24
    2220:	a1 f7       	brne	.-24     	; 0x220a <main+0x48a>
    2222:	80 e0       	ldi	r24, 0x00	; 0
    2224:	5d 9b       	sbis	0x0b, 5	; 11
    2226:	fe cf       	rjmp	.-4      	; 0x2224 <main+0x4a4>
    2228:	e8 2f       	mov	r30, r24
    222a:	ff 27       	eor	r31, r31
    222c:	e7 5b       	subi	r30, 0xB7	; 183
    222e:	fc 4f       	sbci	r31, 0xFC	; 252
    2230:	e4 91       	lpm	r30, Z
    2232:	ec b9       	out	0x0c, r30	; 12
    2234:	8f 5f       	subi	r24, 0xFF	; 255
    2236:	83 30       	cpi	r24, 0x03	; 3
    2238:	a8 f3       	brcs	.-22     	; 0x2224 <main+0x4a4>
    223a:	f4 01       	movw	r30, r8
    223c:	8c 85       	ldd	r24, Y+12	; 0x0c
    223e:	88 23       	and	r24, r24
    2240:	09 f4       	brne	.+2      	; 0x2244 <main+0x4c4>
    2242:	c3 ce       	rjmp	.-634    	; 0x1fca <main+0x24a>
    2244:	90 e0       	ldi	r25, 0x00	; 0
    2246:	5d 9b       	sbis	0x0b, 5	; 11
    2248:	fe cf       	rjmp	.-4      	; 0x2246 <main+0x4c6>
    224a:	9f 5f       	subi	r25, 0xFF	; 255
    224c:	84 91       	lpm	r24, Z
    224e:	8c b9       	out	0x0c, r24	; 12
    2250:	e9 2f       	mov	r30, r25
    2252:	ff 27       	eor	r31, r31
    2254:	ec 5f       	subi	r30, 0xFC	; 252
    2256:	fc 4f       	sbci	r31, 0xFC	; 252
    2258:	84 91       	lpm	r24, Z
    225a:	88 23       	and	r24, r24
    225c:	a1 f7       	brne	.-24     	; 0x2246 <main+0x4c6>
    225e:	b5 ce       	rjmp	.-662    	; 0x1fca <main+0x24a>
    2260:	b8 01       	movw	r22, r16
    2262:	89 2f       	mov	r24, r25
    2264:	0e 94 be 07 	call	0xf7c	; 0xf7c <parameter_handling>
    2268:	81 30       	cpi	r24, 0x01	; 1
    226a:	09 f0       	breq	.+2      	; 0x226e <main+0x4ee>
    226c:	ae ce       	rjmp	.-676    	; 0x1fca <main+0x24a>
    226e:	f5 01       	movw	r30, r10
    2270:	cc 20       	and	r12, r12
    2272:	69 f0       	breq	.+26     	; 0x228e <main+0x50e>
    2274:	90 e0       	ldi	r25, 0x00	; 0
    2276:	5d 9b       	sbis	0x0b, 5	; 11
    2278:	fe cf       	rjmp	.-4      	; 0x2276 <main+0x4f6>
    227a:	9f 5f       	subi	r25, 0xFF	; 255
    227c:	84 91       	lpm	r24, Z
    227e:	8c b9       	out	0x0c, r24	; 12
    2280:	e9 2f       	mov	r30, r25
    2282:	ff 27       	eor	r31, r31
    2284:	e1 56       	subi	r30, 0x61	; 97
    2286:	fe 4f       	sbci	r31, 0xFE	; 254
    2288:	84 91       	lpm	r24, Z
    228a:	88 23       	and	r24, r24
    228c:	a1 f7       	brne	.-24     	; 0x2276 <main+0x4f6>
    228e:	80 e0       	ldi	r24, 0x00	; 0
    2290:	5d 9b       	sbis	0x0b, 5	; 11
    2292:	fe cf       	rjmp	.-4      	; 0x2290 <main+0x510>
    2294:	e8 2f       	mov	r30, r24
    2296:	ff 27       	eor	r31, r31
    2298:	e7 5b       	subi	r30, 0xB7	; 183
    229a:	fc 4f       	sbci	r31, 0xFC	; 252
    229c:	e4 91       	lpm	r30, Z
    229e:	ec b9       	out	0x0c, r30	; 12
    22a0:	8f 5f       	subi	r24, 0xFF	; 255
    22a2:	83 30       	cpi	r24, 0x03	; 3
    22a4:	a8 f3       	brcs	.-22     	; 0x2290 <main+0x510>
    22a6:	f4 01       	movw	r30, r8
    22a8:	77 20       	and	r7, r7
    22aa:	09 f4       	brne	.+2      	; 0x22ae <main+0x52e>
    22ac:	8e ce       	rjmp	.-740    	; 0x1fca <main+0x24a>
    22ae:	90 e0       	ldi	r25, 0x00	; 0
    22b0:	5d 9b       	sbis	0x0b, 5	; 11
    22b2:	fe cf       	rjmp	.-4      	; 0x22b0 <main+0x530>
    22b4:	9f 5f       	subi	r25, 0xFF	; 255
    22b6:	84 91       	lpm	r24, Z
    22b8:	8c b9       	out	0x0c, r24	; 12
    22ba:	e9 2f       	mov	r30, r25
    22bc:	ff 27       	eor	r31, r31
    22be:	ec 5f       	subi	r30, 0xFC	; 252
    22c0:	fc 4f       	sbci	r31, 0xFC	; 252
    22c2:	84 91       	lpm	r24, Z
    22c4:	88 23       	and	r24, r24
    22c6:	a1 f7       	brne	.-24     	; 0x22b0 <main+0x530>
    22c8:	80 ce       	rjmp	.-768    	; 0x1fca <main+0x24a>
    22ca:	8c b1       	in	r24, 0x0c	; 12
    22cc:	88 37       	cpi	r24, 0x78	; 120
    22ce:	09 f0       	breq	.+2      	; 0x22d2 <main+0x552>
    22d0:	ba cd       	rjmp	.-1164   	; 0x1e46 <main+0xc6>
    22d2:	30 91 69 00 	lds	r19, 0x0069
    22d6:	30 93 68 00 	sts	0x0068, r19
    22da:	b5 cd       	rjmp	.-1174   	; 0x1e46 <main+0xc6>
    22dc:	8c b1       	in	r24, 0x0c	; 12
    22de:	8f 36       	cpi	r24, 0x6F	; 111
    22e0:	09 f0       	breq	.+2      	; 0x22e4 <main+0x564>
    22e2:	e5 ce       	rjmp	.-566    	; 0x20ae <main+0x32e>
    22e4:	85 b7       	in	r24, 0x35	; 53
    22e6:	8f 7b       	andi	r24, 0xBF	; 191
    22e8:	85 bf       	out	0x35, r24	; 53
    22ea:	5d 9b       	sbis	0x0b, 5	; 11
    22ec:	fe cf       	rjmp	.-4      	; 0x22ea <main+0x56a>
    22ee:	8f e6       	ldi	r24, 0x6F	; 111
    22f0:	8c b9       	out	0x0c, r24	; 12
    22f2:	5d 9b       	sbis	0x0b, 5	; 11
    22f4:	fe cf       	rjmp	.-4      	; 0x22f2 <main+0x572>
    22f6:	8d e0       	ldi	r24, 0x0D	; 13
    22f8:	8c b9       	out	0x0c, r24	; 12
    22fa:	5d 9b       	sbis	0x0b, 5	; 11
    22fc:	fe cf       	rjmp	.-4      	; 0x22fa <main+0x57a>
    22fe:	8a e0       	ldi	r24, 0x0A	; 10
    2300:	8c b9       	out	0x0c, r24	; 12
    2302:	30 91 69 00 	lds	r19, 0x0069
    2306:	30 93 68 00 	sts	0x0068, r19
    230a:	d1 ce       	rjmp	.-606    	; 0x20ae <main+0x32e>

0000230c <__udivmodhi4>:
    230c:	aa 1b       	sub	r26, r26
    230e:	bb 1b       	sub	r27, r27
    2310:	51 e1       	ldi	r21, 0x11	; 17
    2312:	07 c0       	rjmp	.+14     	; 0x2322 <__udivmodhi4_ep>

00002314 <__udivmodhi4_loop>:
    2314:	aa 1f       	adc	r26, r26
    2316:	bb 1f       	adc	r27, r27
    2318:	a6 17       	cp	r26, r22
    231a:	b7 07       	cpc	r27, r23
    231c:	10 f0       	brcs	.+4      	; 0x2322 <__udivmodhi4_ep>
    231e:	a6 1b       	sub	r26, r22
    2320:	b7 0b       	sbc	r27, r23

00002322 <__udivmodhi4_ep>:
    2322:	88 1f       	adc	r24, r24
    2324:	99 1f       	adc	r25, r25
    2326:	5a 95       	dec	r21
    2328:	a9 f7       	brne	.-22     	; 0x2314 <__udivmodhi4_loop>
    232a:	80 95       	com	r24
    232c:	90 95       	com	r25
    232e:	bc 01       	movw	r22, r24
    2330:	cd 01       	movw	r24, r26
    2332:	08 95       	ret
