
dle_ctrl.elf:     file format elf32-avr

Sections:
Idx Name          Size      VMA       LMA       File off  Algn
  0 .data         000000e6  00800100  00001540  000015b4  2**0
                  CONTENTS, ALLOC, LOAD, DATA
  1 .text         00001540  00000000  00000000  00000074  2**1
                  CONTENTS, ALLOC, LOAD, READONLY, CODE
  2 .bss          00000251  008001e6  00001626  0000169a  2**0
                  ALLOC
  3 .stab         00000378  00000000  00000000  0000169c  2**2
                  CONTENTS, READONLY, DEBUGGING
  4 .stabstr      0000005f  00000000  00000000  00001a14  2**0
                  CONTENTS, READONLY, DEBUGGING
  5 .debug_aranges 00000040  00000000  00000000  00001a73  2**0
                  CONTENTS, READONLY, DEBUGGING
  6 .debug_pubnames 00000450  00000000  00000000  00001ab3  2**0
                  CONTENTS, READONLY, DEBUGGING
  7 .debug_info   00000ec1  00000000  00000000  00001f03  2**0
                  CONTENTS, READONLY, DEBUGGING
  8 .debug_abbrev 00000378  00000000  00000000  00002dc4  2**0
                  CONTENTS, READONLY, DEBUGGING
  9 .debug_line   000010b2  00000000  00000000  0000313c  2**0
                  CONTENTS, READONLY, DEBUGGING
 10 .debug_frame  00000220  00000000  00000000  000041f0  2**2
                  CONTENTS, READONLY, DEBUGGING
 11 .debug_str    00000694  00000000  00000000  00004410  2**0
                  CONTENTS, READONLY, DEBUGGING
 12 .debug_loc    00000683  00000000  00000000  00004aa4  2**0
                  CONTENTS, READONLY, DEBUGGING
 13 .debug_ranges 00000018  00000000  00000000  00005127  2**0
                  CONTENTS, READONLY, DEBUGGING
Disassembly of section .text:

00000000 <__vectors>:
       0:	0c 94 2e 00 	jmp	0x5c	; 0x5c <__ctors_end>
       4:	0c 94 4b 00 	jmp	0x96	; 0x96 <__bad_interrupt>
       8:	0c 94 4b 00 	jmp	0x96	; 0x96 <__bad_interrupt>
       c:	0c 94 4b 00 	jmp	0x96	; 0x96 <__bad_interrupt>
      10:	0c 94 b1 01 	jmp	0x362	; 0x362 <__vector_4>
      14:	0c 94 4b 00 	jmp	0x96	; 0x96 <__bad_interrupt>
      18:	0c 94 4b 00 	jmp	0x96	; 0x96 <__bad_interrupt>
      1c:	0c 94 4b 00 	jmp	0x96	; 0x96 <__bad_interrupt>
      20:	0c 94 3c 03 	jmp	0x678	; 0x678 <__vector_8>
      24:	0c 94 4b 00 	jmp	0x96	; 0x96 <__bad_interrupt>
      28:	0c 94 4b 00 	jmp	0x96	; 0x96 <__bad_interrupt>
      2c:	0c 94 4b 00 	jmp	0x96	; 0x96 <__bad_interrupt>
      30:	0c 94 4b 00 	jmp	0x96	; 0x96 <__bad_interrupt>
      34:	0c 94 7d 01 	jmp	0x2fa	; 0x2fa <__vector_13>
      38:	0c 94 4b 00 	jmp	0x96	; 0x96 <__bad_interrupt>
      3c:	0c 94 4b 00 	jmp	0x96	; 0x96 <__bad_interrupt>
      40:	0c 94 4b 00 	jmp	0x96	; 0x96 <__bad_interrupt>
      44:	0c 94 4b 00 	jmp	0x96	; 0x96 <__bad_interrupt>
      48:	0c 94 4b 00 	jmp	0x96	; 0x96 <__bad_interrupt>
      4c:	0c 94 d7 01 	jmp	0x3ae	; 0x3ae <__vector_19>
      50:	0c 94 4b 00 	jmp	0x96	; 0x96 <__bad_interrupt>
      54:	0c 94 4b 00 	jmp	0x96	; 0x96 <__bad_interrupt>
      58:	0c 94 4b 00 	jmp	0x96	; 0x96 <__bad_interrupt>

0000005c <__ctors_end>:
      5c:	11 24       	eor	r1, r1
      5e:	1f be       	out	0x3f, r1	; 63
      60:	cf ef       	ldi	r28, 0xFF	; 255
      62:	d4 e0       	ldi	r29, 0x04	; 4
      64:	de bf       	out	0x3e, r29	; 62
      66:	cd bf       	out	0x3d, r28	; 61

00000068 <__do_copy_data>:
      68:	11 e0       	ldi	r17, 0x01	; 1
      6a:	a0 e0       	ldi	r26, 0x00	; 0
      6c:	b1 e0       	ldi	r27, 0x01	; 1
      6e:	e0 e4       	ldi	r30, 0x40	; 64
      70:	f5 e1       	ldi	r31, 0x15	; 21
      72:	02 c0       	rjmp	.+4      	; 0x78 <.do_copy_data_start>

00000074 <.do_copy_data_loop>:
      74:	05 90       	lpm	r0, Z+
      76:	0d 92       	st	X+, r0

00000078 <.do_copy_data_start>:
      78:	a6 3e       	cpi	r26, 0xE6	; 230
      7a:	b1 07       	cpc	r27, r17
      7c:	d9 f7       	brne	.-10     	; 0x74 <.do_copy_data_loop>

0000007e <__do_clear_bss>:
      7e:	14 e0       	ldi	r17, 0x04	; 4
      80:	a6 ee       	ldi	r26, 0xE6	; 230
      82:	b1 e0       	ldi	r27, 0x01	; 1
      84:	01 c0       	rjmp	.+2      	; 0x88 <.do_clear_bss_start>

00000086 <.do_clear_bss_loop>:
      86:	1d 92       	st	X+, r1

00000088 <.do_clear_bss_start>:
      88:	a7 33       	cpi	r26, 0x37	; 55
      8a:	b1 07       	cpc	r27, r17
      8c:	e1 f7       	brne	.-8      	; 0x86 <.do_clear_bss_loop>
      8e:	0e 94 06 01 	call	0x20c	; 0x20c <main>
      92:	0c 94 9f 0a 	jmp	0x153e	; 0x153e <_exit>

00000096 <__bad_interrupt>:
      96:	0c 94 00 00 	jmp	0	; 0x0 <__vectors>

0000009a <activate_adc_isr>:
      9a:	90 e1       	ldi	r25, 0x10	; 16
      9c:	90 93 14 03 	sts	0x0314, r25
      a0:	90 e4       	ldi	r25, 0x40	; 64
      a2:	90 93 ef 02 	sts	0x02EF, r25
      a6:	91 e0       	ldi	r25, 0x01	; 1
      a8:	90 93 ee 01 	sts	0x01EE, r25
      ac:	80 93 18 03 	sts	0x0318, r24
      b0:	ea e7       	ldi	r30, 0x7A	; 122
      b2:	f0 e0       	ldi	r31, 0x00	; 0
      b4:	80 81       	ld	r24, Z
      b6:	80 69       	ori	r24, 0x90	; 144
      b8:	80 83       	st	Z, r24
      ba:	84 e0       	ldi	r24, 0x04	; 4
      bc:	86 bb       	out	0x16, r24	; 22
      be:	08 95       	ret

000000c0 <init_apd_bias_pwm>:
      c0:	8f ee       	ldi	r24, 0xEF	; 239
      c2:	80 93 b3 00 	sts	0x00B3, r24
      c6:	82 e0       	ldi	r24, 0x02	; 2
      c8:	80 93 70 00 	sts	0x0070, r24
      cc:	87 bb       	out	0x17, r24	; 23
      ce:	89 e0       	ldi	r24, 0x09	; 9
      d0:	80 93 b0 00 	sts	0x00B0, r24
      d4:	2f 9a       	sbi	0x05, 7	; 5
      d6:	27 9a       	sbi	0x04, 7	; 4
      d8:	08 95       	ret

000000da <init_uart>:
      da:	e4 e6       	ldi	r30, 0x64	; 100
      dc:	f0 e0       	ldi	r31, 0x00	; 0
      de:	80 81       	ld	r24, Z
      e0:	8d 7f       	andi	r24, 0xFD	; 253
      e2:	80 83       	st	Z, r24
      e4:	10 92 c5 00 	sts	0x00C5, r1
      e8:	10 92 c4 00 	sts	0x00C4, r1
      ec:	86 e0       	ldi	r24, 0x06	; 6
      ee:	80 93 c2 00 	sts	0x00C2, r24
      f2:	88 e9       	ldi	r24, 0x98	; 152
      f4:	80 93 c1 00 	sts	0x00C1, r24
      f8:	08 95       	ret

000000fa <init_lcd>:
      fa:	e4 ee       	ldi	r30, 0xE4	; 228
      fc:	f0 e0       	ldi	r31, 0x00	; 0
      fe:	10 82       	st	Z, r1
     100:	85 e6       	ldi	r24, 0x65	; 101
     102:	80 93 e6 00 	sts	0x00E6, r24
     106:	80 e1       	ldi	r24, 0x10	; 16
     108:	80 93 e7 00 	sts	0x00E7, r24
     10c:	87 e3       	ldi	r24, 0x37	; 55
     10e:	80 93 e5 00 	sts	0x00E5, r24
     112:	80 e8       	ldi	r24, 0x80	; 128
     114:	80 83       	st	Z, r24
     116:	80 93 ee 00 	sts	0x00EE, r24
     11a:	80 ea       	ldi	r24, 0xA0	; 160
     11c:	80 93 f1 00 	sts	0x00F1, r24
     120:	8a e0       	ldi	r24, 0x0A	; 10
     122:	80 93 f6 00 	sts	0x00F6, r24
     126:	82 e0       	ldi	r24, 0x02	; 2
     128:	80 93 f7 00 	sts	0x00F7, r24
     12c:	08 95       	ret

0000012e <init_spi>:
     12e:	8d b1       	in	r24, 0x0d	; 13
     130:	88 65       	ori	r24, 0x58	; 88
     132:	8d b9       	out	0x0d, r24	; 13
     134:	6d 98       	cbi	0x0d, 5	; 13
     136:	8e b1       	in	r24, 0x0e	; 14
     138:	88 62       	ori	r24, 0x28	; 40
     13a:	8e b9       	out	0x0e, r24	; 14
     13c:	08 95       	ret

0000013e <init_adc>:
     13e:	aa e7       	ldi	r26, 0x7A	; 122
     140:	b0 e0       	ldi	r27, 0x00	; 0
     142:	1c 92       	st	X, r1
     144:	e4 e6       	ldi	r30, 0x64	; 100
     146:	f0 e0       	ldi	r31, 0x00	; 0
     148:	80 81       	ld	r24, Z
     14a:	8e 7f       	andi	r24, 0xFE	; 254
     14c:	80 83       	st	Z, r24
     14e:	85 e0       	ldi	r24, 0x05	; 5
     150:	80 93 7b 00 	sts	0x007B, r24
     154:	8f e0       	ldi	r24, 0x0F	; 15
     156:	80 93 7e 00 	sts	0x007E, r24
     15a:	10 92 7c 00 	sts	0x007C, r1
     15e:	8d e7       	ldi	r24, 0x7D	; 125
     160:	8c 93       	st	X, r24
     162:	10 92 80 00 	sts	0x0080, r1
     166:	89 e0       	ldi	r24, 0x09	; 9
     168:	80 93 81 00 	sts	0x0081, r24
     16c:	81 e0       	ldi	r24, 0x01	; 1
     16e:	80 93 89 00 	sts	0x0089, r24
     172:	8f ed       	ldi	r24, 0xDF	; 223
     174:	80 93 88 00 	sts	0x0088, r24
     178:	10 92 8b 00 	sts	0x008B, r1
     17c:	80 e4       	ldi	r24, 0x40	; 64
     17e:	80 93 8a 00 	sts	0x008A, r24
     182:	84 e0       	ldi	r24, 0x04	; 4
     184:	80 93 6f 00 	sts	0x006F, r24
     188:	08 95       	ret

0000018a <FATAL_TRAP>:
     18a:	90 93 11 03 	sts	0x0311, r25
     18e:	80 93 10 03 	sts	0x0310, r24
     192:	ff cf       	rjmp	.-2      	; 0x192 <FATAL_TRAP+0x8>

00000194 <command_lookup>:
     194:	0f 93       	push	r16
     196:	1f 93       	push	r17
     198:	cf 93       	push	r28
     19a:	df 93       	push	r29
     19c:	80 91 33 03 	lds	r24, 0x0333
     1a0:	85 3d       	cpi	r24, 0xD5	; 213
     1a2:	21 f0       	breq	.+8      	; 0x1ac <command_lookup+0x18>
     1a4:	84 ea       	ldi	r24, 0xA4	; 164
     1a6:	91 e0       	ldi	r25, 0x01	; 1
     1a8:	0e 94 c5 00 	call	0x18a	; 0x18a <FATAL_TRAP>
     1ac:	00 91 34 03 	lds	r16, 0x0334
     1b0:	cd e8       	ldi	r28, 0x8D	; 141
     1b2:	d2 e1       	ldi	r29, 0x12	; 18
     1b4:	fe 01       	movw	r30, r28
     1b6:	85 91       	lpm	r24, Z+
     1b8:	94 91       	lpm	r25, Z
     1ba:	8d 5e       	subi	r24, 0xED	; 237
     1bc:	9e 4f       	sbci	r25, 0xFE	; 254
     1be:	21 f0       	breq	.+8      	; 0x1c8 <command_lookup+0x34>
     1c0:	80 eb       	ldi	r24, 0xB0	; 176
     1c2:	91 e0       	ldi	r25, 0x01	; 1
     1c4:	0e 94 c5 00 	call	0x18a	; 0x18a <FATAL_TRAP>
     1c8:	25 97       	sbiw	r28, 0x05	; 5
     1ca:	02 c0       	rjmp	.+4      	; 0x1d0 <command_lookup+0x3c>
     1cc:	01 17       	cp	r16, r17
     1ce:	69 f0       	breq	.+26     	; 0x1ea <command_lookup+0x56>
     1d0:	27 96       	adiw	r28, 0x07	; 7
     1d2:	24 96       	adiw	r28, 0x04	; 4
     1d4:	fe 01       	movw	r30, r28
     1d6:	14 91       	lpm	r17, Z
     1d8:	24 97       	sbiw	r28, 0x04	; 4
     1da:	1f 3f       	cpi	r17, 0xFF	; 255
     1dc:	b9 f7       	brne	.-18     	; 0x1cc <command_lookup+0x38>
     1de:	89 eb       	ldi	r24, 0xB9	; 185
     1e0:	91 e0       	ldi	r25, 0x01	; 1
     1e2:	0e 94 c5 00 	call	0x18a	; 0x18a <FATAL_TRAP>
     1e6:	01 17       	cp	r16, r17
     1e8:	99 f7       	brne	.-26     	; 0x1d0 <command_lookup+0x3c>
     1ea:	fe 01       	movw	r30, r28
     1ec:	35 96       	adiw	r30, 0x05	; 5
     1ee:	85 91       	lpm	r24, Z+
     1f0:	94 91       	lpm	r25, Z
     1f2:	90 93 16 03 	sts	0x0316, r25
     1f6:	80 93 15 03 	sts	0x0315, r24
     1fa:	fc 01       	movw	r30, r24
     1fc:	09 95       	icall
     1fe:	10 92 b4 03 	sts	0x03B4, r1
     202:	df 91       	pop	r29
     204:	cf 91       	pop	r28
     206:	1f 91       	pop	r17
     208:	0f 91       	pop	r16
     20a:	08 95       	ret

0000020c <main>:
     20c:	80 e0       	ldi	r24, 0x00	; 0
	...
     22e:	8f 5f       	subi	r24, 0xFF	; 255
     230:	8f 3f       	cpi	r24, 0xFF	; 255
     232:	69 f7       	brne	.-38     	; 0x20e <main+0x2>
     234:	72 9a       	sbi	0x0e, 2	; 14
     236:	6a 98       	cbi	0x0d, 2	; 13
     238:	82 b1       	in	r24, 0x02	; 2
     23a:	8c 60       	ori	r24, 0x0C	; 12
     23c:	82 b9       	out	0x02, r24	; 2
     23e:	81 b1       	in	r24, 0x01	; 1
     240:	8c 60       	ori	r24, 0x0C	; 12
     242:	81 b9       	out	0x01, r24	; 1
     244:	10 92 17 03 	sts	0x0317, r1
     248:	10 92 f1 02 	sts	0x02F1, r1
     24c:	10 92 f0 02 	sts	0x02F0, r1
     250:	10 92 f3 02 	sts	0x02F3, r1
     254:	10 92 f2 02 	sts	0x02F2, r1
     258:	10 92 f5 02 	sts	0x02F5, r1
     25c:	10 92 f4 02 	sts	0x02F4, r1
     260:	10 92 f7 02 	sts	0x02F7, r1
     264:	10 92 f6 02 	sts	0x02F6, r1
     268:	10 92 f9 02 	sts	0x02F9, r1
     26c:	10 92 f8 02 	sts	0x02F8, r1
     270:	10 92 12 03 	sts	0x0312, r1
     274:	0e 94 60 00 	call	0xc0	; 0xc0 <init_apd_bias_pwm>
     278:	0e 94 6d 00 	call	0xda	; 0xda <init_uart>
     27c:	0e 94 97 00 	call	0x12e	; 0x12e <init_spi>
     280:	0e 94 7d 00 	call	0xfa	; 0xfa <init_lcd>
     284:	0e 94 9f 00 	call	0x13e	; 0x13e <init_adc>
     288:	83 e8       	ldi	r24, 0x83	; 131
     28a:	83 bd       	out	0x23, r24	; 35
     28c:	10 92 85 00 	sts	0x0085, r1
     290:	10 92 84 00 	sts	0x0084, r1
     294:	10 92 b2 00 	sts	0x00B2, r1
     298:	13 bc       	out	0x23, r1	; 35
     29a:	10 92 11 03 	sts	0x0311, r1
     29e:	10 92 10 03 	sts	0x0310, r1
     2a2:	78 94       	sei
     2a4:	80 91 b4 03 	lds	r24, 0x03B4
     2a8:	82 30       	cpi	r24, 0x02	; 2
     2aa:	30 f0       	brcs	.+12     	; 0x2b8 <main+0xac>
     2ac:	10 92 b6 03 	sts	0x03B6, r1
     2b0:	10 92 b5 03 	sts	0x03B5, r1
     2b4:	0e 94 ca 00 	call	0x194	; 0x194 <command_lookup>
     2b8:	90 91 b6 03 	lds	r25, 0x03B6
     2bc:	80 91 b5 03 	lds	r24, 0x03B5
     2c0:	89 17       	cp	r24, r25
     2c2:	80 f7       	brcc	.-32     	; 0x2a4 <main+0x98>
     2c4:	80 91 c0 00 	lds	r24, 0x00C0
     2c8:	85 ff       	sbrs	r24, 5
     2ca:	ec cf       	rjmp	.-40     	; 0x2a4 <main+0x98>
     2cc:	e0 91 b5 03 	lds	r30, 0x03B5
     2d0:	f0 e0       	ldi	r31, 0x00	; 0
     2d2:	e9 54       	subi	r30, 0x49	; 73
     2d4:	fc 4f       	sbci	r31, 0xFC	; 252
     2d6:	80 81       	ld	r24, Z
     2d8:	80 93 c6 00 	sts	0x00C6, r24
     2dc:	80 91 c0 00 	lds	r24, 0x00C0
     2e0:	80 64       	ori	r24, 0x40	; 64
     2e2:	80 93 c0 00 	sts	0x00C0, r24
     2e6:	80 91 b5 03 	lds	r24, 0x03B5
     2ea:	8f 5f       	subi	r24, 0xFF	; 255
     2ec:	80 93 b5 03 	sts	0x03B5, r24
     2f0:	80 91 b4 03 	lds	r24, 0x03B4
     2f4:	82 30       	cpi	r24, 0x02	; 2
     2f6:	d0 f6       	brcc	.-76     	; 0x2ac <main+0xa0>
     2f8:	df cf       	rjmp	.-66     	; 0x2b8 <main+0xac>

000002fa <__vector_13>:
     2fa:	1f 92       	push	r1
     2fc:	0f 92       	push	r0
     2fe:	0f b6       	in	r0, 0x3f	; 63
     300:	0f 92       	push	r0
     302:	11 24       	eor	r1, r1
     304:	8f 93       	push	r24
     306:	9f 93       	push	r25
     308:	ef 93       	push	r30
     30a:	ff 93       	push	r31
     30c:	80 91 c0 00 	lds	r24, 0x00C0
     310:	90 91 c6 00 	lds	r25, 0x00C6
     314:	88 71       	andi	r24, 0x18	; 24
     316:	39 f0       	breq	.+14     	; 0x326 <__vector_13+0x2c>
     318:	86 ed       	ldi	r24, 0xD6	; 214
     31a:	91 e0       	ldi	r25, 0x01	; 1
     31c:	90 93 11 03 	sts	0x0311, r25
     320:	80 93 10 03 	sts	0x0310, r24
     324:	ff cf       	rjmp	.-2      	; 0x324 <__vector_13+0x2a>
     326:	80 91 b4 03 	lds	r24, 0x03B4
     32a:	80 38       	cpi	r24, 0x80	; 128
     32c:	39 f4       	brne	.+14     	; 0x33c <__vector_13+0x42>
     32e:	89 ed       	ldi	r24, 0xD9	; 217
     330:	91 e0       	ldi	r25, 0x01	; 1
     332:	90 93 11 03 	sts	0x0311, r25
     336:	80 93 10 03 	sts	0x0310, r24
     33a:	ff cf       	rjmp	.-2      	; 0x33a <__vector_13+0x40>
     33c:	80 91 b4 03 	lds	r24, 0x03B4
     340:	e8 2f       	mov	r30, r24
     342:	f0 e0       	ldi	r31, 0x00	; 0
     344:	ed 5c       	subi	r30, 0xCD	; 205
     346:	fc 4f       	sbci	r31, 0xFC	; 252
     348:	90 83       	st	Z, r25
     34a:	8f 5f       	subi	r24, 0xFF	; 255
     34c:	80 93 b4 03 	sts	0x03B4, r24
     350:	ff 91       	pop	r31
     352:	ef 91       	pop	r30
     354:	9f 91       	pop	r25
     356:	8f 91       	pop	r24
     358:	0f 90       	pop	r0
     35a:	0f be       	out	0x3f, r0	; 63
     35c:	0f 90       	pop	r0
     35e:	1f 90       	pop	r1
     360:	18 95       	reti

00000362 <__vector_4>:
     362:	1f 92       	push	r1
     364:	0f 92       	push	r0
     366:	0f b6       	in	r0, 0x3f	; 63
     368:	0f 92       	push	r0
     36a:	11 24       	eor	r1, r1
     36c:	8f 93       	push	r24
     36e:	9f 93       	push	r25
     370:	2f 98       	cbi	0x05, 7	; 5
	...
     37e:	00 00       	nop
     380:	2f 9a       	sbi	0x05, 7	; 5
     382:	80 91 17 03 	lds	r24, 0x0317
     386:	8f 5f       	subi	r24, 0xFF	; 255
     388:	80 93 17 03 	sts	0x0317, r24
     38c:	90 e0       	ldi	r25, 0x00	; 0
     38e:	87 70       	andi	r24, 0x07	; 7
     390:	90 70       	andi	r25, 0x00	; 0
     392:	89 2b       	or	r24, r25
     394:	29 f4       	brne	.+10     	; 0x3a0 <__vector_4+0x3e>
     396:	80 91 13 03 	lds	r24, 0x0313
     39a:	81 50       	subi	r24, 0x01	; 1
     39c:	80 93 13 03 	sts	0x0313, r24
     3a0:	9f 91       	pop	r25
     3a2:	8f 91       	pop	r24
     3a4:	0f 90       	pop	r0
     3a6:	0f be       	out	0x3f, r0	; 63
     3a8:	0f 90       	pop	r0
     3aa:	1f 90       	pop	r1
     3ac:	18 95       	reti

000003ae <__vector_19>:
     3ae:	1f 92       	push	r1
     3b0:	0f 92       	push	r0
     3b2:	0f b6       	in	r0, 0x3f	; 63
     3b4:	0f 92       	push	r0
     3b6:	11 24       	eor	r1, r1
     3b8:	2f 93       	push	r18
     3ba:	3f 93       	push	r19
     3bc:	4f 93       	push	r20
     3be:	5f 93       	push	r21
     3c0:	8f 93       	push	r24
     3c2:	9f 93       	push	r25
     3c4:	ef 93       	push	r30
     3c6:	ff 93       	push	r31
     3c8:	40 91 78 00 	lds	r20, 0x0078
     3cc:	50 91 79 00 	lds	r21, 0x0079
     3d0:	84 e0       	ldi	r24, 0x04	; 4
     3d2:	86 bb       	out	0x16, r24	; 22
     3d4:	80 91 ee 01 	lds	r24, 0x01EE
     3d8:	81 30       	cpi	r24, 0x01	; 1
     3da:	c9 f0       	breq	.+50     	; 0x40e <__vector_19+0x60>
     3dc:	80 91 ee 01 	lds	r24, 0x01EE
     3e0:	83 30       	cpi	r24, 0x03	; 3
     3e2:	c9 f0       	breq	.+50     	; 0x416 <__vector_19+0x68>
     3e4:	80 91 ee 01 	lds	r24, 0x01EE
     3e8:	82 30       	cpi	r24, 0x02	; 2
     3ea:	09 f0       	breq	.+2      	; 0x3ee <__vector_19+0x40>
     3ec:	38 c1       	rjmp	.+624    	; 0x65e <__stack+0x15f>
     3ee:	80 91 ef 02 	lds	r24, 0x02EF
     3f2:	88 23       	and	r24, r24
     3f4:	09 f4       	brne	.+2      	; 0x3f8 <__vector_19+0x4a>
     3f6:	e7 c0       	rjmp	.+462    	; 0x5c6 <__stack+0xc7>
     3f8:	80 91 14 03 	lds	r24, 0x0314
     3fc:	88 23       	and	r24, r24
     3fe:	09 f4       	brne	.+2      	; 0x402 <__vector_19+0x54>
     400:	e8 c0       	rjmp	.+464    	; 0x5d2 <__stack+0xd3>
     402:	80 91 14 03 	lds	r24, 0x0314
     406:	81 50       	subi	r24, 0x01	; 1
     408:	80 93 14 03 	sts	0x0314, r24
     40c:	28 c1       	rjmp	.+592    	; 0x65e <__stack+0x15f>
     40e:	83 e0       	ldi	r24, 0x03	; 3
     410:	80 93 ee 01 	sts	0x01EE, r24
     414:	24 c1       	rjmp	.+584    	; 0x65e <__stack+0x15f>
     416:	82 e0       	ldi	r24, 0x02	; 2
     418:	80 93 ee 01 	sts	0x01EE, r24
     41c:	73 98       	cbi	0x0e, 3	; 14
     41e:	86 e0       	ldi	r24, 0x06	; 6
     420:	80 93 ba 00 	sts	0x00BA, r24
     424:	21 e1       	ldi	r18, 0x11	; 17
     426:	20 93 b8 00 	sts	0x00B8, r18
     42a:	83 e1       	ldi	r24, 0x13	; 19
     42c:	80 93 b8 00 	sts	0x00B8, r24
     430:	20 93 b8 00 	sts	0x00B8, r18
     434:	80 93 b8 00 	sts	0x00B8, r24
     438:	20 93 b8 00 	sts	0x00B8, r18
     43c:	80 93 b8 00 	sts	0x00B8, r24
     440:	20 93 b8 00 	sts	0x00B8, r18
     444:	80 93 b8 00 	sts	0x00B8, r24
     448:	20 93 b8 00 	sts	0x00B8, r18
     44c:	80 93 b8 00 	sts	0x00B8, r24
     450:	20 93 b8 00 	sts	0x00B8, r18
     454:	80 93 b8 00 	sts	0x00B8, r24
     458:	20 93 b8 00 	sts	0x00B8, r18
     45c:	80 93 b8 00 	sts	0x00B8, r24
     460:	20 93 b8 00 	sts	0x00B8, r18
     464:	80 93 b8 00 	sts	0x00B8, r24
     468:	90 91 ba 00 	lds	r25, 0x00BA
     46c:	95 ef       	ldi	r25, 0xF5	; 245
     46e:	90 93 ba 00 	sts	0x00BA, r25
     472:	20 93 b8 00 	sts	0x00B8, r18
     476:	80 93 b8 00 	sts	0x00B8, r24
     47a:	20 93 b8 00 	sts	0x00B8, r18
     47e:	80 93 b8 00 	sts	0x00B8, r24
     482:	20 93 b8 00 	sts	0x00B8, r18
     486:	80 93 b8 00 	sts	0x00B8, r24
     48a:	20 93 b8 00 	sts	0x00B8, r18
     48e:	80 93 b8 00 	sts	0x00B8, r24
     492:	20 93 b8 00 	sts	0x00B8, r18
     496:	80 93 b8 00 	sts	0x00B8, r24
     49a:	20 93 b8 00 	sts	0x00B8, r18
     49e:	80 93 b8 00 	sts	0x00B8, r24
     4a2:	20 93 b8 00 	sts	0x00B8, r18
     4a6:	80 93 b8 00 	sts	0x00B8, r24
     4aa:	20 93 b8 00 	sts	0x00B8, r18
     4ae:	80 93 b8 00 	sts	0x00B8, r24
     4b2:	80 91 ba 00 	lds	r24, 0x00BA
     4b6:	73 9a       	sbi	0x0e, 3	; 14
	...
     4f8:	73 98       	cbi	0x0e, 3	; 14
     4fa:	86 e0       	ldi	r24, 0x06	; 6
     4fc:	80 93 ba 00 	sts	0x00BA, r24
     500:	20 93 b8 00 	sts	0x00B8, r18
     504:	83 e1       	ldi	r24, 0x13	; 19
     506:	80 93 b8 00 	sts	0x00B8, r24
     50a:	20 93 b8 00 	sts	0x00B8, r18
     50e:	80 93 b8 00 	sts	0x00B8, r24
     512:	20 93 b8 00 	sts	0x00B8, r18
     516:	80 93 b8 00 	sts	0x00B8, r24
     51a:	20 93 b8 00 	sts	0x00B8, r18
     51e:	80 93 b8 00 	sts	0x00B8, r24
     522:	20 93 b8 00 	sts	0x00B8, r18
     526:	80 93 b8 00 	sts	0x00B8, r24
     52a:	20 93 b8 00 	sts	0x00B8, r18
     52e:	80 93 b8 00 	sts	0x00B8, r24
     532:	20 93 b8 00 	sts	0x00B8, r18
     536:	80 93 b8 00 	sts	0x00B8, r24
     53a:	20 93 b8 00 	sts	0x00B8, r18
     53e:	80 93 b8 00 	sts	0x00B8, r24
     542:	90 91 ba 00 	lds	r25, 0x00BA
     546:	94 ef       	ldi	r25, 0xF4	; 244
     548:	90 93 ba 00 	sts	0x00BA, r25
     54c:	20 93 b8 00 	sts	0x00B8, r18
     550:	80 93 b8 00 	sts	0x00B8, r24
     554:	20 93 b8 00 	sts	0x00B8, r18
     558:	80 93 b8 00 	sts	0x00B8, r24
     55c:	20 93 b8 00 	sts	0x00B8, r18
     560:	80 93 b8 00 	sts	0x00B8, r24
     564:	20 93 b8 00 	sts	0x00B8, r18
     568:	80 93 b8 00 	sts	0x00B8, r24
     56c:	20 93 b8 00 	sts	0x00B8, r18
     570:	80 93 b8 00 	sts	0x00B8, r24
     574:	20 93 b8 00 	sts	0x00B8, r18
     578:	80 93 b8 00 	sts	0x00B8, r24
     57c:	20 93 b8 00 	sts	0x00B8, r18
     580:	80 93 b8 00 	sts	0x00B8, r24
     584:	20 93 b8 00 	sts	0x00B8, r18
     588:	80 93 b8 00 	sts	0x00B8, r24
     58c:	80 91 ba 00 	lds	r24, 0x00BA
     590:	73 9a       	sbi	0x0e, 3	; 14
     592:	10 92 e7 01 	sts	0x01E7, r1
     596:	10 92 e6 01 	sts	0x01E6, r1
     59a:	10 92 e9 01 	sts	0x01E9, r1
     59e:	10 92 e8 01 	sts	0x01E8, r1
     5a2:	10 92 eb 01 	sts	0x01EB, r1
     5a6:	10 92 ea 01 	sts	0x01EA, r1
     5aa:	10 92 ed 01 	sts	0x01ED, r1
     5ae:	10 92 ec 01 	sts	0x01EC, r1
     5b2:	80 91 f4 02 	lds	r24, 0x02F4
     5b6:	90 91 f5 02 	lds	r25, 0x02F5
     5ba:	01 96       	adiw	r24, 0x01	; 1
     5bc:	90 93 f5 02 	sts	0x02F5, r25
     5c0:	80 93 f4 02 	sts	0x02F4, r24
     5c4:	4c c0       	rjmp	.+152    	; 0x65e <__stack+0x15f>
     5c6:	80 91 7a 00 	lds	r24, 0x007A
     5ca:	8f 77       	andi	r24, 0x7F	; 127
     5cc:	80 93 7a 00 	sts	0x007A, r24
     5d0:	46 c0       	rjmp	.+140    	; 0x65e <__stack+0x15f>
     5d2:	80 91 ef 02 	lds	r24, 0x02EF
     5d6:	e4 e0       	ldi	r30, 0x04	; 4
     5d8:	f0 e0       	ldi	r31, 0x00	; 0
     5da:	e8 1b       	sub	r30, r24
     5dc:	f1 09       	sbc	r31, r1
     5de:	e3 70       	andi	r30, 0x03	; 3
     5e0:	f0 70       	andi	r31, 0x00	; 0
     5e2:	ee 0f       	add	r30, r30
     5e4:	ff 1f       	adc	r31, r31
     5e6:	ea 51       	subi	r30, 0x1A	; 26
     5e8:	fe 4f       	sbci	r31, 0xFE	; 254
     5ea:	85 2f       	mov	r24, r21
     5ec:	90 e0       	ldi	r25, 0x00	; 0
     5ee:	98 2f       	mov	r25, r24
     5f0:	88 27       	eor	r24, r24
     5f2:	24 2f       	mov	r18, r20
     5f4:	30 e0       	ldi	r19, 0x00	; 0
     5f6:	82 2b       	or	r24, r18
     5f8:	93 2b       	or	r25, r19
     5fa:	20 81       	ld	r18, Z
     5fc:	31 81       	ldd	r19, Z+1	; 0x01
     5fe:	82 0f       	add	r24, r18
     600:	93 1f       	adc	r25, r19
     602:	91 83       	std	Z+1, r25	; 0x01
     604:	80 83       	st	Z, r24
     606:	80 91 18 03 	lds	r24, 0x0318
     60a:	88 23       	and	r24, r24
     60c:	69 f0       	breq	.+26     	; 0x628 <__stack+0x129>
     60e:	80 91 c0 00 	lds	r24, 0x00C0
     612:	86 ff       	sbrs	r24, 6
     614:	1a c0       	rjmp	.+52     	; 0x64a <__stack+0x14b>
     616:	40 93 c6 00 	sts	0x00C6, r20
     61a:	50 93 c6 00 	sts	0x00C6, r21
     61e:	80 91 c0 00 	lds	r24, 0x00C0
     622:	80 64       	ori	r24, 0x40	; 64
     624:	80 93 c0 00 	sts	0x00C0, r24
     628:	80 91 ef 02 	lds	r24, 0x02EF
     62c:	90 e0       	ldi	r25, 0x00	; 0
     62e:	83 70       	andi	r24, 0x03	; 3
     630:	90 70       	andi	r25, 0x00	; 0
     632:	89 2b       	or	r24, r25
     634:	21 f4       	brne	.+8      	; 0x63e <__stack+0x13f>
     636:	82 b1       	in	r24, 0x02	; 2
     638:	98 e0       	ldi	r25, 0x08	; 8
     63a:	89 27       	eor	r24, r25
     63c:	82 b9       	out	0x02, r24	; 2
     63e:	80 91 ef 02 	lds	r24, 0x02EF
     642:	81 50       	subi	r24, 0x01	; 1
     644:	80 93 ef 02 	sts	0x02EF, r24
     648:	0a c0       	rjmp	.+20     	; 0x65e <__stack+0x15f>
     64a:	80 91 f2 02 	lds	r24, 0x02F2
     64e:	90 91 f3 02 	lds	r25, 0x02F3
     652:	01 96       	adiw	r24, 0x01	; 1
     654:	90 93 f3 02 	sts	0x02F3, r25
     658:	80 93 f2 02 	sts	0x02F2, r24
     65c:	e5 cf       	rjmp	.-54     	; 0x628 <__stack+0x129>
     65e:	ff 91       	pop	r31
     660:	ef 91       	pop	r30
     662:	9f 91       	pop	r25
     664:	8f 91       	pop	r24
     666:	5f 91       	pop	r21
     668:	4f 91       	pop	r20
     66a:	3f 91       	pop	r19
     66c:	2f 91       	pop	r18
     66e:	0f 90       	pop	r0
     670:	0f be       	out	0x3f, r0	; 63
     672:	0f 90       	pop	r0
     674:	1f 90       	pop	r1
     676:	18 95       	reti

00000678 <__vector_8>:
     678:	1f 92       	push	r1
     67a:	0f 92       	push	r0
     67c:	0f b6       	in	r0, 0x3f	; 63
     67e:	0f 92       	push	r0
     680:	11 24       	eor	r1, r1
     682:	0f 90       	pop	r0
     684:	0f be       	out	0x3f, r0	; 63
     686:	0f 90       	pop	r0
     688:	1f 90       	pop	r1
     68a:	18 95       	reti

0000068c <spi_set_byte>:
     68c:	73 98       	cbi	0x0e, 3	; 14
     68e:	aa eb       	ldi	r26, 0xBA	; 186
     690:	b0 e0       	ldi	r27, 0x00	; 0
     692:	8c 93       	st	X, r24
     694:	e8 eb       	ldi	r30, 0xB8	; 184
     696:	f0 e0       	ldi	r31, 0x00	; 0
     698:	91 e1       	ldi	r25, 0x11	; 17
     69a:	90 83       	st	Z, r25
     69c:	83 e1       	ldi	r24, 0x13	; 19
     69e:	80 83       	st	Z, r24
     6a0:	90 83       	st	Z, r25
     6a2:	80 83       	st	Z, r24
     6a4:	90 83       	st	Z, r25
     6a6:	80 83       	st	Z, r24
     6a8:	90 83       	st	Z, r25
     6aa:	80 83       	st	Z, r24
     6ac:	90 83       	st	Z, r25
     6ae:	80 83       	st	Z, r24
     6b0:	90 83       	st	Z, r25
     6b2:	80 83       	st	Z, r24
     6b4:	90 83       	st	Z, r25
     6b6:	80 83       	st	Z, r24
     6b8:	90 83       	st	Z, r25
     6ba:	80 83       	st	Z, r24
     6bc:	2c 91       	ld	r18, X
     6be:	6c 93       	st	X, r22
     6c0:	90 83       	st	Z, r25
     6c2:	80 83       	st	Z, r24
     6c4:	90 83       	st	Z, r25
     6c6:	80 83       	st	Z, r24
     6c8:	90 83       	st	Z, r25
     6ca:	80 83       	st	Z, r24
     6cc:	90 83       	st	Z, r25
     6ce:	80 83       	st	Z, r24
     6d0:	90 83       	st	Z, r25
     6d2:	80 83       	st	Z, r24
     6d4:	90 83       	st	Z, r25
     6d6:	80 83       	st	Z, r24
     6d8:	90 83       	st	Z, r25
     6da:	80 83       	st	Z, r24
     6dc:	90 83       	st	Z, r25
     6de:	80 83       	st	Z, r24
     6e0:	8c 91       	ld	r24, X
     6e2:	73 9a       	sbi	0x0e, 3	; 14
     6e4:	08 95       	ret

000006e6 <spi_set_2bytes>:
     6e6:	73 98       	cbi	0x0e, 3	; 14
     6e8:	aa eb       	ldi	r26, 0xBA	; 186
     6ea:	b0 e0       	ldi	r27, 0x00	; 0
     6ec:	8c 93       	st	X, r24
     6ee:	e8 eb       	ldi	r30, 0xB8	; 184
     6f0:	f0 e0       	ldi	r31, 0x00	; 0
     6f2:	91 e1       	ldi	r25, 0x11	; 17
     6f4:	90 83       	st	Z, r25
     6f6:	83 e1       	ldi	r24, 0x13	; 19
     6f8:	80 83       	st	Z, r24
     6fa:	90 83       	st	Z, r25
     6fc:	80 83       	st	Z, r24
     6fe:	90 83       	st	Z, r25
     700:	80 83       	st	Z, r24
     702:	90 83       	st	Z, r25
     704:	80 83       	st	Z, r24
     706:	90 83       	st	Z, r25
     708:	80 83       	st	Z, r24
     70a:	90 83       	st	Z, r25
     70c:	80 83       	st	Z, r24
     70e:	90 83       	st	Z, r25
     710:	80 83       	st	Z, r24
     712:	90 83       	st	Z, r25
     714:	80 83       	st	Z, r24
     716:	2c 91       	ld	r18, X
     718:	6c 93       	st	X, r22
     71a:	90 83       	st	Z, r25
     71c:	80 83       	st	Z, r24
     71e:	90 83       	st	Z, r25
     720:	80 83       	st	Z, r24
     722:	90 83       	st	Z, r25
     724:	80 83       	st	Z, r24
     726:	90 83       	st	Z, r25
     728:	80 83       	st	Z, r24
     72a:	90 83       	st	Z, r25
     72c:	80 83       	st	Z, r24
     72e:	90 83       	st	Z, r25
     730:	80 83       	st	Z, r24
     732:	90 83       	st	Z, r25
     734:	80 83       	st	Z, r24
     736:	90 83       	st	Z, r25
     738:	80 83       	st	Z, r24
     73a:	2c 91       	ld	r18, X
     73c:	4c 93       	st	X, r20
     73e:	90 83       	st	Z, r25
     740:	80 83       	st	Z, r24
     742:	90 83       	st	Z, r25
     744:	80 83       	st	Z, r24
     746:	90 83       	st	Z, r25
     748:	80 83       	st	Z, r24
     74a:	90 83       	st	Z, r25
     74c:	80 83       	st	Z, r24
     74e:	90 83       	st	Z, r25
     750:	80 83       	st	Z, r24
     752:	90 83       	st	Z, r25
     754:	80 83       	st	Z, r24
     756:	90 83       	st	Z, r25
     758:	80 83       	st	Z, r24
     75a:	90 83       	st	Z, r25
     75c:	80 83       	st	Z, r24
     75e:	8c 91       	ld	r24, X
     760:	73 9a       	sbi	0x0e, 3	; 14
     762:	08 95       	ret

00000764 <spi_set_3bytes>:
     764:	73 98       	cbi	0x0e, 3	; 14
     766:	aa eb       	ldi	r26, 0xBA	; 186
     768:	b0 e0       	ldi	r27, 0x00	; 0
     76a:	8c 93       	st	X, r24
     76c:	e8 eb       	ldi	r30, 0xB8	; 184
     76e:	f0 e0       	ldi	r31, 0x00	; 0
     770:	91 e1       	ldi	r25, 0x11	; 17
     772:	90 83       	st	Z, r25
     774:	83 e1       	ldi	r24, 0x13	; 19
     776:	80 83       	st	Z, r24
     778:	90 83       	st	Z, r25
     77a:	80 83       	st	Z, r24
     77c:	90 83       	st	Z, r25
     77e:	80 83       	st	Z, r24
     780:	90 83       	st	Z, r25
     782:	80 83       	st	Z, r24
     784:	90 83       	st	Z, r25
     786:	80 83       	st	Z, r24
     788:	90 83       	st	Z, r25
     78a:	80 83       	st	Z, r24
     78c:	90 83       	st	Z, r25
     78e:	80 83       	st	Z, r24
     790:	90 83       	st	Z, r25
     792:	80 83       	st	Z, r24
     794:	3c 91       	ld	r19, X
     796:	6c 93       	st	X, r22
     798:	90 83       	st	Z, r25
     79a:	80 83       	st	Z, r24
     79c:	90 83       	st	Z, r25
     79e:	80 83       	st	Z, r24
     7a0:	90 83       	st	Z, r25
     7a2:	80 83       	st	Z, r24
     7a4:	90 83       	st	Z, r25
     7a6:	80 83       	st	Z, r24
     7a8:	90 83       	st	Z, r25
     7aa:	80 83       	st	Z, r24
     7ac:	90 83       	st	Z, r25
     7ae:	80 83       	st	Z, r24
     7b0:	90 83       	st	Z, r25
     7b2:	80 83       	st	Z, r24
     7b4:	90 83       	st	Z, r25
     7b6:	80 83       	st	Z, r24
     7b8:	3c 91       	ld	r19, X
     7ba:	4c 93       	st	X, r20
     7bc:	90 83       	st	Z, r25
     7be:	80 83       	st	Z, r24
     7c0:	90 83       	st	Z, r25
     7c2:	80 83       	st	Z, r24
     7c4:	90 83       	st	Z, r25
     7c6:	80 83       	st	Z, r24
     7c8:	90 83       	st	Z, r25
     7ca:	80 83       	st	Z, r24
     7cc:	90 83       	st	Z, r25
     7ce:	80 83       	st	Z, r24
     7d0:	90 83       	st	Z, r25
     7d2:	80 83       	st	Z, r24
     7d4:	90 83       	st	Z, r25
     7d6:	80 83       	st	Z, r24
     7d8:	90 83       	st	Z, r25
     7da:	80 83       	st	Z, r24
     7dc:	3c 91       	ld	r19, X
     7de:	2c 93       	st	X, r18
     7e0:	90 83       	st	Z, r25
     7e2:	80 83       	st	Z, r24
     7e4:	90 83       	st	Z, r25
     7e6:	80 83       	st	Z, r24
     7e8:	90 83       	st	Z, r25
     7ea:	80 83       	st	Z, r24
     7ec:	90 83       	st	Z, r25
     7ee:	80 83       	st	Z, r24
     7f0:	90 83       	st	Z, r25
     7f2:	80 83       	st	Z, r24
     7f4:	90 83       	st	Z, r25
     7f6:	80 83       	st	Z, r24
     7f8:	90 83       	st	Z, r25
     7fa:	80 83       	st	Z, r24
     7fc:	90 83       	st	Z, r25
     7fe:	80 83       	st	Z, r24
     800:	8c 91       	ld	r24, X
     802:	73 9a       	sbi	0x0e, 3	; 14
     804:	08 95       	ret

00000806 <calc_sincos>:
     806:	fc 01       	movw	r30, r24
     808:	20 91 e6 01 	lds	r18, 0x01E6
     80c:	30 91 e7 01 	lds	r19, 0x01E7
     810:	28 5f       	subi	r18, 0xF8	; 248
     812:	3f 4f       	sbci	r19, 0xFF	; 255
     814:	32 95       	swap	r19
     816:	22 95       	swap	r18
     818:	2f 70       	andi	r18, 0x0F	; 15
     81a:	23 27       	eor	r18, r19
     81c:	3f 70       	andi	r19, 0x0F	; 15
     81e:	23 27       	eor	r18, r19
     820:	80 91 ea 01 	lds	r24, 0x01EA
     824:	90 91 eb 01 	lds	r25, 0x01EB
     828:	08 96       	adiw	r24, 0x08	; 8
     82a:	92 95       	swap	r25
     82c:	82 95       	swap	r24
     82e:	8f 70       	andi	r24, 0x0F	; 15
     830:	89 27       	eor	r24, r25
     832:	9f 70       	andi	r25, 0x0F	; 15
     834:	89 27       	eor	r24, r25
     836:	28 1b       	sub	r18, r24
     838:	39 0b       	sbc	r19, r25
     83a:	35 83       	std	Z+5, r19	; 0x05
     83c:	24 83       	std	Z+4, r18	; 0x04
     83e:	20 91 e8 01 	lds	r18, 0x01E8
     842:	30 91 e9 01 	lds	r19, 0x01E9
     846:	28 5f       	subi	r18, 0xF8	; 248
     848:	3f 4f       	sbci	r19, 0xFF	; 255
     84a:	32 95       	swap	r19
     84c:	22 95       	swap	r18
     84e:	2f 70       	andi	r18, 0x0F	; 15
     850:	23 27       	eor	r18, r19
     852:	3f 70       	andi	r19, 0x0F	; 15
     854:	23 27       	eor	r18, r19
     856:	80 91 ec 01 	lds	r24, 0x01EC
     85a:	90 91 ed 01 	lds	r25, 0x01ED
     85e:	08 96       	adiw	r24, 0x08	; 8
     860:	92 95       	swap	r25
     862:	82 95       	swap	r24
     864:	8f 70       	andi	r24, 0x0F	; 15
     866:	89 27       	eor	r24, r25
     868:	9f 70       	andi	r25, 0x0F	; 15
     86a:	89 27       	eor	r24, r25
     86c:	28 1b       	sub	r18, r24
     86e:	39 0b       	sbc	r19, r25
     870:	33 83       	std	Z+3, r19	; 0x03
     872:	22 83       	std	Z+2, r18	; 0x02
     874:	08 95       	ret

00000876 <send_out_msg>:
     876:	28 2f       	mov	r18, r24
     878:	88 23       	and	r24, r24
     87a:	69 f0       	breq	.+26     	; 0x896 <send_out_msg+0x20>
     87c:	e7 eb       	ldi	r30, 0xB7	; 183
     87e:	f3 e0       	ldi	r31, 0x03	; 3
     880:	90 e0       	ldi	r25, 0x00	; 0
     882:	80 91 c0 00 	lds	r24, 0x00C0
     886:	85 ff       	sbrs	r24, 5
     888:	fc cf       	rjmp	.-8      	; 0x882 <send_out_msg+0xc>
     88a:	81 91       	ld	r24, Z+
     88c:	80 93 c6 00 	sts	0x00C6, r24
     890:	9f 5f       	subi	r25, 0xFF	; 255
     892:	92 17       	cp	r25, r18
     894:	b1 f7       	brne	.-20     	; 0x882 <send_out_msg+0xc>
     896:	08 95       	ret

00000898 <spi_read_curr>:
     898:	73 98       	cbi	0x0e, 3	; 14
     89a:	80 e8       	ldi	r24, 0x80	; 128
     89c:	80 93 ba 00 	sts	0x00BA, r24
     8a0:	91 e1       	ldi	r25, 0x11	; 17
     8a2:	90 93 b8 00 	sts	0x00B8, r25
     8a6:	83 e1       	ldi	r24, 0x13	; 19
     8a8:	80 93 b8 00 	sts	0x00B8, r24
     8ac:	90 93 b8 00 	sts	0x00B8, r25
     8b0:	80 93 b8 00 	sts	0x00B8, r24
     8b4:	90 93 b8 00 	sts	0x00B8, r25
     8b8:	80 93 b8 00 	sts	0x00B8, r24
     8bc:	90 93 b8 00 	sts	0x00B8, r25
     8c0:	80 93 b8 00 	sts	0x00B8, r24
     8c4:	90 93 b8 00 	sts	0x00B8, r25
     8c8:	80 93 b8 00 	sts	0x00B8, r24
     8cc:	90 93 b8 00 	sts	0x00B8, r25
     8d0:	80 93 b8 00 	sts	0x00B8, r24
     8d4:	90 93 b8 00 	sts	0x00B8, r25
     8d8:	80 93 b8 00 	sts	0x00B8, r24
     8dc:	90 93 b8 00 	sts	0x00B8, r25
     8e0:	80 93 b8 00 	sts	0x00B8, r24
     8e4:	80 91 ba 00 	lds	r24, 0x00BA
     8e8:	e9 e1       	ldi	r30, 0x19	; 25
     8ea:	f3 e0       	ldi	r31, 0x03	; 3
     8ec:	10 92 ba 00 	sts	0x00BA, r1
     8f0:	91 e1       	ldi	r25, 0x11	; 17
     8f2:	90 93 b8 00 	sts	0x00B8, r25
     8f6:	83 e1       	ldi	r24, 0x13	; 19
     8f8:	80 93 b8 00 	sts	0x00B8, r24
     8fc:	90 93 b8 00 	sts	0x00B8, r25
     900:	80 93 b8 00 	sts	0x00B8, r24
     904:	90 93 b8 00 	sts	0x00B8, r25
     908:	80 93 b8 00 	sts	0x00B8, r24
     90c:	90 93 b8 00 	sts	0x00B8, r25
     910:	80 93 b8 00 	sts	0x00B8, r24
     914:	90 93 b8 00 	sts	0x00B8, r25
     918:	80 93 b8 00 	sts	0x00B8, r24
     91c:	90 93 b8 00 	sts	0x00B8, r25
     920:	80 93 b8 00 	sts	0x00B8, r24
     924:	90 93 b8 00 	sts	0x00B8, r25
     928:	80 93 b8 00 	sts	0x00B8, r24
     92c:	90 93 b8 00 	sts	0x00B8, r25
     930:	80 93 b8 00 	sts	0x00B8, r24
     934:	80 91 ba 00 	lds	r24, 0x00BA
     938:	81 93       	st	Z+, r24
     93a:	83 e0       	ldi	r24, 0x03	; 3
     93c:	e7 32       	cpi	r30, 0x27	; 39
     93e:	f8 07       	cpc	r31, r24
     940:	a9 f6       	brne	.-86     	; 0x8ec <spi_read_curr+0x54>
     942:	73 9a       	sbi	0x0e, 3	; 14
     944:	08 95       	ret

00000946 <action_adc_mux>:
     946:	80 91 b4 03 	lds	r24, 0x03B4
     94a:	82 30       	cpi	r24, 0x02	; 2
     94c:	e0 f3       	brcs	.-8      	; 0x946 <action_adc_mux>
     94e:	20 91 35 03 	lds	r18, 0x0335
     952:	23 70       	andi	r18, 0x03	; 3
     954:	82 2f       	mov	r24, r18
     956:	90 e0       	ldi	r25, 0x00	; 0
     958:	88 0f       	add	r24, r24
     95a:	99 1f       	adc	r25, r25
     95c:	88 0f       	add	r24, r24
     95e:	99 1f       	adc	r25, r25
     960:	80 93 b3 03 	sts	0x03B3, r24
     964:	80 91 7c 00 	lds	r24, 0x007C
     968:	80 7e       	andi	r24, 0xE0	; 224
     96a:	82 2b       	or	r24, r18
     96c:	80 93 7c 00 	sts	0x007C, r24
     970:	94 e1       	ldi	r25, 0x14	; 20
     972:	90 93 b7 03 	sts	0x03B7, r25
     976:	80 93 b8 03 	sts	0x03B8, r24
     97a:	82 e0       	ldi	r24, 0x02	; 2
     97c:	80 93 b6 03 	sts	0x03B6, r24
     980:	08 95       	ret

00000982 <rise_bias_ctrl>:
     982:	0f 93       	push	r16
     984:	1f 93       	push	r17
     986:	cf 93       	push	r28
     988:	df 93       	push	r29
     98a:	ec 01       	movw	r28, r24
     98c:	8b 01       	movw	r16, r22
     98e:	86 17       	cp	r24, r22
     990:	97 07       	cpc	r25, r23
     992:	81 f0       	breq	.+32     	; 0x9b4 <rise_bias_ctrl+0x32>
     994:	21 96       	adiw	r28, 0x01	; 1
     996:	d0 ff       	sbrs	r29, 0
     998:	02 c0       	rjmp	.+4      	; 0x99e <rise_bias_ctrl+0x1c>
     99a:	de 7f       	andi	r29, 0xFE	; 254
     99c:	d0 69       	ori	r29, 0x90	; 144
     99e:	6d 2f       	mov	r22, r29
     9a0:	77 27       	eor	r23, r23
     9a2:	60 79       	andi	r22, 0x90	; 144
     9a4:	26 ef       	ldi	r18, 0xF6	; 246
     9a6:	4c 2f       	mov	r20, r28
     9a8:	82 e1       	ldi	r24, 0x12	; 18
     9aa:	0e 94 b2 03 	call	0x764	; 0x764 <spi_set_3bytes>
     9ae:	c0 17       	cp	r28, r16
     9b0:	d1 07       	cpc	r29, r17
     9b2:	81 f7       	brne	.-32     	; 0x994 <rise_bias_ctrl+0x12>
     9b4:	df 91       	pop	r29
     9b6:	cf 91       	pop	r28
     9b8:	1f 91       	pop	r17
     9ba:	0f 91       	pop	r16
     9bc:	08 95       	ret

000009be <down_bias_ctrl>:
     9be:	0f 93       	push	r16
     9c0:	1f 93       	push	r17
     9c2:	cf 93       	push	r28
     9c4:	df 93       	push	r29
     9c6:	ec 01       	movw	r28, r24
     9c8:	8b 01       	movw	r16, r22
     9ca:	86 17       	cp	r24, r22
     9cc:	97 07       	cpc	r25, r23
     9ce:	51 f4       	brne	.+20     	; 0x9e4 <down_bias_ctrl+0x26>
     9d0:	14 c0       	rjmp	.+40     	; 0x9fa <down_bias_ctrl+0x3c>
     9d2:	60 79       	andi	r22, 0x90	; 144
     9d4:	26 ef       	ldi	r18, 0xF6	; 246
     9d6:	4c 2f       	mov	r20, r28
     9d8:	82 e1       	ldi	r24, 0x12	; 18
     9da:	0e 94 b2 03 	call	0x764	; 0x764 <spi_set_3bytes>
     9de:	c0 17       	cp	r28, r16
     9e0:	d1 07       	cpc	r29, r17
     9e2:	59 f0       	breq	.+22     	; 0x9fa <down_bias_ctrl+0x3c>
     9e4:	21 97       	sbiw	r28, 0x01	; 1
     9e6:	6d 2f       	mov	r22, r29
     9e8:	77 27       	eor	r23, r23
     9ea:	6f 38       	cpi	r22, 0x8F	; 143
     9ec:	71 05       	cpc	r23, r1
     9ee:	89 f7       	brne	.-30     	; 0x9d2 <down_bias_ctrl+0x14>
     9f0:	d0 70       	andi	r29, 0x00	; 0
     9f2:	d0 61       	ori	r29, 0x10	; 16
     9f4:	6d 2f       	mov	r22, r29
     9f6:	77 27       	eor	r23, r23
     9f8:	ec cf       	rjmp	.-40     	; 0x9d2 <down_bias_ctrl+0x14>
     9fa:	df 91       	pop	r29
     9fc:	cf 91       	pop	r28
     9fe:	1f 91       	pop	r17
     a00:	0f 91       	pop	r16
     a02:	08 95       	ret

00000a04 <action_lcd>:
     a04:	8f 92       	push	r8
     a06:	9f 92       	push	r9
     a08:	af 92       	push	r10
     a0a:	bf 92       	push	r11
     a0c:	cf 92       	push	r12
     a0e:	df 92       	push	r13
     a10:	ef 92       	push	r14
     a12:	ff 92       	push	r15
     a14:	1f 93       	push	r17
     a16:	cf 93       	push	r28
     a18:	df 93       	push	r29
     a1a:	80 91 b4 03 	lds	r24, 0x03B4
     a1e:	81 31       	cpi	r24, 0x11	; 17
     a20:	e0 f3       	brcs	.-8      	; 0xa1a <action_lcd+0x16>
     a22:	81 e6       	ldi	r24, 0x61	; 97
     a24:	80 93 b7 03 	sts	0x03B7, r24
     a28:	10 92 b8 03 	sts	0x03B8, r1
     a2c:	10 92 ec 00 	sts	0x00EC, r1
     a30:	ed ee       	ldi	r30, 0xED	; 237
     a32:	f0 e0       	ldi	r31, 0x00	; 0
     a34:	11 92       	st	Z+, r1
     a36:	ef 3f       	cpi	r30, 0xFF	; 255
     a38:	f1 05       	cpc	r31, r1
     a3a:	e1 f7       	brne	.-8      	; 0xa34 <action_lcd+0x30>
     a3c:	c0 e0       	ldi	r28, 0x00	; 0
     a3e:	d0 e0       	ldi	r29, 0x00	; 0
     a40:	38 e6       	ldi	r19, 0x68	; 104
     a42:	c3 2e       	mov	r12, r19
     a44:	34 e1       	ldi	r19, 0x14	; 20
     a46:	d3 2e       	mov	r13, r19
     a48:	26 e3       	ldi	r18, 0x36	; 54
     a4a:	e2 2e       	mov	r14, r18
     a4c:	23 e0       	ldi	r18, 0x03	; 3
     a4e:	f2 2e       	mov	r15, r18
     a50:	93 eb       	ldi	r25, 0xB3	; 179
     a52:	a9 2e       	mov	r10, r25
     a54:	94 e1       	ldi	r25, 0x14	; 20
     a56:	b9 2e       	mov	r11, r25
     a58:	85 e0       	ldi	r24, 0x05	; 5
     a5a:	88 2e       	mov	r8, r24
     a5c:	91 2c       	mov	r9, r1
     a5e:	8e 0c       	add	r8, r14
     a60:	9f 1c       	adc	r9, r15
     a62:	cc 23       	and	r28, r28
     a64:	09 f4       	brne	.+2      	; 0xa68 <action_lcd+0x64>
     a66:	53 c0       	rjmp	.+166    	; 0xb0e <action_lcd+0x10a>
     a68:	b5 01       	movw	r22, r10
     a6a:	d4 01       	movw	r26, r8
     a6c:	10 e0       	ldi	r17, 0x00	; 0
     a6e:	ed 91       	ld	r30, X+
     a70:	f0 e0       	ldi	r31, 0x00	; 0
     a72:	e8 5b       	subi	r30, 0xB8	; 184
     a74:	fb 4e       	sbci	r31, 0xEB	; 235
     a76:	84 91       	lpm	r24, Z
     a78:	88 23       	and	r24, r24
     a7a:	a9 f0       	breq	.+42     	; 0xaa6 <action_lcd+0xa2>
     a7c:	ab 01       	movw	r20, r22
     a7e:	4f 5f       	subi	r20, 0xFF	; 255
     a80:	5f 4f       	sbci	r21, 0xFF	; 255
     a82:	38 2f       	mov	r19, r24
     a84:	02 c0       	rjmp	.+4      	; 0xa8a <action_lcd+0x86>
     a86:	4e 5f       	subi	r20, 0xFE	; 254
     a88:	5f 4f       	sbci	r21, 0xFF	; 255
     a8a:	30 ff       	sbrs	r19, 0
     a8c:	0a c0       	rjmp	.+20     	; 0xaa2 <action_lcd+0x9e>
     a8e:	fa 01       	movw	r30, r20
     a90:	85 91       	lpm	r24, Z+
     a92:	94 91       	lpm	r25, Z
     a94:	fc 01       	movw	r30, r24
     a96:	f0 70       	andi	r31, 0x00	; 0
     a98:	20 81       	ld	r18, Z
     a9a:	89 2f       	mov	r24, r25
     a9c:	99 27       	eor	r25, r25
     a9e:	28 2b       	or	r18, r24
     aa0:	20 83       	st	Z, r18
     aa2:	36 95       	lsr	r19
     aa4:	81 f7       	brne	.-32     	; 0xa86 <action_lcd+0x82>
     aa6:	1f 5f       	subi	r17, 0xFF	; 255
     aa8:	15 30       	cpi	r17, 0x05	; 5
     aaa:	19 f0       	breq	.+6      	; 0xab2 <action_lcd+0xae>
     aac:	61 5f       	subi	r22, 0xF1	; 241
     aae:	7f 4f       	sbci	r23, 0xFF	; 255
     ab0:	de cf       	rjmp	.-68     	; 0xa6e <action_lcd+0x6a>
     ab2:	21 96       	adiw	r28, 0x01	; 1
     ab4:	c2 30       	cpi	r28, 0x02	; 2
     ab6:	d1 05       	cpc	r29, r1
     ab8:	a1 f6       	brne	.-88     	; 0xa62 <action_lcd+0x5e>
     aba:	a0 e4       	ldi	r26, 0x40	; 64
     abc:	b3 e0       	ldi	r27, 0x03	; 3
     abe:	30 e0       	ldi	r19, 0x00	; 0
     ac0:	6e ef       	ldi	r22, 0xFE	; 254
     ac2:	74 e1       	ldi	r23, 0x14	; 20
     ac4:	40 e0       	ldi	r20, 0x00	; 0
     ac6:	50 e0       	ldi	r21, 0x00	; 0
     ac8:	02 c0       	rjmp	.+4      	; 0xace <action_lcd+0xca>
     aca:	6e 5f       	subi	r22, 0xFE	; 254
     acc:	7f 4f       	sbci	r23, 0xFF	; 255
     ace:	ca 01       	movw	r24, r20
     ad0:	87 70       	andi	r24, 0x07	; 7
     ad2:	90 70       	andi	r25, 0x00	; 0
     ad4:	89 2b       	or	r24, r25
     ad6:	09 f4       	brne	.+2      	; 0xada <action_lcd+0xd6>
     ad8:	3d 91       	ld	r19, X+
     ada:	30 ff       	sbrs	r19, 0
     adc:	0a c0       	rjmp	.+20     	; 0xaf2 <action_lcd+0xee>
     ade:	fb 01       	movw	r30, r22
     ae0:	85 91       	lpm	r24, Z+
     ae2:	94 91       	lpm	r25, Z
     ae4:	fc 01       	movw	r30, r24
     ae6:	f0 70       	andi	r31, 0x00	; 0
     ae8:	20 81       	ld	r18, Z
     aea:	89 2f       	mov	r24, r25
     aec:	99 27       	eor	r25, r25
     aee:	28 2b       	or	r18, r24
     af0:	20 83       	st	Z, r18
     af2:	4f 5f       	subi	r20, 0xFF	; 255
     af4:	5f 4f       	sbci	r21, 0xFF	; 255
     af6:	40 32       	cpi	r20, 0x20	; 32
     af8:	51 05       	cpc	r21, r1
     afa:	39 f7       	brne	.-50     	; 0xaca <action_lcd+0xc6>
     afc:	80 91 b4 03 	lds	r24, 0x03B4
     b00:	81 31       	cpi	r24, 0x11	; 17
     b02:	41 f0       	breq	.+16     	; 0xb14 <action_lcd+0x110>
     b04:	8a ef       	ldi	r24, 0xFA	; 250
     b06:	93 e0       	ldi	r25, 0x03	; 3
     b08:	0e 94 c5 00 	call	0x18a	; 0x18a <FATAL_TRAP>
     b0c:	03 c0       	rjmp	.+6      	; 0xb14 <action_lcd+0x110>
     b0e:	b6 01       	movw	r22, r12
     b10:	d7 01       	movw	r26, r14
     b12:	ac cf       	rjmp	.-168    	; 0xa6c <action_lcd+0x68>
     b14:	82 e0       	ldi	r24, 0x02	; 2
     b16:	80 93 b6 03 	sts	0x03B6, r24
     b1a:	df 91       	pop	r29
     b1c:	cf 91       	pop	r28
     b1e:	1f 91       	pop	r17
     b20:	ff 90       	pop	r15
     b22:	ef 90       	pop	r14
     b24:	df 90       	pop	r13
     b26:	cf 90       	pop	r12
     b28:	bf 90       	pop	r11
     b2a:	af 90       	pop	r10
     b2c:	9f 90       	pop	r9
     b2e:	8f 90       	pop	r8
     b30:	08 95       	ret

00000b32 <action_apd_off>:
     b32:	80 91 b4 03 	lds	r24, 0x03B4
     b36:	83 30       	cpi	r24, 0x03	; 3
     b38:	e0 f3       	brcs	.-8      	; 0xb32 <action_apd_off>
     b3a:	82 e2       	ldi	r24, 0x22	; 34
     b3c:	80 93 b7 03 	sts	0x03B7, r24
     b40:	10 92 b8 03 	sts	0x03B8, r1
     b44:	0e 94 4c 04 	call	0x898	; 0x898 <spi_read_curr>
     b48:	66 e7       	ldi	r22, 0x76	; 118
     b4a:	86 e1       	ldi	r24, 0x16	; 22
     b4c:	0e 94 46 03 	call	0x68c	; 0x68c <spi_set_byte>
     b50:	80 91 22 03 	lds	r24, 0x0322
     b54:	80 31       	cpi	r24, 0x10	; 16
     b56:	f9 f4       	brne	.+62     	; 0xb96 <action_apd_off+0x64>
     b58:	80 91 23 03 	lds	r24, 0x0323
     b5c:	88 23       	and	r24, r24
     b5e:	d9 f4       	brne	.+54     	; 0xb96 <action_apd_off+0x64>
     b60:	60 91 1c 03 	lds	r22, 0x031C
     b64:	86 2f       	mov	r24, r22
     b66:	80 7c       	andi	r24, 0xC0	; 192
     b68:	80 3c       	cpi	r24, 0xC0	; 192
     b6a:	69 f1       	breq	.+90     	; 0xbc6 <action_apd_off+0x94>
     b6c:	80 91 21 03 	lds	r24, 0x0321
     b70:	88 23       	and	r24, r24
     b72:	b9 f4       	brne	.+46     	; 0xba2 <action_apd_off+0x70>
     b74:	60 91 1c 03 	lds	r22, 0x031C
     b78:	65 fd       	sbrc	r22, 5
     b7a:	20 c0       	rjmp	.+64     	; 0xbbc <action_apd_off+0x8a>
     b7c:	66 ef       	ldi	r22, 0xF6	; 246
     b7e:	86 e1       	ldi	r24, 0x16	; 22
     b80:	0e 94 46 03 	call	0x68c	; 0x68c <spi_set_byte>
     b84:	80 91 b4 03 	lds	r24, 0x03B4
     b88:	83 30       	cpi	r24, 0x03	; 3
     b8a:	21 f1       	breq	.+72     	; 0xbd4 <action_apd_off+0xa2>
     b8c:	84 ef       	ldi	r24, 0xF4	; 244
     b8e:	92 e0       	ldi	r25, 0x02	; 2
     b90:	0e 94 c5 00 	call	0x18a	; 0x18a <FATAL_TRAP>
     b94:	1f c0       	rjmp	.+62     	; 0xbd4 <action_apd_off+0xa2>
     b96:	40 e0       	ldi	r20, 0x00	; 0
     b98:	60 e1       	ldi	r22, 0x10	; 16
     b9a:	82 e1       	ldi	r24, 0x12	; 18
     b9c:	0e 94 73 03 	call	0x6e6	; 0x6e6 <spi_set_2bytes>
     ba0:	df cf       	rjmp	.-66     	; 0xb60 <action_apd_off+0x2e>
     ba2:	60 e0       	ldi	r22, 0x00	; 0
     ba4:	80 e1       	ldi	r24, 0x10	; 16
     ba6:	0e 94 46 03 	call	0x68c	; 0x68c <spi_set_byte>
     baa:	60 91 1c 03 	lds	r22, 0x031C
     bae:	6f 7e       	andi	r22, 0xEF	; 239
     bb0:	60 93 1c 03 	sts	0x031C, r22
     bb4:	86 e0       	ldi	r24, 0x06	; 6
     bb6:	0e 94 46 03 	call	0x68c	; 0x68c <spi_set_byte>
     bba:	dc cf       	rjmp	.-72     	; 0xb74 <action_apd_off+0x42>
     bbc:	6f 7d       	andi	r22, 0xDF	; 223
     bbe:	86 e0       	ldi	r24, 0x06	; 6
     bc0:	0e 94 46 03 	call	0x68c	; 0x68c <spi_set_byte>
     bc4:	db cf       	rjmp	.-74     	; 0xb7c <action_apd_off+0x4a>
     bc6:	6f 73       	andi	r22, 0x3F	; 63
     bc8:	60 93 1c 03 	sts	0x031C, r22
     bcc:	86 e0       	ldi	r24, 0x06	; 6
     bce:	0e 94 46 03 	call	0x68c	; 0x68c <spi_set_byte>
     bd2:	cc cf       	rjmp	.-104    	; 0xb6c <action_apd_off+0x3a>
     bd4:	82 e0       	ldi	r24, 0x02	; 2
     bd6:	80 93 b6 03 	sts	0x03B6, r24
     bda:	08 95       	ret

00000bdc <action_laser_off>:
     bdc:	80 91 b4 03 	lds	r24, 0x03B4
     be0:	83 30       	cpi	r24, 0x03	; 3
     be2:	e0 f3       	brcs	.-8      	; 0xbdc <action_laser_off>
     be4:	83 e3       	ldi	r24, 0x33	; 51
     be6:	80 93 b7 03 	sts	0x03B7, r24
     bea:	10 92 b8 03 	sts	0x03B8, r1
     bee:	0e 94 4c 04 	call	0x898	; 0x898 <spi_read_curr>
     bf2:	80 91 21 03 	lds	r24, 0x0321
     bf6:	88 23       	and	r24, r24
     bf8:	89 f4       	brne	.+34     	; 0xc1c <action_laser_off+0x40>
     bfa:	60 91 1c 03 	lds	r22, 0x031C
     bfe:	26 2f       	mov	r18, r22
     c00:	86 2f       	mov	r24, r22
     c02:	80 7c       	andi	r24, 0xC0	; 192
     c04:	e9 f4       	brne	.+58     	; 0xc40 <action_laser_off+0x64>
     c06:	24 fd       	sbrc	r18, 4
     c08:	16 c0       	rjmp	.+44     	; 0xc36 <action_laser_off+0x5a>
     c0a:	80 91 b4 03 	lds	r24, 0x03B4
     c0e:	83 30       	cpi	r24, 0x03	; 3
     c10:	f9 f0       	breq	.+62     	; 0xc50 <action_laser_off+0x74>
     c12:	8b e0       	ldi	r24, 0x0B	; 11
     c14:	92 e0       	ldi	r25, 0x02	; 2
     c16:	0e 94 c5 00 	call	0x18a	; 0x18a <FATAL_TRAP>
     c1a:	1a c0       	rjmp	.+52     	; 0xc50 <action_laser_off+0x74>
     c1c:	66 e7       	ldi	r22, 0x76	; 118
     c1e:	86 e1       	ldi	r24, 0x16	; 22
     c20:	0e 94 46 03 	call	0x68c	; 0x68c <spi_set_byte>
     c24:	60 e0       	ldi	r22, 0x00	; 0
     c26:	80 e1       	ldi	r24, 0x10	; 16
     c28:	0e 94 46 03 	call	0x68c	; 0x68c <spi_set_byte>
     c2c:	66 ef       	ldi	r22, 0xF6	; 246
     c2e:	86 e1       	ldi	r24, 0x16	; 22
     c30:	0e 94 46 03 	call	0x68c	; 0x68c <spi_set_byte>
     c34:	e2 cf       	rjmp	.-60     	; 0xbfa <action_laser_off+0x1e>
     c36:	6f 7e       	andi	r22, 0xEF	; 239
     c38:	86 e0       	ldi	r24, 0x06	; 6
     c3a:	0e 94 46 03 	call	0x68c	; 0x68c <spi_set_byte>
     c3e:	e5 cf       	rjmp	.-54     	; 0xc0a <action_laser_off+0x2e>
     c40:	6f 73       	andi	r22, 0x3F	; 63
     c42:	86 e0       	ldi	r24, 0x06	; 6
     c44:	0e 94 46 03 	call	0x68c	; 0x68c <spi_set_byte>
     c48:	60 91 1c 03 	lds	r22, 0x031C
     c4c:	26 2f       	mov	r18, r22
     c4e:	db cf       	rjmp	.-74     	; 0xc06 <action_laser_off+0x2a>
     c50:	82 e0       	ldi	r24, 0x02	; 2
     c52:	80 93 b6 03 	sts	0x03B6, r24
     c56:	08 95       	ret

00000c58 <action_laser_aim>:
     c58:	1f 93       	push	r17
     c5a:	80 91 b4 03 	lds	r24, 0x03B4
     c5e:	84 30       	cpi	r24, 0x04	; 4
     c60:	e0 f3       	brcs	.-8      	; 0xc5a <action_laser_aim+0x2>
     c62:	10 91 36 03 	lds	r17, 0x0336
     c66:	82 e3       	ldi	r24, 0x32	; 50
     c68:	80 93 b7 03 	sts	0x03B7, r24
     c6c:	81 e0       	ldi	r24, 0x01	; 1
     c6e:	80 93 b8 03 	sts	0x03B8, r24
     c72:	0e 94 4c 04 	call	0x898	; 0x898 <spi_read_curr>
     c76:	12 30       	cpi	r17, 0x02	; 2
     c78:	31 f1       	breq	.+76     	; 0xcc6 <action_laser_aim+0x6e>
     c7a:	10 93 b9 03 	sts	0x03B9, r17
     c7e:	11 30       	cpi	r17, 0x01	; 1
     c80:	49 f1       	breq	.+82     	; 0xcd4 <action_laser_aim+0x7c>
     c82:	80 91 21 03 	lds	r24, 0x0321
     c86:	88 23       	and	r24, r24
     c88:	61 f0       	breq	.+24     	; 0xca2 <action_laser_aim+0x4a>
     c8a:	66 e7       	ldi	r22, 0x76	; 118
     c8c:	86 e1       	ldi	r24, 0x16	; 22
     c8e:	0e 94 46 03 	call	0x68c	; 0x68c <spi_set_byte>
     c92:	60 e0       	ldi	r22, 0x00	; 0
     c94:	80 e1       	ldi	r24, 0x10	; 16
     c96:	0e 94 46 03 	call	0x68c	; 0x68c <spi_set_byte>
     c9a:	66 ef       	ldi	r22, 0xF6	; 246
     c9c:	86 e1       	ldi	r24, 0x16	; 22
     c9e:	0e 94 46 03 	call	0x68c	; 0x68c <spi_set_byte>
     ca2:	60 91 1c 03 	lds	r22, 0x031C
     ca6:	64 fd       	sbrc	r22, 4
     ca8:	09 c0       	rjmp	.+18     	; 0xcbc <action_laser_aim+0x64>
     caa:	80 91 b4 03 	lds	r24, 0x03B4
     cae:	84 30       	cpi	r24, 0x04	; 4
     cb0:	71 f1       	breq	.+92     	; 0xd0e <action_laser_aim+0xb6>
     cb2:	85 ed       	ldi	r24, 0xD5	; 213
     cb4:	91 e0       	ldi	r25, 0x01	; 1
     cb6:	0e 94 c5 00 	call	0x18a	; 0x18a <FATAL_TRAP>
     cba:	29 c0       	rjmp	.+82     	; 0xd0e <action_laser_aim+0xb6>
     cbc:	6f 7e       	andi	r22, 0xEF	; 239
     cbe:	86 e0       	ldi	r24, 0x06	; 6
     cc0:	0e 94 46 03 	call	0x68c	; 0x68c <spi_set_byte>
     cc4:	f2 cf       	rjmp	.-28     	; 0xcaa <action_laser_aim+0x52>
     cc6:	80 91 21 03 	lds	r24, 0x0321
     cca:	8b 3a       	cpi	r24, 0xAB	; 171
     ccc:	e9 f0       	breq	.+58     	; 0xd08 <action_laser_aim+0xb0>
     cce:	81 e0       	ldi	r24, 0x01	; 1
     cd0:	80 93 b9 03 	sts	0x03B9, r24
     cd4:	60 91 1c 03 	lds	r22, 0x031C
     cd8:	64 ff       	sbrs	r22, 4
     cda:	11 c0       	rjmp	.+34     	; 0xcfe <action_laser_aim+0xa6>
     cdc:	80 91 21 03 	lds	r24, 0x0321
     ce0:	8b 3a       	cpi	r24, 0xAB	; 171
     ce2:	19 f3       	breq	.-58     	; 0xcaa <action_laser_aim+0x52>
     ce4:	66 e7       	ldi	r22, 0x76	; 118
     ce6:	86 e1       	ldi	r24, 0x16	; 22
     ce8:	0e 94 46 03 	call	0x68c	; 0x68c <spi_set_byte>
     cec:	6b ea       	ldi	r22, 0xAB	; 171
     cee:	80 e1       	ldi	r24, 0x10	; 16
     cf0:	0e 94 46 03 	call	0x68c	; 0x68c <spi_set_byte>
     cf4:	66 ef       	ldi	r22, 0xF6	; 246
     cf6:	86 e1       	ldi	r24, 0x16	; 22
     cf8:	0e 94 46 03 	call	0x68c	; 0x68c <spi_set_byte>
     cfc:	d6 cf       	rjmp	.-84     	; 0xcaa <action_laser_aim+0x52>
     cfe:	60 61       	ori	r22, 0x10	; 16
     d00:	86 e0       	ldi	r24, 0x06	; 6
     d02:	0e 94 46 03 	call	0x68c	; 0x68c <spi_set_byte>
     d06:	ea cf       	rjmp	.-44     	; 0xcdc <action_laser_aim+0x84>
     d08:	10 92 b9 03 	sts	0x03B9, r1
     d0c:	be cf       	rjmp	.-132    	; 0xc8a <action_laser_aim+0x32>
     d0e:	83 e0       	ldi	r24, 0x03	; 3
     d10:	80 93 b6 03 	sts	0x03B6, r24
     d14:	1f 91       	pop	r17
     d16:	08 95       	ret

00000d18 <action_curtain>:
     d18:	80 91 b4 03 	lds	r24, 0x03B4
     d1c:	84 30       	cpi	r24, 0x04	; 4
     d1e:	e0 f3       	brcs	.-8      	; 0xd18 <action_curtain>
     d20:	90 91 36 03 	lds	r25, 0x0336
     d24:	92 30       	cpi	r25, 0x02	; 2
     d26:	09 f4       	brne	.+2      	; 0xd2a <action_curtain+0x12>
     d28:	35 c0       	rjmp	.+106    	; 0xd94 <action_curtain+0x7c>
     d2a:	81 b3       	in	r24, 0x11	; 17
     d2c:	80 63       	ori	r24, 0x30	; 48
     d2e:	81 bb       	out	0x11, r24	; 17
     d30:	80 b3       	in	r24, 0x10	; 16
     d32:	80 63       	ori	r24, 0x30	; 48
     d34:	80 bb       	out	0x10, r24	; 16
     d36:	85 b7       	in	r24, 0x35	; 53
     d38:	80 68       	ori	r24, 0x80	; 128
     d3a:	85 bf       	out	0x35, r24	; 53
     d3c:	85 bf       	out	0x35, r24	; 53
	...
     d4e:	99 23       	and	r25, r25
     d50:	f9 f4       	brne	.+62     	; 0xd90 <action_curtain+0x78>
     d52:	8d 98       	cbi	0x11, 5	; 17
     d54:	80 ed       	ldi	r24, 0xD0	; 208
     d56:	80 93 13 03 	sts	0x0313, r24
     d5a:	80 91 13 03 	lds	r24, 0x0313
     d5e:	88 23       	and	r24, r24
     d60:	e1 f7       	brne	.-8      	; 0xd5a <action_curtain+0x42>
     d62:	81 b3       	in	r24, 0x11	; 17
     d64:	80 63       	ori	r24, 0x30	; 48
     d66:	81 bb       	out	0x11, r24	; 17
     d68:	81 e4       	ldi	r24, 0x41	; 65
     d6a:	80 93 b7 03 	sts	0x03B7, r24
     d6e:	81 e0       	ldi	r24, 0x01	; 1
     d70:	80 93 b8 03 	sts	0x03B8, r24
     d74:	90 93 b9 03 	sts	0x03B9, r25
     d78:	83 e0       	ldi	r24, 0x03	; 3
     d7a:	80 93 b6 03 	sts	0x03B6, r24
     d7e:	80 91 b4 03 	lds	r24, 0x03B4
     d82:	84 30       	cpi	r24, 0x04	; 4
     d84:	21 f0       	breq	.+8      	; 0xd8e <action_curtain+0x76>
     d86:	80 e8       	ldi	r24, 0x80	; 128
     d88:	91 e0       	ldi	r25, 0x01	; 1
     d8a:	0e 94 c5 00 	call	0x18a	; 0x18a <FATAL_TRAP>
     d8e:	08 95       	ret
     d90:	8c 98       	cbi	0x11, 4	; 17
     d92:	e0 cf       	rjmp	.-64     	; 0xd54 <action_curtain+0x3c>
     d94:	85 b7       	in	r24, 0x35	; 53
     d96:	8f 77       	andi	r24, 0x7F	; 127
     d98:	85 bf       	out	0x35, r24	; 53
     d9a:	85 bf       	out	0x35, r24	; 53
     d9c:	e5 cf       	rjmp	.-54     	; 0xd68 <action_curtain+0x50>

00000d9e <action_signature>:
     d9e:	80 91 f2 02 	lds	r24, 0x02F2
     da2:	90 91 f3 02 	lds	r25, 0x02F3
     da6:	01 96       	adiw	r24, 0x01	; 1
     da8:	90 93 f3 02 	sts	0x02F3, r25
     dac:	80 93 f2 02 	sts	0x02F2, r24
     db0:	81 e1       	ldi	r24, 0x11	; 17
     db2:	80 93 b7 03 	sts	0x03B7, r24
     db6:	82 e1       	ldi	r24, 0x12	; 18
     db8:	80 93 b8 03 	sts	0x03B8, r24
     dbc:	80 91 00 01 	lds	r24, 0x0100
     dc0:	80 93 b9 03 	sts	0x03B9, r24
     dc4:	80 91 01 01 	lds	r24, 0x0101
     dc8:	80 93 ba 03 	sts	0x03BA, r24
     dcc:	e2 e0       	ldi	r30, 0x02	; 2
     dce:	f1 e0       	ldi	r31, 0x01	; 1
     dd0:	ab eb       	ldi	r26, 0xBB	; 187
     dd2:	b3 e0       	ldi	r27, 0x03	; 3
     dd4:	81 91       	ld	r24, Z+
     dd6:	8d 93       	st	X+, r24
     dd8:	81 e0       	ldi	r24, 0x01	; 1
     dda:	e2 31       	cpi	r30, 0x12	; 18
     ddc:	f8 07       	cpc	r31, r24
     dde:	d1 f7       	brne	.-12     	; 0xdd4 <action_signature+0x36>
     de0:	80 91 b4 03 	lds	r24, 0x03B4
     de4:	82 30       	cpi	r24, 0x02	; 2
     de6:	21 f0       	breq	.+8      	; 0xdf0 <action_signature+0x52>
     de8:	80 e1       	ldi	r24, 0x10	; 16
     dea:	91 e0       	ldi	r25, 0x01	; 1
     dec:	0e 94 c5 00 	call	0x18a	; 0x18a <FATAL_TRAP>
     df0:	84 e1       	ldi	r24, 0x14	; 20
     df2:	80 93 b6 03 	sts	0x03B6, r24
     df6:	08 95       	ret

00000df8 <action_spi_wr>:
     df8:	1f 93       	push	r17
     dfa:	80 91 b4 03 	lds	r24, 0x03B4
     dfe:	83 30       	cpi	r24, 0x03	; 3
     e00:	e0 f3       	brcs	.-8      	; 0xdfa <action_spi_wr+0x2>
     e02:	30 91 35 03 	lds	r19, 0x0335
     e06:	43 2f       	mov	r20, r19
     e08:	4d 5f       	subi	r20, 0xFD	; 253
     e0a:	80 91 b4 03 	lds	r24, 0x03B4
     e0e:	84 17       	cp	r24, r20
     e10:	e0 f3       	brcs	.-8      	; 0xe0a <action_spi_wr+0x12>
     e12:	85 e1       	ldi	r24, 0x15	; 21
     e14:	80 93 b7 03 	sts	0x03B7, r24
     e18:	30 93 b8 03 	sts	0x03B8, r19
     e1c:	73 98       	cbi	0x0e, 3	; 14
     e1e:	33 23       	and	r19, r19
     e20:	e1 f1       	breq	.+120    	; 0xe9a <action_spi_wr+0xa2>
     e22:	a6 e3       	ldi	r26, 0x36	; 54
     e24:	b3 e0       	ldi	r27, 0x03	; 3
     e26:	e9 eb       	ldi	r30, 0xB9	; 185
     e28:	f3 e0       	ldi	r31, 0x03	; 3
     e2a:	20 e0       	ldi	r18, 0x00	; 0
     e2c:	8d 91       	ld	r24, X+
     e2e:	80 93 ba 00 	sts	0x00BA, r24
     e32:	91 e1       	ldi	r25, 0x11	; 17
     e34:	90 93 b8 00 	sts	0x00B8, r25
     e38:	83 e1       	ldi	r24, 0x13	; 19
     e3a:	80 93 b8 00 	sts	0x00B8, r24
     e3e:	90 93 b8 00 	sts	0x00B8, r25
     e42:	80 93 b8 00 	sts	0x00B8, r24
     e46:	90 93 b8 00 	sts	0x00B8, r25
     e4a:	80 93 b8 00 	sts	0x00B8, r24
     e4e:	90 93 b8 00 	sts	0x00B8, r25
     e52:	80 93 b8 00 	sts	0x00B8, r24
     e56:	90 93 b8 00 	sts	0x00B8, r25
     e5a:	80 93 b8 00 	sts	0x00B8, r24
     e5e:	90 93 b8 00 	sts	0x00B8, r25
     e62:	80 93 b8 00 	sts	0x00B8, r24
     e66:	90 93 b8 00 	sts	0x00B8, r25
     e6a:	80 93 b8 00 	sts	0x00B8, r24
     e6e:	90 93 b8 00 	sts	0x00B8, r25
     e72:	80 93 b8 00 	sts	0x00B8, r24
     e76:	80 91 ba 00 	lds	r24, 0x00BA
     e7a:	81 93       	st	Z+, r24
     e7c:	2f 5f       	subi	r18, 0xFF	; 255
     e7e:	23 17       	cp	r18, r19
     e80:	a9 f6       	brne	.-86     	; 0xe2c <action_spi_wr+0x34>
     e82:	13 2f       	mov	r17, r19
     e84:	1e 5f       	subi	r17, 0xFE	; 254
     e86:	73 9a       	sbi	0x0e, 3	; 14
     e88:	80 91 b4 03 	lds	r24, 0x03B4
     e8c:	84 17       	cp	r24, r20
     e8e:	39 f0       	breq	.+14     	; 0xe9e <action_spi_wr+0xa6>
     e90:	8e ee       	ldi	r24, 0xEE	; 238
     e92:	90 e0       	ldi	r25, 0x00	; 0
     e94:	0e 94 c5 00 	call	0x18a	; 0x18a <FATAL_TRAP>
     e98:	02 c0       	rjmp	.+4      	; 0xe9e <action_spi_wr+0xa6>
     e9a:	12 e0       	ldi	r17, 0x02	; 2
     e9c:	f4 cf       	rjmp	.-24     	; 0xe86 <action_spi_wr+0x8e>
     e9e:	10 93 b6 03 	sts	0x03B6, r17
     ea2:	1f 91       	pop	r17
     ea4:	08 95       	ret

00000ea6 <action_spi_rd>:
     ea6:	1f 93       	push	r17
     ea8:	80 91 b4 03 	lds	r24, 0x03B4
     eac:	84 30       	cpi	r24, 0x04	; 4
     eae:	e0 f3       	brcs	.-8      	; 0xea8 <action_spi_rd+0x2>
     eb0:	30 91 36 03 	lds	r19, 0x0336
     eb4:	86 e1       	ldi	r24, 0x16	; 22
     eb6:	80 93 b7 03 	sts	0x03B7, r24
     eba:	3f 5f       	subi	r19, 0xFF	; 255
     ebc:	30 93 b8 03 	sts	0x03B8, r19
     ec0:	31 50       	subi	r19, 0x01	; 1
     ec2:	73 98       	cbi	0x0e, 3	; 14
     ec4:	80 e8       	ldi	r24, 0x80	; 128
     ec6:	80 93 ba 00 	sts	0x00BA, r24
     eca:	91 e1       	ldi	r25, 0x11	; 17
     ecc:	90 93 b8 00 	sts	0x00B8, r25
     ed0:	83 e1       	ldi	r24, 0x13	; 19
     ed2:	80 93 b8 00 	sts	0x00B8, r24
     ed6:	90 93 b8 00 	sts	0x00B8, r25
     eda:	80 93 b8 00 	sts	0x00B8, r24
     ede:	90 93 b8 00 	sts	0x00B8, r25
     ee2:	80 93 b8 00 	sts	0x00B8, r24
     ee6:	90 93 b8 00 	sts	0x00B8, r25
     eea:	80 93 b8 00 	sts	0x00B8, r24
     eee:	90 93 b8 00 	sts	0x00B8, r25
     ef2:	80 93 b8 00 	sts	0x00B8, r24
     ef6:	90 93 b8 00 	sts	0x00B8, r25
     efa:	80 93 b8 00 	sts	0x00B8, r24
     efe:	90 93 b8 00 	sts	0x00B8, r25
     f02:	80 93 b8 00 	sts	0x00B8, r24
     f06:	90 93 b8 00 	sts	0x00B8, r25
     f0a:	80 93 b8 00 	sts	0x00B8, r24
     f0e:	80 91 ba 00 	lds	r24, 0x00BA
     f12:	80 93 b9 03 	sts	0x03B9, r24
     f16:	33 23       	and	r19, r19
     f18:	c9 f1       	breq	.+114    	; 0xf8c <action_spi_rd+0xe6>
     f1a:	ea eb       	ldi	r30, 0xBA	; 186
     f1c:	f3 e0       	ldi	r31, 0x03	; 3
     f1e:	20 e0       	ldi	r18, 0x00	; 0
     f20:	10 92 ba 00 	sts	0x00BA, r1
     f24:	91 e1       	ldi	r25, 0x11	; 17
     f26:	90 93 b8 00 	sts	0x00B8, r25
     f2a:	83 e1       	ldi	r24, 0x13	; 19
     f2c:	80 93 b8 00 	sts	0x00B8, r24
     f30:	90 93 b8 00 	sts	0x00B8, r25
     f34:	80 93 b8 00 	sts	0x00B8, r24
     f38:	90 93 b8 00 	sts	0x00B8, r25
     f3c:	80 93 b8 00 	sts	0x00B8, r24
     f40:	90 93 b8 00 	sts	0x00B8, r25
     f44:	80 93 b8 00 	sts	0x00B8, r24
     f48:	90 93 b8 00 	sts	0x00B8, r25
     f4c:	80 93 b8 00 	sts	0x00B8, r24
     f50:	90 93 b8 00 	sts	0x00B8, r25
     f54:	80 93 b8 00 	sts	0x00B8, r24
     f58:	90 93 b8 00 	sts	0x00B8, r25
     f5c:	80 93 b8 00 	sts	0x00B8, r24
     f60:	90 93 b8 00 	sts	0x00B8, r25
     f64:	80 93 b8 00 	sts	0x00B8, r24
     f68:	80 91 ba 00 	lds	r24, 0x00BA
     f6c:	81 93       	st	Z+, r24
     f6e:	2f 5f       	subi	r18, 0xFF	; 255
     f70:	23 17       	cp	r18, r19
     f72:	b1 f6       	brne	.-84     	; 0xf20 <action_spi_rd+0x7a>
     f74:	13 2f       	mov	r17, r19
     f76:	1d 5f       	subi	r17, 0xFD	; 253
     f78:	73 9a       	sbi	0x0e, 3	; 14
     f7a:	80 91 b4 03 	lds	r24, 0x03B4
     f7e:	84 30       	cpi	r24, 0x04	; 4
     f80:	39 f0       	breq	.+14     	; 0xf90 <action_spi_rd+0xea>
     f82:	8d eb       	ldi	r24, 0xBD	; 189
     f84:	90 e0       	ldi	r25, 0x00	; 0
     f86:	0e 94 c5 00 	call	0x18a	; 0x18a <FATAL_TRAP>
     f8a:	02 c0       	rjmp	.+4      	; 0xf90 <action_spi_rd+0xea>
     f8c:	13 e0       	ldi	r17, 0x03	; 3
     f8e:	f4 cf       	rjmp	.-24     	; 0xf78 <action_spi_rd+0xd2>
     f90:	10 93 b6 03 	sts	0x03B6, r17
     f94:	1f 91       	pop	r17
     f96:	08 95       	ret

00000f98 <action_measure>:
     f98:	cf 93       	push	r28
     f9a:	df 93       	push	r29
     f9c:	80 91 b4 03 	lds	r24, 0x03B4
     fa0:	84 30       	cpi	r24, 0x04	; 4
     fa2:	e0 f3       	brcs	.-8      	; 0xf9c <action_measure+0x4>
     fa4:	81 e5       	ldi	r24, 0x51	; 81
     fa6:	80 93 b7 03 	sts	0x03B7, r24
     faa:	86 e0       	ldi	r24, 0x06	; 6
     fac:	80 93 b8 03 	sts	0x03B8, r24
     fb0:	10 92 b9 03 	sts	0x03B9, r1
     fb4:	80 91 66 01 	lds	r24, 0x0166
     fb8:	90 91 67 01 	lds	r25, 0x0167
     fbc:	89 2b       	or	r24, r25
     fbe:	59 f0       	breq	.+22     	; 0xfd6 <action_measure+0x3e>
     fc0:	e6 e6       	ldi	r30, 0x66	; 102
     fc2:	f1 e0       	ldi	r31, 0x01	; 1
     fc4:	20 e0       	ldi	r18, 0x00	; 0
     fc6:	38 96       	adiw	r30, 0x08	; 8
     fc8:	2f 5f       	subi	r18, 0xFF	; 255
     fca:	80 81       	ld	r24, Z
     fcc:	91 81       	ldd	r25, Z+1	; 0x01
     fce:	89 2b       	or	r24, r25
     fd0:	d1 f7       	brne	.-12     	; 0xfc6 <action_measure+0x2e>
     fd2:	20 93 b9 03 	sts	0x03B9, r18
     fd6:	80 e4       	ldi	r24, 0x40	; 64
     fd8:	80 93 ba 03 	sts	0x03BA, r24
     fdc:	80 e1       	ldi	r24, 0x10	; 16
     fde:	80 93 bb 03 	sts	0x03BB, r24
     fe2:	80 91 36 03 	lds	r24, 0x0336
     fe6:	80 93 bc 03 	sts	0x03BC, r24
     fea:	80 91 b8 03 	lds	r24, 0x03B8
     fee:	0e 94 3b 04 	call	0x876	; 0x876 <send_out_msg>
     ff2:	0e 94 4c 04 	call	0x898	; 0x898 <spi_read_curr>
     ff6:	60 91 1c 03 	lds	r22, 0x031C
     ffa:	64 ff       	sbrs	r22, 4
     ffc:	76 c0       	rjmp	.+236    	; 0x10ea <action_measure+0x152>
     ffe:	89 e2       	ldi	r24, 0x29	; 41
    1000:	80 93 13 03 	sts	0x0313, r24
    1004:	80 91 13 03 	lds	r24, 0x0313
    1008:	88 23       	and	r24, r24
    100a:	e1 f7       	brne	.-8      	; 0x1004 <action_measure+0x6c>
    100c:	80 91 21 03 	lds	r24, 0x0321
    1010:	86 36       	cpi	r24, 0x66	; 102
    1012:	61 f0       	breq	.+24     	; 0x102c <action_measure+0x94>
    1014:	66 e7       	ldi	r22, 0x76	; 118
    1016:	86 e1       	ldi	r24, 0x16	; 22
    1018:	0e 94 46 03 	call	0x68c	; 0x68c <spi_set_byte>
    101c:	66 e6       	ldi	r22, 0x66	; 102
    101e:	80 e1       	ldi	r24, 0x10	; 16
    1020:	0e 94 46 03 	call	0x68c	; 0x68c <spi_set_byte>
    1024:	66 ef       	ldi	r22, 0xF6	; 246
    1026:	86 e1       	ldi	r24, 0x16	; 22
    1028:	0e 94 46 03 	call	0x68c	; 0x68c <spi_set_byte>
    102c:	89 e2       	ldi	r24, 0x29	; 41
    102e:	80 93 13 03 	sts	0x0313, r24
    1032:	80 91 13 03 	lds	r24, 0x0313
    1036:	88 23       	and	r24, r24
    1038:	e1 f7       	brne	.-8      	; 0x1032 <action_measure+0x9a>
    103a:	60 91 1c 03 	lds	r22, 0x031C
    103e:	86 2f       	mov	r24, r22
    1040:	80 7c       	andi	r24, 0xC0	; 192
    1042:	80 3c       	cpi	r24, 0xC0	; 192
    1044:	31 f0       	breq	.+12     	; 0x1052 <action_measure+0xba>
    1046:	60 6c       	ori	r22, 0xC0	; 192
    1048:	60 93 1c 03 	sts	0x031C, r22
    104c:	86 e0       	ldi	r24, 0x06	; 6
    104e:	0e 94 46 03 	call	0x68c	; 0x68c <spi_set_byte>
    1052:	89 e2       	ldi	r24, 0x29	; 41
    1054:	80 93 13 03 	sts	0x0313, r24
    1058:	80 91 13 03 	lds	r24, 0x0313
    105c:	88 23       	and	r24, r24
    105e:	e1 f7       	brne	.-8      	; 0x1058 <action_measure+0xc0>
    1060:	12 98       	cbi	0x02, 2	; 2
    1062:	40 91 66 01 	lds	r20, 0x0166
    1066:	50 91 67 01 	lds	r21, 0x0167
    106a:	41 15       	cp	r20, r1
    106c:	51 05       	cpc	r21, r1
    106e:	d1 f0       	breq	.+52     	; 0x10a4 <action_measure+0x10c>
    1070:	c6 e6       	ldi	r28, 0x66	; 102
    1072:	d1 e0       	ldi	r29, 0x01	; 1
    1074:	65 2f       	mov	r22, r21
    1076:	77 27       	eor	r23, r23
    1078:	82 e0       	ldi	r24, 0x02	; 2
    107a:	0e 94 73 03 	call	0x6e6	; 0x6e6 <spi_set_2bytes>
    107e:	80 91 36 03 	lds	r24, 0x0336
    1082:	81 70       	andi	r24, 0x01	; 1
    1084:	0e 94 4d 00 	call	0x9a	; 0x9a <activate_adc_isr>
    1088:	80 91 7a 00 	lds	r24, 0x007A
    108c:	87 fd       	sbrc	r24, 7
    108e:	fc cf       	rjmp	.-8      	; 0x1088 <action_measure+0xf0>
    1090:	80 91 36 03 	lds	r24, 0x0336
    1094:	81 fd       	sbrc	r24, 1
    1096:	10 c0       	rjmp	.+32     	; 0x10b8 <action_measure+0x120>
    1098:	28 96       	adiw	r28, 0x08	; 8
    109a:	48 81       	ld	r20, Y
    109c:	59 81       	ldd	r21, Y+1	; 0x01
    109e:	41 15       	cp	r20, r1
    10a0:	51 05       	cpc	r21, r1
    10a2:	41 f7       	brne	.-48     	; 0x1074 <action_measure+0xdc>
    10a4:	12 9a       	sbi	0x02, 2	; 2
    10a6:	80 91 b4 03 	lds	r24, 0x03B4
    10aa:	84 30       	cpi	r24, 0x04	; 4
    10ac:	29 f1       	breq	.+74     	; 0x10f8 <action_measure+0x160>
    10ae:	83 e8       	ldi	r24, 0x83	; 131
    10b0:	93 e0       	ldi	r25, 0x03	; 3
    10b2:	0e 94 c5 00 	call	0x18a	; 0x18a <FATAL_TRAP>
    10b6:	20 c0       	rjmp	.+64     	; 0x10f8 <action_measure+0x160>
    10b8:	ce 01       	movw	r24, r28
    10ba:	0e 94 03 04 	call	0x806	; 0x806 <calc_sincos>
    10be:	8c 81       	ldd	r24, Y+4	; 0x04
    10c0:	9d 81       	ldd	r25, Y+5	; 0x05
    10c2:	80 93 b7 03 	sts	0x03B7, r24
    10c6:	89 2f       	mov	r24, r25
    10c8:	99 0f       	add	r25, r25
    10ca:	99 0b       	sbc	r25, r25
    10cc:	80 93 b8 03 	sts	0x03B8, r24
    10d0:	8a 81       	ldd	r24, Y+2	; 0x02
    10d2:	9b 81       	ldd	r25, Y+3	; 0x03
    10d4:	80 93 b9 03 	sts	0x03B9, r24
    10d8:	89 2f       	mov	r24, r25
    10da:	99 0f       	add	r25, r25
    10dc:	99 0b       	sbc	r25, r25
    10de:	80 93 ba 03 	sts	0x03BA, r24
    10e2:	84 e0       	ldi	r24, 0x04	; 4
    10e4:	0e 94 3b 04 	call	0x876	; 0x876 <send_out_msg>
    10e8:	d7 cf       	rjmp	.-82     	; 0x1098 <action_measure+0x100>
    10ea:	60 61       	ori	r22, 0x10	; 16
    10ec:	60 93 1c 03 	sts	0x031C, r22
    10f0:	86 e0       	ldi	r24, 0x06	; 6
    10f2:	0e 94 46 03 	call	0x68c	; 0x68c <spi_set_byte>
    10f6:	83 cf       	rjmp	.-250    	; 0xffe <action_measure+0x66>
    10f8:	df 91       	pop	r29
    10fa:	cf 91       	pop	r28
    10fc:	08 95       	ret

000010fe <action_apd_on>:
    10fe:	cf 93       	push	r28
    1100:	df 93       	push	r29
    1102:	cd b7       	in	r28, 0x3d	; 61
    1104:	de b7       	in	r29, 0x3e	; 62
    1106:	28 97       	sbiw	r28, 0x08	; 8
    1108:	0f b6       	in	r0, 0x3f	; 63
    110a:	f8 94       	cli
    110c:	de bf       	out	0x3e, r29	; 62
    110e:	0f be       	out	0x3f, r0	; 63
    1110:	cd bf       	out	0x3d, r28	; 61
    1112:	80 91 b4 03 	lds	r24, 0x03B4
    1116:	85 30       	cpi	r24, 0x05	; 5
    1118:	e0 f3       	brcs	.-8      	; 0x1112 <action_apd_on+0x14>
    111a:	81 e2       	ldi	r24, 0x21	; 33
    111c:	80 93 b7 03 	sts	0x03B7, r24
    1120:	86 e0       	ldi	r24, 0x06	; 6
    1122:	80 93 b8 03 	sts	0x03B8, r24
    1126:	0e 94 4c 04 	call	0x898	; 0x898 <spi_read_curr>
    112a:	60 91 1c 03 	lds	r22, 0x031C
    112e:	86 2f       	mov	r24, r22
    1130:	65 ff       	sbrs	r22, 5
    1132:	89 c0       	rjmp	.+274    	; 0x1246 <action_apd_on+0x148>
    1134:	84 ff       	sbrs	r24, 4
    1136:	79 c0       	rjmp	.+242    	; 0x122a <action_apd_on+0x12c>
    1138:	80 91 21 03 	lds	r24, 0x0321
    113c:	86 36       	cpi	r24, 0x66	; 102
    113e:	61 f0       	breq	.+24     	; 0x1158 <action_apd_on+0x5a>
    1140:	66 e7       	ldi	r22, 0x76	; 118
    1142:	86 e1       	ldi	r24, 0x16	; 22
    1144:	0e 94 46 03 	call	0x68c	; 0x68c <spi_set_byte>
    1148:	66 e6       	ldi	r22, 0x66	; 102
    114a:	80 e1       	ldi	r24, 0x10	; 16
    114c:	0e 94 46 03 	call	0x68c	; 0x68c <spi_set_byte>
    1150:	66 ef       	ldi	r22, 0xF6	; 246
    1152:	86 e1       	ldi	r24, 0x16	; 22
    1154:	0e 94 46 03 	call	0x68c	; 0x68c <spi_set_byte>
    1158:	60 91 1c 03 	lds	r22, 0x031C
    115c:	86 2f       	mov	r24, r22
    115e:	80 7c       	andi	r24, 0xC0	; 192
    1160:	80 3c       	cpi	r24, 0xC0	; 192
    1162:	31 f0       	breq	.+12     	; 0x1170 <action_apd_on+0x72>
    1164:	60 6c       	ori	r22, 0xC0	; 192
    1166:	60 93 1c 03 	sts	0x031C, r22
    116a:	86 e0       	ldi	r24, 0x06	; 6
    116c:	0e 94 46 03 	call	0x68c	; 0x68c <spi_set_byte>
    1170:	80 91 37 03 	lds	r24, 0x0337
    1174:	90 e0       	ldi	r25, 0x00	; 0
    1176:	78 2f       	mov	r23, r24
    1178:	66 27       	eor	r22, r22
    117a:	80 91 36 03 	lds	r24, 0x0336
    117e:	90 e0       	ldi	r25, 0x00	; 0
    1180:	68 2b       	or	r22, r24
    1182:	79 2b       	or	r23, r25
    1184:	61 15       	cp	r22, r1
    1186:	71 05       	cpc	r23, r1
    1188:	c1 f0       	breq	.+48     	; 0x11ba <action_apd_on+0xbc>
    118a:	74 ff       	sbrs	r23, 4
    118c:	16 c0       	rjmp	.+44     	; 0x11ba <action_apd_on+0xbc>
    118e:	cb 01       	movw	r24, r22
    1190:	80 70       	andi	r24, 0x00	; 0
    1192:	9f 76       	andi	r25, 0x6F	; 111
    1194:	89 2b       	or	r24, r25
    1196:	89 f4       	brne	.+34     	; 0x11ba <action_apd_on+0xbc>
    1198:	80 91 22 03 	lds	r24, 0x0322
    119c:	90 e0       	ldi	r25, 0x00	; 0
    119e:	38 2f       	mov	r19, r24
    11a0:	22 27       	eor	r18, r18
    11a2:	80 91 23 03 	lds	r24, 0x0323
    11a6:	90 e0       	ldi	r25, 0x00	; 0
    11a8:	28 2b       	or	r18, r24
    11aa:	39 2b       	or	r19, r25
    11ac:	26 17       	cp	r18, r22
    11ae:	37 07       	cpc	r19, r23
    11b0:	08 f0       	brcs	.+2      	; 0x11b4 <action_apd_on+0xb6>
    11b2:	5a c0       	rjmp	.+180    	; 0x1268 <action_apd_on+0x16a>
    11b4:	c9 01       	movw	r24, r18
    11b6:	0e 94 c1 04 	call	0x982	; 0x982 <rise_bias_ctrl>
    11ba:	0e 94 4c 04 	call	0x898	; 0x898 <spi_read_curr>
    11be:	80 91 23 03 	lds	r24, 0x0323
    11c2:	80 93 b9 03 	sts	0x03B9, r24
    11c6:	80 91 22 03 	lds	r24, 0x0322
    11ca:	80 93 ba 03 	sts	0x03BA, r24
    11ce:	83 e5       	ldi	r24, 0x53	; 83
    11d0:	80 93 13 03 	sts	0x0313, r24
    11d4:	80 91 13 03 	lds	r24, 0x0313
    11d8:	88 23       	and	r24, r24
    11da:	e1 f7       	brne	.-8      	; 0x11d4 <action_apd_on+0xd6>
    11dc:	12 98       	cbi	0x02, 2	; 2
    11de:	0e 94 4d 00 	call	0x9a	; 0x9a <activate_adc_isr>
    11e2:	80 91 7a 00 	lds	r24, 0x007A
    11e6:	87 fd       	sbrc	r24, 7
    11e8:	fc cf       	rjmp	.-8      	; 0x11e2 <action_apd_on+0xe4>
    11ea:	12 9a       	sbi	0x02, 2	; 2
    11ec:	ce 01       	movw	r24, r28
    11ee:	01 96       	adiw	r24, 0x01	; 1
    11f0:	0e 94 03 04 	call	0x806	; 0x806 <calc_sincos>
    11f4:	8d 81       	ldd	r24, Y+5	; 0x05
    11f6:	9e 81       	ldd	r25, Y+6	; 0x06
    11f8:	80 93 bb 03 	sts	0x03BB, r24
    11fc:	89 2f       	mov	r24, r25
    11fe:	99 0f       	add	r25, r25
    1200:	99 0b       	sbc	r25, r25
    1202:	80 93 bc 03 	sts	0x03BC, r24
    1206:	8b 81       	ldd	r24, Y+3	; 0x03
    1208:	9c 81       	ldd	r25, Y+4	; 0x04
    120a:	80 93 bd 03 	sts	0x03BD, r24
    120e:	89 2f       	mov	r24, r25
    1210:	99 0f       	add	r25, r25
    1212:	99 0b       	sbc	r25, r25
    1214:	80 93 be 03 	sts	0x03BE, r24
    1218:	80 91 b4 03 	lds	r24, 0x03B4
    121c:	85 30       	cpi	r24, 0x05	; 5
    121e:	41 f1       	breq	.+80     	; 0x1270 <action_apd_on+0x172>
    1220:	82 eb       	ldi	r24, 0xB2	; 178
    1222:	92 e0       	ldi	r25, 0x02	; 2
    1224:	0e 94 c5 00 	call	0x18a	; 0x18a <FATAL_TRAP>
    1228:	23 c0       	rjmp	.+70     	; 0x1270 <action_apd_on+0x172>
    122a:	60 61       	ori	r22, 0x10	; 16
    122c:	60 93 1c 03 	sts	0x031C, r22
    1230:	86 e0       	ldi	r24, 0x06	; 6
    1232:	0e 94 46 03 	call	0x68c	; 0x68c <spi_set_byte>
    1236:	83 e5       	ldi	r24, 0x53	; 83
    1238:	80 93 13 03 	sts	0x0313, r24
    123c:	80 91 13 03 	lds	r24, 0x0313
    1240:	88 23       	and	r24, r24
    1242:	e1 f7       	brne	.-8      	; 0x123c <action_apd_on+0x13e>
    1244:	79 cf       	rjmp	.-270    	; 0x1138 <action_apd_on+0x3a>
    1246:	60 62       	ori	r22, 0x20	; 32
    1248:	60 93 1c 03 	sts	0x031C, r22
    124c:	86 e0       	ldi	r24, 0x06	; 6
    124e:	0e 94 46 03 	call	0x68c	; 0x68c <spi_set_byte>
    1252:	80 ed       	ldi	r24, 0xD0	; 208
    1254:	80 93 13 03 	sts	0x0313, r24
    1258:	80 91 13 03 	lds	r24, 0x0313
    125c:	88 23       	and	r24, r24
    125e:	e1 f7       	brne	.-8      	; 0x1258 <action_apd_on+0x15a>
    1260:	60 91 1c 03 	lds	r22, 0x031C
    1264:	86 2f       	mov	r24, r22
    1266:	66 cf       	rjmp	.-308    	; 0x1134 <action_apd_on+0x36>
    1268:	c9 01       	movw	r24, r18
    126a:	0e 94 df 04 	call	0x9be	; 0x9be <down_bias_ctrl>
    126e:	a5 cf       	rjmp	.-182    	; 0x11ba <action_apd_on+0xbc>
    1270:	88 e0       	ldi	r24, 0x08	; 8
    1272:	80 93 b6 03 	sts	0x03B6, r24
    1276:	28 96       	adiw	r28, 0x08	; 8
    1278:	0f b6       	in	r0, 0x3f	; 63
    127a:	f8 94       	cli
    127c:	de bf       	out	0x3e, r29	; 62
    127e:	0f be       	out	0x3f, r0	; 63
    1280:	cd bf       	out	0x3d, r28	; 61
    1282:	df 91       	pop	r29
    1284:	cf 91       	pop	r28
    1286:	08 95       	ret

00001288 <gta_action_table>:
    1288:	6d 61 72 6b 00 ed fe 73 69 67 6e 11 cf 06 61 6d     mark...sign...am
    1298:	75 78 14 a3 04 73 70 69 77 15 fc 06 73 70 69 72     ux...spiw...spir
    12a8:	16 53 07 63 75 72 74 41 8c 06 6c 61 69 6d 32 2c     .S.curtA..laim2,
    12b8:	06 6c 6f 66 66 33 ee 05 61 70 64 65 21 7f 08 61     .loff3..apde!..a
    12c8:	70 64 64 22 99 05 6d 65 61 73 51 cc 07 6c 63 64     pdd"..measQ..lcd
    12d8:	20 61 02 05 00 00 00 00 ff 00 00 00 00 00 00 00      a..............
	...

00001448 <gta_digit_decode>:
    1448:	3f 06 5b 4f 66 6d 7d 07 7f 6f 77 7c 39 5e 79 71     ?.[Ofm}..ow|9^yq
    1458:	00 73 3f 76 38 06 3e 54 7c 5e 50 5c 04 74 40 08     .s?v8.>T|^P\.t@.

00001468 <gta_digit_set0_map>:
    1468:	04 ed 04 f2 02 fc 02 fc 04 f7 04 f2 04 f7 02 03     ................
    1478:	ed 01 ec 80 f6 80 fc 01 f7 01 f2 01 f1 80 02 ec     ................
    1488:	40 ec 20 f6 20 fb 40 f6 40 f1 40 f1 20 01 ec 10     @. . .@.@.@. ...
    1498:	f1 08 fb 08 fb 10 f6 10 f1 10 f6 08 00 ec 04 f1     ................
    14a8:	02 fb 02 fb 04 f6 04 f1 04 f6 02                    ...........

000014b3 <gta_digit_set1_map>:
    14b3:	04 fc 20 fc 40 f2 40 ed 20 f2 20 f7 20 f7 40 03     .. .@.@. . . .@.
    14c3:	fc 80 fd 01 f3 01 ed 80 f2 80 f7 80 f8 01 02 fd     ................
    14d3:	02 fd 04 f3 04 ee 02 f3 02 f8 02 f8 04 01 fd 08     ................
    14e3:	fd 10 f3 10 ee 08 f3 08 f8 08 f8 10 00 fd 20 fd     .............. .
    14f3:	40 f3 40 ee 20 f3 20 f8 20 f8 40                    @.@. . . .@

000014fe <gta_signs_map>:
    14fe:	fb 20 fb 80 fb 01 f6 01 ee 10 ee 04 ee 01 f8 80     . ..............
    150e:	f9 01 f1 01 ec 01 ef 01 f4 01 ee 80 f3 80 ee 40     ...............@
    151e:	ec 02 ec 08 ed 02 ed 10 ed 08 f2 08 ed 40 f2 10     .............@..
    152e:	fc 08 fc 10 f7 08 f7 10 fd 80 fe 01 fe 01 fe 01     ................

0000153e <_exit>:
    153e:	ff cf       	rjmp	.-2      	; 0x153e <_exit>
