
SD_and_LCD.elf:     file format elf32-avr

Sections:
Idx Name          Size      VMA       LMA       File off  Algn
  0 .data         000001ce  00800100  00005c42  00005cd6  2**0
                  CONTENTS, ALLOC, LOAD, DATA
  1 .text         00005c42  00000000  00000000  00000094  2**1
                  CONTENTS, ALLOC, LOAD, READONLY, CODE
  2 .bss          00000348  008002ce  008002ce  00005ea4  2**0
                  ALLOC
  3 .debug_aranges 000000c0  00000000  00000000  00005ea4  2**0
                  CONTENTS, READONLY, DEBUGGING
  4 .debug_pubnames 00000472  00000000  00000000  00005f64  2**0
                  CONTENTS, READONLY, DEBUGGING
  5 .debug_info   0000425f  00000000  00000000  000063d6  2**0
                  CONTENTS, READONLY, DEBUGGING
  6 .debug_abbrev 00000bf0  00000000  00000000  0000a635  2**0
                  CONTENTS, READONLY, DEBUGGING
  7 .debug_line   00003732  00000000  00000000  0000b225  2**0
                  CONTENTS, READONLY, DEBUGGING
  8 .debug_frame  00000530  00000000  00000000  0000e958  2**2
                  CONTENTS, READONLY, DEBUGGING
  9 .debug_str    0000093d  00000000  00000000  0000ee88  2**0
                  CONTENTS, READONLY, DEBUGGING
 10 .debug_loc    00005664  00000000  00000000  0000f7c5  2**0
                  CONTENTS, READONLY, DEBUGGING
 11 .debug_ranges 00000348  00000000  00000000  00014e29  2**0
                  CONTENTS, READONLY, DEBUGGING

Disassembly of section .text:

00000000 <__vectors>:
       0:	0c 94 f5 03 	jmp	0x7ea	; 0x7ea <__ctors_end>
       4:	0c 94 15 04 	jmp	0x82a	; 0x82a <__bad_interrupt>
       8:	0c 94 15 04 	jmp	0x82a	; 0x82a <__bad_interrupt>
       c:	0c 94 15 04 	jmp	0x82a	; 0x82a <__bad_interrupt>
      10:	0c 94 15 04 	jmp	0x82a	; 0x82a <__bad_interrupt>
      14:	0c 94 15 04 	jmp	0x82a	; 0x82a <__bad_interrupt>
      18:	0c 94 15 04 	jmp	0x82a	; 0x82a <__bad_interrupt>
      1c:	0c 94 15 04 	jmp	0x82a	; 0x82a <__bad_interrupt>
      20:	0c 94 15 04 	jmp	0x82a	; 0x82a <__bad_interrupt>
      24:	0c 94 15 04 	jmp	0x82a	; 0x82a <__bad_interrupt>
      28:	0c 94 15 04 	jmp	0x82a	; 0x82a <__bad_interrupt>
      2c:	0c 94 15 04 	jmp	0x82a	; 0x82a <__bad_interrupt>
      30:	0c 94 15 04 	jmp	0x82a	; 0x82a <__bad_interrupt>
      34:	0c 94 15 04 	jmp	0x82a	; 0x82a <__bad_interrupt>
      38:	0c 94 15 04 	jmp	0x82a	; 0x82a <__bad_interrupt>
      3c:	0c 94 15 04 	jmp	0x82a	; 0x82a <__bad_interrupt>
      40:	0c 94 15 04 	jmp	0x82a	; 0x82a <__bad_interrupt>
      44:	0c 94 15 04 	jmp	0x82a	; 0x82a <__bad_interrupt>
      48:	0c 94 15 04 	jmp	0x82a	; 0x82a <__bad_interrupt>
      4c:	0c 94 15 04 	jmp	0x82a	; 0x82a <__bad_interrupt>
      50:	0c 94 15 04 	jmp	0x82a	; 0x82a <__bad_interrupt>
      54:	0c 94 15 04 	jmp	0x82a	; 0x82a <__bad_interrupt>
      58:	0c 94 15 04 	jmp	0x82a	; 0x82a <__bad_interrupt>
      5c:	0c 94 15 04 	jmp	0x82a	; 0x82a <__bad_interrupt>
      60:	0c 94 15 04 	jmp	0x82a	; 0x82a <__bad_interrupt>
      64:	0c 94 15 04 	jmp	0x82a	; 0x82a <__bad_interrupt>
      68:	0c 94 15 04 	jmp	0x82a	; 0x82a <__bad_interrupt>
      6c:	0c 94 15 04 	jmp	0x82a	; 0x82a <__bad_interrupt>
      70:	0c 94 15 04 	jmp	0x82a	; 0x82a <__bad_interrupt>
      74:	0c 94 15 04 	jmp	0x82a	; 0x82a <__bad_interrupt>
      78:	0c 94 15 04 	jmp	0x82a	; 0x82a <__bad_interrupt>
      7c:	0c 94 15 04 	jmp	0x82a	; 0x82a <__bad_interrupt>
      80:	0c 94 15 04 	jmp	0x82a	; 0x82a <__bad_interrupt>
      84:	0c 94 15 04 	jmp	0x82a	; 0x82a <__bad_interrupt>
      88:	0c 94 15 04 	jmp	0x82a	; 0x82a <__bad_interrupt>

0000008c <hello>:
      8c:	20 c7 c0 cf d3 d1 ca 20 cf d0 ce d8 c5 cb 20 21      ...... ...... !
      9c:	21 21 20 00                                         !! .

000000a0 <mounting_FAT>:
      a0:	6d 6f 75 6e 74 69 6e 67 20 46 41 54 2d 00           mounting FAT-.

000000ae <move_to_DIR_SKINS>:
      ae:	6d 6f 76 65 20 74 6f 20 44 49 52 20 53 4b 49 4e     move to DIR SKIN
      be:	53 2d 20 00                                         S- .

000000c2 <s_palitra8bit>:
      c2:	00 80 14 90 02 82 11 da ba bb 44 64 84 a4 c4 e4     ..........Dd....
      d2:	08 28 48 68 88 a8 c8 e8 0c 2c 4c 6c 8c ac cc ec     .(Hh.....,Ll....
      e2:	10 30 50 70 90 b0 d0 f0 14 34 54 74 94 b4 d4 f4     .0Pp.....4Tt....
      f2:	18 38 58 78 98 b8 d8 f8 1c 3c 5c 7c 9c bc dc fc     .8Xx.....<\|....
     102:	01 21 41 61 81 a1 c1 e1 05 25 45 65 85 a5 c5 e5     .!Aa.....%Ee....
     112:	09 29 49 69 89 a9 c9 e9 0d 2d 4d 6d 8d ad cd ed     .)Ii.....-Mm....
     122:	11 31 51 71 91 b1 d1 f1 15 35 55 75 95 b5 d5 f5     .1Qq.....5Uu....
     132:	19 39 59 79 99 b9 d9 f9 1d 3d 5d 7d 9d bd dd fd     .9Yy.....=]}....
     142:	02 22 42 62 82 a2 c2 e2 06 26 46 66 86 a6 c6 e6     ."Bb.....&Ff....
     152:	0a 2a 4a 6a 8a aa ca ea 0e 2e 4e 6e 8e ae ce ee     .*Jj......Nn....
     162:	12 32 52 72 92 b2 d2 f2 16 36 56 76 96 b6 d6 f6     .2Rr.....6Vv....
     172:	1a 3a 5a 7a 9a ba da fa 1e 3e 5e 7e 9e be de fe     .:Zz.....>^~....
     182:	03 23 43 63 83 a3 c3 e3 07 27 47 67 87 a7 c7 e7     .#Cc.....'Gg....
     192:	0b 2b 4b 6b 8b ab cb eb 0f 2f 4f 6f 8f af cf ef     .+Kk...../Oo....
     1a2:	13 33 53 73 93 b3 d3 f3 17 37 57 77 97 b7 d7 f7     .3Ss.....7Ww....
     1b2:	1b 3b 5b 7b 9b bb ff b6 91 e0 1c fc 03 e3 1f ff     .;[{............

000001c2 <s_apxFont6x8>:
     1c2:	00 00 00 00 00 00 3e 0a 34 00 3e 0c 18 3e 00 3e     ......>.4.>..>.>
     1d2:	22 1c 00 3e 20 20 00 3e 22 1c 00 24 2a 12 00 08     "..>  .>"..$*...
     1e2:	38 38 08 08 1c 22 22 22 1c 00 00 38 38 44 82 fe     88..."""...88D..
     1f2:	00 1c 3e 62 62 32 3a 2e 26 23 23 3e 00 00 00 00     ..>bb2:.&##>....
     202:	00 00 00 1c 3e 36 22 36 3e 3e 36 36 36 3e 00 00     ....>6"6>>666>..
     212:	00 00 00 00 63 55 4d 55 6b 18 18 08 1c 22 22 1c     ....cUMUk...."".
     222:	00 3e 0a 04 78 40 00 3e 0a 04 78 40 00 38 44 5f     .>..x@.>..x@.8D_
     232:	4e 44 00 38 44 44 5f 4e 00 3c 3c 3c 3c 00 00 3e     ND.8DD_N.<<<<..>
     242:	0a 04 78 40 00 3e 0a 04 78 40 44 40 38 00 04 7e     ..x@.>..x@D@8..~
     252:	00 7f 3e 1c 08 00 08 08 2a 1c 08 00 08 1c 2a 08     ..>.....*.....*.
     262:	08 00 08 08 2a 08 08 00 00 3c 20 00 00 00 08 14     ....*....< .....
     272:	00 14 08 00 08 0c 0e 0c 08 00 08 18 38 18 08 00     ............8...
	...
     28a:	5f 00 00 00 00 07 00 07 00 00 14 7f 14 7f 14 00     _...............
     29a:	24 2a 7f 2a 12 00 23 13 08 64 62 00 36 49 55 22     $*.*..#..db.6IU"
     2aa:	50 00 00 05 03 00 00 00 00 1c 22 41 00 00 00 41     P........."A...A
     2ba:	22 1c 00 00 14 08 3e 08 14 00 08 08 3e 08 08 00     ".....>.....>...
     2ca:	00 50 30 00 00 00 08 08 08 08 08 00 00 60 60 00     .P0..........``.
     2da:	00 00 20 10 08 04 02 00 3e 51 49 45 3e 00 00 42     .. .....>QIE>..B
     2ea:	7f 40 00 00 42 61 51 49 46 00 21 41 45 4b 31 00     .@..BaQIF.!AEK1.
     2fa:	18 14 12 7f 10 00 27 45 45 45 39 00 3c 4a 49 49     ......'EEE9.<JII
     30a:	30 00 01 71 09 05 03 00 36 49 49 49 36 00 06 49     0..q....6III6..I
     31a:	49 29 1e 00 00 36 36 00 00 00 00 56 36 00 00 00     I)...66....V6...
     32a:	08 14 22 41 00 00 14 14 14 14 14 00 00 41 22 14     .."A.........A".
     33a:	08 00 02 01 51 09 06 00 32 49 79 41 3e 00 7e 11     ....Q...2IyA>.~.
     34a:	11 11 7e 00 7f 49 49 49 36 00 3e 41 41 41 22 00     ..~..III6.>AAA".
     35a:	7f 41 41 22 1c 00 7f 49 49 49 41 00 7f 09 09 09     .AA"...IIIA.....
     36a:	01 00 3e 41 49 49 7a 00 7f 08 08 08 7f 00 00 41     ..>AIIz........A
     37a:	7f 41 00 00 20 40 41 3f 01 00 7f 08 14 22 41 00     .A.. @A?....."A.
     38a:	7f 40 40 40 40 00 7f 02 0c 02 7f 00 7f 04 08 10     .@@@@...........
     39a:	7f 00 3e 41 41 41 3e 00 7f 09 09 09 06 00 3e 41     ..>AAA>.......>A
     3aa:	51 21 5e 00 7f 09 19 29 46 00 46 49 49 49 31 00     Q!^....)F.FIII1.
     3ba:	01 01 7f 01 01 00 3f 40 40 40 3f 00 1f 20 40 20     ......?@@@?.. @ 
     3ca:	1f 00 3f 40 38 40 3f 00 63 14 08 14 63 00 07 08     ..?@8@?.c...c...
     3da:	70 08 07 00 61 51 49 45 43 00 00 7f 41 41 00 00     p...aQIEC...AA..
     3ea:	02 04 08 10 20 00 00 41 41 7f 00 00 04 02 01 02     .... ..AA.......
     3fa:	04 00 40 40 40 40 40 00 00 01 02 04 00 00 20 54     ..@@@@@....... T
     40a:	54 54 78 00 7f 48 44 44 38 00 38 44 44 44 20 00     TTx..HDD8.8DDD .
     41a:	38 44 44 48 7f 00 38 54 54 54 18 00 08 7e 09 01     8DDH..8TTT...~..
     42a:	02 00 0c 52 52 52 3e 00 7f 08 04 04 78 00 00 44     ...RRR>.....x..D
     43a:	7d 40 00 00 20 40 44 3d 00 00 7f 10 28 44 00 00     }@.. @D=....(D..
     44a:	00 41 7f 40 00 00 7c 04 18 04 78 00 7c 08 04 04     .A.@..|...x.|...
     45a:	78 00 38 44 44 44 38 00 7c 14 14 14 08 00 08 14     x.8DDD8.|.......
     46a:	14 18 7c 00 7c 08 04 04 08 00 48 54 54 54 20 00     ..|.|.....HTTT .
     47a:	04 3f 44 40 20 00 3c 40 40 20 7c 00 1c 20 40 20     .?D@ .<@@ |.. @ 
     48a:	1c 00 3c 40 30 40 3c 00 44 28 10 28 44 00 0c 50     ..<@0@<.D(.(D..P
     49a:	50 50 3c 00 44 64 54 4c 44 00 00 08 36 41 00 00     PP<.DdTLD...6A..
     4aa:	00 00 7f 00 00 00 00 41 36 08 00 00 10 08 08 10     .......A6.......
     4ba:	08 00 78 46 41 46 78 00 78 14 12 11 7f 00 7f 45     ..xFAFx.x......E
     4ca:	45 45 38 00 7f 49 49 49 36 00 7f 01 01 01 01 00     EE8..III6.......
     4da:	70 1f 11 1f 70 00 7f 49 49 49 41 00 77 08 7f 08     p...p..IIIA.w...
     4ea:	77 00 22 41 49 49 36 00 7f 10 08 04 7f 00 7f 10     w."AII6.........
     4fa:	09 04 7f 00 7f 08 14 22 41 00 40 3e 01 01 7f 00     ......."A.@>....
     50a:	7f 02 0c 02 7f 00 7f 08 08 08 7f 00 3e 41 41 41     ............>AAA
     51a:	3e 00 7f 01 01 01 7f 00 7f 11 11 11 0e 00 3e 41     >.............>A
     52a:	41 41 22 00 01 01 7f 01 01 00 07 48 48 48 3f 00     AA"........HHH?.
     53a:	1c 22 7f 22 1c 00 63 14 08 14 63 00 3f 20 20 20     ."."..c...c.?   
     54a:	7f 00 07 08 08 08 7f 00 7f 40 7f 40 7f 00 3f 20     .........@.@..? 
     55a:	3f 20 7f 00 01 7f 48 48 30 00 7f 48 30 00 7f 00     ? ....HH0..H0...
     56a:	7f 48 30 00 00 00 22 49 49 49 3e 00 7f 08 3e 41     .H0..."III>...>A
     57a:	3e 00 66 19 09 09 7f 00 20 54 54 54 78 00 28 54     >.f..... TTTx.(T
     58a:	54 54 24 00 38 54 54 58 20 00 24 54 54 54 48 00     TT$.8TTX .$TTTH.
     59a:	18 a4 a4 a4 78 00 38 54 54 54 08 00 44 28 7c 28     ....x.8TTT..D(|(
     5aa:	44 00 28 44 54 54 28 00 3c 40 40 40 7c 00 3c 40     D.(DTT(.<@@@|.<@
     5ba:	44 42 7c 00 7c 10 10 28 44 00 40 20 18 04 7c 00     DB|.|..(D.@ ..|.
     5ca:	7c 08 30 08 7c 00 7c 10 10 10 7c 00 38 44 44 44     |.0.|.|...|.8DDD
     5da:	38 00 7c 04 04 04 78 00 fc 24 24 24 18 00 38 44     8.|...x..$$$..8D
     5ea:	44 44 28 00 7c 04 78 04 78 00 4c 90 90 90 7c 00     DD(.|.x.x.L...|.
     5fa:	10 28 7c 28 10 00 44 28 10 28 44 00 3c 40 40 40     .(|(..D(.(D.<@@@
     60a:	7c 80 1c 20 20 20 7c 00 7c 40 7c 40 7c 00 7c 40     |..   |.|@|@|.|@
     61a:	7c 40 fc 00 04 7c 50 20 00 00 7c 50 20 00 7c 00     |@...|P ..|P .|.
     62a:	7c 50 20 00 00 00 44 54 54 54 38 00 7c 10 38 44     |P ...DTTT8.|.8D
     63a:	38 00 58 24 24 24 7c 00 00 00 00 00 00 00 00 00     8.X$$$|.........
	...

000007bc <__c.1889>:
     7bc:	49 6e 69 74 69 61 6c 69 7a 61 74 69 6f 6e 20 66     Initialization f
     7cc:	61 69 6c 65 64 00                                   ailed.

000007d2 <__c.1887>:
     7d2:	45 6e 74 65 72 20 49 64 6c 65 20 73 74 61 74 65     Enter Idle state
     7e2:	20 65 72 72 6f 72 00 00                              error..

000007ea <__ctors_end>:
     7ea:	11 24       	eor	r1, r1
     7ec:	1f be       	out	0x3f, r1	; 63
     7ee:	cf ef       	ldi	r28, 0xFF	; 255
     7f0:	d0 e1       	ldi	r29, 0x10	; 16
     7f2:	de bf       	out	0x3e, r29	; 62
     7f4:	cd bf       	out	0x3d, r28	; 61

000007f6 <__do_copy_data>:
     7f6:	12 e0       	ldi	r17, 0x02	; 2
     7f8:	a0 e0       	ldi	r26, 0x00	; 0
     7fa:	b1 e0       	ldi	r27, 0x01	; 1
     7fc:	e2 e4       	ldi	r30, 0x42	; 66
     7fe:	fc e5       	ldi	r31, 0x5C	; 92
     800:	00 e0       	ldi	r16, 0x00	; 0
     802:	0b bf       	out	0x3b, r16	; 59
     804:	02 c0       	rjmp	.+4      	; 0x80a <__do_copy_data+0x14>
     806:	07 90       	elpm	r0, Z+
     808:	0d 92       	st	X+, r0
     80a:	ae 3c       	cpi	r26, 0xCE	; 206
     80c:	b1 07       	cpc	r27, r17
     80e:	d9 f7       	brne	.-10     	; 0x806 <__do_copy_data+0x10>
     810:	1b be       	out	0x3b, r1	; 59

00000812 <__do_clear_bss>:
     812:	16 e0       	ldi	r17, 0x06	; 6
     814:	ae ec       	ldi	r26, 0xCE	; 206
     816:	b2 e0       	ldi	r27, 0x02	; 2
     818:	01 c0       	rjmp	.+2      	; 0x81c <.do_clear_bss_start>

0000081a <.do_clear_bss_loop>:
     81a:	1d 92       	st	X+, r1

0000081c <.do_clear_bss_start>:
     81c:	a6 31       	cpi	r26, 0x16	; 22
     81e:	b1 07       	cpc	r27, r17
     820:	e1 f7       	brne	.-8      	; 0x81a <.do_clear_bss_loop>
     822:	0e 94 cf 04 	call	0x99e	; 0x99e <main>
     826:	0c 94 1f 2e 	jmp	0x5c3e	; 0x5c3e <_exit>

0000082a <__bad_interrupt>:
     82a:	0c 94 00 00 	jmp	0	; 0x0 <__vectors>

0000082e <waitms>:
//while(1){ // test UART & LCD
 //  bmp_rcv_uart();
//}

///////////////////////////////////
void waitms(int ms) {
     82e:	20 e0       	ldi	r18, 0x00	; 0
     830:	30 e0       	ldi	r19, 0x00	; 0
    milliseconds can be achieved.
 */
void
_delay_loop_2(uint16_t __count)
{
	__asm__ volatile (
     832:	46 e6       	ldi	r20, 0x66	; 102
     834:	5e e0       	ldi	r21, 0x0E	; 14
     836:	05 c0       	rjmp	.+10     	; 0x842 <waitms+0x14>
     838:	fa 01       	movw	r30, r20
     83a:	31 97       	sbiw	r30, 0x01	; 1
     83c:	f1 f7       	brne	.-4      	; 0x83a <waitms+0xc>
  int i;
  for (i=0;i<ms;i++) _delay_ms(1);
     83e:	2f 5f       	subi	r18, 0xFF	; 255
     840:	3f 4f       	sbci	r19, 0xFF	; 255
     842:	28 17       	cp	r18, r24
     844:	39 07       	cpc	r19, r25
     846:	c4 f3       	brlt	.-16     	; 0x838 <waitms+0xa>
}
     848:	08 95       	ret

0000084a <scan_files>:
///////////////////////////////////


FRESULT scan_files (char* path,int count_)		//Scan files and directories on path
{
     84a:	6f 92       	push	r6
     84c:	7f 92       	push	r7
     84e:	8f 92       	push	r8
     850:	9f 92       	push	r9
     852:	af 92       	push	r10
     854:	bf 92       	push	r11
     856:	cf 92       	push	r12
     858:	df 92       	push	r13
     85a:	ef 92       	push	r14
     85c:	ff 92       	push	r15
     85e:	0f 93       	push	r16
     860:	1f 93       	push	r17
     862:	df 93       	push	r29
     864:	cf 93       	push	r28
     866:	cd b7       	in	r28, 0x3d	; 61
     868:	de b7       	in	r29, 0x3e	; 62
     86a:	ac 97       	sbiw	r28, 0x2c	; 44
     86c:	0f b6       	in	r0, 0x3f	; 63
     86e:	f8 94       	cli
     870:	de bf       	out	0x3e, r29	; 62
     872:	0f be       	out	0x3f, r0	; 63
     874:	cd bf       	out	0x3d, r28	; 61
     876:	9c 01       	movw	r18, r24
     878:	5b 01       	movw	r10, r22
 FRESULT res;
 FILINFO fno;
 DIR dir;
 DWORD *fn;
	int i=1;
    res = f_opendir(&dir, path);
     87a:	8e 01       	movw	r16, r28
     87c:	09 5e       	subi	r16, 0xE9	; 233
     87e:	1f 4f       	sbci	r17, 0xFF	; 255
     880:	c8 01       	movw	r24, r16
     882:	b9 01       	movw	r22, r18
     884:	0e 94 1c 16 	call	0x2c38	; 0x2c38 <f_opendir>
    if (res == FR_OK) {
     888:	88 23       	and	r24, r24
     88a:	09 f0       	breq	.+2      	; 0x88e <scan_files+0x44>
     88c:	73 c0       	rjmp	.+230    	; 0x974 <scan_files+0x12a>
     88e:	21 e0       	ldi	r18, 0x01	; 1
     890:	e2 2e       	mov	r14, r18
     892:	f1 2c       	mov	r15, r1
						//i = strlen(path);
                       for (;;) 
					    {
                         res = f_readdir(&dir, &fno);		//Read dir items
     894:	c8 01       	movw	r24, r16
     896:	70 2e       	mov	r7, r16
     898:	19 2f       	mov	r17, r25
     89a:	4e 01       	movw	r8, r28
     89c:	08 94       	sec
     89e:	81 1c       	adc	r8, r1
     8a0:	91 1c       	adc	r9, r1

                         if (res != FR_OK || fno.fname[0] == 0) break;
                         if (fno.fname[0] == '.') continue;
                         fn = fno.fname;
     8a2:	9a e0       	ldi	r25, 0x0A	; 10
     8a4:	c9 2e       	mov	r12, r25
     8a6:	d1 2c       	mov	r13, r1
     8a8:	cc 0e       	add	r12, r28
     8aa:	dd 1e       	adc	r13, r29
	
                                                 	i++;
												   } 
											  else {
											  		
													x=putstr_ram(x=2,y-=8,"FILE: ",fg,bg);
     8ac:	82 e0       	ldi	r24, 0x02	; 2
     8ae:	68 2e       	mov	r6, r24
    res = f_opendir(&dir, path);
    if (res == FR_OK) {
						//i = strlen(path);
                       for (;;) 
					    {
                         res = f_readdir(&dir, &fno);		//Read dir items
     8b0:	87 2d       	mov	r24, r7
     8b2:	91 2f       	mov	r25, r17
     8b4:	b4 01       	movw	r22, r8
     8b6:	0e 94 72 17 	call	0x2ee4	; 0x2ee4 <f_readdir>

                         if (res != FR_OK || fno.fname[0] == 0) break;
     8ba:	88 23       	and	r24, r24
     8bc:	09 f0       	breq	.+2      	; 0x8c0 <scan_files+0x76>
     8be:	5a c0       	rjmp	.+180    	; 0x974 <scan_files+0x12a>
     8c0:	9a 85       	ldd	r25, Y+10	; 0x0a
     8c2:	99 23       	and	r25, r25
     8c4:	09 f4       	brne	.+2      	; 0x8c8 <scan_files+0x7e>
     8c6:	56 c0       	rjmp	.+172    	; 0x974 <scan_files+0x12a>
                         if (fno.fname[0] == '.') continue;
     8c8:	9e 32       	cpi	r25, 0x2E	; 46
     8ca:	91 f3       	breq	.-28     	; 0x8b0 <scan_files+0x66>
                         fn = fno.fname;
                         if (fno.fattrib & AM_DIR) {		// Check item type, DIR or FILE
     8cc:	89 85       	ldd	r24, Y+9	; 0x09
     8ce:	60 91 d0 02 	lds	r22, 0x02D0
     8d2:	84 ff       	sbrs	r24, 4
     8d4:	2e c0       	rjmp	.+92     	; 0x932 <scan_files+0xe8>
										
																							
												    x =putstr_ram(x=2,y-=8,"DIR: ",fg,bg);
     8d6:	60 92 cf 02 	sts	0x02CF, r6
     8da:	68 50       	subi	r22, 0x08	; 8
     8dc:	60 93 d0 02 	sts	0x02D0, r22
     8e0:	82 e0       	ldi	r24, 0x02	; 2
     8e2:	40 e0       	ldi	r20, 0x00	; 0
     8e4:	51 e0       	ldi	r21, 0x01	; 1
     8e6:	20 91 ce 02 	lds	r18, 0x02CE
     8ea:	00 91 3d 01 	lds	r16, 0x013D
     8ee:	0e 94 5e 06 	call	0xcbc	; 0xcbc <putstr_ram>
     8f2:	80 93 cf 02 	sts	0x02CF, r24
                                                    x =putstr_ram(x,y,fn,fg,bg);
     8f6:	60 91 d0 02 	lds	r22, 0x02D0
     8fa:	a6 01       	movw	r20, r12
     8fc:	20 91 ce 02 	lds	r18, 0x02CE
     900:	00 91 3d 01 	lds	r16, 0x013D
     904:	0e 94 5e 06 	call	0xcbc	; 0xcbc <putstr_ram>
     908:	80 93 cf 02 	sts	0x02CF, r24
													
													

													if(i==count_) strcpy(dir_, fn);
     90c:	ea 14       	cp	r14, r10
     90e:	fb 04       	cpc	r15, r11
     910:	39 f4       	brne	.+14     	; 0x920 <scan_files+0xd6>
     912:	80 91 0d 05 	lds	r24, 0x050D
     916:	90 91 0e 05 	lds	r25, 0x050E
     91a:	b6 01       	movw	r22, r12
     91c:	0e 94 d7 2d 	call	0x5bae	; 0x5bae <strcpy>
													
													

													dir_counter++;
     920:	80 91 d1 02 	lds	r24, 0x02D1
     924:	8f 5f       	subi	r24, 0xFF	; 255
     926:	80 93 d1 02 	sts	0x02D1, r24
	
                                                 	i++;
     92a:	08 94       	sec
     92c:	e1 1c       	adc	r14, r1
     92e:	f1 1c       	adc	r15, r1
     930:	bf cf       	rjmp	.-130    	; 0x8b0 <scan_files+0x66>
												   } 
											  else {
											  		
													x=putstr_ram(x=2,y-=8,"FILE: ",fg,bg);
     932:	60 92 cf 02 	sts	0x02CF, r6
     936:	68 50       	subi	r22, 0x08	; 8
     938:	60 93 d0 02 	sts	0x02D0, r22
     93c:	82 e0       	ldi	r24, 0x02	; 2
     93e:	46 e0       	ldi	r20, 0x06	; 6
     940:	51 e0       	ldi	r21, 0x01	; 1
     942:	20 91 ce 02 	lds	r18, 0x02CE
     946:	00 91 3d 01 	lds	r16, 0x013D
     94a:	0e 94 5e 06 	call	0xcbc	; 0xcbc <putstr_ram>
     94e:	80 93 cf 02 	sts	0x02CF, r24
                                                    x=putstr_ram(x,y,fn,fg,bg);
     952:	60 91 d0 02 	lds	r22, 0x02D0
     956:	a6 01       	movw	r20, r12
     958:	20 91 ce 02 	lds	r18, 0x02CE
     95c:	00 91 3d 01 	lds	r16, 0x013D
     960:	0e 94 5e 06 	call	0xcbc	; 0xcbc <putstr_ram>
     964:	80 93 cf 02 	sts	0x02CF, r24
													file_counter++;
     968:	80 91 d2 02 	lds	r24, 0x02D2
     96c:	8f 5f       	subi	r24, 0xFF	; 255
     96e:	80 93 d2 02 	sts	0x02D2, r24
     972:	9e cf       	rjmp	.-196    	; 0x8b0 <scan_files+0x66>
                       }
                     }

    return res;

}
     974:	ac 96       	adiw	r28, 0x2c	; 44
     976:	0f b6       	in	r0, 0x3f	; 63
     978:	f8 94       	cli
     97a:	de bf       	out	0x3e, r29	; 62
     97c:	0f be       	out	0x3f, r0	; 63
     97e:	cd bf       	out	0x3d, r28	; 61
     980:	cf 91       	pop	r28
     982:	df 91       	pop	r29
     984:	1f 91       	pop	r17
     986:	0f 91       	pop	r16
     988:	ff 90       	pop	r15
     98a:	ef 90       	pop	r14
     98c:	df 90       	pop	r13
     98e:	cf 90       	pop	r12
     990:	bf 90       	pop	r11
     992:	af 90       	pop	r10
     994:	9f 90       	pop	r9
     996:	8f 90       	pop	r8
     998:	7f 90       	pop	r7
     99a:	6f 90       	pop	r6
     99c:	08 95       	ret

0000099e <main>:
/////////////////////    MAIN!!!              /////////////////////
///////////////////////////////////////////////////////////////////
///////////////////////////////////////////////////////////////////


int main (void) {
     99e:	ff 92       	push	r15
     9a0:	0f 93       	push	r16
     9a2:	1f 93       	push	r17
//static unsigned char byte ;

	uart1_init(); 
     9a4:	0e 94 95 09 	call	0x132a	; 0x132a <uart1_init>
	init_lcd();
     9a8:	0e 94 20 09 	call	0x1240	; 0x1240 <init_lcd>
	clrscr(0,0,131,131,255); // ОЧИСТКА ЭКРАНА
     9ac:	80 e0       	ldi	r24, 0x00	; 0
     9ae:	60 e0       	ldi	r22, 0x00	; 0
     9b0:	43 e8       	ldi	r20, 0x83	; 131
     9b2:	23 e8       	ldi	r18, 0x83	; 131
     9b4:	0f ef       	ldi	r16, 0xFF	; 255
     9b6:	0e 94 1f 06 	call	0xc3e	; 0xc3e <clrscr>
//////////////////////////////////////////////////////////////
//	waitms(10000);
 

	//fcc = "TRI";
	dir_ = "0:/";
     9ba:	8d e0       	ldi	r24, 0x0D	; 13
     9bc:	91 e0       	ldi	r25, 0x01	; 1
     9be:	90 93 0e 05 	sts	0x050E, r25
     9c2:	80 93 0d 05 	sts	0x050D, r24

 FRESULT f_err_code;
 static FATFS FATFS_Obj;
//  FIL fil_obj;

	x=2;y=120;
     9c6:	32 e0       	ldi	r19, 0x02	; 2
     9c8:	f3 2e       	mov	r15, r19
     9ca:	f0 92 cf 02 	sts	0x02CF, r15
     9ce:	88 e7       	ldi	r24, 0x78	; 120
     9d0:	80 93 d0 02 	sts	0x02D0, r24

 disk_initialize(0);		// Init drive	
     9d4:	80 e0       	ldi	r24, 0x00	; 0
     9d6:	90 e0       	ldi	r25, 0x00	; 0
     9d8:	0e 94 83 2c 	call	0x5906	; 0x5906 <disk_initialize>
 f_err_code=f_mount(0, &FATFS_Obj);	//Mount Fat Fs
     9dc:	80 e0       	ldi	r24, 0x00	; 0
     9de:	63 ed       	ldi	r22, 0xD3	; 211
     9e0:	72 e0       	ldi	r23, 0x02	; 2
     9e2:	0e 94 62 0a 	call	0x14c4	; 0x14c4 <f_mount>
     9e6:	18 2f       	mov	r17, r24
 x = putstr_ram(x,y,"mounting FAT-",fg,bg);
     9e8:	80 91 cf 02 	lds	r24, 0x02CF
     9ec:	60 91 d0 02 	lds	r22, 0x02D0
     9f0:	41 e1       	ldi	r20, 0x11	; 17
     9f2:	51 e0       	ldi	r21, 0x01	; 1
     9f4:	20 91 ce 02 	lds	r18, 0x02CE
     9f8:	00 91 3d 01 	lds	r16, 0x013D
     9fc:	0e 94 5e 06 	call	0xcbc	; 0xcbc <putstr_ram>
     a00:	80 93 cf 02 	sts	0x02CF, r24
 if(f_err_code==0) { 
     a04:	11 23       	and	r17, r17
     a06:	09 f0       	breq	.+2      	; 0xa0a <main+0x6c>
     a08:	7c c0       	rjmp	.+248    	; 0xb02 <main+0x164>
					x = putstr_ram(x,y,"OK",fg,bg);
     a0a:	60 91 d0 02 	lds	r22, 0x02D0
     a0e:	4f e1       	ldi	r20, 0x1F	; 31
     a10:	51 e0       	ldi	r21, 0x01	; 1
     a12:	20 91 ce 02 	lds	r18, 0x02CE
     a16:	00 91 3d 01 	lds	r16, 0x013D
     a1a:	0e 94 5e 06 	call	0xcbc	; 0xcbc <putstr_ram>
 				//	x = putstr_ram(x=2,y-=8,"move to DIR SKINS-",fg,bg);
 				//	if(f_err_code==0) x = putstr_ram(x,y,"OK",fg,bg);
              	//				else  x = putstr_ram(x,y,"FAIL",fg,bg);


  				x = putstr_ram(x=2, y-=8, "scaning DIR-",fg,bg);
     a1e:	f0 92 cf 02 	sts	0x02CF, r15
     a22:	60 91 d0 02 	lds	r22, 0x02D0
     a26:	68 50       	subi	r22, 0x08	; 8
     a28:	60 93 d0 02 	sts	0x02D0, r22
     a2c:	82 e0       	ldi	r24, 0x02	; 2
     a2e:	42 e2       	ldi	r20, 0x22	; 34
     a30:	51 e0       	ldi	r21, 0x01	; 1
     a32:	20 91 ce 02 	lds	r18, 0x02CE
     a36:	00 91 3d 01 	lds	r16, 0x013D
     a3a:	0e 94 5e 06 	call	0xcbc	; 0xcbc <putstr_ram>
     a3e:	80 93 cf 02 	sts	0x02CF, r24
				x = putstr_ram(x, y, dir_,fg,bg);
     a42:	40 91 0d 05 	lds	r20, 0x050D
     a46:	50 91 0e 05 	lds	r21, 0x050E
     a4a:	60 91 d0 02 	lds	r22, 0x02D0
     a4e:	20 91 ce 02 	lds	r18, 0x02CE
     a52:	00 91 3d 01 	lds	r16, 0x013D
     a56:	0e 94 5e 06 	call	0xcbc	; 0xcbc <putstr_ram>
     a5a:	80 93 cf 02 	sts	0x02CF, r24
 				//scan_files ("0:/SKINS");   // Scan DIR  SKINS

				scan_files (dir_,1); // 2 - номер папки, название которой надо сбуфер
     a5e:	80 91 0d 05 	lds	r24, 0x050D
     a62:	90 91 0e 05 	lds	r25, 0x050E
     a66:	61 e0       	ldi	r22, 0x01	; 1
     a68:	70 e0       	ldi	r23, 0x00	; 0
     a6a:	0e 94 25 04 	call	0x84a	; 0x84a <scan_files>

 				x = putstr_ram(x=2, y-=8, "scaning ended",fg,bg);
     a6e:	f0 92 cf 02 	sts	0x02CF, r15
     a72:	60 91 d0 02 	lds	r22, 0x02D0
     a76:	68 50       	subi	r22, 0x08	; 8
     a78:	60 93 d0 02 	sts	0x02D0, r22
     a7c:	82 e0       	ldi	r24, 0x02	; 2
     a7e:	4f e2       	ldi	r20, 0x2F	; 47
     a80:	51 e0       	ldi	r21, 0x01	; 1
     a82:	20 91 ce 02 	lds	r18, 0x02CE
     a86:	00 91 3d 01 	lds	r16, 0x013D
     a8a:	0e 94 5e 06 	call	0xcbc	; 0xcbc <putstr_ram>
///////////////////////////////////////////////////////////////////////////////	
  				x = putstr_ram(x=2, y-=8, "scaning DIR-",fg,bg);
     a8e:	f0 92 cf 02 	sts	0x02CF, r15
     a92:	60 91 d0 02 	lds	r22, 0x02D0
     a96:	68 50       	subi	r22, 0x08	; 8
     a98:	60 93 d0 02 	sts	0x02D0, r22
     a9c:	82 e0       	ldi	r24, 0x02	; 2
     a9e:	42 e2       	ldi	r20, 0x22	; 34
     aa0:	51 e0       	ldi	r21, 0x01	; 1
     aa2:	20 91 ce 02 	lds	r18, 0x02CE
     aa6:	00 91 3d 01 	lds	r16, 0x013D
     aaa:	0e 94 5e 06 	call	0xcbc	; 0xcbc <putstr_ram>
     aae:	80 93 cf 02 	sts	0x02CF, r24
				x = putstr_ram(x, y, dir_,fg,bg);
     ab2:	40 91 0d 05 	lds	r20, 0x050D
     ab6:	50 91 0e 05 	lds	r21, 0x050E
     aba:	60 91 d0 02 	lds	r22, 0x02D0
     abe:	20 91 ce 02 	lds	r18, 0x02CE
     ac2:	00 91 3d 01 	lds	r16, 0x013D
     ac6:	0e 94 5e 06 	call	0xcbc	; 0xcbc <putstr_ram>
     aca:	80 93 cf 02 	sts	0x02CF, r24

//	printDecimal(20, 15, dir_counter, fg, bg);
//	printDecimal(20, 3, file_counter, fg, bg);

				scan_files (dir_,0);
     ace:	80 91 0d 05 	lds	r24, 0x050D
     ad2:	90 91 0e 05 	lds	r25, 0x050E
     ad6:	60 e0       	ldi	r22, 0x00	; 0
     ad8:	70 e0       	ldi	r23, 0x00	; 0
     ada:	0e 94 25 04 	call	0x84a	; 0x84a <scan_files>

				x = putstr_ram(x=2, y-=8, "scaning ended",fg,bg);
     ade:	f0 92 cf 02 	sts	0x02CF, r15
     ae2:	60 91 d0 02 	lds	r22, 0x02D0
     ae6:	68 50       	subi	r22, 0x08	; 8
     ae8:	60 93 d0 02 	sts	0x02D0, r22
     aec:	82 e0       	ldi	r24, 0x02	; 2
     aee:	4f e2       	ldi	r20, 0x2F	; 47
     af0:	51 e0       	ldi	r21, 0x01	; 1
     af2:	20 91 ce 02 	lds	r18, 0x02CE
     af6:	00 91 3d 01 	lds	r16, 0x013D
     afa:	0e 94 5e 06 	call	0xcbc	; 0xcbc <putstr_ram>
     afe:	80 93 cf 02 	sts	0x02CF, r24
///////////////////////////////////////////////////////////////////////////////////////////////////////
					}
								
							

} // END MAIN
     b02:	80 e0       	ldi	r24, 0x00	; 0
     b04:	90 e0       	ldi	r25, 0x00	; 0
     b06:	1f 91       	pop	r17
     b08:	0f 91       	pop	r16
     b0a:	ff 90       	pop	r15
     b0c:	08 95       	ret

00000b0e <send_byte_>:
	send_byte_(data);

}

/////////////////////////////////////////////
void send_byte_(uint8_t data){
     b0e:	90 e0       	ldi	r25, 0x00	; 0
 byte i;

 for (i=0;i<8;i++)
  {
   CLK0
     b10:	da 98       	cbi	0x1b, 2	; 27
   if  ((data&128)!=0) SDA1
     b12:	87 ff       	sbrs	r24, 7
     b14:	02 c0       	rjmp	.+4      	; 0xb1a <send_byte_+0xc>
     b16:	d9 9a       	sbi	0x1b, 1	; 27
     b18:	01 c0       	rjmp	.+2      	; 0xb1c <send_byte_+0xe>
               else SDA0
     b1a:	d9 98       	cbi	0x1b, 1	; 27
   data=data<<1; 
   CLK1 
     b1c:	da 9a       	sbi	0x1b, 2	; 27

/////////////////////////////////////////////
void send_byte_(uint8_t data){
 byte i;

 for (i=0;i<8;i++)
     b1e:	9f 5f       	subi	r25, 0xFF	; 255
     b20:	98 30       	cpi	r25, 0x08	; 8
     b22:	11 f0       	breq	.+4      	; 0xb28 <send_byte_+0x1a>
  {
   CLK0
   if  ((data&128)!=0) SDA1
               else SDA0
   data=data<<1; 
     b24:	88 0f       	add	r24, r24
     b26:	f4 cf       	rjmp	.-24     	; 0xb10 <send_byte_+0x2>
     b28:	08 95       	ret

00000b2a <send_data>:
}
/////////////////////////////////////////////

void send_data(uint8_t data) {

	CLK0
     b2a:	da 98       	cbi	0x1b, 2	; 27
	SDA1
     b2c:	d9 9a       	sbi	0x1b, 1	; 27
	CLK1
     b2e:	da 9a       	sbi	0x1b, 2	; 27

	send_byte_(data);
     b30:	90 e0       	ldi	r25, 0x00	; 0
     b32:	0e 94 87 05 	call	0xb0e	; 0xb0e <send_byte_>

}
     b36:	08 95       	ret

00000b38 <send_cmd>:
//////////////////////////////////////////////////////////
//////////         Send_Byte/Cmd                //////////
//////////////////////////////////////////////////////////
void send_cmd(uint8_t data) {

	CLK0
     b38:	da 98       	cbi	0x1b, 2	; 27
	SDA0
     b3a:	d9 98       	cbi	0x1b, 1	; 27
	CLK1
     b3c:	da 9a       	sbi	0x1b, 2	; 27
	send_byte_(data);
     b3e:	90 e0       	ldi	r25, 0x00	; 0
     b40:	0e 94 87 05 	call	0xb0e	; 0xb0e <send_byte_>

}
     b44:	08 95       	ret

00000b46 <window>:

/////////////////////////////////////////////


void window(uint8_t x, uint8_t y, uint8_t dx, uint8_t dy)
{
     b46:	ef 92       	push	r14
     b48:	ff 92       	push	r15
     b4a:	0f 93       	push	r16
     b4c:	1f 93       	push	r17
     b4e:	18 2f       	mov	r17, r24
     b50:	f6 2e       	mov	r15, r22
     b52:	04 2f       	mov	r16, r20
     b54:	e2 2e       	mov	r14, r18

	send_cmd (CASET);
     b56:	8a e2       	ldi	r24, 0x2A	; 42
     b58:	0e 94 9c 05 	call	0xb38	; 0xb38 <send_cmd>
	send_data(x);	
     b5c:	81 2f       	mov	r24, r17
     b5e:	0e 94 95 05 	call	0xb2a	; 0xb2a <send_data>
	send_data(dx);
     b62:	80 2f       	mov	r24, r16
     b64:	0e 94 95 05 	call	0xb2a	; 0xb2a <send_data>
		
	send_cmd (PASET);	
     b68:	8b e2       	ldi	r24, 0x2B	; 43
     b6a:	0e 94 9c 05 	call	0xb38	; 0xb38 <send_cmd>
	send_data(y);
     b6e:	8f 2d       	mov	r24, r15
     b70:	0e 94 95 05 	call	0xb2a	; 0xb2a <send_data>
	send_data(dy);
     b74:	8e 2d       	mov	r24, r14
     b76:	0e 94 95 05 	call	0xb2a	; 0xb2a <send_data>
	send_cmd (RAMWR);	
     b7a:	8c e2       	ldi	r24, 0x2C	; 44
     b7c:	0e 94 9c 05 	call	0xb38	; 0xb38 <send_cmd>
	
}
     b80:	1f 91       	pop	r17
     b82:	0f 91       	pop	r16
     b84:	ff 90       	pop	r15
     b86:	ef 90       	pop	r14
     b88:	08 95       	ret

00000b8a <putch>:


///////////////////////////////////////////////////////////////////////
//////////////  PRINT_CHAR   //////////////////////////////////////////
///////////////////////////////////////////////////////////////////////
uint8_t putch(uint8_t x, uint8_t y, char c, uint8_t fg, uint8_t bg) {
     b8a:	9f 92       	push	r9
     b8c:	af 92       	push	r10
     b8e:	bf 92       	push	r11
     b90:	cf 92       	push	r12
     b92:	df 92       	push	r13
     b94:	ef 92       	push	r14
     b96:	ff 92       	push	r15
     b98:	0f 93       	push	r16
     b9a:	1f 93       	push	r17
     b9c:	cf 93       	push	r28
     b9e:	df 93       	push	r29
     ba0:	b8 2e       	mov	r11, r24
     ba2:	f6 2e       	mov	r15, r22
     ba4:	14 2f       	mov	r17, r20
     ba6:	92 2e       	mov	r9, r18
     ba8:	a0 2e       	mov	r10, r16

	send_cmd (0x36);//  0x36  //;Memory data acces control
     baa:	86 e3       	ldi	r24, 0x36	; 54
     bac:	0e 94 9c 05 	call	0xb38	; 0xb38 <send_cmd>
	send_data(0x28);//MADCTL_VERT);// 0x20-MADCTL_VERT
     bb0:	88 e2       	ldi	r24, 0x28	; 40
     bb2:	0e 94 95 05 	call	0xb2a	; 0xb2a <send_data>

	window(x,y,x+5,y+7);
     bb6:	4b 2d       	mov	r20, r11
     bb8:	50 e0       	ldi	r21, 0x00	; 0
     bba:	2f 2d       	mov	r18, r15
     bbc:	30 e0       	ldi	r19, 0x00	; 0
     bbe:	ca 01       	movw	r24, r20
     bc0:	b9 01       	movw	r22, r18
     bc2:	4b 5f       	subi	r20, 0xFB	; 251
     bc4:	5f 4f       	sbci	r21, 0xFF	; 255
     bc6:	29 5f       	subi	r18, 0xF9	; 249
     bc8:	3f 4f       	sbci	r19, 0xFF	; 255
     bca:	0e 94 a3 05 	call	0xb46	; 0xb46 <window>

	if(c>127) c-=0x40; // TEST For RUS char
     bce:	17 fd       	sbrc	r17, 7
     bd0:	10 54       	subi	r17, 0x40	; 64
	uint8_t idx = c;
	unsigned char *p = s_apxFont6x8 + idx*6-1; // следующий байт символа
     bd2:	86 e0       	ldi	r24, 0x06	; 6
     bd4:	18 9f       	mul	r17, r24
     bd6:	60 01       	movw	r12, r0
     bd8:	11 24       	eor	r1, r1
     bda:	81 ec       	ldi	r24, 0xC1	; 193
     bdc:	91 e0       	ldi	r25, 0x01	; 1
     bde:	c8 0e       	add	r12, r24
     be0:	d9 1e       	adc	r13, r25
     be2:	91 e0       	ldi	r25, 0x01	; 1
     be4:	e9 2e       	mov	r14, r25
     be6:	f1 2c       	mov	r15, r1
	int a=0;

	for(int i=0; i<6; i++) {
	p++;
	a = pgm_read_byte(p);
     be8:	f6 01       	movw	r30, r12
     bea:	ee 0d       	add	r30, r14
     bec:	ff 1d       	adc	r31, r15
     bee:	e4 91       	lpm	r30, Z+
     bf0:	0e 2f       	mov	r16, r30
     bf2:	10 e0       	ldi	r17, 0x00	; 0
     bf4:	c0 e0       	ldi	r28, 0x00	; 0
     bf6:	d0 e0       	ldi	r29, 0x00	; 0

	uint8_t d; // - отправить на экран 1н байт из шести символа
	for(int j=0; j<8; j++) 
			{
	if((a&128)!=0) d=fg; else d=bg;
     bf8:	07 fd       	sbrc	r16, 7
     bfa:	02 c0       	rjmp	.+4      	; 0xc00 <putch+0x76>
     bfc:	8a 2d       	mov	r24, r10
     bfe:	01 c0       	rjmp	.+2      	; 0xc02 <putch+0x78>
     c00:	89 2d       	mov	r24, r9
	send_data(d);
     c02:	0e 94 95 05 	call	0xb2a	; 0xb2a <send_data>
	for(int i=0; i<6; i++) {
	p++;
	a = pgm_read_byte(p);

	uint8_t d; // - отправить на экран 1н байт из шести символа
	for(int j=0; j<8; j++) 
     c06:	21 96       	adiw	r28, 0x01	; 1
     c08:	c8 30       	cpi	r28, 0x08	; 8
     c0a:	d1 05       	cpc	r29, r1
     c0c:	19 f0       	breq	.+6      	; 0xc14 <putch+0x8a>
			{
	if((a&128)!=0) d=fg; else d=bg;
	send_data(d);
	a=a<<1;
     c0e:	00 0f       	add	r16, r16
     c10:	11 1f       	adc	r17, r17
     c12:	f2 cf       	rjmp	.-28     	; 0xbf8 <putch+0x6e>
     c14:	08 94       	sec
     c16:	e1 1c       	adc	r14, r1
     c18:	f1 1c       	adc	r15, r1
	if(c>127) c-=0x40; // TEST For RUS char
	uint8_t idx = c;
	unsigned char *p = s_apxFont6x8 + idx*6-1; // следующий байт символа
	int a=0;

	for(int i=0; i<6; i++) {
     c1a:	97 e0       	ldi	r25, 0x07	; 7
     c1c:	e9 16       	cp	r14, r25
     c1e:	f1 04       	cpc	r15, r1
     c20:	19 f7       	brne	.-58     	; 0xbe8 <putch+0x5e>
	
							}

	return x+6;//update X position to next char

}
     c22:	8b 2d       	mov	r24, r11
     c24:	8a 5f       	subi	r24, 0xFA	; 250
     c26:	df 91       	pop	r29
     c28:	cf 91       	pop	r28
     c2a:	1f 91       	pop	r17
     c2c:	0f 91       	pop	r16
     c2e:	ff 90       	pop	r15
     c30:	ef 90       	pop	r14
     c32:	df 90       	pop	r13
     c34:	cf 90       	pop	r12
     c36:	bf 90       	pop	r11
     c38:	af 90       	pop	r10
     c3a:	9f 90       	pop	r9
     c3c:	08 95       	ret

00000c3e <clrscr>:
/////////////////////////////////////////////////////////
///////////////    CLEAR SCREEN        //////////////////
/////////////////////////////////////////////////////////

void clrscr(uint8_t x, uint8_t y, uint8_t dx, uint8_t dy,uint8_t bg)
{
     c3e:	df 92       	push	r13
     c40:	ef 92       	push	r14
     c42:	ff 92       	push	r15
     c44:	0f 93       	push	r16
     c46:	1f 93       	push	r17
     c48:	cf 93       	push	r28
     c4a:	df 93       	push	r29
     c4c:	d8 2e       	mov	r13, r24
     c4e:	f6 2e       	mov	r15, r22
     c50:	e4 2e       	mov	r14, r20
     c52:	12 2f       	mov	r17, r18
	window(x,y,dx,dy); // clear screen
     c54:	90 e0       	ldi	r25, 0x00	; 0
     c56:	70 e0       	ldi	r23, 0x00	; 0
     c58:	50 e0       	ldi	r21, 0x00	; 0
     c5a:	30 e0       	ldi	r19, 0x00	; 0
     c5c:	0e 94 a3 05 	call	0xb46	; 0xb46 <window>

	uint8_t ddx = dx-x+1;
	uint8_t ddy = dy-y+1;
	uint16_t a = ddx*ddy;	
     c60:	81 e0       	ldi	r24, 0x01	; 1
     c62:	98 2f       	mov	r25, r24
     c64:	9f 19       	sub	r25, r15
     c66:	91 0f       	add	r25, r17
     c68:	8d 19       	sub	r24, r13
     c6a:	8e 0d       	add	r24, r14
     c6c:	98 9f       	mul	r25, r24
     c6e:	70 01       	movw	r14, r0
     c70:	11 24       	eor	r1, r1
     c72:	c0 e0       	ldi	r28, 0x00	; 0
     c74:	d0 e0       	ldi	r29, 0x00	; 0
     c76:	04 c0       	rjmp	.+8      	; 0xc80 <clrscr+0x42>
	for(uint16_t i=0; i<a; i++){
	send_data(bg);
     c78:	80 2f       	mov	r24, r16
     c7a:	0e 94 95 05 	call	0xb2a	; 0xb2a <send_data>
	window(x,y,dx,dy); // clear screen

	uint8_t ddx = dx-x+1;
	uint8_t ddy = dy-y+1;
	uint16_t a = ddx*ddy;	
	for(uint16_t i=0; i<a; i++){
     c7e:	21 96       	adiw	r28, 0x01	; 1
     c80:	ce 15       	cp	r28, r14
     c82:	df 05       	cpc	r29, r15
     c84:	c8 f3       	brcs	.-14     	; 0xc78 <clrscr+0x3a>
	send_data(bg);
	}


}
     c86:	df 91       	pop	r29
     c88:	cf 91       	pop	r28
     c8a:	1f 91       	pop	r17
     c8c:	0f 91       	pop	r16
     c8e:	ff 90       	pop	r15
     c90:	ef 90       	pop	r14
     c92:	df 90       	pop	r13
     c94:	08 95       	ret

00000c96 <lcd_set_brightness_parms>:
//}

/////////////////////////////////////////////////////////


void lcd_set_brightness_parms(uint8_t a, uint8_t b) {
     c96:	0f 93       	push	r16
     c98:	1f 93       	push	r17
     c9a:	18 2f       	mov	r17, r24
     c9c:	06 2f       	mov	r16, r22
	send_cmd (VOLCTR);
     c9e:	85 e2       	ldi	r24, 0x25	; 37
     ca0:	0e 94 9c 05 	call	0xb38	; 0xb38 <send_cmd>
	send_data(a);
     ca4:	81 2f       	mov	r24, r17
     ca6:	0e 94 95 05 	call	0xb2a	; 0xb2a <send_data>
	send_data(b);
     caa:	80 2f       	mov	r24, r16
     cac:	0e 94 95 05 	call	0xb2a	; 0xb2a <send_data>
}
     cb0:	1f 91       	pop	r17
     cb2:	0f 91       	pop	r16
     cb4:	08 95       	ret

00000cb6 <pix_blit>:
//void setup_pix_blit(uint8_t sx, uint8_t sy, uint8_t dx, uint8_t dy) {
//  cpxSetAndValidateLCDRect(sx,sy,dx,dy);	
//}
///////////////////////////////////////////////////
void pix_blit(uint8_t color){
	send_data(color);
     cb6:	0e 94 95 05 	call	0xb2a	; 0xb2a <send_data>
}
     cba:	08 95       	ret

00000cbc <putstr_ram>:

////////////////////////////////////////////////////////
uint8_t   putstr_ram(uint8_t x, uint8_t y, char * p, uint8_t fg, uint8_t bg) {
     cbc:	ef 92       	push	r14
     cbe:	ff 92       	push	r15
     cc0:	0f 93       	push	r16
     cc2:	1f 93       	push	r17
     cc4:	cf 93       	push	r28
     cc6:	df 93       	push	r29
     cc8:	e6 2e       	mov	r14, r22
     cca:	ea 01       	movw	r28, r20
     ccc:	f2 2e       	mov	r15, r18
     cce:	10 2f       	mov	r17, r16
     cd0:	05 c0       	rjmp	.+10     	; 0xcdc <putstr_ram+0x20>
  //void putstr_ram(uint8_t x, uint8_t y, char * p, uint8_t fg, uint8_t bg) {
  uint8_t c;
  while ((c = *p++))
    x = putch(x, y, c, fg, bg);	
     cd2:	6e 2d       	mov	r22, r14
     cd4:	2f 2d       	mov	r18, r15
     cd6:	01 2f       	mov	r16, r17
     cd8:	0e 94 c5 05 	call	0xb8a	; 0xb8a <putch>

////////////////////////////////////////////////////////
uint8_t   putstr_ram(uint8_t x, uint8_t y, char * p, uint8_t fg, uint8_t bg) {
  //void putstr_ram(uint8_t x, uint8_t y, char * p, uint8_t fg, uint8_t bg) {
  uint8_t c;
  while ((c = *p++))
     cdc:	49 91       	ld	r20, Y+
     cde:	44 23       	and	r20, r20
     ce0:	c1 f7       	brne	.-16     	; 0xcd2 <putstr_ram+0x16>
    x = putch(x, y, c, fg, bg);	
  return x;

}
     ce2:	df 91       	pop	r29
     ce4:	cf 91       	pop	r28
     ce6:	1f 91       	pop	r17
     ce8:	0f 91       	pop	r16
     cea:	ff 90       	pop	r15
     cec:	ef 90       	pop	r14
     cee:	08 95       	ret

00000cf0 <putstr_pgm>:
 // return x;

//}

/////////////////////////////////////////////////////////////
uint8_t putstr_pgm(uint8_t x, uint8_t y, PGM_P p, uint8_t fg, uint8_t bg) {
     cf0:	ef 92       	push	r14
     cf2:	ff 92       	push	r15
     cf4:	0f 93       	push	r16
     cf6:	1f 93       	push	r17
     cf8:	cf 93       	push	r28
     cfa:	df 93       	push	r29
     cfc:	e6 2e       	mov	r14, r22
     cfe:	ea 01       	movw	r28, r20
     d00:	f2 2e       	mov	r15, r18
     d02:	10 2f       	mov	r17, r16
     d04:	05 c0       	rjmp	.+10     	; 0xd10 <putstr_pgm+0x20>
	
  uint8_t c;
  while ((c = pgm_read_byte(p++)))
    x = putch(x, y, c, fg, bg);
     d06:	6e 2d       	mov	r22, r14
     d08:	2f 2d       	mov	r18, r15
     d0a:	01 2f       	mov	r16, r17
     d0c:	0e 94 c5 05 	call	0xb8a	; 0xb8a <putch>
     d10:	fe 01       	movw	r30, r28

/////////////////////////////////////////////////////////////
uint8_t putstr_pgm(uint8_t x, uint8_t y, PGM_P p, uint8_t fg, uint8_t bg) {
	
  uint8_t c;
  while ((c = pgm_read_byte(p++)))
     d12:	21 96       	adiw	r28, 0x01	; 1
     d14:	44 91       	lpm	r20, Z+
     d16:	44 23       	and	r20, r20
     d18:	b1 f7       	brne	.-20     	; 0xd06 <putstr_pgm+0x16>
    x = putch(x, y, c, fg, bg);
	
  return x;
}
     d1a:	df 91       	pop	r29
     d1c:	cf 91       	pop	r28
     d1e:	1f 91       	pop	r17
     d20:	0f 91       	pop	r16
     d22:	ff 90       	pop	r15
     d24:	ef 90       	pop	r14
     d26:	08 95       	ret

00000d28 <printDecimal>:
/////////////////////////////////////////////////////////////////

uint8_t printDecimal(uint8_t x, uint8_t y, uint32_t val, uint8_t fg, uint8_t bg) {
     d28:	8f 92       	push	r8
     d2a:	9f 92       	push	r9
     d2c:	af 92       	push	r10
     d2e:	bf 92       	push	r11
     d30:	cf 92       	push	r12
     d32:	df 92       	push	r13
     d34:	ef 92       	push	r14
     d36:	ff 92       	push	r15
     d38:	0f 93       	push	r16
     d3a:	1f 93       	push	r17
     d3c:	df 93       	push	r29
     d3e:	cf 93       	push	r28
     d40:	cd b7       	in	r28, 0x3d	; 61
     d42:	de b7       	in	r29, 0x3e	; 62
     d44:	29 97       	sbiw	r28, 0x09	; 9
     d46:	0f b6       	in	r0, 0x3f	; 63
     d48:	f8 94       	cli
     d4a:	de bf       	out	0x3e, r29	; 62
     d4c:	0f be       	out	0x3f, r0	; 63
     d4e:	cd bf       	out	0x3d, r28	; 61
     d50:	f8 2e       	mov	r15, r24
     d52:	96 2e       	mov	r9, r22
     d54:	59 01       	movw	r10, r18
     d56:	6a 01       	movw	r12, r20
     d58:	80 2e       	mov	r8, r16
  char buf[9];
  buf[8] = 0;
     d5a:	19 86       	std	Y+9, r1	; 0x09
     d5c:	8e 01       	movw	r16, r28
     d5e:	07 5f       	subi	r16, 0xF7	; 247
     d60:	1f 4f       	sbci	r17, 0xFF	; 255
     d62:	18 c0       	rjmp	.+48     	; 0xd94 <printDecimal+0x6c>
  char * ptr = &buf[8];
	
  while(val > 0) {
    ptr--;
    *ptr = val%10 + '0';
     d64:	c6 01       	movw	r24, r12
     d66:	b5 01       	movw	r22, r10
     d68:	2a e0       	ldi	r18, 0x0A	; 10
     d6a:	30 e0       	ldi	r19, 0x00	; 0
     d6c:	40 e0       	ldi	r20, 0x00	; 0
     d6e:	50 e0       	ldi	r21, 0x00	; 0
     d70:	0e 94 fd 2d 	call	0x5bfa	; 0x5bfa <__udivmodsi4>
     d74:	60 5d       	subi	r22, 0xD0	; 208
     d76:	f8 01       	movw	r30, r16
     d78:	62 93       	st	-Z, r22
     d7a:	8f 01       	movw	r16, r30
    val /= 10;
     d7c:	c6 01       	movw	r24, r12
     d7e:	b5 01       	movw	r22, r10
     d80:	2a e0       	ldi	r18, 0x0A	; 10
     d82:	30 e0       	ldi	r19, 0x00	; 0
     d84:	40 e0       	ldi	r20, 0x00	; 0
     d86:	50 e0       	ldi	r21, 0x00	; 0
     d88:	0e 94 fd 2d 	call	0x5bfa	; 0x5bfa <__udivmodsi4>
     d8c:	c9 01       	movw	r24, r18
     d8e:	da 01       	movw	r26, r20
     d90:	5c 01       	movw	r10, r24
     d92:	6d 01       	movw	r12, r26
uint8_t printDecimal(uint8_t x, uint8_t y, uint32_t val, uint8_t fg, uint8_t bg) {
  char buf[9];
  buf[8] = 0;
  char * ptr = &buf[8];
	
  while(val > 0) {
     d94:	a1 14       	cp	r10, r1
     d96:	b1 04       	cpc	r11, r1
     d98:	c1 04       	cpc	r12, r1
     d9a:	d1 04       	cpc	r13, r1
     d9c:	19 f7       	brne	.-58     	; 0xd64 <printDecimal+0x3c>
    val /= 10;
  }
//  if (ptr == &buf[8])
//    *(ptr = &buf[7]);// = '0';

  return putstr_ram(x,y,ptr,fg,bg);
     d9e:	8f 2d       	mov	r24, r15
     da0:	69 2d       	mov	r22, r9
     da2:	a8 01       	movw	r20, r16
     da4:	28 2d       	mov	r18, r8
     da6:	0e 2d       	mov	r16, r14
     da8:	0e 94 5e 06 	call	0xcbc	; 0xcbc <putstr_ram>

}
     dac:	29 96       	adiw	r28, 0x09	; 9
     dae:	0f b6       	in	r0, 0x3f	; 63
     db0:	f8 94       	cli
     db2:	de bf       	out	0x3e, r29	; 62
     db4:	0f be       	out	0x3f, r0	; 63
     db6:	cd bf       	out	0x3d, r28	; 61
     db8:	cf 91       	pop	r28
     dba:	df 91       	pop	r29
     dbc:	1f 91       	pop	r17
     dbe:	0f 91       	pop	r16
     dc0:	ff 90       	pop	r15
     dc2:	ef 90       	pop	r14
     dc4:	df 90       	pop	r13
     dc6:	cf 90       	pop	r12
     dc8:	bf 90       	pop	r11
     dca:	af 90       	pop	r10
     dcc:	9f 90       	pop	r9
     dce:	8f 90       	pop	r8
     dd0:	08 95       	ret

00000dd2 <test_all_char>:
}

////////////////////////////////////////////////////
//////////  ПОКАЗАТь ВЕСЬ ЗНАКОГЕНЕРАТОР   /////////
////////////////////////////////////////////////////
void test_all_char(void){
     dd2:	8f 92       	push	r8
     dd4:	9f 92       	push	r9
     dd6:	af 92       	push	r10
     dd8:	bf 92       	push	r11
     dda:	cf 92       	push	r12
     ddc:	df 92       	push	r13
     dde:	ef 92       	push	r14
     de0:	ff 92       	push	r15
     de2:	0f 93       	push	r16
     de4:	1f 93       	push	r17
     de6:	99 24       	eor	r9, r9
     de8:	ff 24       	eor	r15, r15
     dea:	21 e0       	ldi	r18, 0x01	; 1
     dec:	a2 2e       	mov	r10, r18
     dee:	b1 2c       	mov	r11, r1
     df0:	c1 2c       	mov	r12, r1
     df2:	d1 2c       	mov	r13, r1
     df4:	22 c0       	rjmp	.+68     	; 0xe3a <test_all_char+0x68>
     df6:	48 2d       	mov	r20, r8
     df8:	0e 2d       	mov	r16, r14
	char j = 1;
	char k =0;
	char l=0;
	for(int i=0; i<128; i+=8){
	for(int h=2; h<114; h+=7){
	putch(h, i, k++, 255, l++);// l++);
     dfa:	84 2e       	mov	r8, r20
     dfc:	83 94       	inc	r8
     dfe:	e0 2e       	mov	r14, r16
     e00:	e3 94       	inc	r14
     e02:	81 2f       	mov	r24, r17
     e04:	6f 2d       	mov	r22, r15
     e06:	2f ef       	ldi	r18, 0xFF	; 255
     e08:	0e 94 c5 05 	call	0xb8a	; 0xb8a <putch>
     e0c:	19 5f       	subi	r17, 0xF9	; 249
void test_all_char(void){
	char j = 1;
	char k =0;
	char l=0;
	for(int i=0; i<128; i+=8){
	for(int h=2; h<114; h+=7){
     e0e:	12 37       	cpi	r17, 0x72	; 114
     e10:	91 f7       	brne	.-28     	; 0xdf6 <test_all_char+0x24>
     e12:	80 e1       	ldi	r24, 0x10	; 16
     e14:	98 0e       	add	r9, r24
	putch(h, i, k++, 255, l++);// l++);
	}
	printDecimal(118,i,j++, 0xFE, 0x00);
     e16:	86 e7       	ldi	r24, 0x76	; 118
     e18:	6f 2d       	mov	r22, r15
     e1a:	a6 01       	movw	r20, r12
     e1c:	95 01       	movw	r18, r10
     e1e:	0e ef       	ldi	r16, 0xFE	; 254
     e20:	ee 24       	eor	r14, r14
     e22:	0e 94 94 06 	call	0xd28	; 0xd28 <printDecimal>
     e26:	88 e0       	ldi	r24, 0x08	; 8
     e28:	f8 0e       	add	r15, r24
     e2a:	08 94       	sec
     e2c:	a1 1c       	adc	r10, r1
     e2e:	b1 1c       	adc	r11, r1
     e30:	c1 1c       	adc	r12, r1
     e32:	d1 1c       	adc	r13, r1
////////////////////////////////////////////////////
void test_all_char(void){
	char j = 1;
	char k =0;
	char l=0;
	for(int i=0; i<128; i+=8){
     e34:	80 e8       	ldi	r24, 0x80	; 128
     e36:	f8 16       	cp	r15, r24
     e38:	21 f0       	breq	.+8      	; 0xe42 <test_all_char+0x70>
     e3a:	49 2d       	mov	r20, r9
     e3c:	09 2d       	mov	r16, r9
     e3e:	12 e0       	ldi	r17, 0x02	; 2
     e40:	dc cf       	rjmp	.-72     	; 0xdfa <test_all_char+0x28>
	putch(h, i, k++, 255, l++);// l++);
	}
	printDecimal(118,i,j++, 0xFE, 0x00);

	}
}
     e42:	1f 91       	pop	r17
     e44:	0f 91       	pop	r16
     e46:	ff 90       	pop	r15
     e48:	ef 90       	pop	r14
     e4a:	df 90       	pop	r13
     e4c:	cf 90       	pop	r12
     e4e:	bf 90       	pop	r11
     e50:	af 90       	pop	r10
     e52:	9f 90       	pop	r9
     e54:	8f 90       	pop	r8
     e56:	08 95       	ret

00000e58 <set_Pixel>:
}



void set_Pixel(int x1,int y1,uint8_t fg, uint8_t l)
{
     e58:	ef 92       	push	r14
     e5a:	ff 92       	push	r15
     e5c:	0f 93       	push	r16
     e5e:	1f 93       	push	r17
     e60:	18 2f       	mov	r17, r24
     e62:	f6 2e       	mov	r15, r22
     e64:	e4 2e       	mov	r14, r20
     e66:	02 2f       	mov	r16, r18

	send_cmd (CASET);
     e68:	8a e2       	ldi	r24, 0x2A	; 42
     e6a:	0e 94 9c 05 	call	0xb38	; 0xb38 <send_cmd>
	send_data(x1);	
     e6e:	81 2f       	mov	r24, r17
     e70:	0e 94 95 05 	call	0xb2a	; 0xb2a <send_data>
	send_data(x1+l);
     e74:	80 2f       	mov	r24, r16
     e76:	81 0f       	add	r24, r17
     e78:	0e 94 95 05 	call	0xb2a	; 0xb2a <send_data>
		
	send_cmd (PASET);	
     e7c:	8b e2       	ldi	r24, 0x2B	; 43
     e7e:	0e 94 9c 05 	call	0xb38	; 0xb38 <send_cmd>
	send_data(y1);
     e82:	8f 2d       	mov	r24, r15
     e84:	0e 94 95 05 	call	0xb2a	; 0xb2a <send_data>
	send_data(y1+l);
     e88:	80 2f       	mov	r24, r16
     e8a:	8f 0d       	add	r24, r15
     e8c:	0e 94 95 05 	call	0xb2a	; 0xb2a <send_data>
	send_cmd (RAMWR);
     e90:	8c e2       	ldi	r24, 0x2C	; 44
     e92:	0e 94 9c 05 	call	0xb38	; 0xb38 <send_cmd>

	l *=l;
     e96:	00 9f       	mul	r16, r16
     e98:	00 2d       	mov	r16, r0
     e9a:	11 24       	eor	r1, r1
     e9c:	10 e0       	ldi	r17, 0x00	; 0
     e9e:	04 c0       	rjmp	.+8      	; 0xea8 <set_Pixel+0x50>
	for(uint8_t i=0; i<l; i++){
	send_data(fg);
     ea0:	8e 2d       	mov	r24, r14
     ea2:	0e 94 95 05 	call	0xb2a	; 0xb2a <send_data>
	send_data(y1);
	send_data(y1+l);
	send_cmd (RAMWR);

	l *=l;
	for(uint8_t i=0; i<l; i++){
     ea6:	1f 5f       	subi	r17, 0xFF	; 255
     ea8:	10 17       	cp	r17, r16
     eaa:	d0 f3       	brcs	.-12     	; 0xea0 <set_Pixel+0x48>
	send_data(fg);
	}
  send_cmd(0x2C);  //Memory Write
     eac:	8c e2       	ldi	r24, 0x2C	; 44
     eae:	0e 94 9c 05 	call	0xb38	; 0xb38 <send_cmd>

}
     eb2:	1f 91       	pop	r17
     eb4:	0f 91       	pop	r16
     eb6:	ff 90       	pop	r15
     eb8:	ef 90       	pop	r14
     eba:	08 95       	ret

00000ebc <drawLine>:
}
///////////////////////////////
///////////////////////////////

void drawLine(int x1, int y1, int x2, int y2, uint8_t fg, uint8_t l)
{
     ebc:	2f 92       	push	r2
     ebe:	3f 92       	push	r3
     ec0:	4f 92       	push	r4
     ec2:	5f 92       	push	r5
     ec4:	6f 92       	push	r6
     ec6:	7f 92       	push	r7
     ec8:	8f 92       	push	r8
     eca:	9f 92       	push	r9
     ecc:	af 92       	push	r10
     ece:	bf 92       	push	r11
     ed0:	cf 92       	push	r12
     ed2:	df 92       	push	r13
     ed4:	ef 92       	push	r14
     ed6:	ff 92       	push	r15
     ed8:	0f 93       	push	r16
     eda:	1f 93       	push	r17
     edc:	df 93       	push	r29
     ede:	cf 93       	push	r28
     ee0:	00 d0       	rcall	.+0      	; 0xee2 <drawLine+0x26>
     ee2:	00 d0       	rcall	.+0      	; 0xee4 <drawLine+0x28>
     ee4:	00 d0       	rcall	.+0      	; 0xee6 <drawLine+0x2a>
     ee6:	cd b7       	in	r28, 0x3d	; 61
     ee8:	de b7       	in	r29, 0x3e	; 62
     eea:	5c 01       	movw	r10, r24
     eec:	6b 01       	movw	r12, r22
     eee:	3a 01       	movw	r6, r20
     ef0:	49 01       	movw	r8, r18
     ef2:	09 83       	std	Y+1, r16	; 0x01
     ef4:	ea 82       	std	Y+2, r14	; 0x02
    int deltaX = (x2 - x1);
     ef6:	7a 01       	movw	r14, r20
     ef8:	e8 1a       	sub	r14, r24
     efa:	f9 0a       	sbc	r15, r25
    int deltaY = (y2 - y1);
     efc:	89 01       	movw	r16, r18
     efe:	06 1b       	sub	r16, r22
     f00:	17 0b       	sbc	r17, r23
    int signX = x1 < x2 ? 1 : -1;
     f02:	84 17       	cp	r24, r20
     f04:	95 07       	cpc	r25, r21
     f06:	24 f0       	brlt	.+8      	; 0xf10 <drawLine+0x54>
     f08:	22 24       	eor	r2, r2
     f0a:	2a 94       	dec	r2
     f0c:	32 2c       	mov	r3, r2
     f0e:	03 c0       	rjmp	.+6      	; 0xf16 <drawLine+0x5a>
     f10:	51 e0       	ldi	r21, 0x01	; 1
     f12:	25 2e       	mov	r2, r21
     f14:	31 2c       	mov	r3, r1
    int signY = y1 < y2 ? 1 : -1;
     f16:	c8 14       	cp	r12, r8
     f18:	d9 04       	cpc	r13, r9
     f1a:	24 f0       	brlt	.+8      	; 0xf24 <drawLine+0x68>
     f1c:	44 24       	eor	r4, r4
     f1e:	4a 94       	dec	r4
     f20:	54 2c       	mov	r5, r4
     f22:	03 c0       	rjmp	.+6      	; 0xf2a <drawLine+0x6e>
     f24:	41 e0       	ldi	r20, 0x01	; 1
     f26:	44 2e       	mov	r4, r20
     f28:	51 2c       	mov	r5, r1
    int error = deltaX - deltaY;
     f2a:	97 01       	movw	r18, r14
     f2c:	20 1b       	sub	r18, r16
     f2e:	31 0b       	sbc	r19, r17
     f30:	3e 83       	std	Y+6, r19	; 0x06
     f32:	2d 83       	std	Y+5, r18	; 0x05
        if(x1 == x2 && y1 == y2)
            break;
 
        int error2 = error * 2;
 
        if(error2 > -deltaY)
     f34:	88 27       	eor	r24, r24
     f36:	99 27       	eor	r25, r25
     f38:	80 1b       	sub	r24, r16
     f3a:	91 0b       	sbc	r25, r17
     f3c:	9c 83       	std	Y+4, r25	; 0x04
     f3e:	8b 83       	std	Y+3, r24	; 0x03
    int signY = y1 < y2 ? 1 : -1;
    int error = deltaX - deltaY;
 
    for (;;)
    {
        set_Pixel(x1, y1, fg, l);//uint8_t fg, uint8_t bg
     f40:	c5 01       	movw	r24, r10
     f42:	b6 01       	movw	r22, r12
     f44:	49 81       	ldd	r20, Y+1	; 0x01
     f46:	50 e0       	ldi	r21, 0x00	; 0
     f48:	2a 81       	ldd	r18, Y+2	; 0x02
     f4a:	30 e0       	ldi	r19, 0x00	; 0
     f4c:	0e 94 2c 07 	call	0xe58	; 0xe58 <set_Pixel>
 
        if(x1 == x2 && y1 == y2)
     f50:	a6 14       	cp	r10, r6
     f52:	b7 04       	cpc	r11, r7
     f54:	19 f4       	brne	.+6      	; 0xf5c <drawLine+0xa0>
     f56:	c8 14       	cp	r12, r8
     f58:	d9 04       	cpc	r13, r9
     f5a:	e9 f0       	breq	.+58     	; 0xf96 <drawLine+0xda>
            break;
 
        int error2 = error * 2;
     f5c:	8d 81       	ldd	r24, Y+5	; 0x05
     f5e:	9e 81       	ldd	r25, Y+6	; 0x06
     f60:	88 0f       	add	r24, r24
     f62:	99 1f       	adc	r25, r25
 
        if(error2 > -deltaY)
     f64:	eb 81       	ldd	r30, Y+3	; 0x03
     f66:	fc 81       	ldd	r31, Y+4	; 0x04
     f68:	e8 17       	cp	r30, r24
     f6a:	f9 07       	cpc	r31, r25
     f6c:	44 f4       	brge	.+16     	; 0xf7e <drawLine+0xc2>
        {
            error -= deltaY;
     f6e:	2d 81       	ldd	r18, Y+5	; 0x05
     f70:	3e 81       	ldd	r19, Y+6	; 0x06
     f72:	20 1b       	sub	r18, r16
     f74:	31 0b       	sbc	r19, r17
     f76:	3e 83       	std	Y+6, r19	; 0x06
     f78:	2d 83       	std	Y+5, r18	; 0x05
            x1 += signX;
     f7a:	a2 0c       	add	r10, r2
     f7c:	b3 1c       	adc	r11, r3
        }
 
        if(error2 < deltaX)
     f7e:	8e 15       	cp	r24, r14
     f80:	9f 05       	cpc	r25, r15
     f82:	f4 f6       	brge	.-68     	; 0xf40 <drawLine+0x84>
        {
            error += deltaX;
     f84:	8d 81       	ldd	r24, Y+5	; 0x05
     f86:	9e 81       	ldd	r25, Y+6	; 0x06
     f88:	8e 0d       	add	r24, r14
     f8a:	9f 1d       	adc	r25, r15
     f8c:	9e 83       	std	Y+6, r25	; 0x06
     f8e:	8d 83       	std	Y+5, r24	; 0x05
            y1 += signY;
     f90:	c4 0c       	add	r12, r4
     f92:	d5 1c       	adc	r13, r5
     f94:	d5 cf       	rjmp	.-86     	; 0xf40 <drawLine+0x84>
        }
    }
}
     f96:	26 96       	adiw	r28, 0x06	; 6
     f98:	0f b6       	in	r0, 0x3f	; 63
     f9a:	f8 94       	cli
     f9c:	de bf       	out	0x3e, r29	; 62
     f9e:	0f be       	out	0x3f, r0	; 63
     fa0:	cd bf       	out	0x3d, r28	; 61
     fa2:	cf 91       	pop	r28
     fa4:	df 91       	pop	r29
     fa6:	1f 91       	pop	r17
     fa8:	0f 91       	pop	r16
     faa:	ff 90       	pop	r15
     fac:	ef 90       	pop	r14
     fae:	df 90       	pop	r13
     fb0:	cf 90       	pop	r12
     fb2:	bf 90       	pop	r11
     fb4:	af 90       	pop	r10
     fb6:	9f 90       	pop	r9
     fb8:	8f 90       	pop	r8
     fba:	7f 90       	pop	r7
     fbc:	6f 90       	pop	r6
     fbe:	5f 90       	pop	r5
     fc0:	4f 90       	pop	r4
     fc2:	3f 90       	pop	r3
     fc4:	2f 90       	pop	r2
     fc6:	08 95       	ret

00000fc8 <print_bmp_sd>:
        }
}
*/
///////////////////////////////////////////////////////////////////////////////////////////////////
///////////////////////////////////////////////////////////////////////////////////////////////////
void print_bmp_sd(FIL *fil_ob){
     fc8:	6f 92       	push	r6
     fca:	7f 92       	push	r7
     fcc:	8f 92       	push	r8
     fce:	9f 92       	push	r9
     fd0:	af 92       	push	r10
     fd2:	bf 92       	push	r11
     fd4:	cf 92       	push	r12
     fd6:	df 92       	push	r13
     fd8:	ef 92       	push	r14
     fda:	ff 92       	push	r15
     fdc:	0f 93       	push	r16
     fde:	1f 93       	push	r17
     fe0:	df 93       	push	r29
     fe2:	cf 93       	push	r28
     fe4:	cd b7       	in	r28, 0x3d	; 61
     fe6:	de b7       	in	r29, 0x3e	; 62
     fe8:	c2 52       	subi	r28, 0x22	; 34
     fea:	d2 40       	sbci	r29, 0x02	; 2
     fec:	0f b6       	in	r0, 0x3f	; 63
     fee:	f8 94       	cli
     ff0:	de bf       	out	0x3e, r29	; 62
     ff2:	0f be       	out	0x3f, r0	; 63
     ff4:	cd bf       	out	0x3d, r28	; 61

	  FIL fil_obj;

	fil_obj = *fil_ob;
     ff6:	de 01       	movw	r26, r28
     ff8:	13 96       	adiw	r26, 0x03	; 3
     ffa:	fc 01       	movw	r30, r24
     ffc:	80 e2       	ldi	r24, 0x20	; 32
     ffe:	92 e0       	ldi	r25, 0x02	; 2
    1000:	01 90       	ld	r0, Z+
    1002:	0d 92       	st	X+, r0
    1004:	01 97       	sbiw	r24, 0x01	; 1
    1006:	e1 f7       	brne	.-8      	; 0x1000 <print_bmp_sd+0x38>
    1008:	ff 24       	eor	r15, r15
    100a:	dd 24       	eor	r13, r13
    100c:	88 24       	eor	r8, r8
    100e:	99 24       	eor	r9, r9
    1010:	00 e0       	ldi	r16, 0x00	; 0
    1012:	10 e0       	ldi	r17, 0x00	; 0
	uint8_t al=0,ah=0,l =0,h =0,x =0,y =0;


  for(int i = 0; i<23; i++){ // 1078 // 0x436

	f_read(&fil_obj, buff, cnt, &s2);
    1014:	e3 e0       	ldi	r30, 0x03	; 3
    1016:	6e 2e       	mov	r6, r30
    1018:	71 2c       	mov	r7, r1
    101a:	6c 0e       	add	r6, r28
    101c:	7d 1e       	adc	r7, r29
    101e:	5e 01       	movw	r10, r28
    1020:	08 94       	sec
    1022:	a1 1c       	adc	r10, r1
    1024:	b1 1c       	adc	r11, r1
    1026:	c3 01       	movw	r24, r6
    1028:	65 e1       	ldi	r22, 0x15	; 21
    102a:	76 e0       	ldi	r23, 0x06	; 6
    102c:	41 e0       	ldi	r20, 0x01	; 1
    102e:	50 e0       	ldi	r21, 0x00	; 0
    1030:	95 01       	movw	r18, r10
    1032:	0e 94 60 21 	call	0x42c0	; 0x42c0 <f_read>

	uint8_t	t = buff[0];//receiveByte//get_data
    1036:	20 91 15 06 	lds	r18, 0x0615

  switch (i){ // получить данные из заголовка BMP
    103a:	0a 30       	cpi	r16, 0x0A	; 10
    103c:	11 05       	cpc	r17, r1
    103e:	d1 f0       	breq	.+52     	; 0x1074 <print_bmp_sd+0xac>
    1040:	0b 30       	cpi	r16, 0x0B	; 11
    1042:	11 05       	cpc	r17, r1
    1044:	2c f4       	brge	.+10     	; 0x1050 <print_bmp_sd+0x88>
    1046:	c8 01       	movw	r24, r16
    1048:	02 97       	sbiw	r24, 0x02	; 2
    104a:	02 97       	sbiw	r24, 0x02	; 2
    104c:	b8 f4       	brcc	.+46     	; 0x107c <print_bmp_sd+0xb4>
    104e:	12 c0       	rjmp	.+36     	; 0x1074 <print_bmp_sd+0xac>
    1050:	02 31       	cpi	r16, 0x12	; 18
    1052:	11 05       	cpc	r17, r1
    1054:	51 f0       	breq	.+20     	; 0x106a <print_bmp_sd+0xa2>
    1056:	06 31       	cpi	r16, 0x16	; 22
    1058:	11 05       	cpc	r17, r1
    105a:	51 f0       	breq	.+20     	; 0x1070 <print_bmp_sd+0xa8>
    105c:	0b 30       	cpi	r16, 0x0B	; 11
    105e:	11 05       	cpc	r17, r1
    1060:	69 f4       	brne	.+26     	; 0x107c <print_bmp_sd+0xb4>
    1062:	d2 2e       	mov	r13, r18
    1064:	82 2e       	mov	r8, r18
    1066:	92 2e       	mov	r9, r18
    1068:	09 c0       	rjmp	.+18     	; 0x107c <print_bmp_sd+0xb4>
    106a:	82 2e       	mov	r8, r18
    106c:	92 2e       	mov	r9, r18
    106e:	06 c0       	rjmp	.+12     	; 0x107c <print_bmp_sd+0xb4>
    1070:	92 2e       	mov	r9, r18
    1072:	04 c0       	rjmp	.+8      	; 0x107c <print_bmp_sd+0xb4>
    1074:	f2 2e       	mov	r15, r18
    1076:	d2 2e       	mov	r13, r18
    1078:	82 2e       	mov	r8, r18
    107a:	92 2e       	mov	r9, r18

 	UINT s2, cnt=1;				//	printString (f_gets (buff,1,&fil_obj));	//Read data from newfile
	uint8_t al=0,ah=0,l =0,h =0,x =0,y =0;


  for(int i = 0; i<23; i++){ // 1078 // 0x436
    107c:	0f 5f       	subi	r16, 0xFF	; 255
    107e:	1f 4f       	sbci	r17, 0xFF	; 255
    1080:	07 31       	cpi	r16, 0x17	; 23
    1082:	11 05       	cpc	r17, r1
    1084:	81 f6       	brne	.-96     	; 0x1026 <print_bmp_sd+0x5e>
  case 18: {x = t; }
  case 22: {y = t; }
			}
							}// end for
//	uint16_t a = al + ((unsigned int)ah << 8); //размер файла							}
	uint16_t b = l + ((unsigned int)h << 8); //адрес  начала BMP
    1086:	ef 2c       	mov	r14, r15
    1088:	ff 24       	eor	r15, r15
    108a:	89 ee       	ldi	r24, 0xE9	; 233
    108c:	9f ef       	ldi	r25, 0xFF	; 255
    108e:	e8 0e       	add	r14, r24
    1090:	f9 1e       	adc	r15, r25

	b = b - 23; // начало BMP - данные которые уже получили 
    1092:	9d 2d       	mov	r25, r13
    1094:	80 e0       	ldi	r24, 0x00	; 0
    1096:	e8 0e       	add	r14, r24
    1098:	f9 1e       	adc	r15, r25
    109a:	00 e0       	ldi	r16, 0x00	; 0
    109c:	10 e0       	ldi	r17, 0x00	; 0

	for(uint16_t i = 0; i<b; i++){	f_read(&fil_obj, buff, cnt, &s2);}
    109e:	73 e0       	ldi	r23, 0x03	; 3
    10a0:	a7 2e       	mov	r10, r23
    10a2:	b1 2c       	mov	r11, r1
    10a4:	ac 0e       	add	r10, r28
    10a6:	bd 1e       	adc	r11, r29
    10a8:	6e 01       	movw	r12, r28
    10aa:	08 94       	sec
    10ac:	c1 1c       	adc	r12, r1
    10ae:	d1 1c       	adc	r13, r1
    10b0:	0a c0       	rjmp	.+20     	; 0x10c6 <print_bmp_sd+0xfe>
    10b2:	c5 01       	movw	r24, r10
    10b4:	65 e1       	ldi	r22, 0x15	; 21
    10b6:	76 e0       	ldi	r23, 0x06	; 6
    10b8:	41 e0       	ldi	r20, 0x01	; 1
    10ba:	50 e0       	ldi	r21, 0x00	; 0
    10bc:	96 01       	movw	r18, r12
    10be:	0e 94 60 21 	call	0x42c0	; 0x42c0 <f_read>
    10c2:	0f 5f       	subi	r16, 0xFF	; 255
    10c4:	1f 4f       	sbci	r17, 0xFF	; 255
    10c6:	0e 15       	cp	r16, r14
    10c8:	1f 05       	cpc	r17, r15
    10ca:	98 f3       	brcs	.-26     	; 0x10b2 <print_bmp_sd+0xea>

	send_cmd (0x36);//  0x36  //;Memory data acces control
    10cc:	86 e3       	ldi	r24, 0x36	; 54
    10ce:	0e 94 9c 05 	call	0xb38	; 0xb38 <send_cmd>
	send_data(0x08);// 0x20-MADCTL_VERT
    10d2:	88 e0       	ldi	r24, 0x08	; 8
    10d4:	0e 94 95 05 	call	0xb2a	; 0xb2a <send_data>
	send_cmd (0x2c);
    10d8:	8c e2       	ldi	r24, 0x2C	; 44
    10da:	0e 94 9c 05 	call	0xb38	; 0xb38 <send_cmd>

	 window(2,2,x+1,y+1);
    10de:	48 2d       	mov	r20, r8
    10e0:	4f 5f       	subi	r20, 0xFF	; 255
    10e2:	29 2d       	mov	r18, r9
    10e4:	2f 5f       	subi	r18, 0xFF	; 255
    10e6:	82 e0       	ldi	r24, 0x02	; 2
    10e8:	62 e0       	ldi	r22, 0x02	; 2
    10ea:	0e 94 a3 05 	call	0xb46	; 0xb46 <window>
    10ee:	00 e0       	ldi	r16, 0x00	; 0
	
	for(uint8_t i = 0; i<y; i++){
	for(uint8_t h = 0; h<x; h++){

	f_read(&fil_obj, buff, cnt, &s2);
    10f0:	63 e0       	ldi	r22, 0x03	; 3
    10f2:	c6 2e       	mov	r12, r22
    10f4:	d1 2c       	mov	r13, r1
    10f6:	cc 0e       	add	r12, r28
    10f8:	dd 1e       	adc	r13, r29
    10fa:	7e 01       	movw	r14, r28
    10fc:	08 94       	sec
    10fe:	e1 1c       	adc	r14, r1
    1100:	f1 1c       	adc	r15, r1
    1102:	15 c0       	rjmp	.+42     	; 0x112e <__stack+0x2f>
    1104:	c6 01       	movw	r24, r12
    1106:	65 e1       	ldi	r22, 0x15	; 21
    1108:	76 e0       	ldi	r23, 0x06	; 6
    110a:	41 e0       	ldi	r20, 0x01	; 1
    110c:	50 e0       	ldi	r21, 0x00	; 0
    110e:	97 01       	movw	r18, r14
    1110:	0e 94 60 21 	call	0x42c0	; 0x42c0 <f_read>
	uint8_t k = buff[0];

	unsigned char *p = s_palitra8bit+k;
	int a = pgm_read_byte(p);// цвет из BMP сопоставить с местной палитрой
    1114:	e0 91 15 06 	lds	r30, 0x0615
    1118:	f0 e0       	ldi	r31, 0x00	; 0
    111a:	ee 53       	subi	r30, 0x3E	; 62
    111c:	ff 4f       	sbci	r31, 0xFF	; 255
    111e:	e4 91       	lpm	r30, Z+
	send_data(a);
    1120:	8e 2f       	mov	r24, r30
    1122:	0e 94 95 05 	call	0xb2a	; 0xb2a <send_data>
	send_cmd (0x2c);

	 window(2,2,x+1,y+1);
	
	for(uint8_t i = 0; i<y; i++){
	for(uint8_t h = 0; h<x; h++){
    1126:	1f 5f       	subi	r17, 0xFF	; 255
    1128:	18 15       	cp	r17, r8
    112a:	60 f3       	brcs	.-40     	; 0x1104 <__stack+0x5>
	send_data(0x08);// 0x20-MADCTL_VERT
	send_cmd (0x2c);

	 window(2,2,x+1,y+1);
	
	for(uint8_t i = 0; i<y; i++){
    112c:	0f 5f       	subi	r16, 0xFF	; 255
    112e:	09 15       	cp	r16, r9
    1130:	10 f4       	brcc	.+4      	; 0x1136 <__stack+0x37>
    1132:	10 e0       	ldi	r17, 0x00	; 0
    1134:	f9 cf       	rjmp	.-14     	; 0x1128 <__stack+0x29>
	int a = pgm_read_byte(p);// цвет из BMP сопоставить с местной палитрой
	send_data(a);
	}
	}

}
    1136:	ce 5d       	subi	r28, 0xDE	; 222
    1138:	dd 4f       	sbci	r29, 0xFD	; 253
    113a:	0f b6       	in	r0, 0x3f	; 63
    113c:	f8 94       	cli
    113e:	de bf       	out	0x3e, r29	; 62
    1140:	0f be       	out	0x3f, r0	; 63
    1142:	cd bf       	out	0x3d, r28	; 61
    1144:	cf 91       	pop	r28
    1146:	df 91       	pop	r29
    1148:	1f 91       	pop	r17
    114a:	0f 91       	pop	r16
    114c:	ff 90       	pop	r15
    114e:	ef 90       	pop	r14
    1150:	df 90       	pop	r13
    1152:	cf 90       	pop	r12
    1154:	bf 90       	pop	r11
    1156:	af 90       	pop	r10
    1158:	9f 90       	pop	r9
    115a:	8f 90       	pop	r8
    115c:	7f 90       	pop	r7
    115e:	6f 90       	pop	r6
    1160:	08 95       	ret

00001162 <bmp_rcv_uart>:
////////////////////////////////////////////////////////////////////
////////////////////////////////////////////////////////////////////
//////////////////  ПРИНЯТЬ по UART - BMP //////////////////////////
////////////////////////////////////////////////////////////////////

void bmp_rcv_uart(void){
    1162:	df 92       	push	r13
    1164:	ef 92       	push	r14
    1166:	ff 92       	push	r15
    1168:	0f 93       	push	r16
    116a:	1f 93       	push	r17
    116c:	cf 93       	push	r28
    116e:	df 93       	push	r29
    1170:	10 e0       	ldi	r17, 0x00	; 0
    1172:	ff 24       	eor	r15, r15
    1174:	dd 24       	eor	r13, r13
    1176:	ee 24       	eor	r14, r14
    1178:	c0 e0       	ldi	r28, 0x00	; 0
    117a:	d0 e0       	ldi	r29, 0x00	; 0
	uint8_t x =0;
 	uint8_t y =0;


  for(int i = 0; i<23; i++){ // 1078 // 0x436
	uint8_t	t = receiveByte();//receiveByte//get_data
    117c:	0e 94 a0 09 	call	0x1340	; 0x1340 <receiveByte>

  switch (i){ // получить данные из заголовка BMP
    1180:	cb 30       	cpi	r28, 0x0B	; 11
    1182:	d1 05       	cpc	r29, r1
    1184:	71 f0       	breq	.+28     	; 0x11a2 <bmp_rcv_uart+0x40>
    1186:	cc 30       	cpi	r28, 0x0C	; 12
    1188:	d1 05       	cpc	r29, r1
    118a:	24 f4       	brge	.+8      	; 0x1194 <bmp_rcv_uart+0x32>
    118c:	ca 30       	cpi	r28, 0x0A	; 10
    118e:	d1 05       	cpc	r29, r1
    1190:	a9 f4       	brne	.+42     	; 0x11bc <bmp_rcv_uart+0x5a>
    1192:	10 c0       	rjmp	.+32     	; 0x11b4 <bmp_rcv_uart+0x52>
    1194:	c2 31       	cpi	r28, 0x12	; 18
    1196:	d1 05       	cpc	r29, r1
    1198:	41 f0       	breq	.+16     	; 0x11aa <bmp_rcv_uart+0x48>
    119a:	c6 31       	cpi	r28, 0x16	; 22
    119c:	d1 05       	cpc	r29, r1
    119e:	71 f4       	brne	.+28     	; 0x11bc <bmp_rcv_uart+0x5a>
    11a0:	07 c0       	rjmp	.+14     	; 0x11b0 <bmp_rcv_uart+0x4e>
    11a2:	f8 2e       	mov	r15, r24
    11a4:	d8 2e       	mov	r13, r24
    11a6:	e8 2e       	mov	r14, r24
    11a8:	09 c0       	rjmp	.+18     	; 0x11bc <bmp_rcv_uart+0x5a>
    11aa:	d8 2e       	mov	r13, r24
    11ac:	e8 2e       	mov	r14, r24
    11ae:	06 c0       	rjmp	.+12     	; 0x11bc <bmp_rcv_uart+0x5a>
    11b0:	e8 2e       	mov	r14, r24
    11b2:	04 c0       	rjmp	.+8      	; 0x11bc <bmp_rcv_uart+0x5a>
    11b4:	18 2f       	mov	r17, r24
    11b6:	f8 2e       	mov	r15, r24
    11b8:	d8 2e       	mov	r13, r24
    11ba:	e8 2e       	mov	r14, r24
	uint8_t h =0;
	uint8_t x =0;
 	uint8_t y =0;


  for(int i = 0; i<23; i++){ // 1078 // 0x436
    11bc:	21 96       	adiw	r28, 0x01	; 1
    11be:	c7 31       	cpi	r28, 0x17	; 23
    11c0:	d1 05       	cpc	r29, r1
    11c2:	e1 f6       	brne	.-72     	; 0x117c <bmp_rcv_uart+0x1a>
  case 22: { y = t; }
			}

	}

	uint16_t b = l + ((unsigned int)h << 8); //адрес  начала BMP
    11c4:	01 2f       	mov	r16, r17
    11c6:	10 e0       	ldi	r17, 0x00	; 0
    11c8:	07 51       	subi	r16, 0x17	; 23
    11ca:	10 40       	sbci	r17, 0x00	; 0
	b = b - 23; // начало BMP - данные которые уже получили 
    11cc:	9f 2d       	mov	r25, r15
    11ce:	80 e0       	ldi	r24, 0x00	; 0
    11d0:	08 0f       	add	r16, r24
    11d2:	19 1f       	adc	r17, r25
    11d4:	c0 e0       	ldi	r28, 0x00	; 0
    11d6:	d0 e0       	ldi	r29, 0x00	; 0
    11d8:	03 c0       	rjmp	.+6      	; 0x11e0 <bmp_rcv_uart+0x7e>
//	printDecimal(40,60,y, 0, 255);




	for(uint16_t i = 0; i<b; i++){receiveByte();}
    11da:	0e 94 a0 09 	call	0x1340	; 0x1340 <receiveByte>
    11de:	21 96       	adiw	r28, 0x01	; 1
    11e0:	c0 17       	cp	r28, r16
    11e2:	d1 07       	cpc	r29, r17
    11e4:	d0 f3       	brcs	.-12     	; 0x11da <bmp_rcv_uart+0x78>



	send_cmd (0x36);//  0x36  //;Memory data acces control
    11e6:	86 e3       	ldi	r24, 0x36	; 54
    11e8:	0e 94 9c 05 	call	0xb38	; 0xb38 <send_cmd>
	send_data(0x08);// 0x20-MADCTL_VERT
    11ec:	88 e0       	ldi	r24, 0x08	; 8
    11ee:	0e 94 95 05 	call	0xb2a	; 0xb2a <send_data>
	send_cmd (0x2c);
    11f2:	8c e2       	ldi	r24, 0x2C	; 44
    11f4:	0e 94 9c 05 	call	0xb38	; 0xb38 <send_cmd>


	 window(2,2,x+1,y+1);
    11f8:	4d 2d       	mov	r20, r13
    11fa:	4f 5f       	subi	r20, 0xFF	; 255
    11fc:	2e 2d       	mov	r18, r14
    11fe:	2f 5f       	subi	r18, 0xFF	; 255
    1200:	82 e0       	ldi	r24, 0x02	; 2
    1202:	62 e0       	ldi	r22, 0x02	; 2
    1204:	0e 94 a3 05 	call	0xb46	; 0xb46 <window>
    1208:	00 e0       	ldi	r16, 0x00	; 0
    120a:	0e c0       	rjmp	.+28     	; 0x1228 <bmp_rcv_uart+0xc6>

//	uint8_t dy = 1;
	
	for(uint8_t i = 0; i<y; i++){
	for(uint8_t h = 0; h<x; h++){
	uint8_t k=receiveByte();
    120c:	0e 94 a0 09 	call	0x1340	; 0x1340 <receiveByte>
	unsigned char *p = s_palitra8bit+k;
	int a = pgm_read_byte(p);
    1210:	e8 2f       	mov	r30, r24
    1212:	f0 e0       	ldi	r31, 0x00	; 0
    1214:	ee 53       	subi	r30, 0x3E	; 62
    1216:	ff 4f       	sbci	r31, 0xFF	; 255
    1218:	e4 91       	lpm	r30, Z+
	send_data(a);
    121a:	8e 2f       	mov	r24, r30
    121c:	0e 94 95 05 	call	0xb2a	; 0xb2a <send_data>
	 window(2,2,x+1,y+1);

//	uint8_t dy = 1;
	
	for(uint8_t i = 0; i<y; i++){
	for(uint8_t h = 0; h<x; h++){
    1220:	1f 5f       	subi	r17, 0xFF	; 255
    1222:	1d 15       	cp	r17, r13
    1224:	98 f3       	brcs	.-26     	; 0x120c <bmp_rcv_uart+0xaa>

	 window(2,2,x+1,y+1);

//	uint8_t dy = 1;
	
	for(uint8_t i = 0; i<y; i++){
    1226:	0f 5f       	subi	r16, 0xFF	; 255
    1228:	0e 15       	cp	r16, r14
    122a:	10 f4       	brcc	.+4      	; 0x1230 <bmp_rcv_uart+0xce>
    122c:	10 e0       	ldi	r17, 0x00	; 0
    122e:	f9 cf       	rjmp	.-14     	; 0x1222 <bmp_rcv_uart+0xc0>
	int a = pgm_read_byte(p);
	send_data(a);
	}
*/

}
    1230:	df 91       	pop	r29
    1232:	cf 91       	pop	r28
    1234:	1f 91       	pop	r17
    1236:	0f 91       	pop	r16
    1238:	ff 90       	pop	r15
    123a:	ef 90       	pop	r14
    123c:	df 90       	pop	r13
    123e:	08 95       	ret

00001240 <init_lcd>:
}
//////////////////////////////////////////////////////////
//////////////////////////////////////////////////////////

void init_lcd(void) {
	SPIDDR=(1<<SDA)|(1<<CLK)|(1<<CS)|(1<<RESET); //Port-Direction Setup
    1240:	8f e0       	ldi	r24, 0x0F	; 15
    1242:	8a bb       	out	0x1a, r24	; 26


  // reset the display
  DDRA |= (1 << RST_BIT);
    1244:	d0 9a       	sbi	0x1a, 0	; 26
  PORTA &= ~(1 << RST_BIT);
    1246:	d8 98       	cbi	0x1b, 0	; 27
 waitms(100);
    1248:	84 e6       	ldi	r24, 0x64	; 100
    124a:	90 e0       	ldi	r25, 0x00	; 0
    124c:	0e 94 17 04 	call	0x82e	; 0x82e <waitms>
  PORTA |= (1 << RST_BIT);
    1250:	d8 9a       	sbi	0x1b, 0	; 27
  waitms(100);
    1252:	84 e6       	ldi	r24, 0x64	; 100
    1254:	90 e0       	ldi	r25, 0x00	; 0
    1256:	0e 94 17 04 	call	0x82e	; 0x82e <waitms>


	send_cmd (0x01);  //Software Reset
    125a:	81 e0       	ldi	r24, 0x01	; 1
    125c:	0e 94 9c 05 	call	0xb38	; 0xb38 <send_cmd>
	send_cmd(0x11);  //Sleep Out
    1260:	81 e1       	ldi	r24, 0x11	; 17
    1262:	0e 94 9c 05 	call	0xb38	; 0xb38 <send_cmd>
 	send_cmd(0x03);  //Booster ON
    1266:	83 e0       	ldi	r24, 0x03	; 3
    1268:	0e 94 9c 05 	call	0xb38	; 0xb38 <send_cmd>
	waitms(10);
    126c:	8a e0       	ldi	r24, 0x0A	; 10
    126e:	90 e0       	ldi	r25, 0x00	; 0
    1270:	0e 94 17 04 	call	0x82e	; 0x82e <waitms>
  send_cmd(0x29);  //Display On
    1274:	89 e2       	ldi	r24, 0x29	; 41
    1276:	0e 94 9c 05 	call	0xb38	; 0xb38 <send_cmd>
  send_cmd(0x13);  //Normal display mode
    127a:	83 e1       	ldi	r24, 0x13	; 19
    127c:	0e 94 9c 05 	call	0xb38	; 0xb38 <send_cmd>
  send_cmd(0x21);  //Display inversion on
    1280:	81 e2       	ldi	r24, 0x21	; 33
    1282:	0e 94 9c 05 	call	0xb38	; 0xb38 <send_cmd>
  send_cmd(0xBA);  //Data order
    1286:	8a eb       	ldi	r24, 0xBA	; 186
    1288:	0e 94 9c 05 	call	0xb38	; 0xb38 <send_cmd>
  send_cmd(0x36); //Memory data access control
    128c:	86 e3       	ldi	r24, 0x36	; 54
    128e:	0e 94 9c 05 	call	0xb38	; 0xb38 <send_cmd>
 //send_data(8|64);   //rgb + MirrorX
 send_data(8|128);   //rgb + MirrorY
    1292:	88 e8       	ldi	r24, 0x88	; 136
    1294:	0e 94 95 05 	call	0xb2a	; 0xb2a <send_data>
//	send_data(0x08);   //rgb 

	send_cmd(0x3A); 
    1298:	8a e3       	ldi	r24, 0x3A	; 58
    129a:	0e 94 9c 05 	call	0xb38	; 0xb38 <send_cmd>
	send_data(2);   //8-Bit per Pixel (default)
    129e:	82 e0       	ldi	r24, 0x02	; 2
    12a0:	0e 94 95 05 	call	0xb2a	; 0xb2a <send_data>
  // 0x03   12-bit/pixel
  // 0x05   16-bit/pixel

 // if 256-color mode, bytes represent RRRGGGBB; the following
 //    maps to 4-bit color for each value in range (0-7 R/G, 0-3 B) 
	send_cmd(RGBSET8);	// 256-color position set
    12a4:	8d e2       	ldi	r24, 0x2D	; 45
    12a6:	0e 94 9c 05 	call	0xb38	; 0xb38 <send_cmd>
  send_data(0x00);	// 000 RED
    12aa:	80 e0       	ldi	r24, 0x00	; 0
    12ac:	0e 94 95 05 	call	0xb2a	; 0xb2a <send_data>
  send_data(  0x02);	// 001  
    12b0:	82 e0       	ldi	r24, 0x02	; 2
    12b2:	0e 94 95 05 	call	0xb2a	; 0xb2a <send_data>
  send_data(  0x04);	// 010
    12b6:	84 e0       	ldi	r24, 0x04	; 4
    12b8:	0e 94 95 05 	call	0xb2a	; 0xb2a <send_data>
  send_data(  0x06);	// 011
    12bc:	86 e0       	ldi	r24, 0x06	; 6
    12be:	0e 94 95 05 	call	0xb2a	; 0xb2a <send_data>
  send_data(  0x08);	// 100
    12c2:	88 e0       	ldi	r24, 0x08	; 8
    12c4:	0e 94 95 05 	call	0xb2a	; 0xb2a <send_data>
  send_data(  0x0a);	// 101
    12c8:	8a e0       	ldi	r24, 0x0A	; 10
    12ca:	0e 94 95 05 	call	0xb2a	; 0xb2a <send_data>
  send_data(  0x0c);	// 110
    12ce:	8c e0       	ldi	r24, 0x0C	; 12
    12d0:	0e 94 95 05 	call	0xb2a	; 0xb2a <send_data>
  send_data(  0x0f);	// 111
    12d4:	8f e0       	ldi	r24, 0x0F	; 15
    12d6:	0e 94 95 05 	call	0xb2a	; 0xb2a <send_data>
  send_data(  0x00);	// 000 GREEN
    12da:	80 e0       	ldi	r24, 0x00	; 0
    12dc:	0e 94 95 05 	call	0xb2a	; 0xb2a <send_data>
  send_data(  0x02);	// 001  
    12e0:	82 e0       	ldi	r24, 0x02	; 2
    12e2:	0e 94 95 05 	call	0xb2a	; 0xb2a <send_data>
  send_data(  0x04);	// 010
    12e6:	84 e0       	ldi	r24, 0x04	; 4
    12e8:	0e 94 95 05 	call	0xb2a	; 0xb2a <send_data>
  send_data(  0x06);	// 011
    12ec:	86 e0       	ldi	r24, 0x06	; 6
    12ee:	0e 94 95 05 	call	0xb2a	; 0xb2a <send_data>
  send_data(  0x08);	// 100
    12f2:	88 e0       	ldi	r24, 0x08	; 8
    12f4:	0e 94 95 05 	call	0xb2a	; 0xb2a <send_data>
  send_data(  0x0a);	// 101
    12f8:	8a e0       	ldi	r24, 0x0A	; 10
    12fa:	0e 94 95 05 	call	0xb2a	; 0xb2a <send_data>
  send_data(  0x0c);	// 110
    12fe:	8c e0       	ldi	r24, 0x0C	; 12
    1300:	0e 94 95 05 	call	0xb2a	; 0xb2a <send_data>
  send_data(  0x0f);	// 111
    1304:	8f e0       	ldi	r24, 0x0F	; 15
    1306:	0e 94 95 05 	call	0xb2a	; 0xb2a <send_data>
  send_data(  0x00);	//  00 BLUE
    130a:	80 e0       	ldi	r24, 0x00	; 0
    130c:	0e 94 95 05 	call	0xb2a	; 0xb2a <send_data>
  send_data(  0x06);	//  01
    1310:	86 e0       	ldi	r24, 0x06	; 6
    1312:	0e 94 95 05 	call	0xb2a	; 0xb2a <send_data>
  send_data(  0x09);	//  10
    1316:	89 e0       	ldi	r24, 0x09	; 9
    1318:	0e 94 95 05 	call	0xb2a	; 0xb2a <send_data>
  send_data(  0x0f);	//  11
    131c:	8f e0       	ldi	r24, 0x0F	; 15
    131e:	0e 94 95 05 	call	0xb2a	; 0xb2a <send_data>

  //Set Constrast
  //send_cmd(0x25);
  //send_data(63);

  send_cmd(0x2C);  //Memory Write
    1322:	8c e2       	ldi	r24, 0x2C	; 44
    1324:	0e 94 9c 05 	call	0xb38	; 0xb38 <send_cmd>
//	send_cmd (0x36);//  0x36  //;Memory data acces control
//	send_data(0x28);// 0x20-MADCTL_VERT

//	clrscr(0,0,132,132,31);

}
    1328:	08 95       	ret

0000132a <uart1_init>:
#include <avr/pgmspace.h>
#include "UART_routines.h"

void uart1_init(void)
{
	UCSR1A=0x00;
    132a:	10 92 9b 00 	sts	0x009B, r1
	UCSR1B = (1<<RXEN)|(1<<TXEN);
    132e:	88 e1       	ldi	r24, 0x18	; 24
    1330:	80 93 9a 00 	sts	0x009A, r24
//	UCSR1C = (1<<URSEL1)|(1<<UCSZ0)|(1<<UCSZ1);
	UBRR1H = HI(baud);
    1334:	10 92 98 00 	sts	0x0098, r1
	UBRR1L = LO(baud);
    1338:	87 e0       	ldi	r24, 0x07	; 7
    133a:	80 93 99 00 	sts	0x0099, r24
}
    133e:	08 95       	ret

00001340 <receiveByte>:
//*************************************************
unsigned char receiveByte( void )
{
	unsigned char data, status;
	
	while(!(UCSR1A & (1<<RXC1))); 	// Wait for incomming data
    1340:	80 91 9b 00 	lds	r24, 0x009B
    1344:	87 ff       	sbrs	r24, 7
    1346:	fc cf       	rjmp	.-8      	; 0x1340 <receiveByte>
	
	status = UCSR1A;
    1348:	80 91 9b 00 	lds	r24, 0x009B
	data = UDR1;
    134c:	80 91 9c 00 	lds	r24, 0x009C
	
	return(data);
}
    1350:	08 95       	ret

00001352 <transmitByte>:

//***************************************************
//Function to transmit a single byte
//***************************************************
void transmitByte( unsigned char data )
{
    1352:	98 2f       	mov	r25, r24
	while ( !(UCSR1A & (1<<UDRE1)) )
    1354:	80 91 9b 00 	lds	r24, 0x009B
    1358:	85 ff       	sbrs	r24, 5
    135a:	fc cf       	rjmp	.-8      	; 0x1354 <transmitByte+0x2>
		; 			                /* Wait for empty transmit buffer */
	UDR1 = data; 			        /* Start transmition */
    135c:	90 93 9c 00 	sts	0x009C, r25
}
    1360:	08 95       	ret

00001362 <transmitHex>:

  data = data/16;
}

//transmitString (dataString);  // ??????????????????????????????????
}
    1362:	08 95       	ret

00001364 <transmitString_F>:

//***************************************************
//Function to transmit a string in Flash
//***************************************************
void transmitString_F(char* string)
{
    1364:	fc 01       	movw	r30, r24
    1366:	07 c0       	rjmp	.+14     	; 0x1376 <transmitString_F+0x12>
//***************************************************
//Function to transmit a single byte
//***************************************************
void transmitByte( unsigned char data )
{
	while ( !(UCSR1A & (1<<UDRE1)) )
    1368:	80 91 9b 00 	lds	r24, 0x009B
    136c:	85 ff       	sbrs	r24, 5
    136e:	fc cf       	rjmp	.-8      	; 0x1368 <transmitString_F+0x4>
//Function to transmit a string in Flash
//***************************************************
void transmitString_F(char* string)
{
  while (pgm_read_byte(&(*string)))
   transmitByte(pgm_read_byte(&(*string++)));
    1370:	31 96       	adiw	r30, 0x01	; 1
//***************************************************
void transmitByte( unsigned char data )
{
	while ( !(UCSR1A & (1<<UDRE1)) )
		; 			                /* Wait for empty transmit buffer */
	UDR1 = data; 			        /* Start transmition */
    1372:	90 93 9c 00 	sts	0x009C, r25
//***************************************************
//Function to transmit a string in Flash
//***************************************************
void transmitString_F(char* string)
{
  while (pgm_read_byte(&(*string)))
    1376:	94 91       	lpm	r25, Z+
    1378:	99 23       	and	r25, r25
    137a:	b1 f7       	brne	.-20     	; 0x1368 <transmitString_F+0x4>
   transmitByte(pgm_read_byte(&(*string++)));
}
    137c:	08 95       	ret

0000137e <transmitString>:

//***************************************************
//Function to transmit a string in RAM
//***************************************************
void transmitString(char* string)
{
    137e:	fc 01       	movw	r30, r24
    1380:	07 c0       	rjmp	.+14     	; 0x1390 <transmitString+0x12>
//***************************************************
//Function to transmit a single byte
//***************************************************
void transmitByte( unsigned char data )
{
	while ( !(UCSR1A & (1<<UDRE1)) )
    1382:	80 91 9b 00 	lds	r24, 0x009B
    1386:	85 ff       	sbrs	r24, 5
    1388:	fc cf       	rjmp	.-8      	; 0x1382 <transmitString+0x4>
//Function to transmit a string in RAM
//***************************************************
void transmitString(char* string)
{
  while (*string)
   transmitByte(*string++);
    138a:	31 96       	adiw	r30, 0x01	; 1
//***************************************************
void transmitByte( unsigned char data )
{
	while ( !(UCSR1A & (1<<UDRE1)) )
		; 			                /* Wait for empty transmit buffer */
	UDR1 = data; 			        /* Start transmition */
    138c:	90 93 9c 00 	sts	0x009C, r25
//***************************************************
//Function to transmit a string in RAM
//***************************************************
void transmitString(char* string)
{
  while (*string)
    1390:	90 81       	ld	r25, Z
    1392:	99 23       	and	r25, r25
    1394:	b1 f7       	brne	.-20     	; 0x1382 <transmitString+0x4>
   transmitByte(*string++);
}
    1396:	08 95       	ret

00001398 <clust2sect>:

DWORD clust2sect (	/* !=0: Sector number, 0: Failed - invalid cluster# */
	FATFS *fs,		/* File system object */
	DWORD clst		/* Cluster# to be converted */
)
{
    1398:	ef 92       	push	r14
    139a:	ff 92       	push	r15
    139c:	0f 93       	push	r16
    139e:	1f 93       	push	r17
    13a0:	cf 93       	push	r28
    13a2:	df 93       	push	r29
    13a4:	ec 01       	movw	r28, r24
    13a6:	7a 01       	movw	r14, r20
    13a8:	8b 01       	movw	r16, r22
	clst -= 2;
    13aa:	8e ef       	ldi	r24, 0xFE	; 254
    13ac:	9f ef       	ldi	r25, 0xFF	; 255
    13ae:	af ef       	ldi	r26, 0xFF	; 255
    13b0:	bf ef       	ldi	r27, 0xFF	; 255
    13b2:	e8 0e       	add	r14, r24
    13b4:	f9 1e       	adc	r15, r25
    13b6:	0a 1f       	adc	r16, r26
    13b8:	1b 1f       	adc	r17, r27
	if (clst >= (fs->n_fatent - 2)) return 0;		/* Invalid cluster# */
    13ba:	8a 8d       	ldd	r24, Y+26	; 0x1a
    13bc:	9b 8d       	ldd	r25, Y+27	; 0x1b
    13be:	ac 8d       	ldd	r26, Y+28	; 0x1c
    13c0:	bd 8d       	ldd	r27, Y+29	; 0x1d
    13c2:	02 97       	sbiw	r24, 0x02	; 2
    13c4:	a1 09       	sbc	r26, r1
    13c6:	b1 09       	sbc	r27, r1
    13c8:	e8 16       	cp	r14, r24
    13ca:	f9 06       	cpc	r15, r25
    13cc:	0a 07       	cpc	r16, r26
    13ce:	1b 07       	cpc	r17, r27
    13d0:	28 f0       	brcs	.+10     	; 0x13dc <clust2sect+0x44>
    13d2:	20 e0       	ldi	r18, 0x00	; 0
    13d4:	30 e0       	ldi	r19, 0x00	; 0
    13d6:	40 e0       	ldi	r20, 0x00	; 0
    13d8:	50 e0       	ldi	r21, 0x00	; 0
    13da:	12 c0       	rjmp	.+36     	; 0x1400 <clust2sect+0x68>
	return clst * fs->csize + fs->database;
    13dc:	2a 81       	ldd	r18, Y+2	; 0x02
    13de:	30 e0       	ldi	r19, 0x00	; 0
    13e0:	40 e0       	ldi	r20, 0x00	; 0
    13e2:	50 e0       	ldi	r21, 0x00	; 0
    13e4:	c8 01       	movw	r24, r16
    13e6:	b7 01       	movw	r22, r14
    13e8:	0e 94 de 2d 	call	0x5bbc	; 0x5bbc <__mulsi3>
    13ec:	9b 01       	movw	r18, r22
    13ee:	ac 01       	movw	r20, r24
    13f0:	8a a5       	ldd	r24, Y+42	; 0x2a
    13f2:	9b a5       	ldd	r25, Y+43	; 0x2b
    13f4:	ac a5       	ldd	r26, Y+44	; 0x2c
    13f6:	bd a5       	ldd	r27, Y+45	; 0x2d
    13f8:	28 0f       	add	r18, r24
    13fa:	39 1f       	adc	r19, r25
    13fc:	4a 1f       	adc	r20, r26
    13fe:	5b 1f       	adc	r21, r27
}
    1400:	b9 01       	movw	r22, r18
    1402:	ca 01       	movw	r24, r20
    1404:	df 91       	pop	r29
    1406:	cf 91       	pop	r28
    1408:	1f 91       	pop	r17
    140a:	0f 91       	pop	r16
    140c:	ff 90       	pop	r15
    140e:	ef 90       	pop	r14
    1410:	08 95       	ret

00001412 <get_fileinfo>:
static
void get_fileinfo (		/* No return code */
	DIR *dj,			/* Pointer to the directory object */
	FILINFO *fno	 	/* Pointer to the file information to be filled */
)
{
    1412:	cf 93       	push	r28
    1414:	df 93       	push	r29
    1416:	fc 01       	movw	r30, r24
    1418:	ab 01       	movw	r20, r22
	UINT i;
	BYTE nt, *dir;
	TCHAR *p, c;


	p = fno->fname;
    141a:	eb 01       	movw	r28, r22
    141c:	29 96       	adiw	r28, 0x09	; 9
	if (dj->sect) {
    141e:	86 85       	ldd	r24, Z+14	; 0x0e
    1420:	97 85       	ldd	r25, Z+15	; 0x0f
    1422:	a0 89       	ldd	r26, Z+16	; 0x10
    1424:	b1 89       	ldd	r27, Z+17	; 0x11
    1426:	00 97       	sbiw	r24, 0x00	; 0
    1428:	a1 05       	cpc	r26, r1
    142a:	b1 05       	cpc	r27, r1
    142c:	09 f4       	brne	.+2      	; 0x1430 <get_fileinfo+0x1e>
    142e:	46 c0       	rjmp	.+140    	; 0x14bc <get_fileinfo+0xaa>
		dir = dj->dir;
    1430:	22 89       	ldd	r18, Z+18	; 0x12
    1432:	33 89       	ldd	r19, Z+19	; 0x13
    1434:	80 e0       	ldi	r24, 0x00	; 0
    1436:	90 e0       	ldi	r25, 0x00	; 0
		nt = dir[DIR_NTres];		/* NT flag */
		for (i = 0; i < 8; i++) {	/* Copy name body */
			c = dir[i];
    1438:	f9 01       	movw	r30, r18
    143a:	e8 0f       	add	r30, r24
    143c:	f9 1f       	adc	r31, r25
    143e:	e0 81       	ld	r30, Z
			if (c == ' ') break;
    1440:	e0 32       	cpi	r30, 0x20	; 32
    1442:	41 f0       	breq	.+16     	; 0x1454 <get_fileinfo+0x42>
			if (c == 0x05) c = (TCHAR)0xE5;
    1444:	e5 30       	cpi	r30, 0x05	; 5
    1446:	09 f4       	brne	.+2      	; 0x144a <get_fileinfo+0x38>
    1448:	e5 ee       	ldi	r30, 0xE5	; 229
			if (IsDBCS1(c) && i < 7 && IsDBCS2(dir[i+1]))
				c = (c << 8) | dir[++i];
			c = ff_convert(c, 1);
			if (!c) c = '?';
#endif
			*p++ = c;
    144a:	e9 93       	st	Y+, r30

	p = fno->fname;
	if (dj->sect) {
		dir = dj->dir;
		nt = dir[DIR_NTres];		/* NT flag */
		for (i = 0; i < 8; i++) {	/* Copy name body */
    144c:	01 96       	adiw	r24, 0x01	; 1
    144e:	88 30       	cpi	r24, 0x08	; 8
    1450:	91 05       	cpc	r25, r1
    1452:	91 f7       	brne	.-28     	; 0x1438 <get_fileinfo+0x26>
			c = ff_convert(c, 1);
			if (!c) c = '?';
#endif
			*p++ = c;
		}
		if (dir[8] != ' ') {		/* Copy name extension */
    1454:	d9 01       	movw	r26, r18
    1456:	18 96       	adiw	r26, 0x08	; 8
    1458:	8c 91       	ld	r24, X
    145a:	80 32       	cpi	r24, 0x20	; 32
    145c:	11 f4       	brne	.+4      	; 0x1462 <get_fileinfo+0x50>
    145e:	fe 01       	movw	r30, r28
    1460:	11 c0       	rjmp	.+34     	; 0x1484 <get_fileinfo+0x72>
			*p++ = '.';
    1462:	fe 01       	movw	r30, r28
    1464:	8e e2       	ldi	r24, 0x2E	; 46
    1466:	81 93       	st	Z+, r24
    1468:	d9 01       	movw	r26, r18
			for (i = 8; i < 11; i++) {
    146a:	be 01       	movw	r22, r28
    146c:	6c 5f       	subi	r22, 0xFC	; 252
    146e:	7f 4f       	sbci	r23, 0xFF	; 255
				c = dir[i];
    1470:	18 96       	adiw	r26, 0x08	; 8
    1472:	8c 91       	ld	r24, X
    1474:	18 97       	sbiw	r26, 0x08	; 8
				if (c == ' ') break;
    1476:	80 32       	cpi	r24, 0x20	; 32
    1478:	29 f0       	breq	.+10     	; 0x1484 <get_fileinfo+0x72>
				if (IsDBCS1(c) && i < 10 && IsDBCS2(dir[i+1]))
					c = (c << 8) | dir[++i];
				c = ff_convert(c, 1);
				if (!c) c = '?';
#endif
				*p++ = c;
    147a:	81 93       	st	Z+, r24
    147c:	11 96       	adiw	r26, 0x01	; 1
#endif
			*p++ = c;
		}
		if (dir[8] != ' ') {		/* Copy name extension */
			*p++ = '.';
			for (i = 8; i < 11; i++) {
    147e:	e6 17       	cp	r30, r22
    1480:	f7 07       	cpc	r31, r23
    1482:	b1 f7       	brne	.-20     	; 0x1470 <get_fileinfo+0x5e>
				if (!c) c = '?';
#endif
				*p++ = c;
			}
		}
		fno->fattrib = dir[DIR_Attr];				/* Attribute */
    1484:	e9 01       	movw	r28, r18
    1486:	8b 85       	ldd	r24, Y+11	; 0x0b
    1488:	da 01       	movw	r26, r20
    148a:	18 96       	adiw	r26, 0x08	; 8
    148c:	8c 93       	st	X, r24
		fno->fsize = LD_DWORD(dir+DIR_FileSize);	/* Size */
    148e:	8c 8d       	ldd	r24, Y+28	; 0x1c
    1490:	9d 8d       	ldd	r25, Y+29	; 0x1d
    1492:	ae 8d       	ldd	r26, Y+30	; 0x1e
    1494:	bf 8d       	ldd	r27, Y+31	; 0x1f
    1496:	ea 01       	movw	r28, r20
    1498:	88 83       	st	Y, r24
    149a:	99 83       	std	Y+1, r25	; 0x01
    149c:	aa 83       	std	Y+2, r26	; 0x02
    149e:	bb 83       	std	Y+3, r27	; 0x03
		fno->fdate = LD_WORD(dir+DIR_WrtDate);		/* Date */
    14a0:	d9 01       	movw	r26, r18
    14a2:	58 96       	adiw	r26, 0x18	; 24
    14a4:	8d 91       	ld	r24, X+
    14a6:	9c 91       	ld	r25, X
    14a8:	59 97       	sbiw	r26, 0x19	; 25
    14aa:	9d 83       	std	Y+5, r25	; 0x05
    14ac:	8c 83       	std	Y+4, r24	; 0x04
		fno->ftime = LD_WORD(dir+DIR_WrtTime);		/* Time */
    14ae:	56 96       	adiw	r26, 0x16	; 22
    14b0:	8d 91       	ld	r24, X+
    14b2:	9c 91       	ld	r25, X
    14b4:	57 97       	sbiw	r26, 0x17	; 23
    14b6:	9f 83       	std	Y+7, r25	; 0x07
    14b8:	8e 83       	std	Y+6, r24	; 0x06
    14ba:	ef 01       	movw	r28, r30
	}
	*p = 0;		/* Terminate SFN str by a \0 */
    14bc:	18 82       	st	Y, r1
			}
		}
		tp[i] = 0;	/* Terminate the LFN str by a \0 */
	}
#endif
}
    14be:	df 91       	pop	r29
    14c0:	cf 91       	pop	r28
    14c2:	08 95       	ret

000014c4 <f_mount>:

FRESULT f_mount (
	BYTE vol,		/* Logical drive number to be mounted/unmounted */
	FATFS *fs		/* Pointer to new file system object (NULL for unmount)*/
)
{
    14c4:	db 01       	movw	r26, r22
	FATFS *rfs;


	if (vol >= _VOLUMES)			/* Check if the drive number is valid */
    14c6:	88 23       	and	r24, r24
    14c8:	11 f0       	breq	.+4      	; 0x14ce <f_mount+0xa>
    14ca:	8b e0       	ldi	r24, 0x0B	; 11
    14cc:	08 95       	ret
		return FR_INVALID_DRIVE;
	rfs = FatFs[vol];				/* Get current fs object */
    14ce:	e0 91 05 05 	lds	r30, 0x0505
    14d2:	f0 91 06 05 	lds	r31, 0x0506

	if (rfs) {
    14d6:	30 97       	sbiw	r30, 0x00	; 0
    14d8:	09 f0       	breq	.+2      	; 0x14dc <f_mount+0x18>
		clear_lock(rfs);
#endif
#if _FS_REENTRANT					/* Discard sync object of the current volume */
		if (!ff_del_syncobj(rfs->sobj)) return FR_INT_ERR;
#endif
		rfs->fs_type = 0;			/* Clear old fs object */
    14da:	10 82       	st	Z, r1
	}

	if (fs) {
    14dc:	10 97       	sbiw	r26, 0x00	; 0
    14de:	09 f0       	breq	.+2      	; 0x14e2 <f_mount+0x1e>
		fs->fs_type = 0;			/* Clear new fs object */
    14e0:	1c 92       	st	X, r1
#if _FS_REENTRANT					/* Create sync object for the new volume */
		if (!ff_cre_syncobj(vol, &fs->sobj)) return FR_INT_ERR;
#endif
	}
	FatFs[vol] = fs;				/* Register new fs object */
    14e2:	b0 93 06 05 	sts	0x0506, r27
    14e6:	a0 93 05 05 	sts	0x0505, r26
    14ea:	80 e0       	ldi	r24, 0x00	; 0

	return FR_OK;
}
    14ec:	08 95       	ret

000014ee <f_chdrive>:

FRESULT f_chdrive (
	BYTE drv		/* Drive number */
)
{
	if (drv >= _VOLUMES) return FR_INVALID_DRIVE;
    14ee:	88 23       	and	r24, r24
    14f0:	11 f0       	breq	.+4      	; 0x14f6 <f_chdrive+0x8>
    14f2:	8b e0       	ldi	r24, 0x0B	; 11
    14f4:	08 95       	ret

	CurrVol = drv;
    14f6:	10 92 09 05 	sts	0x0509, r1
    14fa:	80 e0       	ldi	r24, 0x00	; 0

	return FR_OK;
}
    14fc:	08 95       	ret

000014fe <get_fattime>:
			| ((DWORD)/*rtc.month*/10 << 21)
			| ((DWORD)/*rtc.mday*/7 << 16)
			| ((DWORD)/*rtc.hour*/1 << 11)
			| ((DWORD)/*rtc.min*/26 << 5)
			| ((DWORD)/*rtc.sec*/6 >> 1);
}
    14fe:	63 e4       	ldi	r22, 0x43	; 67
    1500:	7b e0       	ldi	r23, 0x0B	; 11
    1502:	87 e4       	ldi	r24, 0x47	; 71
    1504:	9d e3       	ldi	r25, 0x3D	; 61
    1506:	08 95       	ret

00001508 <validate>:
static
FRESULT validate (	/* FR_OK(0): The object is valid, !=0: Invalid */
	FATFS *fs,		/* Pointer to the file system object */
	WORD id			/* Member id of the target object to be checked */
)
{
    1508:	fc 01       	movw	r30, r24
	if (!fs || !fs->fs_type || fs->id != id)
    150a:	00 97       	sbiw	r24, 0x00	; 0
    150c:	89 f0       	breq	.+34     	; 0x1530 <validate+0x28>
    150e:	80 81       	ld	r24, Z
    1510:	88 23       	and	r24, r24
    1512:	71 f0       	breq	.+28     	; 0x1530 <validate+0x28>
    1514:	86 81       	ldd	r24, Z+6	; 0x06
    1516:	97 81       	ldd	r25, Z+7	; 0x07
    1518:	86 17       	cp	r24, r22
    151a:	97 07       	cpc	r25, r23
    151c:	49 f4       	brne	.+18     	; 0x1530 <validate+0x28>
		return FR_INVALID_OBJECT;

	ENTER_FF(fs);		/* Lock file system */

	if (disk_status(fs->drv) & STA_NOINIT)
    151e:	81 81       	ldd	r24, Z+1	; 0x01
    1520:	0e 94 d7 29 	call	0x53ae	; 0x53ae <disk_status>
    1524:	80 fd       	sbrc	r24, 0
    1526:	02 c0       	rjmp	.+4      	; 0x152c <validate+0x24>
    1528:	80 e0       	ldi	r24, 0x00	; 0
    152a:	08 95       	ret
    152c:	83 e0       	ldi	r24, 0x03	; 3
    152e:	08 95       	ret
    1530:	89 e0       	ldi	r24, 0x09	; 9
		return FR_NOT_READY;

	return FR_OK;
}
    1532:	08 95       	ret

00001534 <chk_mounted>:
FRESULT chk_mounted (	/* FR_OK(0): successful, !=0: any error occurred */
	const TCHAR **path,	/* Pointer to pointer to the path name (drive number) */
	FATFS **rfs,		/* Pointer to pointer to the found file system object */
	BYTE chk_wp			/* !=0: Check media write protection for write access */
)
{
    1534:	2f 92       	push	r2
    1536:	3f 92       	push	r3
    1538:	4f 92       	push	r4
    153a:	5f 92       	push	r5
    153c:	6f 92       	push	r6
    153e:	7f 92       	push	r7
    1540:	8f 92       	push	r8
    1542:	9f 92       	push	r9
    1544:	af 92       	push	r10
    1546:	bf 92       	push	r11
    1548:	cf 92       	push	r12
    154a:	df 92       	push	r13
    154c:	ef 92       	push	r14
    154e:	ff 92       	push	r15
    1550:	0f 93       	push	r16
    1552:	1f 93       	push	r17
    1554:	df 93       	push	r29
    1556:	cf 93       	push	r28
    1558:	cd b7       	in	r28, 0x3d	; 61
    155a:	de b7       	in	r29, 0x3e	; 62
    155c:	2c 97       	sbiw	r28, 0x0c	; 12
    155e:	0f b6       	in	r0, 0x3f	; 63
    1560:	f8 94       	cli
    1562:	de bf       	out	0x3e, r29	; 62
    1564:	0f be       	out	0x3f, r0	; 63
    1566:	cd bf       	out	0x3d, r28	; 61
    1568:	dc 01       	movw	r26, r24
    156a:	14 2f       	mov	r17, r20
	BYTE fmt, b, *tbl;
	UINT vol;
	DSTATUS stat;
	DWORD bsect, fasize, tsect, sysect, nclst, szbfat;
	WORD nrsv;
	const TCHAR *p = *path;
    156c:	ed 91       	ld	r30, X+
    156e:	fc 91       	ld	r31, X
    1570:	11 97       	sbiw	r26, 0x01	; 1
	FATFS *fs;

	/* Get logical drive number from the path name */
	vol = p[0] - '0';					/* Is there a drive number? */
    1572:	80 81       	ld	r24, Z
    1574:	28 2f       	mov	r18, r24
    1576:	30 e0       	ldi	r19, 0x00	; 0
    1578:	20 53       	subi	r18, 0x30	; 48
    157a:	30 40       	sbci	r19, 0x00	; 0
	if (vol <= 9 && p[1] == ':') {		/* Found a drive number, get and strip it */
    157c:	2a 30       	cpi	r18, 0x0A	; 10
    157e:	31 05       	cpc	r19, r1
    1580:	38 f4       	brcc	.+14     	; 0x1590 <chk_mounted+0x5c>
    1582:	81 81       	ldd	r24, Z+1	; 0x01
    1584:	8a 33       	cpi	r24, 0x3A	; 58
    1586:	21 f4       	brne	.+8      	; 0x1590 <chk_mounted+0x5c>
		p += 2; *path = p;				/* Return pointer to the path name */
    1588:	32 96       	adiw	r30, 0x02	; 2
    158a:	ed 93       	st	X+, r30
    158c:	fc 93       	st	X, r31
    158e:	04 c0       	rjmp	.+8      	; 0x1598 <chk_mounted+0x64>
	} else {							/* No drive number is given */
#if _FS_RPATH
		vol = CurrVol;					/* Use current drive */
    1590:	80 91 09 05 	lds	r24, 0x0509
    1594:	28 2f       	mov	r18, r24
    1596:	30 e0       	ldi	r19, 0x00	; 0
		vol = 0;						/* Use drive 0 */
#endif
	}

	/* Check if the logical drive is valid or not */
	if (vol >= _VOLUMES) 				/* Is the drive number valid? */
    1598:	23 2b       	or	r18, r19
    159a:	11 f0       	breq	.+4      	; 0x15a0 <chk_mounted+0x6c>
    159c:	8b e0       	ldi	r24, 0x0B	; 11
    159e:	be c2       	rjmp	.+1404   	; 0x1b1c <chk_mounted+0x5e8>
		return FR_INVALID_DRIVE;
	*rfs = fs = FatFs[vol];				/* Return pointer to the corresponding file system object */
    15a0:	20 91 05 05 	lds	r18, 0x0505
    15a4:	30 91 06 05 	lds	r19, 0x0506
    15a8:	3c 87       	std	Y+12, r19	; 0x0c
    15aa:	2b 87       	std	Y+11, r18	; 0x0b
    15ac:	db 01       	movw	r26, r22
    15ae:	2d 93       	st	X+, r18
    15b0:	3c 93       	st	X, r19
	if (!fs) return FR_NOT_ENABLED;		/* Is the file system object available? */
    15b2:	23 2b       	or	r18, r19
    15b4:	11 f4       	brne	.+4      	; 0x15ba <chk_mounted+0x86>
    15b6:	8c e0       	ldi	r24, 0x0C	; 12
    15b8:	b1 c2       	rjmp	.+1378   	; 0x1b1c <chk_mounted+0x5e8>

	ENTER_FF(fs);						/* Lock file system */

	if (fs->fs_type) {					/* If the logical drive has been mounted */
    15ba:	eb 85       	ldd	r30, Y+11	; 0x0b
    15bc:	fc 85       	ldd	r31, Y+12	; 0x0c
    15be:	80 81       	ld	r24, Z
    15c0:	88 23       	and	r24, r24
    15c2:	59 f0       	breq	.+22     	; 0x15da <chk_mounted+0xa6>
		stat = disk_status(fs->drv);
    15c4:	81 81       	ldd	r24, Z+1	; 0x01
    15c6:	0e 94 d7 29 	call	0x53ae	; 0x53ae <disk_status>
		if (!(stat & STA_NOINIT)) {		/* and the physical drive is kept initialized (has not been changed), */
    15ca:	80 fd       	sbrc	r24, 0
    15cc:	06 c0       	rjmp	.+12     	; 0x15da <chk_mounted+0xa6>
#if !_FS_READONLY
			if (chk_wp && (stat & STA_PROTECT))	/* Check write protection if needed */
    15ce:	11 23       	and	r17, r17
    15d0:	09 f4       	brne	.+2      	; 0x15d4 <chk_mounted+0xa0>
    15d2:	9f c2       	rjmp	.+1342   	; 0x1b12 <chk_mounted+0x5de>
    15d4:	82 fd       	sbrc	r24, 2
    15d6:	9b c2       	rjmp	.+1334   	; 0x1b0e <chk_mounted+0x5da>
    15d8:	9c c2       	rjmp	.+1336   	; 0x1b12 <chk_mounted+0x5de>
	}

	/* The logical drive must be mounted. */
	/* Following code attempts to mount a volume. (analyze BPB and initialize the fs object) */

	fs->fs_type = 0;					/* Clear the file system object */
    15da:	ab 85       	ldd	r26, Y+11	; 0x0b
    15dc:	bc 85       	ldd	r27, Y+12	; 0x0c
    15de:	1c 92       	st	X, r1
	fs->drv = (BYTE)LD2PD(vol);			/* Bind the logical drive and a physical drive */
    15e0:	11 96       	adiw	r26, 0x01	; 1
    15e2:	1c 92       	st	X, r1
	stat = disk_initialize(fs->drv);	/* Initialize low level disk I/O layer */
    15e4:	80 e0       	ldi	r24, 0x00	; 0
    15e6:	0e 94 83 2c 	call	0x5906	; 0x5906 <disk_initialize>
	if (stat & STA_NOINIT)				/* Check if the initialization succeeded */
    15ea:	80 ff       	sbrs	r24, 0
    15ec:	02 c0       	rjmp	.+4      	; 0x15f2 <chk_mounted+0xbe>
    15ee:	83 e0       	ldi	r24, 0x03	; 3
    15f0:	95 c2       	rjmp	.+1322   	; 0x1b1c <chk_mounted+0x5e8>
#if _MAX_SS != 512						/* Get disk sector size (variable sector size cfg only) */
	if (disk_ioctl(fs->drv, GET_SECTOR_SIZE, &fs->ssize) != RES_OK)
		return FR_DISK_ERR;
#endif
#if !_FS_READONLY
	if (chk_wp && (stat & STA_PROTECT))	/* Check disk write protection if needed */
    15f2:	11 23       	and	r17, r17
    15f4:	11 f0       	breq	.+4      	; 0x15fa <chk_mounted+0xc6>
    15f6:	82 fd       	sbrc	r24, 2
    15f8:	8a c2       	rjmp	.+1300   	; 0x1b0e <chk_mounted+0x5da>
BYTE check_fs (	/* 0:The FAT BR, 1:Valid BR but not an FAT, 2:Not a BR, 3:Disk error */
	FATFS *fs,	/* File system object */
	DWORD sect	/* Sector# (lba) to check if it is an FAT boot record or not */
)
{
	if (disk_read(fs->drv, fs->win, sect, 1) != RES_OK)	/* Load boot record */
    15fa:	eb 85       	ldd	r30, Y+11	; 0x0b
    15fc:	fc 85       	ldd	r31, Y+12	; 0x0c
    15fe:	f2 96       	adiw	r30, 0x32	; 50
    1600:	fe 83       	std	Y+6, r31	; 0x06
    1602:	ed 83       	std	Y+5, r30	; 0x05
    1604:	ab 85       	ldd	r26, Y+11	; 0x0b
    1606:	bc 85       	ldd	r27, Y+12	; 0x0c
    1608:	11 96       	adiw	r26, 0x01	; 1
    160a:	8c 91       	ld	r24, X
    160c:	bf 01       	movw	r22, r30
    160e:	20 e0       	ldi	r18, 0x00	; 0
    1610:	30 e0       	ldi	r19, 0x00	; 0
    1612:	40 e0       	ldi	r20, 0x00	; 0
    1614:	50 e0       	ldi	r21, 0x00	; 0
    1616:	01 e0       	ldi	r16, 0x01	; 1
    1618:	0e 94 de 29 	call	0x53bc	; 0x53bc <disk_read>
    161c:	88 23       	and	r24, r24
    161e:	09 f0       	breq	.+2      	; 0x1622 <chk_mounted+0xee>
    1620:	7a c2       	rjmp	.+1268   	; 0x1b16 <chk_mounted+0x5e2>
		return 3;
	if (LD_WORD(&fs->win[BS_55AA]) != 0xAA55)		/* Check record signature (always placed at offset 510 even if the sector size is >512) */
    1622:	00 e3       	ldi	r16, 0x30	; 48
    1624:	20 2e       	mov	r2, r16
    1626:	02 e0       	ldi	r16, 0x02	; 2
    1628:	30 2e       	mov	r3, r16
    162a:	eb 85       	ldd	r30, Y+11	; 0x0b
    162c:	fc 85       	ldd	r31, Y+12	; 0x0c
    162e:	2e 0e       	add	r2, r30
    1630:	3f 1e       	adc	r3, r31
    1632:	d1 01       	movw	r26, r2
    1634:	8d 91       	ld	r24, X+
    1636:	9c 91       	ld	r25, X
    1638:	85 55       	subi	r24, 0x55	; 85
    163a:	9a 4a       	sbci	r25, 0xAA	; 170
    163c:	11 f0       	breq	.+4      	; 0x1642 <chk_mounted+0x10e>
    163e:	82 e0       	ldi	r24, 0x02	; 2
    1640:	90 c2       	rjmp	.+1312   	; 0x1b62 <chk_mounted+0x62e>
		return 2;

	if ((LD_DWORD(&fs->win[BS_FilSysType]) & 0xFFFFFF) == 0x544146)	/* Check "FAT" string */
    1642:	18 e6       	ldi	r17, 0x68	; 104
    1644:	c1 2e       	mov	r12, r17
    1646:	d1 2c       	mov	r13, r1
    1648:	eb 85       	ldd	r30, Y+11	; 0x0b
    164a:	fc 85       	ldd	r31, Y+12	; 0x0c
    164c:	ce 0e       	add	r12, r30
    164e:	df 1e       	adc	r13, r31
    1650:	f6 01       	movw	r30, r12
    1652:	80 81       	ld	r24, Z
    1654:	91 81       	ldd	r25, Z+1	; 0x01
    1656:	a2 81       	ldd	r26, Z+2	; 0x02
    1658:	b3 81       	ldd	r27, Z+3	; 0x03
    165a:	b0 70       	andi	r27, 0x00	; 0
    165c:	86 54       	subi	r24, 0x46	; 70
    165e:	91 44       	sbci	r25, 0x41	; 65
    1660:	a4 45       	sbci	r26, 0x54	; 84
    1662:	b0 40       	sbci	r27, 0x00	; 0
    1664:	09 f4       	brne	.+2      	; 0x1668 <chk_mounted+0x134>
    1666:	7c c2       	rjmp	.+1272   	; 0x1b60 <chk_mounted+0x62c>
		return 0;
	if ((LD_DWORD(&fs->win[BS_FilSysType32]) & 0xFFFFFF) == 0x544146)
    1668:	b4 e8       	ldi	r27, 0x84	; 132
    166a:	eb 2e       	mov	r14, r27
    166c:	f1 2c       	mov	r15, r1
    166e:	2b 85       	ldd	r18, Y+11	; 0x0b
    1670:	3c 85       	ldd	r19, Y+12	; 0x0c
    1672:	e2 0e       	add	r14, r18
    1674:	f3 1e       	adc	r15, r19
    1676:	f7 01       	movw	r30, r14
    1678:	80 81       	ld	r24, Z
    167a:	91 81       	ldd	r25, Z+1	; 0x01
    167c:	a2 81       	ldd	r26, Z+2	; 0x02
    167e:	b3 81       	ldd	r27, Z+3	; 0x03
    1680:	b0 70       	andi	r27, 0x00	; 0
    1682:	86 54       	subi	r24, 0x46	; 70
    1684:	91 44       	sbci	r25, 0x41	; 65
    1686:	a4 45       	sbci	r26, 0x54	; 84
    1688:	b0 40       	sbci	r27, 0x00	; 0
    168a:	09 f0       	breq	.+2      	; 0x168e <chk_mounted+0x15a>
    168c:	60 c2       	rjmp	.+1216   	; 0x1b4e <chk_mounted+0x61a>
    168e:	68 c2       	rjmp	.+1232   	; 0x1b60 <chk_mounted+0x62c>
	fmt = check_fs(fs, bsect = 0);		/* Check sector 0 if it is a VBR */
	if (fmt == 1) {						/* Not an FAT-VBR, the disk may be partitioned */
		/* Check the partition listed in top of the partition table */
		tbl = &fs->win[MBR_Table + LD2PT(vol) * 16];	/* Partition table */
		if (tbl[4]) {									/* Is the partition existing? */
			bsect = LD_DWORD(&tbl[8]);					/* Partition offset in LBA */
    1690:	d9 01       	movw	r26, r18
    1692:	18 96       	adiw	r26, 0x08	; 8
    1694:	8d 91       	ld	r24, X+
    1696:	9d 91       	ld	r25, X+
    1698:	0d 90       	ld	r0, X+
    169a:	bc 91       	ld	r27, X
    169c:	a0 2d       	mov	r26, r0
    169e:	8f 83       	std	Y+7, r24	; 0x07
    16a0:	98 87       	std	Y+8, r25	; 0x08
    16a2:	a9 87       	std	Y+9, r26	; 0x09
    16a4:	ba 87       	std	Y+10, r27	; 0x0a
BYTE check_fs (	/* 0:The FAT BR, 1:Valid BR but not an FAT, 2:Not a BR, 3:Disk error */
	FATFS *fs,	/* File system object */
	DWORD sect	/* Sector# (lba) to check if it is an FAT boot record or not */
)
{
	if (disk_read(fs->drv, fs->win, sect, 1) != RES_OK)	/* Load boot record */
    16a6:	eb 85       	ldd	r30, Y+11	; 0x0b
    16a8:	fc 85       	ldd	r31, Y+12	; 0x0c
    16aa:	81 81       	ldd	r24, Z+1	; 0x01
    16ac:	6d 81       	ldd	r22, Y+5	; 0x05
    16ae:	7e 81       	ldd	r23, Y+6	; 0x06
    16b0:	2f 81       	ldd	r18, Y+7	; 0x07
    16b2:	38 85       	ldd	r19, Y+8	; 0x08
    16b4:	49 85       	ldd	r20, Y+9	; 0x09
    16b6:	5a 85       	ldd	r21, Y+10	; 0x0a
    16b8:	01 e0       	ldi	r16, 0x01	; 1
    16ba:	0e 94 de 29 	call	0x53bc	; 0x53bc <disk_read>
    16be:	88 23       	and	r24, r24
    16c0:	09 f0       	breq	.+2      	; 0x16c4 <chk_mounted+0x190>
    16c2:	29 c2       	rjmp	.+1106   	; 0x1b16 <chk_mounted+0x5e2>
		return 3;
	if (LD_WORD(&fs->win[BS_55AA]) != 0xAA55)		/* Check record signature (always placed at offset 510 even if the sector size is >512) */
    16c4:	d1 01       	movw	r26, r2
    16c6:	8d 91       	ld	r24, X+
    16c8:	9c 91       	ld	r25, X
    16ca:	85 55       	subi	r24, 0x55	; 85
    16cc:	9a 4a       	sbci	r25, 0xAA	; 170
    16ce:	09 f0       	breq	.+2      	; 0x16d2 <chk_mounted+0x19e>
    16d0:	24 c2       	rjmp	.+1096   	; 0x1b1a <chk_mounted+0x5e6>
		return 2;

	if ((LD_DWORD(&fs->win[BS_FilSysType]) & 0xFFFFFF) == 0x544146)	/* Check "FAT" string */
    16d2:	f6 01       	movw	r30, r12
    16d4:	80 81       	ld	r24, Z
    16d6:	91 81       	ldd	r25, Z+1	; 0x01
    16d8:	a2 81       	ldd	r26, Z+2	; 0x02
    16da:	b3 81       	ldd	r27, Z+3	; 0x03
    16dc:	b0 70       	andi	r27, 0x00	; 0
    16de:	86 54       	subi	r24, 0x46	; 70
    16e0:	91 44       	sbci	r25, 0x41	; 65
    16e2:	a4 45       	sbci	r26, 0x54	; 84
    16e4:	b0 40       	sbci	r27, 0x00	; 0
    16e6:	61 f0       	breq	.+24     	; 0x1700 <chk_mounted+0x1cc>
		return 0;
	if ((LD_DWORD(&fs->win[BS_FilSysType32]) & 0xFFFFFF) == 0x544146)
    16e8:	f7 01       	movw	r30, r14
    16ea:	80 81       	ld	r24, Z
    16ec:	91 81       	ldd	r25, Z+1	; 0x01
    16ee:	a2 81       	ldd	r26, Z+2	; 0x02
    16f0:	b3 81       	ldd	r27, Z+3	; 0x03
    16f2:	b0 70       	andi	r27, 0x00	; 0
    16f4:	86 54       	subi	r24, 0x46	; 70
    16f6:	91 44       	sbci	r25, 0x41	; 65
    16f8:	a4 45       	sbci	r26, 0x54	; 84
    16fa:	b0 40       	sbci	r27, 0x00	; 0
    16fc:	09 f0       	breq	.+2      	; 0x1700 <chk_mounted+0x1cc>
    16fe:	0d c2       	rjmp	.+1050   	; 0x1b1a <chk_mounted+0x5e6>
	if (fmt == 3) return FR_DISK_ERR;
	if (fmt) return FR_NO_FILESYSTEM;					/* No FAT volume is found */

	/* Following code initializes the file system object */

	if (LD_WORD(fs->win+BPB_BytsPerSec) != SS(fs))		/* (BPB_BytsPerSec must be equal to the physical sector size) */
    1700:	ab 85       	ldd	r26, Y+11	; 0x0b
    1702:	bc 85       	ldd	r27, Y+12	; 0x0c
    1704:	dd 96       	adiw	r26, 0x3d	; 61
    1706:	8d 91       	ld	r24, X+
    1708:	9c 91       	ld	r25, X
    170a:	de 97       	sbiw	r26, 0x3e	; 62
    170c:	80 50       	subi	r24, 0x00	; 0
    170e:	92 40       	sbci	r25, 0x02	; 2
    1710:	09 f0       	breq	.+2      	; 0x1714 <chk_mounted+0x1e0>
    1712:	03 c2       	rjmp	.+1030   	; 0x1b1a <chk_mounted+0x5e6>
		return FR_NO_FILESYSTEM;

	fasize = LD_WORD(fs->win+BPB_FATSz16);				/* Number of sectors per FAT */
    1714:	eb 85       	ldd	r30, Y+11	; 0x0b
    1716:	fc 85       	ldd	r31, Y+12	; 0x0c
    1718:	e8 5b       	subi	r30, 0xB8	; 184
    171a:	ff 4f       	sbci	r31, 0xFF	; 255
    171c:	80 81       	ld	r24, Z
    171e:	91 81       	ldd	r25, Z+1	; 0x01
    1720:	e8 54       	subi	r30, 0x48	; 72
    1722:	f0 40       	sbci	r31, 0x00	; 0
    1724:	fc 87       	std	Y+12, r31	; 0x0c
    1726:	eb 87       	std	Y+11, r30	; 0x0b
    1728:	5c 01       	movw	r10, r24
    172a:	cc 24       	eor	r12, r12
    172c:	dd 24       	eor	r13, r13
	if (!fasize) fasize = LD_DWORD(fs->win+BPB_FATSz32);
    172e:	a1 14       	cp	r10, r1
    1730:	b1 04       	cpc	r11, r1
    1732:	c1 04       	cpc	r12, r1
    1734:	d1 04       	cpc	r13, r1
    1736:	51 f4       	brne	.+20     	; 0x174c <chk_mounted+0x218>
    1738:	ea 5a       	subi	r30, 0xAA	; 170
    173a:	ff 4f       	sbci	r31, 0xFF	; 255
    173c:	a0 80       	ld	r10, Z
    173e:	b1 80       	ldd	r11, Z+1	; 0x01
    1740:	c2 80       	ldd	r12, Z+2	; 0x02
    1742:	d3 80       	ldd	r13, Z+3	; 0x03
    1744:	e6 55       	subi	r30, 0x56	; 86
    1746:	f0 40       	sbci	r31, 0x00	; 0
    1748:	fc 87       	std	Y+12, r31	; 0x0c
    174a:	eb 87       	std	Y+11, r30	; 0x0b
	fs->fsize = fasize;
    174c:	ab 85       	ldd	r26, Y+11	; 0x0b
    174e:	bc 85       	ldd	r27, Y+12	; 0x0c
    1750:	5e 96       	adiw	r26, 0x1e	; 30
    1752:	ad 92       	st	X+, r10
    1754:	bd 92       	st	X+, r11
    1756:	cd 92       	st	X+, r12
    1758:	dc 92       	st	X, r13
    175a:	91 97       	sbiw	r26, 0x21	; 33

	fs->n_fats = b = fs->win[BPB_NumFATs];				/* Number of FAT copies */
    175c:	ae 5b       	subi	r26, 0xBE	; 190
    175e:	bf 4f       	sbci	r27, 0xFF	; 255
    1760:	4c 91       	ld	r20, X
    1762:	a2 54       	subi	r26, 0x42	; 66
    1764:	b0 40       	sbci	r27, 0x00	; 0
    1766:	bc 87       	std	Y+12, r27	; 0x0c
    1768:	ab 87       	std	Y+11, r26	; 0x0b
    176a:	13 96       	adiw	r26, 0x03	; 3
    176c:	4c 93       	st	X, r20
    176e:	13 97       	sbiw	r26, 0x03	; 3
	if (b != 1 && b != 2) return FR_NO_FILESYSTEM;		/* (Must be 1 or 2) */
    1770:	84 2f       	mov	r24, r20
    1772:	81 50       	subi	r24, 0x01	; 1
    1774:	82 30       	cpi	r24, 0x02	; 2
    1776:	08 f0       	brcs	.+2      	; 0x177a <chk_mounted+0x246>
    1778:	d0 c1       	rjmp	.+928    	; 0x1b1a <chk_mounted+0x5e6>
	fasize *= b;										/* Number of sectors for FAT area */

	fs->csize = b = fs->win[BPB_SecPerClus];			/* Number of sectors per cluster */
    177a:	df 96       	adiw	r26, 0x3f	; 63
    177c:	2c 91       	ld	r18, X
    177e:	df 97       	sbiw	r26, 0x3f	; 63
    1780:	12 96       	adiw	r26, 0x02	; 2
    1782:	2c 93       	st	X, r18
    1784:	12 97       	sbiw	r26, 0x02	; 2
	if (!b || (b & (b - 1))) return FR_NO_FILESYSTEM;	/* (Must be power of 2) */
    1786:	22 23       	and	r18, r18
    1788:	09 f4       	brne	.+2      	; 0x178c <chk_mounted+0x258>
    178a:	c7 c1       	rjmp	.+910    	; 0x1b1a <chk_mounted+0x5e6>
    178c:	30 e0       	ldi	r19, 0x00	; 0
    178e:	c9 01       	movw	r24, r18
    1790:	01 97       	sbiw	r24, 0x01	; 1
    1792:	82 23       	and	r24, r18
    1794:	93 23       	and	r25, r19
    1796:	89 2b       	or	r24, r25
    1798:	09 f0       	breq	.+2      	; 0x179c <chk_mounted+0x268>
    179a:	bf c1       	rjmp	.+894    	; 0x1b1a <chk_mounted+0x5e6>

	fs->n_rootdir = LD_WORD(fs->win+BPB_RootEntCnt);	/* Number of root directory entries */
    179c:	ad 5b       	subi	r26, 0xBD	; 189
    179e:	bf 4f       	sbci	r27, 0xFF	; 255
    17a0:	8d 90       	ld	r8, X+
    17a2:	9c 90       	ld	r9, X
    17a4:	11 97       	sbiw	r26, 0x01	; 1
    17a6:	a3 54       	subi	r26, 0x43	; 67
    17a8:	b0 40       	sbci	r27, 0x00	; 0
    17aa:	bc 87       	std	Y+12, r27	; 0x0c
    17ac:	ab 87       	std	Y+11, r26	; 0x0b
    17ae:	19 96       	adiw	r26, 0x09	; 9
    17b0:	9c 92       	st	X, r9
    17b2:	8e 92       	st	-X, r8
    17b4:	18 97       	sbiw	r26, 0x08	; 8
	if (fs->n_rootdir % (SS(fs) / 32)) return FR_NO_FILESYSTEM;	/* (BPB_RootEntCnt must be sector aligned) */
    17b6:	c4 01       	movw	r24, r8
    17b8:	8f 70       	andi	r24, 0x0F	; 15
    17ba:	90 70       	andi	r25, 0x00	; 0
    17bc:	89 2b       	or	r24, r25
    17be:	09 f0       	breq	.+2      	; 0x17c2 <chk_mounted+0x28e>
    17c0:	ac c1       	rjmp	.+856    	; 0x1b1a <chk_mounted+0x5e6>

	tsect = LD_WORD(fs->win+BPB_TotSec16);				/* Number of sectors on the volume */
    17c2:	ab 5b       	subi	r26, 0xBB	; 187
    17c4:	bf 4f       	sbci	r27, 0xFF	; 255
    17c6:	8d 91       	ld	r24, X+
    17c8:	9c 91       	ld	r25, X
    17ca:	11 97       	sbiw	r26, 0x01	; 1
    17cc:	a5 54       	subi	r26, 0x45	; 69
    17ce:	b0 40       	sbci	r27, 0x00	; 0
    17d0:	bc 87       	std	Y+12, r27	; 0x0c
    17d2:	ab 87       	std	Y+11, r26	; 0x0b
    17d4:	7c 01       	movw	r14, r24
    17d6:	00 e0       	ldi	r16, 0x00	; 0
    17d8:	10 e0       	ldi	r17, 0x00	; 0
	if (!tsect) tsect = LD_DWORD(fs->win+BPB_TotSec32);
    17da:	e1 14       	cp	r14, r1
    17dc:	f1 04       	cpc	r15, r1
    17de:	01 05       	cpc	r16, r1
    17e0:	11 05       	cpc	r17, r1
    17e2:	59 f4       	brne	.+22     	; 0x17fa <chk_mounted+0x2c6>
    17e4:	ae 5a       	subi	r26, 0xAE	; 174
    17e6:	bf 4f       	sbci	r27, 0xFF	; 255
    17e8:	ed 90       	ld	r14, X+
    17ea:	fd 90       	ld	r15, X+
    17ec:	0d 91       	ld	r16, X+
    17ee:	1c 91       	ld	r17, X
    17f0:	13 97       	sbiw	r26, 0x03	; 3
    17f2:	a2 55       	subi	r26, 0x52	; 82
    17f4:	b0 40       	sbci	r27, 0x00	; 0
    17f6:	bc 87       	std	Y+12, r27	; 0x0c
    17f8:	ab 87       	std	Y+11, r26	; 0x0b

	nrsv = LD_WORD(fs->win+BPB_RsvdSecCnt);				/* Number of reserved sectors */
    17fa:	eb 85       	ldd	r30, Y+11	; 0x0b
    17fc:	fc 85       	ldd	r31, Y+12	; 0x0c
    17fe:	e0 5c       	subi	r30, 0xC0	; 192
    1800:	ff 4f       	sbci	r31, 0xFF	; 255
    1802:	60 80       	ld	r6, Z
    1804:	71 80       	ldd	r7, Z+1	; 0x01
    1806:	e0 54       	subi	r30, 0x40	; 64
    1808:	f0 40       	sbci	r31, 0x00	; 0
    180a:	fc 87       	std	Y+12, r31	; 0x0c
    180c:	eb 87       	std	Y+11, r30	; 0x0b
	if (!nrsv) return FR_NO_FILESYSTEM;					/* (BPB_RsvdSecCnt must not be 0) */
    180e:	61 14       	cp	r6, r1
    1810:	71 04       	cpc	r7, r1
    1812:	09 f4       	brne	.+2      	; 0x1816 <chk_mounted+0x2e2>
    1814:	82 c1       	rjmp	.+772    	; 0x1b1a <chk_mounted+0x5e6>
	if (!fasize) fasize = LD_DWORD(fs->win+BPB_FATSz32);
	fs->fsize = fasize;

	fs->n_fats = b = fs->win[BPB_NumFATs];				/* Number of FAT copies */
	if (b != 1 && b != 2) return FR_NO_FILESYSTEM;		/* (Must be 1 or 2) */
	fasize *= b;										/* Number of sectors for FAT area */
    1816:	24 2f       	mov	r18, r20
    1818:	30 e0       	ldi	r19, 0x00	; 0
    181a:	40 e0       	ldi	r20, 0x00	; 0
    181c:	50 e0       	ldi	r21, 0x00	; 0
    181e:	c6 01       	movw	r24, r12
    1820:	b5 01       	movw	r22, r10
    1822:	0e 94 de 2d 	call	0x5bbc	; 0x5bbc <__mulsi3>
    1826:	69 83       	std	Y+1, r22	; 0x01
    1828:	7a 83       	std	Y+2, r23	; 0x02
    182a:	8b 83       	std	Y+3, r24	; 0x03
    182c:	9c 83       	std	Y+4, r25	; 0x04

	nrsv = LD_WORD(fs->win+BPB_RsvdSecCnt);				/* Number of reserved sectors */
	if (!nrsv) return FR_NO_FILESYSTEM;					/* (BPB_RsvdSecCnt must not be 0) */

	/* Determine the FAT sub type */
	sysect = nrsv + fasize + fs->n_rootdir / (SS(fs) / 32);	/* RSV+FAT+DIR */
    182e:	23 01       	movw	r4, r6
    1830:	66 24       	eor	r6, r6
    1832:	77 24       	eor	r7, r7
    1834:	a4 e0       	ldi	r26, 0x04	; 4
    1836:	96 94       	lsr	r9
    1838:	87 94       	ror	r8
    183a:	aa 95       	dec	r26
    183c:	e1 f7       	brne	.-8      	; 0x1836 <chk_mounted+0x302>
    183e:	54 01       	movw	r10, r8
    1840:	cc 24       	eor	r12, r12
    1842:	dd 24       	eor	r13, r13
    1844:	a4 0c       	add	r10, r4
    1846:	b5 1c       	adc	r11, r5
    1848:	c6 1c       	adc	r12, r6
    184a:	d7 1c       	adc	r13, r7
    184c:	a6 0e       	add	r10, r22
    184e:	b7 1e       	adc	r11, r23
    1850:	c8 1e       	adc	r12, r24
    1852:	d9 1e       	adc	r13, r25
	if (tsect < sysect) return FR_NO_FILESYSTEM;		/* (Invalid volume size) */
    1854:	ea 14       	cp	r14, r10
    1856:	fb 04       	cpc	r15, r11
    1858:	0c 05       	cpc	r16, r12
    185a:	1d 05       	cpc	r17, r13
    185c:	08 f4       	brcc	.+2      	; 0x1860 <chk_mounted+0x32c>
    185e:	5d c1       	rjmp	.+698    	; 0x1b1a <chk_mounted+0x5e6>
	nclst = (tsect - sysect) / fs->csize;				/* Number of clusters */
    1860:	ea 18       	sub	r14, r10
    1862:	fb 08       	sbc	r15, r11
    1864:	0c 09       	sbc	r16, r12
    1866:	1d 09       	sbc	r17, r13
    1868:	ab 85       	ldd	r26, Y+11	; 0x0b
    186a:	bc 85       	ldd	r27, Y+12	; 0x0c
    186c:	12 96       	adiw	r26, 0x02	; 2
    186e:	2c 91       	ld	r18, X
    1870:	30 e0       	ldi	r19, 0x00	; 0
    1872:	40 e0       	ldi	r20, 0x00	; 0
    1874:	50 e0       	ldi	r21, 0x00	; 0
    1876:	c8 01       	movw	r24, r16
    1878:	b7 01       	movw	r22, r14
    187a:	0e 94 fd 2d 	call	0x5bfa	; 0x5bfa <__udivmodsi4>
    187e:	c9 01       	movw	r24, r18
    1880:	da 01       	movw	r26, r20
	if (!nclst) return FR_NO_FILESYSTEM;				/* (Invalid volume size) */
    1882:	00 97       	sbiw	r24, 0x00	; 0
    1884:	a1 05       	cpc	r26, r1
    1886:	b1 05       	cpc	r27, r1
    1888:	09 f4       	brne	.+2      	; 0x188c <chk_mounted+0x358>
    188a:	47 c1       	rjmp	.+654    	; 0x1b1a <chk_mounted+0x5e6>
	fmt = FS_FAT12;
	if (nclst >= MIN_FAT16) fmt = FS_FAT16;
    188c:	86 3f       	cpi	r24, 0xF6	; 246
    188e:	ef e0       	ldi	r30, 0x0F	; 15
    1890:	9e 07       	cpc	r25, r30
    1892:	e0 e0       	ldi	r30, 0x00	; 0
    1894:	ae 07       	cpc	r26, r30
    1896:	e0 e0       	ldi	r30, 0x00	; 0
    1898:	be 07       	cpc	r27, r30
    189a:	18 f4       	brcc	.+6      	; 0x18a2 <chk_mounted+0x36e>
    189c:	99 24       	eor	r9, r9
    189e:	93 94       	inc	r9
    18a0:	0d c0       	rjmp	.+26     	; 0x18bc <chk_mounted+0x388>
	if (nclst >= MIN_FAT32) fmt = FS_FAT32;
    18a2:	86 3f       	cpi	r24, 0xF6	; 246
    18a4:	ff ef       	ldi	r31, 0xFF	; 255
    18a6:	9f 07       	cpc	r25, r31
    18a8:	f0 e0       	ldi	r31, 0x00	; 0
    18aa:	af 07       	cpc	r26, r31
    18ac:	f0 e0       	ldi	r31, 0x00	; 0
    18ae:	bf 07       	cpc	r27, r31
    18b0:	18 f0       	brcs	.+6      	; 0x18b8 <chk_mounted+0x384>
    18b2:	f3 e0       	ldi	r31, 0x03	; 3
    18b4:	9f 2e       	mov	r9, r31
    18b6:	02 c0       	rjmp	.+4      	; 0x18bc <chk_mounted+0x388>
    18b8:	e2 e0       	ldi	r30, 0x02	; 2
    18ba:	9e 2e       	mov	r9, r30

	/* Boundaries and Limits */
	fs->n_fatent = nclst + 2;							/* Number of FAT entries */
    18bc:	72 e0       	ldi	r23, 0x02	; 2
    18be:	e7 2e       	mov	r14, r23
    18c0:	f1 2c       	mov	r15, r1
    18c2:	01 2d       	mov	r16, r1
    18c4:	11 2d       	mov	r17, r1
    18c6:	e8 0e       	add	r14, r24
    18c8:	f9 1e       	adc	r15, r25
    18ca:	0a 1f       	adc	r16, r26
    18cc:	1b 1f       	adc	r17, r27
    18ce:	ab 85       	ldd	r26, Y+11	; 0x0b
    18d0:	bc 85       	ldd	r27, Y+12	; 0x0c
    18d2:	5a 96       	adiw	r26, 0x1a	; 26
    18d4:	ed 92       	st	X+, r14
    18d6:	fd 92       	st	X+, r15
    18d8:	0d 93       	st	X+, r16
    18da:	1c 93       	st	X, r17
    18dc:	5d 97       	sbiw	r26, 0x1d	; 29
	fs->database = bsect + sysect;						/* Data start sector */
    18de:	2f 81       	ldd	r18, Y+7	; 0x07
    18e0:	38 85       	ldd	r19, Y+8	; 0x08
    18e2:	49 85       	ldd	r20, Y+9	; 0x09
    18e4:	5a 85       	ldd	r21, Y+10	; 0x0a
    18e6:	a2 0e       	add	r10, r18
    18e8:	b3 1e       	adc	r11, r19
    18ea:	c4 1e       	adc	r12, r20
    18ec:	d5 1e       	adc	r13, r21
    18ee:	9a 96       	adiw	r26, 0x2a	; 42
    18f0:	ad 92       	st	X+, r10
    18f2:	bd 92       	st	X+, r11
    18f4:	cd 92       	st	X+, r12
    18f6:	dc 92       	st	X, r13
    18f8:	9d 97       	sbiw	r26, 0x2d	; 45
	fs->fatbase = bsect + nrsv; 						/* FAT start sector */
    18fa:	da 01       	movw	r26, r20
    18fc:	c9 01       	movw	r24, r18
    18fe:	84 0d       	add	r24, r4
    1900:	95 1d       	adc	r25, r5
    1902:	a6 1d       	adc	r26, r6
    1904:	b7 1d       	adc	r27, r7
    1906:	eb 85       	ldd	r30, Y+11	; 0x0b
    1908:	fc 85       	ldd	r31, Y+12	; 0x0c
    190a:	82 a3       	std	Z+34, r24	; 0x22
    190c:	93 a3       	std	Z+35, r25	; 0x23
    190e:	a4 a3       	std	Z+36, r26	; 0x24
    1910:	b5 a3       	std	Z+37, r27	; 0x25
    1912:	20 85       	ldd	r18, Z+8	; 0x08
    1914:	31 85       	ldd	r19, Z+9	; 0x09
	if (fmt == FS_FAT32) {
    1916:	f3 e0       	ldi	r31, 0x03	; 3
    1918:	9f 16       	cp	r9, r31
    191a:	f1 f4       	brne	.+60     	; 0x1958 <chk_mounted+0x424>
		if (fs->n_rootdir) return FR_NO_FILESYSTEM;		/* (BPB_RootEntCnt must be 0) */
    191c:	23 2b       	or	r18, r19
    191e:	09 f0       	breq	.+2      	; 0x1922 <chk_mounted+0x3ee>
    1920:	fc c0       	rjmp	.+504    	; 0x1b1a <chk_mounted+0x5e6>
		fs->dirbase = LD_DWORD(fs->win+BPB_RootClus);	/* Root directory start cluster */
    1922:	2b 85       	ldd	r18, Y+11	; 0x0b
    1924:	3c 85       	ldd	r19, Y+12	; 0x0c
    1926:	22 5a       	subi	r18, 0xA2	; 162
    1928:	3f 4f       	sbci	r19, 0xFF	; 255
    192a:	f9 01       	movw	r30, r18
    192c:	80 81       	ld	r24, Z
    192e:	91 81       	ldd	r25, Z+1	; 0x01
    1930:	a2 81       	ldd	r26, Z+2	; 0x02
    1932:	b3 81       	ldd	r27, Z+3	; 0x03
    1934:	ee 55       	subi	r30, 0x5E	; 94
    1936:	f0 40       	sbci	r31, 0x00	; 0
    1938:	fc 87       	std	Y+12, r31	; 0x0c
    193a:	eb 87       	std	Y+11, r30	; 0x0b
    193c:	86 a3       	std	Z+38, r24	; 0x26
    193e:	97 a3       	std	Z+39, r25	; 0x27
    1940:	a0 a7       	std	Z+40, r26	; 0x28
    1942:	b1 a7       	std	Z+41, r27	; 0x29
		szbfat = fs->n_fatent * 4;						/* (Required FAT size) */
    1944:	a8 01       	movw	r20, r16
    1946:	97 01       	movw	r18, r14
    1948:	62 e0       	ldi	r22, 0x02	; 2
    194a:	22 0f       	add	r18, r18
    194c:	33 1f       	adc	r19, r19
    194e:	44 1f       	adc	r20, r20
    1950:	55 1f       	adc	r21, r21
    1952:	6a 95       	dec	r22
    1954:	d1 f7       	brne	.-12     	; 0x194a <chk_mounted+0x416>
    1956:	33 c0       	rjmp	.+102    	; 0x19be <chk_mounted+0x48a>
	} else {
		if (!fs->n_rootdir)	return FR_NO_FILESYSTEM;	/* (BPB_RootEntCnt must not be 0) */
    1958:	23 2b       	or	r18, r19
    195a:	09 f4       	brne	.+2      	; 0x195e <chk_mounted+0x42a>
    195c:	de c0       	rjmp	.+444    	; 0x1b1a <chk_mounted+0x5e6>
		fs->dirbase = fs->fatbase + fasize;				/* Root directory start sector */
    195e:	29 81       	ldd	r18, Y+1	; 0x01
    1960:	3a 81       	ldd	r19, Y+2	; 0x02
    1962:	4b 81       	ldd	r20, Y+3	; 0x03
    1964:	5c 81       	ldd	r21, Y+4	; 0x04
    1966:	82 0f       	add	r24, r18
    1968:	93 1f       	adc	r25, r19
    196a:	a4 1f       	adc	r26, r20
    196c:	b5 1f       	adc	r27, r21
    196e:	eb 85       	ldd	r30, Y+11	; 0x0b
    1970:	fc 85       	ldd	r31, Y+12	; 0x0c
    1972:	86 a3       	std	Z+38, r24	; 0x26
    1974:	97 a3       	std	Z+39, r25	; 0x27
    1976:	a0 a7       	std	Z+40, r26	; 0x28
    1978:	b1 a7       	std	Z+41, r27	; 0x29
    197a:	d8 01       	movw	r26, r16
    197c:	c7 01       	movw	r24, r14
    197e:	88 0f       	add	r24, r24
    1980:	99 1f       	adc	r25, r25
    1982:	aa 1f       	adc	r26, r26
    1984:	bb 1f       	adc	r27, r27
		szbfat = (fmt == FS_FAT16) ?					/* (Required FAT size) */
    1986:	f2 e0       	ldi	r31, 0x02	; 2
    1988:	9f 16       	cp	r9, r31
    198a:	19 f4       	brne	.+6      	; 0x1992 <chk_mounted+0x45e>
    198c:	9c 01       	movw	r18, r24
    198e:	ad 01       	movw	r20, r26
    1990:	16 c0       	rjmp	.+44     	; 0x19be <chk_mounted+0x48a>
    1992:	9c 01       	movw	r18, r24
    1994:	ad 01       	movw	r20, r26
    1996:	2e 0d       	add	r18, r14
    1998:	3f 1d       	adc	r19, r15
    199a:	40 1f       	adc	r20, r16
    199c:	51 1f       	adc	r21, r17
    199e:	56 95       	lsr	r21
    19a0:	47 95       	ror	r20
    19a2:	37 95       	ror	r19
    19a4:	27 95       	ror	r18
    19a6:	81 e0       	ldi	r24, 0x01	; 1
    19a8:	90 e0       	ldi	r25, 0x00	; 0
    19aa:	a0 e0       	ldi	r26, 0x00	; 0
    19ac:	b0 e0       	ldi	r27, 0x00	; 0
    19ae:	e8 22       	and	r14, r24
    19b0:	f9 22       	and	r15, r25
    19b2:	0a 23       	and	r16, r26
    19b4:	1b 23       	and	r17, r27
    19b6:	2e 0d       	add	r18, r14
    19b8:	3f 1d       	adc	r19, r15
    19ba:	40 1f       	adc	r20, r16
    19bc:	51 1f       	adc	r21, r17
			fs->n_fatent * 2 : fs->n_fatent * 3 / 2 + (fs->n_fatent & 1);
	}
	if (fs->fsize < (szbfat + (SS(fs) - 1)) / SS(fs))	/* (FAT size must not be less than FAT sectors */
    19be:	21 50       	subi	r18, 0x01	; 1
    19c0:	3e 4f       	sbci	r19, 0xFE	; 254
    19c2:	4f 4f       	sbci	r20, 0xFF	; 255
    19c4:	5f 4f       	sbci	r21, 0xFF	; 255
    19c6:	89 e0       	ldi	r24, 0x09	; 9
    19c8:	56 95       	lsr	r21
    19ca:	47 95       	ror	r20
    19cc:	37 95       	ror	r19
    19ce:	27 95       	ror	r18
    19d0:	8a 95       	dec	r24
    19d2:	d1 f7       	brne	.-12     	; 0x19c8 <chk_mounted+0x494>
    19d4:	eb 85       	ldd	r30, Y+11	; 0x0b
    19d6:	fc 85       	ldd	r31, Y+12	; 0x0c
    19d8:	86 8d       	ldd	r24, Z+30	; 0x1e
    19da:	97 8d       	ldd	r25, Z+31	; 0x1f
    19dc:	a0 a1       	ldd	r26, Z+32	; 0x20
    19de:	b1 a1       	ldd	r27, Z+33	; 0x21
    19e0:	82 17       	cp	r24, r18
    19e2:	93 07       	cpc	r25, r19
    19e4:	a4 07       	cpc	r26, r20
    19e6:	b5 07       	cpc	r27, r21
    19e8:	08 f4       	brcc	.+2      	; 0x19ec <chk_mounted+0x4b8>
    19ea:	97 c0       	rjmp	.+302    	; 0x1b1a <chk_mounted+0x5e6>
		return FR_NO_FILESYSTEM;

#if !_FS_READONLY
	/* Initialize cluster allocation information */
	fs->free_clust = 0xFFFFFFFF;
    19ec:	8f ef       	ldi	r24, 0xFF	; 255
    19ee:	9f ef       	ldi	r25, 0xFF	; 255
    19f0:	af ef       	ldi	r26, 0xFF	; 255
    19f2:	bf ef       	ldi	r27, 0xFF	; 255
    19f4:	86 87       	std	Z+14, r24	; 0x0e
    19f6:	97 87       	std	Z+15, r25	; 0x0f
    19f8:	a0 8b       	std	Z+16, r26	; 0x10
    19fa:	b1 8b       	std	Z+17, r27	; 0x11
	fs->last_clust = 0;
    19fc:	12 86       	std	Z+10, r1	; 0x0a
    19fe:	13 86       	std	Z+11, r1	; 0x0b
    1a00:	14 86       	std	Z+12, r1	; 0x0c
    1a02:	15 86       	std	Z+13, r1	; 0x0d

	/* Get fsinfo if available */
	if (fmt == FS_FAT32) {
    1a04:	b3 e0       	ldi	r27, 0x03	; 3
    1a06:	9b 16       	cp	r9, r27
    1a08:	09 f0       	breq	.+2      	; 0x1a0c <chk_mounted+0x4d8>
    1a0a:	61 c0       	rjmp	.+194    	; 0x1ace <chk_mounted+0x59a>
	 	fs->fsi_flag = 0;
    1a0c:	15 82       	std	Z+5, r1	; 0x05
		fs->fsi_sector = bsect + LD_WORD(fs->win+BPB_FSInfo);
    1a0e:	ee 59       	subi	r30, 0x9E	; 158
    1a10:	ff 4f       	sbci	r31, 0xFF	; 255
    1a12:	20 81       	ld	r18, Z
    1a14:	31 81       	ldd	r19, Z+1	; 0x01
    1a16:	e2 56       	subi	r30, 0x62	; 98
    1a18:	f0 40       	sbci	r31, 0x00	; 0
    1a1a:	fc 87       	std	Y+12, r31	; 0x0c
    1a1c:	eb 87       	std	Y+11, r30	; 0x0b
    1a1e:	40 e0       	ldi	r20, 0x00	; 0
    1a20:	50 e0       	ldi	r21, 0x00	; 0
    1a22:	8f 81       	ldd	r24, Y+7	; 0x07
    1a24:	98 85       	ldd	r25, Y+8	; 0x08
    1a26:	a9 85       	ldd	r26, Y+9	; 0x09
    1a28:	ba 85       	ldd	r27, Y+10	; 0x0a
    1a2a:	28 0f       	add	r18, r24
    1a2c:	39 1f       	adc	r19, r25
    1a2e:	4a 1f       	adc	r20, r26
    1a30:	5b 1f       	adc	r21, r27
    1a32:	22 8b       	std	Z+18, r18	; 0x12
    1a34:	33 8b       	std	Z+19, r19	; 0x13
    1a36:	44 8b       	std	Z+20, r20	; 0x14
    1a38:	55 8b       	std	Z+21, r21	; 0x15
		if (disk_read(fs->drv, fs->win, fs->fsi_sector, 1) == RES_OK &&
    1a3a:	81 81       	ldd	r24, Z+1	; 0x01
    1a3c:	6d 81       	ldd	r22, Y+5	; 0x05
    1a3e:	7e 81       	ldd	r23, Y+6	; 0x06
    1a40:	01 e0       	ldi	r16, 0x01	; 1
    1a42:	0e 94 de 29 	call	0x53bc	; 0x53bc <disk_read>
    1a46:	88 23       	and	r24, r24
    1a48:	09 f0       	breq	.+2      	; 0x1a4c <chk_mounted+0x518>
    1a4a:	41 c0       	rjmp	.+130    	; 0x1ace <chk_mounted+0x59a>
    1a4c:	f1 01       	movw	r30, r2
    1a4e:	80 81       	ld	r24, Z
    1a50:	91 81       	ldd	r25, Z+1	; 0x01
    1a52:	85 55       	subi	r24, 0x55	; 85
    1a54:	9a 4a       	sbci	r25, 0xAA	; 170
    1a56:	09 f0       	breq	.+2      	; 0x1a5a <chk_mounted+0x526>
    1a58:	3a c0       	rjmp	.+116    	; 0x1ace <chk_mounted+0x59a>
    1a5a:	eb 85       	ldd	r30, Y+11	; 0x0b
    1a5c:	fc 85       	ldd	r31, Y+12	; 0x0c
    1a5e:	82 a9       	ldd	r24, Z+50	; 0x32
    1a60:	93 a9       	ldd	r25, Z+51	; 0x33
    1a62:	a4 a9       	ldd	r26, Z+52	; 0x34
    1a64:	b5 a9       	ldd	r27, Z+53	; 0x35
    1a66:	82 55       	subi	r24, 0x52	; 82
    1a68:	92 45       	sbci	r25, 0x52	; 82
    1a6a:	a1 46       	sbci	r26, 0x61	; 97
    1a6c:	b1 44       	sbci	r27, 0x41	; 65
    1a6e:	79 f5       	brne	.+94     	; 0x1ace <chk_mounted+0x59a>
    1a70:	2b 85       	ldd	r18, Y+11	; 0x0b
    1a72:	3c 85       	ldd	r19, Y+12	; 0x0c
    1a74:	2a 5e       	subi	r18, 0xEA	; 234
    1a76:	3d 4f       	sbci	r19, 0xFD	; 253
    1a78:	f9 01       	movw	r30, r18
    1a7a:	80 81       	ld	r24, Z
    1a7c:	91 81       	ldd	r25, Z+1	; 0x01
    1a7e:	a2 81       	ldd	r26, Z+2	; 0x02
    1a80:	b3 81       	ldd	r27, Z+3	; 0x03
    1a82:	e6 51       	subi	r30, 0x16	; 22
    1a84:	f2 40       	sbci	r31, 0x02	; 2
    1a86:	fc 87       	std	Y+12, r31	; 0x0c
    1a88:	eb 87       	std	Y+11, r30	; 0x0b
    1a8a:	82 57       	subi	r24, 0x72	; 114
    1a8c:	92 47       	sbci	r25, 0x72	; 114
    1a8e:	a1 44       	sbci	r26, 0x41	; 65
    1a90:	b1 46       	sbci	r27, 0x61	; 97
    1a92:	e9 f4       	brne	.+58     	; 0x1ace <chk_mounted+0x59a>
			LD_WORD(fs->win+BS_55AA) == 0xAA55 &&
			LD_DWORD(fs->win+FSI_LeadSig) == 0x41615252 &&
			LD_DWORD(fs->win+FSI_StrucSig) == 0x61417272) {
				fs->last_clust = LD_DWORD(fs->win+FSI_Nxt_Free);
    1a94:	2b 85       	ldd	r18, Y+11	; 0x0b
    1a96:	3c 85       	ldd	r19, Y+12	; 0x0c
    1a98:	22 5e       	subi	r18, 0xE2	; 226
    1a9a:	3d 4f       	sbci	r19, 0xFD	; 253
    1a9c:	f9 01       	movw	r30, r18
    1a9e:	80 81       	ld	r24, Z
    1aa0:	91 81       	ldd	r25, Z+1	; 0x01
    1aa2:	a2 81       	ldd	r26, Z+2	; 0x02
    1aa4:	b3 81       	ldd	r27, Z+3	; 0x03
    1aa6:	ee 51       	subi	r30, 0x1E	; 30
    1aa8:	f2 40       	sbci	r31, 0x02	; 2
    1aaa:	82 87       	std	Z+10, r24	; 0x0a
    1aac:	93 87       	std	Z+11, r25	; 0x0b
    1aae:	a4 87       	std	Z+12, r26	; 0x0c
    1ab0:	b5 87       	std	Z+13, r27	; 0x0d
				fs->free_clust = LD_DWORD(fs->win+FSI_Free_Count);
    1ab2:	e6 5e       	subi	r30, 0xE6	; 230
    1ab4:	fd 4f       	sbci	r31, 0xFD	; 253
    1ab6:	80 81       	ld	r24, Z
    1ab8:	91 81       	ldd	r25, Z+1	; 0x01
    1aba:	a2 81       	ldd	r26, Z+2	; 0x02
    1abc:	b3 81       	ldd	r27, Z+3	; 0x03
    1abe:	ea 51       	subi	r30, 0x1A	; 26
    1ac0:	f2 40       	sbci	r31, 0x02	; 2
    1ac2:	fc 87       	std	Y+12, r31	; 0x0c
    1ac4:	eb 87       	std	Y+11, r30	; 0x0b
    1ac6:	86 87       	std	Z+14, r24	; 0x0e
    1ac8:	97 87       	std	Z+15, r25	; 0x0f
    1aca:	a0 8b       	std	Z+16, r26	; 0x10
    1acc:	b1 8b       	std	Z+17, r27	; 0x11
		}
	}
#endif
	fs->fs_type = fmt;		/* FAT sub-type */
    1ace:	ab 85       	ldd	r26, Y+11	; 0x0b
    1ad0:	bc 85       	ldd	r27, Y+12	; 0x0c
    1ad2:	9c 92       	st	X, r9
	fs->id = ++Fsid;		/* File system mount ID */
    1ad4:	80 91 07 05 	lds	r24, 0x0507
    1ad8:	90 91 08 05 	lds	r25, 0x0508
    1adc:	01 96       	adiw	r24, 0x01	; 1
    1ade:	90 93 08 05 	sts	0x0508, r25
    1ae2:	80 93 07 05 	sts	0x0507, r24
    1ae6:	17 96       	adiw	r26, 0x07	; 7
    1ae8:	9c 93       	st	X, r25
    1aea:	8e 93       	st	-X, r24
    1aec:	16 97       	sbiw	r26, 0x06	; 6
	fs->winsect = 0;		/* Invalidate sector cache */
    1aee:	eb 85       	ldd	r30, Y+11	; 0x0b
    1af0:	fc 85       	ldd	r31, Y+12	; 0x0c
    1af2:	16 a6       	std	Z+46, r1	; 0x2e
    1af4:	17 a6       	std	Z+47, r1	; 0x2f
    1af6:	10 aa       	std	Z+48, r1	; 0x30
    1af8:	11 aa       	std	Z+49, r1	; 0x31
	fs->wflag = 0;
    1afa:	14 82       	std	Z+4, r1	; 0x04
#if _FS_RPATH
	fs->cdir = 0;			/* Current directory (root dir) */
    1afc:	ab 85       	ldd	r26, Y+11	; 0x0b
    1afe:	bc 85       	ldd	r27, Y+12	; 0x0c
    1b00:	56 96       	adiw	r26, 0x16	; 22
    1b02:	1d 92       	st	X+, r1
    1b04:	1d 92       	st	X+, r1
    1b06:	1d 92       	st	X+, r1
    1b08:	1c 92       	st	X, r1
    1b0a:	59 97       	sbiw	r26, 0x19	; 25
    1b0c:	02 c0       	rjmp	.+4      	; 0x1b12 <chk_mounted+0x5de>
#endif
#if _FS_SHARE				/* Clear file lock semaphores */
	clear_lock(fs);
#endif

	return FR_OK;
    1b0e:	8a e0       	ldi	r24, 0x0A	; 10
    1b10:	05 c0       	rjmp	.+10     	; 0x1b1c <chk_mounted+0x5e8>
    1b12:	80 e0       	ldi	r24, 0x00	; 0
    1b14:	03 c0       	rjmp	.+6      	; 0x1b1c <chk_mounted+0x5e8>
    1b16:	81 e0       	ldi	r24, 0x01	; 1
    1b18:	01 c0       	rjmp	.+2      	; 0x1b1c <chk_mounted+0x5e8>
    1b1a:	8d e0       	ldi	r24, 0x0D	; 13
}
    1b1c:	2c 96       	adiw	r28, 0x0c	; 12
    1b1e:	0f b6       	in	r0, 0x3f	; 63
    1b20:	f8 94       	cli
    1b22:	de bf       	out	0x3e, r29	; 62
    1b24:	0f be       	out	0x3f, r0	; 63
    1b26:	cd bf       	out	0x3d, r28	; 61
    1b28:	cf 91       	pop	r28
    1b2a:	df 91       	pop	r29
    1b2c:	1f 91       	pop	r17
    1b2e:	0f 91       	pop	r16
    1b30:	ff 90       	pop	r15
    1b32:	ef 90       	pop	r14
    1b34:	df 90       	pop	r13
    1b36:	cf 90       	pop	r12
    1b38:	bf 90       	pop	r11
    1b3a:	af 90       	pop	r10
    1b3c:	9f 90       	pop	r9
    1b3e:	8f 90       	pop	r8
    1b40:	7f 90       	pop	r7
    1b42:	6f 90       	pop	r6
    1b44:	5f 90       	pop	r5
    1b46:	4f 90       	pop	r4
    1b48:	3f 90       	pop	r3
    1b4a:	2f 90       	pop	r2
    1b4c:	08 95       	ret
#endif
	/* Search FAT partition on the drive. Supports only generic partitionings, FDISK and SFD. */
	fmt = check_fs(fs, bsect = 0);		/* Check sector 0 if it is a VBR */
	if (fmt == 1) {						/* Not an FAT-VBR, the disk may be partitioned */
		/* Check the partition listed in top of the partition table */
		tbl = &fs->win[MBR_Table + LD2PT(vol) * 16];	/* Partition table */
    1b4e:	2b 85       	ldd	r18, Y+11	; 0x0b
    1b50:	3c 85       	ldd	r19, Y+12	; 0x0c
    1b52:	20 51       	subi	r18, 0x10	; 16
    1b54:	3e 4f       	sbci	r19, 0xFE	; 254
		if (tbl[4]) {									/* Is the partition existing? */
    1b56:	f9 01       	movw	r30, r18
    1b58:	84 81       	ldd	r24, Z+4	; 0x04
    1b5a:	88 23       	and	r24, r24
    1b5c:	f1 f2       	breq	.-68     	; 0x1b1a <chk_mounted+0x5e6>
    1b5e:	98 cd       	rjmp	.-1232   	; 0x1690 <chk_mounted+0x15c>
    1b60:	80 e0       	ldi	r24, 0x00	; 0
    1b62:	1f 82       	std	Y+7, r1	; 0x07
    1b64:	18 86       	std	Y+8, r1	; 0x08
    1b66:	19 86       	std	Y+9, r1	; 0x09
    1b68:	1a 86       	std	Y+10, r1	; 0x0a
			bsect = LD_DWORD(&tbl[8]);					/* Partition offset in LBA */
			fmt = check_fs(fs, bsect);					/* Check the partition */
		}
	}
	if (fmt == 3) return FR_DISK_ERR;
	if (fmt) return FR_NO_FILESYSTEM;					/* No FAT volume is found */
    1b6a:	88 23       	and	r24, r24
    1b6c:	09 f4       	brne	.+2      	; 0x1b70 <chk_mounted+0x63c>
    1b6e:	c8 cd       	rjmp	.-1136   	; 0x1700 <chk_mounted+0x1cc>
    1b70:	d4 cf       	rjmp	.-88     	; 0x1b1a <chk_mounted+0x5e6>

00001b72 <move_window>:
static
FRESULT move_window (
	FATFS *fs,		/* File system object */
	DWORD sector	/* Sector number to make appearance in the fs->win[] */
)					/* Move to zero only writes back dirty window */
{
    1b72:	6f 92       	push	r6
    1b74:	7f 92       	push	r7
    1b76:	8f 92       	push	r8
    1b78:	9f 92       	push	r9
    1b7a:	af 92       	push	r10
    1b7c:	bf 92       	push	r11
    1b7e:	cf 92       	push	r12
    1b80:	df 92       	push	r13
    1b82:	ef 92       	push	r14
    1b84:	ff 92       	push	r15
    1b86:	0f 93       	push	r16
    1b88:	1f 93       	push	r17
    1b8a:	cf 93       	push	r28
    1b8c:	df 93       	push	r29
    1b8e:	ec 01       	movw	r28, r24
    1b90:	4a 01       	movw	r8, r20
    1b92:	5b 01       	movw	r10, r22
	DWORD wsect;


	wsect = fs->winsect;
    1b94:	ce a4       	ldd	r12, Y+46	; 0x2e
    1b96:	df a4       	ldd	r13, Y+47	; 0x2f
    1b98:	e8 a8       	ldd	r14, Y+48	; 0x30
    1b9a:	f9 a8       	ldd	r15, Y+49	; 0x31
	if (wsect != sector) {	/* Changed current window */
    1b9c:	c4 16       	cp	r12, r20
    1b9e:	d5 06       	cpc	r13, r21
    1ba0:	e6 06       	cpc	r14, r22
    1ba2:	f7 06       	cpc	r15, r23
    1ba4:	09 f4       	brne	.+2      	; 0x1ba8 <move_window+0x36>
    1ba6:	4e c0       	rjmp	.+156    	; 0x1c44 <move_window+0xd2>
#if !_FS_READONLY
		if (fs->wflag) {	/* Write back dirty window if needed */
    1ba8:	8c 81       	ldd	r24, Y+4	; 0x04
    1baa:	88 23       	and	r24, r24
    1bac:	a1 f1       	breq	.+104    	; 0x1c16 <move_window+0xa4>
			if (disk_write(fs->drv, fs->win, wsect, 1) != RES_OK)
    1bae:	82 e3       	ldi	r24, 0x32	; 50
    1bb0:	68 2e       	mov	r6, r24
    1bb2:	71 2c       	mov	r7, r1
    1bb4:	6c 0e       	add	r6, r28
    1bb6:	7d 1e       	adc	r7, r29
    1bb8:	89 81       	ldd	r24, Y+1	; 0x01
    1bba:	b3 01       	movw	r22, r6
    1bbc:	a7 01       	movw	r20, r14
    1bbe:	96 01       	movw	r18, r12
    1bc0:	01 e0       	ldi	r16, 0x01	; 1
    1bc2:	0e 94 36 2a 	call	0x546c	; 0x546c <disk_write>
    1bc6:	88 23       	and	r24, r24
    1bc8:	d9 f5       	brne	.+118    	; 0x1c40 <move_window+0xce>
				return FR_DISK_ERR;
			fs->wflag = 0;
    1bca:	1c 82       	std	Y+4, r1	; 0x04
			if (wsect < (fs->fatbase + fs->fsize)) {	/* In FAT area */
    1bcc:	8e 8d       	ldd	r24, Y+30	; 0x1e
    1bce:	9f 8d       	ldd	r25, Y+31	; 0x1f
    1bd0:	a8 a1       	ldd	r26, Y+32	; 0x20
    1bd2:	b9 a1       	ldd	r27, Y+33	; 0x21
    1bd4:	2a a1       	ldd	r18, Y+34	; 0x22
    1bd6:	3b a1       	ldd	r19, Y+35	; 0x23
    1bd8:	4c a1       	ldd	r20, Y+36	; 0x24
    1bda:	5d a1       	ldd	r21, Y+37	; 0x25
    1bdc:	82 0f       	add	r24, r18
    1bde:	93 1f       	adc	r25, r19
    1be0:	a4 1f       	adc	r26, r20
    1be2:	b5 1f       	adc	r27, r21
    1be4:	c8 16       	cp	r12, r24
    1be6:	d9 06       	cpc	r13, r25
    1be8:	ea 06       	cpc	r14, r26
    1bea:	fb 06       	cpc	r15, r27
    1bec:	a0 f4       	brcc	.+40     	; 0x1c16 <move_window+0xa4>
				BYTE nf;
				for (nf = fs->n_fats; nf > 1; nf--) {	/* Reflect the change to all FAT copies */
    1bee:	1b 81       	ldd	r17, Y+3	; 0x03
    1bf0:	10 c0       	rjmp	.+32     	; 0x1c12 <move_window+0xa0>
					wsect += fs->fsize;
    1bf2:	8e 8d       	ldd	r24, Y+30	; 0x1e
    1bf4:	9f 8d       	ldd	r25, Y+31	; 0x1f
    1bf6:	a8 a1       	ldd	r26, Y+32	; 0x20
    1bf8:	b9 a1       	ldd	r27, Y+33	; 0x21
    1bfa:	c8 0e       	add	r12, r24
    1bfc:	d9 1e       	adc	r13, r25
    1bfe:	ea 1e       	adc	r14, r26
    1c00:	fb 1e       	adc	r15, r27
					disk_write(fs->drv, fs->win, wsect, 1);
    1c02:	89 81       	ldd	r24, Y+1	; 0x01
    1c04:	b3 01       	movw	r22, r6
    1c06:	a7 01       	movw	r20, r14
    1c08:	96 01       	movw	r18, r12
    1c0a:	01 e0       	ldi	r16, 0x01	; 1
    1c0c:	0e 94 36 2a 	call	0x546c	; 0x546c <disk_write>
			if (disk_write(fs->drv, fs->win, wsect, 1) != RES_OK)
				return FR_DISK_ERR;
			fs->wflag = 0;
			if (wsect < (fs->fatbase + fs->fsize)) {	/* In FAT area */
				BYTE nf;
				for (nf = fs->n_fats; nf > 1; nf--) {	/* Reflect the change to all FAT copies */
    1c10:	11 50       	subi	r17, 0x01	; 1
    1c12:	12 30       	cpi	r17, 0x02	; 2
    1c14:	70 f7       	brcc	.-36     	; 0x1bf2 <move_window+0x80>
					disk_write(fs->drv, fs->win, wsect, 1);
				}
			}
		}
#endif
		if (sector) {
    1c16:	81 14       	cp	r8, r1
    1c18:	91 04       	cpc	r9, r1
    1c1a:	a1 04       	cpc	r10, r1
    1c1c:	b1 04       	cpc	r11, r1
    1c1e:	91 f0       	breq	.+36     	; 0x1c44 <move_window+0xd2>
			if (disk_read(fs->drv, fs->win, sector, 1) != RES_OK)
    1c20:	be 01       	movw	r22, r28
    1c22:	6e 5c       	subi	r22, 0xCE	; 206
    1c24:	7f 4f       	sbci	r23, 0xFF	; 255
    1c26:	89 81       	ldd	r24, Y+1	; 0x01
    1c28:	a5 01       	movw	r20, r10
    1c2a:	94 01       	movw	r18, r8
    1c2c:	01 e0       	ldi	r16, 0x01	; 1
    1c2e:	0e 94 de 29 	call	0x53bc	; 0x53bc <disk_read>
    1c32:	88 23       	and	r24, r24
    1c34:	29 f4       	brne	.+10     	; 0x1c40 <move_window+0xce>
				return FR_DISK_ERR;
			fs->winsect = sector;
    1c36:	8e a6       	std	Y+46, r8	; 0x2e
    1c38:	9f a6       	std	Y+47, r9	; 0x2f
    1c3a:	a8 aa       	std	Y+48, r10	; 0x30
    1c3c:	b9 aa       	std	Y+49, r11	; 0x31
    1c3e:	03 c0       	rjmp	.+6      	; 0x1c46 <move_window+0xd4>
    1c40:	81 e0       	ldi	r24, 0x01	; 1
    1c42:	01 c0       	rjmp	.+2      	; 0x1c46 <move_window+0xd4>
    1c44:	80 e0       	ldi	r24, 0x00	; 0
		}
	}

	return FR_OK;
}
    1c46:	df 91       	pop	r29
    1c48:	cf 91       	pop	r28
    1c4a:	1f 91       	pop	r17
    1c4c:	0f 91       	pop	r16
    1c4e:	ff 90       	pop	r15
    1c50:	ef 90       	pop	r14
    1c52:	df 90       	pop	r13
    1c54:	cf 90       	pop	r12
    1c56:	bf 90       	pop	r11
    1c58:	af 90       	pop	r10
    1c5a:	9f 90       	pop	r9
    1c5c:	8f 90       	pop	r8
    1c5e:	7f 90       	pop	r7
    1c60:	6f 90       	pop	r6
    1c62:	08 95       	ret

00001c64 <put_fat>:
FRESULT put_fat (
	FATFS *fs,	/* File system object */
	DWORD clst,	/* Cluster# to be changed in range of 2 to fs->n_fatent - 1 */
	DWORD val	/* New value to mark the cluster */
)
{
    1c64:	8f 92       	push	r8
    1c66:	9f 92       	push	r9
    1c68:	af 92       	push	r10
    1c6a:	bf 92       	push	r11
    1c6c:	cf 92       	push	r12
    1c6e:	df 92       	push	r13
    1c70:	ef 92       	push	r14
    1c72:	ff 92       	push	r15
    1c74:	0f 93       	push	r16
    1c76:	1f 93       	push	r17
    1c78:	cf 93       	push	r28
    1c7a:	df 93       	push	r29
    1c7c:	ec 01       	movw	r28, r24
    1c7e:	6a 01       	movw	r12, r20
    1c80:	7b 01       	movw	r14, r22
    1c82:	48 01       	movw	r8, r16
    1c84:	59 01       	movw	r10, r18
	UINT bc;
	BYTE *p;
	FRESULT res;


	if (clst < 2 || clst >= fs->n_fatent) {	/* Check range */
    1c86:	42 30       	cpi	r20, 0x02	; 2
    1c88:	51 05       	cpc	r21, r1
    1c8a:	61 05       	cpc	r22, r1
    1c8c:	71 05       	cpc	r23, r1
    1c8e:	08 f4       	brcc	.+2      	; 0x1c92 <put_fat+0x2e>
    1c90:	d1 c0       	rjmp	.+418    	; 0x1e34 <put_fat+0x1d0>
    1c92:	8a 8d       	ldd	r24, Y+26	; 0x1a
    1c94:	9b 8d       	ldd	r25, Y+27	; 0x1b
    1c96:	ac 8d       	ldd	r26, Y+28	; 0x1c
    1c98:	bd 8d       	ldd	r27, Y+29	; 0x1d
    1c9a:	48 17       	cp	r20, r24
    1c9c:	59 07       	cpc	r21, r25
    1c9e:	6a 07       	cpc	r22, r26
    1ca0:	7b 07       	cpc	r23, r27
    1ca2:	08 f0       	brcs	.+2      	; 0x1ca6 <put_fat+0x42>
    1ca4:	c7 c0       	rjmp	.+398    	; 0x1e34 <put_fat+0x1d0>
		res = FR_INT_ERR;

	} else {
		switch (fs->fs_type) {
    1ca6:	88 81       	ld	r24, Y
    1ca8:	82 30       	cpi	r24, 0x02	; 2
    1caa:	09 f4       	brne	.+2      	; 0x1cae <put_fat+0x4a>
    1cac:	70 c0       	rjmp	.+224    	; 0x1d8e <put_fat+0x12a>
    1cae:	83 30       	cpi	r24, 0x03	; 3
    1cb0:	09 f4       	brne	.+2      	; 0x1cb4 <put_fat+0x50>
    1cb2:	8c c0       	rjmp	.+280    	; 0x1dcc <put_fat+0x168>
    1cb4:	81 30       	cpi	r24, 0x01	; 1
    1cb6:	11 f0       	breq	.+4      	; 0x1cbc <put_fat+0x58>
    1cb8:	22 e0       	ldi	r18, 0x02	; 2
    1cba:	b9 c0       	rjmp	.+370    	; 0x1e2e <put_fat+0x1ca>
		case FS_FAT12 :
			bc = clst; bc += bc / 2;
    1cbc:	8a 01       	movw	r16, r20
    1cbe:	16 95       	lsr	r17
    1cc0:	07 95       	ror	r16
    1cc2:	04 0f       	add	r16, r20
    1cc4:	15 1f       	adc	r17, r21
			res = move_window(fs, fs->fatbase + (bc / SS(fs)));
    1cc6:	a8 01       	movw	r20, r16
    1cc8:	45 2f       	mov	r20, r21
    1cca:	55 27       	eor	r21, r21
    1ccc:	46 95       	lsr	r20
    1cce:	60 e0       	ldi	r22, 0x00	; 0
    1cd0:	70 e0       	ldi	r23, 0x00	; 0
    1cd2:	8a a1       	ldd	r24, Y+34	; 0x22
    1cd4:	9b a1       	ldd	r25, Y+35	; 0x23
    1cd6:	ac a1       	ldd	r26, Y+36	; 0x24
    1cd8:	bd a1       	ldd	r27, Y+37	; 0x25
    1cda:	48 0f       	add	r20, r24
    1cdc:	59 1f       	adc	r21, r25
    1cde:	6a 1f       	adc	r22, r26
    1ce0:	7b 1f       	adc	r23, r27
    1ce2:	ce 01       	movw	r24, r28
    1ce4:	0e 94 b9 0d 	call	0x1b72	; 0x1b72 <move_window>
    1ce8:	28 2f       	mov	r18, r24
			if (res != FR_OK) break;
    1cea:	88 23       	and	r24, r24
    1cec:	09 f0       	breq	.+2      	; 0x1cf0 <put_fat+0x8c>
    1cee:	9f c0       	rjmp	.+318    	; 0x1e2e <put_fat+0x1ca>
			p = &fs->win[bc % SS(fs)];
    1cf0:	d8 01       	movw	r26, r16
    1cf2:	b1 70       	andi	r27, 0x01	; 1
			*p = (clst & 1) ? ((*p & 0x0F) | ((BYTE)val << 4)) : (BYTE)val;
    1cf4:	81 e0       	ldi	r24, 0x01	; 1
    1cf6:	e8 2e       	mov	r14, r24
    1cf8:	f1 2c       	mov	r15, r1
    1cfa:	ec 20       	and	r14, r12
    1cfc:	fd 20       	and	r15, r13
    1cfe:	e1 14       	cp	r14, r1
    1d00:	f1 04       	cpc	r15, r1
    1d02:	51 f0       	breq	.+20     	; 0x1d18 <put_fat+0xb4>
    1d04:	fe 01       	movw	r30, r28
    1d06:	ea 0f       	add	r30, r26
    1d08:	fb 1f       	adc	r31, r27
    1d0a:	82 a9       	ldd	r24, Z+50	; 0x32
    1d0c:	8f 70       	andi	r24, 0x0F	; 15
    1d0e:	98 2d       	mov	r25, r8
    1d10:	92 95       	swap	r25
    1d12:	90 7f       	andi	r25, 0xF0	; 240
    1d14:	98 2b       	or	r25, r24
    1d16:	01 c0       	rjmp	.+2      	; 0x1d1a <put_fat+0xb6>
    1d18:	98 2d       	mov	r25, r8
    1d1a:	ac 0f       	add	r26, r28
    1d1c:	bd 1f       	adc	r27, r29
    1d1e:	d2 96       	adiw	r26, 0x32	; 50
    1d20:	9c 93       	st	X, r25
			bc++;
    1d22:	0f 5f       	subi	r16, 0xFF	; 255
    1d24:	1f 4f       	sbci	r17, 0xFF	; 255
			fs->wflag = 1;
    1d26:	81 e0       	ldi	r24, 0x01	; 1
    1d28:	8c 83       	std	Y+4, r24	; 0x04
			res = move_window(fs, fs->fatbase + (bc / SS(fs)));
    1d2a:	a8 01       	movw	r20, r16
    1d2c:	45 2f       	mov	r20, r21
    1d2e:	55 27       	eor	r21, r21
    1d30:	46 95       	lsr	r20
    1d32:	60 e0       	ldi	r22, 0x00	; 0
    1d34:	70 e0       	ldi	r23, 0x00	; 0
    1d36:	8a a1       	ldd	r24, Y+34	; 0x22
    1d38:	9b a1       	ldd	r25, Y+35	; 0x23
    1d3a:	ac a1       	ldd	r26, Y+36	; 0x24
    1d3c:	bd a1       	ldd	r27, Y+37	; 0x25
    1d3e:	48 0f       	add	r20, r24
    1d40:	59 1f       	adc	r21, r25
    1d42:	6a 1f       	adc	r22, r26
    1d44:	7b 1f       	adc	r23, r27
    1d46:	ce 01       	movw	r24, r28
    1d48:	0e 94 b9 0d 	call	0x1b72	; 0x1b72 <move_window>
    1d4c:	28 2f       	mov	r18, r24
			if (res != FR_OK) break;
    1d4e:	88 23       	and	r24, r24
    1d50:	09 f0       	breq	.+2      	; 0x1d54 <put_fat+0xf0>
    1d52:	6d c0       	rjmp	.+218    	; 0x1e2e <put_fat+0x1ca>
			p = &fs->win[bc % SS(fs)];
    1d54:	a8 01       	movw	r20, r16
    1d56:	51 70       	andi	r21, 0x01	; 1
			*p = (clst & 1) ? (BYTE)(val >> 4) : ((*p & 0xF0) | ((BYTE)(val >> 8) & 0x0F));
    1d58:	ef 28       	or	r14, r15
    1d5a:	49 f0       	breq	.+18     	; 0x1d6e <put_fat+0x10a>
    1d5c:	e4 e0       	ldi	r30, 0x04	; 4
    1d5e:	b6 94       	lsr	r11
    1d60:	a7 94       	ror	r10
    1d62:	97 94       	ror	r9
    1d64:	87 94       	ror	r8
    1d66:	ea 95       	dec	r30
    1d68:	d1 f7       	brne	.-12     	; 0x1d5e <put_fat+0xfa>
    1d6a:	68 2d       	mov	r22, r8
    1d6c:	0b c0       	rjmp	.+22     	; 0x1d84 <put_fat+0x120>
    1d6e:	fe 01       	movw	r30, r28
    1d70:	e4 0f       	add	r30, r20
    1d72:	f5 1f       	adc	r31, r21
    1d74:	62 a9       	ldd	r22, Z+50	; 0x32
    1d76:	60 7f       	andi	r22, 0xF0	; 240
    1d78:	bb 27       	eor	r27, r27
    1d7a:	ab 2d       	mov	r26, r11
    1d7c:	9a 2d       	mov	r25, r10
    1d7e:	89 2d       	mov	r24, r9
    1d80:	8f 70       	andi	r24, 0x0F	; 15
    1d82:	68 2b       	or	r22, r24
    1d84:	4c 0f       	add	r20, r28
    1d86:	5d 1f       	adc	r21, r29
    1d88:	fa 01       	movw	r30, r20
    1d8a:	62 ab       	std	Z+50, r22	; 0x32
    1d8c:	50 c0       	rjmp	.+160    	; 0x1e2e <put_fat+0x1ca>
			break;

		case FS_FAT16 :
			res = move_window(fs, fs->fatbase + (clst / (SS(fs) / 2)));
    1d8e:	77 27       	eor	r23, r23
    1d90:	6f 2d       	mov	r22, r15
    1d92:	5e 2d       	mov	r21, r14
    1d94:	4d 2d       	mov	r20, r13
    1d96:	8a a1       	ldd	r24, Y+34	; 0x22
    1d98:	9b a1       	ldd	r25, Y+35	; 0x23
    1d9a:	ac a1       	ldd	r26, Y+36	; 0x24
    1d9c:	bd a1       	ldd	r27, Y+37	; 0x25
    1d9e:	48 0f       	add	r20, r24
    1da0:	59 1f       	adc	r21, r25
    1da2:	6a 1f       	adc	r22, r26
    1da4:	7b 1f       	adc	r23, r27
    1da6:	ce 01       	movw	r24, r28
    1da8:	0e 94 b9 0d 	call	0x1b72	; 0x1b72 <move_window>
    1dac:	28 2f       	mov	r18, r24
			if (res != FR_OK) break;
    1dae:	88 23       	and	r24, r24
    1db0:	09 f0       	breq	.+2      	; 0x1db4 <put_fat+0x150>
    1db2:	3d c0       	rjmp	.+122    	; 0x1e2e <put_fat+0x1ca>
			p = &fs->win[clst * 2 % SS(fs)];
			ST_WORD(p, (WORD)val);
    1db4:	cc 0c       	add	r12, r12
    1db6:	dd 1c       	adc	r13, r13
    1db8:	ee 1c       	adc	r14, r14
    1dba:	ff 1c       	adc	r15, r15
    1dbc:	f6 01       	movw	r30, r12
    1dbe:	f1 70       	andi	r31, 0x01	; 1
    1dc0:	f2 96       	adiw	r30, 0x32	; 50
    1dc2:	ec 0f       	add	r30, r28
    1dc4:	fd 1f       	adc	r31, r29
    1dc6:	91 82       	std	Z+1, r9	; 0x01
    1dc8:	80 82       	st	Z, r8
    1dca:	31 c0       	rjmp	.+98     	; 0x1e2e <put_fat+0x1ca>
			break;

		case FS_FAT32 :
			res = move_window(fs, fs->fatbase + (clst / (SS(fs) / 4)));
    1dcc:	27 e0       	ldi	r18, 0x07	; 7
    1dce:	76 95       	lsr	r23
    1dd0:	67 95       	ror	r22
    1dd2:	57 95       	ror	r21
    1dd4:	47 95       	ror	r20
    1dd6:	2a 95       	dec	r18
    1dd8:	d1 f7       	brne	.-12     	; 0x1dce <put_fat+0x16a>
    1dda:	8a a1       	ldd	r24, Y+34	; 0x22
    1ddc:	9b a1       	ldd	r25, Y+35	; 0x23
    1dde:	ac a1       	ldd	r26, Y+36	; 0x24
    1de0:	bd a1       	ldd	r27, Y+37	; 0x25
    1de2:	48 0f       	add	r20, r24
    1de4:	59 1f       	adc	r21, r25
    1de6:	6a 1f       	adc	r22, r26
    1de8:	7b 1f       	adc	r23, r27
    1dea:	ce 01       	movw	r24, r28
    1dec:	0e 94 b9 0d 	call	0x1b72	; 0x1b72 <move_window>
    1df0:	28 2f       	mov	r18, r24
			if (res != FR_OK) break;
    1df2:	88 23       	and	r24, r24
    1df4:	e1 f4       	brne	.+56     	; 0x1e2e <put_fat+0x1ca>
			p = &fs->win[clst * 4 % SS(fs)];
			val |= LD_DWORD(p) & 0xF0000000;
    1df6:	92 e0       	ldi	r25, 0x02	; 2
    1df8:	cc 0c       	add	r12, r12
    1dfa:	dd 1c       	adc	r13, r13
    1dfc:	ee 1c       	adc	r14, r14
    1dfe:	ff 1c       	adc	r15, r15
    1e00:	9a 95       	dec	r25
    1e02:	d1 f7       	brne	.-12     	; 0x1df8 <put_fat+0x194>
    1e04:	f6 01       	movw	r30, r12
    1e06:	f1 70       	andi	r31, 0x01	; 1
    1e08:	f2 96       	adiw	r30, 0x32	; 50
    1e0a:	ec 0f       	add	r30, r28
    1e0c:	fd 1f       	adc	r31, r29
			ST_DWORD(p, val);
    1e0e:	80 81       	ld	r24, Z
    1e10:	91 81       	ldd	r25, Z+1	; 0x01
    1e12:	a2 81       	ldd	r26, Z+2	; 0x02
    1e14:	b3 81       	ldd	r27, Z+3	; 0x03
    1e16:	80 70       	andi	r24, 0x00	; 0
    1e18:	90 70       	andi	r25, 0x00	; 0
    1e1a:	a0 70       	andi	r26, 0x00	; 0
    1e1c:	b0 7f       	andi	r27, 0xF0	; 240
    1e1e:	88 29       	or	r24, r8
    1e20:	99 29       	or	r25, r9
    1e22:	aa 29       	or	r26, r10
    1e24:	bb 29       	or	r27, r11
    1e26:	80 83       	st	Z, r24
    1e28:	91 83       	std	Z+1, r25	; 0x01
    1e2a:	a2 83       	std	Z+2, r26	; 0x02
    1e2c:	b3 83       	std	Z+3, r27	; 0x03
			break;

		default :
			res = FR_INT_ERR;
		}
		fs->wflag = 1;
    1e2e:	81 e0       	ldi	r24, 0x01	; 1
    1e30:	8c 83       	std	Y+4, r24	; 0x04
    1e32:	01 c0       	rjmp	.+2      	; 0x1e36 <put_fat+0x1d2>
    1e34:	22 e0       	ldi	r18, 0x02	; 2
	}

	return res;
}
    1e36:	82 2f       	mov	r24, r18
    1e38:	df 91       	pop	r29
    1e3a:	cf 91       	pop	r28
    1e3c:	1f 91       	pop	r17
    1e3e:	0f 91       	pop	r16
    1e40:	ff 90       	pop	r15
    1e42:	ef 90       	pop	r14
    1e44:	df 90       	pop	r13
    1e46:	cf 90       	pop	r12
    1e48:	bf 90       	pop	r11
    1e4a:	af 90       	pop	r10
    1e4c:	9f 90       	pop	r9
    1e4e:	8f 90       	pop	r8
    1e50:	08 95       	ret

00001e52 <get_fat>:

DWORD get_fat (	/* 0xFFFFFFFF:Disk error, 1:Internal error, Else:Cluster status */
	FATFS *fs,	/* File system object */
	DWORD clst	/* Cluster# to get the link information */
)
{
    1e52:	bf 92       	push	r11
    1e54:	cf 92       	push	r12
    1e56:	df 92       	push	r13
    1e58:	ef 92       	push	r14
    1e5a:	ff 92       	push	r15
    1e5c:	0f 93       	push	r16
    1e5e:	1f 93       	push	r17
    1e60:	cf 93       	push	r28
    1e62:	df 93       	push	r29
    1e64:	6c 01       	movw	r12, r24
    1e66:	7a 01       	movw	r14, r20
    1e68:	8b 01       	movw	r16, r22
	UINT wc, bc;
	BYTE *p;


	if (clst < 2 || clst >= fs->n_fatent)	/* Chack range */
    1e6a:	42 30       	cpi	r20, 0x02	; 2
    1e6c:	51 05       	cpc	r21, r1
    1e6e:	61 05       	cpc	r22, r1
    1e70:	71 05       	cpc	r23, r1
    1e72:	08 f4       	brcc	.+2      	; 0x1e76 <get_fat+0x24>
    1e74:	ac c0       	rjmp	.+344    	; 0x1fce <get_fat+0x17c>
    1e76:	f6 01       	movw	r30, r12
    1e78:	82 8d       	ldd	r24, Z+26	; 0x1a
    1e7a:	93 8d       	ldd	r25, Z+27	; 0x1b
    1e7c:	a4 8d       	ldd	r26, Z+28	; 0x1c
    1e7e:	b5 8d       	ldd	r27, Z+29	; 0x1d
    1e80:	48 17       	cp	r20, r24
    1e82:	59 07       	cpc	r21, r25
    1e84:	6a 07       	cpc	r22, r26
    1e86:	7b 07       	cpc	r23, r27
    1e88:	08 f0       	brcs	.+2      	; 0x1e8c <get_fat+0x3a>
    1e8a:	a1 c0       	rjmp	.+322    	; 0x1fce <get_fat+0x17c>
		return 1;

	switch (fs->fs_type) {
    1e8c:	80 81       	ld	r24, Z
    1e8e:	82 30       	cpi	r24, 0x02	; 2
    1e90:	09 f4       	brne	.+2      	; 0x1e94 <get_fat+0x42>
    1e92:	57 c0       	rjmp	.+174    	; 0x1f42 <get_fat+0xf0>
    1e94:	83 30       	cpi	r24, 0x03	; 3
    1e96:	09 f4       	brne	.+2      	; 0x1e9a <get_fat+0x48>
    1e98:	74 c0       	rjmp	.+232    	; 0x1f82 <get_fat+0x130>
    1e9a:	81 30       	cpi	r24, 0x01	; 1
    1e9c:	09 f0       	breq	.+2      	; 0x1ea0 <get_fat+0x4e>
    1e9e:	9c c0       	rjmp	.+312    	; 0x1fd8 <get_fat+0x186>
	case FS_FAT12 :
		bc = (UINT)clst; bc += bc / 2;
    1ea0:	ea 01       	movw	r28, r20
    1ea2:	d6 95       	lsr	r29
    1ea4:	c7 95       	ror	r28
    1ea6:	c4 0f       	add	r28, r20
    1ea8:	d5 1f       	adc	r29, r21
		if (move_window(fs, fs->fatbase + (bc / SS(fs)))) break;
    1eaa:	ae 01       	movw	r20, r28
    1eac:	45 2f       	mov	r20, r21
    1eae:	55 27       	eor	r21, r21
    1eb0:	46 95       	lsr	r20
    1eb2:	60 e0       	ldi	r22, 0x00	; 0
    1eb4:	70 e0       	ldi	r23, 0x00	; 0
    1eb6:	f6 01       	movw	r30, r12
    1eb8:	82 a1       	ldd	r24, Z+34	; 0x22
    1eba:	93 a1       	ldd	r25, Z+35	; 0x23
    1ebc:	a4 a1       	ldd	r26, Z+36	; 0x24
    1ebe:	b5 a1       	ldd	r27, Z+37	; 0x25
    1ec0:	48 0f       	add	r20, r24
    1ec2:	59 1f       	adc	r21, r25
    1ec4:	6a 1f       	adc	r22, r26
    1ec6:	7b 1f       	adc	r23, r27
    1ec8:	c6 01       	movw	r24, r12
    1eca:	0e 94 b9 0d 	call	0x1b72	; 0x1b72 <move_window>
    1ece:	88 23       	and	r24, r24
    1ed0:	09 f0       	breq	.+2      	; 0x1ed4 <get_fat+0x82>
    1ed2:	82 c0       	rjmp	.+260    	; 0x1fd8 <get_fat+0x186>
		wc = fs->win[bc % SS(fs)]; bc++;
    1ed4:	fe 01       	movw	r30, r28
    1ed6:	f1 70       	andi	r31, 0x01	; 1
    1ed8:	ec 0d       	add	r30, r12
    1eda:	fd 1d       	adc	r31, r13
    1edc:	b2 a8       	ldd	r11, Z+50	; 0x32
    1ede:	21 96       	adiw	r28, 0x01	; 1
		if (move_window(fs, fs->fatbase + (bc / SS(fs)))) break;
    1ee0:	ae 01       	movw	r20, r28
    1ee2:	45 2f       	mov	r20, r21
    1ee4:	55 27       	eor	r21, r21
    1ee6:	46 95       	lsr	r20
    1ee8:	60 e0       	ldi	r22, 0x00	; 0
    1eea:	70 e0       	ldi	r23, 0x00	; 0
    1eec:	f6 01       	movw	r30, r12
    1eee:	82 a1       	ldd	r24, Z+34	; 0x22
    1ef0:	93 a1       	ldd	r25, Z+35	; 0x23
    1ef2:	a4 a1       	ldd	r26, Z+36	; 0x24
    1ef4:	b5 a1       	ldd	r27, Z+37	; 0x25
    1ef6:	48 0f       	add	r20, r24
    1ef8:	59 1f       	adc	r21, r25
    1efa:	6a 1f       	adc	r22, r26
    1efc:	7b 1f       	adc	r23, r27
    1efe:	c6 01       	movw	r24, r12
    1f00:	0e 94 b9 0d 	call	0x1b72	; 0x1b72 <move_window>
    1f04:	88 23       	and	r24, r24
    1f06:	09 f0       	breq	.+2      	; 0x1f0a <get_fat+0xb8>
    1f08:	67 c0       	rjmp	.+206    	; 0x1fd8 <get_fat+0x186>

	switch (fs->fs_type) {
	case FS_FAT12 :
		bc = (UINT)clst; bc += bc / 2;
		if (move_window(fs, fs->fatbase + (bc / SS(fs)))) break;
		wc = fs->win[bc % SS(fs)]; bc++;
    1f0a:	6b 2d       	mov	r22, r11
    1f0c:	70 e0       	ldi	r23, 0x00	; 0
		if (move_window(fs, fs->fatbase + (bc / SS(fs)))) break;
		wc |= fs->win[bc % SS(fs)] << 8;
    1f0e:	d1 70       	andi	r29, 0x01	; 1
    1f10:	cc 0d       	add	r28, r12
    1f12:	dd 1d       	adc	r29, r13
    1f14:	9a a9       	ldd	r25, Y+50	; 0x32
    1f16:	80 e0       	ldi	r24, 0x00	; 0
    1f18:	68 2b       	or	r22, r24
    1f1a:	79 2b       	or	r23, r25
		return (clst & 1) ? (wc >> 4) : (wc & 0xFFF);
    1f1c:	c7 01       	movw	r24, r14
    1f1e:	81 70       	andi	r24, 0x01	; 1
    1f20:	90 70       	andi	r25, 0x00	; 0
    1f22:	89 2b       	or	r24, r25
    1f24:	39 f0       	breq	.+14     	; 0x1f34 <get_fat+0xe2>
    1f26:	b4 e0       	ldi	r27, 0x04	; 4
    1f28:	76 95       	lsr	r23
    1f2a:	67 95       	ror	r22
    1f2c:	ba 95       	dec	r27
    1f2e:	e1 f7       	brne	.-8      	; 0x1f28 <get_fat+0xd6>
    1f30:	9b 01       	movw	r18, r22
    1f32:	24 c0       	rjmp	.+72     	; 0x1f7c <get_fat+0x12a>
    1f34:	9b 01       	movw	r18, r22
    1f36:	40 e0       	ldi	r20, 0x00	; 0
    1f38:	50 e0       	ldi	r21, 0x00	; 0
    1f3a:	3f 70       	andi	r19, 0x0F	; 15
    1f3c:	40 70       	andi	r20, 0x00	; 0
    1f3e:	50 70       	andi	r21, 0x00	; 0
    1f40:	4f c0       	rjmp	.+158    	; 0x1fe0 <get_fat+0x18e>

	case FS_FAT16 :
		if (move_window(fs, fs->fatbase + (clst / (SS(fs) / 2)))) break;
    1f42:	45 2f       	mov	r20, r21
    1f44:	56 2f       	mov	r21, r22
    1f46:	67 2f       	mov	r22, r23
    1f48:	77 27       	eor	r23, r23
    1f4a:	f6 01       	movw	r30, r12
    1f4c:	82 a1       	ldd	r24, Z+34	; 0x22
    1f4e:	93 a1       	ldd	r25, Z+35	; 0x23
    1f50:	a4 a1       	ldd	r26, Z+36	; 0x24
    1f52:	b5 a1       	ldd	r27, Z+37	; 0x25
    1f54:	48 0f       	add	r20, r24
    1f56:	59 1f       	adc	r21, r25
    1f58:	6a 1f       	adc	r22, r26
    1f5a:	7b 1f       	adc	r23, r27
    1f5c:	c6 01       	movw	r24, r12
    1f5e:	0e 94 b9 0d 	call	0x1b72	; 0x1b72 <move_window>
    1f62:	88 23       	and	r24, r24
    1f64:	c9 f5       	brne	.+114    	; 0x1fd8 <get_fat+0x186>
		p = &fs->win[clst * 2 % SS(fs)];
		return LD_WORD(p);
    1f66:	ee 0c       	add	r14, r14
    1f68:	ff 1c       	adc	r15, r15
    1f6a:	00 1f       	adc	r16, r16
    1f6c:	11 1f       	adc	r17, r17
    1f6e:	f7 01       	movw	r30, r14
    1f70:	f1 70       	andi	r31, 0x01	; 1
    1f72:	ec 0d       	add	r30, r12
    1f74:	fd 1d       	adc	r31, r13
    1f76:	82 a9       	ldd	r24, Z+50	; 0x32
    1f78:	93 a9       	ldd	r25, Z+51	; 0x33
    1f7a:	9c 01       	movw	r18, r24
    1f7c:	40 e0       	ldi	r20, 0x00	; 0
    1f7e:	50 e0       	ldi	r21, 0x00	; 0
    1f80:	2f c0       	rjmp	.+94     	; 0x1fe0 <get_fat+0x18e>

	case FS_FAT32 :
		if (move_window(fs, fs->fatbase + (clst / (SS(fs) / 4)))) break;
    1f82:	e7 e0       	ldi	r30, 0x07	; 7
    1f84:	76 95       	lsr	r23
    1f86:	67 95       	ror	r22
    1f88:	57 95       	ror	r21
    1f8a:	47 95       	ror	r20
    1f8c:	ea 95       	dec	r30
    1f8e:	d1 f7       	brne	.-12     	; 0x1f84 <get_fat+0x132>
    1f90:	f6 01       	movw	r30, r12
    1f92:	82 a1       	ldd	r24, Z+34	; 0x22
    1f94:	93 a1       	ldd	r25, Z+35	; 0x23
    1f96:	a4 a1       	ldd	r26, Z+36	; 0x24
    1f98:	b5 a1       	ldd	r27, Z+37	; 0x25
    1f9a:	48 0f       	add	r20, r24
    1f9c:	59 1f       	adc	r21, r25
    1f9e:	6a 1f       	adc	r22, r26
    1fa0:	7b 1f       	adc	r23, r27
    1fa2:	c6 01       	movw	r24, r12
    1fa4:	0e 94 b9 0d 	call	0x1b72	; 0x1b72 <move_window>
    1fa8:	88 23       	and	r24, r24
    1faa:	b1 f4       	brne	.+44     	; 0x1fd8 <get_fat+0x186>
		p = &fs->win[clst * 4 % SS(fs)];
		return LD_DWORD(p) & 0x0FFFFFFF;
    1fac:	32 e0       	ldi	r19, 0x02	; 2
    1fae:	ee 0c       	add	r14, r14
    1fb0:	ff 1c       	adc	r15, r15
    1fb2:	00 1f       	adc	r16, r16
    1fb4:	11 1f       	adc	r17, r17
    1fb6:	3a 95       	dec	r19
    1fb8:	d1 f7       	brne	.-12     	; 0x1fae <get_fat+0x15c>
    1fba:	f7 01       	movw	r30, r14
    1fbc:	f1 70       	andi	r31, 0x01	; 1
    1fbe:	ec 0d       	add	r30, r12
    1fc0:	fd 1d       	adc	r31, r13
    1fc2:	22 a9       	ldd	r18, Z+50	; 0x32
    1fc4:	33 a9       	ldd	r19, Z+51	; 0x33
    1fc6:	44 a9       	ldd	r20, Z+52	; 0x34
    1fc8:	55 a9       	ldd	r21, Z+53	; 0x35
    1fca:	5f 70       	andi	r21, 0x0F	; 15
    1fcc:	09 c0       	rjmp	.+18     	; 0x1fe0 <get_fat+0x18e>
    1fce:	21 e0       	ldi	r18, 0x01	; 1
    1fd0:	30 e0       	ldi	r19, 0x00	; 0
    1fd2:	40 e0       	ldi	r20, 0x00	; 0
    1fd4:	50 e0       	ldi	r21, 0x00	; 0
    1fd6:	04 c0       	rjmp	.+8      	; 0x1fe0 <get_fat+0x18e>
    1fd8:	2f ef       	ldi	r18, 0xFF	; 255
    1fda:	3f ef       	ldi	r19, 0xFF	; 255
    1fdc:	4f ef       	ldi	r20, 0xFF	; 255
    1fde:	5f ef       	ldi	r21, 0xFF	; 255
	}

	return 0xFFFFFFFF;	/* An error occurred at the disk I/O layer */
}
    1fe0:	b9 01       	movw	r22, r18
    1fe2:	ca 01       	movw	r24, r20
    1fe4:	df 91       	pop	r29
    1fe6:	cf 91       	pop	r28
    1fe8:	1f 91       	pop	r17
    1fea:	0f 91       	pop	r16
    1fec:	ff 90       	pop	r15
    1fee:	ef 90       	pop	r14
    1ff0:	df 90       	pop	r13
    1ff2:	cf 90       	pop	r12
    1ff4:	bf 90       	pop	r11
    1ff6:	08 95       	ret

00001ff8 <dir_sdi>:
static
FRESULT dir_sdi (
	DIR *dj,		/* Pointer to directory object */
	WORD idx		/* Directory index number */
)
{
    1ff8:	af 92       	push	r10
    1ffa:	bf 92       	push	r11
    1ffc:	cf 92       	push	r12
    1ffe:	df 92       	push	r13
    2000:	ef 92       	push	r14
    2002:	ff 92       	push	r15
    2004:	0f 93       	push	r16
    2006:	1f 93       	push	r17
    2008:	cf 93       	push	r28
    200a:	df 93       	push	r29
    200c:	5c 01       	movw	r10, r24
    200e:	6b 01       	movw	r12, r22
	DWORD clst;
	WORD ic;


	dj->index = idx;
    2010:	dc 01       	movw	r26, r24
    2012:	15 96       	adiw	r26, 0x05	; 5
    2014:	7c 93       	st	X, r23
    2016:	6e 93       	st	-X, r22
    2018:	14 97       	sbiw	r26, 0x04	; 4
	clst = dj->sclust;
    201a:	16 96       	adiw	r26, 0x06	; 6
    201c:	4d 91       	ld	r20, X+
    201e:	5d 91       	ld	r21, X+
    2020:	6d 91       	ld	r22, X+
    2022:	7c 91       	ld	r23, X
    2024:	19 97       	sbiw	r26, 0x09	; 9
	if (clst == 1 || clst >= dj->fs->n_fatent)	/* Check start cluster range */
    2026:	41 30       	cpi	r20, 0x01	; 1
    2028:	51 05       	cpc	r21, r1
    202a:	61 05       	cpc	r22, r1
    202c:	71 05       	cpc	r23, r1
    202e:	09 f4       	brne	.+2      	; 0x2032 <dir_sdi+0x3a>
    2030:	d3 c0       	rjmp	.+422    	; 0x21d8 <dir_sdi+0x1e0>
    2032:	ed 91       	ld	r30, X+
    2034:	fc 91       	ld	r31, X
    2036:	82 8d       	ldd	r24, Z+26	; 0x1a
    2038:	93 8d       	ldd	r25, Z+27	; 0x1b
    203a:	a4 8d       	ldd	r26, Z+28	; 0x1c
    203c:	b5 8d       	ldd	r27, Z+29	; 0x1d
    203e:	48 17       	cp	r20, r24
    2040:	59 07       	cpc	r21, r25
    2042:	6a 07       	cpc	r22, r26
    2044:	7b 07       	cpc	r23, r27
    2046:	08 f0       	brcs	.+2      	; 0x204a <dir_sdi+0x52>
    2048:	c7 c0       	rjmp	.+398    	; 0x21d8 <dir_sdi+0x1e0>
		return FR_INT_ERR;
	if (!clst && dj->fs->fs_type == FS_FAT32)	/* Replace cluster# 0 with root cluster# if in FAT32 */
    204a:	41 15       	cp	r20, r1
    204c:	51 05       	cpc	r21, r1
    204e:	61 05       	cpc	r22, r1
    2050:	71 05       	cpc	r23, r1
    2052:	81 f5       	brne	.+96     	; 0x20b4 <dir_sdi+0xbc>
    2054:	80 81       	ld	r24, Z
    2056:	83 30       	cpi	r24, 0x03	; 3
    2058:	49 f4       	brne	.+18     	; 0x206c <dir_sdi+0x74>
		clst = dj->fs->dirbase;
    205a:	46 a1       	ldd	r20, Z+38	; 0x26
    205c:	57 a1       	ldd	r21, Z+39	; 0x27
    205e:	60 a5       	ldd	r22, Z+40	; 0x28
    2060:	71 a5       	ldd	r23, Z+41	; 0x29

	if (clst == 0) {	/* Static table (root-dir in FAT12/16) */
    2062:	41 15       	cp	r20, r1
    2064:	51 05       	cpc	r21, r1
    2066:	61 05       	cpc	r22, r1
    2068:	71 05       	cpc	r23, r1
    206a:	21 f5       	brne	.+72     	; 0x20b4 <dir_sdi+0xbc>
		dj->clust = clst;
    206c:	f5 01       	movw	r30, r10
    206e:	12 86       	std	Z+10, r1	; 0x0a
    2070:	13 86       	std	Z+11, r1	; 0x0b
    2072:	14 86       	std	Z+12, r1	; 0x0c
    2074:	15 86       	std	Z+13, r1	; 0x0d
		if (idx >= dj->fs->n_rootdir)		/* Index is out of range */
    2076:	01 90       	ld	r0, Z+
    2078:	f0 81       	ld	r31, Z
    207a:	e0 2d       	mov	r30, r0
    207c:	80 85       	ldd	r24, Z+8	; 0x08
    207e:	91 85       	ldd	r25, Z+9	; 0x09
    2080:	c8 16       	cp	r12, r24
    2082:	d9 06       	cpc	r13, r25
    2084:	08 f0       	brcs	.+2      	; 0x2088 <dir_sdi+0x90>
    2086:	a8 c0       	rjmp	.+336    	; 0x21d8 <dir_sdi+0x1e0>
			return FR_INT_ERR;
		dj->sect = dj->fs->dirbase + idx / (SS(dj->fs) / 32);	/* Sector# */
    2088:	c6 01       	movw	r24, r12
    208a:	a4 e0       	ldi	r26, 0x04	; 4
    208c:	96 95       	lsr	r25
    208e:	87 95       	ror	r24
    2090:	aa 95       	dec	r26
    2092:	e1 f7       	brne	.-8      	; 0x208c <dir_sdi+0x94>
    2094:	a0 e0       	ldi	r26, 0x00	; 0
    2096:	b0 e0       	ldi	r27, 0x00	; 0
    2098:	26 a1       	ldd	r18, Z+38	; 0x26
    209a:	37 a1       	ldd	r19, Z+39	; 0x27
    209c:	40 a5       	ldd	r20, Z+40	; 0x28
    209e:	51 a5       	ldd	r21, Z+41	; 0x29
    20a0:	82 0f       	add	r24, r18
    20a2:	93 1f       	adc	r25, r19
    20a4:	a4 1f       	adc	r26, r20
    20a6:	b5 1f       	adc	r27, r21
    20a8:	f5 01       	movw	r30, r10
    20aa:	86 87       	std	Z+14, r24	; 0x0e
    20ac:	97 87       	std	Z+15, r25	; 0x0f
    20ae:	a0 8b       	std	Z+16, r26	; 0x10
    20b0:	b1 8b       	std	Z+17, r27	; 0x11
    20b2:	7a c0       	rjmp	.+244    	; 0x21a8 <dir_sdi+0x1b0>
	}
	else {				/* Dynamic table (sub-dirs or root-dir in FAT32) */
		ic = SS(dj->fs) / 32 * dj->fs->csize;	/* Entries per cluster */
    20b4:	82 81       	ldd	r24, Z+2	; 0x02
    20b6:	08 2f       	mov	r16, r24
    20b8:	10 e0       	ldi	r17, 0x00	; 0
    20ba:	f4 e0       	ldi	r31, 0x04	; 4
    20bc:	00 0f       	add	r16, r16
    20be:	11 1f       	adc	r17, r17
    20c0:	fa 95       	dec	r31
    20c2:	e1 f7       	brne	.-8      	; 0x20bc <dir_sdi+0xc4>
    20c4:	24 c0       	rjmp	.+72     	; 0x210e <dir_sdi+0x116>
		while (idx >= ic) {	/* Follow cluster chain */
			clst = get_fat(dj->fs, clst);				/* Get next cluster */
    20c6:	ce 01       	movw	r24, r28
    20c8:	0e 94 29 0f 	call	0x1e52	; 0x1e52 <get_fat>
    20cc:	ab 01       	movw	r20, r22
    20ce:	bc 01       	movw	r22, r24
			if (clst == 0xFFFFFFFF) return FR_DISK_ERR;	/* Disk error */
    20d0:	4f 3f       	cpi	r20, 0xFF	; 255
    20d2:	ff ef       	ldi	r31, 0xFF	; 255
    20d4:	5f 07       	cpc	r21, r31
    20d6:	ff ef       	ldi	r31, 0xFF	; 255
    20d8:	6f 07       	cpc	r22, r31
    20da:	ff ef       	ldi	r31, 0xFF	; 255
    20dc:	7f 07       	cpc	r23, r31
    20de:	11 f4       	brne	.+4      	; 0x20e4 <dir_sdi+0xec>
    20e0:	81 e0       	ldi	r24, 0x01	; 1
    20e2:	7b c0       	rjmp	.+246    	; 0x21da <dir_sdi+0x1e2>
			if (clst < 2 || clst >= dj->fs->n_fatent)	/* Reached to end of table or int error */
    20e4:	42 30       	cpi	r20, 0x02	; 2
    20e6:	51 05       	cpc	r21, r1
    20e8:	61 05       	cpc	r22, r1
    20ea:	71 05       	cpc	r23, r1
    20ec:	08 f4       	brcc	.+2      	; 0x20f0 <dir_sdi+0xf8>
    20ee:	74 c0       	rjmp	.+232    	; 0x21d8 <dir_sdi+0x1e0>
    20f0:	d5 01       	movw	r26, r10
    20f2:	ed 91       	ld	r30, X+
    20f4:	fc 91       	ld	r31, X
    20f6:	82 8d       	ldd	r24, Z+26	; 0x1a
    20f8:	93 8d       	ldd	r25, Z+27	; 0x1b
    20fa:	a4 8d       	ldd	r26, Z+28	; 0x1c
    20fc:	b5 8d       	ldd	r27, Z+29	; 0x1d
    20fe:	48 17       	cp	r20, r24
    2100:	59 07       	cpc	r21, r25
    2102:	6a 07       	cpc	r22, r26
    2104:	7b 07       	cpc	r23, r27
    2106:	08 f0       	brcs	.+2      	; 0x210a <dir_sdi+0x112>
    2108:	67 c0       	rjmp	.+206    	; 0x21d8 <dir_sdi+0x1e0>
				return FR_INT_ERR;
			idx -= ic;
    210a:	c0 1a       	sub	r12, r16
    210c:	d1 0a       	sbc	r13, r17
    210e:	f5 01       	movw	r30, r10
    2110:	c0 81       	ld	r28, Z
    2112:	d1 81       	ldd	r29, Z+1	; 0x01
			return FR_INT_ERR;
		dj->sect = dj->fs->dirbase + idx / (SS(dj->fs) / 32);	/* Sector# */
	}
	else {				/* Dynamic table (sub-dirs or root-dir in FAT32) */
		ic = SS(dj->fs) / 32 * dj->fs->csize;	/* Entries per cluster */
		while (idx >= ic) {	/* Follow cluster chain */
    2114:	c0 16       	cp	r12, r16
    2116:	d1 06       	cpc	r13, r17
    2118:	b0 f6       	brcc	.-84     	; 0x20c6 <dir_sdi+0xce>
			if (clst == 0xFFFFFFFF) return FR_DISK_ERR;	/* Disk error */
			if (clst < 2 || clst >= dj->fs->n_fatent)	/* Reached to end of table or int error */
				return FR_INT_ERR;
			idx -= ic;
		}
		dj->clust = clst;
    211a:	d5 01       	movw	r26, r10
    211c:	1a 96       	adiw	r26, 0x0a	; 10
    211e:	4d 93       	st	X+, r20
    2120:	5d 93       	st	X+, r21
    2122:	6d 93       	st	X+, r22
    2124:	7c 93       	st	X, r23
    2126:	1d 97       	sbiw	r26, 0x0d	; 13
DWORD clust2sect (	/* !=0: Sector number, 0: Failed - invalid cluster# */
	FATFS *fs,		/* File system object */
	DWORD clst		/* Cluster# to be converted */
)
{
	clst -= 2;
    2128:	ee ef       	ldi	r30, 0xFE	; 254
    212a:	ee 2e       	mov	r14, r30
    212c:	ef ef       	ldi	r30, 0xFF	; 255
    212e:	fe 2e       	mov	r15, r30
    2130:	ef ef       	ldi	r30, 0xFF	; 255
    2132:	0e 2f       	mov	r16, r30
    2134:	ef ef       	ldi	r30, 0xFF	; 255
    2136:	1e 2f       	mov	r17, r30
    2138:	e4 0e       	add	r14, r20
    213a:	f5 1e       	adc	r15, r21
    213c:	06 1f       	adc	r16, r22
    213e:	17 1f       	adc	r17, r23
	if (clst >= (fs->n_fatent - 2)) return 0;		/* Invalid cluster# */
    2140:	8a 8d       	ldd	r24, Y+26	; 0x1a
    2142:	9b 8d       	ldd	r25, Y+27	; 0x1b
    2144:	ac 8d       	ldd	r26, Y+28	; 0x1c
    2146:	bd 8d       	ldd	r27, Y+29	; 0x1d
    2148:	02 97       	sbiw	r24, 0x02	; 2
    214a:	a1 09       	sbc	r26, r1
    214c:	b1 09       	sbc	r27, r1
    214e:	e8 16       	cp	r14, r24
    2150:	f9 06       	cpc	r15, r25
    2152:	0a 07       	cpc	r16, r26
    2154:	1b 07       	cpc	r17, r27
    2156:	28 f0       	brcs	.+10     	; 0x2162 <dir_sdi+0x16a>
    2158:	20 e0       	ldi	r18, 0x00	; 0
    215a:	30 e0       	ldi	r19, 0x00	; 0
    215c:	40 e0       	ldi	r20, 0x00	; 0
    215e:	50 e0       	ldi	r21, 0x00	; 0
    2160:	12 c0       	rjmp	.+36     	; 0x2186 <dir_sdi+0x18e>
	return clst * fs->csize + fs->database;
    2162:	2a 81       	ldd	r18, Y+2	; 0x02
    2164:	30 e0       	ldi	r19, 0x00	; 0
    2166:	40 e0       	ldi	r20, 0x00	; 0
    2168:	50 e0       	ldi	r21, 0x00	; 0
    216a:	c8 01       	movw	r24, r16
    216c:	b7 01       	movw	r22, r14
    216e:	0e 94 de 2d 	call	0x5bbc	; 0x5bbc <__mulsi3>
    2172:	9b 01       	movw	r18, r22
    2174:	ac 01       	movw	r20, r24
    2176:	8a a5       	ldd	r24, Y+42	; 0x2a
    2178:	9b a5       	ldd	r25, Y+43	; 0x2b
    217a:	ac a5       	ldd	r26, Y+44	; 0x2c
    217c:	bd a5       	ldd	r27, Y+45	; 0x2d
    217e:	28 0f       	add	r18, r24
    2180:	39 1f       	adc	r19, r25
    2182:	4a 1f       	adc	r20, r26
    2184:	5b 1f       	adc	r21, r27
			if (clst < 2 || clst >= dj->fs->n_fatent)	/* Reached to end of table or int error */
				return FR_INT_ERR;
			idx -= ic;
		}
		dj->clust = clst;
		dj->sect = clust2sect(dj->fs, clst) + idx / (SS(dj->fs) / 32);	/* Sector# */
    2186:	c6 01       	movw	r24, r12
    2188:	64 e0       	ldi	r22, 0x04	; 4
    218a:	96 95       	lsr	r25
    218c:	87 95       	ror	r24
    218e:	6a 95       	dec	r22
    2190:	e1 f7       	brne	.-8      	; 0x218a <dir_sdi+0x192>
    2192:	a0 e0       	ldi	r26, 0x00	; 0
    2194:	b0 e0       	ldi	r27, 0x00	; 0
    2196:	28 0f       	add	r18, r24
    2198:	39 1f       	adc	r19, r25
    219a:	4a 1f       	adc	r20, r26
    219c:	5b 1f       	adc	r21, r27
    219e:	f5 01       	movw	r30, r10
    21a0:	26 87       	std	Z+14, r18	; 0x0e
    21a2:	37 87       	std	Z+15, r19	; 0x0f
    21a4:	40 8b       	std	Z+16, r20	; 0x10
    21a6:	51 8b       	std	Z+17, r21	; 0x11
	}

	dj->dir = dj->fs->win + (idx % (SS(dj->fs) / 32)) * 32;	/* Ptr to the entry in the sector */
    21a8:	ff e0       	ldi	r31, 0x0F	; 15
    21aa:	cf 22       	and	r12, r31
    21ac:	dd 24       	eor	r13, r13
    21ae:	35 e0       	ldi	r19, 0x05	; 5
    21b0:	cc 0c       	add	r12, r12
    21b2:	dd 1c       	adc	r13, r13
    21b4:	3a 95       	dec	r19
    21b6:	e1 f7       	brne	.-8      	; 0x21b0 <dir_sdi+0x1b8>
    21b8:	82 e3       	ldi	r24, 0x32	; 50
    21ba:	90 e0       	ldi	r25, 0x00	; 0
    21bc:	c8 0e       	add	r12, r24
    21be:	d9 1e       	adc	r13, r25
    21c0:	d5 01       	movw	r26, r10
    21c2:	8d 91       	ld	r24, X+
    21c4:	9c 91       	ld	r25, X
    21c6:	11 97       	sbiw	r26, 0x01	; 1
    21c8:	8c 0d       	add	r24, r12
    21ca:	9d 1d       	adc	r25, r13
    21cc:	53 96       	adiw	r26, 0x13	; 19
    21ce:	9c 93       	st	X, r25
    21d0:	8e 93       	st	-X, r24
    21d2:	52 97       	sbiw	r26, 0x12	; 18
    21d4:	80 e0       	ldi	r24, 0x00	; 0
    21d6:	01 c0       	rjmp	.+2      	; 0x21da <dir_sdi+0x1e2>

	return FR_OK;	/* Seek succeeded */
    21d8:	82 e0       	ldi	r24, 0x02	; 2
}
    21da:	df 91       	pop	r29
    21dc:	cf 91       	pop	r28
    21de:	1f 91       	pop	r17
    21e0:	0f 91       	pop	r16
    21e2:	ff 90       	pop	r15
    21e4:	ef 90       	pop	r14
    21e6:	df 90       	pop	r13
    21e8:	cf 90       	pop	r12
    21ea:	bf 90       	pop	r11
    21ec:	af 90       	pop	r10
    21ee:	08 95       	ret

000021f0 <create_chain>:
static
DWORD create_chain (	/* 0:No free cluster, 1:Internal error, 0xFFFFFFFF:Disk error, >=2:New cluster# */
	FATFS *fs,			/* File system object */
	DWORD clst			/* Cluster# to stretch. 0 means create a new chain. */
)
{
    21f0:	4f 92       	push	r4
    21f2:	5f 92       	push	r5
    21f4:	6f 92       	push	r6
    21f6:	7f 92       	push	r7
    21f8:	8f 92       	push	r8
    21fa:	9f 92       	push	r9
    21fc:	af 92       	push	r10
    21fe:	bf 92       	push	r11
    2200:	cf 92       	push	r12
    2202:	df 92       	push	r13
    2204:	ef 92       	push	r14
    2206:	ff 92       	push	r15
    2208:	0f 93       	push	r16
    220a:	1f 93       	push	r17
    220c:	cf 93       	push	r28
    220e:	df 93       	push	r29
    2210:	ec 01       	movw	r28, r24
    2212:	2a 01       	movw	r4, r20
    2214:	3b 01       	movw	r6, r22
	DWORD cs, ncl, scl;
	FRESULT res;


	if (clst == 0) {		/* Create a new chain */
    2216:	41 15       	cp	r20, r1
    2218:	51 05       	cpc	r21, r1
    221a:	61 05       	cpc	r22, r1
    221c:	71 05       	cpc	r23, r1
    221e:	99 f4       	brne	.+38     	; 0x2246 <create_chain+0x56>
		scl = fs->last_clust;			/* Get suggested start point */
    2220:	8a 84       	ldd	r8, Y+10	; 0x0a
    2222:	9b 84       	ldd	r9, Y+11	; 0x0b
    2224:	ac 84       	ldd	r10, Y+12	; 0x0c
    2226:	bd 84       	ldd	r11, Y+13	; 0x0d
		if (!scl || scl >= fs->n_fatent) scl = 1;
    2228:	81 14       	cp	r8, r1
    222a:	91 04       	cpc	r9, r1
    222c:	a1 04       	cpc	r10, r1
    222e:	b1 04       	cpc	r11, r1
    2230:	09 f1       	breq	.+66     	; 0x2274 <create_chain+0x84>
    2232:	8a 8d       	ldd	r24, Y+26	; 0x1a
    2234:	9b 8d       	ldd	r25, Y+27	; 0x1b
    2236:	ac 8d       	ldd	r26, Y+28	; 0x1c
    2238:	bd 8d       	ldd	r27, Y+29	; 0x1d
    223a:	88 16       	cp	r8, r24
    223c:	99 06       	cpc	r9, r25
    223e:	aa 06       	cpc	r10, r26
    2240:	bb 06       	cpc	r11, r27
    2242:	c0 f4       	brcc	.+48     	; 0x2274 <create_chain+0x84>
    2244:	1c c0       	rjmp	.+56     	; 0x227e <create_chain+0x8e>
	}
	else {					/* Stretch the current chain */
		cs = get_fat(fs, clst);			/* Check the cluster status */
    2246:	0e 94 29 0f 	call	0x1e52	; 0x1e52 <get_fat>
    224a:	9b 01       	movw	r18, r22
    224c:	ac 01       	movw	r20, r24
		if (cs < 2) return 1;			/* It is an invalid cluster */
    224e:	62 30       	cpi	r22, 0x02	; 2
    2250:	71 05       	cpc	r23, r1
    2252:	81 05       	cpc	r24, r1
    2254:	91 05       	cpc	r25, r1
    2256:	08 f4       	brcc	.+2      	; 0x225a <create_chain+0x6a>
    2258:	8a c0       	rjmp	.+276    	; 0x236e <create_chain+0x17e>
		if (cs < fs->n_fatent) return cs;	/* It is already followed by next cluster */
    225a:	8a 8d       	ldd	r24, Y+26	; 0x1a
    225c:	9b 8d       	ldd	r25, Y+27	; 0x1b
    225e:	ac 8d       	ldd	r26, Y+28	; 0x1c
    2260:	bd 8d       	ldd	r27, Y+29	; 0x1d
    2262:	28 17       	cp	r18, r24
    2264:	39 07       	cpc	r19, r25
    2266:	4a 07       	cpc	r20, r26
    2268:	5b 07       	cpc	r21, r27
    226a:	08 f4       	brcc	.+2      	; 0x226e <create_chain+0x7e>
    226c:	8e c0       	rjmp	.+284    	; 0x238a <create_chain+0x19a>
    226e:	53 01       	movw	r10, r6
    2270:	42 01       	movw	r8, r4
    2272:	05 c0       	rjmp	.+10     	; 0x227e <create_chain+0x8e>
    2274:	11 e0       	ldi	r17, 0x01	; 1
    2276:	81 2e       	mov	r8, r17
    2278:	91 2c       	mov	r9, r1
    227a:	a1 2c       	mov	r10, r1
    227c:	b1 2c       	mov	r11, r1
    227e:	75 01       	movw	r14, r10
    2280:	64 01       	movw	r12, r8
		scl = clst;
	}

	ncl = scl;				/* Start cluster */
	for (;;) {
		ncl++;							/* Next cluster */
    2282:	08 94       	sec
    2284:	c1 1c       	adc	r12, r1
    2286:	d1 1c       	adc	r13, r1
    2288:	e1 1c       	adc	r14, r1
    228a:	f1 1c       	adc	r15, r1
		if (ncl >= fs->n_fatent) {		/* Wrap around */
    228c:	8a 8d       	ldd	r24, Y+26	; 0x1a
    228e:	9b 8d       	ldd	r25, Y+27	; 0x1b
    2290:	ac 8d       	ldd	r26, Y+28	; 0x1c
    2292:	bd 8d       	ldd	r27, Y+29	; 0x1d
    2294:	c8 16       	cp	r12, r24
    2296:	d9 06       	cpc	r13, r25
    2298:	ea 06       	cpc	r14, r26
    229a:	fb 06       	cpc	r15, r27
    229c:	60 f0       	brcs	.+24     	; 0x22b6 <create_chain+0xc6>
			ncl = 2;
			if (ncl > scl) return 0;	/* No free cluster */
    229e:	22 e0       	ldi	r18, 0x02	; 2
    22a0:	82 16       	cp	r8, r18
    22a2:	91 04       	cpc	r9, r1
    22a4:	a1 04       	cpc	r10, r1
    22a6:	b1 04       	cpc	r11, r1
    22a8:	08 f4       	brcc	.+2      	; 0x22ac <create_chain+0xbc>
    22aa:	6b c0       	rjmp	.+214    	; 0x2382 <create_chain+0x192>
    22ac:	b2 e0       	ldi	r27, 0x02	; 2
    22ae:	cb 2e       	mov	r12, r27
    22b0:	d1 2c       	mov	r13, r1
    22b2:	e1 2c       	mov	r14, r1
    22b4:	f1 2c       	mov	r15, r1
		}
		cs = get_fat(fs, ncl);			/* Get the cluster status */
    22b6:	ce 01       	movw	r24, r28
    22b8:	b7 01       	movw	r22, r14
    22ba:	a6 01       	movw	r20, r12
    22bc:	0e 94 29 0f 	call	0x1e52	; 0x1e52 <get_fat>
    22c0:	9b 01       	movw	r18, r22
    22c2:	ac 01       	movw	r20, r24
		if (cs == 0) break;				/* Found a free cluster */
    22c4:	61 15       	cp	r22, r1
    22c6:	71 05       	cpc	r23, r1
    22c8:	81 05       	cpc	r24, r1
    22ca:	91 05       	cpc	r25, r1
    22cc:	a9 f0       	breq	.+42     	; 0x22f8 <create_chain+0x108>
		if (cs == 0xFFFFFFFF || cs == 1)/* An error occurred */
    22ce:	2f 3f       	cpi	r18, 0xFF	; 255
    22d0:	8f ef       	ldi	r24, 0xFF	; 255
    22d2:	38 07       	cpc	r19, r24
    22d4:	8f ef       	ldi	r24, 0xFF	; 255
    22d6:	48 07       	cpc	r20, r24
    22d8:	8f ef       	ldi	r24, 0xFF	; 255
    22da:	58 07       	cpc	r21, r24
    22dc:	09 f4       	brne	.+2      	; 0x22e0 <create_chain+0xf0>
    22de:	55 c0       	rjmp	.+170    	; 0x238a <create_chain+0x19a>
    22e0:	21 30       	cpi	r18, 0x01	; 1
    22e2:	31 05       	cpc	r19, r1
    22e4:	41 05       	cpc	r20, r1
    22e6:	51 05       	cpc	r21, r1
    22e8:	09 f4       	brne	.+2      	; 0x22ec <create_chain+0xfc>
    22ea:	4f c0       	rjmp	.+158    	; 0x238a <create_chain+0x19a>
			return cs;
		if (ncl == scl) return 0;		/* No free cluster */
    22ec:	c8 14       	cp	r12, r8
    22ee:	d9 04       	cpc	r13, r9
    22f0:	ea 04       	cpc	r14, r10
    22f2:	fb 04       	cpc	r15, r11
    22f4:	31 f6       	brne	.-116    	; 0x2282 <create_chain+0x92>
    22f6:	45 c0       	rjmp	.+138    	; 0x2382 <create_chain+0x192>
    22f8:	bc 2c       	mov	r11, r12
    22fa:	ad 2c       	mov	r10, r13
    22fc:	9e 2c       	mov	r9, r14
    22fe:	8f 2c       	mov	r8, r15
	}

	res = put_fat(fs, ncl, 0x0FFFFFFF);	/* Mark the new cluster "last link" */
    2300:	ce 01       	movw	r24, r28
    2302:	a6 01       	movw	r20, r12
    2304:	b7 01       	movw	r22, r14
    2306:	0f ef       	ldi	r16, 0xFF	; 255
    2308:	1f ef       	ldi	r17, 0xFF	; 255
    230a:	2f ef       	ldi	r18, 0xFF	; 255
    230c:	3f e0       	ldi	r19, 0x0F	; 15
    230e:	0e 94 32 0e 	call	0x1c64	; 0x1c64 <put_fat>
	if (res == FR_OK && clst != 0) {
    2312:	88 23       	and	r24, r24
    2314:	51 f5       	brne	.+84     	; 0x236a <create_chain+0x17a>
    2316:	41 14       	cp	r4, r1
    2318:	51 04       	cpc	r5, r1
    231a:	61 04       	cpc	r6, r1
    231c:	71 04       	cpc	r7, r1
    231e:	49 f0       	breq	.+18     	; 0x2332 <create_chain+0x142>
		res = put_fat(fs, clst, ncl);	/* Link it to the previous one if needed */
    2320:	ce 01       	movw	r24, r28
    2322:	b3 01       	movw	r22, r6
    2324:	a2 01       	movw	r20, r4
    2326:	86 01       	movw	r16, r12
    2328:	97 01       	movw	r18, r14
    232a:	0e 94 32 0e 	call	0x1c64	; 0x1c64 <put_fat>
	}
	if (res == FR_OK) {
    232e:	88 23       	and	r24, r24
    2330:	e1 f4       	brne	.+56     	; 0x236a <create_chain+0x17a>
		fs->last_clust = ncl;			/* Update FSINFO */
    2332:	ba 86       	std	Y+10, r11	; 0x0a
    2334:	ab 86       	std	Y+11, r10	; 0x0b
    2336:	9c 86       	std	Y+12, r9	; 0x0c
    2338:	8d 86       	std	Y+13, r8	; 0x0d
		if (fs->free_clust != 0xFFFFFFFF) {
    233a:	8e 85       	ldd	r24, Y+14	; 0x0e
    233c:	9f 85       	ldd	r25, Y+15	; 0x0f
    233e:	a8 89       	ldd	r26, Y+16	; 0x10
    2340:	b9 89       	ldd	r27, Y+17	; 0x11
    2342:	8f 3f       	cpi	r24, 0xFF	; 255
    2344:	2f ef       	ldi	r18, 0xFF	; 255
    2346:	92 07       	cpc	r25, r18
    2348:	2f ef       	ldi	r18, 0xFF	; 255
    234a:	a2 07       	cpc	r26, r18
    234c:	2f ef       	ldi	r18, 0xFF	; 255
    234e:	b2 07       	cpc	r27, r18
    2350:	49 f0       	breq	.+18     	; 0x2364 <create_chain+0x174>
			fs->free_clust--;
    2352:	01 97       	sbiw	r24, 0x01	; 1
    2354:	a1 09       	sbc	r26, r1
    2356:	b1 09       	sbc	r27, r1
    2358:	8e 87       	std	Y+14, r24	; 0x0e
    235a:	9f 87       	std	Y+15, r25	; 0x0f
    235c:	a8 8b       	std	Y+16, r26	; 0x10
    235e:	b9 8b       	std	Y+17, r27	; 0x11
			fs->fsi_flag = 1;
    2360:	81 e0       	ldi	r24, 0x01	; 1
    2362:	8d 83       	std	Y+5, r24	; 0x05
    2364:	a7 01       	movw	r20, r14
    2366:	96 01       	movw	r18, r12
    2368:	10 c0       	rjmp	.+32     	; 0x238a <create_chain+0x19a>
		}
	} else {
		ncl = (res == FR_DISK_ERR) ? 0xFFFFFFFF : 1;
    236a:	81 30       	cpi	r24, 0x01	; 1
    236c:	29 f0       	breq	.+10     	; 0x2378 <create_chain+0x188>
    236e:	21 e0       	ldi	r18, 0x01	; 1
    2370:	30 e0       	ldi	r19, 0x00	; 0
    2372:	40 e0       	ldi	r20, 0x00	; 0
    2374:	50 e0       	ldi	r21, 0x00	; 0
    2376:	09 c0       	rjmp	.+18     	; 0x238a <create_chain+0x19a>
    2378:	2f ef       	ldi	r18, 0xFF	; 255
    237a:	3f ef       	ldi	r19, 0xFF	; 255
    237c:	4f ef       	ldi	r20, 0xFF	; 255
    237e:	5f ef       	ldi	r21, 0xFF	; 255
    2380:	04 c0       	rjmp	.+8      	; 0x238a <create_chain+0x19a>
    2382:	20 e0       	ldi	r18, 0x00	; 0
    2384:	30 e0       	ldi	r19, 0x00	; 0
    2386:	40 e0       	ldi	r20, 0x00	; 0
    2388:	50 e0       	ldi	r21, 0x00	; 0
	}

	return ncl;		/* Return new cluster number or error code */
}
    238a:	b9 01       	movw	r22, r18
    238c:	ca 01       	movw	r24, r20
    238e:	df 91       	pop	r29
    2390:	cf 91       	pop	r28
    2392:	1f 91       	pop	r17
    2394:	0f 91       	pop	r16
    2396:	ff 90       	pop	r15
    2398:	ef 90       	pop	r14
    239a:	df 90       	pop	r13
    239c:	cf 90       	pop	r12
    239e:	bf 90       	pop	r11
    23a0:	af 90       	pop	r10
    23a2:	9f 90       	pop	r9
    23a4:	8f 90       	pop	r8
    23a6:	7f 90       	pop	r7
    23a8:	6f 90       	pop	r6
    23aa:	5f 90       	pop	r5
    23ac:	4f 90       	pop	r4
    23ae:	08 95       	ret

000023b0 <remove_chain>:
static
FRESULT remove_chain (
	FATFS *fs,			/* File system object */
	DWORD clst			/* Cluster# to remove a chain from */
)
{
    23b0:	9f 92       	push	r9
    23b2:	af 92       	push	r10
    23b4:	bf 92       	push	r11
    23b6:	cf 92       	push	r12
    23b8:	df 92       	push	r13
    23ba:	ef 92       	push	r14
    23bc:	ff 92       	push	r15
    23be:	0f 93       	push	r16
    23c0:	1f 93       	push	r17
    23c2:	cf 93       	push	r28
    23c4:	df 93       	push	r29
    23c6:	ec 01       	movw	r28, r24
    23c8:	7a 01       	movw	r14, r20
    23ca:	8b 01       	movw	r16, r22
	DWORD nxt;
#if _USE_ERASE
	DWORD scl = clst, ecl = clst, resion[2];
#endif

	if (clst < 2 || clst >= fs->n_fatent) {	/* Check range */
    23cc:	42 30       	cpi	r20, 0x02	; 2
    23ce:	51 05       	cpc	r21, r1
    23d0:	61 05       	cpc	r22, r1
    23d2:	71 05       	cpc	r23, r1
    23d4:	08 f4       	brcc	.+2      	; 0x23d8 <remove_chain+0x28>
    23d6:	58 c0       	rjmp	.+176    	; 0x2488 <remove_chain+0xd8>
    23d8:	8a 8d       	ldd	r24, Y+26	; 0x1a
    23da:	9b 8d       	ldd	r25, Y+27	; 0x1b
    23dc:	ac 8d       	ldd	r26, Y+28	; 0x1c
    23de:	bd 8d       	ldd	r27, Y+29	; 0x1d
    23e0:	48 17       	cp	r20, r24
    23e2:	59 07       	cpc	r21, r25
    23e4:	6a 07       	cpc	r22, r26
    23e6:	7b 07       	cpc	r23, r27
    23e8:	08 f4       	brcc	.+2      	; 0x23ec <remove_chain+0x3c>
    23ea:	41 c0       	rjmp	.+130    	; 0x246e <remove_chain+0xbe>
    23ec:	4d c0       	rjmp	.+154    	; 0x2488 <remove_chain+0xd8>
		res = FR_INT_ERR;

	} else {
		res = FR_OK;
		while (clst < fs->n_fatent) {			/* Not a last link? */
			nxt = get_fat(fs, clst);			/* Get cluster status */
    23ee:	ce 01       	movw	r24, r28
    23f0:	b8 01       	movw	r22, r16
    23f2:	a7 01       	movw	r20, r14
    23f4:	0e 94 29 0f 	call	0x1e52	; 0x1e52 <get_fat>
    23f8:	5b 01       	movw	r10, r22
    23fa:	6c 01       	movw	r12, r24
			if (nxt == 0) break;				/* Empty cluster? */
    23fc:	61 15       	cp	r22, r1
    23fe:	71 05       	cpc	r23, r1
    2400:	81 05       	cpc	r24, r1
    2402:	91 05       	cpc	r25, r1
    2404:	09 f4       	brne	.+2      	; 0x2408 <remove_chain+0x58>
    2406:	42 c0       	rjmp	.+132    	; 0x248c <remove_chain+0xdc>
			if (nxt == 1) { res = FR_INT_ERR; break; }	/* Internal error? */
    2408:	81 e0       	ldi	r24, 0x01	; 1
    240a:	a8 16       	cp	r10, r24
    240c:	b1 04       	cpc	r11, r1
    240e:	c1 04       	cpc	r12, r1
    2410:	d1 04       	cpc	r13, r1
    2412:	d1 f1       	breq	.+116    	; 0x2488 <remove_chain+0xd8>
			if (nxt == 0xFFFFFFFF) { res = FR_DISK_ERR; break; }	/* Disk error? */
    2414:	2f ef       	ldi	r18, 0xFF	; 255
    2416:	a2 16       	cp	r10, r18
    2418:	2f ef       	ldi	r18, 0xFF	; 255
    241a:	b2 06       	cpc	r11, r18
    241c:	2f ef       	ldi	r18, 0xFF	; 255
    241e:	c2 06       	cpc	r12, r18
    2420:	2f ef       	ldi	r18, 0xFF	; 255
    2422:	d2 06       	cpc	r13, r18
    2424:	11 f4       	brne	.+4      	; 0x242a <remove_chain+0x7a>
    2426:	81 e0       	ldi	r24, 0x01	; 1
    2428:	32 c0       	rjmp	.+100    	; 0x248e <remove_chain+0xde>
			res = put_fat(fs, clst, 0);			/* Mark the cluster "empty" */
    242a:	ce 01       	movw	r24, r28
    242c:	b8 01       	movw	r22, r16
    242e:	a7 01       	movw	r20, r14
    2430:	00 e0       	ldi	r16, 0x00	; 0
    2432:	10 e0       	ldi	r17, 0x00	; 0
    2434:	20 e0       	ldi	r18, 0x00	; 0
    2436:	30 e0       	ldi	r19, 0x00	; 0
    2438:	0e 94 32 0e 	call	0x1c64	; 0x1c64 <put_fat>
			if (res != FR_OK) break;
    243c:	88 23       	and	r24, r24
    243e:	39 f5       	brne	.+78     	; 0x248e <remove_chain+0xde>
			if (fs->free_clust != 0xFFFFFFFF) {	/* Update FSInfo */
    2440:	8e 85       	ldd	r24, Y+14	; 0x0e
    2442:	9f 85       	ldd	r25, Y+15	; 0x0f
    2444:	a8 89       	ldd	r26, Y+16	; 0x10
    2446:	b9 89       	ldd	r27, Y+17	; 0x11
    2448:	8f 3f       	cpi	r24, 0xFF	; 255
    244a:	2f ef       	ldi	r18, 0xFF	; 255
    244c:	92 07       	cpc	r25, r18
    244e:	2f ef       	ldi	r18, 0xFF	; 255
    2450:	a2 07       	cpc	r26, r18
    2452:	2f ef       	ldi	r18, 0xFF	; 255
    2454:	b2 07       	cpc	r27, r18
    2456:	41 f0       	breq	.+16     	; 0x2468 <remove_chain+0xb8>
				fs->free_clust++;
    2458:	01 96       	adiw	r24, 0x01	; 1
    245a:	a1 1d       	adc	r26, r1
    245c:	b1 1d       	adc	r27, r1
    245e:	8e 87       	std	Y+14, r24	; 0x0e
    2460:	9f 87       	std	Y+15, r25	; 0x0f
    2462:	a8 8b       	std	Y+16, r26	; 0x10
    2464:	b9 8b       	std	Y+17, r27	; 0x11
				fs->fsi_flag = 1;
    2466:	9d 82       	std	Y+5, r9	; 0x05
    2468:	86 01       	movw	r16, r12
    246a:	75 01       	movw	r14, r10
    246c:	02 c0       	rjmp	.+4      	; 0x2472 <remove_chain+0xc2>
    246e:	99 24       	eor	r9, r9
    2470:	93 94       	inc	r9
	if (clst < 2 || clst >= fs->n_fatent) {	/* Check range */
		res = FR_INT_ERR;

	} else {
		res = FR_OK;
		while (clst < fs->n_fatent) {			/* Not a last link? */
    2472:	8a 8d       	ldd	r24, Y+26	; 0x1a
    2474:	9b 8d       	ldd	r25, Y+27	; 0x1b
    2476:	ac 8d       	ldd	r26, Y+28	; 0x1c
    2478:	bd 8d       	ldd	r27, Y+29	; 0x1d
    247a:	e8 16       	cp	r14, r24
    247c:	f9 06       	cpc	r15, r25
    247e:	0a 07       	cpc	r16, r26
    2480:	1b 07       	cpc	r17, r27
    2482:	08 f4       	brcc	.+2      	; 0x2486 <remove_chain+0xd6>
    2484:	b4 cf       	rjmp	.-152    	; 0x23ee <remove_chain+0x3e>
    2486:	02 c0       	rjmp	.+4      	; 0x248c <remove_chain+0xdc>
    2488:	82 e0       	ldi	r24, 0x02	; 2
    248a:	01 c0       	rjmp	.+2      	; 0x248e <remove_chain+0xde>
    248c:	80 e0       	ldi	r24, 0x00	; 0
			clst = nxt;	/* Next cluster */
		}
	}

	return res;
}
    248e:	df 91       	pop	r29
    2490:	cf 91       	pop	r28
    2492:	1f 91       	pop	r17
    2494:	0f 91       	pop	r16
    2496:	ff 90       	pop	r15
    2498:	ef 90       	pop	r14
    249a:	df 90       	pop	r13
    249c:	cf 90       	pop	r12
    249e:	bf 90       	pop	r11
    24a0:	af 90       	pop	r10
    24a2:	9f 90       	pop	r9
    24a4:	08 95       	ret

000024a6 <f_truncate>:
/*-----------------------------------------------------------------------*/

FRESULT f_truncate (
	FIL *fp		/* Pointer to the file object */
)
{
    24a6:	cf 92       	push	r12
    24a8:	df 92       	push	r13
    24aa:	ef 92       	push	r14
    24ac:	ff 92       	push	r15
    24ae:	0f 93       	push	r16
    24b0:	1f 93       	push	r17
    24b2:	cf 93       	push	r28
    24b4:	df 93       	push	r29
    24b6:	ec 01       	movw	r28, r24
	FRESULT res;
	DWORD ncl;


	res = validate(fp->fs, fp->id);		/* Check validity of the object */
    24b8:	6a 81       	ldd	r22, Y+2	; 0x02
    24ba:	7b 81       	ldd	r23, Y+3	; 0x03
    24bc:	88 81       	ld	r24, Y
    24be:	99 81       	ldd	r25, Y+1	; 0x01
    24c0:	0e 94 84 0a 	call	0x1508	; 0x1508 <validate>
    24c4:	18 2f       	mov	r17, r24
	if (res == FR_OK) {
    24c6:	88 23       	and	r24, r24
    24c8:	09 f0       	breq	.+2      	; 0x24cc <f_truncate+0x26>
    24ca:	6c c0       	rjmp	.+216    	; 0x25a4 <f_truncate+0xfe>
		if (fp->flag & FA__ERROR) {			/* Check abort flag */
    24cc:	6c 81       	ldd	r22, Y+4	; 0x04
    24ce:	67 ff       	sbrs	r22, 7
    24d0:	02 c0       	rjmp	.+4      	; 0x24d6 <f_truncate+0x30>
    24d2:	12 e0       	ldi	r17, 0x02	; 2
    24d4:	67 c0       	rjmp	.+206    	; 0x25a4 <f_truncate+0xfe>
			res = FR_INT_ERR;
		} else {
			if (!(fp->flag & FA_WRITE))		/* Check access mode */
    24d6:	61 ff       	sbrs	r22, 1
    24d8:	6f c0       	rjmp	.+222    	; 0x25b8 <f_truncate+0x112>
				res = FR_DENIED;
		}
	}
	if (res == FR_OK) {
		if (fp->fsize > fp->fptr) {
    24da:	2e 81       	ldd	r18, Y+6	; 0x06
    24dc:	3f 81       	ldd	r19, Y+7	; 0x07
    24de:	48 85       	ldd	r20, Y+8	; 0x08
    24e0:	59 85       	ldd	r21, Y+9	; 0x09
    24e2:	8a 85       	ldd	r24, Y+10	; 0x0a
    24e4:	9b 85       	ldd	r25, Y+11	; 0x0b
    24e6:	ac 85       	ldd	r26, Y+12	; 0x0c
    24e8:	bd 85       	ldd	r27, Y+13	; 0x0d
    24ea:	28 17       	cp	r18, r24
    24ec:	39 07       	cpc	r19, r25
    24ee:	4a 07       	cpc	r20, r26
    24f0:	5b 07       	cpc	r21, r27
    24f2:	08 f0       	brcs	.+2      	; 0x24f6 <f_truncate+0x50>
    24f4:	57 c0       	rjmp	.+174    	; 0x25a4 <f_truncate+0xfe>
			fp->fsize = fp->fptr;	/* Set file size to current R/W point */
    24f6:	2a 87       	std	Y+10, r18	; 0x0a
    24f8:	3b 87       	std	Y+11, r19	; 0x0b
    24fa:	4c 87       	std	Y+12, r20	; 0x0c
    24fc:	5d 87       	std	Y+13, r21	; 0x0d
			fp->flag |= FA__WRITTEN;
    24fe:	60 62       	ori	r22, 0x20	; 32
    2500:	6c 83       	std	Y+4, r22	; 0x04
    2502:	88 81       	ld	r24, Y
    2504:	99 81       	ldd	r25, Y+1	; 0x01
			if (fp->fptr == 0) {	/* When set file size to zero, remove entire cluster chain */
    2506:	21 15       	cp	r18, r1
    2508:	31 05       	cpc	r19, r1
    250a:	41 05       	cpc	r20, r1
    250c:	51 05       	cpc	r21, r1
    250e:	61 f4       	brne	.+24     	; 0x2528 <f_truncate+0x82>
				res = remove_chain(fp->fs, fp->org_clust);
    2510:	4e 85       	ldd	r20, Y+14	; 0x0e
    2512:	5f 85       	ldd	r21, Y+15	; 0x0f
    2514:	68 89       	ldd	r22, Y+16	; 0x10
    2516:	79 89       	ldd	r23, Y+17	; 0x11
    2518:	0e 94 d8 11 	call	0x23b0	; 0x23b0 <remove_chain>
    251c:	18 2f       	mov	r17, r24
				fp->org_clust = 0;
    251e:	1e 86       	std	Y+14, r1	; 0x0e
    2520:	1f 86       	std	Y+15, r1	; 0x0f
    2522:	18 8a       	std	Y+16, r1	; 0x10
    2524:	19 8a       	std	Y+17, r1	; 0x11
    2526:	39 c0       	rjmp	.+114    	; 0x259a <f_truncate+0xf4>
			} else {				/* When truncate a part of the file, remove remaining clusters */
				ncl = get_fat(fp->fs, fp->curr_clust);
    2528:	4a 89       	ldd	r20, Y+18	; 0x12
    252a:	5b 89       	ldd	r21, Y+19	; 0x13
    252c:	6c 89       	ldd	r22, Y+20	; 0x14
    252e:	7d 89       	ldd	r23, Y+21	; 0x15
    2530:	0e 94 29 0f 	call	0x1e52	; 0x1e52 <get_fat>
    2534:	6b 01       	movw	r12, r22
    2536:	7c 01       	movw	r14, r24
				res = FR_OK;
				if (ncl == 0xFFFFFFFF) res = FR_DISK_ERR;
    2538:	8f ef       	ldi	r24, 0xFF	; 255
    253a:	c8 16       	cp	r12, r24
    253c:	8f ef       	ldi	r24, 0xFF	; 255
    253e:	d8 06       	cpc	r13, r24
    2540:	8f ef       	ldi	r24, 0xFF	; 255
    2542:	e8 06       	cpc	r14, r24
    2544:	8f ef       	ldi	r24, 0xFF	; 255
    2546:	f8 06       	cpc	r15, r24
    2548:	11 f4       	brne	.+4      	; 0x254e <f_truncate+0xa8>
    254a:	11 e0       	ldi	r17, 0x01	; 1
    254c:	28 c0       	rjmp	.+80     	; 0x259e <f_truncate+0xf8>
				if (ncl == 1) res = FR_INT_ERR;
    254e:	81 e0       	ldi	r24, 0x01	; 1
    2550:	c8 16       	cp	r12, r24
    2552:	d1 04       	cpc	r13, r1
    2554:	e1 04       	cpc	r14, r1
    2556:	f1 04       	cpc	r15, r1
    2558:	89 f1       	breq	.+98     	; 0x25bc <f_truncate+0x116>
				if (res == FR_OK && ncl < fp->fs->n_fatent) {
    255a:	e8 81       	ld	r30, Y
    255c:	f9 81       	ldd	r31, Y+1	; 0x01
    255e:	82 8d       	ldd	r24, Z+26	; 0x1a
    2560:	93 8d       	ldd	r25, Z+27	; 0x1b
    2562:	a4 8d       	ldd	r26, Z+28	; 0x1c
    2564:	b5 8d       	ldd	r27, Z+29	; 0x1d
    2566:	c8 16       	cp	r12, r24
    2568:	d9 06       	cpc	r13, r25
    256a:	ea 06       	cpc	r14, r26
    256c:	fb 06       	cpc	r15, r27
    256e:	d0 f4       	brcc	.+52     	; 0x25a4 <f_truncate+0xfe>
					res = put_fat(fp->fs, fp->curr_clust, 0x0FFFFFFF);
    2570:	4a 89       	ldd	r20, Y+18	; 0x12
    2572:	5b 89       	ldd	r21, Y+19	; 0x13
    2574:	6c 89       	ldd	r22, Y+20	; 0x14
    2576:	7d 89       	ldd	r23, Y+21	; 0x15
    2578:	cf 01       	movw	r24, r30
    257a:	0f ef       	ldi	r16, 0xFF	; 255
    257c:	1f ef       	ldi	r17, 0xFF	; 255
    257e:	2f ef       	ldi	r18, 0xFF	; 255
    2580:	3f e0       	ldi	r19, 0x0F	; 15
    2582:	0e 94 32 0e 	call	0x1c64	; 0x1c64 <put_fat>
    2586:	18 2f       	mov	r17, r24
					if (res == FR_OK) res = remove_chain(fp->fs, ncl);
    2588:	88 23       	and	r24, r24
    258a:	49 f4       	brne	.+18     	; 0x259e <f_truncate+0xf8>
    258c:	88 81       	ld	r24, Y
    258e:	99 81       	ldd	r25, Y+1	; 0x01
    2590:	b7 01       	movw	r22, r14
    2592:	a6 01       	movw	r20, r12
    2594:	0e 94 d8 11 	call	0x23b0	; 0x23b0 <remove_chain>
    2598:	18 2f       	mov	r17, r24
				}
			}
		}
		if (res != FR_OK) fp->flag |= FA__ERROR;
    259a:	11 23       	and	r17, r17
    259c:	19 f0       	breq	.+6      	; 0x25a4 <f_truncate+0xfe>
    259e:	8c 81       	ldd	r24, Y+4	; 0x04
    25a0:	80 68       	ori	r24, 0x80	; 128
    25a2:	8c 83       	std	Y+4, r24	; 0x04
	}

	LEAVE_FF(fp->fs, res);
}
    25a4:	81 2f       	mov	r24, r17
    25a6:	df 91       	pop	r29
    25a8:	cf 91       	pop	r28
    25aa:	1f 91       	pop	r17
    25ac:	0f 91       	pop	r16
    25ae:	ff 90       	pop	r15
    25b0:	ef 90       	pop	r14
    25b2:	df 90       	pop	r13
    25b4:	cf 90       	pop	r12
    25b6:	08 95       	ret
					res = put_fat(fp->fs, fp->curr_clust, 0x0FFFFFFF);
					if (res == FR_OK) res = remove_chain(fp->fs, ncl);
				}
			}
		}
		if (res != FR_OK) fp->flag |= FA__ERROR;
    25b8:	17 e0       	ldi	r17, 0x07	; 7
    25ba:	f4 cf       	rjmp	.-24     	; 0x25a4 <f_truncate+0xfe>
    25bc:	12 e0       	ldi	r17, 0x02	; 2
    25be:	ef cf       	rjmp	.-34     	; 0x259e <f_truncate+0xf8>

000025c0 <dir_remove>:
#if !_FS_READONLY && !_FS_MINIMIZE
static
FRESULT dir_remove (	/* FR_OK: Successful, FR_DISK_ERR: A disk error */
	DIR *dj				/* Directory object pointing the entry to be removed */
)
{
    25c0:	cf 93       	push	r28
    25c2:	df 93       	push	r29
    25c4:	ec 01       	movw	r28, r24
		} while (res == FR_OK);
		if (res == FR_NO_FILE) res = FR_INT_ERR;
	}

#else			/* Non LFN configuration */
	res = dir_sdi(dj, dj->index);
    25c6:	6c 81       	ldd	r22, Y+4	; 0x04
    25c8:	7d 81       	ldd	r23, Y+5	; 0x05
    25ca:	0e 94 fc 0f 	call	0x1ff8	; 0x1ff8 <dir_sdi>
    25ce:	98 2f       	mov	r25, r24
	if (res == FR_OK) {
    25d0:	88 23       	and	r24, r24
    25d2:	99 f4       	brne	.+38     	; 0x25fa <dir_remove+0x3a>
		res = move_window(dj->fs, dj->sect);
    25d4:	4e 85       	ldd	r20, Y+14	; 0x0e
    25d6:	5f 85       	ldd	r21, Y+15	; 0x0f
    25d8:	68 89       	ldd	r22, Y+16	; 0x10
    25da:	79 89       	ldd	r23, Y+17	; 0x11
    25dc:	88 81       	ld	r24, Y
    25de:	99 81       	ldd	r25, Y+1	; 0x01
    25e0:	0e 94 b9 0d 	call	0x1b72	; 0x1b72 <move_window>
    25e4:	98 2f       	mov	r25, r24
		if (res == FR_OK) {
    25e6:	88 23       	and	r24, r24
    25e8:	41 f4       	brne	.+16     	; 0x25fa <dir_remove+0x3a>
			*dj->dir = 0xE5;			/* Mark the entry "deleted" */
    25ea:	ea 89       	ldd	r30, Y+18	; 0x12
    25ec:	fb 89       	ldd	r31, Y+19	; 0x13
    25ee:	85 ee       	ldi	r24, 0xE5	; 229
    25f0:	80 83       	st	Z, r24
			dj->fs->wflag = 1;
    25f2:	e8 81       	ld	r30, Y
    25f4:	f9 81       	ldd	r31, Y+1	; 0x01
    25f6:	81 e0       	ldi	r24, 0x01	; 1
    25f8:	84 83       	std	Z+4, r24	; 0x04
		}
	}
#endif

	return res;
}
    25fa:	89 2f       	mov	r24, r25
    25fc:	df 91       	pop	r29
    25fe:	cf 91       	pop	r28
    2600:	08 95       	ret

00002602 <dir_next>:
static
FRESULT dir_next (	/* FR_OK:Succeeded, FR_NO_FILE:End of table, FR_DENIED:EOT and could not stretch */
	DIR *dj,		/* Pointer to directory object */
	int stretch		/* 0: Do not stretch table, 1: Stretch table if needed */
)
{
    2602:	4f 92       	push	r4
    2604:	5f 92       	push	r5
    2606:	6f 92       	push	r6
    2608:	7f 92       	push	r7
    260a:	8f 92       	push	r8
    260c:	9f 92       	push	r9
    260e:	af 92       	push	r10
    2610:	bf 92       	push	r11
    2612:	cf 92       	push	r12
    2614:	df 92       	push	r13
    2616:	ef 92       	push	r14
    2618:	ff 92       	push	r15
    261a:	0f 93       	push	r16
    261c:	1f 93       	push	r17
    261e:	cf 93       	push	r28
    2620:	df 93       	push	r29
    2622:	ec 01       	movw	r28, r24
    2624:	6b 01       	movw	r12, r22
	DWORD clst;
	WORD i;


	i = dj->index + 1;
    2626:	6c 80       	ldd	r6, Y+4	; 0x04
    2628:	7d 80       	ldd	r7, Y+5	; 0x05
    262a:	08 94       	sec
    262c:	61 1c       	adc	r6, r1
    262e:	71 1c       	adc	r7, r1
	if (!i || !dj->sect)	/* Report EOT when index has reached 65535 */
    2630:	61 14       	cp	r6, r1
    2632:	71 04       	cpc	r7, r1
    2634:	09 f4       	brne	.+2      	; 0x2638 <dir_next+0x36>
    2636:	4c c1       	rjmp	.+664    	; 0x28d0 <dir_next+0x2ce>
    2638:	8e 85       	ldd	r24, Y+14	; 0x0e
    263a:	9f 85       	ldd	r25, Y+15	; 0x0f
    263c:	a8 89       	ldd	r26, Y+16	; 0x10
    263e:	b9 89       	ldd	r27, Y+17	; 0x11
    2640:	00 97       	sbiw	r24, 0x00	; 0
    2642:	a1 05       	cpc	r26, r1
    2644:	b1 05       	cpc	r27, r1
    2646:	09 f4       	brne	.+2      	; 0x264a <dir_next+0x48>
    2648:	43 c1       	rjmp	.+646    	; 0x28d0 <dir_next+0x2ce>
		return FR_NO_FILE;

	if (!(i % (SS(dj->fs) / 32))) {	/* Sector changed? */
    264a:	1f e0       	ldi	r17, 0x0F	; 15
    264c:	41 2e       	mov	r4, r17
    264e:	51 2c       	mov	r5, r1
    2650:	46 20       	and	r4, r6
    2652:	57 20       	and	r5, r7
    2654:	41 14       	cp	r4, r1
    2656:	51 04       	cpc	r5, r1
    2658:	09 f0       	breq	.+2      	; 0x265c <dir_next+0x5a>
    265a:	27 c1       	rjmp	.+590    	; 0x28aa <dir_next+0x2a8>
		dj->sect++;					/* Next sector */
    265c:	01 96       	adiw	r24, 0x01	; 1
    265e:	a1 1d       	adc	r26, r1
    2660:	b1 1d       	adc	r27, r1
    2662:	8e 87       	std	Y+14, r24	; 0x0e
    2664:	9f 87       	std	Y+15, r25	; 0x0f
    2666:	a8 8b       	std	Y+16, r26	; 0x10
    2668:	b9 8b       	std	Y+17, r27	; 0x11

		if (dj->clust == 0) {	/* Static table */
    266a:	4a 85       	ldd	r20, Y+10	; 0x0a
    266c:	5b 85       	ldd	r21, Y+11	; 0x0b
    266e:	6c 85       	ldd	r22, Y+12	; 0x0c
    2670:	7d 85       	ldd	r23, Y+13	; 0x0d
    2672:	e8 81       	ld	r30, Y
    2674:	f9 81       	ldd	r31, Y+1	; 0x01
    2676:	41 15       	cp	r20, r1
    2678:	51 05       	cpc	r21, r1
    267a:	61 05       	cpc	r22, r1
    267c:	71 05       	cpc	r23, r1
    267e:	39 f4       	brne	.+14     	; 0x268e <dir_next+0x8c>
			if (i >= dj->fs->n_rootdir)	/* Report EOT when end of table */
    2680:	80 85       	ldd	r24, Z+8	; 0x08
    2682:	91 85       	ldd	r25, Z+9	; 0x09
    2684:	68 16       	cp	r6, r24
    2686:	79 06       	cpc	r7, r25
    2688:	08 f4       	brcc	.+2      	; 0x268c <dir_next+0x8a>
    268a:	0f c1       	rjmp	.+542    	; 0x28aa <dir_next+0x2a8>
    268c:	21 c1       	rjmp	.+578    	; 0x28d0 <dir_next+0x2ce>
				return FR_NO_FILE;
		}
		else {					/* Dynamic table */
			if (((i / (SS(dj->fs) / 32)) & (dj->fs->csize - 1)) == 0) {	/* Cluster changed? */
    268e:	82 81       	ldd	r24, Z+2	; 0x02
    2690:	90 e0       	ldi	r25, 0x00	; 0
    2692:	01 97       	sbiw	r24, 0x01	; 1
    2694:	93 01       	movw	r18, r6
    2696:	a4 e0       	ldi	r26, 0x04	; 4
    2698:	36 95       	lsr	r19
    269a:	27 95       	ror	r18
    269c:	aa 95       	dec	r26
    269e:	e1 f7       	brne	.-8      	; 0x2698 <dir_next+0x96>
    26a0:	82 23       	and	r24, r18
    26a2:	93 23       	and	r25, r19
    26a4:	89 2b       	or	r24, r25
    26a6:	09 f0       	breq	.+2      	; 0x26aa <dir_next+0xa8>
    26a8:	00 c1       	rjmp	.+512    	; 0x28aa <dir_next+0x2a8>
				clst = get_fat(dj->fs, dj->clust);				/* Get next cluster */
    26aa:	cf 01       	movw	r24, r30
    26ac:	0e 94 29 0f 	call	0x1e52	; 0x1e52 <get_fat>
    26b0:	7b 01       	movw	r14, r22
    26b2:	8c 01       	movw	r16, r24
				if (clst <= 1) return FR_INT_ERR;
    26b4:	62 30       	cpi	r22, 0x02	; 2
    26b6:	71 05       	cpc	r23, r1
    26b8:	81 05       	cpc	r24, r1
    26ba:	91 05       	cpc	r25, r1
    26bc:	08 f4       	brcc	.+2      	; 0x26c0 <dir_next+0xbe>
    26be:	0a c1       	rjmp	.+532    	; 0x28d4 <dir_next+0x2d2>
				if (clst == 0xFFFFFFFF) return FR_DISK_ERR;
    26c0:	8f ef       	ldi	r24, 0xFF	; 255
    26c2:	e8 16       	cp	r14, r24
    26c4:	8f ef       	ldi	r24, 0xFF	; 255
    26c6:	f8 06       	cpc	r15, r24
    26c8:	8f ef       	ldi	r24, 0xFF	; 255
    26ca:	08 07       	cpc	r16, r24
    26cc:	8f ef       	ldi	r24, 0xFF	; 255
    26ce:	18 07       	cpc	r17, r24
    26d0:	09 f4       	brne	.+2      	; 0x26d4 <dir_next+0xd2>
    26d2:	02 c1       	rjmp	.+516    	; 0x28d8 <dir_next+0x2d6>
				if (clst >= dj->fs->n_fatent) {					/* When it reached end of dynamic table */
    26d4:	e8 81       	ld	r30, Y
    26d6:	f9 81       	ldd	r31, Y+1	; 0x01
    26d8:	82 8d       	ldd	r24, Z+26	; 0x1a
    26da:	93 8d       	ldd	r25, Z+27	; 0x1b
    26dc:	a4 8d       	ldd	r26, Z+28	; 0x1c
    26de:	b5 8d       	ldd	r27, Z+29	; 0x1d
    26e0:	e8 16       	cp	r14, r24
    26e2:	f9 06       	cpc	r15, r25
    26e4:	0a 07       	cpc	r16, r26
    26e6:	1b 07       	cpc	r17, r27
    26e8:	08 f4       	brcc	.+2      	; 0x26ec <dir_next+0xea>
    26ea:	a6 c0       	rjmp	.+332    	; 0x2838 <dir_next+0x236>
#if !_FS_READONLY
					BYTE c;
					if (!stretch) return FR_NO_FILE;			/* When do not stretch, report EOT */
    26ec:	cd 28       	or	r12, r13
    26ee:	09 f4       	brne	.+2      	; 0x26f2 <dir_next+0xf0>
    26f0:	ef c0       	rjmp	.+478    	; 0x28d0 <dir_next+0x2ce>
					clst = create_chain(dj->fs, dj->clust);		/* Stretch cluster chain */
    26f2:	4a 85       	ldd	r20, Y+10	; 0x0a
    26f4:	5b 85       	ldd	r21, Y+11	; 0x0b
    26f6:	6c 85       	ldd	r22, Y+12	; 0x0c
    26f8:	7d 85       	ldd	r23, Y+13	; 0x0d
    26fa:	cf 01       	movw	r24, r30
    26fc:	0e 94 f8 10 	call	0x21f0	; 0x21f0 <create_chain>
    2700:	7b 01       	movw	r14, r22
    2702:	8c 01       	movw	r16, r24
					if (clst == 0) return FR_DENIED;			/* No free cluster */
    2704:	61 15       	cp	r22, r1
    2706:	71 05       	cpc	r23, r1
    2708:	81 05       	cpc	r24, r1
    270a:	91 05       	cpc	r25, r1
    270c:	11 f4       	brne	.+4      	; 0x2712 <dir_next+0x110>
    270e:	87 e0       	ldi	r24, 0x07	; 7
    2710:	e4 c0       	rjmp	.+456    	; 0x28da <dir_next+0x2d8>
					if (clst == 1) return FR_INT_ERR;
    2712:	91 e0       	ldi	r25, 0x01	; 1
    2714:	e9 16       	cp	r14, r25
    2716:	f1 04       	cpc	r15, r1
    2718:	01 05       	cpc	r16, r1
    271a:	11 05       	cpc	r17, r1
    271c:	09 f4       	brne	.+2      	; 0x2720 <dir_next+0x11e>
    271e:	da c0       	rjmp	.+436    	; 0x28d4 <dir_next+0x2d2>
					if (clst == 0xFFFFFFFF) return FR_DISK_ERR;
    2720:	af ef       	ldi	r26, 0xFF	; 255
    2722:	ea 16       	cp	r14, r26
    2724:	af ef       	ldi	r26, 0xFF	; 255
    2726:	fa 06       	cpc	r15, r26
    2728:	af ef       	ldi	r26, 0xFF	; 255
    272a:	0a 07       	cpc	r16, r26
    272c:	af ef       	ldi	r26, 0xFF	; 255
    272e:	1a 07       	cpc	r17, r26
    2730:	09 f4       	brne	.+2      	; 0x2734 <dir_next+0x132>
    2732:	d2 c0       	rjmp	.+420    	; 0x28d8 <dir_next+0x2d6>
					/* Clean-up stretched table */
					if (move_window(dj->fs, 0)) return FR_DISK_ERR;	/* Flush active window */
    2734:	88 81       	ld	r24, Y
    2736:	99 81       	ldd	r25, Y+1	; 0x01
    2738:	40 e0       	ldi	r20, 0x00	; 0
    273a:	50 e0       	ldi	r21, 0x00	; 0
    273c:	60 e0       	ldi	r22, 0x00	; 0
    273e:	70 e0       	ldi	r23, 0x00	; 0
    2740:	0e 94 b9 0d 	call	0x1b72	; 0x1b72 <move_window>
    2744:	88 23       	and	r24, r24
    2746:	09 f0       	breq	.+2      	; 0x274a <dir_next+0x148>
    2748:	c7 c0       	rjmp	.+398    	; 0x28d8 <dir_next+0x2d6>
}

/* Fill memory */
static
void mem_set (void* dst, int val, UINT cnt) {
	BYTE *d = (BYTE*)dst;
    274a:	e8 81       	ld	r30, Y
    274c:	f9 81       	ldd	r31, Y+1	; 0x01
    274e:	f2 96       	adiw	r30, 0x32	; 50
    2750:	80 e0       	ldi	r24, 0x00	; 0
    2752:	92 e0       	ldi	r25, 0x02	; 2
    2754:	01 c0       	rjmp	.+2      	; 0x2758 <dir_next+0x156>

	while (cnt--)
		*d++ = (BYTE)val;
    2756:	11 92       	st	Z+, r1
/* Fill memory */
static
void mem_set (void* dst, int val, UINT cnt) {
	BYTE *d = (BYTE*)dst;

	while (cnt--)
    2758:	01 97       	sbiw	r24, 0x01	; 1
    275a:	bf ef       	ldi	r27, 0xFF	; 255
    275c:	8f 3f       	cpi	r24, 0xFF	; 255
    275e:	9b 07       	cpc	r25, r27
    2760:	d1 f7       	brne	.-12     	; 0x2756 <dir_next+0x154>
					if (clst == 1) return FR_INT_ERR;
					if (clst == 0xFFFFFFFF) return FR_DISK_ERR;
					/* Clean-up stretched table */
					if (move_window(dj->fs, 0)) return FR_DISK_ERR;	/* Flush active window */
					mem_set(dj->fs->win, 0, SS(dj->fs));			/* Clear window buffer */
					dj->fs->winsect = clust2sect(dj->fs, clst);	/* Cluster start sector */
    2762:	88 80       	ld	r8, Y
    2764:	99 80       	ldd	r9, Y+1	; 0x01
DWORD clust2sect (	/* !=0: Sector number, 0: Failed - invalid cluster# */
	FATFS *fs,		/* File system object */
	DWORD clst		/* Cluster# to be converted */
)
{
	clst -= 2;
    2766:	8e ef       	ldi	r24, 0xFE	; 254
    2768:	a8 2e       	mov	r10, r24
    276a:	8f ef       	ldi	r24, 0xFF	; 255
    276c:	b8 2e       	mov	r11, r24
    276e:	8f ef       	ldi	r24, 0xFF	; 255
    2770:	c8 2e       	mov	r12, r24
    2772:	8f ef       	ldi	r24, 0xFF	; 255
    2774:	d8 2e       	mov	r13, r24
    2776:	ae 0c       	add	r10, r14
    2778:	bf 1c       	adc	r11, r15
    277a:	c0 1e       	adc	r12, r16
    277c:	d1 1e       	adc	r13, r17
	if (clst >= (fs->n_fatent - 2)) return 0;		/* Invalid cluster# */
    277e:	f4 01       	movw	r30, r8
    2780:	82 8d       	ldd	r24, Z+26	; 0x1a
    2782:	93 8d       	ldd	r25, Z+27	; 0x1b
    2784:	a4 8d       	ldd	r26, Z+28	; 0x1c
    2786:	b5 8d       	ldd	r27, Z+29	; 0x1d
    2788:	02 97       	sbiw	r24, 0x02	; 2
    278a:	a1 09       	sbc	r26, r1
    278c:	b1 09       	sbc	r27, r1
    278e:	a8 16       	cp	r10, r24
    2790:	b9 06       	cpc	r11, r25
    2792:	ca 06       	cpc	r12, r26
    2794:	db 06       	cpc	r13, r27
    2796:	28 f0       	brcs	.+10     	; 0x27a2 <dir_next+0x1a0>
    2798:	20 e0       	ldi	r18, 0x00	; 0
    279a:	30 e0       	ldi	r19, 0x00	; 0
    279c:	40 e0       	ldi	r20, 0x00	; 0
    279e:	50 e0       	ldi	r21, 0x00	; 0
    27a0:	15 c0       	rjmp	.+42     	; 0x27cc <dir_next+0x1ca>
	return clst * fs->csize + fs->database;
    27a2:	d4 01       	movw	r26, r8
    27a4:	12 96       	adiw	r26, 0x02	; 2
    27a6:	2c 91       	ld	r18, X
    27a8:	30 e0       	ldi	r19, 0x00	; 0
    27aa:	40 e0       	ldi	r20, 0x00	; 0
    27ac:	50 e0       	ldi	r21, 0x00	; 0
    27ae:	c6 01       	movw	r24, r12
    27b0:	b5 01       	movw	r22, r10
    27b2:	0e 94 de 2d 	call	0x5bbc	; 0x5bbc <__mulsi3>
    27b6:	9b 01       	movw	r18, r22
    27b8:	ac 01       	movw	r20, r24
    27ba:	f4 01       	movw	r30, r8
    27bc:	82 a5       	ldd	r24, Z+42	; 0x2a
    27be:	93 a5       	ldd	r25, Z+43	; 0x2b
    27c0:	a4 a5       	ldd	r26, Z+44	; 0x2c
    27c2:	b5 a5       	ldd	r27, Z+45	; 0x2d
    27c4:	28 0f       	add	r18, r24
    27c6:	39 1f       	adc	r19, r25
    27c8:	4a 1f       	adc	r20, r26
    27ca:	5b 1f       	adc	r21, r27
					if (clst == 1) return FR_INT_ERR;
					if (clst == 0xFFFFFFFF) return FR_DISK_ERR;
					/* Clean-up stretched table */
					if (move_window(dj->fs, 0)) return FR_DISK_ERR;	/* Flush active window */
					mem_set(dj->fs->win, 0, SS(dj->fs));			/* Clear window buffer */
					dj->fs->winsect = clust2sect(dj->fs, clst);	/* Cluster start sector */
    27cc:	d4 01       	movw	r26, r8
    27ce:	9e 96       	adiw	r26, 0x2e	; 46
    27d0:	2d 93       	st	X+, r18
    27d2:	3d 93       	st	X+, r19
    27d4:	4d 93       	st	X+, r20
    27d6:	5c 93       	st	X, r21
    27d8:	d1 97       	sbiw	r26, 0x31	; 49
    27da:	dd 24       	eor	r13, r13
					for (c = 0; c < dj->fs->csize; c++) {		/* Fill the new cluster with 0 */
						dj->fs->wflag = 1;
    27dc:	cc 24       	eor	r12, r12
    27de:	c3 94       	inc	r12
    27e0:	1a c0       	rjmp	.+52     	; 0x2816 <dir_next+0x214>
    27e2:	c4 82       	std	Z+4, r12	; 0x04
						if (move_window(dj->fs, 0)) return FR_DISK_ERR;
    27e4:	88 81       	ld	r24, Y
    27e6:	99 81       	ldd	r25, Y+1	; 0x01
    27e8:	40 e0       	ldi	r20, 0x00	; 0
    27ea:	50 e0       	ldi	r21, 0x00	; 0
    27ec:	60 e0       	ldi	r22, 0x00	; 0
    27ee:	70 e0       	ldi	r23, 0x00	; 0
    27f0:	0e 94 b9 0d 	call	0x1b72	; 0x1b72 <move_window>
    27f4:	88 23       	and	r24, r24
    27f6:	09 f0       	breq	.+2      	; 0x27fa <dir_next+0x1f8>
    27f8:	6f c0       	rjmp	.+222    	; 0x28d8 <dir_next+0x2d6>
						dj->fs->winsect++;
    27fa:	e8 81       	ld	r30, Y
    27fc:	f9 81       	ldd	r31, Y+1	; 0x01
    27fe:	86 a5       	ldd	r24, Z+46	; 0x2e
    2800:	97 a5       	ldd	r25, Z+47	; 0x2f
    2802:	a0 a9       	ldd	r26, Z+48	; 0x30
    2804:	b1 a9       	ldd	r27, Z+49	; 0x31
    2806:	01 96       	adiw	r24, 0x01	; 1
    2808:	a1 1d       	adc	r26, r1
    280a:	b1 1d       	adc	r27, r1
    280c:	86 a7       	std	Z+46, r24	; 0x2e
    280e:	97 a7       	std	Z+47, r25	; 0x2f
    2810:	a0 ab       	std	Z+48, r26	; 0x30
    2812:	b1 ab       	std	Z+49, r27	; 0x31
					if (clst == 0xFFFFFFFF) return FR_DISK_ERR;
					/* Clean-up stretched table */
					if (move_window(dj->fs, 0)) return FR_DISK_ERR;	/* Flush active window */
					mem_set(dj->fs->win, 0, SS(dj->fs));			/* Clear window buffer */
					dj->fs->winsect = clust2sect(dj->fs, clst);	/* Cluster start sector */
					for (c = 0; c < dj->fs->csize; c++) {		/* Fill the new cluster with 0 */
    2814:	d3 94       	inc	r13
    2816:	e8 81       	ld	r30, Y
    2818:	f9 81       	ldd	r31, Y+1	; 0x01
    281a:	82 81       	ldd	r24, Z+2	; 0x02
    281c:	d8 16       	cp	r13, r24
    281e:	08 f3       	brcs	.-62     	; 0x27e2 <dir_next+0x1e0>
						dj->fs->wflag = 1;
						if (move_window(dj->fs, 0)) return FR_DISK_ERR;
						dj->fs->winsect++;
					}
					dj->fs->winsect -= c;						/* Rewind window address */
    2820:	86 a5       	ldd	r24, Z+46	; 0x2e
    2822:	97 a5       	ldd	r25, Z+47	; 0x2f
    2824:	a0 a9       	ldd	r26, Z+48	; 0x30
    2826:	b1 a9       	ldd	r27, Z+49	; 0x31
    2828:	8d 19       	sub	r24, r13
    282a:	91 09       	sbc	r25, r1
    282c:	a1 09       	sbc	r26, r1
    282e:	b1 09       	sbc	r27, r1
    2830:	86 a7       	std	Z+46, r24	; 0x2e
    2832:	97 a7       	std	Z+47, r25	; 0x2f
    2834:	a0 ab       	std	Z+48, r26	; 0x30
    2836:	b1 ab       	std	Z+49, r27	; 0x31
#else
					return FR_NO_FILE;			/* Report EOT */
#endif
				}
				dj->clust = clst;				/* Initialize data for new cluster */
    2838:	ea 86       	std	Y+10, r14	; 0x0a
    283a:	fb 86       	std	Y+11, r15	; 0x0b
    283c:	0c 87       	std	Y+12, r16	; 0x0c
    283e:	1d 87       	std	Y+13, r17	; 0x0d
				dj->sect = clust2sect(dj->fs, clst);
    2840:	c8 80       	ld	r12, Y
    2842:	d9 80       	ldd	r13, Y+1	; 0x01
DWORD clust2sect (	/* !=0: Sector number, 0: Failed - invalid cluster# */
	FATFS *fs,		/* File system object */
	DWORD clst		/* Cluster# to be converted */
)
{
	clst -= 2;
    2844:	8e ef       	ldi	r24, 0xFE	; 254
    2846:	9f ef       	ldi	r25, 0xFF	; 255
    2848:	af ef       	ldi	r26, 0xFF	; 255
    284a:	bf ef       	ldi	r27, 0xFF	; 255
    284c:	e8 0e       	add	r14, r24
    284e:	f9 1e       	adc	r15, r25
    2850:	0a 1f       	adc	r16, r26
    2852:	1b 1f       	adc	r17, r27
	if (clst >= (fs->n_fatent - 2)) return 0;		/* Invalid cluster# */
    2854:	f6 01       	movw	r30, r12
    2856:	82 8d       	ldd	r24, Z+26	; 0x1a
    2858:	93 8d       	ldd	r25, Z+27	; 0x1b
    285a:	a4 8d       	ldd	r26, Z+28	; 0x1c
    285c:	b5 8d       	ldd	r27, Z+29	; 0x1d
    285e:	02 97       	sbiw	r24, 0x02	; 2
    2860:	a1 09       	sbc	r26, r1
    2862:	b1 09       	sbc	r27, r1
    2864:	e8 16       	cp	r14, r24
    2866:	f9 06       	cpc	r15, r25
    2868:	0a 07       	cpc	r16, r26
    286a:	1b 07       	cpc	r17, r27
    286c:	28 f0       	brcs	.+10     	; 0x2878 <dir_next+0x276>
    286e:	20 e0       	ldi	r18, 0x00	; 0
    2870:	30 e0       	ldi	r19, 0x00	; 0
    2872:	40 e0       	ldi	r20, 0x00	; 0
    2874:	50 e0       	ldi	r21, 0x00	; 0
    2876:	15 c0       	rjmp	.+42     	; 0x28a2 <dir_next+0x2a0>
	return clst * fs->csize + fs->database;
    2878:	d6 01       	movw	r26, r12
    287a:	12 96       	adiw	r26, 0x02	; 2
    287c:	2c 91       	ld	r18, X
    287e:	30 e0       	ldi	r19, 0x00	; 0
    2880:	40 e0       	ldi	r20, 0x00	; 0
    2882:	50 e0       	ldi	r21, 0x00	; 0
    2884:	c8 01       	movw	r24, r16
    2886:	b7 01       	movw	r22, r14
    2888:	0e 94 de 2d 	call	0x5bbc	; 0x5bbc <__mulsi3>
    288c:	9b 01       	movw	r18, r22
    288e:	ac 01       	movw	r20, r24
    2890:	f6 01       	movw	r30, r12
    2892:	82 a5       	ldd	r24, Z+42	; 0x2a
    2894:	93 a5       	ldd	r25, Z+43	; 0x2b
    2896:	a4 a5       	ldd	r26, Z+44	; 0x2c
    2898:	b5 a5       	ldd	r27, Z+45	; 0x2d
    289a:	28 0f       	add	r18, r24
    289c:	39 1f       	adc	r19, r25
    289e:	4a 1f       	adc	r20, r26
    28a0:	5b 1f       	adc	r21, r27
#else
					return FR_NO_FILE;			/* Report EOT */
#endif
				}
				dj->clust = clst;				/* Initialize data for new cluster */
				dj->sect = clust2sect(dj->fs, clst);
    28a2:	2e 87       	std	Y+14, r18	; 0x0e
    28a4:	3f 87       	std	Y+15, r19	; 0x0f
    28a6:	48 8b       	std	Y+16, r20	; 0x10
    28a8:	59 8b       	std	Y+17, r21	; 0x11
			}
		}
	}

	dj->index = i;
    28aa:	7d 82       	std	Y+5, r7	; 0x05
    28ac:	6c 82       	std	Y+4, r6	; 0x04
	dj->dir = dj->fs->win + (i % (SS(dj->fs) / 32)) * 32;
    28ae:	05 e0       	ldi	r16, 0x05	; 5
    28b0:	44 0c       	add	r4, r4
    28b2:	55 1c       	adc	r5, r5
    28b4:	0a 95       	dec	r16
    28b6:	e1 f7       	brne	.-8      	; 0x28b0 <dir_next+0x2ae>
    28b8:	82 e3       	ldi	r24, 0x32	; 50
    28ba:	90 e0       	ldi	r25, 0x00	; 0
    28bc:	48 0e       	add	r4, r24
    28be:	59 1e       	adc	r5, r25
    28c0:	88 81       	ld	r24, Y
    28c2:	99 81       	ldd	r25, Y+1	; 0x01
    28c4:	84 0d       	add	r24, r4
    28c6:	95 1d       	adc	r25, r5
    28c8:	9b 8b       	std	Y+19, r25	; 0x13
    28ca:	8a 8b       	std	Y+18, r24	; 0x12
    28cc:	80 e0       	ldi	r24, 0x00	; 0
    28ce:	05 c0       	rjmp	.+10     	; 0x28da <dir_next+0x2d8>

	return FR_OK;
    28d0:	84 e0       	ldi	r24, 0x04	; 4
    28d2:	03 c0       	rjmp	.+6      	; 0x28da <dir_next+0x2d8>
    28d4:	82 e0       	ldi	r24, 0x02	; 2
    28d6:	01 c0       	rjmp	.+2      	; 0x28da <dir_next+0x2d8>
    28d8:	81 e0       	ldi	r24, 0x01	; 1
}
    28da:	df 91       	pop	r29
    28dc:	cf 91       	pop	r28
    28de:	1f 91       	pop	r17
    28e0:	0f 91       	pop	r16
    28e2:	ff 90       	pop	r15
    28e4:	ef 90       	pop	r14
    28e6:	df 90       	pop	r13
    28e8:	cf 90       	pop	r12
    28ea:	bf 90       	pop	r11
    28ec:	af 90       	pop	r10
    28ee:	9f 90       	pop	r9
    28f0:	8f 90       	pop	r8
    28f2:	7f 90       	pop	r7
    28f4:	6f 90       	pop	r6
    28f6:	5f 90       	pop	r5
    28f8:	4f 90       	pop	r4
    28fa:	08 95       	ret

000028fc <follow_path>:
static
FRESULT follow_path (	/* FR_OK(0): successful, !=0: error code */
	DIR *dj,			/* Directory object to return last directory and found object */
	const TCHAR *path	/* Full-path string to find a file or directory */
)
{
    28fc:	af 92       	push	r10
    28fe:	bf 92       	push	r11
    2900:	cf 92       	push	r12
    2902:	df 92       	push	r13
    2904:	ef 92       	push	r14
    2906:	ff 92       	push	r15
    2908:	0f 93       	push	r16
    290a:	1f 93       	push	r17
    290c:	cf 93       	push	r28
    290e:	df 93       	push	r29
    2910:	ec 01       	movw	r28, r24
    2912:	7b 01       	movw	r14, r22
	FRESULT res;
	BYTE *dir, ns;


#if _FS_RPATH
	if (*path == '/' || *path == '\\') { /* There is a heading separator */
    2914:	fb 01       	movw	r30, r22
    2916:	80 81       	ld	r24, Z
    2918:	8f 32       	cpi	r24, 0x2F	; 47
    291a:	11 f0       	breq	.+4      	; 0x2920 <follow_path+0x24>
    291c:	8c 35       	cpi	r24, 0x5C	; 92
    291e:	41 f4       	brne	.+16     	; 0x2930 <follow_path+0x34>
		path++;	dj->sclust = 0;		/* Strip it and start from the root dir */
    2920:	08 94       	sec
    2922:	e1 1c       	adc	r14, r1
    2924:	f1 1c       	adc	r15, r1
    2926:	1e 82       	std	Y+6, r1	; 0x06
    2928:	1f 82       	std	Y+7, r1	; 0x07
    292a:	18 86       	std	Y+8, r1	; 0x08
    292c:	19 86       	std	Y+9, r1	; 0x09
    292e:	0a c0       	rjmp	.+20     	; 0x2944 <follow_path+0x48>
	} else {							/* No heading separator */
		dj->sclust = dj->fs->cdir;	/* Start from the current dir */
    2930:	e8 81       	ld	r30, Y
    2932:	f9 81       	ldd	r31, Y+1	; 0x01
    2934:	86 89       	ldd	r24, Z+22	; 0x16
    2936:	97 89       	ldd	r25, Z+23	; 0x17
    2938:	a0 8d       	ldd	r26, Z+24	; 0x18
    293a:	b1 8d       	ldd	r27, Z+25	; 0x19
    293c:	8e 83       	std	Y+6, r24	; 0x06
    293e:	9f 83       	std	Y+7, r25	; 0x07
    2940:	a8 87       	std	Y+8, r26	; 0x08
    2942:	b9 87       	std	Y+9, r27	; 0x09
	if (*path == '/' || *path == '\\')	/* Strip heading separator if exist */
		path++;
	dj->sclust = 0;						/* Start from the root dir */
#endif

	if ((UINT)*path < ' ') {			/* Nul path means the start directory itself */
    2944:	f7 01       	movw	r30, r14
    2946:	80 81       	ld	r24, Z
    2948:	80 32       	cpi	r24, 0x20	; 32
    294a:	48 f4       	brcc	.+18     	; 0x295e <follow_path+0x62>
		res = dir_sdi(dj, 0);
    294c:	ce 01       	movw	r24, r28
    294e:	60 e0       	ldi	r22, 0x00	; 0
    2950:	70 e0       	ldi	r23, 0x00	; 0
    2952:	0e 94 fc 0f 	call	0x1ff8	; 0x1ff8 <dir_sdi>
    2956:	48 2f       	mov	r20, r24
		dj->dir = 0;
    2958:	1b 8a       	std	Y+19, r1	; 0x13
    295a:	1a 8a       	std	Y+18, r1	; 0x12
    295c:	10 c1       	rjmp	.+544    	; 0x2b7e <follow_path+0x282>
static
void mem_set (void* dst, int val, UINT cnt) {
	BYTE *d = (BYTE*)dst;

	while (cnt--)
		*d++ = (BYTE)val;
    295e:	90 e2       	ldi	r25, 0x20	; 32
    2960:	b9 2e       	mov	r11, r25
	}
	*path = &p[si];						/* Return pointer to the next segment */
	c = (c <= ' ') ? NS_LAST : 0;		/* Set last segment flag if end of path */

	if (!i) return FR_INVALID_NAME;		/* Reject nul string */
	if (sfn[0] == 0xE5) sfn[0] = 0x05;	/* When first char collides with 0xE5, replace it with 0x05 */
    2962:	85 e0       	ldi	r24, 0x05	; 5
    2964:	a8 2e       	mov	r10, r24
	BYTE b, c, d, *sfn;
	UINT ni, si, i;
	const char *p;

	/* Create file name in directory form */
	sfn = dj->fn;
    2966:	0c 89       	ldd	r16, Y+20	; 0x14
    2968:	1d 89       	ldd	r17, Y+21	; 0x15
    296a:	f8 01       	movw	r30, r16
    296c:	8b e0       	ldi	r24, 0x0B	; 11
    296e:	90 e0       	ldi	r25, 0x00	; 0
    2970:	01 c0       	rjmp	.+2      	; 0x2974 <follow_path+0x78>
static
void mem_set (void* dst, int val, UINT cnt) {
	BYTE *d = (BYTE*)dst;

	while (cnt--)
		*d++ = (BYTE)val;
    2972:	b1 92       	st	Z+, r11
/* Fill memory */
static
void mem_set (void* dst, int val, UINT cnt) {
	BYTE *d = (BYTE*)dst;

	while (cnt--)
    2974:	01 97       	sbiw	r24, 0x01	; 1
    2976:	2f ef       	ldi	r18, 0xFF	; 255
    2978:	8f 3f       	cpi	r24, 0xFF	; 255
    297a:	92 07       	cpc	r25, r18
    297c:	d1 f7       	brne	.-12     	; 0x2972 <follow_path+0x76>
	sfn = dj->fn;
	mem_set(sfn, ' ', 11);
	si = i = b = 0; ni = 8;
	p = *path;
#if _FS_RPATH
	if (p[si] == '.') { /* Is this a dot entry? */
    297e:	f7 01       	movw	r30, r14
    2980:	80 81       	ld	r24, Z
    2982:	8e 32       	cpi	r24, 0x2E	; 46
    2984:	41 f0       	breq	.+16     	; 0x2996 <follow_path+0x9a>
    2986:	60 e0       	ldi	r22, 0x00	; 0
    2988:	70 e0       	ldi	r23, 0x00	; 0
    298a:	cc 24       	eor	r12, r12
    298c:	dd 24       	eor	r13, r13
    298e:	a8 e0       	ldi	r26, 0x08	; 8
    2990:	b0 e0       	ldi	r27, 0x00	; 0
    2992:	30 e0       	ldi	r19, 0x00	; 0
    2994:	21 c0       	rjmp	.+66     	; 0x29d8 <follow_path+0xdc>
    2996:	d8 01       	movw	r26, r16
    2998:	80 e0       	ldi	r24, 0x00	; 0
    299a:	90 e0       	ldi	r25, 0x00	; 0
		for (;;) {
			c = (BYTE)p[si++];
    299c:	f7 01       	movw	r30, r14
    299e:	e8 0f       	add	r30, r24
    29a0:	f9 1f       	adc	r31, r25
    29a2:	e0 81       	ld	r30, Z
    29a4:	01 96       	adiw	r24, 0x01	; 1
			if (c != '.' || si >= 3) break;
    29a6:	ee 32       	cpi	r30, 0x2E	; 46
    29a8:	31 f4       	brne	.+12     	; 0x29b6 <follow_path+0xba>
    29aa:	83 30       	cpi	r24, 0x03	; 3
    29ac:	91 05       	cpc	r25, r1
    29ae:	09 f4       	brne	.+2      	; 0x29b2 <follow_path+0xb6>
    29b0:	e3 c0       	rjmp	.+454    	; 0x2b78 <follow_path+0x27c>
			sfn[i++] = c;
    29b2:	ed 93       	st	X+, r30
    29b4:	f3 cf       	rjmp	.-26     	; 0x299c <follow_path+0xa0>
		}
		if (c != '/' && c != '\\' && c > ' ') return FR_INVALID_NAME;
    29b6:	ef 32       	cpi	r30, 0x2F	; 47
    29b8:	29 f0       	breq	.+10     	; 0x29c4 <follow_path+0xc8>
    29ba:	ec 35       	cpi	r30, 0x5C	; 92
    29bc:	39 f0       	breq	.+14     	; 0x29cc <follow_path+0xd0>
    29be:	e1 32       	cpi	r30, 0x21	; 33
    29c0:	08 f0       	brcs	.+2      	; 0x29c4 <follow_path+0xc8>
    29c2:	da c0       	rjmp	.+436    	; 0x2b78 <follow_path+0x27c>
		*path = &p[si];									/* Return pointer to the next segment */
		sfn[NS] = (c <= ' ') ? NS_LAST | NS_DOT : NS_DOT;	/* Set last segment flag if end of path */
    29c4:	e1 32       	cpi	r30, 0x21	; 33
    29c6:	10 f4       	brcc	.+4      	; 0x29cc <follow_path+0xd0>
    29c8:	24 e2       	ldi	r18, 0x24	; 36
    29ca:	01 c0       	rjmp	.+2      	; 0x29ce <follow_path+0xd2>
    29cc:	20 e2       	ldi	r18, 0x20	; 32
			c = (BYTE)p[si++];
			if (c != '.' || si >= 3) break;
			sfn[i++] = c;
		}
		if (c != '/' && c != '\\' && c > ' ') return FR_INVALID_NAME;
		*path = &p[si];									/* Return pointer to the next segment */
    29ce:	e8 0e       	add	r14, r24
    29d0:	f9 1e       	adc	r15, r25
		sfn[NS] = (c <= ' ') ? NS_LAST | NS_DOT : NS_DOT;	/* Set last segment flag if end of path */
    29d2:	f8 01       	movw	r30, r16
    29d4:	23 87       	std	Z+11, r18	; 0x0b
    29d6:	df c0       	rjmp	.+446    	; 0x2b96 <follow_path+0x29a>
		return FR_OK;
	}
#endif
	for (;;) {
		c = (BYTE)p[si++];
    29d8:	f7 01       	movw	r30, r14
    29da:	ec 0d       	add	r30, r12
    29dc:	fd 1d       	adc	r31, r13
    29de:	20 81       	ld	r18, Z
    29e0:	08 94       	sec
    29e2:	c1 1c       	adc	r12, r1
    29e4:	d1 1c       	adc	r13, r1
		if (c <= ' ' || c == '/' || c == '\\') break;	/* Break on end of segment */
    29e6:	21 32       	cpi	r18, 0x21	; 33
    29e8:	08 f4       	brcc	.+2      	; 0x29ec <follow_path+0xf0>
    29ea:	41 c0       	rjmp	.+130    	; 0x2a6e <follow_path+0x172>
    29ec:	2f 32       	cpi	r18, 0x2F	; 47
    29ee:	09 f4       	brne	.+2      	; 0x29f2 <follow_path+0xf6>
    29f0:	dc c0       	rjmp	.+440    	; 0x2baa <follow_path+0x2ae>
    29f2:	2c 35       	cpi	r18, 0x5C	; 92
    29f4:	09 f4       	brne	.+2      	; 0x29f8 <follow_path+0xfc>
    29f6:	d9 c0       	rjmp	.+434    	; 0x2baa <follow_path+0x2ae>
		if (c == '.' || i >= ni) {
    29f8:	2e 32       	cpi	r18, 0x2E	; 46
    29fa:	19 f0       	breq	.+6      	; 0x2a02 <follow_path+0x106>
    29fc:	6a 17       	cp	r22, r26
    29fe:	7b 07       	cpc	r23, r27
    2a00:	68 f0       	brcs	.+26     	; 0x2a1c <follow_path+0x120>
			if (ni != 8 || c != '.') return FR_INVALID_NAME;
    2a02:	18 97       	sbiw	r26, 0x08	; 8
    2a04:	09 f0       	breq	.+2      	; 0x2a08 <follow_path+0x10c>
    2a06:	b8 c0       	rjmp	.+368    	; 0x2b78 <follow_path+0x27c>
    2a08:	2e 32       	cpi	r18, 0x2E	; 46
    2a0a:	09 f0       	breq	.+2      	; 0x2a0e <follow_path+0x112>
    2a0c:	b5 c0       	rjmp	.+362    	; 0x2b78 <follow_path+0x27c>
			i = 8; ni = 11;
			b <<= 2; continue;
    2a0e:	33 0f       	add	r19, r19
    2a10:	33 0f       	add	r19, r19
    2a12:	68 e0       	ldi	r22, 0x08	; 8
    2a14:	70 e0       	ldi	r23, 0x00	; 0
    2a16:	ab e0       	ldi	r26, 0x0B	; 11
    2a18:	b0 e0       	ldi	r27, 0x00	; 0
    2a1a:	de cf       	rjmp	.-68     	; 0x29d8 <follow_path+0xdc>
		}
		if (c >= 0x80) {				/* Extended char? */
    2a1c:	27 ff       	sbrs	r18, 7
    2a1e:	06 c0       	rjmp	.+12     	; 0x2a2c <follow_path+0x130>
			b |= 3;						/* Eliminate NT flag */
    2a20:	33 60       	ori	r19, 0x03	; 3
#ifdef _EXCVT
			c = excvt[c-0x80];			/* Upper conversion (SBCS) */
    2a22:	e2 2f       	mov	r30, r18
    2a24:	f0 e0       	ldi	r31, 0x00	; 0
    2a26:	e3 53       	subi	r30, 0x33	; 51
    2a28:	ff 4f       	sbci	r31, 0xFF	; 255
    2a2a:	20 81       	ld	r18, Z
			if (!IsDBCS2(d) || i >= ni - 1)	/* Reject invalid DBC */
				return FR_INVALID_NAME;
			sfn[i++] = c;
			sfn[i++] = d;
		} else {						/* Single byte code */
			if (chk_chr("\"*+,:;<=>\?[]|\x7F", c))	/* Reject illegal chrs for SFN */
    2a2c:	42 2f       	mov	r20, r18
    2a2e:	50 e0       	ldi	r21, 0x00	; 0
    2a30:	ee e3       	ldi	r30, 0x3E	; 62
    2a32:	f1 e0       	ldi	r31, 0x01	; 1
    2a34:	01 c0       	rjmp	.+2      	; 0x2a38 <follow_path+0x13c>
}

/* Check if chr is contained in the string */
static
int chk_chr (const char* str, int chr) {
	while (*str && *str != chr) str++;
    2a36:	31 96       	adiw	r30, 0x01	; 1
    2a38:	80 81       	ld	r24, Z
    2a3a:	88 23       	and	r24, r24
    2a3c:	29 f0       	breq	.+10     	; 0x2a48 <follow_path+0x14c>
    2a3e:	90 e0       	ldi	r25, 0x00	; 0
    2a40:	84 17       	cp	r24, r20
    2a42:	95 07       	cpc	r25, r21
    2a44:	c1 f7       	brne	.-16     	; 0x2a36 <follow_path+0x13a>
    2a46:	98 c0       	rjmp	.+304    	; 0x2b78 <follow_path+0x27c>
			sfn[i++] = c;
			sfn[i++] = d;
		} else {						/* Single byte code */
			if (chk_chr("\"*+,:;<=>\?[]|\x7F", c))	/* Reject illegal chrs for SFN */
				return FR_INVALID_NAME;
			if (IsUpper(c)) {			/* ASCII large capital? */
    2a48:	82 2f       	mov	r24, r18
    2a4a:	81 54       	subi	r24, 0x41	; 65
    2a4c:	8a 31       	cpi	r24, 0x1A	; 26
    2a4e:	10 f4       	brcc	.+4      	; 0x2a54 <follow_path+0x158>
				b |= 2;
    2a50:	32 60       	ori	r19, 0x02	; 2
    2a52:	06 c0       	rjmp	.+12     	; 0x2a60 <follow_path+0x164>
			} else {
				if (IsLower(c)) {		/* ASCII small capital? */
    2a54:	82 2f       	mov	r24, r18
    2a56:	81 56       	subi	r24, 0x61	; 97
    2a58:	8a 31       	cpi	r24, 0x1A	; 26
    2a5a:	10 f4       	brcc	.+4      	; 0x2a60 <follow_path+0x164>
					b |= 1; c -= 0x20;
    2a5c:	31 60       	ori	r19, 0x01	; 1
    2a5e:	20 52       	subi	r18, 0x20	; 32
				}
			}
			sfn[i++] = c;
    2a60:	f8 01       	movw	r30, r16
    2a62:	e6 0f       	add	r30, r22
    2a64:	f7 1f       	adc	r31, r23
    2a66:	20 83       	st	Z, r18
    2a68:	6f 5f       	subi	r22, 0xFF	; 255
    2a6a:	7f 4f       	sbci	r23, 0xFF	; 255
    2a6c:	b5 cf       	rjmp	.-150    	; 0x29d8 <follow_path+0xdc>
    2a6e:	44 e0       	ldi	r20, 0x04	; 4
		}
	}
	*path = &p[si];						/* Return pointer to the next segment */
	c = (c <= ' ') ? NS_LAST : 0;		/* Set last segment flag if end of path */

	if (!i) return FR_INVALID_NAME;		/* Reject nul string */
    2a70:	67 2b       	or	r22, r23
    2a72:	09 f4       	brne	.+2      	; 0x2a76 <follow_path+0x17a>
    2a74:	81 c0       	rjmp	.+258    	; 0x2b78 <follow_path+0x27c>
	if (sfn[0] == 0xE5) sfn[0] = 0x05;	/* When first char collides with 0xE5, replace it with 0x05 */
    2a76:	f8 01       	movw	r30, r16
    2a78:	80 81       	ld	r24, Z
    2a7a:	85 3e       	cpi	r24, 0xE5	; 229
    2a7c:	09 f4       	brne	.+2      	; 0x2a80 <follow_path+0x184>
    2a7e:	a0 82       	st	Z, r10

	if (ni == 8) b <<= 2;
    2a80:	18 97       	sbiw	r26, 0x08	; 8
    2a82:	11 f4       	brne	.+4      	; 0x2a88 <follow_path+0x18c>
    2a84:	33 0f       	add	r19, r19
    2a86:	33 0f       	add	r19, r19
	if ((b & 0x03) == 0x01) c |= NS_EXT;	/* NT flag (Name extension has only small capital) */
    2a88:	23 2f       	mov	r18, r19
    2a8a:	30 e0       	ldi	r19, 0x00	; 0
    2a8c:	c9 01       	movw	r24, r18
    2a8e:	83 70       	andi	r24, 0x03	; 3
    2a90:	90 70       	andi	r25, 0x00	; 0
    2a92:	01 97       	sbiw	r24, 0x01	; 1
    2a94:	09 f4       	brne	.+2      	; 0x2a98 <follow_path+0x19c>
    2a96:	40 61       	ori	r20, 0x10	; 16
	if ((b & 0x0C) == 0x04) c |= NS_BODY;	/* NT flag (Name body has only small capital) */
    2a98:	2c 70       	andi	r18, 0x0C	; 12
    2a9a:	30 70       	andi	r19, 0x00	; 0
    2a9c:	24 30       	cpi	r18, 0x04	; 4
    2a9e:	31 05       	cpc	r19, r1
    2aa0:	09 f4       	brne	.+2      	; 0x2aa4 <follow_path+0x1a8>
    2aa2:	48 60       	ori	r20, 0x08	; 8
				}
			}
			sfn[i++] = c;
		}
	}
	*path = &p[si];						/* Return pointer to the next segment */
    2aa4:	ec 0c       	add	r14, r12
    2aa6:	fd 1c       	adc	r15, r13

	if (ni == 8) b <<= 2;
	if ((b & 0x03) == 0x01) c |= NS_EXT;	/* NT flag (Name extension has only small capital) */
	if ((b & 0x0C) == 0x04) c |= NS_BODY;	/* NT flag (Name body has only small capital) */

	sfn[NS] = c;		/* Store NT flag, File name is created */
    2aa8:	f8 01       	movw	r30, r16
    2aaa:	43 87       	std	Z+11, r20	; 0x0b
    2aac:	74 c0       	rjmp	.+232    	; 0x2b96 <follow_path+0x29a>

#if _USE_LFN
	ord = sum = 0xFF;
#endif
	do {
		res = move_window(dj->fs, dj->sect);
    2aae:	4e 85       	ldd	r20, Y+14	; 0x0e
    2ab0:	5f 85       	ldd	r21, Y+15	; 0x0f
    2ab2:	68 89       	ldd	r22, Y+16	; 0x10
    2ab4:	79 89       	ldd	r23, Y+17	; 0x11
    2ab6:	88 81       	ld	r24, Y
    2ab8:	99 81       	ldd	r25, Y+1	; 0x01
    2aba:	0e 94 b9 0d 	call	0x1b72	; 0x1b72 <move_window>
    2abe:	48 2f       	mov	r20, r24
		if (res != FR_OK) break;
    2ac0:	88 23       	and	r24, r24
    2ac2:	21 f5       	brne	.+72     	; 0x2b0c <follow_path+0x210>
		dir = dj->dir;					/* Ptr to the directory entry of current index */
    2ac4:	ea 89       	ldd	r30, Y+18	; 0x12
    2ac6:	fb 89       	ldd	r31, Y+19	; 0x13
		c = dir[DIR_Name];
		if (c == 0) { res = FR_NO_FILE; break; }	/* Reached to end of table */
    2ac8:	80 81       	ld	r24, Z
    2aca:	88 23       	and	r24, r24
    2acc:	11 f4       	brne	.+4      	; 0x2ad2 <follow_path+0x1d6>
    2ace:	44 e0       	ldi	r20, 0x04	; 4
    2ad0:	1d c0       	rjmp	.+58     	; 0x2b0c <follow_path+0x210>
				ord = 0xFF; dj->lfn_idx = 0xFFFF;	/* Reset LFN sequence */
				if (!(dj->fn[NS] & NS_LOSS) && !mem_cmp(dir, dj->fn, 11)) break;	/* SFN matched? */
			}
		}
#else		/* Non LFN configuration */
		if (!(dir[DIR_Attr] & AM_VOL) && !mem_cmp(dir, dj->fn, 11)) /* Is it a valid entry? */
    2ad2:	83 85       	ldd	r24, Z+11	; 0x0b
    2ad4:	83 fd       	sbrc	r24, 3
    2ad6:	14 c0       	rjmp	.+40     	; 0x2b00 <follow_path+0x204>
    2ad8:	df 01       	movw	r26, r30
    2ada:	8c 89       	ldd	r24, Y+20	; 0x14
    2adc:	9d 89       	ldd	r25, Y+21	; 0x15
    2ade:	9c 01       	movw	r18, r24
    2ae0:	f9 01       	movw	r30, r18
    2ae2:	2b e0       	ldi	r18, 0x0B	; 11
    2ae4:	30 e0       	ldi	r19, 0x00	; 0
static
int mem_cmp (const void* dst, const void* src, UINT cnt) {
	const BYTE *d = (const BYTE *)dst, *s = (const BYTE *)src;
	int r = 0;

	while (cnt-- && (r = *d++ - *s++) == 0) ;
    2ae6:	21 50       	subi	r18, 0x01	; 1
    2ae8:	30 40       	sbci	r19, 0x00	; 0
    2aea:	8f ef       	ldi	r24, 0xFF	; 255
    2aec:	2f 3f       	cpi	r18, 0xFF	; 255
    2aee:	38 07       	cpc	r19, r24
    2af0:	69 f0       	breq	.+26     	; 0x2b0c <follow_path+0x210>
    2af2:	9c 91       	ld	r25, X
    2af4:	80 81       	ld	r24, Z
    2af6:	98 17       	cp	r25, r24
    2af8:	19 f4       	brne	.+6      	; 0x2b00 <follow_path+0x204>
    2afa:	11 96       	adiw	r26, 0x01	; 1
    2afc:	31 96       	adiw	r30, 0x01	; 1
    2afe:	f3 cf       	rjmp	.-26     	; 0x2ae6 <follow_path+0x1ea>
		}
#else		/* Non LFN configuration */
		if (!(dir[DIR_Attr] & AM_VOL) && !mem_cmp(dir, dj->fn, 11)) /* Is it a valid entry? */
			break;
#endif
		res = dir_next(dj, 0);		/* Next entry */
    2b00:	ce 01       	movw	r24, r28
    2b02:	60 e0       	ldi	r22, 0x00	; 0
    2b04:	70 e0       	ldi	r23, 0x00	; 0
    2b06:	0e 94 01 13 	call	0x2602	; 0x2602 <dir_next>
    2b0a:	4a c0       	rjmp	.+148    	; 0x2ba0 <follow_path+0x2a4>
	} else {							/* Follow path */
		for (;;) {
			res = create_name(dj, &path);	/* Get a segment */
			if (res != FR_OK) break;
			res = dir_find(dj);				/* Find it */
			ns = *(dj->fn+NS);
    2b0c:	ec 89       	ldd	r30, Y+20	; 0x14
    2b0e:	fd 89       	ldd	r31, Y+21	; 0x15
    2b10:	83 85       	ldd	r24, Z+11	; 0x0b
			if (res != FR_OK) {				/* Failed to find the object */
    2b12:	44 23       	and	r20, r20
    2b14:	b1 f0       	breq	.+44     	; 0x2b42 <follow_path+0x246>
				if (res != FR_NO_FILE) break;	/* Abort if any hard error occured */
    2b16:	44 30       	cpi	r20, 0x04	; 4
    2b18:	91 f5       	brne	.+100    	; 0x2b7e <follow_path+0x282>
				/* Object not found */
				if (_FS_RPATH && (ns & NS_DOT)) {	/* If dot entry is not exit */
    2b1a:	90 e0       	ldi	r25, 0x00	; 0
    2b1c:	9c 01       	movw	r18, r24
    2b1e:	24 70       	andi	r18, 0x04	; 4
    2b20:	30 70       	andi	r19, 0x00	; 0
    2b22:	85 ff       	sbrs	r24, 5
    2b24:	0b c0       	rjmp	.+22     	; 0x2b3c <follow_path+0x240>
					dj->sclust = 0; dj->dir = 0;	/* It is the root dir */
    2b26:	1e 82       	std	Y+6, r1	; 0x06
    2b28:	1f 82       	std	Y+7, r1	; 0x07
    2b2a:	18 86       	std	Y+8, r1	; 0x08
    2b2c:	19 86       	std	Y+9, r1	; 0x09
    2b2e:	1b 8a       	std	Y+19, r1	; 0x13
    2b30:	1a 8a       	std	Y+18, r1	; 0x12
					res = FR_OK;
					if (!(ns & NS_LAST)) continue;
    2b32:	23 2b       	or	r18, r19
    2b34:	09 f4       	brne	.+2      	; 0x2b38 <follow_path+0x23c>
    2b36:	17 cf       	rjmp	.-466    	; 0x2966 <follow_path+0x6a>
    2b38:	40 e0       	ldi	r20, 0x00	; 0
    2b3a:	21 c0       	rjmp	.+66     	; 0x2b7e <follow_path+0x282>
				} else {							/* Could not find the object */
					if (!(ns & NS_LAST)) res = FR_NO_PATH;
    2b3c:	23 2b       	or	r18, r19
    2b3e:	f1 f0       	breq	.+60     	; 0x2b7c <follow_path+0x280>
    2b40:	1e c0       	rjmp	.+60     	; 0x2b7e <follow_path+0x282>
				}
				break;
			}
			if (ns & NS_LAST) break;			/* Last segment match. Function completed. */
    2b42:	82 fd       	sbrc	r24, 2
    2b44:	1c c0       	rjmp	.+56     	; 0x2b7e <follow_path+0x282>
			dir = dj->dir;						/* There is next segment. Follow the sub directory */
    2b46:	ea 89       	ldd	r30, Y+18	; 0x12
    2b48:	fb 89       	ldd	r31, Y+19	; 0x13
			if (!(dir[DIR_Attr] & AM_DIR)) {	/* Cannot follow because it is a file */
    2b4a:	83 85       	ldd	r24, Z+11	; 0x0b
    2b4c:	84 ff       	sbrs	r24, 4
    2b4e:	16 c0       	rjmp	.+44     	; 0x2b7c <follow_path+0x280>
				res = FR_NO_PATH; break;
			}
			dj->sclust = LD_CLUST(dir);
    2b50:	84 89       	ldd	r24, Z+20	; 0x14
    2b52:	95 89       	ldd	r25, Z+21	; 0x15
    2b54:	a0 e0       	ldi	r26, 0x00	; 0
    2b56:	b0 e0       	ldi	r27, 0x00	; 0
    2b58:	dc 01       	movw	r26, r24
    2b5a:	99 27       	eor	r25, r25
    2b5c:	88 27       	eor	r24, r24
    2b5e:	22 8d       	ldd	r18, Z+26	; 0x1a
    2b60:	33 8d       	ldd	r19, Z+27	; 0x1b
    2b62:	40 e0       	ldi	r20, 0x00	; 0
    2b64:	50 e0       	ldi	r21, 0x00	; 0
    2b66:	82 2b       	or	r24, r18
    2b68:	93 2b       	or	r25, r19
    2b6a:	a4 2b       	or	r26, r20
    2b6c:	b5 2b       	or	r27, r21
    2b6e:	8e 83       	std	Y+6, r24	; 0x06
    2b70:	9f 83       	std	Y+7, r25	; 0x07
    2b72:	a8 87       	std	Y+8, r26	; 0x08
    2b74:	b9 87       	std	Y+9, r27	; 0x09
    2b76:	f7 ce       	rjmp	.-530    	; 0x2966 <follow_path+0x6a>
    2b78:	46 e0       	ldi	r20, 0x06	; 6
    2b7a:	01 c0       	rjmp	.+2      	; 0x2b7e <follow_path+0x282>
    2b7c:	45 e0       	ldi	r20, 0x05	; 5
		}
	}

	return res;
}
    2b7e:	84 2f       	mov	r24, r20
    2b80:	df 91       	pop	r29
    2b82:	cf 91       	pop	r28
    2b84:	1f 91       	pop	r17
    2b86:	0f 91       	pop	r16
    2b88:	ff 90       	pop	r15
    2b8a:	ef 90       	pop	r14
    2b8c:	df 90       	pop	r13
    2b8e:	cf 90       	pop	r12
    2b90:	bf 90       	pop	r11
    2b92:	af 90       	pop	r10
    2b94:	08 95       	ret
	BYTE c, *dir;
#if _USE_LFN
	BYTE a, ord, sum;
#endif

	res = dir_sdi(dj, 0);			/* Rewind directory object */
    2b96:	ce 01       	movw	r24, r28
    2b98:	60 e0       	ldi	r22, 0x00	; 0
    2b9a:	70 e0       	ldi	r23, 0x00	; 0
    2b9c:	0e 94 fc 0f 	call	0x1ff8	; 0x1ff8 <dir_sdi>
    2ba0:	48 2f       	mov	r20, r24
	if (res != FR_OK) return res;
    2ba2:	88 23       	and	r24, r24
    2ba4:	09 f4       	brne	.+2      	; 0x2ba8 <follow_path+0x2ac>
    2ba6:	83 cf       	rjmp	.-250    	; 0x2aae <follow_path+0x1b2>
    2ba8:	b1 cf       	rjmp	.-158    	; 0x2b0c <follow_path+0x210>
    2baa:	40 e0       	ldi	r20, 0x00	; 0
    2bac:	61 cf       	rjmp	.-318    	; 0x2a70 <follow_path+0x174>

00002bae <f_stat>:

FRESULT f_stat (
	const TCHAR *path,	/* Pointer to the file path */
	FILINFO *fno		/* Pointer to file information to return */
)
{
    2bae:	cf 92       	push	r12
    2bb0:	df 92       	push	r13
    2bb2:	ef 92       	push	r14
    2bb4:	ff 92       	push	r15
    2bb6:	1f 93       	push	r17
    2bb8:	df 93       	push	r29
    2bba:	cf 93       	push	r28
    2bbc:	cd b7       	in	r28, 0x3d	; 61
    2bbe:	de b7       	in	r29, 0x3e	; 62
    2bc0:	a4 97       	sbiw	r28, 0x24	; 36
    2bc2:	0f b6       	in	r0, 0x3f	; 63
    2bc4:	f8 94       	cli
    2bc6:	de bf       	out	0x3e, r29	; 62
    2bc8:	0f be       	out	0x3f, r0	; 63
    2bca:	cd bf       	out	0x3d, r28	; 61
    2bcc:	9c a3       	std	Y+36, r25	; 0x24
    2bce:	8b a3       	std	Y+35, r24	; 0x23
    2bd0:	6b 01       	movw	r12, r22
	FRESULT res;
	DIR dj;
	DEF_NAMEBUF;


	res = chk_mounted(&path, &dj.fs, 0);
    2bd2:	2d e0       	ldi	r18, 0x0D	; 13
    2bd4:	e2 2e       	mov	r14, r18
    2bd6:	f1 2c       	mov	r15, r1
    2bd8:	ec 0e       	add	r14, r28
    2bda:	fd 1e       	adc	r15, r29
    2bdc:	ce 01       	movw	r24, r28
    2bde:	83 96       	adiw	r24, 0x23	; 35
    2be0:	b7 01       	movw	r22, r14
    2be2:	40 e0       	ldi	r20, 0x00	; 0
    2be4:	0e 94 9a 0a 	call	0x1534	; 0x1534 <chk_mounted>
    2be8:	18 2f       	mov	r17, r24
	if (res == FR_OK) {
    2bea:	88 23       	and	r24, r24
    2bec:	b1 f4       	brne	.+44     	; 0x2c1a <f_stat+0x6c>
		INIT_BUF(dj);
    2bee:	ce 01       	movw	r24, r28
    2bf0:	01 96       	adiw	r24, 0x01	; 1
    2bf2:	9a a3       	std	Y+34, r25	; 0x22
    2bf4:	89 a3       	std	Y+33, r24	; 0x21
		res = follow_path(&dj, path);	/* Follow the file path */
    2bf6:	6b a1       	ldd	r22, Y+35	; 0x23
    2bf8:	7c a1       	ldd	r23, Y+36	; 0x24
    2bfa:	c7 01       	movw	r24, r14
    2bfc:	0e 94 7e 14 	call	0x28fc	; 0x28fc <follow_path>
    2c00:	18 2f       	mov	r17, r24
		if (res == FR_OK) {				/* Follow completed */
    2c02:	88 23       	and	r24, r24
    2c04:	51 f4       	brne	.+20     	; 0x2c1a <f_stat+0x6c>
			if (dj.dir)		/* Found an object */
    2c06:	8f 8d       	ldd	r24, Y+31	; 0x1f
    2c08:	98 a1       	ldd	r25, Y+32	; 0x20
    2c0a:	89 2b       	or	r24, r25
    2c0c:	11 f4       	brne	.+4      	; 0x2c12 <f_stat+0x64>
    2c0e:	16 e0       	ldi	r17, 0x06	; 6
    2c10:	04 c0       	rjmp	.+8      	; 0x2c1a <f_stat+0x6c>
				get_fileinfo(&dj, fno);
    2c12:	c7 01       	movw	r24, r14
    2c14:	b6 01       	movw	r22, r12
    2c16:	0e 94 09 0a 	call	0x1412	; 0x1412 <get_fileinfo>
		}
		FREE_BUF();
	}

	LEAVE_FF(dj.fs, res);
}
    2c1a:	81 2f       	mov	r24, r17
    2c1c:	a4 96       	adiw	r28, 0x24	; 36
    2c1e:	0f b6       	in	r0, 0x3f	; 63
    2c20:	f8 94       	cli
    2c22:	de bf       	out	0x3e, r29	; 62
    2c24:	0f be       	out	0x3f, r0	; 63
    2c26:	cd bf       	out	0x3d, r28	; 61
    2c28:	cf 91       	pop	r28
    2c2a:	df 91       	pop	r29
    2c2c:	1f 91       	pop	r17
    2c2e:	ff 90       	pop	r15
    2c30:	ef 90       	pop	r14
    2c32:	df 90       	pop	r13
    2c34:	cf 90       	pop	r12
    2c36:	08 95       	ret

00002c38 <f_opendir>:

FRESULT f_opendir (
	DIR *dj,			/* Pointer to directory object to create */
	const TCHAR *path	/* Pointer to the directory path */
)
{
    2c38:	0f 93       	push	r16
    2c3a:	1f 93       	push	r17
    2c3c:	df 93       	push	r29
    2c3e:	cf 93       	push	r28
    2c40:	cd b7       	in	r28, 0x3d	; 61
    2c42:	de b7       	in	r29, 0x3e	; 62
    2c44:	2e 97       	sbiw	r28, 0x0e	; 14
    2c46:	0f b6       	in	r0, 0x3f	; 63
    2c48:	f8 94       	cli
    2c4a:	de bf       	out	0x3e, r29	; 62
    2c4c:	0f be       	out	0x3f, r0	; 63
    2c4e:	cd bf       	out	0x3d, r28	; 61
    2c50:	8c 01       	movw	r16, r24
    2c52:	7e 87       	std	Y+14, r23	; 0x0e
    2c54:	6d 87       	std	Y+13, r22	; 0x0d
	FRESULT res;
	DEF_NAMEBUF;


	res = chk_mounted(&path, &dj->fs, 0);
    2c56:	ce 01       	movw	r24, r28
    2c58:	0d 96       	adiw	r24, 0x0d	; 13
    2c5a:	b8 01       	movw	r22, r16
    2c5c:	40 e0       	ldi	r20, 0x00	; 0
    2c5e:	0e 94 9a 0a 	call	0x1534	; 0x1534 <chk_mounted>
	if (res == FR_OK) {
    2c62:	88 23       	and	r24, r24
    2c64:	f1 f5       	brne	.+124    	; 0x2ce2 <f_opendir+0xaa>
		INIT_BUF(*dj);
    2c66:	ce 01       	movw	r24, r28
    2c68:	01 96       	adiw	r24, 0x01	; 1
    2c6a:	d8 01       	movw	r26, r16
    2c6c:	55 96       	adiw	r26, 0x15	; 21
    2c6e:	9c 93       	st	X, r25
    2c70:	8e 93       	st	-X, r24
    2c72:	54 97       	sbiw	r26, 0x14	; 20
		res = follow_path(dj, path);			/* Follow the path to the directory */
    2c74:	6d 85       	ldd	r22, Y+13	; 0x0d
    2c76:	7e 85       	ldd	r23, Y+14	; 0x0e
    2c78:	c8 01       	movw	r24, r16
    2c7a:	0e 94 7e 14 	call	0x28fc	; 0x28fc <follow_path>
		FREE_BUF();
		if (res == FR_OK) {						/* Follow completed */
    2c7e:	88 23       	and	r24, r24
    2c80:	69 f5       	brne	.+90     	; 0x2cdc <f_opendir+0xa4>
			if (dj->dir) {						/* It is not the root dir */
    2c82:	d8 01       	movw	r26, r16
    2c84:	52 96       	adiw	r26, 0x12	; 18
    2c86:	ed 91       	ld	r30, X+
    2c88:	fc 91       	ld	r31, X
    2c8a:	53 97       	sbiw	r26, 0x13	; 19
    2c8c:	30 97       	sbiw	r30, 0x00	; 0
    2c8e:	b9 f0       	breq	.+46     	; 0x2cbe <f_opendir+0x86>
				if (dj->dir[DIR_Attr] & AM_DIR) {	/* The object is a directory */
    2c90:	83 85       	ldd	r24, Z+11	; 0x0b
    2c92:	84 ff       	sbrs	r24, 4
    2c94:	25 c0       	rjmp	.+74     	; 0x2ce0 <f_opendir+0xa8>
					dj->sclust = LD_CLUST(dj->dir);
    2c96:	84 89       	ldd	r24, Z+20	; 0x14
    2c98:	95 89       	ldd	r25, Z+21	; 0x15
    2c9a:	a0 e0       	ldi	r26, 0x00	; 0
    2c9c:	b0 e0       	ldi	r27, 0x00	; 0
    2c9e:	dc 01       	movw	r26, r24
    2ca0:	99 27       	eor	r25, r25
    2ca2:	88 27       	eor	r24, r24
    2ca4:	22 8d       	ldd	r18, Z+26	; 0x1a
    2ca6:	33 8d       	ldd	r19, Z+27	; 0x1b
    2ca8:	40 e0       	ldi	r20, 0x00	; 0
    2caa:	50 e0       	ldi	r21, 0x00	; 0
    2cac:	82 2b       	or	r24, r18
    2cae:	93 2b       	or	r25, r19
    2cb0:	a4 2b       	or	r26, r20
    2cb2:	b5 2b       	or	r27, r21
    2cb4:	f8 01       	movw	r30, r16
    2cb6:	86 83       	std	Z+6, r24	; 0x06
    2cb8:	97 83       	std	Z+7, r25	; 0x07
    2cba:	a0 87       	std	Z+8, r26	; 0x08
    2cbc:	b1 87       	std	Z+9, r27	; 0x09
				} else {						/* The object is not a directory */
					res = FR_NO_PATH;
				}
			}
			if (res == FR_OK) {
				dj->id = dj->fs->id;
    2cbe:	d8 01       	movw	r26, r16
    2cc0:	ed 91       	ld	r30, X+
    2cc2:	fc 91       	ld	r31, X
    2cc4:	11 97       	sbiw	r26, 0x01	; 1
    2cc6:	86 81       	ldd	r24, Z+6	; 0x06
    2cc8:	97 81       	ldd	r25, Z+7	; 0x07
    2cca:	13 96       	adiw	r26, 0x03	; 3
    2ccc:	9c 93       	st	X, r25
    2cce:	8e 93       	st	-X, r24
    2cd0:	12 97       	sbiw	r26, 0x02	; 2
				res = dir_sdi(dj, 0);			/* Rewind dir */
    2cd2:	c8 01       	movw	r24, r16
    2cd4:	60 e0       	ldi	r22, 0x00	; 0
    2cd6:	70 e0       	ldi	r23, 0x00	; 0
    2cd8:	0e 94 fc 0f 	call	0x1ff8	; 0x1ff8 <dir_sdi>
			}
		}
		if (res == FR_NO_FILE) res = FR_NO_PATH;
    2cdc:	84 30       	cpi	r24, 0x04	; 4
    2cde:	09 f4       	brne	.+2      	; 0x2ce2 <f_opendir+0xaa>
    2ce0:	85 e0       	ldi	r24, 0x05	; 5
	}

	LEAVE_FF(dj->fs, res);
}
    2ce2:	2e 96       	adiw	r28, 0x0e	; 14
    2ce4:	0f b6       	in	r0, 0x3f	; 63
    2ce6:	f8 94       	cli
    2ce8:	de bf       	out	0x3e, r29	; 62
    2cea:	0f be       	out	0x3f, r0	; 63
    2cec:	cd bf       	out	0x3d, r28	; 61
    2cee:	cf 91       	pop	r28
    2cf0:	df 91       	pop	r29
    2cf2:	1f 91       	pop	r17
    2cf4:	0f 91       	pop	r16
    2cf6:	08 95       	ret

00002cf8 <f_chdir>:


FRESULT f_chdir (
	const TCHAR *path	/* Pointer to the directory path */
)
{
    2cf8:	0f 93       	push	r16
    2cfa:	1f 93       	push	r17
    2cfc:	df 93       	push	r29
    2cfe:	cf 93       	push	r28
    2d00:	cd b7       	in	r28, 0x3d	; 61
    2d02:	de b7       	in	r29, 0x3e	; 62
    2d04:	a4 97       	sbiw	r28, 0x24	; 36
    2d06:	0f b6       	in	r0, 0x3f	; 63
    2d08:	f8 94       	cli
    2d0a:	de bf       	out	0x3e, r29	; 62
    2d0c:	0f be       	out	0x3f, r0	; 63
    2d0e:	cd bf       	out	0x3d, r28	; 61
    2d10:	9c a3       	std	Y+36, r25	; 0x24
    2d12:	8b a3       	std	Y+35, r24	; 0x23
	FRESULT res;
	DIR dj;
	DEF_NAMEBUF;


	res = chk_mounted(&path, &dj.fs, 0);
    2d14:	8e 01       	movw	r16, r28
    2d16:	03 5f       	subi	r16, 0xF3	; 243
    2d18:	1f 4f       	sbci	r17, 0xFF	; 255
    2d1a:	ce 01       	movw	r24, r28
    2d1c:	83 96       	adiw	r24, 0x23	; 35
    2d1e:	b8 01       	movw	r22, r16
    2d20:	40 e0       	ldi	r20, 0x00	; 0
    2d22:	0e 94 9a 0a 	call	0x1534	; 0x1534 <chk_mounted>
    2d26:	68 2f       	mov	r22, r24
	if (res == FR_OK) {
    2d28:	88 23       	and	r24, r24
    2d2a:	d9 f5       	brne	.+118    	; 0x2da2 <f_chdir+0xaa>
		INIT_BUF(dj);
    2d2c:	ce 01       	movw	r24, r28
    2d2e:	01 96       	adiw	r24, 0x01	; 1
    2d30:	9a a3       	std	Y+34, r25	; 0x22
    2d32:	89 a3       	std	Y+33, r24	; 0x21
		res = follow_path(&dj, path);		/* Follow the path */
    2d34:	6b a1       	ldd	r22, Y+35	; 0x23
    2d36:	7c a1       	ldd	r23, Y+36	; 0x24
    2d38:	c8 01       	movw	r24, r16
    2d3a:	0e 94 7e 14 	call	0x28fc	; 0x28fc <follow_path>
    2d3e:	68 2f       	mov	r22, r24
		FREE_BUF();
		if (res == FR_OK) {					/* Follow completed */
    2d40:	88 23       	and	r24, r24
    2d42:	61 f5       	brne	.+88     	; 0x2d9c <f_chdir+0xa4>
			if (!dj.dir) {
    2d44:	2f 8d       	ldd	r18, Y+31	; 0x1f
    2d46:	38 a1       	ldd	r19, Y+32	; 0x20
    2d48:	21 15       	cp	r18, r1
    2d4a:	31 05       	cpc	r19, r1
    2d4c:	39 f4       	brne	.+14     	; 0x2d5c <f_chdir+0x64>
				dj.fs->cdir = dj.sclust;	/* Start directory itself */
    2d4e:	ed 85       	ldd	r30, Y+13	; 0x0d
    2d50:	fe 85       	ldd	r31, Y+14	; 0x0e
    2d52:	8b 89       	ldd	r24, Y+19	; 0x13
    2d54:	9c 89       	ldd	r25, Y+20	; 0x14
    2d56:	ad 89       	ldd	r26, Y+21	; 0x15
    2d58:	be 89       	ldd	r27, Y+22	; 0x16
    2d5a:	1b c0       	rjmp	.+54     	; 0x2d92 <f_chdir+0x9a>
			} else {
				if (dj.dir[DIR_Attr] & AM_DIR)	/* Reached to the directory */
    2d5c:	d9 01       	movw	r26, r18
    2d5e:	1b 96       	adiw	r26, 0x0b	; 11
    2d60:	8c 91       	ld	r24, X
    2d62:	1b 97       	sbiw	r26, 0x0b	; 11
    2d64:	84 ff       	sbrs	r24, 4
    2d66:	1c c0       	rjmp	.+56     	; 0x2da0 <f_chdir+0xa8>
					dj.fs->cdir = LD_CLUST(dj.dir);
    2d68:	0d 85       	ldd	r16, Y+13	; 0x0d
    2d6a:	1e 85       	ldd	r17, Y+14	; 0x0e
    2d6c:	54 96       	adiw	r26, 0x14	; 20
    2d6e:	8d 91       	ld	r24, X+
    2d70:	9c 91       	ld	r25, X
    2d72:	55 97       	sbiw	r26, 0x15	; 21
    2d74:	a0 e0       	ldi	r26, 0x00	; 0
    2d76:	b0 e0       	ldi	r27, 0x00	; 0
    2d78:	dc 01       	movw	r26, r24
    2d7a:	99 27       	eor	r25, r25
    2d7c:	88 27       	eor	r24, r24
    2d7e:	f9 01       	movw	r30, r18
    2d80:	22 8d       	ldd	r18, Z+26	; 0x1a
    2d82:	33 8d       	ldd	r19, Z+27	; 0x1b
    2d84:	40 e0       	ldi	r20, 0x00	; 0
    2d86:	50 e0       	ldi	r21, 0x00	; 0
    2d88:	82 2b       	or	r24, r18
    2d8a:	93 2b       	or	r25, r19
    2d8c:	a4 2b       	or	r26, r20
    2d8e:	b5 2b       	or	r27, r21
    2d90:	f8 01       	movw	r30, r16
    2d92:	86 8b       	std	Z+22, r24	; 0x16
    2d94:	97 8b       	std	Z+23, r25	; 0x17
    2d96:	a0 8f       	std	Z+24, r26	; 0x18
    2d98:	b1 8f       	std	Z+25, r27	; 0x19
    2d9a:	03 c0       	rjmp	.+6      	; 0x2da2 <f_chdir+0xaa>
				else
					res = FR_NO_PATH;		/* Reached but a file */
			}
		}
		if (res == FR_NO_FILE) res = FR_NO_PATH;
    2d9c:	84 30       	cpi	r24, 0x04	; 4
    2d9e:	09 f4       	brne	.+2      	; 0x2da2 <f_chdir+0xaa>
    2da0:	65 e0       	ldi	r22, 0x05	; 5
	}

	LEAVE_FF(dj.fs, res);
}
    2da2:	86 2f       	mov	r24, r22
    2da4:	a4 96       	adiw	r28, 0x24	; 36
    2da6:	0f b6       	in	r0, 0x3f	; 63
    2da8:	f8 94       	cli
    2daa:	de bf       	out	0x3e, r29	; 62
    2dac:	0f be       	out	0x3f, r0	; 63
    2dae:	cd bf       	out	0x3d, r28	; 61
    2db0:	cf 91       	pop	r28
    2db2:	df 91       	pop	r29
    2db4:	1f 91       	pop	r17
    2db6:	0f 91       	pop	r16
    2db8:	08 95       	ret

00002dba <dir_register>:
#if !_FS_READONLY
static
FRESULT dir_register (	/* FR_OK:Successful, FR_DENIED:No free entry or too many SFN collision, FR_DISK_ERR:Disk error */
	DIR *dj				/* Target directory with object name to be created */
)
{
    2dba:	ef 92       	push	r14
    2dbc:	ff 92       	push	r15
    2dbe:	0f 93       	push	r16
    2dc0:	1f 93       	push	r17
    2dc2:	cf 93       	push	r28
    2dc4:	df 93       	push	r29
    2dc6:	ec 01       	movw	r28, r24
			} while (res == FR_OK && --ne);
		}
	}

#else	/* Non LFN configuration */
	res = dir_sdi(dj, 0);
    2dc8:	60 e0       	ldi	r22, 0x00	; 0
    2dca:	70 e0       	ldi	r23, 0x00	; 0
    2dcc:	0e 94 fc 0f 	call	0x1ff8	; 0x1ff8 <dir_sdi>
    2dd0:	48 2f       	mov	r20, r24
	if (res == FR_OK) {
    2dd2:	88 23       	and	r24, r24
    2dd4:	09 f0       	breq	.+2      	; 0x2dd8 <dir_register+0x1e>
    2dd6:	3f c0       	rjmp	.+126    	; 0x2e56 <dir_register+0x9c>
		do {	/* Find a blank entry for the SFN */
			res = move_window(dj->fs, dj->sect);
    2dd8:	4e 85       	ldd	r20, Y+14	; 0x0e
    2dda:	5f 85       	ldd	r21, Y+15	; 0x0f
    2ddc:	68 89       	ldd	r22, Y+16	; 0x10
    2dde:	79 89       	ldd	r23, Y+17	; 0x11
    2de0:	88 81       	ld	r24, Y
    2de2:	99 81       	ldd	r25, Y+1	; 0x01
    2de4:	0e 94 b9 0d 	call	0x1b72	; 0x1b72 <move_window>
    2de8:	48 2f       	mov	r20, r24
			if (res != FR_OK) break;
    2dea:	88 23       	and	r24, r24
    2dec:	a1 f5       	brne	.+104    	; 0x2e56 <dir_register+0x9c>
			c = *dj->dir;
    2dee:	ea 89       	ldd	r30, Y+18	; 0x12
    2df0:	fb 89       	ldd	r31, Y+19	; 0x13
    2df2:	e0 81       	ld	r30, Z
			if (c == 0xE5 || c == 0) break;	/* Is it a blank entry? */
    2df4:	e5 3e       	cpi	r30, 0xE5	; 229
    2df6:	b9 f1       	breq	.+110    	; 0x2e66 <dir_register+0xac>
    2df8:	ee 23       	and	r30, r30
    2dfa:	a9 f1       	breq	.+106    	; 0x2e66 <dir_register+0xac>
			res = dir_next(dj, 1);			/* Next entry with table stretch */
    2dfc:	ce 01       	movw	r24, r28
    2dfe:	61 e0       	ldi	r22, 0x01	; 1
    2e00:	70 e0       	ldi	r23, 0x00	; 0
    2e02:	0e 94 01 13 	call	0x2602	; 0x2602 <dir_next>
    2e06:	e4 cf       	rjmp	.-56     	; 0x2dd0 <dir_register+0x16>
#endif

	if (res == FR_OK) {		/* Initialize the SFN entry */
		res = move_window(dj->fs, dj->sect);
		if (res == FR_OK) {
			dir = dj->dir;
    2e08:	ea 89       	ldd	r30, Y+18	; 0x12
    2e0a:	fb 89       	ldd	r31, Y+19	; 0x13
    2e0c:	df 01       	movw	r26, r30
    2e0e:	80 e2       	ldi	r24, 0x20	; 32
    2e10:	90 e0       	ldi	r25, 0x00	; 0
    2e12:	01 c0       	rjmp	.+2      	; 0x2e16 <dir_register+0x5c>
static
void mem_set (void* dst, int val, UINT cnt) {
	BYTE *d = (BYTE*)dst;

	while (cnt--)
		*d++ = (BYTE)val;
    2e14:	1d 92       	st	X+, r1
/* Fill memory */
static
void mem_set (void* dst, int val, UINT cnt) {
	BYTE *d = (BYTE*)dst;

	while (cnt--)
    2e16:	01 97       	sbiw	r24, 0x01	; 1
    2e18:	2f ef       	ldi	r18, 0xFF	; 255
    2e1a:	8f 3f       	cpi	r24, 0xFF	; 255
    2e1c:	92 07       	cpc	r25, r18
    2e1e:	d1 f7       	brne	.-12     	; 0x2e14 <dir_register+0x5a>
	if (res == FR_OK) {		/* Initialize the SFN entry */
		res = move_window(dj->fs, dj->sect);
		if (res == FR_OK) {
			dir = dj->dir;
			mem_set(dir, 0, 32);		/* Clean the entry */
			mem_cpy(dir, dj->fn, 11);	/* Put SFN */
    2e20:	0c 89       	ldd	r16, Y+20	; 0x14
    2e22:	1d 89       	ldd	r17, Y+21	; 0x15
    2e24:	bf 01       	movw	r22, r30
    2e26:	78 01       	movw	r14, r16
    2e28:	2b e0       	ldi	r18, 0x0B	; 11
    2e2a:	30 e0       	ldi	r19, 0x00	; 0
	BYTE *d = (BYTE*)dst;
	const BYTE *s = (const BYTE*)src;

#if _WORD_ACCESS == 1
	while (cnt >= sizeof(int)) {
		*(int*)d = *(int*)s;
    2e2c:	d7 01       	movw	r26, r14
    2e2e:	8d 91       	ld	r24, X+
    2e30:	9d 91       	ld	r25, X+
    2e32:	7d 01       	movw	r14, r26
    2e34:	db 01       	movw	r26, r22
    2e36:	8d 93       	st	X+, r24
    2e38:	9d 93       	st	X+, r25
    2e3a:	bd 01       	movw	r22, r26
		d += sizeof(int); s += sizeof(int);
		cnt -= sizeof(int);
    2e3c:	22 50       	subi	r18, 0x02	; 2
    2e3e:	30 40       	sbci	r19, 0x00	; 0
void mem_cpy (void* dst, const void* src, UINT cnt) {
	BYTE *d = (BYTE*)dst;
	const BYTE *s = (const BYTE*)src;

#if _WORD_ACCESS == 1
	while (cnt >= sizeof(int)) {
    2e40:	21 30       	cpi	r18, 0x01	; 1
    2e42:	31 05       	cpc	r19, r1
    2e44:	99 f7       	brne	.-26     	; 0x2e2c <dir_register+0x72>
		d += sizeof(int); s += sizeof(int);
		cnt -= sizeof(int);
	}
#endif
	while (cnt--)
		*d++ = *s++;
    2e46:	d8 01       	movw	r26, r16
    2e48:	1a 96       	adiw	r26, 0x0a	; 10
    2e4a:	8c 91       	ld	r24, X
    2e4c:	82 87       	std	Z+10, r24	; 0x0a
			mem_set(dir, 0, 32);		/* Clean the entry */
			mem_cpy(dir, dj->fn, 11);	/* Put SFN */
#if _USE_LFN
			dir[DIR_NTres] = *(dj->fn+NS) & (NS_BODY | NS_EXT);	/* Put NT flag */
#endif
			dj->fs->wflag = 1;
    2e4e:	e8 81       	ld	r30, Y
    2e50:	f9 81       	ldd	r31, Y+1	; 0x01
    2e52:	81 e0       	ldi	r24, 0x01	; 1
    2e54:	84 83       	std	Z+4, r24	; 0x04
		}
	}

	return res;
}
    2e56:	84 2f       	mov	r24, r20
    2e58:	df 91       	pop	r29
    2e5a:	cf 91       	pop	r28
    2e5c:	1f 91       	pop	r17
    2e5e:	0f 91       	pop	r16
    2e60:	ff 90       	pop	r15
    2e62:	ef 90       	pop	r14
    2e64:	08 95       	ret
		} while (res == FR_OK);
	}
#endif

	if (res == FR_OK) {		/* Initialize the SFN entry */
		res = move_window(dj->fs, dj->sect);
    2e66:	4e 85       	ldd	r20, Y+14	; 0x0e
    2e68:	5f 85       	ldd	r21, Y+15	; 0x0f
    2e6a:	68 89       	ldd	r22, Y+16	; 0x10
    2e6c:	79 89       	ldd	r23, Y+17	; 0x11
    2e6e:	88 81       	ld	r24, Y
    2e70:	99 81       	ldd	r25, Y+1	; 0x01
    2e72:	0e 94 b9 0d 	call	0x1b72	; 0x1b72 <move_window>
    2e76:	48 2f       	mov	r20, r24
		if (res == FR_OK) {
    2e78:	88 23       	and	r24, r24
    2e7a:	31 f2       	breq	.-116    	; 0x2e08 <dir_register+0x4e>
    2e7c:	ec cf       	rjmp	.-40     	; 0x2e56 <dir_register+0x9c>

00002e7e <dir_read>:
#if _FS_MINIMIZE <= 1
static
FRESULT dir_read (
	DIR *dj			/* Pointer to the directory object that pointing the entry to be read */
)
{
    2e7e:	cf 93       	push	r28
    2e80:	df 93       	push	r29
    2e82:	ec 01       	movw	r28, r24
    2e84:	94 e0       	ldi	r25, 0x04	; 4
    2e86:	19 c0       	rjmp	.+50     	; 0x2eba <dir_read+0x3c>
	BYTE a, ord = 0xFF, sum = 0xFF;
#endif

	res = FR_NO_FILE;
	while (dj->sect) {
		res = move_window(dj->fs, dj->sect);
    2e88:	88 81       	ld	r24, Y
    2e8a:	99 81       	ldd	r25, Y+1	; 0x01
    2e8c:	0e 94 b9 0d 	call	0x1b72	; 0x1b72 <move_window>
    2e90:	98 2f       	mov	r25, r24
		if (res != FR_OK) break;
    2e92:	88 23       	and	r24, r24
    2e94:	e9 f4       	brne	.+58     	; 0x2ed0 <dir_read+0x52>
		dir = dj->dir;					/* Ptr to the directory entry of current index */
    2e96:	ea 89       	ldd	r30, Y+18	; 0x12
    2e98:	fb 89       	ldd	r31, Y+19	; 0x13
		c = dir[DIR_Name];
    2e9a:	80 81       	ld	r24, Z
		if (c == 0) { res = FR_NO_FILE; break; }	/* Reached to end of table */
    2e9c:	88 23       	and	r24, r24
    2e9e:	01 f1       	breq	.+64     	; 0x2ee0 <dir_read+0x62>
					dj->lfn_idx = 0xFFFF;		/* It has no LFN. */
				break;
			}
		}
#else		/* Non LFN configuration */
		if (c != 0xE5 && (_FS_RPATH || c != '.') && !(dir[DIR_Attr] & AM_VOL))	/* Is it a valid entry? */
    2ea0:	85 3e       	cpi	r24, 0xE5	; 229
    2ea2:	19 f0       	breq	.+6      	; 0x2eaa <dir_read+0x2c>
    2ea4:	83 85       	ldd	r24, Z+11	; 0x0b
    2ea6:	83 ff       	sbrs	r24, 3
    2ea8:	17 c0       	rjmp	.+46     	; 0x2ed8 <dir_read+0x5a>
			break;
#endif
		res = dir_next(dj, 0);				/* Next entry */
    2eaa:	ce 01       	movw	r24, r28
    2eac:	60 e0       	ldi	r22, 0x00	; 0
    2eae:	70 e0       	ldi	r23, 0x00	; 0
    2eb0:	0e 94 01 13 	call	0x2602	; 0x2602 <dir_next>
    2eb4:	98 2f       	mov	r25, r24
		if (res != FR_OK) break;
    2eb6:	88 23       	and	r24, r24
    2eb8:	59 f4       	brne	.+22     	; 0x2ed0 <dir_read+0x52>
#if _USE_LFN
	BYTE a, ord = 0xFF, sum = 0xFF;
#endif

	res = FR_NO_FILE;
	while (dj->sect) {
    2eba:	4e 85       	ldd	r20, Y+14	; 0x0e
    2ebc:	5f 85       	ldd	r21, Y+15	; 0x0f
    2ebe:	68 89       	ldd	r22, Y+16	; 0x10
    2ec0:	79 89       	ldd	r23, Y+17	; 0x11
    2ec2:	41 15       	cp	r20, r1
    2ec4:	51 05       	cpc	r21, r1
    2ec6:	61 05       	cpc	r22, r1
    2ec8:	71 05       	cpc	r23, r1
    2eca:	f1 f6       	brne	.-68     	; 0x2e88 <dir_read+0xa>
#endif
		res = dir_next(dj, 0);				/* Next entry */
		if (res != FR_OK) break;
	}

	if (res != FR_OK) dj->sect = 0;
    2ecc:	99 23       	and	r25, r25
    2ece:	21 f0       	breq	.+8      	; 0x2ed8 <dir_read+0x5a>
    2ed0:	1e 86       	std	Y+14, r1	; 0x0e
    2ed2:	1f 86       	std	Y+15, r1	; 0x0f
    2ed4:	18 8a       	std	Y+16, r1	; 0x10
    2ed6:	19 8a       	std	Y+17, r1	; 0x11

	return res;
}
    2ed8:	89 2f       	mov	r24, r25
    2eda:	df 91       	pop	r29
    2edc:	cf 91       	pop	r28
    2ede:	08 95       	ret
#endif
		res = dir_next(dj, 0);				/* Next entry */
		if (res != FR_OK) break;
	}

	if (res != FR_OK) dj->sect = 0;
    2ee0:	94 e0       	ldi	r25, 0x04	; 4
    2ee2:	f6 cf       	rjmp	.-20     	; 0x2ed0 <dir_read+0x52>

00002ee4 <f_readdir>:

FRESULT f_readdir (
	DIR *dj,			/* Pointer to the open directory object */
	FILINFO *fno		/* Pointer to file information to return */
)
{
    2ee4:	ef 92       	push	r14
    2ee6:	ff 92       	push	r15
    2ee8:	0f 93       	push	r16
    2eea:	1f 93       	push	r17
    2eec:	df 93       	push	r29
    2eee:	cf 93       	push	r28
    2ef0:	cd b7       	in	r28, 0x3d	; 61
    2ef2:	de b7       	in	r29, 0x3e	; 62
    2ef4:	2c 97       	sbiw	r28, 0x0c	; 12
    2ef6:	0f b6       	in	r0, 0x3f	; 63
    2ef8:	f8 94       	cli
    2efa:	de bf       	out	0x3e, r29	; 62
    2efc:	0f be       	out	0x3f, r0	; 63
    2efe:	cd bf       	out	0x3d, r28	; 61
    2f00:	8c 01       	movw	r16, r24
    2f02:	7b 01       	movw	r14, r22
	FRESULT res;
	DEF_NAMEBUF;


	res = validate(dj->fs, dj->id);			/* Check validity of the object */
    2f04:	fc 01       	movw	r30, r24
    2f06:	62 81       	ldd	r22, Z+2	; 0x02
    2f08:	73 81       	ldd	r23, Z+3	; 0x03
    2f0a:	80 81       	ld	r24, Z
    2f0c:	91 81       	ldd	r25, Z+1	; 0x01
    2f0e:	0e 94 84 0a 	call	0x1508	; 0x1508 <validate>
	if (res == FR_OK) {
    2f12:	88 23       	and	r24, r24
    2f14:	61 f5       	brne	.+88     	; 0x2f6e <f_readdir+0x8a>
		if (!fno) {
    2f16:	e1 14       	cp	r14, r1
    2f18:	f1 04       	cpc	r15, r1
    2f1a:	31 f4       	brne	.+12     	; 0x2f28 <f_readdir+0x44>
			res = dir_sdi(dj, 0);			/* Rewind the directory object */
    2f1c:	c8 01       	movw	r24, r16
    2f1e:	60 e0       	ldi	r22, 0x00	; 0
    2f20:	70 e0       	ldi	r23, 0x00	; 0
    2f22:	0e 94 fc 0f 	call	0x1ff8	; 0x1ff8 <dir_sdi>
    2f26:	23 c0       	rjmp	.+70     	; 0x2f6e <f_readdir+0x8a>
		} else {
			INIT_BUF(*dj);
    2f28:	ce 01       	movw	r24, r28
    2f2a:	01 96       	adiw	r24, 0x01	; 1
    2f2c:	f8 01       	movw	r30, r16
    2f2e:	95 8b       	std	Z+21, r25	; 0x15
    2f30:	84 8b       	std	Z+20, r24	; 0x14
			res = dir_read(dj);				/* Read an directory item */
    2f32:	c8 01       	movw	r24, r16
    2f34:	0e 94 3f 17 	call	0x2e7e	; 0x2e7e <dir_read>
			if (res == FR_NO_FILE) {		/* Reached end of dir */
    2f38:	84 30       	cpi	r24, 0x04	; 4
    2f3a:	31 f4       	brne	.+12     	; 0x2f48 <f_readdir+0x64>
				dj->sect = 0;
    2f3c:	f8 01       	movw	r30, r16
    2f3e:	16 86       	std	Z+14, r1	; 0x0e
    2f40:	17 86       	std	Z+15, r1	; 0x0f
    2f42:	10 8a       	std	Z+16, r1	; 0x10
    2f44:	11 8a       	std	Z+17, r1	; 0x11
    2f46:	02 c0       	rjmp	.+4      	; 0x2f4c <f_readdir+0x68>
				res = FR_OK;
			}
			if (res == FR_OK) {				/* A valid entry is found */
    2f48:	88 23       	and	r24, r24
    2f4a:	89 f4       	brne	.+34     	; 0x2f6e <f_readdir+0x8a>
				get_fileinfo(dj, fno);		/* Get the object information */
    2f4c:	c8 01       	movw	r24, r16
    2f4e:	b7 01       	movw	r22, r14
    2f50:	0e 94 09 0a 	call	0x1412	; 0x1412 <get_fileinfo>
				res = dir_next(dj, 0);		/* Increment index for next */
    2f54:	c8 01       	movw	r24, r16
    2f56:	60 e0       	ldi	r22, 0x00	; 0
    2f58:	70 e0       	ldi	r23, 0x00	; 0
    2f5a:	0e 94 01 13 	call	0x2602	; 0x2602 <dir_next>
				if (res == FR_NO_FILE) {
    2f5e:	84 30       	cpi	r24, 0x04	; 4
    2f60:	31 f4       	brne	.+12     	; 0x2f6e <f_readdir+0x8a>
					dj->sect = 0;
    2f62:	f8 01       	movw	r30, r16
    2f64:	16 86       	std	Z+14, r1	; 0x0e
    2f66:	17 86       	std	Z+15, r1	; 0x0f
    2f68:	10 8a       	std	Z+16, r1	; 0x10
    2f6a:	11 8a       	std	Z+17, r1	; 0x11
    2f6c:	80 e0       	ldi	r24, 0x00	; 0
			FREE_BUF();
		}
	}

	LEAVE_FF(dj->fs, res);
}
    2f6e:	2c 96       	adiw	r28, 0x0c	; 12
    2f70:	0f b6       	in	r0, 0x3f	; 63
    2f72:	f8 94       	cli
    2f74:	de bf       	out	0x3e, r29	; 62
    2f76:	0f be       	out	0x3f, r0	; 63
    2f78:	cd bf       	out	0x3d, r28	; 61
    2f7a:	cf 91       	pop	r28
    2f7c:	df 91       	pop	r29
    2f7e:	1f 91       	pop	r17
    2f80:	0f 91       	pop	r16
    2f82:	ff 90       	pop	r15
    2f84:	ef 90       	pop	r14
    2f86:	08 95       	ret

00002f88 <f_getcwd>:
#if _FS_RPATH >= 2
FRESULT f_getcwd (
	TCHAR *path,	/* Pointer to the directory path */
	UINT sz_path	/* Size of path */
)
{
    2f88:	3f 92       	push	r3
    2f8a:	4f 92       	push	r4
    2f8c:	5f 92       	push	r5
    2f8e:	6f 92       	push	r6
    2f90:	7f 92       	push	r7
    2f92:	8f 92       	push	r8
    2f94:	9f 92       	push	r9
    2f96:	af 92       	push	r10
    2f98:	bf 92       	push	r11
    2f9a:	cf 92       	push	r12
    2f9c:	df 92       	push	r13
    2f9e:	ef 92       	push	r14
    2fa0:	ff 92       	push	r15
    2fa2:	0f 93       	push	r16
    2fa4:	1f 93       	push	r17
    2fa6:	df 93       	push	r29
    2fa8:	cf 93       	push	r28
    2faa:	cd b7       	in	r28, 0x3d	; 61
    2fac:	de b7       	in	r29, 0x3e	; 62
    2fae:	ea 97       	sbiw	r28, 0x3a	; 58
    2fb0:	0f b6       	in	r0, 0x3f	; 63
    2fb2:	f8 94       	cli
    2fb4:	de bf       	out	0x3e, r29	; 62
    2fb6:	0f be       	out	0x3f, r0	; 63
    2fb8:	cd bf       	out	0x3d, r28	; 61
    2fba:	fc 01       	movw	r30, r24
    2fbc:	9a af       	std	Y+58, r25	; 0x3a
    2fbe:	89 af       	std	Y+57, r24	; 0x39
    2fc0:	4b 01       	movw	r8, r22
	TCHAR *tp;
	FILINFO fno;
	DEF_NAMEBUF;


	*path = 0;
    2fc2:	10 82       	st	Z, r1
	res = chk_mounted((const TCHAR**)&path, &dj.fs, 0);	/* Get current volume */
    2fc4:	ad e0       	ldi	r26, 0x0D	; 13
    2fc6:	ea 2e       	mov	r14, r26
    2fc8:	f1 2c       	mov	r15, r1
    2fca:	ec 0e       	add	r14, r28
    2fcc:	fd 1e       	adc	r15, r29
    2fce:	ce 01       	movw	r24, r28
    2fd0:	c9 96       	adiw	r24, 0x39	; 57
    2fd2:	b7 01       	movw	r22, r14
    2fd4:	40 e0       	ldi	r20, 0x00	; 0
    2fd6:	0e 94 9a 0a 	call	0x1534	; 0x1534 <chk_mounted>
	if (res == FR_OK) {
    2fda:	88 23       	and	r24, r24
    2fdc:	11 f0       	breq	.+4      	; 0x2fe2 <f_getcwd+0x5a>
    2fde:	98 2f       	mov	r25, r24
    2fe0:	c6 c0       	rjmp	.+396    	; 0x316e <f_getcwd+0x1e6>
		INIT_BUF(dj);
    2fe2:	ce 01       	movw	r24, r28
    2fe4:	01 96       	adiw	r24, 0x01	; 1
    2fe6:	9a a3       	std	Y+34, r25	; 0x22
    2fe8:	89 a3       	std	Y+33, r24	; 0x21
		i = sz_path;		/* Bottom of buffer (dir stack base) */
		dj.sclust = dj.fs->cdir;			/* Start to follow upper dir from current dir */
    2fea:	ed 85       	ldd	r30, Y+13	; 0x0d
    2fec:	fe 85       	ldd	r31, Y+14	; 0x0e
    2fee:	86 89       	ldd	r24, Z+22	; 0x16
    2ff0:	97 89       	ldd	r25, Z+23	; 0x17
    2ff2:	a0 8d       	ldd	r26, Z+24	; 0x18
    2ff4:	b1 8d       	ldd	r27, Z+25	; 0x19
    2ff6:	8b 8b       	std	Y+19, r24	; 0x13
    2ff8:	9c 8b       	std	Y+20, r25	; 0x14
    2ffa:	ad 8b       	std	Y+21, r26	; 0x15
    2ffc:	be 8b       	std	Y+22, r27	; 0x16
    2ffe:	84 01       	movw	r16, r8
		while ((ccl = dj.sclust) != 0) {	/* Repeat while current dir is a sub-dir */
			res = dir_sdi(&dj, 1);			/* Get parent dir */
    3000:	57 01       	movw	r10, r14
			if (res != FR_OK) break;
#if _USE_LFN
			fno.lfname = path;
			fno.lfsize = i;
#endif
			get_fileinfo(&dj, &fno);		/* Get the dir name and push it to the buffer */
    3002:	f3 e2       	ldi	r31, 0x23	; 35
    3004:	6f 2e       	mov	r6, r31
    3006:	71 2c       	mov	r7, r1
    3008:	6c 0e       	add	r6, r28
    300a:	7d 1e       	adc	r7, r29
    300c:	ec e2       	ldi	r30, 0x2C	; 44
    300e:	4e 2e       	mov	r4, r30
    3010:	51 2c       	mov	r5, r1
    3012:	4c 0e       	add	r4, r28
    3014:	5d 1e       	adc	r5, r29
			for (n = 0; tp[n]; n++) ;
			if (i < n + 3) {
				res = FR_NOT_ENOUGH_CORE; break;
			}
			while (n) path[--i] = tp[--n];
			path[--i] = '/';
    3016:	7f e2       	ldi	r23, 0x2F	; 47
    3018:	37 2e       	mov	r3, r23
    301a:	7d c0       	rjmp	.+250    	; 0x3116 <f_getcwd+0x18e>
	if (res == FR_OK) {
		INIT_BUF(dj);
		i = sz_path;		/* Bottom of buffer (dir stack base) */
		dj.sclust = dj.fs->cdir;			/* Start to follow upper dir from current dir */
		while ((ccl = dj.sclust) != 0) {	/* Repeat while current dir is a sub-dir */
			res = dir_sdi(&dj, 1);			/* Get parent dir */
    301c:	c5 01       	movw	r24, r10
    301e:	61 e0       	ldi	r22, 0x01	; 1
    3020:	70 e0       	ldi	r23, 0x00	; 0
    3022:	0e 94 fc 0f 	call	0x1ff8	; 0x1ff8 <dir_sdi>
    3026:	98 2f       	mov	r25, r24
			if (res != FR_OK) break;
    3028:	88 23       	and	r24, r24
    302a:	09 f0       	breq	.+2      	; 0x302e <f_getcwd+0xa6>
    302c:	7f c0       	rjmp	.+254    	; 0x312c <f_getcwd+0x1a4>
			res = dir_read(&dj);
    302e:	c5 01       	movw	r24, r10
    3030:	0e 94 3f 17 	call	0x2e7e	; 0x2e7e <dir_read>
    3034:	98 2f       	mov	r25, r24
			if (res != FR_OK) break;
    3036:	88 23       	and	r24, r24
    3038:	09 f0       	breq	.+2      	; 0x303c <f_getcwd+0xb4>
    303a:	78 c0       	rjmp	.+240    	; 0x312c <f_getcwd+0x1a4>
			dj.sclust = LD_CLUST(dj.dir);	/* Goto parent dir */
    303c:	ef 8d       	ldd	r30, Y+31	; 0x1f
    303e:	f8 a1       	ldd	r31, Y+32	; 0x20
    3040:	84 89       	ldd	r24, Z+20	; 0x14
    3042:	95 89       	ldd	r25, Z+21	; 0x15
    3044:	a0 e0       	ldi	r26, 0x00	; 0
    3046:	b0 e0       	ldi	r27, 0x00	; 0
    3048:	dc 01       	movw	r26, r24
    304a:	99 27       	eor	r25, r25
    304c:	88 27       	eor	r24, r24
    304e:	22 8d       	ldd	r18, Z+26	; 0x1a
    3050:	33 8d       	ldd	r19, Z+27	; 0x1b
    3052:	40 e0       	ldi	r20, 0x00	; 0
    3054:	50 e0       	ldi	r21, 0x00	; 0
    3056:	82 2b       	or	r24, r18
    3058:	93 2b       	or	r25, r19
    305a:	a4 2b       	or	r26, r20
    305c:	b5 2b       	or	r27, r21
    305e:	8b 8b       	std	Y+19, r24	; 0x13
    3060:	9c 8b       	std	Y+20, r25	; 0x14
    3062:	ad 8b       	std	Y+21, r26	; 0x15
    3064:	be 8b       	std	Y+22, r27	; 0x16
			res = dir_sdi(&dj, 0);
    3066:	c5 01       	movw	r24, r10
    3068:	60 e0       	ldi	r22, 0x00	; 0
    306a:	70 e0       	ldi	r23, 0x00	; 0
    306c:	0e 94 fc 0f 	call	0x1ff8	; 0x1ff8 <dir_sdi>
    3070:	98 2f       	mov	r25, r24
			if (res != FR_OK) break;
    3072:	88 23       	and	r24, r24
    3074:	09 f0       	breq	.+2      	; 0x3078 <f_getcwd+0xf0>
    3076:	5a c0       	rjmp	.+180    	; 0x312c <f_getcwd+0x1a4>
			do {							/* Find the entry links to the child dir */
				res = dir_read(&dj);
    3078:	c5 01       	movw	r24, r10
    307a:	0e 94 3f 17 	call	0x2e7e	; 0x2e7e <dir_read>
    307e:	98 2f       	mov	r25, r24
				if (res != FR_OK) break;
    3080:	88 23       	and	r24, r24
    3082:	f9 f4       	brne	.+62     	; 0x30c2 <f_getcwd+0x13a>
				if (ccl == LD_CLUST(dj.dir)) break;	/* Found the entry */
    3084:	ef 8d       	ldd	r30, Y+31	; 0x1f
    3086:	f8 a1       	ldd	r31, Y+32	; 0x20
    3088:	84 89       	ldd	r24, Z+20	; 0x14
    308a:	95 89       	ldd	r25, Z+21	; 0x15
    308c:	a0 e0       	ldi	r26, 0x00	; 0
    308e:	b0 e0       	ldi	r27, 0x00	; 0
    3090:	dc 01       	movw	r26, r24
    3092:	99 27       	eor	r25, r25
    3094:	88 27       	eor	r24, r24
    3096:	22 8d       	ldd	r18, Z+26	; 0x1a
    3098:	33 8d       	ldd	r19, Z+27	; 0x1b
    309a:	40 e0       	ldi	r20, 0x00	; 0
    309c:	50 e0       	ldi	r21, 0x00	; 0
    309e:	82 2b       	or	r24, r18
    30a0:	93 2b       	or	r25, r19
    30a2:	a4 2b       	or	r26, r20
    30a4:	b5 2b       	or	r27, r21
    30a6:	c8 16       	cp	r12, r24
    30a8:	d9 06       	cpc	r13, r25
    30aa:	ea 06       	cpc	r14, r26
    30ac:	fb 06       	cpc	r15, r27
    30ae:	09 f4       	brne	.+2      	; 0x30b2 <f_getcwd+0x12a>
    30b0:	77 c0       	rjmp	.+238    	; 0x31a0 <f_getcwd+0x218>
				res = dir_next(&dj, 0);	
    30b2:	c5 01       	movw	r24, r10
    30b4:	60 e0       	ldi	r22, 0x00	; 0
    30b6:	70 e0       	ldi	r23, 0x00	; 0
    30b8:	0e 94 01 13 	call	0x2602	; 0x2602 <dir_next>
    30bc:	98 2f       	mov	r25, r24
			} while (res == FR_OK);
    30be:	88 23       	and	r24, r24
    30c0:	d9 f2       	breq	.-74     	; 0x3078 <f_getcwd+0xf0>
			if (res == FR_NO_FILE) res = FR_INT_ERR;/* It cannot be 'not found'. */
    30c2:	94 30       	cpi	r25, 0x04	; 4
    30c4:	99 f5       	brne	.+102    	; 0x312c <f_getcwd+0x1a4>
    30c6:	92 e0       	ldi	r25, 0x02	; 2
    30c8:	31 c0       	rjmp	.+98     	; 0x312c <f_getcwd+0x1a4>
			fno.lfsize = i;
#endif
			get_fileinfo(&dj, &fno);		/* Get the dir name and push it to the buffer */
			tp = fno.fname;
			if (_USE_LFN && *path) tp = path;
			for (n = 0; tp[n]; n++) ;
    30ca:	2f 5f       	subi	r18, 0xFF	; 255
    30cc:	3f 4f       	sbci	r19, 0xFF	; 255
    30ce:	81 91       	ld	r24, Z+
    30d0:	88 23       	and	r24, r24
    30d2:	d9 f7       	brne	.-10     	; 0x30ca <f_getcwd+0x142>
    30d4:	b9 01       	movw	r22, r18
			if (i < n + 3) {
    30d6:	c9 01       	movw	r24, r18
    30d8:	03 96       	adiw	r24, 0x03	; 3
    30da:	08 17       	cp	r16, r24
    30dc:	19 07       	cpc	r17, r25
    30de:	10 f4       	brcc	.+4      	; 0x30e4 <f_getcwd+0x15c>
    30e0:	91 e1       	ldi	r25, 0x11	; 17
    30e2:	24 c0       	rjmp	.+72     	; 0x312c <f_getcwd+0x1a4>
    30e4:	a8 01       	movw	r20, r16
    30e6:	0b c0       	rjmp	.+22     	; 0x30fe <f_getcwd+0x176>
				res = FR_NOT_ENOUGH_CORE; break;
			}
			while (n) path[--i] = tp[--n];
    30e8:	41 50       	subi	r20, 0x01	; 1
    30ea:	50 40       	sbci	r21, 0x00	; 0
    30ec:	21 50       	subi	r18, 0x01	; 1
    30ee:	30 40       	sbci	r19, 0x00	; 0
    30f0:	a4 0f       	add	r26, r20
    30f2:	b5 1f       	adc	r27, r21
    30f4:	f9 01       	movw	r30, r18
    30f6:	e6 0d       	add	r30, r6
    30f8:	f7 1d       	adc	r31, r7
    30fa:	81 85       	ldd	r24, Z+9	; 0x09
    30fc:	8c 93       	st	X, r24
    30fe:	a9 ad       	ldd	r26, Y+57	; 0x39
    3100:	ba ad       	ldd	r27, Y+58	; 0x3a
    3102:	21 15       	cp	r18, r1
    3104:	31 05       	cpc	r19, r1
    3106:	81 f7       	brne	.-32     	; 0x30e8 <f_getcwd+0x160>
    3108:	60 95       	com	r22
    310a:	70 95       	com	r23
			path[--i] = '/';
    310c:	06 0f       	add	r16, r22
    310e:	17 1f       	adc	r17, r23
    3110:	a0 0f       	add	r26, r16
    3112:	b1 1f       	adc	r27, r17
    3114:	3c 92       	st	X, r3
	res = chk_mounted((const TCHAR**)&path, &dj.fs, 0);	/* Get current volume */
	if (res == FR_OK) {
		INIT_BUF(dj);
		i = sz_path;		/* Bottom of buffer (dir stack base) */
		dj.sclust = dj.fs->cdir;			/* Start to follow upper dir from current dir */
		while ((ccl = dj.sclust) != 0) {	/* Repeat while current dir is a sub-dir */
    3116:	cb 88       	ldd	r12, Y+19	; 0x13
    3118:	dc 88       	ldd	r13, Y+20	; 0x14
    311a:	ed 88       	ldd	r14, Y+21	; 0x15
    311c:	fe 88       	ldd	r15, Y+22	; 0x16
    311e:	c1 14       	cp	r12, r1
    3120:	d1 04       	cpc	r13, r1
    3122:	e1 04       	cpc	r14, r1
    3124:	f1 04       	cpc	r15, r1
    3126:	09 f0       	breq	.+2      	; 0x312a <f_getcwd+0x1a2>
    3128:	79 cf       	rjmp	.-270    	; 0x301c <f_getcwd+0x94>
    312a:	90 e0       	ldi	r25, 0x00	; 0
				res = FR_NOT_ENOUGH_CORE; break;
			}
			while (n) path[--i] = tp[--n];
			path[--i] = '/';
		}
		tp = path;
    312c:	a9 ad       	ldd	r26, Y+57	; 0x39
    312e:	ba ad       	ldd	r27, Y+58	; 0x3a
		if (res == FR_OK) {
    3130:	99 23       	and	r25, r25
    3132:	e1 f4       	brne	.+56     	; 0x316c <f_getcwd+0x1e4>
			*tp++ = '0' + CurrVol;			/* Put drive number */
    3134:	80 91 09 05 	lds	r24, 0x0509
    3138:	80 5d       	subi	r24, 0xD0	; 208
    313a:	fd 01       	movw	r30, r26
    313c:	81 93       	st	Z+, r24
			*tp++ = ':';
    313e:	8a e3       	ldi	r24, 0x3A	; 58
    3140:	11 96       	adiw	r26, 0x01	; 1
    3142:	8c 93       	st	X, r24
    3144:	df 01       	movw	r26, r30
    3146:	11 96       	adiw	r26, 0x01	; 1
			if (i == sz_path) {				/* Root-dir */
    3148:	08 15       	cp	r16, r8
    314a:	19 05       	cpc	r17, r9
    314c:	21 f4       	brne	.+8      	; 0x3156 <f_getcwd+0x1ce>
				*tp++ = '/';
    314e:	8f e2       	ldi	r24, 0x2F	; 47
    3150:	81 83       	std	Z+1, r24	; 0x01
    3152:	11 96       	adiw	r26, 0x01	; 1
    3154:	0b c0       	rjmp	.+22     	; 0x316c <f_getcwd+0x1e4>
			} else {						/* Sub-dir */
				do		/* Add stacked path str */
					*tp++ = path[i++];
    3156:	e9 ad       	ldd	r30, Y+57	; 0x39
    3158:	fa ad       	ldd	r31, Y+58	; 0x3a
    315a:	e0 0f       	add	r30, r16
    315c:	f1 1f       	adc	r31, r17
    315e:	80 81       	ld	r24, Z
    3160:	8d 93       	st	X+, r24
    3162:	0f 5f       	subi	r16, 0xFF	; 255
    3164:	1f 4f       	sbci	r17, 0xFF	; 255
				while (i < sz_path);
    3166:	08 15       	cp	r16, r8
    3168:	19 05       	cpc	r17, r9
    316a:	a8 f3       	brcs	.-22     	; 0x3156 <f_getcwd+0x1ce>
			}
		}
		*tp = 0;
    316c:	1c 92       	st	X, r1
		FREE_BUF();
	}

	LEAVE_FF(dj.fs, res);
}
    316e:	89 2f       	mov	r24, r25
    3170:	ea 96       	adiw	r28, 0x3a	; 58
    3172:	0f b6       	in	r0, 0x3f	; 63
    3174:	f8 94       	cli
    3176:	de bf       	out	0x3e, r29	; 62
    3178:	0f be       	out	0x3f, r0	; 63
    317a:	cd bf       	out	0x3d, r28	; 61
    317c:	cf 91       	pop	r28
    317e:	df 91       	pop	r29
    3180:	1f 91       	pop	r17
    3182:	0f 91       	pop	r16
    3184:	ff 90       	pop	r15
    3186:	ef 90       	pop	r14
    3188:	df 90       	pop	r13
    318a:	cf 90       	pop	r12
    318c:	bf 90       	pop	r11
    318e:	af 90       	pop	r10
    3190:	9f 90       	pop	r9
    3192:	8f 90       	pop	r8
    3194:	7f 90       	pop	r7
    3196:	6f 90       	pop	r6
    3198:	5f 90       	pop	r5
    319a:	4f 90       	pop	r4
    319c:	3f 90       	pop	r3
    319e:	08 95       	ret
			if (res != FR_OK) break;
#if _USE_LFN
			fno.lfname = path;
			fno.lfsize = i;
#endif
			get_fileinfo(&dj, &fno);		/* Get the dir name and push it to the buffer */
    31a0:	c5 01       	movw	r24, r10
    31a2:	b3 01       	movw	r22, r6
    31a4:	0e 94 09 0a 	call	0x1412	; 0x1412 <get_fileinfo>
    31a8:	f2 01       	movw	r30, r4
    31aa:	20 e0       	ldi	r18, 0x00	; 0
    31ac:	30 e0       	ldi	r19, 0x00	; 0
    31ae:	8f cf       	rjmp	.-226    	; 0x30ce <f_getcwd+0x146>

000031b0 <f_open>:
FRESULT f_open (
	FIL *fp,			/* Pointer to the blank file object */
	const TCHAR *path,	/* Pointer to the file name */
	BYTE mode			/* Access mode and file open mode flags */
)
{
    31b0:	5f 92       	push	r5
    31b2:	6f 92       	push	r6
    31b4:	7f 92       	push	r7
    31b6:	8f 92       	push	r8
    31b8:	9f 92       	push	r9
    31ba:	af 92       	push	r10
    31bc:	bf 92       	push	r11
    31be:	cf 92       	push	r12
    31c0:	df 92       	push	r13
    31c2:	ef 92       	push	r14
    31c4:	ff 92       	push	r15
    31c6:	0f 93       	push	r16
    31c8:	1f 93       	push	r17
    31ca:	df 93       	push	r29
    31cc:	cf 93       	push	r28
    31ce:	cd b7       	in	r28, 0x3d	; 61
    31d0:	de b7       	in	r29, 0x3e	; 62
    31d2:	a4 97       	sbiw	r28, 0x24	; 36
    31d4:	0f b6       	in	r0, 0x3f	; 63
    31d6:	f8 94       	cli
    31d8:	de bf       	out	0x3e, r29	; 62
    31da:	0f be       	out	0x3f, r0	; 63
    31dc:	cd bf       	out	0x3d, r28	; 61
    31de:	3c 01       	movw	r6, r24
    31e0:	7c a3       	std	Y+36, r23	; 0x24
    31e2:	6b a3       	std	Y+35, r22	; 0x23
	DIR dj;
	BYTE *dir;
	DEF_NAMEBUF;


	fp->fs = 0;			/* Clear file object */
    31e4:	dc 01       	movw	r26, r24
    31e6:	1d 92       	st	X+, r1
    31e8:	1c 92       	st	X, r1

#if !_FS_READONLY
	mode &= FA_READ | FA_WRITE | FA_CREATE_ALWAYS | FA_OPEN_ALWAYS | FA_CREATE_NEW;
    31ea:	8f e1       	ldi	r24, 0x1F	; 31
    31ec:	58 2e       	mov	r5, r24
    31ee:	54 22       	and	r5, r20
	res = chk_mounted(&path, &dj.fs, (BYTE)(mode & ~FA_READ));
    31f0:	8e 01       	movw	r16, r28
    31f2:	03 5f       	subi	r16, 0xF3	; 243
    31f4:	1f 4f       	sbci	r17, 0xFF	; 255
    31f6:	4e 71       	andi	r20, 0x1E	; 30
    31f8:	ce 01       	movw	r24, r28
    31fa:	83 96       	adiw	r24, 0x23	; 35
    31fc:	b8 01       	movw	r22, r16
    31fe:	0e 94 9a 0a 	call	0x1534	; 0x1534 <chk_mounted>
    3202:	28 2f       	mov	r18, r24
#else
	mode &= FA_READ;
	res = chk_mounted(&path, &dj.fs, 0);
#endif
	INIT_BUF(dj);
    3204:	ce 01       	movw	r24, r28
    3206:	01 96       	adiw	r24, 0x01	; 1
    3208:	9a a3       	std	Y+34, r25	; 0x22
    320a:	89 a3       	std	Y+33, r24	; 0x21
	if (res == FR_OK)
    320c:	22 23       	and	r18, r18
    320e:	31 f4       	brne	.+12     	; 0x321c <f_open+0x6c>
		res = follow_path(&dj, path);	/* Follow the file path */
    3210:	6b a1       	ldd	r22, Y+35	; 0x23
    3212:	7c a1       	ldd	r23, Y+36	; 0x24
    3214:	c8 01       	movw	r24, r16
    3216:	0e 94 7e 14 	call	0x28fc	; 0x28fc <follow_path>
    321a:	28 2f       	mov	r18, r24
	dir = dj.dir;
    321c:	cf 8c       	ldd	r12, Y+31	; 0x1f
    321e:	d8 a0       	ldd	r13, Y+32	; 0x20

#if !_FS_READONLY	/* R/W configuration */
	if (res == FR_OK) {
    3220:	22 23       	and	r18, r18
    3222:	21 f4       	brne	.+8      	; 0x322c <f_open+0x7c>
		if (!dir)	/* Current dir itself */
    3224:	c1 14       	cp	r12, r1
    3226:	d1 04       	cpc	r13, r1
    3228:	09 f4       	brne	.+2      	; 0x322c <f_open+0x7c>
    322a:	26 e0       	ldi	r18, 0x06	; 6
		else
			res = chk_lock(&dj, (mode & ~FA_READ) ? 1 : 0);
#endif
	}
	/* Create or Open a file */
	if (mode & (FA_CREATE_ALWAYS | FA_OPEN_ALWAYS | FA_CREATE_NEW)) {
    322c:	45 2d       	mov	r20, r5
    322e:	50 e0       	ldi	r21, 0x00	; 0
    3230:	ca 01       	movw	r24, r20
    3232:	8c 71       	andi	r24, 0x1C	; 28
    3234:	90 70       	andi	r25, 0x00	; 0
    3236:	89 2b       	or	r24, r25
    3238:	09 f4       	brne	.+2      	; 0x323c <f_open+0x8c>
    323a:	6c c0       	rjmp	.+216    	; 0x3314 <f_open+0x164>
		DWORD dw, cl;

		if (res != FR_OK) {					/* No file, create new */
    323c:	22 23       	and	r18, r18
    323e:	79 f0       	breq	.+30     	; 0x325e <f_open+0xae>
			if (res == FR_NO_FILE)			/* There is no file to open, create a new entry */
    3240:	24 30       	cpi	r18, 0x04	; 4
    3242:	29 f4       	brne	.+10     	; 0x324e <f_open+0x9e>
#if _FS_SHARE
				res = enq_lock(dj.fs) ? dir_register(&dj) : FR_TOO_MANY_OPEN_FILES;
#else
				res = dir_register(&dj);
    3244:	ce 01       	movw	r24, r28
    3246:	0d 96       	adiw	r24, 0x0d	; 13
    3248:	0e 94 dd 16 	call	0x2dba	; 0x2dba <dir_register>
    324c:	28 2f       	mov	r18, r24
#endif
			mode |= FA_CREATE_ALWAYS;		/* File is created */
			dir = dj.dir;					/* New entry */
    324e:	cf 8c       	ldd	r12, Y+31	; 0x1f
    3250:	d8 a0       	ldd	r13, Y+32	; 0x20
			} else {
				if (dir[DIR_Attr] & (AM_RDO | AM_DIR))	/* Cannot overwrite it (R/O or DIR) */
					res = FR_DENIED;
			}
		}
		if (res == FR_OK && (mode & FA_CREATE_ALWAYS)) {	/* Truncate it if overwrite mode */
    3252:	22 23       	and	r18, r18
    3254:	09 f0       	breq	.+2      	; 0x3258 <f_open+0xa8>
    3256:	b8 c0       	rjmp	.+368    	; 0x33c8 <f_open+0x218>
#if _FS_SHARE
				res = enq_lock(dj.fs) ? dir_register(&dj) : FR_TOO_MANY_OPEN_FILES;
#else
				res = dir_register(&dj);
#endif
			mode |= FA_CREATE_ALWAYS;		/* File is created */
    3258:	b8 e0       	ldi	r27, 0x08	; 8
    325a:	5b 2a       	or	r5, r27
    325c:	09 c0       	rjmp	.+18     	; 0x3270 <f_open+0xc0>
			dir = dj.dir;					/* New entry */
		}
		else {								/* Any object is already existing */
			if (mode & FA_CREATE_NEW) {		/* Cannot create new */
    325e:	52 fe       	sbrs	r5, 2
    3260:	02 c0       	rjmp	.+4      	; 0x3266 <f_open+0xb6>
    3262:	28 e0       	ldi	r18, 0x08	; 8
    3264:	b1 c0       	rjmp	.+354    	; 0x33c8 <f_open+0x218>
				res = FR_EXIST;
			} else {
				if (dir[DIR_Attr] & (AM_RDO | AM_DIR))	/* Cannot overwrite it (R/O or DIR) */
    3266:	f6 01       	movw	r30, r12
    3268:	83 85       	ldd	r24, Z+11	; 0x0b
    326a:	81 71       	andi	r24, 0x11	; 17
    326c:	09 f0       	breq	.+2      	; 0x3270 <f_open+0xc0>
    326e:	c3 c0       	rjmp	.+390    	; 0x33f6 <f_open+0x246>
					res = FR_DENIED;
			}
		}
		if (res == FR_OK && (mode & FA_CREATE_ALWAYS)) {	/* Truncate it if overwrite mode */
    3270:	53 fe       	sbrs	r5, 3
    3272:	5e c0       	rjmp	.+188    	; 0x3330 <f_open+0x180>
			dw = get_fattime();					/* Created time */
			ST_DWORD(dir+DIR_CrtTime, dw);
    3274:	83 e4       	ldi	r24, 0x43	; 67
    3276:	9b e0       	ldi	r25, 0x0B	; 11
    3278:	a7 e4       	ldi	r26, 0x47	; 71
    327a:	bd e3       	ldi	r27, 0x3D	; 61
    327c:	f6 01       	movw	r30, r12
    327e:	86 87       	std	Z+14, r24	; 0x0e
    3280:	97 87       	std	Z+15, r25	; 0x0f
    3282:	a0 8b       	std	Z+16, r26	; 0x10
    3284:	b1 8b       	std	Z+17, r27	; 0x11
			dir[DIR_Attr] = 0;					/* Reset attribute */
    3286:	13 86       	std	Z+11, r1	; 0x0b
			ST_DWORD(dir+DIR_FileSize, 0);		/* size = 0 */
    3288:	d6 01       	movw	r26, r12
    328a:	5c 96       	adiw	r26, 0x1c	; 28
    328c:	1d 92       	st	X+, r1
    328e:	1d 92       	st	X+, r1
    3290:	1d 92       	st	X+, r1
    3292:	1c 92       	st	X, r1
    3294:	5f 97       	sbiw	r26, 0x1f	; 31
			cl = LD_CLUST(dir);					/* Get start cluster */
    3296:	54 96       	adiw	r26, 0x14	; 20
    3298:	8d 91       	ld	r24, X+
    329a:	9c 91       	ld	r25, X
    329c:	55 97       	sbiw	r26, 0x15	; 21
    329e:	a0 e0       	ldi	r26, 0x00	; 0
    32a0:	b0 e0       	ldi	r27, 0x00	; 0
    32a2:	8c 01       	movw	r16, r24
    32a4:	ff 24       	eor	r15, r15
    32a6:	ee 24       	eor	r14, r14
    32a8:	82 8d       	ldd	r24, Z+26	; 0x1a
    32aa:	93 8d       	ldd	r25, Z+27	; 0x1b
    32ac:	a0 e0       	ldi	r26, 0x00	; 0
    32ae:	b0 e0       	ldi	r27, 0x00	; 0
    32b0:	e8 2a       	or	r14, r24
    32b2:	f9 2a       	or	r15, r25
    32b4:	0a 2b       	or	r16, r26
    32b6:	1b 2b       	or	r17, r27
			ST_CLUST(dir, 0);					/* cluster = 0 */
    32b8:	13 8e       	std	Z+27, r1	; 0x1b
    32ba:	12 8e       	std	Z+26, r1	; 0x1a
    32bc:	15 8a       	std	Z+21, r1	; 0x15
    32be:	14 8a       	std	Z+20, r1	; 0x14
			dj.fs->wflag = 1;
    32c0:	ed 85       	ldd	r30, Y+13	; 0x0d
    32c2:	fe 85       	ldd	r31, Y+14	; 0x0e
    32c4:	81 e0       	ldi	r24, 0x01	; 1
    32c6:	84 83       	std	Z+4, r24	; 0x04
			if (cl) {							/* Remove the cluster chain if exist */
    32c8:	e1 14       	cp	r14, r1
    32ca:	f1 04       	cpc	r15, r1
    32cc:	01 05       	cpc	r16, r1
    32ce:	11 05       	cpc	r17, r1
    32d0:	79 f1       	breq	.+94     	; 0x3330 <f_open+0x180>
				dw = dj.fs->winsect;
    32d2:	86 a4       	ldd	r8, Z+46	; 0x2e
    32d4:	97 a4       	ldd	r9, Z+47	; 0x2f
    32d6:	a0 a8       	ldd	r10, Z+48	; 0x30
    32d8:	b1 a8       	ldd	r11, Z+49	; 0x31
				res = remove_chain(dj.fs, cl);
    32da:	cf 01       	movw	r24, r30
    32dc:	b8 01       	movw	r22, r16
    32de:	a7 01       	movw	r20, r14
    32e0:	0e 94 d8 11 	call	0x23b0	; 0x23b0 <remove_chain>
    32e4:	28 2f       	mov	r18, r24
				if (res == FR_OK) {
    32e6:	88 23       	and	r24, r24
    32e8:	09 f0       	breq	.+2      	; 0x32ec <f_open+0x13c>
    32ea:	6e c0       	rjmp	.+220    	; 0x33c8 <f_open+0x218>
					dj.fs->last_clust = cl - 1;	/* Reuse the cluster hole */
    32ec:	ed 85       	ldd	r30, Y+13	; 0x0d
    32ee:	fe 85       	ldd	r31, Y+14	; 0x0e
    32f0:	08 94       	sec
    32f2:	e1 08       	sbc	r14, r1
    32f4:	f1 08       	sbc	r15, r1
    32f6:	01 09       	sbc	r16, r1
    32f8:	11 09       	sbc	r17, r1
    32fa:	e2 86       	std	Z+10, r14	; 0x0a
    32fc:	f3 86       	std	Z+11, r15	; 0x0b
    32fe:	04 87       	std	Z+12, r16	; 0x0c
    3300:	15 87       	std	Z+13, r17	; 0x0d
					res = move_window(dj.fs, dw);
    3302:	cf 01       	movw	r24, r30
    3304:	b5 01       	movw	r22, r10
    3306:	a4 01       	movw	r20, r8
    3308:	0e 94 b9 0d 	call	0x1b72	; 0x1b72 <move_window>
    330c:	28 2f       	mov	r18, r24
				if ((mode & FA_WRITE) && (dir[DIR_Attr] & AM_RDO)) /* R/O violation */
					res = FR_DENIED;
			}
		}
	}
	if (res == FR_OK) {
    330e:	88 23       	and	r24, r24
    3310:	79 f0       	breq	.+30     	; 0x3330 <f_open+0x180>
    3312:	5a c0       	rjmp	.+180    	; 0x33c8 <f_open+0x218>
				}
			}
		}
	}
	else {	/* Open an existing file */
		if (res == FR_OK) {						/* Follow succeeded */
    3314:	22 23       	and	r18, r18
    3316:	09 f0       	breq	.+2      	; 0x331a <f_open+0x16a>
    3318:	57 c0       	rjmp	.+174    	; 0x33c8 <f_open+0x218>
			if (dir[DIR_Attr] & AM_DIR) {		/* It is a directory */
    331a:	d6 01       	movw	r26, r12
    331c:	1b 96       	adiw	r26, 0x0b	; 11
    331e:	8c 91       	ld	r24, X
    3320:	84 ff       	sbrs	r24, 4
    3322:	02 c0       	rjmp	.+4      	; 0x3328 <f_open+0x178>
    3324:	24 e0       	ldi	r18, 0x04	; 4
    3326:	50 c0       	rjmp	.+160    	; 0x33c8 <f_open+0x218>
				res = FR_NO_FILE;
			} else {
				if ((mode & FA_WRITE) && (dir[DIR_Attr] & AM_RDO)) /* R/O violation */
    3328:	51 fe       	sbrs	r5, 1
    332a:	02 c0       	rjmp	.+4      	; 0x3330 <f_open+0x180>
    332c:	80 fd       	sbrc	r24, 0
    332e:	63 c0       	rjmp	.+198    	; 0x33f6 <f_open+0x246>
					res = FR_DENIED;
			}
		}
	}
	if (res == FR_OK) {
		if (mode & FA_CREATE_ALWAYS)			/* Set file change flag if created or overwritten */
    3330:	53 fe       	sbrs	r5, 3
    3332:	02 c0       	rjmp	.+4      	; 0x3338 <f_open+0x188>
			mode |= FA__WRITTEN;
    3334:	b0 e2       	ldi	r27, 0x20	; 32
    3336:	5b 2a       	or	r5, r27
		fp->dir_sect = dj.fs->winsect;			/* Pointer to the directory entry */
    3338:	6d 85       	ldd	r22, Y+13	; 0x0d
    333a:	7e 85       	ldd	r23, Y+14	; 0x0e
    333c:	fb 01       	movw	r30, r22
    333e:	26 a5       	ldd	r18, Z+46	; 0x2e
    3340:	37 a5       	ldd	r19, Z+47	; 0x2f
    3342:	40 a9       	ldd	r20, Z+48	; 0x30
    3344:	51 a9       	ldd	r21, Z+49	; 0x31
    3346:	d3 01       	movw	r26, r6
    3348:	5a 96       	adiw	r26, 0x1a	; 26
    334a:	2d 93       	st	X+, r18
    334c:	3d 93       	st	X+, r19
    334e:	4d 93       	st	X+, r20
    3350:	5c 93       	st	X, r21
    3352:	5d 97       	sbiw	r26, 0x1d	; 29
		fp->dir_ptr = dir;
    3354:	5f 96       	adiw	r26, 0x1f	; 31
    3356:	dc 92       	st	X, r13
    3358:	ce 92       	st	-X, r12
    335a:	5e 97       	sbiw	r26, 0x1e	; 30
	}
#endif
	FREE_BUF();

	if (res == FR_OK) {
		fp->flag = mode;					/* File access mode */
    335c:	14 96       	adiw	r26, 0x04	; 4
    335e:	5c 92       	st	X, r5
		fp->org_clust =	LD_CLUST(dir);		/* File start cluster */
    3360:	f6 01       	movw	r30, r12
    3362:	84 89       	ldd	r24, Z+20	; 0x14
    3364:	95 89       	ldd	r25, Z+21	; 0x15
    3366:	a0 e0       	ldi	r26, 0x00	; 0
    3368:	b0 e0       	ldi	r27, 0x00	; 0
    336a:	dc 01       	movw	r26, r24
    336c:	99 27       	eor	r25, r25
    336e:	88 27       	eor	r24, r24
    3370:	22 8d       	ldd	r18, Z+26	; 0x1a
    3372:	33 8d       	ldd	r19, Z+27	; 0x1b
    3374:	40 e0       	ldi	r20, 0x00	; 0
    3376:	50 e0       	ldi	r21, 0x00	; 0
    3378:	82 2b       	or	r24, r18
    337a:	93 2b       	or	r25, r19
    337c:	a4 2b       	or	r26, r20
    337e:	b5 2b       	or	r27, r21
    3380:	f3 01       	movw	r30, r6
    3382:	86 87       	std	Z+14, r24	; 0x0e
    3384:	97 87       	std	Z+15, r25	; 0x0f
    3386:	a0 8b       	std	Z+16, r26	; 0x10
    3388:	b1 8b       	std	Z+17, r27	; 0x11
		fp->fsize = LD_DWORD(dir+DIR_FileSize);	/* File size */
    338a:	f6 01       	movw	r30, r12
    338c:	84 8d       	ldd	r24, Z+28	; 0x1c
    338e:	95 8d       	ldd	r25, Z+29	; 0x1d
    3390:	a6 8d       	ldd	r26, Z+30	; 0x1e
    3392:	b7 8d       	ldd	r27, Z+31	; 0x1f
    3394:	f3 01       	movw	r30, r6
    3396:	82 87       	std	Z+10, r24	; 0x0a
    3398:	93 87       	std	Z+11, r25	; 0x0b
    339a:	a4 87       	std	Z+12, r26	; 0x0c
    339c:	b5 87       	std	Z+13, r27	; 0x0d
		fp->fptr = 0;						/* File pointer */
    339e:	d3 01       	movw	r26, r6
    33a0:	16 96       	adiw	r26, 0x06	; 6
    33a2:	1d 92       	st	X+, r1
    33a4:	1d 92       	st	X+, r1
    33a6:	1d 92       	st	X+, r1
    33a8:	1c 92       	st	X, r1
    33aa:	19 97       	sbiw	r26, 0x09	; 9
		fp->dsect = 0;
    33ac:	16 8a       	std	Z+22, r1	; 0x16
    33ae:	17 8a       	std	Z+23, r1	; 0x17
    33b0:	10 8e       	std	Z+24, r1	; 0x18
    33b2:	11 8e       	std	Z+25, r1	; 0x19
#if _USE_FASTSEEK
		fp->cltbl = 0;						/* No cluster link map table */
#endif
		fp->fs = dj.fs; fp->id = dj.fs->id;	/* Validate file object */
    33b4:	71 83       	std	Z+1, r23	; 0x01
    33b6:	60 83       	st	Z, r22
    33b8:	db 01       	movw	r26, r22
    33ba:	16 96       	adiw	r26, 0x06	; 6
    33bc:	8d 91       	ld	r24, X+
    33be:	9c 91       	ld	r25, X
    33c0:	17 97       	sbiw	r26, 0x07	; 7
    33c2:	93 83       	std	Z+3, r25	; 0x03
    33c4:	82 83       	std	Z+2, r24	; 0x02
    33c6:	20 e0       	ldi	r18, 0x00	; 0
	}

	LEAVE_FF(dj.fs, res);
}
    33c8:	82 2f       	mov	r24, r18
    33ca:	a4 96       	adiw	r28, 0x24	; 36
    33cc:	0f b6       	in	r0, 0x3f	; 63
    33ce:	f8 94       	cli
    33d0:	de bf       	out	0x3e, r29	; 62
    33d2:	0f be       	out	0x3f, r0	; 63
    33d4:	cd bf       	out	0x3d, r28	; 61
    33d6:	cf 91       	pop	r28
    33d8:	df 91       	pop	r29
    33da:	1f 91       	pop	r17
    33dc:	0f 91       	pop	r16
    33de:	ff 90       	pop	r15
    33e0:	ef 90       	pop	r14
    33e2:	df 90       	pop	r13
    33e4:	cf 90       	pop	r12
    33e6:	bf 90       	pop	r11
    33e8:	af 90       	pop	r10
    33ea:	9f 90       	pop	r9
    33ec:	8f 90       	pop	r8
    33ee:	7f 90       	pop	r7
    33f0:	6f 90       	pop	r6
    33f2:	5f 90       	pop	r5
    33f4:	08 95       	ret
		fp->fptr = 0;						/* File pointer */
		fp->dsect = 0;
#if _USE_FASTSEEK
		fp->cltbl = 0;						/* No cluster link map table */
#endif
		fp->fs = dj.fs; fp->id = dj.fs->id;	/* Validate file object */
    33f6:	27 e0       	ldi	r18, 0x07	; 7
    33f8:	e7 cf       	rjmp	.-50     	; 0x33c8 <f_open+0x218>

000033fa <f_getfree>:
FRESULT f_getfree (
	const TCHAR *path,	/* Pointer to the logical drive number (root dir) */
	DWORD *nclst,		/* Pointer to the variable to return number of free clusters */
	FATFS **fatfs		/* Pointer to pointer to corresponding file system object to return */
)
{
    33fa:	3f 92       	push	r3
    33fc:	4f 92       	push	r4
    33fe:	5f 92       	push	r5
    3400:	6f 92       	push	r6
    3402:	7f 92       	push	r7
    3404:	8f 92       	push	r8
    3406:	9f 92       	push	r9
    3408:	af 92       	push	r10
    340a:	bf 92       	push	r11
    340c:	cf 92       	push	r12
    340e:	df 92       	push	r13
    3410:	ef 92       	push	r14
    3412:	ff 92       	push	r15
    3414:	0f 93       	push	r16
    3416:	1f 93       	push	r17
    3418:	df 93       	push	r29
    341a:	cf 93       	push	r28
    341c:	00 d0       	rcall	.+0      	; 0x341e <f_getfree+0x24>
    341e:	00 d0       	rcall	.+0      	; 0x3420 <f_getfree+0x26>
    3420:	cd b7       	in	r28, 0x3d	; 61
    3422:	de b7       	in	r29, 0x3e	; 62
    3424:	9a 83       	std	Y+2, r25	; 0x02
    3426:	89 83       	std	Y+1, r24	; 0x01
    3428:	7c 83       	std	Y+4, r23	; 0x04
    342a:	6b 83       	std	Y+3, r22	; 0x03
    342c:	2a 01       	movw	r4, r20
	UINT i;
	BYTE fat, *p;


	/* Get drive number */
	res = chk_mounted(&path, fatfs, 0);
    342e:	ce 01       	movw	r24, r28
    3430:	01 96       	adiw	r24, 0x01	; 1
    3432:	ba 01       	movw	r22, r20
    3434:	40 e0       	ldi	r20, 0x00	; 0
    3436:	0e 94 9a 0a 	call	0x1534	; 0x1534 <chk_mounted>
    343a:	68 2f       	mov	r22, r24
	if (res == FR_OK) {
    343c:	88 23       	and	r24, r24
    343e:	09 f0       	breq	.+2      	; 0x3442 <f_getfree+0x48>
    3440:	bf c0       	rjmp	.+382    	; 0x35c0 <f_getfree+0x1c6>
		/* If free_clust is valid, return it without full cluster scan */
		if ((*fatfs)->free_clust <= (*fatfs)->n_fatent - 2) {
    3442:	d2 01       	movw	r26, r4
    3444:	ed 91       	ld	r30, X+
    3446:	fc 91       	ld	r31, X
    3448:	26 85       	ldd	r18, Z+14	; 0x0e
    344a:	37 85       	ldd	r19, Z+15	; 0x0f
    344c:	40 89       	ldd	r20, Z+16	; 0x10
    344e:	51 89       	ldd	r21, Z+17	; 0x11
    3450:	e2 8c       	ldd	r14, Z+26	; 0x1a
    3452:	f3 8c       	ldd	r15, Z+27	; 0x1b
    3454:	04 8d       	ldd	r16, Z+28	; 0x1c
    3456:	15 8d       	ldd	r17, Z+29	; 0x1d
    3458:	d8 01       	movw	r26, r16
    345a:	c7 01       	movw	r24, r14
    345c:	02 97       	sbiw	r24, 0x02	; 2
    345e:	a1 09       	sbc	r26, r1
    3460:	b1 09       	sbc	r27, r1
    3462:	82 17       	cp	r24, r18
    3464:	93 07       	cpc	r25, r19
    3466:	a4 07       	cpc	r26, r20
    3468:	b5 07       	cpc	r27, r21
    346a:	38 f0       	brcs	.+14     	; 0x347a <f_getfree+0x80>
			*nclst = (*fatfs)->free_clust;
    346c:	eb 81       	ldd	r30, Y+3	; 0x03
    346e:	fc 81       	ldd	r31, Y+4	; 0x04
    3470:	20 83       	st	Z, r18
    3472:	31 83       	std	Z+1, r19	; 0x01
    3474:	42 83       	std	Z+2, r20	; 0x02
    3476:	53 83       	std	Z+3, r21	; 0x03
    3478:	a3 c0       	rjmp	.+326    	; 0x35c0 <f_getfree+0x1c6>
		} else {
			/* Get number of free clusters */
			fat = (*fatfs)->fs_type;
    347a:	30 80       	ld	r3, Z
			n = 0;
			if (fat == FS_FAT12) {
    347c:	21 e0       	ldi	r18, 0x01	; 1
    347e:	32 16       	cp	r3, r18
    3480:	e1 f5       	brne	.+120    	; 0x34fa <f_getfree+0x100>
    3482:	aa 24       	eor	r10, r10
    3484:	bb 24       	eor	r11, r11
    3486:	65 01       	movw	r12, r10
    3488:	92 e0       	ldi	r25, 0x02	; 2
    348a:	e9 2e       	mov	r14, r25
    348c:	f1 2c       	mov	r15, r1
    348e:	01 2d       	mov	r16, r1
    3490:	11 2d       	mov	r17, r1
				clst = 2;
				do {
					stat = get_fat(*fatfs, clst);
    3492:	d2 01       	movw	r26, r4
    3494:	8d 91       	ld	r24, X+
    3496:	9c 91       	ld	r25, X
    3498:	b8 01       	movw	r22, r16
    349a:	a7 01       	movw	r20, r14
    349c:	0e 94 29 0f 	call	0x1e52	; 0x1e52 <get_fat>
					if (stat == 0xFFFFFFFF) { res = FR_DISK_ERR; break; }
    34a0:	6f 3f       	cpi	r22, 0xFF	; 255
    34a2:	bf ef       	ldi	r27, 0xFF	; 255
    34a4:	7b 07       	cpc	r23, r27
    34a6:	bf ef       	ldi	r27, 0xFF	; 255
    34a8:	8b 07       	cpc	r24, r27
    34aa:	bf ef       	ldi	r27, 0xFF	; 255
    34ac:	9b 07       	cpc	r25, r27
    34ae:	11 f4       	brne	.+4      	; 0x34b4 <f_getfree+0xba>
    34b0:	91 e0       	ldi	r25, 0x01	; 1
    34b2:	73 c0       	rjmp	.+230    	; 0x359a <f_getfree+0x1a0>
					if (stat == 1) { res = FR_INT_ERR; break; }
    34b4:	61 30       	cpi	r22, 0x01	; 1
    34b6:	71 05       	cpc	r23, r1
    34b8:	81 05       	cpc	r24, r1
    34ba:	91 05       	cpc	r25, r1
    34bc:	11 f4       	brne	.+4      	; 0x34c2 <f_getfree+0xc8>
    34be:	92 e0       	ldi	r25, 0x02	; 2
    34c0:	6c c0       	rjmp	.+216    	; 0x359a <f_getfree+0x1a0>
					if (stat == 0) n++;
    34c2:	61 15       	cp	r22, r1
    34c4:	71 05       	cpc	r23, r1
    34c6:	81 05       	cpc	r24, r1
    34c8:	91 05       	cpc	r25, r1
    34ca:	29 f4       	brne	.+10     	; 0x34d6 <f_getfree+0xdc>
    34cc:	08 94       	sec
    34ce:	a1 1c       	adc	r10, r1
    34d0:	b1 1c       	adc	r11, r1
    34d2:	c1 1c       	adc	r12, r1
    34d4:	d1 1c       	adc	r13, r1
				} while (++clst < (*fatfs)->n_fatent);
    34d6:	08 94       	sec
    34d8:	e1 1c       	adc	r14, r1
    34da:	f1 1c       	adc	r15, r1
    34dc:	01 1d       	adc	r16, r1
    34de:	11 1d       	adc	r17, r1
    34e0:	d2 01       	movw	r26, r4
    34e2:	ed 91       	ld	r30, X+
    34e4:	fc 91       	ld	r31, X
    34e6:	82 8d       	ldd	r24, Z+26	; 0x1a
    34e8:	93 8d       	ldd	r25, Z+27	; 0x1b
    34ea:	a4 8d       	ldd	r26, Z+28	; 0x1c
    34ec:	b5 8d       	ldd	r27, Z+29	; 0x1d
    34ee:	e8 16       	cp	r14, r24
    34f0:	f9 06       	cpc	r15, r25
    34f2:	0a 07       	cpc	r16, r26
    34f4:	1b 07       	cpc	r17, r27
    34f6:	68 f2       	brcs	.-102    	; 0x3492 <f_getfree+0x98>
    34f8:	4f c0       	rjmp	.+158    	; 0x3598 <f_getfree+0x19e>
			} else {
				clst = (*fatfs)->n_fatent;
				sect = (*fatfs)->fatbase;
    34fa:	62 a0       	ldd	r6, Z+34	; 0x22
    34fc:	73 a0       	ldd	r7, Z+35	; 0x23
    34fe:	84 a0       	ldd	r8, Z+36	; 0x24
    3500:	95 a0       	ldd	r9, Z+37	; 0x25
    3502:	aa 24       	eor	r10, r10
    3504:	bb 24       	eor	r11, r11
    3506:	65 01       	movw	r12, r10
    3508:	20 e0       	ldi	r18, 0x00	; 0
    350a:	30 e0       	ldi	r19, 0x00	; 0
    350c:	e0 e0       	ldi	r30, 0x00	; 0
    350e:	f0 e0       	ldi	r31, 0x00	; 0
				i = 0; p = 0;
				do {
					if (!i) {
    3510:	21 15       	cp	r18, r1
    3512:	31 05       	cpc	r19, r1
    3514:	a9 f4       	brne	.+42     	; 0x3540 <f_getfree+0x146>
						res = move_window(*fatfs, sect++);
    3516:	f2 01       	movw	r30, r4
    3518:	80 81       	ld	r24, Z
    351a:	91 81       	ldd	r25, Z+1	; 0x01
    351c:	b4 01       	movw	r22, r8
    351e:	a3 01       	movw	r20, r6
    3520:	0e 94 b9 0d 	call	0x1b72	; 0x1b72 <move_window>
    3524:	98 2f       	mov	r25, r24
						if (res != FR_OK) break;
    3526:	88 23       	and	r24, r24
    3528:	c1 f5       	brne	.+112    	; 0x359a <f_getfree+0x1a0>
				clst = (*fatfs)->n_fatent;
				sect = (*fatfs)->fatbase;
				i = 0; p = 0;
				do {
					if (!i) {
						res = move_window(*fatfs, sect++);
    352a:	08 94       	sec
    352c:	61 1c       	adc	r6, r1
    352e:	71 1c       	adc	r7, r1
    3530:	81 1c       	adc	r8, r1
    3532:	91 1c       	adc	r9, r1
						if (res != FR_OK) break;
						p = (*fatfs)->win;
    3534:	d2 01       	movw	r26, r4
    3536:	ed 91       	ld	r30, X+
    3538:	fc 91       	ld	r31, X
    353a:	f2 96       	adiw	r30, 0x32	; 50
    353c:	20 e0       	ldi	r18, 0x00	; 0
    353e:	32 e0       	ldi	r19, 0x02	; 2
						i = SS(*fatfs);
					}
					if (fat == FS_FAT16) {
    3540:	b2 e0       	ldi	r27, 0x02	; 2
    3542:	3b 16       	cp	r3, r27
    3544:	69 f4       	brne	.+26     	; 0x3560 <f_getfree+0x166>
						if (LD_WORD(p) == 0) n++;
    3546:	80 81       	ld	r24, Z
    3548:	91 81       	ldd	r25, Z+1	; 0x01
    354a:	89 2b       	or	r24, r25
    354c:	29 f4       	brne	.+10     	; 0x3558 <f_getfree+0x15e>
    354e:	08 94       	sec
    3550:	a1 1c       	adc	r10, r1
    3552:	b1 1c       	adc	r11, r1
    3554:	c1 1c       	adc	r12, r1
    3556:	d1 1c       	adc	r13, r1
						p += 2; i -= 2;
    3558:	32 96       	adiw	r30, 0x02	; 2
    355a:	22 50       	subi	r18, 0x02	; 2
    355c:	30 40       	sbci	r19, 0x00	; 0
    355e:	11 c0       	rjmp	.+34     	; 0x3582 <f_getfree+0x188>
					} else {
						if ((LD_DWORD(p) & 0x0FFFFFFF) == 0) n++;
    3560:	80 81       	ld	r24, Z
    3562:	91 81       	ldd	r25, Z+1	; 0x01
    3564:	a2 81       	ldd	r26, Z+2	; 0x02
    3566:	b3 81       	ldd	r27, Z+3	; 0x03
    3568:	bf 70       	andi	r27, 0x0F	; 15
    356a:	00 97       	sbiw	r24, 0x00	; 0
    356c:	a1 05       	cpc	r26, r1
    356e:	b1 05       	cpc	r27, r1
    3570:	29 f4       	brne	.+10     	; 0x357c <f_getfree+0x182>
    3572:	08 94       	sec
    3574:	a1 1c       	adc	r10, r1
    3576:	b1 1c       	adc	r11, r1
    3578:	c1 1c       	adc	r12, r1
    357a:	d1 1c       	adc	r13, r1
						p += 4; i -= 4;
    357c:	34 96       	adiw	r30, 0x04	; 4
    357e:	24 50       	subi	r18, 0x04	; 4
    3580:	30 40       	sbci	r19, 0x00	; 0
					}
				} while (--clst);
    3582:	08 94       	sec
    3584:	e1 08       	sbc	r14, r1
    3586:	f1 08       	sbc	r15, r1
    3588:	01 09       	sbc	r16, r1
    358a:	11 09       	sbc	r17, r1
    358c:	e1 14       	cp	r14, r1
    358e:	f1 04       	cpc	r15, r1
    3590:	01 05       	cpc	r16, r1
    3592:	11 05       	cpc	r17, r1
    3594:	09 f0       	breq	.+2      	; 0x3598 <f_getfree+0x19e>
    3596:	bc cf       	rjmp	.-136    	; 0x3510 <f_getfree+0x116>
    3598:	90 e0       	ldi	r25, 0x00	; 0
			}
			(*fatfs)->free_clust = n;
    359a:	d2 01       	movw	r26, r4
    359c:	ed 91       	ld	r30, X+
    359e:	fc 91       	ld	r31, X
    35a0:	a6 86       	std	Z+14, r10	; 0x0e
    35a2:	b7 86       	std	Z+15, r11	; 0x0f
    35a4:	c0 8a       	std	Z+16, r12	; 0x10
    35a6:	d1 8a       	std	Z+17, r13	; 0x11
			if (fat == FS_FAT32) (*fatfs)->fsi_flag = 1;
    35a8:	b3 e0       	ldi	r27, 0x03	; 3
    35aa:	3b 16       	cp	r3, r27
    35ac:	11 f4       	brne	.+4      	; 0x35b2 <f_getfree+0x1b8>
    35ae:	81 e0       	ldi	r24, 0x01	; 1
    35b0:	85 83       	std	Z+5, r24	; 0x05
			*nclst = n;
    35b2:	eb 81       	ldd	r30, Y+3	; 0x03
    35b4:	fc 81       	ldd	r31, Y+4	; 0x04
    35b6:	a0 82       	st	Z, r10
    35b8:	b1 82       	std	Z+1, r11	; 0x01
    35ba:	c2 82       	std	Z+2, r12	; 0x02
    35bc:	d3 82       	std	Z+3, r13	; 0x03
    35be:	69 2f       	mov	r22, r25
		}
	}
	LEAVE_FF(*fatfs, res);
}
    35c0:	86 2f       	mov	r24, r22
    35c2:	0f 90       	pop	r0
    35c4:	0f 90       	pop	r0
    35c6:	0f 90       	pop	r0
    35c8:	0f 90       	pop	r0
    35ca:	cf 91       	pop	r28
    35cc:	df 91       	pop	r29
    35ce:	1f 91       	pop	r17
    35d0:	0f 91       	pop	r16
    35d2:	ff 90       	pop	r15
    35d4:	ef 90       	pop	r14
    35d6:	df 90       	pop	r13
    35d8:	cf 90       	pop	r12
    35da:	bf 90       	pop	r11
    35dc:	af 90       	pop	r10
    35de:	9f 90       	pop	r9
    35e0:	8f 90       	pop	r8
    35e2:	7f 90       	pop	r7
    35e4:	6f 90       	pop	r6
    35e6:	5f 90       	pop	r5
    35e8:	4f 90       	pop	r4
    35ea:	3f 90       	pop	r3
    35ec:	08 95       	ret

000035ee <f_lseek>:

FRESULT f_lseek (
	FIL *fp,		/* Pointer to the file object */
	DWORD ofs		/* File pointer from top of file */
)
{
    35ee:	2f 92       	push	r2
    35f0:	3f 92       	push	r3
    35f2:	4f 92       	push	r4
    35f4:	5f 92       	push	r5
    35f6:	6f 92       	push	r6
    35f8:	7f 92       	push	r7
    35fa:	8f 92       	push	r8
    35fc:	9f 92       	push	r9
    35fe:	af 92       	push	r10
    3600:	bf 92       	push	r11
    3602:	cf 92       	push	r12
    3604:	df 92       	push	r13
    3606:	ef 92       	push	r14
    3608:	0f 93       	push	r16
    360a:	1f 93       	push	r17
    360c:	df 93       	push	r29
    360e:	cf 93       	push	r28
    3610:	cd b7       	in	r28, 0x3d	; 61
    3612:	de b7       	in	r29, 0x3e	; 62
    3614:	28 97       	sbiw	r28, 0x08	; 8
    3616:	0f b6       	in	r0, 0x3f	; 63
    3618:	f8 94       	cli
    361a:	de bf       	out	0x3e, r29	; 62
    361c:	0f be       	out	0x3f, r0	; 63
    361e:	cd bf       	out	0x3d, r28	; 61
    3620:	98 87       	std	Y+8, r25	; 0x08
    3622:	8f 83       	std	Y+7, r24	; 0x07
    3624:	5a 01       	movw	r10, r20
    3626:	6b 01       	movw	r12, r22
	FRESULT res;


	res = validate(fp->fs, fp->id);		/* Check validity of the object */
    3628:	dc 01       	movw	r26, r24
    362a:	12 96       	adiw	r26, 0x02	; 2
    362c:	6d 91       	ld	r22, X+
    362e:	7c 91       	ld	r23, X
    3630:	13 97       	sbiw	r26, 0x03	; 3
    3632:	8d 91       	ld	r24, X+
    3634:	9c 91       	ld	r25, X
    3636:	0e 94 84 0a 	call	0x1508	; 0x1508 <validate>
    363a:	e8 2e       	mov	r14, r24
	if (res != FR_OK) LEAVE_FF(fp->fs, res);
    363c:	88 23       	and	r24, r24
    363e:	09 f0       	breq	.+2      	; 0x3642 <f_lseek+0x54>
    3640:	e7 c1       	rjmp	.+974    	; 0x3a10 <f_lseek+0x422>
	if (fp->flag & FA__ERROR)			/* Check abort flag */
    3642:	ef 81       	ldd	r30, Y+7	; 0x07
    3644:	f8 85       	ldd	r31, Y+8	; 0x08
    3646:	84 81       	ldd	r24, Z+4	; 0x04
    3648:	87 fd       	sbrc	r24, 7
    364a:	96 c0       	rjmp	.+300    	; 0x3778 <f_lseek+0x18a>

	/* Normal Seek */
	{
		DWORD clst, bcs, nsect, ifptr;

		if (ofs > fp->fsize					/* In read-only mode, clip offset with the file size */
    364c:	af 81       	ldd	r26, Y+7	; 0x07
    364e:	b8 85       	ldd	r27, Y+8	; 0x08
    3650:	1a 96       	adiw	r26, 0x0a	; 10
    3652:	6d 90       	ld	r6, X+
    3654:	7d 90       	ld	r7, X+
    3656:	8d 90       	ld	r8, X+
    3658:	9c 90       	ld	r9, X
    365a:	1d 97       	sbiw	r26, 0x0d	; 13
    365c:	6a 14       	cp	r6, r10
    365e:	7b 04       	cpc	r7, r11
    3660:	8c 04       	cpc	r8, r12
    3662:	9d 04       	cpc	r9, r13
    3664:	10 f4       	brcc	.+4      	; 0x366a <f_lseek+0x7c>
    3666:	81 ff       	sbrs	r24, 1
    3668:	02 c0       	rjmp	.+4      	; 0x366e <f_lseek+0x80>
    366a:	35 01       	movw	r6, r10
    366c:	46 01       	movw	r8, r12
#if !_FS_READONLY
			 && !(fp->flag & FA_WRITE)
#endif
			) ofs = fp->fsize;

		ifptr = fp->fptr;
    366e:	ef 81       	ldd	r30, Y+7	; 0x07
    3670:	f8 85       	ldd	r31, Y+8	; 0x08
    3672:	26 81       	ldd	r18, Z+6	; 0x06
    3674:	37 81       	ldd	r19, Z+7	; 0x07
    3676:	40 85       	ldd	r20, Z+8	; 0x08
    3678:	51 85       	ldd	r21, Z+9	; 0x09
		fp->fptr = nsect = 0;
    367a:	16 82       	std	Z+6, r1	; 0x06
    367c:	17 82       	std	Z+7, r1	; 0x07
    367e:	10 86       	std	Z+8, r1	; 0x08
    3680:	11 86       	std	Z+9, r1	; 0x09
		if (ofs) {
    3682:	61 14       	cp	r6, r1
    3684:	71 04       	cpc	r7, r1
    3686:	81 04       	cpc	r8, r1
    3688:	91 04       	cpc	r9, r1
    368a:	09 f4       	brne	.+2      	; 0x368e <f_lseek+0xa0>
    368c:	54 c1       	rjmp	.+680    	; 0x3936 <f_lseek+0x348>
			bcs = (DWORD)fp->fs->csize * SS(fp->fs);	/* Cluster size (byte) */
    368e:	01 90       	ld	r0, Z+
    3690:	f0 81       	ld	r31, Z
    3692:	e0 2d       	mov	r30, r0
    3694:	fa 83       	std	Y+2, r31	; 0x02
    3696:	e9 83       	std	Y+1, r30	; 0x01
    3698:	82 81       	ldd	r24, Z+2	; 0x02
    369a:	a8 2e       	mov	r10, r24
    369c:	bb 24       	eor	r11, r11
    369e:	cc 24       	eor	r12, r12
    36a0:	dd 24       	eor	r13, r13
    36a2:	a9 e0       	ldi	r26, 0x09	; 9
    36a4:	aa 0c       	add	r10, r10
    36a6:	bb 1c       	adc	r11, r11
    36a8:	cc 1c       	adc	r12, r12
    36aa:	dd 1c       	adc	r13, r13
    36ac:	aa 95       	dec	r26
    36ae:	d1 f7       	brne	.-12     	; 0x36a4 <f_lseek+0xb6>
			if (ifptr > 0 &&
    36b0:	21 15       	cp	r18, r1
    36b2:	31 05       	cpc	r19, r1
    36b4:	41 05       	cpc	r20, r1
    36b6:	51 05       	cpc	r21, r1
    36b8:	f1 f1       	breq	.+124    	; 0x3736 <f_lseek+0x148>
    36ba:	19 01       	movw	r2, r18
    36bc:	2a 01       	movw	r4, r20
    36be:	08 94       	sec
    36c0:	21 08       	sbc	r2, r1
    36c2:	31 08       	sbc	r3, r1
    36c4:	41 08       	sbc	r4, r1
    36c6:	51 08       	sbc	r5, r1
    36c8:	c4 01       	movw	r24, r8
    36ca:	b3 01       	movw	r22, r6
    36cc:	61 50       	subi	r22, 0x01	; 1
    36ce:	70 40       	sbci	r23, 0x00	; 0
    36d0:	80 40       	sbci	r24, 0x00	; 0
    36d2:	90 40       	sbci	r25, 0x00	; 0
    36d4:	a6 01       	movw	r20, r12
    36d6:	95 01       	movw	r18, r10
    36d8:	0e 94 fd 2d 	call	0x5bfa	; 0x5bfa <__udivmodsi4>
    36dc:	2b 83       	std	Y+3, r18	; 0x03
    36de:	3c 83       	std	Y+4, r19	; 0x04
    36e0:	4d 83       	std	Y+5, r20	; 0x05
    36e2:	5e 83       	std	Y+6, r21	; 0x06
    36e4:	c2 01       	movw	r24, r4
    36e6:	b1 01       	movw	r22, r2
    36e8:	a6 01       	movw	r20, r12
    36ea:	95 01       	movw	r18, r10
    36ec:	0e 94 fd 2d 	call	0x5bfa	; 0x5bfa <__udivmodsi4>
    36f0:	8b 81       	ldd	r24, Y+3	; 0x03
    36f2:	9c 81       	ldd	r25, Y+4	; 0x04
    36f4:	ad 81       	ldd	r26, Y+5	; 0x05
    36f6:	be 81       	ldd	r27, Y+6	; 0x06
    36f8:	82 17       	cp	r24, r18
    36fa:	93 07       	cpc	r25, r19
    36fc:	a4 07       	cpc	r26, r20
    36fe:	b5 07       	cpc	r27, r21
    3700:	d0 f0       	brcs	.+52     	; 0x3736 <f_lseek+0x148>
				(ofs - 1) / bcs >= (ifptr - 1) / bcs) {	/* When seek to same or following cluster, */
				fp->fptr = (ifptr - 1) & ~(bcs - 1);	/* start from the current cluster */
    3702:	88 27       	eor	r24, r24
    3704:	99 27       	eor	r25, r25
    3706:	dc 01       	movw	r26, r24
    3708:	8a 19       	sub	r24, r10
    370a:	9b 09       	sbc	r25, r11
    370c:	ac 09       	sbc	r26, r12
    370e:	bd 09       	sbc	r27, r13
    3710:	82 21       	and	r24, r2
    3712:	93 21       	and	r25, r3
    3714:	a4 21       	and	r26, r4
    3716:	b5 21       	and	r27, r5
    3718:	ef 81       	ldd	r30, Y+7	; 0x07
    371a:	f8 85       	ldd	r31, Y+8	; 0x08
    371c:	86 83       	std	Z+6, r24	; 0x06
    371e:	97 83       	std	Z+7, r25	; 0x07
    3720:	a0 87       	std	Z+8, r26	; 0x08
    3722:	b1 87       	std	Z+9, r27	; 0x09
				ofs -= fp->fptr;
    3724:	68 1a       	sub	r6, r24
    3726:	79 0a       	sbc	r7, r25
    3728:	8a 0a       	sbc	r8, r26
    372a:	9b 0a       	sbc	r9, r27
				clst = fp->curr_clust;
    372c:	42 89       	ldd	r20, Z+18	; 0x12
    372e:	53 89       	ldd	r21, Z+19	; 0x13
    3730:	64 89       	ldd	r22, Z+20	; 0x14
    3732:	75 89       	ldd	r23, Z+21	; 0x15
    3734:	3a c0       	rjmp	.+116    	; 0x37aa <f_lseek+0x1bc>
			} else {									/* When seek to back cluster, */
				clst = fp->org_clust;					/* start from the first cluster */
    3736:	af 81       	ldd	r26, Y+7	; 0x07
    3738:	b8 85       	ldd	r27, Y+8	; 0x08
    373a:	1e 96       	adiw	r26, 0x0e	; 14
    373c:	4d 91       	ld	r20, X+
    373e:	5d 91       	ld	r21, X+
    3740:	6d 91       	ld	r22, X+
    3742:	7c 91       	ld	r23, X
    3744:	51 97       	sbiw	r26, 0x11	; 17
#if !_FS_READONLY
				if (clst == 0) {						/* If no cluster chain, create a new chain */
    3746:	41 15       	cp	r20, r1
    3748:	51 05       	cpc	r21, r1
    374a:	61 05       	cpc	r22, r1
    374c:	71 05       	cpc	r23, r1
    374e:	29 f5       	brne	.+74     	; 0x379a <f_lseek+0x1ac>
					clst = create_chain(fp->fs, 0);
    3750:	89 81       	ldd	r24, Y+1	; 0x01
    3752:	9a 81       	ldd	r25, Y+2	; 0x02
    3754:	40 e0       	ldi	r20, 0x00	; 0
    3756:	50 e0       	ldi	r21, 0x00	; 0
    3758:	60 e0       	ldi	r22, 0x00	; 0
    375a:	70 e0       	ldi	r23, 0x00	; 0
    375c:	0e 94 f8 10 	call	0x21f0	; 0x21f0 <create_chain>
    3760:	ab 01       	movw	r20, r22
    3762:	bc 01       	movw	r22, r24
					if (clst == 1) ABORT(fp->fs, FR_INT_ERR);
    3764:	41 30       	cpi	r20, 0x01	; 1
    3766:	51 05       	cpc	r21, r1
    3768:	61 05       	cpc	r22, r1
    376a:	71 05       	cpc	r23, r1
    376c:	41 f4       	brne	.+16     	; 0x377e <f_lseek+0x190>
    376e:	ef 81       	ldd	r30, Y+7	; 0x07
    3770:	f8 85       	ldd	r31, Y+8	; 0x08
    3772:	84 81       	ldd	r24, Z+4	; 0x04
    3774:	80 68       	ori	r24, 0x80	; 128
    3776:	84 83       	std	Z+4, r24	; 0x04
    3778:	f2 e0       	ldi	r31, 0x02	; 2
    377a:	ef 2e       	mov	r14, r31
    377c:	49 c1       	rjmp	.+658    	; 0x3a10 <f_lseek+0x422>
					if (clst == 0xFFFFFFFF) ABORT(fp->fs, FR_DISK_ERR);
    377e:	4f 3f       	cpi	r20, 0xFF	; 255
    3780:	ff ef       	ldi	r31, 0xFF	; 255
    3782:	5f 07       	cpc	r21, r31
    3784:	ff ef       	ldi	r31, 0xFF	; 255
    3786:	6f 07       	cpc	r22, r31
    3788:	ff ef       	ldi	r31, 0xFF	; 255
    378a:	7f 07       	cpc	r23, r31
    378c:	b1 f1       	breq	.+108    	; 0x37fa <f_lseek+0x20c>
					fp->org_clust = clst;
    378e:	ef 81       	ldd	r30, Y+7	; 0x07
    3790:	f8 85       	ldd	r31, Y+8	; 0x08
    3792:	46 87       	std	Z+14, r20	; 0x0e
    3794:	57 87       	std	Z+15, r21	; 0x0f
    3796:	60 8b       	std	Z+16, r22	; 0x10
    3798:	71 8b       	std	Z+17, r23	; 0x11
				}
#endif
				fp->curr_clust = clst;
    379a:	af 81       	ldd	r26, Y+7	; 0x07
    379c:	b8 85       	ldd	r27, Y+8	; 0x08
    379e:	52 96       	adiw	r26, 0x12	; 18
    37a0:	4d 93       	st	X+, r20
    37a2:	5d 93       	st	X+, r21
    37a4:	6d 93       	st	X+, r22
    37a6:	7c 93       	st	X, r23
    37a8:	55 97       	sbiw	r26, 0x15	; 21
			}
			if (clst != 0) {
    37aa:	41 15       	cp	r20, r1
    37ac:	51 05       	cpc	r21, r1
    37ae:	61 05       	cpc	r22, r1
    37b0:	71 05       	cpc	r23, r1
    37b2:	09 f0       	breq	.+2      	; 0x37b6 <f_lseek+0x1c8>
    37b4:	58 c0       	rjmp	.+176    	; 0x3866 <f_lseek+0x278>
    37b6:	bf c0       	rjmp	.+382    	; 0x3936 <f_lseek+0x348>
				while (ofs > bcs) {						/* Cluster following loop */
#if !_FS_READONLY
					if (fp->flag & FA_WRITE) {			/* Check if in write mode or not */
    37b8:	ef 81       	ldd	r30, Y+7	; 0x07
    37ba:	f8 85       	ldd	r31, Y+8	; 0x08
    37bc:	84 81       	ldd	r24, Z+4	; 0x04
    37be:	20 81       	ld	r18, Z
    37c0:	31 81       	ldd	r19, Z+1	; 0x01
    37c2:	81 ff       	sbrs	r24, 1
    37c4:	0d c0       	rjmp	.+26     	; 0x37e0 <f_lseek+0x1f2>
						clst = create_chain(fp->fs, clst);	/* Force stretch if in write mode */
    37c6:	c9 01       	movw	r24, r18
    37c8:	0e 94 f8 10 	call	0x21f0	; 0x21f0 <create_chain>
    37cc:	ab 01       	movw	r20, r22
    37ce:	bc 01       	movw	r22, r24
						if (clst == 0) {				/* When disk gets full, clip file size */
    37d0:	41 15       	cp	r20, r1
    37d2:	51 05       	cpc	r21, r1
    37d4:	61 05       	cpc	r22, r1
    37d6:	71 05       	cpc	r23, r1
    37d8:	41 f4       	brne	.+16     	; 0x37ea <f_lseek+0x1fc>
    37da:	35 01       	movw	r6, r10
    37dc:	46 01       	movw	r8, r12
    37de:	49 c0       	rjmp	.+146    	; 0x3872 <f_lseek+0x284>
							ofs = bcs; break;
						}
					} else
#endif
						clst = get_fat(fp->fs, clst);	/* Follow cluster chain if not in write mode */
    37e0:	c9 01       	movw	r24, r18
    37e2:	0e 94 29 0f 	call	0x1e52	; 0x1e52 <get_fat>
    37e6:	ab 01       	movw	r20, r22
    37e8:	bc 01       	movw	r22, r24
					if (clst == 0xFFFFFFFF) ABORT(fp->fs, FR_DISK_ERR);
    37ea:	4f 3f       	cpi	r20, 0xFF	; 255
    37ec:	ff ef       	ldi	r31, 0xFF	; 255
    37ee:	5f 07       	cpc	r21, r31
    37f0:	ff ef       	ldi	r31, 0xFF	; 255
    37f2:	6f 07       	cpc	r22, r31
    37f4:	ff ef       	ldi	r31, 0xFF	; 255
    37f6:	7f 07       	cpc	r23, r31
    37f8:	49 f4       	brne	.+18     	; 0x380c <f_lseek+0x21e>
    37fa:	af 81       	ldd	r26, Y+7	; 0x07
    37fc:	b8 85       	ldd	r27, Y+8	; 0x08
    37fe:	14 96       	adiw	r26, 0x04	; 4
    3800:	8c 91       	ld	r24, X
    3802:	14 97       	sbiw	r26, 0x04	; 4
    3804:	80 68       	ori	r24, 0x80	; 128
    3806:	14 96       	adiw	r26, 0x04	; 4
    3808:	8c 93       	st	X, r24
    380a:	e1 c0       	rjmp	.+450    	; 0x39ce <f_lseek+0x3e0>
					if (clst <= 1 || clst >= fp->fs->n_fatent) ABORT(fp->fs, FR_INT_ERR);
    380c:	42 30       	cpi	r20, 0x02	; 2
    380e:	51 05       	cpc	r21, r1
    3810:	61 05       	cpc	r22, r1
    3812:	71 05       	cpc	r23, r1
    3814:	08 f4       	brcc	.+2      	; 0x3818 <f_lseek+0x22a>
    3816:	ab cf       	rjmp	.-170    	; 0x376e <f_lseek+0x180>
    3818:	af 81       	ldd	r26, Y+7	; 0x07
    381a:	b8 85       	ldd	r27, Y+8	; 0x08
    381c:	ed 91       	ld	r30, X+
    381e:	fc 91       	ld	r31, X
    3820:	82 8d       	ldd	r24, Z+26	; 0x1a
    3822:	93 8d       	ldd	r25, Z+27	; 0x1b
    3824:	a4 8d       	ldd	r26, Z+28	; 0x1c
    3826:	b5 8d       	ldd	r27, Z+29	; 0x1d
    3828:	48 17       	cp	r20, r24
    382a:	59 07       	cpc	r21, r25
    382c:	6a 07       	cpc	r22, r26
    382e:	7b 07       	cpc	r23, r27
    3830:	08 f0       	brcs	.+2      	; 0x3834 <f_lseek+0x246>
    3832:	9d cf       	rjmp	.-198    	; 0x376e <f_lseek+0x180>
					fp->curr_clust = clst;
    3834:	af 81       	ldd	r26, Y+7	; 0x07
    3836:	b8 85       	ldd	r27, Y+8	; 0x08
    3838:	52 96       	adiw	r26, 0x12	; 18
    383a:	4d 93       	st	X+, r20
    383c:	5d 93       	st	X+, r21
    383e:	6d 93       	st	X+, r22
    3840:	7c 93       	st	X, r23
    3842:	55 97       	sbiw	r26, 0x15	; 21
					fp->fptr += bcs;
    3844:	fd 01       	movw	r30, r26
    3846:	86 81       	ldd	r24, Z+6	; 0x06
    3848:	97 81       	ldd	r25, Z+7	; 0x07
    384a:	a0 85       	ldd	r26, Z+8	; 0x08
    384c:	b1 85       	ldd	r27, Z+9	; 0x09
    384e:	8a 0d       	add	r24, r10
    3850:	9b 1d       	adc	r25, r11
    3852:	ac 1d       	adc	r26, r12
    3854:	bd 1d       	adc	r27, r13
    3856:	86 83       	std	Z+6, r24	; 0x06
    3858:	97 83       	std	Z+7, r25	; 0x07
    385a:	a0 87       	std	Z+8, r26	; 0x08
    385c:	b1 87       	std	Z+9, r27	; 0x09
					ofs -= bcs;
    385e:	6a 18       	sub	r6, r10
    3860:	7b 08       	sbc	r7, r11
    3862:	8c 08       	sbc	r8, r12
    3864:	9d 08       	sbc	r9, r13
				}
#endif
				fp->curr_clust = clst;
			}
			if (clst != 0) {
				while (ofs > bcs) {						/* Cluster following loop */
    3866:	a6 14       	cp	r10, r6
    3868:	b7 04       	cpc	r11, r7
    386a:	c8 04       	cpc	r12, r8
    386c:	d9 04       	cpc	r13, r9
    386e:	08 f4       	brcc	.+2      	; 0x3872 <f_lseek+0x284>
    3870:	a3 cf       	rjmp	.-186    	; 0x37b8 <f_lseek+0x1ca>
					if (clst <= 1 || clst >= fp->fs->n_fatent) ABORT(fp->fs, FR_INT_ERR);
					fp->curr_clust = clst;
					fp->fptr += bcs;
					ofs -= bcs;
				}
				fp->fptr += ofs;
    3872:	ef 81       	ldd	r30, Y+7	; 0x07
    3874:	f8 85       	ldd	r31, Y+8	; 0x08
    3876:	86 81       	ldd	r24, Z+6	; 0x06
    3878:	97 81       	ldd	r25, Z+7	; 0x07
    387a:	a0 85       	ldd	r26, Z+8	; 0x08
    387c:	b1 85       	ldd	r27, Z+9	; 0x09
    387e:	86 0d       	add	r24, r6
    3880:	97 1d       	adc	r25, r7
    3882:	a8 1d       	adc	r26, r8
    3884:	b9 1d       	adc	r27, r9
    3886:	86 83       	std	Z+6, r24	; 0x06
    3888:	97 83       	std	Z+7, r25	; 0x07
    388a:	a0 87       	std	Z+8, r26	; 0x08
    388c:	b1 87       	std	Z+9, r27	; 0x09
				if (ofs % SS(fp->fs)) {
    388e:	d4 01       	movw	r26, r8
    3890:	c3 01       	movw	r24, r6
    3892:	91 70       	andi	r25, 0x01	; 1
    3894:	a0 70       	andi	r26, 0x00	; 0
    3896:	b0 70       	andi	r27, 0x00	; 0
    3898:	00 97       	sbiw	r24, 0x00	; 0
    389a:	a1 05       	cpc	r26, r1
    389c:	b1 05       	cpc	r27, r1
    389e:	09 f4       	brne	.+2      	; 0x38a2 <f_lseek+0x2b4>
    38a0:	4a c0       	rjmp	.+148    	; 0x3936 <f_lseek+0x348>
					nsect = clust2sect(fp->fs, clst);	/* Current sector */
    38a2:	00 81       	ld	r16, Z
    38a4:	11 81       	ldd	r17, Z+1	; 0x01
DWORD clust2sect (	/* !=0: Sector number, 0: Failed - invalid cluster# */
	FATFS *fs,		/* File system object */
	DWORD clst		/* Cluster# to be converted */
)
{
	clst -= 2;
    38a6:	ee ef       	ldi	r30, 0xFE	; 254
    38a8:	ae 2e       	mov	r10, r30
    38aa:	ef ef       	ldi	r30, 0xFF	; 255
    38ac:	be 2e       	mov	r11, r30
    38ae:	ef ef       	ldi	r30, 0xFF	; 255
    38b0:	ce 2e       	mov	r12, r30
    38b2:	ef ef       	ldi	r30, 0xFF	; 255
    38b4:	de 2e       	mov	r13, r30
    38b6:	a4 0e       	add	r10, r20
    38b8:	b5 1e       	adc	r11, r21
    38ba:	c6 1e       	adc	r12, r22
    38bc:	d7 1e       	adc	r13, r23
	if (clst >= (fs->n_fatent - 2)) return 0;		/* Invalid cluster# */
    38be:	f8 01       	movw	r30, r16
    38c0:	82 8d       	ldd	r24, Z+26	; 0x1a
    38c2:	93 8d       	ldd	r25, Z+27	; 0x1b
    38c4:	a4 8d       	ldd	r26, Z+28	; 0x1c
    38c6:	b5 8d       	ldd	r27, Z+29	; 0x1d
    38c8:	02 97       	sbiw	r24, 0x02	; 2
    38ca:	a1 09       	sbc	r26, r1
    38cc:	b1 09       	sbc	r27, r1
    38ce:	a8 16       	cp	r10, r24
    38d0:	b9 06       	cpc	r11, r25
    38d2:	ca 06       	cpc	r12, r26
    38d4:	db 06       	cpc	r13, r27
    38d6:	c0 f4       	brcc	.+48     	; 0x3908 <f_lseek+0x31a>
	return clst * fs->csize + fs->database;
    38d8:	22 81       	ldd	r18, Z+2	; 0x02
    38da:	30 e0       	ldi	r19, 0x00	; 0
    38dc:	40 e0       	ldi	r20, 0x00	; 0
    38de:	50 e0       	ldi	r21, 0x00	; 0
    38e0:	c6 01       	movw	r24, r12
    38e2:	b5 01       	movw	r22, r10
    38e4:	0e 94 de 2d 	call	0x5bbc	; 0x5bbc <__mulsi3>
    38e8:	9b 01       	movw	r18, r22
    38ea:	ac 01       	movw	r20, r24
    38ec:	f8 01       	movw	r30, r16
    38ee:	82 a5       	ldd	r24, Z+42	; 0x2a
    38f0:	93 a5       	ldd	r25, Z+43	; 0x2b
    38f2:	a4 a5       	ldd	r26, Z+44	; 0x2c
    38f4:	b5 a5       	ldd	r27, Z+45	; 0x2d
    38f6:	28 0f       	add	r18, r24
    38f8:	39 1f       	adc	r19, r25
    38fa:	4a 1f       	adc	r20, r26
    38fc:	5b 1f       	adc	r21, r27
					ofs -= bcs;
				}
				fp->fptr += ofs;
				if (ofs % SS(fp->fs)) {
					nsect = clust2sect(fp->fs, clst);	/* Current sector */
					if (!nsect) ABORT(fp->fs, FR_INT_ERR);
    38fe:	21 15       	cp	r18, r1
    3900:	31 05       	cpc	r19, r1
    3902:	41 05       	cpc	r20, r1
    3904:	51 05       	cpc	r21, r1
    3906:	49 f4       	brne	.+18     	; 0x391a <f_lseek+0x32c>
    3908:	af 81       	ldd	r26, Y+7	; 0x07
    390a:	b8 85       	ldd	r27, Y+8	; 0x08
    390c:	14 96       	adiw	r26, 0x04	; 4
    390e:	8c 91       	ld	r24, X
    3910:	14 97       	sbiw	r26, 0x04	; 4
    3912:	80 68       	ori	r24, 0x80	; 128
    3914:	14 96       	adiw	r26, 0x04	; 4
    3916:	8c 93       	st	X, r24
    3918:	2f cf       	rjmp	.-418    	; 0x3778 <f_lseek+0x18a>
					nsect += ofs / SS(fp->fs);
    391a:	64 01       	movw	r12, r8
    391c:	53 01       	movw	r10, r6
    391e:	69 e0       	ldi	r22, 0x09	; 9
    3920:	d6 94       	lsr	r13
    3922:	c7 94       	ror	r12
    3924:	b7 94       	ror	r11
    3926:	a7 94       	ror	r10
    3928:	6a 95       	dec	r22
    392a:	d1 f7       	brne	.-12     	; 0x3920 <f_lseek+0x332>
    392c:	a2 0e       	add	r10, r18
    392e:	b3 1e       	adc	r11, r19
    3930:	c4 1e       	adc	r12, r20
    3932:	d5 1e       	adc	r13, r21
    3934:	03 c0       	rjmp	.+6      	; 0x393c <f_lseek+0x34e>
    3936:	aa 24       	eor	r10, r10
    3938:	bb 24       	eor	r11, r11
    393a:	65 01       	movw	r12, r10
				}
			}
		}
		if (fp->fptr % SS(fp->fs) && nsect != fp->dsect) {
    393c:	ef 81       	ldd	r30, Y+7	; 0x07
    393e:	f8 85       	ldd	r31, Y+8	; 0x08
    3940:	86 81       	ldd	r24, Z+6	; 0x06
    3942:	97 81       	ldd	r25, Z+7	; 0x07
    3944:	a0 85       	ldd	r26, Z+8	; 0x08
    3946:	b1 85       	ldd	r27, Z+9	; 0x09
    3948:	91 70       	andi	r25, 0x01	; 1
    394a:	a0 70       	andi	r26, 0x00	; 0
    394c:	b0 70       	andi	r27, 0x00	; 0
    394e:	00 97       	sbiw	r24, 0x00	; 0
    3950:	a1 05       	cpc	r26, r1
    3952:	b1 05       	cpc	r27, r1
    3954:	09 f4       	brne	.+2      	; 0x3958 <f_lseek+0x36a>
    3956:	46 c0       	rjmp	.+140    	; 0x39e4 <f_lseek+0x3f6>
    3958:	26 89       	ldd	r18, Z+22	; 0x16
    395a:	37 89       	ldd	r19, Z+23	; 0x17
    395c:	40 8d       	ldd	r20, Z+24	; 0x18
    395e:	51 8d       	ldd	r21, Z+25	; 0x19
    3960:	a2 16       	cp	r10, r18
    3962:	b3 06       	cpc	r11, r19
    3964:	c4 06       	cpc	r12, r20
    3966:	d5 06       	cpc	r13, r21
    3968:	e9 f1       	breq	.+122    	; 0x39e4 <f_lseek+0x3f6>
#if !_FS_TINY
#if !_FS_READONLY
			if (fp->flag & FA__DIRTY) {			/* Flush dirty buffer if needed */
    396a:	84 81       	ldd	r24, Z+4	; 0x04
    396c:	86 ff       	sbrs	r24, 6
    396e:	1a c0       	rjmp	.+52     	; 0x39a4 <f_lseek+0x3b6>
				if (disk_write(fp->fs->drv, fp->buf, fp->dsect, 1) != RES_OK)
    3970:	01 90       	ld	r0, Z+
    3972:	f0 81       	ld	r31, Z
    3974:	e0 2d       	mov	r30, r0
    3976:	6f 81       	ldd	r22, Y+7	; 0x07
    3978:	78 85       	ldd	r23, Y+8	; 0x08
    397a:	60 5e       	subi	r22, 0xE0	; 224
    397c:	7f 4f       	sbci	r23, 0xFF	; 255
    397e:	81 81       	ldd	r24, Z+1	; 0x01
    3980:	01 e0       	ldi	r16, 0x01	; 1
    3982:	0e 94 36 2a 	call	0x546c	; 0x546c <disk_write>
    3986:	af 81       	ldd	r26, Y+7	; 0x07
    3988:	b8 85       	ldd	r27, Y+8	; 0x08
    398a:	14 96       	adiw	r26, 0x04	; 4
    398c:	9c 91       	ld	r25, X
    398e:	14 97       	sbiw	r26, 0x04	; 4
    3990:	88 23       	and	r24, r24
    3992:	21 f0       	breq	.+8      	; 0x399c <f_lseek+0x3ae>
					ABORT(fp->fs, FR_DISK_ERR);
    3994:	90 68       	ori	r25, 0x80	; 128
    3996:	14 96       	adiw	r26, 0x04	; 4
    3998:	9c 93       	st	X, r25
    399a:	19 c0       	rjmp	.+50     	; 0x39ce <f_lseek+0x3e0>
				fp->flag &= ~FA__DIRTY;
    399c:	9f 7b       	andi	r25, 0xBF	; 191
    399e:	ef 81       	ldd	r30, Y+7	; 0x07
    39a0:	f8 85       	ldd	r31, Y+8	; 0x08
    39a2:	94 83       	std	Z+4, r25	; 0x04
			}
#endif
			if (disk_read(fp->fs->drv, fp->buf, nsect, 1) != RES_OK)
    39a4:	af 81       	ldd	r26, Y+7	; 0x07
    39a6:	b8 85       	ldd	r27, Y+8	; 0x08
    39a8:	ed 91       	ld	r30, X+
    39aa:	fc 91       	ld	r31, X
    39ac:	11 97       	sbiw	r26, 0x01	; 1
    39ae:	bd 01       	movw	r22, r26
    39b0:	60 5e       	subi	r22, 0xE0	; 224
    39b2:	7f 4f       	sbci	r23, 0xFF	; 255
    39b4:	81 81       	ldd	r24, Z+1	; 0x01
    39b6:	a6 01       	movw	r20, r12
    39b8:	95 01       	movw	r18, r10
    39ba:	01 e0       	ldi	r16, 0x01	; 1
    39bc:	0e 94 de 29 	call	0x53bc	; 0x53bc <disk_read>
    39c0:	88 23       	and	r24, r24
    39c2:	41 f0       	breq	.+16     	; 0x39d4 <f_lseek+0x3e6>
				ABORT(fp->fs, FR_DISK_ERR);
    39c4:	ef 81       	ldd	r30, Y+7	; 0x07
    39c6:	f8 85       	ldd	r31, Y+8	; 0x08
    39c8:	84 81       	ldd	r24, Z+4	; 0x04
    39ca:	80 68       	ori	r24, 0x80	; 128
    39cc:	84 83       	std	Z+4, r24	; 0x04
    39ce:	ee 24       	eor	r14, r14
    39d0:	e3 94       	inc	r14
    39d2:	1e c0       	rjmp	.+60     	; 0x3a10 <f_lseek+0x422>
#endif
			fp->dsect = nsect;
    39d4:	af 81       	ldd	r26, Y+7	; 0x07
    39d6:	b8 85       	ldd	r27, Y+8	; 0x08
    39d8:	56 96       	adiw	r26, 0x16	; 22
    39da:	ad 92       	st	X+, r10
    39dc:	bd 92       	st	X+, r11
    39de:	cd 92       	st	X+, r12
    39e0:	dc 92       	st	X, r13
    39e2:	59 97       	sbiw	r26, 0x19	; 25
		}
#if !_FS_READONLY
		if (fp->fptr > fp->fsize) {			/* Set change flag if the file size is extended */
    39e4:	ef 81       	ldd	r30, Y+7	; 0x07
    39e6:	f8 85       	ldd	r31, Y+8	; 0x08
    39e8:	26 81       	ldd	r18, Z+6	; 0x06
    39ea:	37 81       	ldd	r19, Z+7	; 0x07
    39ec:	40 85       	ldd	r20, Z+8	; 0x08
    39ee:	51 85       	ldd	r21, Z+9	; 0x09
    39f0:	82 85       	ldd	r24, Z+10	; 0x0a
    39f2:	93 85       	ldd	r25, Z+11	; 0x0b
    39f4:	a4 85       	ldd	r26, Z+12	; 0x0c
    39f6:	b5 85       	ldd	r27, Z+13	; 0x0d
    39f8:	82 17       	cp	r24, r18
    39fa:	93 07       	cpc	r25, r19
    39fc:	a4 07       	cpc	r26, r20
    39fe:	b5 07       	cpc	r27, r21
    3a00:	38 f4       	brcc	.+14     	; 0x3a10 <f_lseek+0x422>
			fp->fsize = fp->fptr;
    3a02:	22 87       	std	Z+10, r18	; 0x0a
    3a04:	33 87       	std	Z+11, r19	; 0x0b
    3a06:	44 87       	std	Z+12, r20	; 0x0c
    3a08:	55 87       	std	Z+13, r21	; 0x0d
			fp->flag |= FA__WRITTEN;
    3a0a:	84 81       	ldd	r24, Z+4	; 0x04
    3a0c:	80 62       	ori	r24, 0x20	; 32
    3a0e:	84 83       	std	Z+4, r24	; 0x04
		}
#endif
	}

	LEAVE_FF(fp->fs, res);
}
    3a10:	8e 2d       	mov	r24, r14
    3a12:	28 96       	adiw	r28, 0x08	; 8
    3a14:	0f b6       	in	r0, 0x3f	; 63
    3a16:	f8 94       	cli
    3a18:	de bf       	out	0x3e, r29	; 62
    3a1a:	0f be       	out	0x3f, r0	; 63
    3a1c:	cd bf       	out	0x3d, r28	; 61
    3a1e:	cf 91       	pop	r28
    3a20:	df 91       	pop	r29
    3a22:	1f 91       	pop	r17
    3a24:	0f 91       	pop	r16
    3a26:	ef 90       	pop	r14
    3a28:	df 90       	pop	r13
    3a2a:	cf 90       	pop	r12
    3a2c:	bf 90       	pop	r11
    3a2e:	af 90       	pop	r10
    3a30:	9f 90       	pop	r9
    3a32:	8f 90       	pop	r8
    3a34:	7f 90       	pop	r7
    3a36:	6f 90       	pop	r6
    3a38:	5f 90       	pop	r5
    3a3a:	4f 90       	pop	r4
    3a3c:	3f 90       	pop	r3
    3a3e:	2f 90       	pop	r2
    3a40:	08 95       	ret

00003a42 <f_write>:
	FIL *fp,			/* Pointer to the file object */
	const void *buff,	/* Pointer to the data to be written */
	UINT btw,			/* Number of bytes to write */
	UINT *bw			/* Pointer to number of bytes written */
)
{
    3a42:	3f 92       	push	r3
    3a44:	4f 92       	push	r4
    3a46:	5f 92       	push	r5
    3a48:	6f 92       	push	r6
    3a4a:	7f 92       	push	r7
    3a4c:	8f 92       	push	r8
    3a4e:	9f 92       	push	r9
    3a50:	af 92       	push	r10
    3a52:	bf 92       	push	r11
    3a54:	cf 92       	push	r12
    3a56:	df 92       	push	r13
    3a58:	ef 92       	push	r14
    3a5a:	ff 92       	push	r15
    3a5c:	0f 93       	push	r16
    3a5e:	1f 93       	push	r17
    3a60:	df 93       	push	r29
    3a62:	cf 93       	push	r28
    3a64:	00 d0       	rcall	.+0      	; 0x3a66 <f_write+0x24>
    3a66:	00 d0       	rcall	.+0      	; 0x3a68 <f_write+0x26>
    3a68:	00 d0       	rcall	.+0      	; 0x3a6a <f_write+0x28>
    3a6a:	cd b7       	in	r28, 0x3d	; 61
    3a6c:	de b7       	in	r29, 0x3e	; 62
    3a6e:	9e 83       	std	Y+6, r25	; 0x06
    3a70:	8d 83       	std	Y+5, r24	; 0x05
    3a72:	16 2f       	mov	r17, r22
    3a74:	07 2f       	mov	r16, r23
    3a76:	3a 01       	movw	r6, r20
    3a78:	3c 83       	std	Y+4, r19	; 0x04
    3a7a:	2b 83       	std	Y+3, r18	; 0x03
	UINT wcnt, cc;
	const BYTE *wbuff = buff;
	BYTE csect;


	*bw = 0;	/* Initialize byte counter */
    3a7c:	d9 01       	movw	r26, r18
    3a7e:	1d 92       	st	X+, r1
    3a80:	1c 92       	st	X, r1

	res = validate(fp->fs, fp->id);					/* Check validity of the object */
    3a82:	fc 01       	movw	r30, r24
    3a84:	62 81       	ldd	r22, Z+2	; 0x02
    3a86:	73 81       	ldd	r23, Z+3	; 0x03
    3a88:	80 81       	ld	r24, Z
    3a8a:	91 81       	ldd	r25, Z+1	; 0x01
    3a8c:	0e 94 84 0a 	call	0x1508	; 0x1508 <validate>
    3a90:	38 2e       	mov	r3, r24
	if (res != FR_OK) LEAVE_FF(fp->fs, res);
    3a92:	88 23       	and	r24, r24
    3a94:	09 f0       	breq	.+2      	; 0x3a98 <f_write+0x56>
    3a96:	0c c2       	rjmp	.+1048   	; 0x3eb0 <f_write+0x46e>
	if (fp->flag & FA__ERROR)						/* Check abort flag */
    3a98:	ad 81       	ldd	r26, Y+5	; 0x05
    3a9a:	be 81       	ldd	r27, Y+6	; 0x06
    3a9c:	14 96       	adiw	r26, 0x04	; 4
    3a9e:	8c 91       	ld	r24, X
    3aa0:	87 fd       	sbrc	r24, 7
    3aa2:	83 c0       	rjmp	.+262    	; 0x3baa <f_write+0x168>
		LEAVE_FF(fp->fs, FR_INT_ERR);
	if (!(fp->flag & FA_WRITE))						/* Check access mode */
    3aa4:	81 fd       	sbrc	r24, 1
    3aa6:	03 c0       	rjmp	.+6      	; 0x3aae <f_write+0x6c>
    3aa8:	77 e0       	ldi	r23, 0x07	; 7
    3aaa:	37 2e       	mov	r3, r23
    3aac:	01 c2       	rjmp	.+1026   	; 0x3eb0 <f_write+0x46e>
		LEAVE_FF(fp->fs, FR_DENIED);
	if (fp->fsize + btw < fp->fsize) btw = 0;		/* File size cannot reach 4GB */
    3aae:	ed 81       	ldd	r30, Y+5	; 0x05
    3ab0:	fe 81       	ldd	r31, Y+6	; 0x06
    3ab2:	22 85       	ldd	r18, Z+10	; 0x0a
    3ab4:	33 85       	ldd	r19, Z+11	; 0x0b
    3ab6:	44 85       	ldd	r20, Z+12	; 0x0c
    3ab8:	55 85       	ldd	r21, Z+13	; 0x0d
    3aba:	c3 01       	movw	r24, r6
    3abc:	a0 e0       	ldi	r26, 0x00	; 0
    3abe:	b0 e0       	ldi	r27, 0x00	; 0
    3ac0:	82 0f       	add	r24, r18
    3ac2:	93 1f       	adc	r25, r19
    3ac4:	a4 1f       	adc	r26, r20
    3ac6:	b5 1f       	adc	r27, r21
    3ac8:	82 17       	cp	r24, r18
    3aca:	93 07       	cpc	r25, r19
    3acc:	a4 07       	cpc	r26, r20
    3ace:	b5 07       	cpc	r27, r21
    3ad0:	10 f4       	brcc	.+4      	; 0x3ad6 <f_write+0x94>
    3ad2:	66 24       	eor	r6, r6
    3ad4:	77 24       	eor	r7, r7
)
{
	FRESULT res;
	DWORD clst, sect;
	UINT wcnt, cc;
	const BYTE *wbuff = buff;
    3ad6:	81 2f       	mov	r24, r17
    3ad8:	90 2f       	mov	r25, r16
    3ada:	9c 01       	movw	r18, r24
    3adc:	29 01       	movw	r4, r18
#if _FS_TINY
			if (fp->fs->winsect == fp->dsect && move_window(fp->fs, 0))	/* Write back data buffer prior to following direct transfer */
				ABORT(fp->fs, FR_DISK_ERR);
#else
			if (fp->flag & FA__DIRTY) {		/* Write back data buffer prior to following direct transfer */
				if (disk_write(fp->fs->drv, fp->buf, fp->dsect, 1) != RES_OK)
    3ade:	6d 81       	ldd	r22, Y+5	; 0x05
    3ae0:	7e 81       	ldd	r23, Y+6	; 0x06
    3ae2:	60 5e       	subi	r22, 0xE0	; 224
    3ae4:	7f 4f       	sbci	r23, 0xFF	; 255
    3ae6:	7a 83       	std	Y+2, r23	; 0x02
    3ae8:	69 83       	std	Y+1, r22	; 0x01
    3aea:	bd c1       	rjmp	.+890    	; 0x3e66 <f_write+0x424>
		LEAVE_FF(fp->fs, FR_DENIED);
	if (fp->fsize + btw < fp->fsize) btw = 0;		/* File size cannot reach 4GB */

	for ( ;  btw;									/* Repeat until all data transferred */
		wbuff += wcnt, fp->fptr += wcnt, *bw += wcnt, btw -= wcnt) {
		if ((fp->fptr % SS(fp->fs)) == 0) {			/* On the sector boundary? */
    3aec:	ad 81       	ldd	r26, Y+5	; 0x05
    3aee:	be 81       	ldd	r27, Y+6	; 0x06
    3af0:	16 96       	adiw	r26, 0x06	; 6
    3af2:	2d 91       	ld	r18, X+
    3af4:	3d 91       	ld	r19, X+
    3af6:	4d 91       	ld	r20, X+
    3af8:	5c 91       	ld	r21, X
    3afa:	19 97       	sbiw	r26, 0x09	; 9
    3afc:	da 01       	movw	r26, r20
    3afe:	c9 01       	movw	r24, r18
    3b00:	91 70       	andi	r25, 0x01	; 1
    3b02:	a0 70       	andi	r26, 0x00	; 0
    3b04:	b0 70       	andi	r27, 0x00	; 0
    3b06:	00 97       	sbiw	r24, 0x00	; 0
    3b08:	a1 05       	cpc	r26, r1
    3b0a:	b1 05       	cpc	r27, r1
    3b0c:	09 f0       	breq	.+2      	; 0x3b10 <f_write+0xce>
    3b0e:	53 c1       	rjmp	.+678    	; 0x3db6 <f_write+0x374>
			csect = (BYTE)(fp->fptr / SS(fp->fs) & (fp->fs->csize - 1));	/* Sector offset in the cluster */
    3b10:	ad 81       	ldd	r26, Y+5	; 0x05
    3b12:	be 81       	ldd	r27, Y+6	; 0x06
    3b14:	ed 91       	ld	r30, X+
    3b16:	fc 91       	ld	r31, X
    3b18:	da 01       	movw	r26, r20
    3b1a:	c9 01       	movw	r24, r18
    3b1c:	69 e0       	ldi	r22, 0x09	; 9
    3b1e:	b6 95       	lsr	r27
    3b20:	a7 95       	ror	r26
    3b22:	97 95       	ror	r25
    3b24:	87 95       	ror	r24
    3b26:	6a 95       	dec	r22
    3b28:	d1 f7       	brne	.-12     	; 0x3b1e <f_write+0xdc>
    3b2a:	92 80       	ldd	r9, Z+2	; 0x02
    3b2c:	9a 94       	dec	r9
    3b2e:	98 22       	and	r9, r24
			if (!csect) {							/* On the cluster boundary? */
    3b30:	09 f0       	breq	.+2      	; 0x3b34 <f_write+0xf2>
    3b32:	4d c0       	rjmp	.+154    	; 0x3bce <f_write+0x18c>
				if (fp->fptr == 0) {				/* On the top of the file? */
    3b34:	21 15       	cp	r18, r1
    3b36:	31 05       	cpc	r19, r1
    3b38:	41 05       	cpc	r20, r1
    3b3a:	51 05       	cpc	r21, r1
    3b3c:	d9 f4       	brne	.+54     	; 0x3b74 <f_write+0x132>
					clst = fp->org_clust;			/* Follow from the origin */
    3b3e:	ad 81       	ldd	r26, Y+5	; 0x05
    3b40:	be 81       	ldd	r27, Y+6	; 0x06
    3b42:	1e 96       	adiw	r26, 0x0e	; 14
    3b44:	6d 91       	ld	r22, X+
    3b46:	7d 91       	ld	r23, X+
    3b48:	8d 91       	ld	r24, X+
    3b4a:	9c 91       	ld	r25, X
    3b4c:	51 97       	sbiw	r26, 0x11	; 17
					if (clst == 0)					/* When there is no cluster chain, */
    3b4e:	61 15       	cp	r22, r1
    3b50:	71 05       	cpc	r23, r1
    3b52:	81 05       	cpc	r24, r1
    3b54:	91 05       	cpc	r25, r1
    3b56:	f9 f4       	brne	.+62     	; 0x3b96 <f_write+0x154>
						fp->org_clust = clst = create_chain(fp->fs, 0);	/* Create a new cluster chain */
    3b58:	cf 01       	movw	r24, r30
    3b5a:	40 e0       	ldi	r20, 0x00	; 0
    3b5c:	50 e0       	ldi	r21, 0x00	; 0
    3b5e:	60 e0       	ldi	r22, 0x00	; 0
    3b60:	70 e0       	ldi	r23, 0x00	; 0
    3b62:	0e 94 f8 10 	call	0x21f0	; 0x21f0 <create_chain>
    3b66:	ed 81       	ldd	r30, Y+5	; 0x05
    3b68:	fe 81       	ldd	r31, Y+6	; 0x06
    3b6a:	66 87       	std	Z+14, r22	; 0x0e
    3b6c:	77 87       	std	Z+15, r23	; 0x0f
    3b6e:	80 8b       	std	Z+16, r24	; 0x10
    3b70:	91 8b       	std	Z+17, r25	; 0x11
    3b72:	0b c0       	rjmp	.+22     	; 0x3b8a <f_write+0x148>
				} else {							/* Middle or end of the file */
					clst = create_chain(fp->fs, fp->curr_clust);			/* Follow or stretch cluster chain */
    3b74:	ad 81       	ldd	r26, Y+5	; 0x05
    3b76:	be 81       	ldd	r27, Y+6	; 0x06
    3b78:	52 96       	adiw	r26, 0x12	; 18
    3b7a:	4d 91       	ld	r20, X+
    3b7c:	5d 91       	ld	r21, X+
    3b7e:	6d 91       	ld	r22, X+
    3b80:	7c 91       	ld	r23, X
    3b82:	55 97       	sbiw	r26, 0x15	; 21
    3b84:	cf 01       	movw	r24, r30
    3b86:	0e 94 f8 10 	call	0x21f0	; 0x21f0 <create_chain>
				}
				if (clst == 0) break;				/* Could not allocate a new cluster (disk full) */
    3b8a:	61 15       	cp	r22, r1
    3b8c:	71 05       	cpc	r23, r1
    3b8e:	81 05       	cpc	r24, r1
    3b90:	91 05       	cpc	r25, r1
    3b92:	09 f4       	brne	.+2      	; 0x3b96 <f_write+0x154>
    3b94:	6c c1       	rjmp	.+728    	; 0x3e6e <f_write+0x42c>
				if (clst == 1) ABORT(fp->fs, FR_INT_ERR);
    3b96:	61 30       	cpi	r22, 0x01	; 1
    3b98:	71 05       	cpc	r23, r1
    3b9a:	81 05       	cpc	r24, r1
    3b9c:	91 05       	cpc	r25, r1
    3b9e:	41 f4       	brne	.+16     	; 0x3bb0 <f_write+0x16e>
    3ba0:	ed 81       	ldd	r30, Y+5	; 0x05
    3ba2:	fe 81       	ldd	r31, Y+6	; 0x06
    3ba4:	84 81       	ldd	r24, Z+4	; 0x04
    3ba6:	80 68       	ori	r24, 0x80	; 128
    3ba8:	84 83       	std	Z+4, r24	; 0x04
    3baa:	92 e0       	ldi	r25, 0x02	; 2
    3bac:	39 2e       	mov	r3, r25
    3bae:	80 c1       	rjmp	.+768    	; 0x3eb0 <f_write+0x46e>
				if (clst == 0xFFFFFFFF) ABORT(fp->fs, FR_DISK_ERR);
    3bb0:	6f 3f       	cpi	r22, 0xFF	; 255
    3bb2:	ff ef       	ldi	r31, 0xFF	; 255
    3bb4:	7f 07       	cpc	r23, r31
    3bb6:	ff ef       	ldi	r31, 0xFF	; 255
    3bb8:	8f 07       	cpc	r24, r31
    3bba:	ff ef       	ldi	r31, 0xFF	; 255
    3bbc:	9f 07       	cpc	r25, r31
    3bbe:	09 f4       	brne	.+2      	; 0x3bc2 <f_write+0x180>
    3bc0:	87 c0       	rjmp	.+270    	; 0x3cd0 <f_write+0x28e>
				fp->curr_clust = clst;				/* Update current cluster */
    3bc2:	ed 81       	ldd	r30, Y+5	; 0x05
    3bc4:	fe 81       	ldd	r31, Y+6	; 0x06
    3bc6:	62 8b       	std	Z+18, r22	; 0x12
    3bc8:	73 8b       	std	Z+19, r23	; 0x13
    3bca:	84 8b       	std	Z+20, r24	; 0x14
    3bcc:	95 8b       	std	Z+21, r25	; 0x15
			}
#if _FS_TINY
			if (fp->fs->winsect == fp->dsect && move_window(fp->fs, 0))	/* Write back data buffer prior to following direct transfer */
				ABORT(fp->fs, FR_DISK_ERR);
#else
			if (fp->flag & FA__DIRTY) {		/* Write back data buffer prior to following direct transfer */
    3bce:	ad 81       	ldd	r26, Y+5	; 0x05
    3bd0:	be 81       	ldd	r27, Y+6	; 0x06
    3bd2:	14 96       	adiw	r26, 0x04	; 4
    3bd4:	8c 91       	ld	r24, X
    3bd6:	14 97       	sbiw	r26, 0x04	; 4
    3bd8:	86 ff       	sbrs	r24, 6
    3bda:	1c c0       	rjmp	.+56     	; 0x3c14 <f_write+0x1d2>
				if (disk_write(fp->fs->drv, fp->buf, fp->dsect, 1) != RES_OK)
    3bdc:	ed 91       	ld	r30, X+
    3bde:	fc 91       	ld	r31, X
    3be0:	11 97       	sbiw	r26, 0x01	; 1
    3be2:	56 96       	adiw	r26, 0x16	; 22
    3be4:	2d 91       	ld	r18, X+
    3be6:	3d 91       	ld	r19, X+
    3be8:	4d 91       	ld	r20, X+
    3bea:	5c 91       	ld	r21, X
    3bec:	59 97       	sbiw	r26, 0x19	; 25
    3bee:	81 81       	ldd	r24, Z+1	; 0x01
    3bf0:	69 81       	ldd	r22, Y+1	; 0x01
    3bf2:	7a 81       	ldd	r23, Y+2	; 0x02
    3bf4:	01 e0       	ldi	r16, 0x01	; 1
    3bf6:	0e 94 36 2a 	call	0x546c	; 0x546c <disk_write>
    3bfa:	ed 81       	ldd	r30, Y+5	; 0x05
    3bfc:	fe 81       	ldd	r31, Y+6	; 0x06
    3bfe:	94 81       	ldd	r25, Z+4	; 0x04
    3c00:	88 23       	and	r24, r24
    3c02:	19 f0       	breq	.+6      	; 0x3c0a <f_write+0x1c8>
					ABORT(fp->fs, FR_DISK_ERR);
    3c04:	90 68       	ori	r25, 0x80	; 128
    3c06:	94 83       	std	Z+4, r25	; 0x04
    3c08:	cb c0       	rjmp	.+406    	; 0x3da0 <f_write+0x35e>
				fp->flag &= ~FA__DIRTY;
    3c0a:	9f 7b       	andi	r25, 0xBF	; 191
    3c0c:	ad 81       	ldd	r26, Y+5	; 0x05
    3c0e:	be 81       	ldd	r27, Y+6	; 0x06
    3c10:	14 96       	adiw	r26, 0x04	; 4
    3c12:	9c 93       	st	X, r25
			}
#endif
			sect = clust2sect(fp->fs, fp->curr_clust);	/* Get current sector */
    3c14:	ed 81       	ldd	r30, Y+5	; 0x05
    3c16:	fe 81       	ldd	r31, Y+6	; 0x06
    3c18:	00 81       	ld	r16, Z
    3c1a:	11 81       	ldd	r17, Z+1	; 0x01
DWORD clust2sect (	/* !=0: Sector number, 0: Failed - invalid cluster# */
	FATFS *fs,		/* File system object */
	DWORD clst		/* Cluster# to be converted */
)
{
	clst -= 2;
    3c1c:	22 89       	ldd	r18, Z+18	; 0x12
    3c1e:	33 89       	ldd	r19, Z+19	; 0x13
    3c20:	44 89       	ldd	r20, Z+20	; 0x14
    3c22:	55 89       	ldd	r21, Z+21	; 0x15
    3c24:	22 50       	subi	r18, 0x02	; 2
    3c26:	30 40       	sbci	r19, 0x00	; 0
    3c28:	40 40       	sbci	r20, 0x00	; 0
    3c2a:	50 40       	sbci	r21, 0x00	; 0
	if (clst >= (fs->n_fatent - 2)) return 0;		/* Invalid cluster# */
    3c2c:	f8 01       	movw	r30, r16
    3c2e:	82 8d       	ldd	r24, Z+26	; 0x1a
    3c30:	93 8d       	ldd	r25, Z+27	; 0x1b
    3c32:	a4 8d       	ldd	r26, Z+28	; 0x1c
    3c34:	b5 8d       	ldd	r27, Z+29	; 0x1d
    3c36:	02 97       	sbiw	r24, 0x02	; 2
    3c38:	a1 09       	sbc	r26, r1
    3c3a:	b1 09       	sbc	r27, r1
    3c3c:	28 17       	cp	r18, r24
    3c3e:	39 07       	cpc	r19, r25
    3c40:	4a 07       	cpc	r20, r26
    3c42:	5b 07       	cpc	r21, r27
    3c44:	b8 f4       	brcc	.+46     	; 0x3c74 <f_write+0x232>
	return clst * fs->csize + fs->database;
    3c46:	82 80       	ldd	r8, Z+2	; 0x02
    3c48:	68 2d       	mov	r22, r8
    3c4a:	70 e0       	ldi	r23, 0x00	; 0
    3c4c:	80 e0       	ldi	r24, 0x00	; 0
    3c4e:	90 e0       	ldi	r25, 0x00	; 0
    3c50:	0e 94 de 2d 	call	0x5bbc	; 0x5bbc <__mulsi3>
    3c54:	9b 01       	movw	r18, r22
    3c56:	ac 01       	movw	r20, r24
    3c58:	f8 01       	movw	r30, r16
    3c5a:	82 a5       	ldd	r24, Z+42	; 0x2a
    3c5c:	93 a5       	ldd	r25, Z+43	; 0x2b
    3c5e:	a4 a5       	ldd	r26, Z+44	; 0x2c
    3c60:	b5 a5       	ldd	r27, Z+45	; 0x2d
    3c62:	28 0f       	add	r18, r24
    3c64:	39 1f       	adc	r19, r25
    3c66:	4a 1f       	adc	r20, r26
    3c68:	5b 1f       	adc	r21, r27
					ABORT(fp->fs, FR_DISK_ERR);
				fp->flag &= ~FA__DIRTY;
			}
#endif
			sect = clust2sect(fp->fs, fp->curr_clust);	/* Get current sector */
			if (!sect) ABORT(fp->fs, FR_INT_ERR);
    3c6a:	21 15       	cp	r18, r1
    3c6c:	31 05       	cpc	r19, r1
    3c6e:	41 05       	cpc	r20, r1
    3c70:	51 05       	cpc	r21, r1
    3c72:	49 f4       	brne	.+18     	; 0x3c86 <f_write+0x244>
    3c74:	ad 81       	ldd	r26, Y+5	; 0x05
    3c76:	be 81       	ldd	r27, Y+6	; 0x06
    3c78:	14 96       	adiw	r26, 0x04	; 4
    3c7a:	8c 91       	ld	r24, X
    3c7c:	14 97       	sbiw	r26, 0x04	; 4
    3c7e:	80 68       	ori	r24, 0x80	; 128
    3c80:	14 96       	adiw	r26, 0x04	; 4
    3c82:	8c 93       	st	X, r24
    3c84:	92 cf       	rjmp	.-220    	; 0x3baa <f_write+0x168>
			sect += csect;
    3c86:	69 01       	movw	r12, r18
    3c88:	7a 01       	movw	r14, r20
    3c8a:	c9 0c       	add	r12, r9
    3c8c:	d1 1c       	adc	r13, r1
    3c8e:	e1 1c       	adc	r14, r1
    3c90:	f1 1c       	adc	r15, r1
			cc = btw / SS(fp->fs);					/* When remaining bytes >= sector size, */
    3c92:	53 01       	movw	r10, r6
    3c94:	ab 2c       	mov	r10, r11
    3c96:	bb 24       	eor	r11, r11
    3c98:	a6 94       	lsr	r10
			if (cc) {								/* Write maximum contiguous sectors directly */
    3c9a:	a1 14       	cp	r10, r1
    3c9c:	b1 04       	cpc	r11, r1
    3c9e:	09 f4       	brne	.+2      	; 0x3ca2 <f_write+0x260>
    3ca0:	56 c0       	rjmp	.+172    	; 0x3d4e <f_write+0x30c>
				if (csect + cc > fp->fs->csize)		/* Clip at cluster boundary */
    3ca2:	29 2d       	mov	r18, r9
    3ca4:	30 e0       	ldi	r19, 0x00	; 0
    3ca6:	c5 01       	movw	r24, r10
    3ca8:	82 0f       	add	r24, r18
    3caa:	93 1f       	adc	r25, r19
    3cac:	68 2d       	mov	r22, r8
    3cae:	70 e0       	ldi	r23, 0x00	; 0
    3cb0:	68 17       	cp	r22, r24
    3cb2:	79 07       	cpc	r23, r25
    3cb4:	18 f4       	brcc	.+6      	; 0x3cbc <f_write+0x27a>
					cc = fp->fs->csize - csect;
    3cb6:	5b 01       	movw	r10, r22
    3cb8:	a2 1a       	sub	r10, r18
    3cba:	b3 0a       	sbc	r11, r19
				if (disk_write(fp->fs->drv, wbuff, sect, (BYTE)cc) != RES_OK)
    3cbc:	f8 01       	movw	r30, r16
    3cbe:	81 81       	ldd	r24, Z+1	; 0x01
    3cc0:	b2 01       	movw	r22, r4
    3cc2:	a7 01       	movw	r20, r14
    3cc4:	96 01       	movw	r18, r12
    3cc6:	0a 2d       	mov	r16, r10
    3cc8:	0e 94 36 2a 	call	0x546c	; 0x546c <disk_write>
    3ccc:	88 23       	and	r24, r24
    3cce:	49 f0       	breq	.+18     	; 0x3ce2 <f_write+0x2a0>
					ABORT(fp->fs, FR_DISK_ERR);
    3cd0:	ad 81       	ldd	r26, Y+5	; 0x05
    3cd2:	be 81       	ldd	r27, Y+6	; 0x06
    3cd4:	14 96       	adiw	r26, 0x04	; 4
    3cd6:	8c 91       	ld	r24, X
    3cd8:	14 97       	sbiw	r26, 0x04	; 4
    3cda:	80 68       	ori	r24, 0x80	; 128
    3cdc:	14 96       	adiw	r26, 0x04	; 4
    3cde:	8c 93       	st	X, r24
    3ce0:	5f c0       	rjmp	.+190    	; 0x3da0 <f_write+0x35e>
				if (fp->fs->winsect - sect < cc) {	/* Refill sector cache if it gets dirty by the direct write */
					mem_cpy(fp->fs->win, wbuff + ((fp->fs->winsect - sect) * SS(fp->fs)), SS(fp->fs));
					fp->fs->wflag = 0;
				}
#else
				if (fp->dsect - sect < cc) {		/* Refill sector cache if it gets dirty by the direct write */
    3ce2:	ed 81       	ldd	r30, Y+5	; 0x05
    3ce4:	fe 81       	ldd	r31, Y+6	; 0x06
    3ce6:	26 89       	ldd	r18, Z+22	; 0x16
    3ce8:	37 89       	ldd	r19, Z+23	; 0x17
    3cea:	40 8d       	ldd	r20, Z+24	; 0x18
    3cec:	51 8d       	ldd	r21, Z+25	; 0x19
    3cee:	2c 19       	sub	r18, r12
    3cf0:	3d 09       	sbc	r19, r13
    3cf2:	4e 09       	sbc	r20, r14
    3cf4:	5f 09       	sbc	r21, r15
    3cf6:	c5 01       	movw	r24, r10
    3cf8:	a0 e0       	ldi	r26, 0x00	; 0
    3cfa:	b0 e0       	ldi	r27, 0x00	; 0
    3cfc:	28 17       	cp	r18, r24
    3cfe:	39 07       	cpc	r19, r25
    3d00:	4a 07       	cpc	r20, r26
    3d02:	5b 07       	cpc	r21, r27
    3d04:	f8 f4       	brcc	.+62     	; 0x3d44 <f_write+0x302>

/* Copy memory to memory */
static
void mem_cpy (void* dst, const void* src, UINT cnt) {
	BYTE *d = (BYTE*)dst;
	const BYTE *s = (const BYTE*)src;
    3d06:	19 e0       	ldi	r17, 0x09	; 9
    3d08:	22 0f       	add	r18, r18
    3d0a:	33 1f       	adc	r19, r19
    3d0c:	44 1f       	adc	r20, r20
    3d0e:	55 1f       	adc	r21, r21
    3d10:	1a 95       	dec	r17
    3d12:	d1 f7       	brne	.-12     	; 0x3d08 <f_write+0x2c6>
    3d14:	c2 01       	movw	r24, r4
    3d16:	82 0f       	add	r24, r18
    3d18:	93 1f       	adc	r25, r19
    3d1a:	a9 81       	ldd	r26, Y+1	; 0x01
    3d1c:	ba 81       	ldd	r27, Y+2	; 0x02
    3d1e:	fc 01       	movw	r30, r24

#if _WORD_ACCESS == 1
	while (cnt >= sizeof(int)) {
    3d20:	9c 01       	movw	r18, r24
    3d22:	20 50       	subi	r18, 0x00	; 0
    3d24:	3e 4f       	sbci	r19, 0xFE	; 254
		*(int*)d = *(int*)s;
    3d26:	81 91       	ld	r24, Z+
    3d28:	91 91       	ld	r25, Z+
    3d2a:	8d 93       	st	X+, r24
    3d2c:	9d 93       	st	X+, r25
void mem_cpy (void* dst, const void* src, UINT cnt) {
	BYTE *d = (BYTE*)dst;
	const BYTE *s = (const BYTE*)src;

#if _WORD_ACCESS == 1
	while (cnt >= sizeof(int)) {
    3d2e:	e2 17       	cp	r30, r18
    3d30:	f3 07       	cpc	r31, r19
    3d32:	c9 f7       	brne	.-14     	; 0x3d26 <f_write+0x2e4>
					fp->fs->wflag = 0;
				}
#else
				if (fp->dsect - sect < cc) {		/* Refill sector cache if it gets dirty by the direct write */
					mem_cpy(fp->buf, wbuff + ((fp->dsect - sect) * SS(fp->fs)), SS(fp->fs));
					fp->flag &= ~FA__DIRTY;
    3d34:	ad 81       	ldd	r26, Y+5	; 0x05
    3d36:	be 81       	ldd	r27, Y+6	; 0x06
    3d38:	14 96       	adiw	r26, 0x04	; 4
    3d3a:	8c 91       	ld	r24, X
    3d3c:	14 97       	sbiw	r26, 0x04	; 4
    3d3e:	8f 7b       	andi	r24, 0xBF	; 191
    3d40:	14 96       	adiw	r26, 0x04	; 4
    3d42:	8c 93       	st	X, r24
				}
#endif
				wcnt = SS(fp->fs) * cc;				/* Number of bytes transferred */
    3d44:	b5 01       	movw	r22, r10
    3d46:	76 2f       	mov	r23, r22
    3d48:	66 27       	eor	r22, r22
    3d4a:	77 0f       	add	r23, r23
    3d4c:	6f c0       	rjmp	.+222    	; 0x3e2c <f_write+0x3ea>
			if (fp->fptr >= fp->fsize) {			/* Avoid silly buffer filling at growing edge */
				if (move_window(fp->fs, 0)) ABORT(fp->fs, FR_DISK_ERR);
				fp->fs->winsect = sect;
			}
#else
			if (fp->dsect != sect) {				/* Fill sector buffer with file data */
    3d4e:	ed 81       	ldd	r30, Y+5	; 0x05
    3d50:	fe 81       	ldd	r31, Y+6	; 0x06
    3d52:	86 89       	ldd	r24, Z+22	; 0x16
    3d54:	97 89       	ldd	r25, Z+23	; 0x17
    3d56:	a0 8d       	ldd	r26, Z+24	; 0x18
    3d58:	b1 8d       	ldd	r27, Z+25	; 0x19
    3d5a:	8c 15       	cp	r24, r12
    3d5c:	9d 05       	cpc	r25, r13
    3d5e:	ae 05       	cpc	r26, r14
    3d60:	bf 05       	cpc	r27, r15
    3d62:	09 f1       	breq	.+66     	; 0x3da6 <f_write+0x364>
				if (fp->fptr < fp->fsize &&
    3d64:	26 81       	ldd	r18, Z+6	; 0x06
    3d66:	37 81       	ldd	r19, Z+7	; 0x07
    3d68:	40 85       	ldd	r20, Z+8	; 0x08
    3d6a:	51 85       	ldd	r21, Z+9	; 0x09
    3d6c:	82 85       	ldd	r24, Z+10	; 0x0a
    3d6e:	93 85       	ldd	r25, Z+11	; 0x0b
    3d70:	a4 85       	ldd	r26, Z+12	; 0x0c
    3d72:	b5 85       	ldd	r27, Z+13	; 0x0d
    3d74:	28 17       	cp	r18, r24
    3d76:	39 07       	cpc	r19, r25
    3d78:	4a 07       	cpc	r20, r26
    3d7a:	5b 07       	cpc	r21, r27
    3d7c:	a0 f4       	brcc	.+40     	; 0x3da6 <f_write+0x364>
    3d7e:	d8 01       	movw	r26, r16
    3d80:	11 96       	adiw	r26, 0x01	; 1
    3d82:	8c 91       	ld	r24, X
    3d84:	69 81       	ldd	r22, Y+1	; 0x01
    3d86:	7a 81       	ldd	r23, Y+2	; 0x02
    3d88:	a7 01       	movw	r20, r14
    3d8a:	96 01       	movw	r18, r12
    3d8c:	01 e0       	ldi	r16, 0x01	; 1
    3d8e:	0e 94 de 29 	call	0x53bc	; 0x53bc <disk_read>
    3d92:	88 23       	and	r24, r24
    3d94:	41 f0       	breq	.+16     	; 0x3da6 <f_write+0x364>
					disk_read(fp->fs->drv, fp->buf, sect, 1) != RES_OK)
						ABORT(fp->fs, FR_DISK_ERR);
    3d96:	ed 81       	ldd	r30, Y+5	; 0x05
    3d98:	fe 81       	ldd	r31, Y+6	; 0x06
    3d9a:	84 81       	ldd	r24, Z+4	; 0x04
    3d9c:	80 68       	ori	r24, 0x80	; 128
    3d9e:	84 83       	std	Z+4, r24	; 0x04
    3da0:	33 24       	eor	r3, r3
    3da2:	33 94       	inc	r3
    3da4:	85 c0       	rjmp	.+266    	; 0x3eb0 <f_write+0x46e>
			}
#endif
			fp->dsect = sect;
    3da6:	ad 81       	ldd	r26, Y+5	; 0x05
    3da8:	be 81       	ldd	r27, Y+6	; 0x06
    3daa:	56 96       	adiw	r26, 0x16	; 22
    3dac:	cd 92       	st	X+, r12
    3dae:	dd 92       	st	X+, r13
    3db0:	ed 92       	st	X+, r14
    3db2:	fc 92       	st	X, r15
    3db4:	59 97       	sbiw	r26, 0x19	; 25
		}
		wcnt = SS(fp->fs) - (fp->fptr % SS(fp->fs));/* Put partial sector into file I/O buffer */
    3db6:	ed 81       	ldd	r30, Y+5	; 0x05
    3db8:	fe 81       	ldd	r31, Y+6	; 0x06
    3dba:	26 81       	ldd	r18, Z+6	; 0x06
    3dbc:	37 81       	ldd	r19, Z+7	; 0x07
    3dbe:	40 85       	ldd	r20, Z+8	; 0x08
    3dc0:	51 85       	ldd	r21, Z+9	; 0x09
    3dc2:	c9 01       	movw	r24, r18
    3dc4:	91 70       	andi	r25, 0x01	; 1
    3dc6:	60 e0       	ldi	r22, 0x00	; 0
    3dc8:	72 e0       	ldi	r23, 0x02	; 2
    3dca:	68 1b       	sub	r22, r24
    3dcc:	79 0b       	sbc	r23, r25
    3dce:	cb 01       	movw	r24, r22
    3dd0:	b3 01       	movw	r22, r6
    3dd2:	86 15       	cp	r24, r6
    3dd4:	97 05       	cpc	r25, r7
    3dd6:	08 f4       	brcc	.+2      	; 0x3dda <f_write+0x398>
    3dd8:	bc 01       	movw	r22, r24
/*-----------------------------------------------------------------------*/

/* Copy memory to memory */
static
void mem_cpy (void* dst, const void* src, UINT cnt) {
	BYTE *d = (BYTE*)dst;
    3dda:	a9 01       	movw	r20, r18
    3ddc:	51 70       	andi	r21, 0x01	; 1
    3dde:	40 5e       	subi	r20, 0xE0	; 224
    3de0:	5f 4f       	sbci	r21, 0xFF	; 255
    3de2:	8d 81       	ldd	r24, Y+5	; 0x05
    3de4:	9e 81       	ldd	r25, Y+6	; 0x06
    3de6:	48 0f       	add	r20, r24
    3de8:	59 1f       	adc	r21, r25
    3dea:	d2 01       	movw	r26, r4
    3dec:	fa 01       	movw	r30, r20
    3dee:	9b 01       	movw	r18, r22
    3df0:	06 c0       	rjmp	.+12     	; 0x3dfe <f_write+0x3bc>
	const BYTE *s = (const BYTE*)src;

#if _WORD_ACCESS == 1
	while (cnt >= sizeof(int)) {
		*(int*)d = *(int*)s;
    3df2:	8d 91       	ld	r24, X+
    3df4:	9d 91       	ld	r25, X+
    3df6:	81 93       	st	Z+, r24
    3df8:	91 93       	st	Z+, r25
		d += sizeof(int); s += sizeof(int);
		cnt -= sizeof(int);
    3dfa:	22 50       	subi	r18, 0x02	; 2
    3dfc:	30 40       	sbci	r19, 0x00	; 0
void mem_cpy (void* dst, const void* src, UINT cnt) {
	BYTE *d = (BYTE*)dst;
	const BYTE *s = (const BYTE*)src;

#if _WORD_ACCESS == 1
	while (cnt >= sizeof(int)) {
    3dfe:	22 30       	cpi	r18, 0x02	; 2
    3e00:	31 05       	cpc	r19, r1
    3e02:	b8 f7       	brcc	.-18     	; 0x3df2 <f_write+0x3b0>
	FIL *fp,			/* Pointer to the file object */
	const void *buff,	/* Pointer to the data to be written */
	UINT btw,			/* Number of bytes to write */
	UINT *bw			/* Pointer to number of bytes written */
)
{
    3e04:	cb 01       	movw	r24, r22
    3e06:	8e 7f       	andi	r24, 0xFE	; 254
    3e08:	d2 01       	movw	r26, r4
    3e0a:	a8 0f       	add	r26, r24
    3e0c:	b9 1f       	adc	r27, r25
    3e0e:	fa 01       	movw	r30, r20
    3e10:	e8 0f       	add	r30, r24
    3e12:	f9 1f       	adc	r31, r25
		*(int*)d = *(int*)s;
		d += sizeof(int); s += sizeof(int);
		cnt -= sizeof(int);
	}
#endif
	while (cnt--)
    3e14:	60 ff       	sbrs	r22, 0
    3e16:	02 c0       	rjmp	.+4      	; 0x3e1c <f_write+0x3da>
		*d++ = *s++;
    3e18:	8c 91       	ld	r24, X
    3e1a:	80 83       	st	Z, r24
			ABORT(fp->fs, FR_DISK_ERR);
		mem_cpy(&fp->fs->win[fp->fptr % SS(fp->fs)], wbuff, wcnt);	/* Fit partial sector */
		fp->fs->wflag = 1;
#else
		mem_cpy(&fp->buf[fp->fptr % SS(fp->fs)], wbuff, wcnt);	/* Fit partial sector */
		fp->flag |= FA__DIRTY;
    3e1c:	ad 81       	ldd	r26, Y+5	; 0x05
    3e1e:	be 81       	ldd	r27, Y+6	; 0x06
    3e20:	14 96       	adiw	r26, 0x04	; 4
    3e22:	8c 91       	ld	r24, X
    3e24:	14 97       	sbiw	r26, 0x04	; 4
    3e26:	80 64       	ori	r24, 0x40	; 64
    3e28:	14 96       	adiw	r26, 0x04	; 4
    3e2a:	8c 93       	st	X, r24
	if (!(fp->flag & FA_WRITE))						/* Check access mode */
		LEAVE_FF(fp->fs, FR_DENIED);
	if (fp->fsize + btw < fp->fsize) btw = 0;		/* File size cannot reach 4GB */

	for ( ;  btw;									/* Repeat until all data transferred */
		wbuff += wcnt, fp->fptr += wcnt, *bw += wcnt, btw -= wcnt) {
    3e2c:	46 0e       	add	r4, r22
    3e2e:	57 1e       	adc	r5, r23
    3e30:	cb 01       	movw	r24, r22
    3e32:	a0 e0       	ldi	r26, 0x00	; 0
    3e34:	b0 e0       	ldi	r27, 0x00	; 0
    3e36:	ed 81       	ldd	r30, Y+5	; 0x05
    3e38:	fe 81       	ldd	r31, Y+6	; 0x06
    3e3a:	26 81       	ldd	r18, Z+6	; 0x06
    3e3c:	37 81       	ldd	r19, Z+7	; 0x07
    3e3e:	40 85       	ldd	r20, Z+8	; 0x08
    3e40:	51 85       	ldd	r21, Z+9	; 0x09
    3e42:	28 0f       	add	r18, r24
    3e44:	39 1f       	adc	r19, r25
    3e46:	4a 1f       	adc	r20, r26
    3e48:	5b 1f       	adc	r21, r27
    3e4a:	26 83       	std	Z+6, r18	; 0x06
    3e4c:	37 83       	std	Z+7, r19	; 0x07
    3e4e:	40 87       	std	Z+8, r20	; 0x08
    3e50:	51 87       	std	Z+9, r21	; 0x09
    3e52:	eb 81       	ldd	r30, Y+3	; 0x03
    3e54:	fc 81       	ldd	r31, Y+4	; 0x04
    3e56:	80 81       	ld	r24, Z
    3e58:	91 81       	ldd	r25, Z+1	; 0x01
    3e5a:	86 0f       	add	r24, r22
    3e5c:	97 1f       	adc	r25, r23
    3e5e:	91 83       	std	Z+1, r25	; 0x01
    3e60:	80 83       	st	Z, r24
    3e62:	66 1a       	sub	r6, r22
    3e64:	77 0a       	sbc	r7, r23
		LEAVE_FF(fp->fs, FR_INT_ERR);
	if (!(fp->flag & FA_WRITE))						/* Check access mode */
		LEAVE_FF(fp->fs, FR_DENIED);
	if (fp->fsize + btw < fp->fsize) btw = 0;		/* File size cannot reach 4GB */

	for ( ;  btw;									/* Repeat until all data transferred */
    3e66:	61 14       	cp	r6, r1
    3e68:	71 04       	cpc	r7, r1
    3e6a:	09 f0       	breq	.+2      	; 0x3e6e <f_write+0x42c>
    3e6c:	3f ce       	rjmp	.-898    	; 0x3aec <f_write+0xaa>
		mem_cpy(&fp->buf[fp->fptr % SS(fp->fs)], wbuff, wcnt);	/* Fit partial sector */
		fp->flag |= FA__DIRTY;
#endif
	}

	if (fp->fptr > fp->fsize) fp->fsize = fp->fptr;	/* Update file size if needed */
    3e6e:	ad 81       	ldd	r26, Y+5	; 0x05
    3e70:	be 81       	ldd	r27, Y+6	; 0x06
    3e72:	16 96       	adiw	r26, 0x06	; 6
    3e74:	2d 91       	ld	r18, X+
    3e76:	3d 91       	ld	r19, X+
    3e78:	4d 91       	ld	r20, X+
    3e7a:	5c 91       	ld	r21, X
    3e7c:	19 97       	sbiw	r26, 0x09	; 9
    3e7e:	1a 96       	adiw	r26, 0x0a	; 10
    3e80:	8d 91       	ld	r24, X+
    3e82:	9d 91       	ld	r25, X+
    3e84:	0d 90       	ld	r0, X+
    3e86:	bc 91       	ld	r27, X
    3e88:	a0 2d       	mov	r26, r0
    3e8a:	82 17       	cp	r24, r18
    3e8c:	93 07       	cpc	r25, r19
    3e8e:	a4 07       	cpc	r26, r20
    3e90:	b5 07       	cpc	r27, r21
    3e92:	30 f4       	brcc	.+12     	; 0x3ea0 <f_write+0x45e>
    3e94:	ed 81       	ldd	r30, Y+5	; 0x05
    3e96:	fe 81       	ldd	r31, Y+6	; 0x06
    3e98:	22 87       	std	Z+10, r18	; 0x0a
    3e9a:	33 87       	std	Z+11, r19	; 0x0b
    3e9c:	44 87       	std	Z+12, r20	; 0x0c
    3e9e:	55 87       	std	Z+13, r21	; 0x0d
	fp->flag |= FA__WRITTEN;						/* Set file change flag */
    3ea0:	ad 81       	ldd	r26, Y+5	; 0x05
    3ea2:	be 81       	ldd	r27, Y+6	; 0x06
    3ea4:	14 96       	adiw	r26, 0x04	; 4
    3ea6:	8c 91       	ld	r24, X
    3ea8:	14 97       	sbiw	r26, 0x04	; 4
    3eaa:	80 62       	ori	r24, 0x20	; 32
    3eac:	14 96       	adiw	r26, 0x04	; 4
    3eae:	8c 93       	st	X, r24

	LEAVE_FF(fp->fs, FR_OK);
}
    3eb0:	83 2d       	mov	r24, r3
    3eb2:	26 96       	adiw	r28, 0x06	; 6
    3eb4:	0f b6       	in	r0, 0x3f	; 63
    3eb6:	f8 94       	cli
    3eb8:	de bf       	out	0x3e, r29	; 62
    3eba:	0f be       	out	0x3f, r0	; 63
    3ebc:	cd bf       	out	0x3d, r28	; 61
    3ebe:	cf 91       	pop	r28
    3ec0:	df 91       	pop	r29
    3ec2:	1f 91       	pop	r17
    3ec4:	0f 91       	pop	r16
    3ec6:	ff 90       	pop	r15
    3ec8:	ef 90       	pop	r14
    3eca:	df 90       	pop	r13
    3ecc:	cf 90       	pop	r12
    3ece:	bf 90       	pop	r11
    3ed0:	af 90       	pop	r10
    3ed2:	9f 90       	pop	r9
    3ed4:	8f 90       	pop	r8
    3ed6:	7f 90       	pop	r7
    3ed8:	6f 90       	pop	r6
    3eda:	5f 90       	pop	r5
    3edc:	4f 90       	pop	r4
    3ede:	3f 90       	pop	r3
    3ee0:	08 95       	ret

00003ee2 <f_putc>:
/*-----------------------------------------------------------------------*/
int f_putc (
	TCHAR c,	/* A character to be output */
	FIL* fil	/* Pointer to the file object */
)
{
    3ee2:	df 93       	push	r29
    3ee4:	cf 93       	push	r28
    3ee6:	00 d0       	rcall	.+0      	; 0x3ee8 <f_putc+0x6>
    3ee8:	00 d0       	rcall	.+0      	; 0x3eea <f_putc+0x8>
    3eea:	0f 92       	push	r0
    3eec:	cd b7       	in	r28, 0x3d	; 61
    3eee:	de b7       	in	r29, 0x3e	; 62
			s[2] = (BYTE)(0x80 | (c & 0x3F));
			btw = 3;
		}
	}
#else				/* Write the character without conversion */
	s[0] = (BYTE)c;
    3ef0:	8b 83       	std	Y+3, r24	; 0x03
	btw = 1;
#endif
	f_write(fil, s, btw, &bw);		/* Write the char to the file */
    3ef2:	cb 01       	movw	r24, r22
    3ef4:	be 01       	movw	r22, r28
    3ef6:	6d 5f       	subi	r22, 0xFD	; 253
    3ef8:	7f 4f       	sbci	r23, 0xFF	; 255
    3efa:	41 e0       	ldi	r20, 0x01	; 1
    3efc:	50 e0       	ldi	r21, 0x00	; 0
    3efe:	9e 01       	movw	r18, r28
    3f00:	2f 5f       	subi	r18, 0xFF	; 255
    3f02:	3f 4f       	sbci	r19, 0xFF	; 255
    3f04:	0e 94 21 1d 	call	0x3a42	; 0x3a42 <f_write>
	return (bw == btw) ? 1 : EOF;	/* Return the result */
    3f08:	89 81       	ldd	r24, Y+1	; 0x01
    3f0a:	9a 81       	ldd	r25, Y+2	; 0x02
    3f0c:	01 97       	sbiw	r24, 0x01	; 1
    3f0e:	19 f0       	breq	.+6      	; 0x3f16 <f_putc+0x34>
    3f10:	2f ef       	ldi	r18, 0xFF	; 255
    3f12:	3f ef       	ldi	r19, 0xFF	; 255
    3f14:	02 c0       	rjmp	.+4      	; 0x3f1a <f_putc+0x38>
    3f16:	21 e0       	ldi	r18, 0x01	; 1
    3f18:	30 e0       	ldi	r19, 0x00	; 0
}
    3f1a:	c9 01       	movw	r24, r18
    3f1c:	0f 90       	pop	r0
    3f1e:	0f 90       	pop	r0
    3f20:	0f 90       	pop	r0
    3f22:	0f 90       	pop	r0
    3f24:	0f 90       	pop	r0
    3f26:	cf 91       	pop	r28
    3f28:	df 91       	pop	r29
    3f2a:	08 95       	ret

00003f2c <f_puts>:
/*-----------------------------------------------------------------------*/
int f_puts (
	const TCHAR* str,	/* Pointer to the string to be output */
	FIL* fil			/* Pointer to the file object */
)
{
    3f2c:	ef 92       	push	r14
    3f2e:	ff 92       	push	r15
    3f30:	0f 93       	push	r16
    3f32:	1f 93       	push	r17
    3f34:	cf 93       	push	r28
    3f36:	df 93       	push	r29
    3f38:	8c 01       	movw	r16, r24
    3f3a:	7b 01       	movw	r14, r22
    3f3c:	c0 e0       	ldi	r28, 0x00	; 0
    3f3e:	d0 e0       	ldi	r29, 0x00	; 0
    3f40:	0c c0       	rjmp	.+24     	; 0x3f5a <f_puts+0x2e>
	int n;


	for (n = 0; *str; str++, n++) {
		if (f_putc(*str, fil) == EOF) return EOF;
    3f42:	b7 01       	movw	r22, r14
    3f44:	0e 94 71 1f 	call	0x3ee2	; 0x3ee2 <f_putc>
    3f48:	8f 5f       	subi	r24, 0xFF	; 255
    3f4a:	9f 4f       	sbci	r25, 0xFF	; 255
    3f4c:	19 f4       	brne	.+6      	; 0x3f54 <f_puts+0x28>
    3f4e:	cf ef       	ldi	r28, 0xFF	; 255
    3f50:	df ef       	ldi	r29, 0xFF	; 255
    3f52:	07 c0       	rjmp	.+14     	; 0x3f62 <f_puts+0x36>
)
{
	int n;


	for (n = 0; *str; str++, n++) {
    3f54:	0f 5f       	subi	r16, 0xFF	; 255
    3f56:	1f 4f       	sbci	r17, 0xFF	; 255
    3f58:	21 96       	adiw	r28, 0x01	; 1
    3f5a:	f8 01       	movw	r30, r16
    3f5c:	80 81       	ld	r24, Z
    3f5e:	88 23       	and	r24, r24
    3f60:	81 f7       	brne	.-32     	; 0x3f42 <f_puts+0x16>
		if (f_putc(*str, fil) == EOF) return EOF;
	}
	return n;
}
    3f62:	ce 01       	movw	r24, r28
    3f64:	df 91       	pop	r29
    3f66:	cf 91       	pop	r28
    3f68:	1f 91       	pop	r17
    3f6a:	0f 91       	pop	r16
    3f6c:	ff 90       	pop	r15
    3f6e:	ef 90       	pop	r14
    3f70:	08 95       	ret

00003f72 <f_printf>:
int f_printf (
	FIL* fil,			/* Pointer to the file object */
	const TCHAR* str,	/* Pointer to the format string */
	...					/* Optional arguments... */
)
{
    3f72:	2f 92       	push	r2
    3f74:	3f 92       	push	r3
    3f76:	4f 92       	push	r4
    3f78:	5f 92       	push	r5
    3f7a:	6f 92       	push	r6
    3f7c:	7f 92       	push	r7
    3f7e:	8f 92       	push	r8
    3f80:	9f 92       	push	r9
    3f82:	af 92       	push	r10
    3f84:	bf 92       	push	r11
    3f86:	cf 92       	push	r12
    3f88:	df 92       	push	r13
    3f8a:	ef 92       	push	r14
    3f8c:	ff 92       	push	r15
    3f8e:	0f 93       	push	r16
    3f90:	1f 93       	push	r17
    3f92:	df 93       	push	r29
    3f94:	cf 93       	push	r28
    3f96:	cd b7       	in	r28, 0x3d	; 61
    3f98:	de b7       	in	r29, 0x3e	; 62
    3f9a:	63 97       	sbiw	r28, 0x13	; 19
    3f9c:	0f b6       	in	r0, 0x3f	; 63
    3f9e:	f8 94       	cli
    3fa0:	de bf       	out	0x3e, r29	; 62
    3fa2:	0f be       	out	0x3f, r0	; 63
    3fa4:	cd bf       	out	0x3d, r28	; 61
    3fa6:	8e 01       	movw	r16, r28
    3fa8:	04 5d       	subi	r16, 0xD4	; 212
    3faa:	1f 4f       	sbci	r17, 0xFF	; 255
    3fac:	1a 8a       	std	Y+18, r1	; 0x12
    3fae:	19 8a       	std	Y+17, r1	; 0x11
    3fb0:	20 e0       	ldi	r18, 0x00	; 0
    3fb2:	30 e0       	ldi	r19, 0x00	; 0


	va_start(arp, str);

	for (cc = res = 0; cc != EOF; res += cc) {
		c = *str++;
    3fb4:	aa a5       	ldd	r26, Y+42	; 0x2a
    3fb6:	bb a5       	ldd	r27, Y+43	; 0x2b
    3fb8:	8c 91       	ld	r24, X
		if (c == 0) break;			/* End of string */
    3fba:	88 23       	and	r24, r24
    3fbc:	09 f4       	brne	.+2      	; 0x3fc0 <f_printf+0x4e>
    3fbe:	60 c1       	rjmp	.+704    	; 0x4280 <f_printf+0x30e>


	va_start(arp, str);

	for (cc = res = 0; cc != EOF; res += cc) {
		c = *str++;
    3fc0:	11 96       	adiw	r26, 0x01	; 1
    3fc2:	bb a7       	std	Y+43, r27	; 0x2b
    3fc4:	aa a7       	std	Y+42, r26	; 0x2a
		if (c == 0) break;			/* End of string */
		if (c != '%') {				/* Non escape character */
    3fc6:	85 32       	cpi	r24, 0x25	; 37
    3fc8:	71 f0       	breq	.+28     	; 0x3fe6 <f_printf+0x74>
			cc = f_putc(c, fil);
    3fca:	68 a5       	ldd	r22, Y+40	; 0x28
    3fcc:	79 a5       	ldd	r23, Y+41	; 0x29
    3fce:	0e 94 71 1f 	call	0x3ee2	; 0x3ee2 <f_putc>
    3fd2:	9c 01       	movw	r18, r24
			if (cc != EOF) cc = 1;
    3fd4:	bf ef       	ldi	r27, 0xFF	; 255
    3fd6:	8f 3f       	cpi	r24, 0xFF	; 255
    3fd8:	9b 07       	cpc	r25, r27
    3fda:	09 f4       	brne	.+2      	; 0x3fde <f_printf+0x6c>
    3fdc:	82 c0       	rjmp	.+260    	; 0x40e2 <f_printf+0x170>
    3fde:	38 01       	movw	r6, r16
    3fe0:	21 e0       	ldi	r18, 0x01	; 1
    3fe2:	30 e0       	ldi	r19, 0x00	; 0
    3fe4:	41 c1       	rjmp	.+642    	; 0x4268 <f_printf+0x2f6>
			continue;
		}
		w = f = 0;
		c = *str++;
    3fe6:	ea a5       	ldd	r30, Y+42	; 0x2a
    3fe8:	fb a5       	ldd	r31, Y+43	; 0x2b
    3fea:	c1 90       	ld	r12, Z+
    3fec:	fb a7       	std	Y+43, r31	; 0x2b
    3fee:	ea a7       	std	Y+42, r30	; 0x2a
		if (c == '0') {				/* Flag: '0' padding */
    3ff0:	f0 e3       	ldi	r31, 0x30	; 48
    3ff2:	cf 16       	cp	r12, r31
    3ff4:	11 f0       	breq	.+4      	; 0x3ffa <f_printf+0x88>
    3ff6:	1b 8a       	std	Y+19, r1	; 0x13
    3ff8:	07 c0       	rjmp	.+14     	; 0x4008 <f_printf+0x96>
			f = 1; c = *str++;
    3ffa:	aa a5       	ldd	r26, Y+42	; 0x2a
    3ffc:	bb a5       	ldd	r27, Y+43	; 0x2b
    3ffe:	cd 90       	ld	r12, X+
    4000:	bb a7       	std	Y+43, r27	; 0x2b
    4002:	aa a7       	std	Y+42, r26	; 0x2a
    4004:	b1 e0       	ldi	r27, 0x01	; 1
    4006:	bb 8b       	std	Y+19, r27	; 0x13
    4008:	88 24       	eor	r8, r8
    400a:	99 24       	eor	r9, r9
    400c:	15 c0       	rjmp	.+42     	; 0x4038 <f_printf+0xc6>
		}
		while (IsDigit(c)) {		/* Precision */
			w = w * 10 + c - '0';
    400e:	c4 01       	movw	r24, r8
    4010:	53 e0       	ldi	r21, 0x03	; 3
    4012:	88 0f       	add	r24, r24
    4014:	99 1f       	adc	r25, r25
    4016:	5a 95       	dec	r21
    4018:	e1 f7       	brne	.-8      	; 0x4012 <f_printf+0xa0>
    401a:	88 0c       	add	r8, r8
    401c:	99 1c       	adc	r9, r9
    401e:	88 0e       	add	r8, r24
    4020:	99 1e       	adc	r9, r25
    4022:	8c 0c       	add	r8, r12
    4024:	91 1c       	adc	r9, r1
    4026:	e0 ed       	ldi	r30, 0xD0	; 208
    4028:	ff ef       	ldi	r31, 0xFF	; 255
    402a:	8e 0e       	add	r8, r30
    402c:	9f 1e       	adc	r9, r31
			c = *str++;
    402e:	aa a5       	ldd	r26, Y+42	; 0x2a
    4030:	bb a5       	ldd	r27, Y+43	; 0x2b
    4032:	cd 90       	ld	r12, X+
    4034:	bb a7       	std	Y+43, r27	; 0x2b
    4036:	aa a7       	std	Y+42, r26	; 0x2a
		w = f = 0;
		c = *str++;
		if (c == '0') {				/* Flag: '0' padding */
			f = 1; c = *str++;
		}
		while (IsDigit(c)) {		/* Precision */
    4038:	8c 2d       	mov	r24, r12
    403a:	80 53       	subi	r24, 0x30	; 48
    403c:	8a 30       	cpi	r24, 0x0A	; 10
    403e:	38 f3       	brcs	.-50     	; 0x400e <f_printf+0x9c>
			w = w * 10 + c - '0';
			c = *str++;
		}
		if (c == 'l' || c == 'L') {	/* Prefix: Size is long int */
    4040:	bc e6       	ldi	r27, 0x6C	; 108
    4042:	cb 16       	cp	r12, r27
    4044:	19 f0       	breq	.+6      	; 0x404c <f_printf+0xda>
    4046:	ec e4       	ldi	r30, 0x4C	; 76
    4048:	ce 16       	cp	r12, r30
    404a:	41 f4       	brne	.+16     	; 0x405c <f_printf+0xea>
			f |= 2; c = *str++;
    404c:	fb 89       	ldd	r31, Y+19	; 0x13
    404e:	f2 60       	ori	r31, 0x02	; 2
    4050:	fb 8b       	std	Y+19, r31	; 0x13
    4052:	aa a5       	ldd	r26, Y+42	; 0x2a
    4054:	bb a5       	ldd	r27, Y+43	; 0x2b
    4056:	cd 90       	ld	r12, X+
    4058:	bb a7       	std	Y+43, r27	; 0x2b
    405a:	aa a7       	std	Y+42, r26	; 0x2a
		}
		if (!c) break;
    405c:	cc 20       	and	r12, r12
    405e:	09 f4       	brne	.+2      	; 0x4062 <f_printf+0xf0>
    4060:	0f c1       	rjmp	.+542    	; 0x4280 <f_printf+0x30e>
		d = c;
		if (IsLower(d)) d -= 0x20;
    4062:	8c 2d       	mov	r24, r12
    4064:	81 56       	subi	r24, 0x61	; 97
    4066:	8a 31       	cpi	r24, 0x1A	; 26
    4068:	10 f0       	brcs	.+4      	; 0x406e <f_printf+0xfc>
    406a:	ec 2d       	mov	r30, r12
    406c:	02 c0       	rjmp	.+4      	; 0x4072 <f_printf+0x100>
    406e:	ec 2d       	mov	r30, r12
    4070:	e0 52       	subi	r30, 0x20	; 32
		switch (d) {				/* Type is... */
    4072:	ef 34       	cpi	r30, 0x4F	; 79
    4074:	81 f0       	breq	.+32     	; 0x4096 <f_printf+0x124>
    4076:	e0 35       	cpi	r30, 0x50	; 80
    4078:	38 f4       	brcc	.+14     	; 0x4088 <f_printf+0x116>
    407a:	e3 34       	cpi	r30, 0x43	; 67
    407c:	e9 f0       	breq	.+58     	; 0x40b8 <f_printf+0x146>
    407e:	e4 34       	cpi	r30, 0x44	; 68
    4080:	61 f0       	breq	.+24     	; 0x409a <f_printf+0x128>
    4082:	e2 34       	cpi	r30, 0x42	; 66
    4084:	41 f5       	brne	.+80     	; 0x40d6 <f_printf+0x164>
    4086:	2f c0       	rjmp	.+94     	; 0x40e6 <f_printf+0x174>
    4088:	e5 35       	cpi	r30, 0x55	; 85
    408a:	39 f0       	breq	.+14     	; 0x409a <f_printf+0x128>
    408c:	e8 35       	cpi	r30, 0x58	; 88
    408e:	09 f1       	breq	.+66     	; 0x40d2 <f_printf+0x160>
    4090:	e3 35       	cpi	r30, 0x53	; 83
    4092:	09 f5       	brne	.+66     	; 0x40d6 <f_printf+0x164>
    4094:	04 c0       	rjmp	.+8      	; 0x409e <f_printf+0x12c>
    4096:	28 e0       	ldi	r18, 0x08	; 8
    4098:	27 c0       	rjmp	.+78     	; 0x40e8 <f_printf+0x176>
    409a:	2a e0       	ldi	r18, 0x0A	; 10
    409c:	25 c0       	rjmp	.+74     	; 0x40e8 <f_printf+0x176>
		case 'S' :					/* String */
			cc = f_puts(va_arg(arp, TCHAR*), fil); continue;
    409e:	82 e0       	ldi	r24, 0x02	; 2
    40a0:	68 2e       	mov	r6, r24
    40a2:	71 2c       	mov	r7, r1
    40a4:	60 0e       	add	r6, r16
    40a6:	71 1e       	adc	r7, r17
    40a8:	f8 01       	movw	r30, r16
    40aa:	80 81       	ld	r24, Z
    40ac:	91 81       	ldd	r25, Z+1	; 0x01
    40ae:	68 a5       	ldd	r22, Y+40	; 0x28
    40b0:	79 a5       	ldd	r23, Y+41	; 0x29
    40b2:	0e 94 96 1f 	call	0x3f2c	; 0x3f2c <f_puts>
    40b6:	0b c0       	rjmp	.+22     	; 0x40ce <f_printf+0x15c>
		case 'C' :					/* Character */
			cc = f_putc((TCHAR)va_arg(arp, int), fil); continue;
    40b8:	b2 e0       	ldi	r27, 0x02	; 2
    40ba:	6b 2e       	mov	r6, r27
    40bc:	71 2c       	mov	r7, r1
    40be:	60 0e       	add	r6, r16
    40c0:	71 1e       	adc	r7, r17
    40c2:	d8 01       	movw	r26, r16
    40c4:	8c 91       	ld	r24, X
    40c6:	68 a5       	ldd	r22, Y+40	; 0x28
    40c8:	79 a5       	ldd	r23, Y+41	; 0x29
    40ca:	0e 94 71 1f 	call	0x3ee2	; 0x3ee2 <f_putc>
    40ce:	9c 01       	movw	r18, r24
    40d0:	cb c0       	rjmp	.+406    	; 0x4268 <f_printf+0x2f6>
    40d2:	20 e1       	ldi	r18, 0x10	; 16
    40d4:	09 c0       	rjmp	.+18     	; 0x40e8 <f_printf+0x176>
		case 'U' :					/* Unsigned decimal */
			r = 10; break;
		case 'X' :					/* Hexdecimal */
			r = 16; break;
		default:					/* Unknown */
			cc = f_putc(c, fil); continue;
    40d6:	8c 2d       	mov	r24, r12
    40d8:	68 a5       	ldd	r22, Y+40	; 0x28
    40da:	79 a5       	ldd	r23, Y+41	; 0x29
    40dc:	0e 94 71 1f 	call	0x3ee2	; 0x3ee2 <f_putc>
    40e0:	9c 01       	movw	r18, r24
    40e2:	38 01       	movw	r6, r16
    40e4:	c1 c0       	rjmp	.+386    	; 0x4268 <f_printf+0x2f6>
    40e6:	22 e0       	ldi	r18, 0x02	; 2
		}

		/* Get an argument */
		val = (f & 2) ? va_arg(arp, long) : ((d == 'D') ? (long)va_arg(arp, int) : va_arg(arp, unsigned int));
    40e8:	bb 89       	ldd	r27, Y+19	; 0x13
    40ea:	b1 ff       	sbrs	r27, 1
    40ec:	0d c0       	rjmp	.+26     	; 0x4108 <f_printf+0x196>
    40ee:	a4 e0       	ldi	r26, 0x04	; 4
    40f0:	6a 2e       	mov	r6, r26
    40f2:	71 2c       	mov	r7, r1
    40f4:	60 0e       	add	r6, r16
    40f6:	71 1e       	adc	r7, r17
    40f8:	d8 01       	movw	r26, r16
    40fa:	ed 90       	ld	r14, X+
    40fc:	fd 90       	ld	r15, X+
    40fe:	0d 91       	ld	r16, X+
    4100:	1c 91       	ld	r17, X
		if (d == 'D' && (val & 0x80000000)) {
    4102:	e4 34       	cpi	r30, 0x44	; 68
    4104:	09 f5       	brne	.+66     	; 0x4148 <f_printf+0x1d6>
    4106:	13 c0       	rjmp	.+38     	; 0x412e <f_printf+0x1bc>
    4108:	c8 01       	movw	r24, r16
    410a:	02 96       	adiw	r24, 0x02	; 2
    410c:	d8 01       	movw	r26, r16
    410e:	6d 91       	ld	r22, X+
    4110:	7c 91       	ld	r23, X
		default:					/* Unknown */
			cc = f_putc(c, fil); continue;
		}

		/* Get an argument */
		val = (f & 2) ? va_arg(arp, long) : ((d == 'D') ? (long)va_arg(arp, int) : va_arg(arp, unsigned int));
    4112:	e4 34       	cpi	r30, 0x44	; 68
    4114:	39 f4       	brne	.+14     	; 0x4124 <f_printf+0x1b2>
    4116:	3c 01       	movw	r6, r24
    4118:	7b 01       	movw	r14, r22
    411a:	00 27       	eor	r16, r16
    411c:	f7 fc       	sbrc	r15, 7
    411e:	00 95       	com	r16
    4120:	10 2f       	mov	r17, r16
    4122:	05 c0       	rjmp	.+10     	; 0x412e <f_printf+0x1bc>
    4124:	3c 01       	movw	r6, r24
    4126:	7b 01       	movw	r14, r22
    4128:	00 e0       	ldi	r16, 0x00	; 0
    412a:	10 e0       	ldi	r17, 0x00	; 0
    412c:	0d c0       	rjmp	.+26     	; 0x4148 <f_printf+0x1d6>
		if (d == 'D' && (val & 0x80000000)) {
    412e:	17 ff       	sbrs	r17, 7
    4130:	0b c0       	rjmp	.+22     	; 0x4148 <f_printf+0x1d6>
			val = 0 - val;
    4132:	10 95       	com	r17
    4134:	00 95       	com	r16
    4136:	f0 94       	com	r15
    4138:	e0 94       	com	r14
    413a:	e1 1c       	adc	r14, r1
    413c:	f1 1c       	adc	r15, r1
    413e:	01 1d       	adc	r16, r1
    4140:	11 1d       	adc	r17, r1
			f |= 4;
    4142:	bb 89       	ldd	r27, Y+19	; 0x13
    4144:	b4 60       	ori	r27, 0x04	; 4
    4146:	bb 8b       	std	Y+19, r27	; 0x13
    4148:	aa 24       	eor	r10, r10
    414a:	bb 24       	eor	r11, r11
		}
		/* Put it in numeral string */
		i = 0;
		do {
			d = (TCHAR)(val % r); val /= r;
    414c:	22 2e       	mov	r2, r18
    414e:	33 24       	eor	r3, r3
    4150:	44 24       	eor	r4, r4
    4152:	55 24       	eor	r5, r5
    4154:	c8 01       	movw	r24, r16
    4156:	b7 01       	movw	r22, r14
    4158:	a2 01       	movw	r20, r4
    415a:	91 01       	movw	r18, r2
    415c:	0e 94 fd 2d 	call	0x5bfa	; 0x5bfa <__udivmodsi4>
    4160:	d6 2e       	mov	r13, r22
    4162:	c8 01       	movw	r24, r16
    4164:	b7 01       	movw	r22, r14
    4166:	a2 01       	movw	r20, r4
    4168:	91 01       	movw	r18, r2
    416a:	0e 94 fd 2d 	call	0x5bfa	; 0x5bfa <__udivmodsi4>
    416e:	c9 01       	movw	r24, r18
    4170:	da 01       	movw	r26, r20
    4172:	7c 01       	movw	r14, r24
    4174:	8d 01       	movw	r16, r26
			if (d > 9) {
    4176:	e9 e0       	ldi	r30, 0x09	; 9
    4178:	ed 15       	cp	r30, r13
    417a:	38 f4       	brcc	.+14     	; 0x418a <f_printf+0x218>
				d += 7;
    417c:	f7 e0       	ldi	r31, 0x07	; 7
    417e:	df 0e       	add	r13, r31
				if (c == 'x') d += 0x20;
    4180:	28 e7       	ldi	r18, 0x78	; 120
    4182:	c2 16       	cp	r12, r18
    4184:	11 f4       	brne	.+4      	; 0x418a <f_printf+0x218>
    4186:	30 e2       	ldi	r19, 0x20	; 32
    4188:	d3 0e       	add	r13, r19
			}
			s[i++] = d + '0';
    418a:	e1 e0       	ldi	r30, 0x01	; 1
    418c:	f0 e0       	ldi	r31, 0x00	; 0
    418e:	ec 0f       	add	r30, r28
    4190:	fd 1f       	adc	r31, r29
    4192:	ea 0d       	add	r30, r10
    4194:	fb 1d       	adc	r31, r11
    4196:	40 e3       	ldi	r20, 0x30	; 48
    4198:	d4 0e       	add	r13, r20
    419a:	d0 82       	st	Z, r13
    419c:	08 94       	sec
    419e:	a1 1c       	adc	r10, r1
    41a0:	b1 1c       	adc	r11, r1
		} while (val && i < sizeof(s) / sizeof(s[0]));
    41a2:	00 97       	sbiw	r24, 0x00	; 0
    41a4:	a1 05       	cpc	r26, r1
    41a6:	b1 05       	cpc	r27, r1
    41a8:	21 f0       	breq	.+8      	; 0x41b2 <f_printf+0x240>
    41aa:	50 e1       	ldi	r21, 0x10	; 16
    41ac:	a5 16       	cp	r10, r21
    41ae:	b1 04       	cpc	r11, r1
    41b0:	89 f6       	brne	.-94     	; 0x4154 <f_printf+0x1e2>
    41b2:	85 01       	movw	r16, r10
		if (f & 4) s[i++] = '-';
    41b4:	8b 89       	ldd	r24, Y+19	; 0x13
    41b6:	28 2f       	mov	r18, r24
    41b8:	30 e0       	ldi	r19, 0x00	; 0
    41ba:	82 ff       	sbrs	r24, 2
    41bc:	0a c0       	rjmp	.+20     	; 0x41d2 <f_printf+0x260>
    41be:	e1 e0       	ldi	r30, 0x01	; 1
    41c0:	f0 e0       	ldi	r31, 0x00	; 0
    41c2:	ec 0f       	add	r30, r28
    41c4:	fd 1f       	adc	r31, r29
    41c6:	ea 0d       	add	r30, r10
    41c8:	fb 1d       	adc	r31, r11
    41ca:	9d e2       	ldi	r25, 0x2D	; 45
    41cc:	90 83       	st	Z, r25
    41ce:	0f 5f       	subi	r16, 0xFF	; 255
    41d0:	1f 4f       	sbci	r17, 0xFF	; 255
    41d2:	80 e0       	ldi	r24, 0x00	; 0
    41d4:	90 e0       	ldi	r25, 0x00	; 0
		cc = 0;
		while (i < w-- && cc != EOF) {
			cc = f_putc((TCHAR)((f & 1) ? '0' : ' '), fil);
    41d6:	f1 e0       	ldi	r31, 0x01	; 1
    41d8:	ef 2e       	mov	r14, r31
    41da:	f1 2c       	mov	r15, r1
    41dc:	e2 22       	and	r14, r18
    41de:	f3 22       	and	r15, r19
    41e0:	12 c0       	rjmp	.+36     	; 0x4206 <f_printf+0x294>
    41e2:	e1 14       	cp	r14, r1
    41e4:	f1 04       	cpc	r15, r1
    41e6:	11 f4       	brne	.+4      	; 0x41ec <f_printf+0x27a>
    41e8:	80 e2       	ldi	r24, 0x20	; 32
    41ea:	01 c0       	rjmp	.+2      	; 0x41ee <f_printf+0x27c>
    41ec:	80 e3       	ldi	r24, 0x30	; 48
    41ee:	68 a5       	ldd	r22, Y+40	; 0x28
    41f0:	79 a5       	ldd	r23, Y+41	; 0x29
    41f2:	0e 94 71 1f 	call	0x3ee2	; 0x3ee2 <f_putc>
			res++;
    41f6:	a9 89       	ldd	r26, Y+17	; 0x11
    41f8:	ba 89       	ldd	r27, Y+18	; 0x12
    41fa:	11 96       	adiw	r26, 0x01	; 1
    41fc:	ba 8b       	std	Y+18, r27	; 0x12
    41fe:	a9 8b       	std	Y+17, r26	; 0x11
    4200:	08 94       	sec
    4202:	81 08       	sbc	r8, r1
    4204:	91 08       	sbc	r9, r1
			}
			s[i++] = d + '0';
		} while (val && i < sizeof(s) / sizeof(s[0]));
		if (f & 4) s[i++] = '-';
		cc = 0;
		while (i < w-- && cc != EOF) {
    4206:	08 15       	cp	r16, r8
    4208:	19 05       	cpc	r17, r9
    420a:	18 f4       	brcc	.+6      	; 0x4212 <f_printf+0x2a0>
    420c:	8f 5f       	subi	r24, 0xFF	; 255
    420e:	9f 4f       	sbci	r25, 0xFF	; 255
    4210:	41 f7       	brne	.-48     	; 0x41e2 <f_printf+0x270>
    4212:	01 50       	subi	r16, 0x01	; 1
    4214:	10 40       	sbci	r17, 0x00	; 0
    4216:	e1 e0       	ldi	r30, 0x01	; 1
    4218:	ee 2e       	mov	r14, r30
    421a:	f1 2c       	mov	r15, r1
    421c:	ec 0e       	add	r14, r28
    421e:	fd 1e       	adc	r15, r29
    4220:	e0 0e       	add	r14, r16
    4222:	f1 1e       	adc	r15, r17
    4224:	0f 5f       	subi	r16, 0xFF	; 255
    4226:	1f 4f       	sbci	r17, 0xFF	; 255
			cc = f_putc((TCHAR)((f & 1) ? '0' : ' '), fil);
			res++;
		}
		do {
			cc = f_putc(s[--i], fil); 
    4228:	01 50       	subi	r16, 0x01	; 1
    422a:	10 40       	sbci	r17, 0x00	; 0
    422c:	f7 01       	movw	r30, r14
    422e:	80 81       	ld	r24, Z
    4230:	68 a5       	ldd	r22, Y+40	; 0x28
    4232:	79 a5       	ldd	r23, Y+41	; 0x29
    4234:	0e 94 71 1f 	call	0x3ee2	; 0x3ee2 <f_putc>
    4238:	9c 01       	movw	r18, r24
			res++;
    423a:	49 89       	ldd	r20, Y+17	; 0x11
    423c:	5a 89       	ldd	r21, Y+18	; 0x12
    423e:	4f 5f       	subi	r20, 0xFF	; 255
    4240:	5f 4f       	sbci	r21, 0xFF	; 255
    4242:	5a 8b       	std	Y+18, r21	; 0x12
    4244:	49 8b       	std	Y+17, r20	; 0x11
		} while (i && cc != EOF);
    4246:	01 15       	cp	r16, r1
    4248:	11 05       	cpc	r17, r1
    424a:	41 f0       	breq	.+16     	; 0x425c <f_printf+0x2ea>
    424c:	08 94       	sec
    424e:	e1 08       	sbc	r14, r1
    4250:	f1 08       	sbc	r15, r1
    4252:	5f ef       	ldi	r21, 0xFF	; 255
    4254:	8f 3f       	cpi	r24, 0xFF	; 255
    4256:	95 07       	cpc	r25, r21
    4258:	39 f7       	brne	.-50     	; 0x4228 <f_printf+0x2b6>
    425a:	06 c0       	rjmp	.+12     	; 0x4268 <f_printf+0x2f6>
		if (cc != EOF) cc = 0;
    425c:	8f ef       	ldi	r24, 0xFF	; 255
    425e:	2f 3f       	cpi	r18, 0xFF	; 255
    4260:	38 07       	cpc	r19, r24
    4262:	11 f0       	breq	.+4      	; 0x4268 <f_printf+0x2f6>
    4264:	20 e0       	ldi	r18, 0x00	; 0
    4266:	30 e0       	ldi	r19, 0x00	; 0
	int res, cc;


	va_start(arp, str);

	for (cc = res = 0; cc != EOF; res += cc) {
    4268:	a9 89       	ldd	r26, Y+17	; 0x11
    426a:	ba 89       	ldd	r27, Y+18	; 0x12
    426c:	a2 0f       	add	r26, r18
    426e:	b3 1f       	adc	r27, r19
    4270:	ba 8b       	std	Y+18, r27	; 0x12
    4272:	a9 8b       	std	Y+17, r26	; 0x11
    4274:	bf ef       	ldi	r27, 0xFF	; 255
    4276:	2f 3f       	cpi	r18, 0xFF	; 255
    4278:	3b 07       	cpc	r19, r27
    427a:	41 f0       	breq	.+16     	; 0x428c <f_printf+0x31a>
    427c:	83 01       	movw	r16, r6
    427e:	9a ce       	rjmp	.-716    	; 0x3fb4 <f_printf+0x42>
		} while (i && cc != EOF);
		if (cc != EOF) cc = 0;
	}

	va_end(arp);
	return (cc == EOF) ? cc : res;
    4280:	ef ef       	ldi	r30, 0xFF	; 255
    4282:	2f 3f       	cpi	r18, 0xFF	; 255
    4284:	3e 07       	cpc	r19, r30
    4286:	11 f0       	breq	.+4      	; 0x428c <f_printf+0x31a>
    4288:	29 89       	ldd	r18, Y+17	; 0x11
    428a:	3a 89       	ldd	r19, Y+18	; 0x12
}
    428c:	c9 01       	movw	r24, r18
    428e:	63 96       	adiw	r28, 0x13	; 19
    4290:	0f b6       	in	r0, 0x3f	; 63
    4292:	f8 94       	cli
    4294:	de bf       	out	0x3e, r29	; 62
    4296:	0f be       	out	0x3f, r0	; 63
    4298:	cd bf       	out	0x3d, r28	; 61
    429a:	cf 91       	pop	r28
    429c:	df 91       	pop	r29
    429e:	1f 91       	pop	r17
    42a0:	0f 91       	pop	r16
    42a2:	ff 90       	pop	r15
    42a4:	ef 90       	pop	r14
    42a6:	df 90       	pop	r13
    42a8:	cf 90       	pop	r12
    42aa:	bf 90       	pop	r11
    42ac:	af 90       	pop	r10
    42ae:	9f 90       	pop	r9
    42b0:	8f 90       	pop	r8
    42b2:	7f 90       	pop	r7
    42b4:	6f 90       	pop	r6
    42b6:	5f 90       	pop	r5
    42b8:	4f 90       	pop	r4
    42ba:	3f 90       	pop	r3
    42bc:	2f 90       	pop	r2
    42be:	08 95       	ret

000042c0 <f_read>:
	FIL *fp, 		/* Pointer to the file object */
	void *buff,		/* Pointer to data buffer */
	UINT btr,		/* Number of bytes to read */
	UINT *br		/* Pointer to number of bytes read */
)
{
    42c0:	3f 92       	push	r3
    42c2:	4f 92       	push	r4
    42c4:	5f 92       	push	r5
    42c6:	6f 92       	push	r6
    42c8:	7f 92       	push	r7
    42ca:	8f 92       	push	r8
    42cc:	9f 92       	push	r9
    42ce:	af 92       	push	r10
    42d0:	bf 92       	push	r11
    42d2:	cf 92       	push	r12
    42d4:	df 92       	push	r13
    42d6:	ef 92       	push	r14
    42d8:	ff 92       	push	r15
    42da:	0f 93       	push	r16
    42dc:	1f 93       	push	r17
    42de:	df 93       	push	r29
    42e0:	cf 93       	push	r28
    42e2:	00 d0       	rcall	.+0      	; 0x42e4 <f_read+0x24>
    42e4:	00 d0       	rcall	.+0      	; 0x42e6 <f_read+0x26>
    42e6:	00 d0       	rcall	.+0      	; 0x42e8 <f_read+0x28>
    42e8:	cd b7       	in	r28, 0x3d	; 61
    42ea:	de b7       	in	r29, 0x3e	; 62
    42ec:	9e 83       	std	Y+6, r25	; 0x06
    42ee:	8d 83       	std	Y+5, r24	; 0x05
    42f0:	16 2f       	mov	r17, r22
    42f2:	07 2f       	mov	r16, r23
    42f4:	3a 01       	movw	r6, r20
    42f6:	3c 83       	std	Y+4, r19	; 0x04
    42f8:	2b 83       	std	Y+3, r18	; 0x03
	DWORD clst, sect, remain;
	UINT rcnt, cc;
	BYTE csect, *rbuff = buff;


	*br = 0;	/* Initialize byte counter */
    42fa:	d9 01       	movw	r26, r18
    42fc:	1d 92       	st	X+, r1
    42fe:	1c 92       	st	X, r1

	res = validate(fp->fs, fp->id);					/* Check validity of the object */
    4300:	fc 01       	movw	r30, r24
    4302:	62 81       	ldd	r22, Z+2	; 0x02
    4304:	73 81       	ldd	r23, Z+3	; 0x03
    4306:	80 81       	ld	r24, Z
    4308:	91 81       	ldd	r25, Z+1	; 0x01
    430a:	0e 94 84 0a 	call	0x1508	; 0x1508 <validate>
    430e:	88 2e       	mov	r8, r24
	if (res != FR_OK) LEAVE_FF(fp->fs, res);
    4310:	88 23       	and	r24, r24
    4312:	09 f0       	breq	.+2      	; 0x4316 <f_read+0x56>
    4314:	ba c1       	rjmp	.+884    	; 0x468a <f_read+0x3ca>
	if (fp->flag & FA__ERROR)						/* Check abort flag */
    4316:	ad 81       	ldd	r26, Y+5	; 0x05
    4318:	be 81       	ldd	r27, Y+6	; 0x06
    431a:	14 96       	adiw	r26, 0x04	; 4
    431c:	8c 91       	ld	r24, X
    431e:	87 fd       	sbrc	r24, 7
    4320:	6b c0       	rjmp	.+214    	; 0x43f8 <f_read+0x138>
		LEAVE_FF(fp->fs, FR_INT_ERR);
	if (!(fp->flag & FA_READ)) 						/* Check access mode */
    4322:	80 fd       	sbrc	r24, 0
    4324:	03 c0       	rjmp	.+6      	; 0x432c <f_read+0x6c>
    4326:	07 e0       	ldi	r16, 0x07	; 7
    4328:	80 2e       	mov	r8, r16
    432a:	af c1       	rjmp	.+862    	; 0x468a <f_read+0x3ca>
		LEAVE_FF(fp->fs, FR_DENIED);
	remain = fp->fsize - fp->fptr;
    432c:	ed 81       	ldd	r30, Y+5	; 0x05
    432e:	fe 81       	ldd	r31, Y+6	; 0x06
    4330:	22 85       	ldd	r18, Z+10	; 0x0a
    4332:	33 85       	ldd	r19, Z+11	; 0x0b
    4334:	44 85       	ldd	r20, Z+12	; 0x0c
    4336:	55 85       	ldd	r21, Z+13	; 0x0d
    4338:	86 81       	ldd	r24, Z+6	; 0x06
    433a:	97 81       	ldd	r25, Z+7	; 0x07
    433c:	a0 85       	ldd	r26, Z+8	; 0x08
    433e:	b1 85       	ldd	r27, Z+9	; 0x09
    4340:	28 1b       	sub	r18, r24
    4342:	39 0b       	sbc	r19, r25
    4344:	4a 0b       	sbc	r20, r26
    4346:	5b 0b       	sbc	r21, r27
	if (btr > remain) btr = (UINT)remain;			/* Truncate btr by remaining bytes */
    4348:	c3 01       	movw	r24, r6
    434a:	a0 e0       	ldi	r26, 0x00	; 0
    434c:	b0 e0       	ldi	r27, 0x00	; 0
    434e:	28 17       	cp	r18, r24
    4350:	39 07       	cpc	r19, r25
    4352:	4a 07       	cpc	r20, r26
    4354:	5b 07       	cpc	r21, r27
    4356:	08 f4       	brcc	.+2      	; 0x435a <f_read+0x9a>
    4358:	39 01       	movw	r6, r18
)
{
	FRESULT res;
	DWORD clst, sect, remain;
	UINT rcnt, cc;
	BYTE csect, *rbuff = buff;
    435a:	81 2f       	mov	r24, r17
    435c:	90 2f       	mov	r25, r16
    435e:	9c 01       	movw	r18, r24
    4360:	29 01       	movw	r4, r18

/* Copy memory to memory */
static
void mem_cpy (void* dst, const void* src, UINT cnt) {
	BYTE *d = (BYTE*)dst;
	const BYTE *s = (const BYTE*)src;
    4362:	6d 81       	ldd	r22, Y+5	; 0x05
    4364:	7e 81       	ldd	r23, Y+6	; 0x06
    4366:	60 5e       	subi	r22, 0xE0	; 224
    4368:	7f 4f       	sbci	r23, 0xFF	; 255
    436a:	7a 83       	std	Y+2, r23	; 0x02
    436c:	69 83       	std	Y+1, r22	; 0x01
    436e:	89 c1       	rjmp	.+786    	; 0x4682 <f_read+0x3c2>
	remain = fp->fsize - fp->fptr;
	if (btr > remain) btr = (UINT)remain;			/* Truncate btr by remaining bytes */

	for ( ;  btr;									/* Repeat until all data transferred */
		rbuff += rcnt, fp->fptr += rcnt, *br += rcnt, btr -= rcnt) {
		if ((fp->fptr % SS(fp->fs)) == 0) {			/* On the sector boundary? */
    4370:	ad 81       	ldd	r26, Y+5	; 0x05
    4372:	be 81       	ldd	r27, Y+6	; 0x06
    4374:	16 96       	adiw	r26, 0x06	; 6
    4376:	2d 91       	ld	r18, X+
    4378:	3d 91       	ld	r19, X+
    437a:	4d 91       	ld	r20, X+
    437c:	5c 91       	ld	r21, X
    437e:	19 97       	sbiw	r26, 0x09	; 9
    4380:	da 01       	movw	r26, r20
    4382:	c9 01       	movw	r24, r18
    4384:	91 70       	andi	r25, 0x01	; 1
    4386:	a0 70       	andi	r26, 0x00	; 0
    4388:	b0 70       	andi	r27, 0x00	; 0
    438a:	00 97       	sbiw	r24, 0x00	; 0
    438c:	a1 05       	cpc	r26, r1
    438e:	b1 05       	cpc	r27, r1
    4390:	09 f0       	breq	.+2      	; 0x4394 <f_read+0xd4>
    4392:	26 c1       	rjmp	.+588    	; 0x45e0 <f_read+0x320>
			csect = (BYTE)(fp->fptr / SS(fp->fs) & (fp->fs->csize - 1));	/* Sector offset in the cluster */
    4394:	ad 81       	ldd	r26, Y+5	; 0x05
    4396:	be 81       	ldd	r27, Y+6	; 0x06
    4398:	ed 91       	ld	r30, X+
    439a:	fc 91       	ld	r31, X
    439c:	da 01       	movw	r26, r20
    439e:	c9 01       	movw	r24, r18
    43a0:	19 e0       	ldi	r17, 0x09	; 9
    43a2:	b6 95       	lsr	r27
    43a4:	a7 95       	ror	r26
    43a6:	97 95       	ror	r25
    43a8:	87 95       	ror	r24
    43aa:	1a 95       	dec	r17
    43ac:	d1 f7       	brne	.-12     	; 0x43a2 <f_read+0xe2>
    43ae:	92 80       	ldd	r9, Z+2	; 0x02
    43b0:	9a 94       	dec	r9
    43b2:	98 22       	and	r9, r24
			if (!csect) {							/* On the cluster boundary? */
    43b4:	99 f5       	brne	.+102    	; 0x441c <f_read+0x15c>
				clst = (fp->fptr == 0) ?			/* On the top of the file? */
    43b6:	21 15       	cp	r18, r1
    43b8:	31 05       	cpc	r19, r1
    43ba:	41 05       	cpc	r20, r1
    43bc:	51 05       	cpc	r21, r1
    43be:	39 f4       	brne	.+14     	; 0x43ce <f_read+0x10e>
    43c0:	ed 81       	ldd	r30, Y+5	; 0x05
    43c2:	fe 81       	ldd	r31, Y+6	; 0x06
    43c4:	66 85       	ldd	r22, Z+14	; 0x0e
    43c6:	77 85       	ldd	r23, Z+15	; 0x0f
    43c8:	80 89       	ldd	r24, Z+16	; 0x10
    43ca:	91 89       	ldd	r25, Z+17	; 0x11
    43cc:	0b c0       	rjmp	.+22     	; 0x43e4 <f_read+0x124>
    43ce:	ad 81       	ldd	r26, Y+5	; 0x05
    43d0:	be 81       	ldd	r27, Y+6	; 0x06
    43d2:	52 96       	adiw	r26, 0x12	; 18
    43d4:	4d 91       	ld	r20, X+
    43d6:	5d 91       	ld	r21, X+
    43d8:	6d 91       	ld	r22, X+
    43da:	7c 91       	ld	r23, X
    43dc:	55 97       	sbiw	r26, 0x15	; 21
    43de:	cf 01       	movw	r24, r30
    43e0:	0e 94 29 0f 	call	0x1e52	; 0x1e52 <get_fat>
					fp->org_clust : get_fat(fp->fs, fp->curr_clust);
				if (clst <= 1) ABORT(fp->fs, FR_INT_ERR);
    43e4:	62 30       	cpi	r22, 0x02	; 2
    43e6:	71 05       	cpc	r23, r1
    43e8:	81 05       	cpc	r24, r1
    43ea:	91 05       	cpc	r25, r1
    43ec:	40 f4       	brcc	.+16     	; 0x43fe <f_read+0x13e>
    43ee:	ed 81       	ldd	r30, Y+5	; 0x05
    43f0:	fe 81       	ldd	r31, Y+6	; 0x06
    43f2:	84 81       	ldd	r24, Z+4	; 0x04
    43f4:	80 68       	ori	r24, 0x80	; 128
    43f6:	84 83       	std	Z+4, r24	; 0x04
    43f8:	b2 e0       	ldi	r27, 0x02	; 2
    43fa:	8b 2e       	mov	r8, r27
    43fc:	46 c1       	rjmp	.+652    	; 0x468a <f_read+0x3ca>
				if (clst == 0xFFFFFFFF) ABORT(fp->fs, FR_DISK_ERR);
    43fe:	6f 3f       	cpi	r22, 0xFF	; 255
    4400:	ff ef       	ldi	r31, 0xFF	; 255
    4402:	7f 07       	cpc	r23, r31
    4404:	ff ef       	ldi	r31, 0xFF	; 255
    4406:	8f 07       	cpc	r24, r31
    4408:	ff ef       	ldi	r31, 0xFF	; 255
    440a:	9f 07       	cpc	r25, r31
    440c:	09 f4       	brne	.+2      	; 0x4410 <f_read+0x150>
    440e:	d7 c0       	rjmp	.+430    	; 0x45be <f_read+0x2fe>
				fp->curr_clust = clst;				/* Update current cluster */
    4410:	ed 81       	ldd	r30, Y+5	; 0x05
    4412:	fe 81       	ldd	r31, Y+6	; 0x06
    4414:	62 8b       	std	Z+18, r22	; 0x12
    4416:	73 8b       	std	Z+19, r23	; 0x13
    4418:	84 8b       	std	Z+20, r24	; 0x14
    441a:	95 8b       	std	Z+21, r25	; 0x15
			}
			sect = clust2sect(fp->fs, fp->curr_clust);	/* Get current sector */
    441c:	ad 81       	ldd	r26, Y+5	; 0x05
    441e:	be 81       	ldd	r27, Y+6	; 0x06
    4420:	0d 91       	ld	r16, X+
    4422:	1c 91       	ld	r17, X
    4424:	11 97       	sbiw	r26, 0x01	; 1
DWORD clust2sect (	/* !=0: Sector number, 0: Failed - invalid cluster# */
	FATFS *fs,		/* File system object */
	DWORD clst		/* Cluster# to be converted */
)
{
	clst -= 2;
    4426:	52 96       	adiw	r26, 0x12	; 18
    4428:	2d 91       	ld	r18, X+
    442a:	3d 91       	ld	r19, X+
    442c:	4d 91       	ld	r20, X+
    442e:	5c 91       	ld	r21, X
    4430:	55 97       	sbiw	r26, 0x15	; 21
    4432:	22 50       	subi	r18, 0x02	; 2
    4434:	30 40       	sbci	r19, 0x00	; 0
    4436:	40 40       	sbci	r20, 0x00	; 0
    4438:	50 40       	sbci	r21, 0x00	; 0
	if (clst >= (fs->n_fatent - 2)) return 0;		/* Invalid cluster# */
    443a:	f8 01       	movw	r30, r16
    443c:	82 8d       	ldd	r24, Z+26	; 0x1a
    443e:	93 8d       	ldd	r25, Z+27	; 0x1b
    4440:	a4 8d       	ldd	r26, Z+28	; 0x1c
    4442:	b5 8d       	ldd	r27, Z+29	; 0x1d
    4444:	02 97       	sbiw	r24, 0x02	; 2
    4446:	a1 09       	sbc	r26, r1
    4448:	b1 09       	sbc	r27, r1
    444a:	28 17       	cp	r18, r24
    444c:	39 07       	cpc	r19, r25
    444e:	4a 07       	cpc	r20, r26
    4450:	5b 07       	cpc	r21, r27
    4452:	b8 f4       	brcc	.+46     	; 0x4482 <f_read+0x1c2>
	return clst * fs->csize + fs->database;
    4454:	32 80       	ldd	r3, Z+2	; 0x02
    4456:	63 2d       	mov	r22, r3
    4458:	70 e0       	ldi	r23, 0x00	; 0
    445a:	80 e0       	ldi	r24, 0x00	; 0
    445c:	90 e0       	ldi	r25, 0x00	; 0
    445e:	0e 94 de 2d 	call	0x5bbc	; 0x5bbc <__mulsi3>
    4462:	9b 01       	movw	r18, r22
    4464:	ac 01       	movw	r20, r24
    4466:	f8 01       	movw	r30, r16
    4468:	82 a5       	ldd	r24, Z+42	; 0x2a
    446a:	93 a5       	ldd	r25, Z+43	; 0x2b
    446c:	a4 a5       	ldd	r26, Z+44	; 0x2c
    446e:	b5 a5       	ldd	r27, Z+45	; 0x2d
    4470:	28 0f       	add	r18, r24
    4472:	39 1f       	adc	r19, r25
    4474:	4a 1f       	adc	r20, r26
    4476:	5b 1f       	adc	r21, r27
				if (clst <= 1) ABORT(fp->fs, FR_INT_ERR);
				if (clst == 0xFFFFFFFF) ABORT(fp->fs, FR_DISK_ERR);
				fp->curr_clust = clst;				/* Update current cluster */
			}
			sect = clust2sect(fp->fs, fp->curr_clust);	/* Get current sector */
			if (!sect) ABORT(fp->fs, FR_INT_ERR);
    4478:	21 15       	cp	r18, r1
    447a:	31 05       	cpc	r19, r1
    447c:	41 05       	cpc	r20, r1
    447e:	51 05       	cpc	r21, r1
    4480:	49 f4       	brne	.+18     	; 0x4494 <f_read+0x1d4>
    4482:	ad 81       	ldd	r26, Y+5	; 0x05
    4484:	be 81       	ldd	r27, Y+6	; 0x06
    4486:	14 96       	adiw	r26, 0x04	; 4
    4488:	8c 91       	ld	r24, X
    448a:	14 97       	sbiw	r26, 0x04	; 4
    448c:	80 68       	ori	r24, 0x80	; 128
    448e:	14 96       	adiw	r26, 0x04	; 4
    4490:	8c 93       	st	X, r24
    4492:	b2 cf       	rjmp	.-156    	; 0x43f8 <f_read+0x138>
			sect += csect;
    4494:	69 01       	movw	r12, r18
    4496:	7a 01       	movw	r14, r20
    4498:	c9 0c       	add	r12, r9
    449a:	d1 1c       	adc	r13, r1
    449c:	e1 1c       	adc	r14, r1
    449e:	f1 1c       	adc	r15, r1
			cc = btr / SS(fp->fs);					/* When remaining bytes >= sector size, */
    44a0:	53 01       	movw	r10, r6
    44a2:	ab 2c       	mov	r10, r11
    44a4:	bb 24       	eor	r11, r11
    44a6:	a6 94       	lsr	r10
			if (cc) {								/* Read maximum contiguous sectors directly */
    44a8:	a1 14       	cp	r10, r1
    44aa:	b1 04       	cpc	r11, r1
    44ac:	09 f4       	brne	.+2      	; 0x44b0 <f_read+0x1f0>
    44ae:	51 c0       	rjmp	.+162    	; 0x4552 <f_read+0x292>
				if (csect + cc > fp->fs->csize)		/* Clip at cluster boundary */
    44b0:	29 2d       	mov	r18, r9
    44b2:	30 e0       	ldi	r19, 0x00	; 0
    44b4:	c5 01       	movw	r24, r10
    44b6:	82 0f       	add	r24, r18
    44b8:	93 1f       	adc	r25, r19
    44ba:	63 2d       	mov	r22, r3
    44bc:	70 e0       	ldi	r23, 0x00	; 0
    44be:	68 17       	cp	r22, r24
    44c0:	79 07       	cpc	r23, r25
    44c2:	18 f4       	brcc	.+6      	; 0x44ca <f_read+0x20a>
					cc = fp->fs->csize - csect;
    44c4:	5b 01       	movw	r10, r22
    44c6:	a2 1a       	sub	r10, r18
    44c8:	b3 0a       	sbc	r11, r19
				if (disk_read(fp->fs->drv, rbuff, sect, (BYTE)cc) != RES_OK)
    44ca:	f8 01       	movw	r30, r16
    44cc:	81 81       	ldd	r24, Z+1	; 0x01
    44ce:	b2 01       	movw	r22, r4
    44d0:	a7 01       	movw	r20, r14
    44d2:	96 01       	movw	r18, r12
    44d4:	0a 2d       	mov	r16, r10
    44d6:	0e 94 de 29 	call	0x53bc	; 0x53bc <disk_read>
    44da:	ad 81       	ldd	r26, Y+5	; 0x05
    44dc:	be 81       	ldd	r27, Y+6	; 0x06
    44de:	14 96       	adiw	r26, 0x04	; 4
    44e0:	9c 91       	ld	r25, X
    44e2:	14 97       	sbiw	r26, 0x04	; 4
    44e4:	88 23       	and	r24, r24
    44e6:	21 f0       	breq	.+8      	; 0x44f0 <f_read+0x230>
					ABORT(fp->fs, FR_DISK_ERR);
    44e8:	90 68       	ori	r25, 0x80	; 128
    44ea:	14 96       	adiw	r26, 0x04	; 4
    44ec:	9c 93       	st	X, r25
    44ee:	6f c0       	rjmp	.+222    	; 0x45ce <f_read+0x30e>
#if !_FS_READONLY && _FS_MINIMIZE <= 2				/* Replace one of the read sectors with cached data if it contains a dirty sector */
#if _FS_TINY
				if (fp->fs->wflag && fp->fs->winsect - sect < cc)
					mem_cpy(rbuff + ((fp->fs->winsect - sect) * SS(fp->fs)), fp->fs->win, SS(fp->fs));
#else
				if ((fp->flag & FA__DIRTY) && fp->dsect - sect < cc)
    44f0:	96 ff       	sbrs	r25, 6
    44f2:	2a c0       	rjmp	.+84     	; 0x4548 <f_read+0x288>
    44f4:	ed 81       	ldd	r30, Y+5	; 0x05
    44f6:	fe 81       	ldd	r31, Y+6	; 0x06
    44f8:	26 89       	ldd	r18, Z+22	; 0x16
    44fa:	37 89       	ldd	r19, Z+23	; 0x17
    44fc:	40 8d       	ldd	r20, Z+24	; 0x18
    44fe:	51 8d       	ldd	r21, Z+25	; 0x19
    4500:	2c 19       	sub	r18, r12
    4502:	3d 09       	sbc	r19, r13
    4504:	4e 09       	sbc	r20, r14
    4506:	5f 09       	sbc	r21, r15
    4508:	c5 01       	movw	r24, r10
    450a:	a0 e0       	ldi	r26, 0x00	; 0
    450c:	b0 e0       	ldi	r27, 0x00	; 0
    450e:	28 17       	cp	r18, r24
    4510:	39 07       	cpc	r19, r25
    4512:	4a 07       	cpc	r20, r26
    4514:	5b 07       	cpc	r21, r27
    4516:	c0 f4       	brcc	.+48     	; 0x4548 <f_read+0x288>
/*-----------------------------------------------------------------------*/

/* Copy memory to memory */
static
void mem_cpy (void* dst, const void* src, UINT cnt) {
	BYTE *d = (BYTE*)dst;
    4518:	f9 e0       	ldi	r31, 0x09	; 9
    451a:	22 0f       	add	r18, r18
    451c:	33 1f       	adc	r19, r19
    451e:	44 1f       	adc	r20, r20
    4520:	55 1f       	adc	r21, r21
    4522:	fa 95       	dec	r31
    4524:	d1 f7       	brne	.-12     	; 0x451a <f_read+0x25a>
    4526:	f2 01       	movw	r30, r4
    4528:	e2 0f       	add	r30, r18
    452a:	f3 1f       	adc	r31, r19
    452c:	49 81       	ldd	r20, Y+1	; 0x01
    452e:	5a 81       	ldd	r21, Y+2	; 0x02
	const BYTE *s = (const BYTE*)src;

#if _WORD_ACCESS == 1
	while (cnt >= sizeof(int)) {
    4530:	9f 01       	movw	r18, r30
    4532:	20 50       	subi	r18, 0x00	; 0
    4534:	3e 4f       	sbci	r19, 0xFE	; 254
		*(int*)d = *(int*)s;
    4536:	da 01       	movw	r26, r20
    4538:	8d 91       	ld	r24, X+
    453a:	9d 91       	ld	r25, X+
    453c:	ad 01       	movw	r20, r26
    453e:	81 93       	st	Z+, r24
    4540:	91 93       	st	Z+, r25
void mem_cpy (void* dst, const void* src, UINT cnt) {
	BYTE *d = (BYTE*)dst;
	const BYTE *s = (const BYTE*)src;

#if _WORD_ACCESS == 1
	while (cnt >= sizeof(int)) {
    4542:	e2 17       	cp	r30, r18
    4544:	f3 07       	cpc	r31, r19
    4546:	b9 f7       	brne	.-18     	; 0x4536 <f_read+0x276>
#else
				if ((fp->flag & FA__DIRTY) && fp->dsect - sect < cc)
					mem_cpy(rbuff + ((fp->dsect - sect) * SS(fp->fs)), fp->buf, SS(fp->fs));
#endif
#endif
				rcnt = SS(fp->fs) * cc;				/* Number of bytes transferred */
    4548:	b5 01       	movw	r22, r10
    454a:	76 2f       	mov	r23, r22
    454c:	66 27       	eor	r22, r22
    454e:	77 0f       	add	r23, r23
    4550:	7b c0       	rjmp	.+246    	; 0x4648 <f_read+0x388>
				continue;
			}
#if !_FS_TINY
#if !_FS_READONLY
			if (fp->flag & FA__DIRTY) {				/* Write sector I/O buffer if needed */
    4552:	ed 81       	ldd	r30, Y+5	; 0x05
    4554:	fe 81       	ldd	r31, Y+6	; 0x06
    4556:	84 81       	ldd	r24, Z+4	; 0x04
    4558:	86 ff       	sbrs	r24, 6
    455a:	19 c0       	rjmp	.+50     	; 0x458e <f_read+0x2ce>
				if (disk_write(fp->fs->drv, fp->buf, fp->dsect, 1) != RES_OK)
    455c:	26 89       	ldd	r18, Z+22	; 0x16
    455e:	37 89       	ldd	r19, Z+23	; 0x17
    4560:	40 8d       	ldd	r20, Z+24	; 0x18
    4562:	51 8d       	ldd	r21, Z+25	; 0x19
    4564:	d8 01       	movw	r26, r16
    4566:	11 96       	adiw	r26, 0x01	; 1
    4568:	8c 91       	ld	r24, X
    456a:	69 81       	ldd	r22, Y+1	; 0x01
    456c:	7a 81       	ldd	r23, Y+2	; 0x02
    456e:	01 e0       	ldi	r16, 0x01	; 1
    4570:	0e 94 36 2a 	call	0x546c	; 0x546c <disk_write>
    4574:	ed 81       	ldd	r30, Y+5	; 0x05
    4576:	fe 81       	ldd	r31, Y+6	; 0x06
    4578:	94 81       	ldd	r25, Z+4	; 0x04
    457a:	88 23       	and	r24, r24
    457c:	19 f0       	breq	.+6      	; 0x4584 <f_read+0x2c4>
					ABORT(fp->fs, FR_DISK_ERR);
    457e:	90 68       	ori	r25, 0x80	; 128
    4580:	94 83       	std	Z+4, r25	; 0x04
    4582:	25 c0       	rjmp	.+74     	; 0x45ce <f_read+0x30e>
				fp->flag &= ~FA__DIRTY;
    4584:	9f 7b       	andi	r25, 0xBF	; 191
    4586:	ad 81       	ldd	r26, Y+5	; 0x05
    4588:	be 81       	ldd	r27, Y+6	; 0x06
    458a:	14 96       	adiw	r26, 0x04	; 4
    458c:	9c 93       	st	X, r25
			}
#endif
			if (fp->dsect != sect) {				/* Fill sector buffer with file data */
    458e:	ed 81       	ldd	r30, Y+5	; 0x05
    4590:	fe 81       	ldd	r31, Y+6	; 0x06
    4592:	86 89       	ldd	r24, Z+22	; 0x16
    4594:	97 89       	ldd	r25, Z+23	; 0x17
    4596:	a0 8d       	ldd	r26, Z+24	; 0x18
    4598:	b1 8d       	ldd	r27, Z+25	; 0x19
    459a:	8c 15       	cp	r24, r12
    459c:	9d 05       	cpc	r25, r13
    459e:	ae 05       	cpc	r26, r14
    45a0:	bf 05       	cpc	r27, r15
    45a2:	c1 f0       	breq	.+48     	; 0x45d4 <f_read+0x314>
				if (disk_read(fp->fs->drv, fp->buf, sect, 1) != RES_OK)
    45a4:	01 90       	ld	r0, Z+
    45a6:	f0 81       	ld	r31, Z
    45a8:	e0 2d       	mov	r30, r0
    45aa:	81 81       	ldd	r24, Z+1	; 0x01
    45ac:	69 81       	ldd	r22, Y+1	; 0x01
    45ae:	7a 81       	ldd	r23, Y+2	; 0x02
    45b0:	a7 01       	movw	r20, r14
    45b2:	96 01       	movw	r18, r12
    45b4:	01 e0       	ldi	r16, 0x01	; 1
    45b6:	0e 94 de 29 	call	0x53bc	; 0x53bc <disk_read>
    45ba:	88 23       	and	r24, r24
    45bc:	59 f0       	breq	.+22     	; 0x45d4 <f_read+0x314>
					ABORT(fp->fs, FR_DISK_ERR);
    45be:	ad 81       	ldd	r26, Y+5	; 0x05
    45c0:	be 81       	ldd	r27, Y+6	; 0x06
    45c2:	14 96       	adiw	r26, 0x04	; 4
    45c4:	8c 91       	ld	r24, X
    45c6:	14 97       	sbiw	r26, 0x04	; 4
    45c8:	80 68       	ori	r24, 0x80	; 128
    45ca:	14 96       	adiw	r26, 0x04	; 4
    45cc:	8c 93       	st	X, r24
    45ce:	88 24       	eor	r8, r8
    45d0:	83 94       	inc	r8
    45d2:	5b c0       	rjmp	.+182    	; 0x468a <f_read+0x3ca>
			}
#endif
			fp->dsect = sect;
    45d4:	ed 81       	ldd	r30, Y+5	; 0x05
    45d6:	fe 81       	ldd	r31, Y+6	; 0x06
    45d8:	c6 8a       	std	Z+22, r12	; 0x16
    45da:	d7 8a       	std	Z+23, r13	; 0x17
    45dc:	e0 8e       	std	Z+24, r14	; 0x18
    45de:	f1 8e       	std	Z+25, r15	; 0x19
		}
		rcnt = SS(fp->fs) - (fp->fptr % SS(fp->fs));	/* Get partial sector data from sector buffer */
    45e0:	ad 81       	ldd	r26, Y+5	; 0x05
    45e2:	be 81       	ldd	r27, Y+6	; 0x06
    45e4:	16 96       	adiw	r26, 0x06	; 6
    45e6:	2d 91       	ld	r18, X+
    45e8:	3d 91       	ld	r19, X+
    45ea:	4d 91       	ld	r20, X+
    45ec:	5c 91       	ld	r21, X
    45ee:	19 97       	sbiw	r26, 0x09	; 9
    45f0:	c9 01       	movw	r24, r18
    45f2:	91 70       	andi	r25, 0x01	; 1
    45f4:	e0 e0       	ldi	r30, 0x00	; 0
    45f6:	f2 e0       	ldi	r31, 0x02	; 2
    45f8:	e8 1b       	sub	r30, r24
    45fa:	f9 0b       	sbc	r31, r25
    45fc:	b3 01       	movw	r22, r6
    45fe:	e6 15       	cp	r30, r6
    4600:	f7 05       	cpc	r31, r7
    4602:	08 f4       	brcc	.+2      	; 0x4606 <f_read+0x346>
    4604:	bf 01       	movw	r22, r30

/* Copy memory to memory */
static
void mem_cpy (void* dst, const void* src, UINT cnt) {
	BYTE *d = (BYTE*)dst;
	const BYTE *s = (const BYTE*)src;
    4606:	a9 01       	movw	r20, r18
    4608:	51 70       	andi	r21, 0x01	; 1
    460a:	40 5e       	subi	r20, 0xE0	; 224
    460c:	5f 4f       	sbci	r21, 0xFF	; 255
    460e:	8d 81       	ldd	r24, Y+5	; 0x05
    4610:	9e 81       	ldd	r25, Y+6	; 0x06
    4612:	48 0f       	add	r20, r24
    4614:	59 1f       	adc	r21, r25
    4616:	da 01       	movw	r26, r20
    4618:	f2 01       	movw	r30, r4
    461a:	9b 01       	movw	r18, r22
    461c:	06 c0       	rjmp	.+12     	; 0x462a <f_read+0x36a>

#if _WORD_ACCESS == 1
	while (cnt >= sizeof(int)) {
		*(int*)d = *(int*)s;
    461e:	8d 91       	ld	r24, X+
    4620:	9d 91       	ld	r25, X+
    4622:	81 93       	st	Z+, r24
    4624:	91 93       	st	Z+, r25
		d += sizeof(int); s += sizeof(int);
		cnt -= sizeof(int);
    4626:	22 50       	subi	r18, 0x02	; 2
    4628:	30 40       	sbci	r19, 0x00	; 0
void mem_cpy (void* dst, const void* src, UINT cnt) {
	BYTE *d = (BYTE*)dst;
	const BYTE *s = (const BYTE*)src;

#if _WORD_ACCESS == 1
	while (cnt >= sizeof(int)) {
    462a:	22 30       	cpi	r18, 0x02	; 2
    462c:	31 05       	cpc	r19, r1
    462e:	b8 f7       	brcc	.-18     	; 0x461e <f_read+0x35e>
	FIL *fp, 		/* Pointer to the file object */
	void *buff,		/* Pointer to data buffer */
	UINT btr,		/* Number of bytes to read */
	UINT *br		/* Pointer to number of bytes read */
)
{
    4630:	cb 01       	movw	r24, r22
    4632:	8e 7f       	andi	r24, 0xFE	; 254
    4634:	da 01       	movw	r26, r20
    4636:	a8 0f       	add	r26, r24
    4638:	b9 1f       	adc	r27, r25
    463a:	f2 01       	movw	r30, r4
    463c:	e8 0f       	add	r30, r24
    463e:	f9 1f       	adc	r31, r25
		*(int*)d = *(int*)s;
		d += sizeof(int); s += sizeof(int);
		cnt -= sizeof(int);
	}
#endif
	while (cnt--)
    4640:	60 ff       	sbrs	r22, 0
    4642:	02 c0       	rjmp	.+4      	; 0x4648 <f_read+0x388>
		*d++ = *s++;
    4644:	8c 91       	ld	r24, X
    4646:	80 83       	st	Z, r24
		LEAVE_FF(fp->fs, FR_DENIED);
	remain = fp->fsize - fp->fptr;
	if (btr > remain) btr = (UINT)remain;			/* Truncate btr by remaining bytes */

	for ( ;  btr;									/* Repeat until all data transferred */
		rbuff += rcnt, fp->fptr += rcnt, *br += rcnt, btr -= rcnt) {
    4648:	46 0e       	add	r4, r22
    464a:	57 1e       	adc	r5, r23
    464c:	cb 01       	movw	r24, r22
    464e:	a0 e0       	ldi	r26, 0x00	; 0
    4650:	b0 e0       	ldi	r27, 0x00	; 0
    4652:	ed 81       	ldd	r30, Y+5	; 0x05
    4654:	fe 81       	ldd	r31, Y+6	; 0x06
    4656:	26 81       	ldd	r18, Z+6	; 0x06
    4658:	37 81       	ldd	r19, Z+7	; 0x07
    465a:	40 85       	ldd	r20, Z+8	; 0x08
    465c:	51 85       	ldd	r21, Z+9	; 0x09
    465e:	28 0f       	add	r18, r24
    4660:	39 1f       	adc	r19, r25
    4662:	4a 1f       	adc	r20, r26
    4664:	5b 1f       	adc	r21, r27
    4666:	26 83       	std	Z+6, r18	; 0x06
    4668:	37 83       	std	Z+7, r19	; 0x07
    466a:	40 87       	std	Z+8, r20	; 0x08
    466c:	51 87       	std	Z+9, r21	; 0x09
    466e:	eb 81       	ldd	r30, Y+3	; 0x03
    4670:	fc 81       	ldd	r31, Y+4	; 0x04
    4672:	80 81       	ld	r24, Z
    4674:	91 81       	ldd	r25, Z+1	; 0x01
    4676:	86 0f       	add	r24, r22
    4678:	97 1f       	adc	r25, r23
    467a:	91 83       	std	Z+1, r25	; 0x01
    467c:	80 83       	st	Z, r24
    467e:	66 1a       	sub	r6, r22
    4680:	77 0a       	sbc	r7, r23
	if (!(fp->flag & FA_READ)) 						/* Check access mode */
		LEAVE_FF(fp->fs, FR_DENIED);
	remain = fp->fsize - fp->fptr;
	if (btr > remain) btr = (UINT)remain;			/* Truncate btr by remaining bytes */

	for ( ;  btr;									/* Repeat until all data transferred */
    4682:	61 14       	cp	r6, r1
    4684:	71 04       	cpc	r7, r1
    4686:	09 f0       	breq	.+2      	; 0x468a <f_read+0x3ca>
    4688:	73 ce       	rjmp	.-794    	; 0x4370 <f_read+0xb0>
		mem_cpy(rbuff, &fp->buf[fp->fptr % SS(fp->fs)], rcnt);	/* Pick partial sector */
#endif
	}

	LEAVE_FF(fp->fs, FR_OK);
}
    468a:	88 2d       	mov	r24, r8
    468c:	26 96       	adiw	r28, 0x06	; 6
    468e:	0f b6       	in	r0, 0x3f	; 63
    4690:	f8 94       	cli
    4692:	de bf       	out	0x3e, r29	; 62
    4694:	0f be       	out	0x3f, r0	; 63
    4696:	cd bf       	out	0x3d, r28	; 61
    4698:	cf 91       	pop	r28
    469a:	df 91       	pop	r29
    469c:	1f 91       	pop	r17
    469e:	0f 91       	pop	r16
    46a0:	ff 90       	pop	r15
    46a2:	ef 90       	pop	r14
    46a4:	df 90       	pop	r13
    46a6:	cf 90       	pop	r12
    46a8:	bf 90       	pop	r11
    46aa:	af 90       	pop	r10
    46ac:	9f 90       	pop	r9
    46ae:	8f 90       	pop	r8
    46b0:	7f 90       	pop	r7
    46b2:	6f 90       	pop	r6
    46b4:	5f 90       	pop	r5
    46b6:	4f 90       	pop	r4
    46b8:	3f 90       	pop	r3
    46ba:	08 95       	ret

000046bc <f_gets>:
TCHAR* f_gets (
	TCHAR* buff,	/* Pointer to the string buffer to read */
	int len,		/* Size of string buffer (characters) */
	FIL* fil		/* Pointer to the file object */
)
{
    46bc:	4f 92       	push	r4
    46be:	5f 92       	push	r5
    46c0:	6f 92       	push	r6
    46c2:	7f 92       	push	r7
    46c4:	8f 92       	push	r8
    46c6:	9f 92       	push	r9
    46c8:	af 92       	push	r10
    46ca:	bf 92       	push	r11
    46cc:	cf 92       	push	r12
    46ce:	df 92       	push	r13
    46d0:	ef 92       	push	r14
    46d2:	ff 92       	push	r15
    46d4:	0f 93       	push	r16
    46d6:	1f 93       	push	r17
    46d8:	df 93       	push	r29
    46da:	cf 93       	push	r28
    46dc:	00 d0       	rcall	.+0      	; 0x46de <f_gets+0x22>
    46de:	00 d0       	rcall	.+0      	; 0x46e0 <f_gets+0x24>
    46e0:	cd b7       	in	r28, 0x3d	; 61
    46e2:	de b7       	in	r29, 0x3e	; 62
    46e4:	6c 01       	movw	r12, r24
    46e6:	5b 01       	movw	r10, r22
    46e8:	4a 01       	movw	r8, r20
    46ea:	7c 01       	movw	r14, r24
    46ec:	00 e0       	ldi	r16, 0x00	; 0
    46ee:	10 e0       	ldi	r17, 0x00	; 0
	TCHAR c, *p = buff;
	BYTE s[2];
	UINT rc;


	while (n < len - 1) {			/* Read bytes until buffer gets filled */
    46f0:	08 94       	sec
    46f2:	a1 08       	sbc	r10, r1
    46f4:	b1 08       	sbc	r11, r1
		f_read(fil, s, 1, &rc);
    46f6:	83 e0       	ldi	r24, 0x03	; 3
    46f8:	48 2e       	mov	r4, r24
    46fa:	51 2c       	mov	r5, r1
    46fc:	4c 0e       	add	r4, r28
    46fe:	5d 1e       	adc	r5, r29
    4700:	3e 01       	movw	r6, r28
    4702:	08 94       	sec
    4704:	61 1c       	adc	r6, r1
    4706:	71 1c       	adc	r7, r1
    4708:	13 c0       	rjmp	.+38     	; 0x4730 <f_gets+0x74>
    470a:	c4 01       	movw	r24, r8
    470c:	b3 01       	movw	r22, r6
    470e:	41 e0       	ldi	r20, 0x01	; 1
    4710:	50 e0       	ldi	r21, 0x00	; 0
    4712:	92 01       	movw	r18, r4
    4714:	0e 94 60 21 	call	0x42c0	; 0x42c0 <f_read>
		if (rc != 1) break;			/* Break on EOF or error */
    4718:	8b 81       	ldd	r24, Y+3	; 0x03
    471a:	9c 81       	ldd	r25, Y+4	; 0x04
    471c:	01 97       	sbiw	r24, 0x01	; 1
    471e:	59 f4       	brne	.+22     	; 0x4736 <f_gets+0x7a>
		c = s[0];
    4720:	89 81       	ldd	r24, Y+1	; 0x01
		}
#endif
#if _USE_STRFUNC >= 2
		if (c == '\r') continue;	/* Strip '\r' */
#endif
		*p++ = c;
    4722:	f7 01       	movw	r30, r14
    4724:	81 93       	st	Z+, r24
    4726:	7f 01       	movw	r14, r30
		n++;
    4728:	0f 5f       	subi	r16, 0xFF	; 255
    472a:	1f 4f       	sbci	r17, 0xFF	; 255
		if (c == '\n') break;		/* Break on EOL */
    472c:	8a 30       	cpi	r24, 0x0A	; 10
    472e:	19 f0       	breq	.+6      	; 0x4736 <f_gets+0x7a>
	TCHAR c, *p = buff;
	BYTE s[2];
	UINT rc;


	while (n < len - 1) {			/* Read bytes until buffer gets filled */
    4730:	0a 15       	cp	r16, r10
    4732:	1b 05       	cpc	r17, r11
    4734:	54 f3       	brlt	.-44     	; 0x470a <f_gets+0x4e>
#endif
		*p++ = c;
		n++;
		if (c == '\n') break;		/* Break on EOL */
	}
	*p = 0;
    4736:	f7 01       	movw	r30, r14
    4738:	10 82       	st	Z, r1
	return n ? buff : 0;			/* When no data read (eof or error), return with error. */
    473a:	01 2b       	or	r16, r17
    473c:	11 f4       	brne	.+4      	; 0x4742 <f_gets+0x86>
    473e:	cc 24       	eor	r12, r12
    4740:	dd 24       	eor	r13, r13
}
    4742:	c6 01       	movw	r24, r12
    4744:	0f 90       	pop	r0
    4746:	0f 90       	pop	r0
    4748:	0f 90       	pop	r0
    474a:	0f 90       	pop	r0
    474c:	cf 91       	pop	r28
    474e:	df 91       	pop	r29
    4750:	1f 91       	pop	r17
    4752:	0f 91       	pop	r16
    4754:	ff 90       	pop	r15
    4756:	ef 90       	pop	r14
    4758:	df 90       	pop	r13
    475a:	cf 90       	pop	r12
    475c:	bf 90       	pop	r11
    475e:	af 90       	pop	r10
    4760:	9f 90       	pop	r9
    4762:	8f 90       	pop	r8
    4764:	7f 90       	pop	r7
    4766:	6f 90       	pop	r6
    4768:	5f 90       	pop	r5
    476a:	4f 90       	pop	r4
    476c:	08 95       	ret

0000476e <sync>:
#if !_FS_READONLY
static
FRESULT sync (	/* FR_OK: successful, FR_DISK_ERR: failed */
	FATFS *fs	/* File system object */
)
{
    476e:	0f 93       	push	r16
    4770:	cf 93       	push	r28
    4772:	df 93       	push	r29
    4774:	ec 01       	movw	r28, r24
	FRESULT res;


	res = move_window(fs, 0);
    4776:	40 e0       	ldi	r20, 0x00	; 0
    4778:	50 e0       	ldi	r21, 0x00	; 0
    477a:	60 e0       	ldi	r22, 0x00	; 0
    477c:	70 e0       	ldi	r23, 0x00	; 0
    477e:	0e 94 b9 0d 	call	0x1b72	; 0x1b72 <move_window>
	if (res == FR_OK) {
    4782:	88 23       	and	r24, r24
    4784:	09 f0       	breq	.+2      	; 0x4788 <sync+0x1a>
    4786:	5e c0       	rjmp	.+188    	; 0x4844 <sync+0xd6>
		/* Update FSInfo sector if needed */
		if (fs->fs_type == FS_FAT32 && fs->fsi_flag) {
    4788:	88 81       	ld	r24, Y
    478a:	83 30       	cpi	r24, 0x03	; 3
    478c:	09 f0       	breq	.+2      	; 0x4790 <sync+0x22>
    478e:	52 c0       	rjmp	.+164    	; 0x4834 <sync+0xc6>
    4790:	8d 81       	ldd	r24, Y+5	; 0x05
    4792:	88 23       	and	r24, r24
    4794:	09 f4       	brne	.+2      	; 0x4798 <sync+0x2a>
    4796:	4e c0       	rjmp	.+156    	; 0x4834 <sync+0xc6>
			fs->winsect = 0;
    4798:	1e a6       	std	Y+46, r1	; 0x2e
    479a:	1f a6       	std	Y+47, r1	; 0x2f
    479c:	18 aa       	std	Y+48, r1	; 0x30
    479e:	19 aa       	std	Y+49, r1	; 0x31
}

/* Fill memory */
static
void mem_set (void* dst, int val, UINT cnt) {
	BYTE *d = (BYTE*)dst;
    47a0:	be 01       	movw	r22, r28
    47a2:	6e 5c       	subi	r22, 0xCE	; 206
    47a4:	7f 4f       	sbci	r23, 0xFF	; 255
    47a6:	fb 01       	movw	r30, r22
    47a8:	80 e0       	ldi	r24, 0x00	; 0
    47aa:	92 e0       	ldi	r25, 0x02	; 2
    47ac:	01 c0       	rjmp	.+2      	; 0x47b0 <sync+0x42>

	while (cnt--)
		*d++ = (BYTE)val;
    47ae:	11 92       	st	Z+, r1
/* Fill memory */
static
void mem_set (void* dst, int val, UINT cnt) {
	BYTE *d = (BYTE*)dst;

	while (cnt--)
    47b0:	01 97       	sbiw	r24, 0x01	; 1
    47b2:	2f ef       	ldi	r18, 0xFF	; 255
    47b4:	8f 3f       	cpi	r24, 0xFF	; 255
    47b6:	92 07       	cpc	r25, r18
    47b8:	d1 f7       	brne	.-12     	; 0x47ae <sync+0x40>
	if (res == FR_OK) {
		/* Update FSInfo sector if needed */
		if (fs->fs_type == FS_FAT32 && fs->fsi_flag) {
			fs->winsect = 0;
			mem_set(fs->win, 0, 512);
			ST_WORD(fs->win+BS_55AA, 0xAA55);
    47ba:	c0 5d       	subi	r28, 0xD0	; 208
    47bc:	dd 4f       	sbci	r29, 0xFD	; 253
    47be:	85 e5       	ldi	r24, 0x55	; 85
    47c0:	9a ea       	ldi	r25, 0xAA	; 170
    47c2:	99 83       	std	Y+1, r25	; 0x01
    47c4:	88 83       	st	Y, r24
    47c6:	c0 53       	subi	r28, 0x30	; 48
    47c8:	d2 40       	sbci	r29, 0x02	; 2
			ST_DWORD(fs->win+FSI_LeadSig, 0x41615252);
    47ca:	82 e5       	ldi	r24, 0x52	; 82
    47cc:	92 e5       	ldi	r25, 0x52	; 82
    47ce:	a1 e6       	ldi	r26, 0x61	; 97
    47d0:	b1 e4       	ldi	r27, 0x41	; 65
    47d2:	8a ab       	std	Y+50, r24	; 0x32
    47d4:	9b ab       	std	Y+51, r25	; 0x33
    47d6:	ac ab       	std	Y+52, r26	; 0x34
    47d8:	bd ab       	std	Y+53, r27	; 0x35
			ST_DWORD(fs->win+FSI_StrucSig, 0x61417272);
    47da:	ca 5e       	subi	r28, 0xEA	; 234
    47dc:	dd 4f       	sbci	r29, 0xFD	; 253
    47de:	82 e7       	ldi	r24, 0x72	; 114
    47e0:	92 e7       	ldi	r25, 0x72	; 114
    47e2:	a1 e4       	ldi	r26, 0x41	; 65
    47e4:	b1 e6       	ldi	r27, 0x61	; 97
    47e6:	88 83       	st	Y, r24
    47e8:	99 83       	std	Y+1, r25	; 0x01
    47ea:	aa 83       	std	Y+2, r26	; 0x02
    47ec:	bb 83       	std	Y+3, r27	; 0x03
    47ee:	c6 51       	subi	r28, 0x16	; 22
    47f0:	d2 40       	sbci	r29, 0x02	; 2
			ST_DWORD(fs->win+FSI_Free_Count, fs->free_clust);
    47f2:	8e 85       	ldd	r24, Y+14	; 0x0e
    47f4:	9f 85       	ldd	r25, Y+15	; 0x0f
    47f6:	a8 89       	ldd	r26, Y+16	; 0x10
    47f8:	b9 89       	ldd	r27, Y+17	; 0x11
    47fa:	c6 5e       	subi	r28, 0xE6	; 230
    47fc:	dd 4f       	sbci	r29, 0xFD	; 253
    47fe:	88 83       	st	Y, r24
    4800:	99 83       	std	Y+1, r25	; 0x01
    4802:	aa 83       	std	Y+2, r26	; 0x02
    4804:	bb 83       	std	Y+3, r27	; 0x03
    4806:	ca 51       	subi	r28, 0x1A	; 26
    4808:	d2 40       	sbci	r29, 0x02	; 2
			ST_DWORD(fs->win+FSI_Nxt_Free, fs->last_clust);
    480a:	8a 85       	ldd	r24, Y+10	; 0x0a
    480c:	9b 85       	ldd	r25, Y+11	; 0x0b
    480e:	ac 85       	ldd	r26, Y+12	; 0x0c
    4810:	bd 85       	ldd	r27, Y+13	; 0x0d
    4812:	c2 5e       	subi	r28, 0xE2	; 226
    4814:	dd 4f       	sbci	r29, 0xFD	; 253
    4816:	88 83       	st	Y, r24
    4818:	99 83       	std	Y+1, r25	; 0x01
    481a:	aa 83       	std	Y+2, r26	; 0x02
    481c:	bb 83       	std	Y+3, r27	; 0x03
    481e:	ce 51       	subi	r28, 0x1E	; 30
    4820:	d2 40       	sbci	r29, 0x02	; 2
			disk_write(fs->drv, fs->win, fs->fsi_sector, 1);
    4822:	2a 89       	ldd	r18, Y+18	; 0x12
    4824:	3b 89       	ldd	r19, Y+19	; 0x13
    4826:	4c 89       	ldd	r20, Y+20	; 0x14
    4828:	5d 89       	ldd	r21, Y+21	; 0x15
    482a:	89 81       	ldd	r24, Y+1	; 0x01
    482c:	01 e0       	ldi	r16, 0x01	; 1
    482e:	0e 94 36 2a 	call	0x546c	; 0x546c <disk_write>
			fs->fsi_flag = 0;
    4832:	1d 82       	std	Y+5, r1	; 0x05
		}
		/* Make sure that no pending write process in the physical drive */
		if (disk_ioctl(fs->drv, CTRL_SYNC, (void*)0) != RES_OK)
    4834:	89 81       	ldd	r24, Y+1	; 0x01
    4836:	60 e0       	ldi	r22, 0x00	; 0
    4838:	40 e0       	ldi	r20, 0x00	; 0
    483a:	50 e0       	ldi	r21, 0x00	; 0
    483c:	0e 94 a6 2a 	call	0x554c	; 0x554c <disk_ioctl>
    4840:	81 11       	cpse	r24, r1
    4842:	81 e0       	ldi	r24, 0x01	; 1
			res = FR_DISK_ERR;
	}

	return res;
}
    4844:	df 91       	pop	r29
    4846:	cf 91       	pop	r28
    4848:	0f 91       	pop	r16
    484a:	08 95       	ret

0000484c <f_rename>:

FRESULT f_rename (
	const TCHAR *path_old,	/* Pointer to the old name */
	const TCHAR *path_new	/* Pointer to the new name */
)
{
    484c:	af 92       	push	r10
    484e:	bf 92       	push	r11
    4850:	cf 92       	push	r12
    4852:	df 92       	push	r13
    4854:	ef 92       	push	r14
    4856:	ff 92       	push	r15
    4858:	0f 93       	push	r16
    485a:	1f 93       	push	r17
    485c:	df 93       	push	r29
    485e:	cf 93       	push	r28
    4860:	cd b7       	in	r28, 0x3d	; 61
    4862:	de b7       	in	r29, 0x3e	; 62
    4864:	cf 54       	subi	r28, 0x4F	; 79
    4866:	d0 40       	sbci	r29, 0x00	; 0
    4868:	0f b6       	in	r0, 0x3f	; 63
    486a:	f8 94       	cli
    486c:	de bf       	out	0x3e, r29	; 62
    486e:	0f be       	out	0x3f, r0	; 63
    4870:	cd bf       	out	0x3d, r28	; 61
    4872:	8e 01       	movw	r16, r28
    4874:	02 5b       	subi	r16, 0xB2	; 178
    4876:	1f 4f       	sbci	r17, 0xFF	; 255
    4878:	d8 01       	movw	r26, r16
    487a:	8d 93       	st	X+, r24
    487c:	9c 93       	st	X, r25
    487e:	6b 01       	movw	r12, r22
	BYTE buf[21], *dir;
	DWORD dw;
	DEF_NAMEBUF;


	res = chk_mounted(&path_old, &djo.fs, 1);
    4880:	62 e2       	ldi	r22, 0x22	; 34
    4882:	e6 2e       	mov	r14, r22
    4884:	f1 2c       	mov	r15, r1
    4886:	ec 0e       	add	r14, r28
    4888:	fd 1e       	adc	r15, r29
    488a:	c8 01       	movw	r24, r16
    488c:	b7 01       	movw	r22, r14
    488e:	41 e0       	ldi	r20, 0x01	; 1
    4890:	0e 94 9a 0a 	call	0x1534	; 0x1534 <chk_mounted>
	if (res == FR_OK) {
    4894:	88 23       	and	r24, r24
    4896:	09 f0       	breq	.+2      	; 0x489a <f_rename+0x4e>
    4898:	21 c1       	rjmp	.+578    	; 0x4adc <f_rename+0x290>
		djn.fs = djo.fs;
    489a:	8a a1       	ldd	r24, Y+34	; 0x22
    489c:	9b a1       	ldd	r25, Y+35	; 0x23
    489e:	99 af       	std	Y+57, r25	; 0x39
    48a0:	88 af       	std	Y+56, r24	; 0x38
		INIT_BUF(djo);
    48a2:	ce 01       	movw	r24, r28
    48a4:	01 96       	adiw	r24, 0x01	; 1
    48a6:	9f ab       	std	Y+55, r25	; 0x37
    48a8:	8e ab       	std	Y+54, r24	; 0x36
		res = follow_path(&djo, path_old);		/* Check old object */
    48aa:	f8 01       	movw	r30, r16
    48ac:	60 81       	ld	r22, Z
    48ae:	71 81       	ldd	r23, Z+1	; 0x01
    48b0:	c7 01       	movw	r24, r14
    48b2:	0e 94 7e 14 	call	0x28fc	; 0x28fc <follow_path>
		if (_FS_RPATH && res == FR_OK && (djo.fn[NS] & NS_DOT))
    48b6:	88 23       	and	r24, r24
    48b8:	09 f0       	breq	.+2      	; 0x48bc <f_rename+0x70>
    48ba:	10 c1       	rjmp	.+544    	; 0x4adc <f_rename+0x290>
    48bc:	ee a9       	ldd	r30, Y+54	; 0x36
    48be:	ff a9       	ldd	r31, Y+55	; 0x37
    48c0:	83 85       	ldd	r24, Z+11	; 0x0b
    48c2:	85 ff       	sbrs	r24, 5
    48c4:	02 c0       	rjmp	.+4      	; 0x48ca <f_rename+0x7e>
    48c6:	86 e0       	ldi	r24, 0x06	; 6
    48c8:	09 c1       	rjmp	.+530    	; 0x4adc <f_rename+0x290>
			res = FR_INVALID_NAME;
#if _FS_SHARE
		if (res == FR_OK) res = chk_lock(&djo, 2);
#endif
		if (res == FR_OK) {						/* Old object is found */
			if (!djo.dir) {						/* Is root dir? */
    48ca:	8c a9       	ldd	r24, Y+52	; 0x34
    48cc:	9d a9       	ldd	r25, Y+53	; 0x35
    48ce:	00 97       	sbiw	r24, 0x00	; 0
    48d0:	11 f4       	brne	.+4      	; 0x48d6 <f_rename+0x8a>
    48d2:	84 e0       	ldi	r24, 0x04	; 4
    48d4:	03 c1       	rjmp	.+518    	; 0x4adc <f_rename+0x290>

/* Copy memory to memory */
static
void mem_cpy (void* dst, const void* src, UINT cnt) {
	BYTE *d = (BYTE*)dst;
	const BYTE *s = (const BYTE*)src;
    48d6:	9c 01       	movw	r18, r24
    48d8:	25 5f       	subi	r18, 0xF5	; 245
    48da:	3f 4f       	sbci	r19, 0xFF	; 255
    48dc:	dc 01       	movw	r26, r24
    48de:	fe 01       	movw	r30, r28
    48e0:	3d 96       	adiw	r30, 0x0d	; 13

FRESULT f_rename (
	const TCHAR *path_old,	/* Pointer to the old name */
	const TCHAR *path_new	/* Pointer to the new name */
)
{
    48e2:	51 e2       	ldi	r21, 0x21	; 33
    48e4:	e5 2e       	mov	r14, r21
    48e6:	f1 2c       	mov	r15, r1
    48e8:	ec 0e       	add	r14, r28
    48ea:	fd 1e       	adc	r15, r29
	BYTE *d = (BYTE*)dst;
	const BYTE *s = (const BYTE*)src;

#if _WORD_ACCESS == 1
	while (cnt >= sizeof(int)) {
		*(int*)d = *(int*)s;
    48ec:	1b 96       	adiw	r26, 0x0b	; 11
    48ee:	8d 91       	ld	r24, X+
    48f0:	9c 91       	ld	r25, X
    48f2:	1c 97       	sbiw	r26, 0x0c	; 12
    48f4:	81 93       	st	Z+, r24
    48f6:	91 93       	st	Z+, r25
		d += sizeof(int); s += sizeof(int);
    48f8:	12 96       	adiw	r26, 0x02	; 2
void mem_cpy (void* dst, const void* src, UINT cnt) {
	BYTE *d = (BYTE*)dst;
	const BYTE *s = (const BYTE*)src;

#if _WORD_ACCESS == 1
	while (cnt >= sizeof(int)) {
    48fa:	ee 15       	cp	r30, r14
    48fc:	ff 05       	cpc	r31, r15
    48fe:	b1 f7       	brne	.-20     	; 0x48ec <f_rename+0xa0>
		d += sizeof(int); s += sizeof(int);
		cnt -= sizeof(int);
	}
#endif
	while (cnt--)
		*d++ = *s++;
    4900:	d9 01       	movw	r26, r18
    4902:	54 96       	adiw	r26, 0x14	; 20
    4904:	8c 91       	ld	r24, X
    4906:	89 a3       	std	Y+33, r24	; 0x21
    4908:	20 e0       	ldi	r18, 0x00	; 0
    490a:	30 e0       	ldi	r19, 0x00	; 0
	BYTE *d = (BYTE*)dst;
	const BYTE *s = (const BYTE*)src;

#if _WORD_ACCESS == 1
	while (cnt >= sizeof(int)) {
		*(int*)d = *(int*)s;
    490c:	8e 01       	movw	r16, r28
    490e:	08 5c       	subi	r16, 0xC8	; 200
    4910:	1f 4f       	sbci	r17, 0xFF	; 255
    4912:	ae 01       	movw	r20, r28
    4914:	4e 5d       	subi	r20, 0xDE	; 222
    4916:	5f 4f       	sbci	r21, 0xFF	; 255
    4918:	f8 01       	movw	r30, r16
    491a:	e2 0f       	add	r30, r18
    491c:	f3 1f       	adc	r31, r19
    491e:	da 01       	movw	r26, r20
    4920:	a2 0f       	add	r26, r18
    4922:	b3 1f       	adc	r27, r19
    4924:	8d 91       	ld	r24, X+
    4926:	9c 91       	ld	r25, X
    4928:	91 83       	std	Z+1, r25	; 0x01
    492a:	80 83       	st	Z, r24
    492c:	2e 5f       	subi	r18, 0xFE	; 254
    492e:	3f 4f       	sbci	r19, 0xFF	; 255
void mem_cpy (void* dst, const void* src, UINT cnt) {
	BYTE *d = (BYTE*)dst;
	const BYTE *s = (const BYTE*)src;

#if _WORD_ACCESS == 1
	while (cnt >= sizeof(int)) {
    4930:	26 31       	cpi	r18, 0x16	; 22
    4932:	31 05       	cpc	r19, r1
    4934:	89 f7       	brne	.-30     	; 0x4918 <f_rename+0xcc>
			if (!djo.dir) {						/* Is root dir? */
				res = FR_NO_FILE;
			} else {
				mem_cpy(buf, djo.dir+DIR_Attr, 21);		/* Save the object information except for name */
				mem_cpy(&djn, &djo, sizeof(DIR));		/* Check new object */
				res = follow_path(&djn, path_new);
    4936:	c8 01       	movw	r24, r16
    4938:	b6 01       	movw	r22, r12
    493a:	0e 94 7e 14 	call	0x28fc	; 0x28fc <follow_path>
				if (res == FR_OK) res = FR_EXIST;		/* The new object name is already existing */
    493e:	88 23       	and	r24, r24
    4940:	11 f4       	brne	.+4      	; 0x4946 <f_rename+0xfa>
    4942:	88 e0       	ldi	r24, 0x08	; 8
    4944:	cb c0       	rjmp	.+406    	; 0x4adc <f_rename+0x290>
				if (res == FR_NO_FILE) { 				/* Is it a valid path and no name collision? */
    4946:	84 30       	cpi	r24, 0x04	; 4
    4948:	09 f0       	breq	.+2      	; 0x494c <f_rename+0x100>
    494a:	c8 c0       	rjmp	.+400    	; 0x4adc <f_rename+0x290>
/* Start critical section that any interruption or error can cause cross-link */
					res = dir_register(&djn);			/* Register the new entry */
    494c:	c8 01       	movw	r24, r16
    494e:	0e 94 dd 16 	call	0x2dba	; 0x2dba <dir_register>
					if (res == FR_OK) {
    4952:	88 23       	and	r24, r24
    4954:	09 f0       	breq	.+2      	; 0x4958 <f_rename+0x10c>
    4956:	c2 c0       	rjmp	.+388    	; 0x4adc <f_rename+0x290>
						dir = djn.dir;					/* Copy object information except for name */
    4958:	fe 01       	movw	r30, r28
    495a:	e6 5b       	subi	r30, 0xB6	; 182
    495c:	ff 4f       	sbci	r31, 0xFF	; 255
    495e:	60 81       	ld	r22, Z
    4960:	71 81       	ldd	r23, Z+1	; 0x01
/*-----------------------------------------------------------------------*/

/* Copy memory to memory */
static
void mem_cpy (void* dst, const void* src, UINT cnt) {
	BYTE *d = (BYTE*)dst;
    4962:	9b 01       	movw	r18, r22
    4964:	23 5f       	subi	r18, 0xF3	; 243
    4966:	3f 4f       	sbci	r19, 0xFF	; 255
    4968:	db 01       	movw	r26, r22
    496a:	fe 01       	movw	r30, r28
    496c:	3f 96       	adiw	r30, 0x0f	; 15
	const BYTE *s = (const BYTE*)src;

#if _WORD_ACCESS == 1
	while (cnt >= sizeof(int)) {
		*(int*)d = *(int*)s;
    496e:	81 91       	ld	r24, Z+
    4970:	91 91       	ld	r25, Z+
    4972:	1e 96       	adiw	r26, 0x0e	; 14
    4974:	9c 93       	st	X, r25
    4976:	8e 93       	st	-X, r24
    4978:	1d 97       	sbiw	r26, 0x0d	; 13
		d += sizeof(int); s += sizeof(int);
    497a:	12 96       	adiw	r26, 0x02	; 2
void mem_cpy (void* dst, const void* src, UINT cnt) {
	BYTE *d = (BYTE*)dst;
	const BYTE *s = (const BYTE*)src;

#if _WORD_ACCESS == 1
	while (cnt >= sizeof(int)) {
    497c:	ee 15       	cp	r30, r14
    497e:	ff 05       	cpc	r31, r15
    4980:	b1 f7       	brne	.-20     	; 0x496e <f_rename+0x122>
		d += sizeof(int); s += sizeof(int);
		cnt -= sizeof(int);
	}
#endif
	while (cnt--)
		*d++ = *s++;
    4982:	89 a1       	ldd	r24, Y+33	; 0x21
    4984:	f9 01       	movw	r30, r18
    4986:	82 8b       	std	Z+18, r24	; 0x12
/* Start critical section that any interruption or error can cause cross-link */
					res = dir_register(&djn);			/* Register the new entry */
					if (res == FR_OK) {
						dir = djn.dir;					/* Copy object information except for name */
						mem_cpy(dir+13, buf+2, 19);
						dir[DIR_Attr] = buf[0] | AM_ARC;
    4988:	8d 85       	ldd	r24, Y+13	; 0x0d
    498a:	80 62       	ori	r24, 0x20	; 32
    498c:	db 01       	movw	r26, r22
    498e:	1b 96       	adiw	r26, 0x0b	; 11
    4990:	8c 93       	st	X, r24
						djo.fs->wflag = 1;
    4992:	ea a1       	ldd	r30, Y+34	; 0x22
    4994:	fb a1       	ldd	r31, Y+35	; 0x23
    4996:	81 e0       	ldi	r24, 0x01	; 1
    4998:	84 83       	std	Z+4, r24	; 0x04
						if (djo.sclust != djn.sclust && (dir[DIR_Attr] & AM_DIR)) {		/* Update .. entry in the directory if needed */
    499a:	4e e3       	ldi	r20, 0x3E	; 62
    499c:	a4 2e       	mov	r10, r20
    499e:	b1 2c       	mov	r11, r1
    49a0:	ac 0e       	add	r10, r28
    49a2:	bd 1e       	adc	r11, r29
    49a4:	28 a5       	ldd	r18, Y+40	; 0x28
    49a6:	39 a5       	ldd	r19, Y+41	; 0x29
    49a8:	4a a5       	ldd	r20, Y+42	; 0x2a
    49aa:	5b a5       	ldd	r21, Y+43	; 0x2b
    49ac:	f5 01       	movw	r30, r10
    49ae:	80 81       	ld	r24, Z
    49b0:	91 81       	ldd	r25, Z+1	; 0x01
    49b2:	a2 81       	ldd	r26, Z+2	; 0x02
    49b4:	b3 81       	ldd	r27, Z+3	; 0x03
    49b6:	28 17       	cp	r18, r24
    49b8:	39 07       	cpc	r19, r25
    49ba:	4a 07       	cpc	r20, r26
    49bc:	5b 07       	cpc	r21, r27
    49be:	09 f4       	brne	.+2      	; 0x49c2 <f_rename+0x176>
    49c0:	81 c0       	rjmp	.+258    	; 0x4ac4 <f_rename+0x278>
    49c2:	db 01       	movw	r26, r22
    49c4:	1b 96       	adiw	r26, 0x0b	; 11
    49c6:	8c 91       	ld	r24, X
    49c8:	1b 97       	sbiw	r26, 0x0b	; 11
    49ca:	84 ff       	sbrs	r24, 4
    49cc:	7b c0       	rjmp	.+246    	; 0x4ac4 <f_rename+0x278>
							dw = clust2sect(djn.fs, LD_CLUST(dir));
    49ce:	c8 ac       	ldd	r12, Y+56	; 0x38
    49d0:	d9 ac       	ldd	r13, Y+57	; 0x39
DWORD clust2sect (	/* !=0: Sector number, 0: Failed - invalid cluster# */
	FATFS *fs,		/* File system object */
	DWORD clst		/* Cluster# to be converted */
)
{
	clst -= 2;
    49d2:	54 96       	adiw	r26, 0x14	; 20
    49d4:	8d 91       	ld	r24, X+
    49d6:	9c 91       	ld	r25, X
    49d8:	55 97       	sbiw	r26, 0x15	; 21
    49da:	a0 e0       	ldi	r26, 0x00	; 0
    49dc:	b0 e0       	ldi	r27, 0x00	; 0
    49de:	8c 01       	movw	r16, r24
    49e0:	ff 24       	eor	r15, r15
    49e2:	ee 24       	eor	r14, r14
    49e4:	fb 01       	movw	r30, r22
    49e6:	82 8d       	ldd	r24, Z+26	; 0x1a
    49e8:	93 8d       	ldd	r25, Z+27	; 0x1b
    49ea:	a0 e0       	ldi	r26, 0x00	; 0
    49ec:	b0 e0       	ldi	r27, 0x00	; 0
    49ee:	e8 2a       	or	r14, r24
    49f0:	f9 2a       	or	r15, r25
    49f2:	0a 2b       	or	r16, r26
    49f4:	1b 2b       	or	r17, r27
    49f6:	8e ef       	ldi	r24, 0xFE	; 254
    49f8:	9f ef       	ldi	r25, 0xFF	; 255
    49fa:	af ef       	ldi	r26, 0xFF	; 255
    49fc:	bf ef       	ldi	r27, 0xFF	; 255
    49fe:	e8 0e       	add	r14, r24
    4a00:	f9 1e       	adc	r15, r25
    4a02:	0a 1f       	adc	r16, r26
    4a04:	1b 1f       	adc	r17, r27
	if (clst >= (fs->n_fatent - 2)) return 0;		/* Invalid cluster# */
    4a06:	f6 01       	movw	r30, r12
    4a08:	82 8d       	ldd	r24, Z+26	; 0x1a
    4a0a:	93 8d       	ldd	r25, Z+27	; 0x1b
    4a0c:	a4 8d       	ldd	r26, Z+28	; 0x1c
    4a0e:	b5 8d       	ldd	r27, Z+29	; 0x1d
    4a10:	02 97       	sbiw	r24, 0x02	; 2
    4a12:	a1 09       	sbc	r26, r1
    4a14:	b1 09       	sbc	r27, r1
    4a16:	e8 16       	cp	r14, r24
    4a18:	f9 06       	cpc	r15, r25
    4a1a:	0a 07       	cpc	r16, r26
    4a1c:	1b 07       	cpc	r17, r27
    4a1e:	08 f0       	brcs	.+2      	; 0x4a22 <f_rename+0x1d6>
    4a20:	5c c0       	rjmp	.+184    	; 0x4ada <f_rename+0x28e>
	return clst * fs->csize + fs->database;
    4a22:	22 81       	ldd	r18, Z+2	; 0x02
    4a24:	30 e0       	ldi	r19, 0x00	; 0
    4a26:	40 e0       	ldi	r20, 0x00	; 0
    4a28:	50 e0       	ldi	r21, 0x00	; 0
    4a2a:	c8 01       	movw	r24, r16
    4a2c:	b7 01       	movw	r22, r14
    4a2e:	0e 94 de 2d 	call	0x5bbc	; 0x5bbc <__mulsi3>
    4a32:	ab 01       	movw	r20, r22
    4a34:	bc 01       	movw	r22, r24
    4a36:	f6 01       	movw	r30, r12
    4a38:	82 a5       	ldd	r24, Z+42	; 0x2a
    4a3a:	93 a5       	ldd	r25, Z+43	; 0x2b
    4a3c:	a4 a5       	ldd	r26, Z+44	; 0x2c
    4a3e:	b5 a5       	ldd	r27, Z+45	; 0x2d
    4a40:	48 0f       	add	r20, r24
    4a42:	59 1f       	adc	r21, r25
    4a44:	6a 1f       	adc	r22, r26
    4a46:	7b 1f       	adc	r23, r27
						mem_cpy(dir+13, buf+2, 19);
						dir[DIR_Attr] = buf[0] | AM_ARC;
						djo.fs->wflag = 1;
						if (djo.sclust != djn.sclust && (dir[DIR_Attr] & AM_DIR)) {		/* Update .. entry in the directory if needed */
							dw = clust2sect(djn.fs, LD_CLUST(dir));
							if (!dw) {
    4a48:	41 15       	cp	r20, r1
    4a4a:	51 05       	cpc	r21, r1
    4a4c:	61 05       	cpc	r22, r1
    4a4e:	71 05       	cpc	r23, r1
    4a50:	09 f4       	brne	.+2      	; 0x4a54 <f_rename+0x208>
    4a52:	43 c0       	rjmp	.+134    	; 0x4ada <f_rename+0x28e>
								res = FR_INT_ERR;
							} else {
								res = move_window(djn.fs, dw);
    4a54:	c6 01       	movw	r24, r12
    4a56:	0e 94 b9 0d 	call	0x1b72	; 0x1b72 <move_window>
								dir = djn.fs->win+32;	/* .. entry */
    4a5a:	08 ad       	ldd	r16, Y+56	; 0x38
    4a5c:	19 ad       	ldd	r17, Y+57	; 0x39
								if (res == FR_OK && dir[1] == '.') {
    4a5e:	88 23       	and	r24, r24
    4a60:	e9 f5       	brne	.+122    	; 0x4adc <f_rename+0x290>
							dw = clust2sect(djn.fs, LD_CLUST(dir));
							if (!dw) {
								res = FR_INT_ERR;
							} else {
								res = move_window(djn.fs, dw);
								dir = djn.fs->win+32;	/* .. entry */
    4a62:	b8 01       	movw	r22, r16
    4a64:	6e 5a       	subi	r22, 0xAE	; 174
    4a66:	7f 4f       	sbci	r23, 0xFF	; 255
								if (res == FR_OK && dir[1] == '.') {
    4a68:	db 01       	movw	r26, r22
    4a6a:	11 96       	adiw	r26, 0x01	; 1
    4a6c:	8c 91       	ld	r24, X
    4a6e:	8e 32       	cpi	r24, 0x2E	; 46
    4a70:	49 f5       	brne	.+82     	; 0x4ac4 <f_rename+0x278>
									dw = (djn.fs->fs_type == FS_FAT32 && djn.sclust == djn.fs->dirbase) ? 0 : djn.sclust;
    4a72:	f8 01       	movw	r30, r16
    4a74:	80 81       	ld	r24, Z
    4a76:	83 30       	cpi	r24, 0x03	; 3
    4a78:	99 f4       	brne	.+38     	; 0x4aa0 <f_rename+0x254>
    4a7a:	d5 01       	movw	r26, r10
    4a7c:	2d 91       	ld	r18, X+
    4a7e:	3d 91       	ld	r19, X+
    4a80:	4d 91       	ld	r20, X+
    4a82:	5c 91       	ld	r21, X
    4a84:	86 a1       	ldd	r24, Z+38	; 0x26
    4a86:	97 a1       	ldd	r25, Z+39	; 0x27
    4a88:	a0 a5       	ldd	r26, Z+40	; 0x28
    4a8a:	b1 a5       	ldd	r27, Z+41	; 0x29
    4a8c:	28 17       	cp	r18, r24
    4a8e:	39 07       	cpc	r19, r25
    4a90:	4a 07       	cpc	r20, r26
    4a92:	5b 07       	cpc	r21, r27
    4a94:	29 f4       	brne	.+10     	; 0x4aa0 <f_rename+0x254>
    4a96:	80 e0       	ldi	r24, 0x00	; 0
    4a98:	90 e0       	ldi	r25, 0x00	; 0
    4a9a:	a0 e0       	ldi	r26, 0x00	; 0
    4a9c:	b0 e0       	ldi	r27, 0x00	; 0
    4a9e:	06 c0       	rjmp	.+12     	; 0x4aac <f_rename+0x260>
    4aa0:	fe 01       	movw	r30, r28
    4aa2:	fe 96       	adiw	r30, 0x3e	; 62
    4aa4:	80 81       	ld	r24, Z
    4aa6:	91 81       	ldd	r25, Z+1	; 0x01
    4aa8:	a2 81       	ldd	r26, Z+2	; 0x02
    4aaa:	b3 81       	ldd	r27, Z+3	; 0x03
									ST_CLUST(dir, dw);
    4aac:	fb 01       	movw	r30, r22
    4aae:	93 8f       	std	Z+27, r25	; 0x1b
    4ab0:	82 8f       	std	Z+26, r24	; 0x1a
    4ab2:	cd 01       	movw	r24, r26
    4ab4:	aa 27       	eor	r26, r26
    4ab6:	bb 27       	eor	r27, r27
    4ab8:	95 8b       	std	Z+21, r25	; 0x15
    4aba:	84 8b       	std	Z+20, r24	; 0x14
									djn.fs->wflag = 1;
    4abc:	81 e0       	ldi	r24, 0x01	; 1
    4abe:	d8 01       	movw	r26, r16
    4ac0:	14 96       	adiw	r26, 0x04	; 4
    4ac2:	8c 93       	st	X, r24
								}
							}
						}
						if (res == FR_OK) {
							res = dir_remove(&djo);		/* Remove old entry */
    4ac4:	ce 01       	movw	r24, r28
    4ac6:	82 96       	adiw	r24, 0x22	; 34
    4ac8:	0e 94 e0 12 	call	0x25c0	; 0x25c0 <dir_remove>
							if (res == FR_OK)
    4acc:	88 23       	and	r24, r24
    4ace:	31 f4       	brne	.+12     	; 0x4adc <f_rename+0x290>
								res = sync(djo.fs);
    4ad0:	8a a1       	ldd	r24, Y+34	; 0x22
    4ad2:	9b a1       	ldd	r25, Y+35	; 0x23
    4ad4:	0e 94 b7 23 	call	0x476e	; 0x476e <sync>
    4ad8:	01 c0       	rjmp	.+2      	; 0x4adc <f_rename+0x290>
    4ada:	82 e0       	ldi	r24, 0x02	; 2
			}
		}
		FREE_BUF();
	}
	LEAVE_FF(djo.fs, res);
}
    4adc:	c1 5b       	subi	r28, 0xB1	; 177
    4ade:	df 4f       	sbci	r29, 0xFF	; 255
    4ae0:	0f b6       	in	r0, 0x3f	; 63
    4ae2:	f8 94       	cli
    4ae4:	de bf       	out	0x3e, r29	; 62
    4ae6:	0f be       	out	0x3f, r0	; 63
    4ae8:	cd bf       	out	0x3d, r28	; 61
    4aea:	cf 91       	pop	r28
    4aec:	df 91       	pop	r29
    4aee:	1f 91       	pop	r17
    4af0:	0f 91       	pop	r16
    4af2:	ff 90       	pop	r15
    4af4:	ef 90       	pop	r14
    4af6:	df 90       	pop	r13
    4af8:	cf 90       	pop	r12
    4afa:	bf 90       	pop	r11
    4afc:	af 90       	pop	r10
    4afe:	08 95       	ret

00004b00 <f_utime>:

FRESULT f_utime (
	const TCHAR *path,	/* Pointer to the file/directory name */
	const FILINFO *fno	/* Pointer to the time stamp to be set */
)
{
    4b00:	ef 92       	push	r14
    4b02:	ff 92       	push	r15
    4b04:	0f 93       	push	r16
    4b06:	1f 93       	push	r17
    4b08:	df 93       	push	r29
    4b0a:	cf 93       	push	r28
    4b0c:	cd b7       	in	r28, 0x3d	; 61
    4b0e:	de b7       	in	r29, 0x3e	; 62
    4b10:	a4 97       	sbiw	r28, 0x24	; 36
    4b12:	0f b6       	in	r0, 0x3f	; 63
    4b14:	f8 94       	cli
    4b16:	de bf       	out	0x3e, r29	; 62
    4b18:	0f be       	out	0x3f, r0	; 63
    4b1a:	cd bf       	out	0x3d, r28	; 61
    4b1c:	9c a3       	std	Y+36, r25	; 0x24
    4b1e:	8b a3       	std	Y+35, r24	; 0x23
    4b20:	7b 01       	movw	r14, r22
	DIR dj;
	BYTE *dir;
	DEF_NAMEBUF;


	res = chk_mounted(&path, &dj.fs, 1);
    4b22:	8e 01       	movw	r16, r28
    4b24:	03 5f       	subi	r16, 0xF3	; 243
    4b26:	1f 4f       	sbci	r17, 0xFF	; 255
    4b28:	ce 01       	movw	r24, r28
    4b2a:	83 96       	adiw	r24, 0x23	; 35
    4b2c:	b8 01       	movw	r22, r16
    4b2e:	41 e0       	ldi	r20, 0x01	; 1
    4b30:	0e 94 9a 0a 	call	0x1534	; 0x1534 <chk_mounted>
	if (res == FR_OK) {
    4b34:	88 23       	and	r24, r24
    4b36:	51 f5       	brne	.+84     	; 0x4b8c <f_utime+0x8c>
		INIT_BUF(dj);
    4b38:	ce 01       	movw	r24, r28
    4b3a:	01 96       	adiw	r24, 0x01	; 1
    4b3c:	9a a3       	std	Y+34, r25	; 0x22
    4b3e:	89 a3       	std	Y+33, r24	; 0x21
		res = follow_path(&dj, path);	/* Follow the file path */
    4b40:	6b a1       	ldd	r22, Y+35	; 0x23
    4b42:	7c a1       	ldd	r23, Y+36	; 0x24
    4b44:	c8 01       	movw	r24, r16
    4b46:	0e 94 7e 14 	call	0x28fc	; 0x28fc <follow_path>
		FREE_BUF();
		if (_FS_RPATH && res == FR_OK && (dj.fn[NS] & NS_DOT))
    4b4a:	88 23       	and	r24, r24
    4b4c:	f9 f4       	brne	.+62     	; 0x4b8c <f_utime+0x8c>
    4b4e:	e9 a1       	ldd	r30, Y+33	; 0x21
    4b50:	fa a1       	ldd	r31, Y+34	; 0x22
    4b52:	83 85       	ldd	r24, Z+11	; 0x0b
    4b54:	85 fd       	sbrc	r24, 5
    4b56:	19 c0       	rjmp	.+50     	; 0x4b8a <f_utime+0x8a>
			res = FR_INVALID_NAME;
		if (res == FR_OK) {
			dir = dj.dir;
    4b58:	ef 8d       	ldd	r30, Y+31	; 0x1f
    4b5a:	f8 a1       	ldd	r31, Y+32	; 0x20
			if (!dir) {					/* Root directory */
    4b5c:	30 97       	sbiw	r30, 0x00	; 0
    4b5e:	a9 f0       	breq	.+42     	; 0x4b8a <f_utime+0x8a>
				res = FR_INVALID_NAME;
			} else {					/* File or sub-directory */
				ST_WORD(dir+DIR_WrtTime, fno->ftime);
    4b60:	d7 01       	movw	r26, r14
    4b62:	16 96       	adiw	r26, 0x06	; 6
    4b64:	8d 91       	ld	r24, X+
    4b66:	9c 91       	ld	r25, X
    4b68:	17 97       	sbiw	r26, 0x07	; 7
    4b6a:	97 8b       	std	Z+23, r25	; 0x17
    4b6c:	86 8b       	std	Z+22, r24	; 0x16
				ST_WORD(dir+DIR_WrtDate, fno->fdate);
    4b6e:	14 96       	adiw	r26, 0x04	; 4
    4b70:	8d 91       	ld	r24, X+
    4b72:	9c 91       	ld	r25, X
    4b74:	15 97       	sbiw	r26, 0x05	; 5
    4b76:	91 8f       	std	Z+25, r25	; 0x19
    4b78:	80 8f       	std	Z+24, r24	; 0x18
				dj.fs->wflag = 1;
    4b7a:	ed 85       	ldd	r30, Y+13	; 0x0d
    4b7c:	fe 85       	ldd	r31, Y+14	; 0x0e
    4b7e:	81 e0       	ldi	r24, 0x01	; 1
    4b80:	84 83       	std	Z+4, r24	; 0x04
				res = sync(dj.fs);
    4b82:	cf 01       	movw	r24, r30
    4b84:	0e 94 b7 23 	call	0x476e	; 0x476e <sync>
    4b88:	01 c0       	rjmp	.+2      	; 0x4b8c <f_utime+0x8c>
    4b8a:	86 e0       	ldi	r24, 0x06	; 6
			}
		}
	}

	LEAVE_FF(dj.fs, res);
}
    4b8c:	a4 96       	adiw	r28, 0x24	; 36
    4b8e:	0f b6       	in	r0, 0x3f	; 63
    4b90:	f8 94       	cli
    4b92:	de bf       	out	0x3e, r29	; 62
    4b94:	0f be       	out	0x3f, r0	; 63
    4b96:	cd bf       	out	0x3d, r28	; 61
    4b98:	cf 91       	pop	r28
    4b9a:	df 91       	pop	r29
    4b9c:	1f 91       	pop	r17
    4b9e:	0f 91       	pop	r16
    4ba0:	ff 90       	pop	r15
    4ba2:	ef 90       	pop	r14
    4ba4:	08 95       	ret

00004ba6 <f_chmod>:
FRESULT f_chmod (
	const TCHAR *path,	/* Pointer to the file path */
	BYTE value,			/* Attribute bits */
	BYTE mask			/* Attribute mask to change */
)
{
    4ba6:	ef 92       	push	r14
    4ba8:	ff 92       	push	r15
    4baa:	0f 93       	push	r16
    4bac:	1f 93       	push	r17
    4bae:	df 93       	push	r29
    4bb0:	cf 93       	push	r28
    4bb2:	cd b7       	in	r28, 0x3d	; 61
    4bb4:	de b7       	in	r29, 0x3e	; 62
    4bb6:	a4 97       	sbiw	r28, 0x24	; 36
    4bb8:	0f b6       	in	r0, 0x3f	; 63
    4bba:	f8 94       	cli
    4bbc:	de bf       	out	0x3e, r29	; 62
    4bbe:	0f be       	out	0x3f, r0	; 63
    4bc0:	cd bf       	out	0x3d, r28	; 61
    4bc2:	9c a3       	std	Y+36, r25	; 0x24
    4bc4:	8b a3       	std	Y+35, r24	; 0x23
    4bc6:	e6 2e       	mov	r14, r22
    4bc8:	f4 2e       	mov	r15, r20
	DIR dj;
	BYTE *dir;
	DEF_NAMEBUF;


	res = chk_mounted(&path, &dj.fs, 1);
    4bca:	8e 01       	movw	r16, r28
    4bcc:	03 5f       	subi	r16, 0xF3	; 243
    4bce:	1f 4f       	sbci	r17, 0xFF	; 255
    4bd0:	ce 01       	movw	r24, r28
    4bd2:	83 96       	adiw	r24, 0x23	; 35
    4bd4:	b8 01       	movw	r22, r16
    4bd6:	41 e0       	ldi	r20, 0x01	; 1
    4bd8:	0e 94 9a 0a 	call	0x1534	; 0x1534 <chk_mounted>
	if (res == FR_OK) {
    4bdc:	88 23       	and	r24, r24
    4bde:	31 f5       	brne	.+76     	; 0x4c2c <f_chmod+0x86>
		INIT_BUF(dj);
    4be0:	ce 01       	movw	r24, r28
    4be2:	01 96       	adiw	r24, 0x01	; 1
    4be4:	9a a3       	std	Y+34, r25	; 0x22
    4be6:	89 a3       	std	Y+33, r24	; 0x21
		res = follow_path(&dj, path);		/* Follow the file path */
    4be8:	6b a1       	ldd	r22, Y+35	; 0x23
    4bea:	7c a1       	ldd	r23, Y+36	; 0x24
    4bec:	c8 01       	movw	r24, r16
    4bee:	0e 94 7e 14 	call	0x28fc	; 0x28fc <follow_path>
		FREE_BUF();
		if (_FS_RPATH && res == FR_OK && (dj.fn[NS] & NS_DOT))
    4bf2:	88 23       	and	r24, r24
    4bf4:	d9 f4       	brne	.+54     	; 0x4c2c <f_chmod+0x86>
    4bf6:	e9 a1       	ldd	r30, Y+33	; 0x21
    4bf8:	fa a1       	ldd	r31, Y+34	; 0x22
    4bfa:	83 85       	ldd	r24, Z+11	; 0x0b
    4bfc:	85 fd       	sbrc	r24, 5
    4bfe:	15 c0       	rjmp	.+42     	; 0x4c2a <f_chmod+0x84>
			res = FR_INVALID_NAME;
		if (res == FR_OK) {
			dir = dj.dir;
    4c00:	ef 8d       	ldd	r30, Y+31	; 0x1f
    4c02:	f8 a1       	ldd	r31, Y+32	; 0x20
			if (!dir) {						/* Is it a root directory? */
    4c04:	30 97       	sbiw	r30, 0x00	; 0
    4c06:	89 f0       	breq	.+34     	; 0x4c2a <f_chmod+0x84>
				res = FR_INVALID_NAME;
			} else {						/* File or sub directory */
				mask &= AM_RDO|AM_HID|AM_SYS|AM_ARC;	/* Valid attribute mask */
    4c08:	9f 2d       	mov	r25, r15
    4c0a:	97 72       	andi	r25, 0x27	; 39
				dir[DIR_Attr] = (value & mask) | (dir[DIR_Attr] & (BYTE)~mask);	/* Apply attribute change */
    4c0c:	89 2f       	mov	r24, r25
    4c0e:	80 95       	com	r24
    4c10:	23 85       	ldd	r18, Z+11	; 0x0b
    4c12:	82 23       	and	r24, r18
    4c14:	9e 21       	and	r25, r14
    4c16:	89 2b       	or	r24, r25
    4c18:	83 87       	std	Z+11, r24	; 0x0b
				dj.fs->wflag = 1;
    4c1a:	ed 85       	ldd	r30, Y+13	; 0x0d
    4c1c:	fe 85       	ldd	r31, Y+14	; 0x0e
    4c1e:	81 e0       	ldi	r24, 0x01	; 1
    4c20:	84 83       	std	Z+4, r24	; 0x04
				res = sync(dj.fs);
    4c22:	cf 01       	movw	r24, r30
    4c24:	0e 94 b7 23 	call	0x476e	; 0x476e <sync>
    4c28:	01 c0       	rjmp	.+2      	; 0x4c2c <f_chmod+0x86>
    4c2a:	86 e0       	ldi	r24, 0x06	; 6
			}
		}
	}

	LEAVE_FF(dj.fs, res);
}
    4c2c:	a4 96       	adiw	r28, 0x24	; 36
    4c2e:	0f b6       	in	r0, 0x3f	; 63
    4c30:	f8 94       	cli
    4c32:	de bf       	out	0x3e, r29	; 62
    4c34:	0f be       	out	0x3f, r0	; 63
    4c36:	cd bf       	out	0x3d, r28	; 61
    4c38:	cf 91       	pop	r28
    4c3a:	df 91       	pop	r29
    4c3c:	1f 91       	pop	r17
    4c3e:	0f 91       	pop	r16
    4c40:	ff 90       	pop	r15
    4c42:	ef 90       	pop	r14
    4c44:	08 95       	ret

00004c46 <f_mkdir>:
/*-----------------------------------------------------------------------*/

FRESULT f_mkdir (
	const TCHAR *path		/* Pointer to the directory path */
)
{
    4c46:	2f 92       	push	r2
    4c48:	3f 92       	push	r3
    4c4a:	4f 92       	push	r4
    4c4c:	5f 92       	push	r5
    4c4e:	6f 92       	push	r6
    4c50:	7f 92       	push	r7
    4c52:	8f 92       	push	r8
    4c54:	9f 92       	push	r9
    4c56:	af 92       	push	r10
    4c58:	bf 92       	push	r11
    4c5a:	cf 92       	push	r12
    4c5c:	df 92       	push	r13
    4c5e:	ef 92       	push	r14
    4c60:	ff 92       	push	r15
    4c62:	0f 93       	push	r16
    4c64:	1f 93       	push	r17
    4c66:	df 93       	push	r29
    4c68:	cf 93       	push	r28
    4c6a:	cd b7       	in	r28, 0x3d	; 61
    4c6c:	de b7       	in	r29, 0x3e	; 62
    4c6e:	a6 97       	sbiw	r28, 0x26	; 38
    4c70:	0f b6       	in	r0, 0x3f	; 63
    4c72:	f8 94       	cli
    4c74:	de bf       	out	0x3e, r29	; 62
    4c76:	0f be       	out	0x3f, r0	; 63
    4c78:	cd bf       	out	0x3d, r28	; 61
    4c7a:	9c a3       	std	Y+36, r25	; 0x24
    4c7c:	8b a3       	std	Y+35, r24	; 0x23
	BYTE *dir, n;
	DWORD dsc, dcl, pcl, tim = get_fattime();
	DEF_NAMEBUF;


	res = chk_mounted(&path, &dj.fs, 1);
    4c7e:	0d e0       	ldi	r16, 0x0D	; 13
    4c80:	e0 2e       	mov	r14, r16
    4c82:	f1 2c       	mov	r15, r1
    4c84:	ec 0e       	add	r14, r28
    4c86:	fd 1e       	adc	r15, r29
    4c88:	ce 01       	movw	r24, r28
    4c8a:	83 96       	adiw	r24, 0x23	; 35
    4c8c:	b7 01       	movw	r22, r14
    4c8e:	41 e0       	ldi	r20, 0x01	; 1
    4c90:	0e 94 9a 0a 	call	0x1534	; 0x1534 <chk_mounted>
    4c94:	18 2f       	mov	r17, r24
	if (res == FR_OK) {
    4c96:	88 23       	and	r24, r24
    4c98:	09 f0       	breq	.+2      	; 0x4c9c <f_mkdir+0x56>
    4c9a:	2a c1       	rjmp	.+596    	; 0x4ef0 <f_mkdir+0x2aa>
		INIT_BUF(dj);
    4c9c:	ce 01       	movw	r24, r28
    4c9e:	01 96       	adiw	r24, 0x01	; 1
    4ca0:	9a a3       	std	Y+34, r25	; 0x22
    4ca2:	89 a3       	std	Y+33, r24	; 0x21
		res = follow_path(&dj, path);			/* Follow the file path */
    4ca4:	6b a1       	ldd	r22, Y+35	; 0x23
    4ca6:	7c a1       	ldd	r23, Y+36	; 0x24
    4ca8:	c7 01       	movw	r24, r14
    4caa:	0e 94 7e 14 	call	0x28fc	; 0x28fc <follow_path>
    4cae:	18 2f       	mov	r17, r24
		if (res == FR_OK) res = FR_EXIST;		/* Any object with same name is already existing */
    4cb0:	88 23       	and	r24, r24
    4cb2:	51 f0       	breq	.+20     	; 0x4cc8 <f_mkdir+0x82>
		if (_FS_RPATH && res == FR_NO_FILE && (dj.fn[NS] & NS_DOT))
    4cb4:	84 30       	cpi	r24, 0x04	; 4
    4cb6:	09 f0       	breq	.+2      	; 0x4cba <f_mkdir+0x74>
    4cb8:	1b c1       	rjmp	.+566    	; 0x4ef0 <f_mkdir+0x2aa>
    4cba:	e9 a1       	ldd	r30, Y+33	; 0x21
    4cbc:	fa a1       	ldd	r31, Y+34	; 0x22
    4cbe:	83 85       	ldd	r24, Z+11	; 0x0b
    4cc0:	85 ff       	sbrs	r24, 5
    4cc2:	04 c0       	rjmp	.+8      	; 0x4ccc <f_mkdir+0x86>
    4cc4:	16 e0       	ldi	r17, 0x06	; 6
    4cc6:	14 c1       	rjmp	.+552    	; 0x4ef0 <f_mkdir+0x2aa>
    4cc8:	18 e0       	ldi	r17, 0x08	; 8
    4cca:	12 c1       	rjmp	.+548    	; 0x4ef0 <f_mkdir+0x2aa>
			res = FR_INVALID_NAME;
		if (res == FR_NO_FILE) {				/* Can create a new directory */
			dcl = create_chain(dj.fs, 0);		/* Allocate a cluster for the new directory table */
    4ccc:	8d 85       	ldd	r24, Y+13	; 0x0d
    4cce:	9e 85       	ldd	r25, Y+14	; 0x0e
    4cd0:	40 e0       	ldi	r20, 0x00	; 0
    4cd2:	50 e0       	ldi	r21, 0x00	; 0
    4cd4:	60 e0       	ldi	r22, 0x00	; 0
    4cd6:	70 e0       	ldi	r23, 0x00	; 0
    4cd8:	0e 94 f8 10 	call	0x21f0	; 0x21f0 <create_chain>
    4cdc:	4b 01       	movw	r8, r22
    4cde:	5c 01       	movw	r10, r24
			res = FR_OK;
			if (dcl == 0) res = FR_DENIED;		/* No space to allocate a new cluster */
    4ce0:	61 15       	cp	r22, r1
    4ce2:	71 05       	cpc	r23, r1
    4ce4:	81 05       	cpc	r24, r1
    4ce6:	91 05       	cpc	r25, r1
    4ce8:	11 f4       	brne	.+4      	; 0x4cee <f_mkdir+0xa8>
    4cea:	17 e0       	ldi	r17, 0x07	; 7
    4cec:	e0 c0       	rjmp	.+448    	; 0x4eae <f_mkdir+0x268>
			if (dcl == 1) res = FR_INT_ERR;
    4cee:	61 30       	cpi	r22, 0x01	; 1
    4cf0:	71 05       	cpc	r23, r1
    4cf2:	81 05       	cpc	r24, r1
    4cf4:	91 05       	cpc	r25, r1
    4cf6:	11 f4       	brne	.+4      	; 0x4cfc <f_mkdir+0xb6>
    4cf8:	12 e0       	ldi	r17, 0x02	; 2
    4cfa:	d9 c0       	rjmp	.+434    	; 0x4eae <f_mkdir+0x268>
			if (dcl == 0xFFFFFFFF) res = FR_DISK_ERR;
    4cfc:	6f 3f       	cpi	r22, 0xFF	; 255
    4cfe:	3f ef       	ldi	r19, 0xFF	; 255
    4d00:	73 07       	cpc	r23, r19
    4d02:	3f ef       	ldi	r19, 0xFF	; 255
    4d04:	83 07       	cpc	r24, r19
    4d06:	3f ef       	ldi	r19, 0xFF	; 255
    4d08:	93 07       	cpc	r25, r19
    4d0a:	09 f4       	brne	.+2      	; 0x4d0e <f_mkdir+0xc8>
    4d0c:	0b c1       	rjmp	.+534    	; 0x4f24 <f_mkdir+0x2de>
			if (res == FR_OK)					/* Flush FAT */
				res = move_window(dj.fs, 0);
    4d0e:	8d 85       	ldd	r24, Y+13	; 0x0d
    4d10:	9e 85       	ldd	r25, Y+14	; 0x0e
    4d12:	40 e0       	ldi	r20, 0x00	; 0
    4d14:	50 e0       	ldi	r21, 0x00	; 0
    4d16:	60 e0       	ldi	r22, 0x00	; 0
    4d18:	70 e0       	ldi	r23, 0x00	; 0
    4d1a:	0e 94 b9 0d 	call	0x1b72	; 0x1b72 <move_window>
    4d1e:	18 2f       	mov	r17, r24
			if (res == FR_OK) {					/* Initialize the new directory table */
    4d20:	88 23       	and	r24, r24
    4d22:	09 f0       	breq	.+2      	; 0x4d26 <f_mkdir+0xe0>
    4d24:	c4 c0       	rjmp	.+392    	; 0x4eae <f_mkdir+0x268>
				dsc = clust2sect(dj.fs, dcl);
    4d26:	cd 84       	ldd	r12, Y+13	; 0x0d
    4d28:	de 84       	ldd	r13, Y+14	; 0x0e
DWORD clust2sect (	/* !=0: Sector number, 0: Failed - invalid cluster# */
	FATFS *fs,		/* File system object */
	DWORD clst		/* Cluster# to be converted */
)
{
	clst -= 2;
    4d2a:	1e ef       	ldi	r17, 0xFE	; 254
    4d2c:	e1 2e       	mov	r14, r17
    4d2e:	1f ef       	ldi	r17, 0xFF	; 255
    4d30:	f1 2e       	mov	r15, r17
    4d32:	1f ef       	ldi	r17, 0xFF	; 255
    4d34:	01 2f       	mov	r16, r17
    4d36:	1f ef       	ldi	r17, 0xFF	; 255
    4d38:	11 2f       	mov	r17, r17
    4d3a:	e8 0c       	add	r14, r8
    4d3c:	f9 1c       	adc	r15, r9
    4d3e:	0a 1d       	adc	r16, r10
    4d40:	1b 1d       	adc	r17, r11
	if (clst >= (fs->n_fatent - 2)) return 0;		/* Invalid cluster# */
    4d42:	f6 01       	movw	r30, r12
    4d44:	82 8d       	ldd	r24, Z+26	; 0x1a
    4d46:	93 8d       	ldd	r25, Z+27	; 0x1b
    4d48:	a4 8d       	ldd	r26, Z+28	; 0x1c
    4d4a:	b5 8d       	ldd	r27, Z+29	; 0x1d
    4d4c:	02 97       	sbiw	r24, 0x02	; 2
    4d4e:	a1 09       	sbc	r26, r1
    4d50:	b1 09       	sbc	r27, r1
    4d52:	e8 16       	cp	r14, r24
    4d54:	f9 06       	cpc	r15, r25
    4d56:	0a 07       	cpc	r16, r26
    4d58:	1b 07       	cpc	r17, r27
    4d5a:	20 f0       	brcs	.+8      	; 0x4d64 <f_mkdir+0x11e>
    4d5c:	44 24       	eor	r4, r4
    4d5e:	55 24       	eor	r5, r5
    4d60:	32 01       	movw	r6, r4
    4d62:	15 c0       	rjmp	.+42     	; 0x4d8e <f_mkdir+0x148>
	return clst * fs->csize + fs->database;
    4d64:	d6 01       	movw	r26, r12
    4d66:	12 96       	adiw	r26, 0x02	; 2
    4d68:	2c 91       	ld	r18, X
    4d6a:	30 e0       	ldi	r19, 0x00	; 0
    4d6c:	40 e0       	ldi	r20, 0x00	; 0
    4d6e:	50 e0       	ldi	r21, 0x00	; 0
    4d70:	c8 01       	movw	r24, r16
    4d72:	b7 01       	movw	r22, r14
    4d74:	0e 94 de 2d 	call	0x5bbc	; 0x5bbc <__mulsi3>
    4d78:	2b 01       	movw	r4, r22
    4d7a:	3c 01       	movw	r6, r24
    4d7c:	f6 01       	movw	r30, r12
    4d7e:	82 a5       	ldd	r24, Z+42	; 0x2a
    4d80:	93 a5       	ldd	r25, Z+43	; 0x2b
    4d82:	a4 a5       	ldd	r26, Z+44	; 0x2c
    4d84:	b5 a5       	ldd	r27, Z+45	; 0x2d
    4d86:	48 0e       	add	r4, r24
    4d88:	59 1e       	adc	r5, r25
    4d8a:	6a 1e       	adc	r6, r26
    4d8c:	7b 1e       	adc	r7, r27
			if (dcl == 0xFFFFFFFF) res = FR_DISK_ERR;
			if (res == FR_OK)					/* Flush FAT */
				res = move_window(dj.fs, 0);
			if (res == FR_OK) {					/* Initialize the new directory table */
				dsc = clust2sect(dj.fs, dcl);
				dir = dj.fs->win;
    4d8e:	b2 e3       	ldi	r27, 0x32	; 50
    4d90:	eb 2e       	mov	r14, r27
    4d92:	f1 2c       	mov	r15, r1
    4d94:	ec 0c       	add	r14, r12
    4d96:	fd 1c       	adc	r15, r13
    4d98:	f7 01       	movw	r30, r14
    4d9a:	80 e0       	ldi	r24, 0x00	; 0
    4d9c:	92 e0       	ldi	r25, 0x02	; 2
    4d9e:	01 c0       	rjmp	.+2      	; 0x4da2 <f_mkdir+0x15c>
static
void mem_set (void* dst, int val, UINT cnt) {
	BYTE *d = (BYTE*)dst;

	while (cnt--)
		*d++ = (BYTE)val;
    4da0:	11 92       	st	Z+, r1
/* Fill memory */
static
void mem_set (void* dst, int val, UINT cnt) {
	BYTE *d = (BYTE*)dst;

	while (cnt--)
    4da2:	01 97       	sbiw	r24, 0x01	; 1
    4da4:	2f ef       	ldi	r18, 0xFF	; 255
    4da6:	8f 3f       	cpi	r24, 0xFF	; 255
    4da8:	92 07       	cpc	r25, r18
    4daa:	d1 f7       	brne	.-12     	; 0x4da0 <f_mkdir+0x15a>
    4dac:	f7 01       	movw	r30, r14
    4dae:	8b e0       	ldi	r24, 0x0B	; 11
    4db0:	90 e0       	ldi	r25, 0x00	; 0
		*d++ = (BYTE)val;
    4db2:	20 e2       	ldi	r18, 0x20	; 32
    4db4:	01 c0       	rjmp	.+2      	; 0x4db8 <f_mkdir+0x172>
    4db6:	21 93       	st	Z+, r18
/* Fill memory */
static
void mem_set (void* dst, int val, UINT cnt) {
	BYTE *d = (BYTE*)dst;

	while (cnt--)
    4db8:	01 97       	sbiw	r24, 0x01	; 1
    4dba:	3f ef       	ldi	r19, 0xFF	; 255
    4dbc:	8f 3f       	cpi	r24, 0xFF	; 255
    4dbe:	93 07       	cpc	r25, r19
    4dc0:	d1 f7       	brne	.-12     	; 0x4db6 <f_mkdir+0x170>
			if (res == FR_OK) {					/* Initialize the new directory table */
				dsc = clust2sect(dj.fs, dcl);
				dir = dj.fs->win;
				mem_set(dir, 0, SS(dj.fs));
				mem_set(dir+DIR_Name, ' ', 8+3);	/* Create "." entry */
				dir[DIR_Name] = '.';
    4dc2:	8e e2       	ldi	r24, 0x2E	; 46
    4dc4:	d6 01       	movw	r26, r12
    4dc6:	d2 96       	adiw	r26, 0x32	; 50
    4dc8:	8c 93       	st	X, r24
    4dca:	d2 97       	sbiw	r26, 0x32	; 50
				dir[DIR_Attr] = AM_DIR;
    4dcc:	80 e1       	ldi	r24, 0x10	; 16
    4dce:	dd 96       	adiw	r26, 0x3d	; 61
    4dd0:	8c 93       	st	X, r24
				ST_DWORD(dir+DIR_WrtTime, tim);
    4dd2:	83 e4       	ldi	r24, 0x43	; 67
    4dd4:	9b e0       	ldi	r25, 0x0B	; 11
    4dd6:	a7 e4       	ldi	r26, 0x47	; 71
    4dd8:	bd e3       	ldi	r27, 0x3D	; 61
    4dda:	f7 01       	movw	r30, r14
    4ddc:	86 8b       	std	Z+22, r24	; 0x16
    4dde:	97 8b       	std	Z+23, r25	; 0x17
    4de0:	a0 8f       	std	Z+24, r26	; 0x18
    4de2:	b1 8f       	std	Z+25, r27	; 0x19
				ST_CLUST(dir, dcl);
    4de4:	9e a2       	std	Y+38, r9	; 0x26
    4de6:	8d a2       	std	Y+37, r8	; 0x25
    4de8:	93 8e       	std	Z+27, r9	; 0x1b
    4dea:	82 8e       	std	Z+26, r8	; 0x1a
    4dec:	c5 01       	movw	r24, r10
    4dee:	aa 27       	eor	r26, r26
    4df0:	bb 27       	eor	r27, r27
    4df2:	1c 01       	movw	r2, r24
    4df4:	95 8b       	std	Z+21, r25	; 0x15
    4df6:	84 8b       	std	Z+20, r24	; 0x14
    4df8:	20 e2       	ldi	r18, 0x20	; 32
    4dfa:	30 e0       	ldi	r19, 0x00	; 0
	BYTE *d = (BYTE*)dst;
	const BYTE *s = (const BYTE*)src;

#if _WORD_ACCESS == 1
	while (cnt >= sizeof(int)) {
		*(int*)d = *(int*)s;
    4dfc:	80 81       	ld	r24, Z
    4dfe:	91 81       	ldd	r25, Z+1	; 0x01
    4e00:	91 a3       	std	Z+33, r25	; 0x21
    4e02:	80 a3       	std	Z+32, r24	; 0x20
		d += sizeof(int); s += sizeof(int);
    4e04:	32 96       	adiw	r30, 0x02	; 2
		cnt -= sizeof(int);
    4e06:	22 50       	subi	r18, 0x02	; 2
    4e08:	30 40       	sbci	r19, 0x00	; 0
void mem_cpy (void* dst, const void* src, UINT cnt) {
	BYTE *d = (BYTE*)dst;
	const BYTE *s = (const BYTE*)src;

#if _WORD_ACCESS == 1
	while (cnt >= sizeof(int)) {
    4e0a:	c1 f7       	brne	.-16     	; 0x4dfc <f_mkdir+0x1b6>
				dir[DIR_Name] = '.';
				dir[DIR_Attr] = AM_DIR;
				ST_DWORD(dir+DIR_WrtTime, tim);
				ST_CLUST(dir, dcl);
				mem_cpy(dir+32, dir, 32); 			/* Create ".." entry */
				dir[33] = '.'; pcl = dj.sclust;
    4e0c:	23 e5       	ldi	r18, 0x53	; 83
    4e0e:	30 e0       	ldi	r19, 0x00	; 0
    4e10:	c2 0e       	add	r12, r18
    4e12:	d3 1e       	adc	r13, r19
    4e14:	8e e2       	ldi	r24, 0x2E	; 46
    4e16:	d6 01       	movw	r26, r12
    4e18:	8c 93       	st	X, r24
    4e1a:	2b 89       	ldd	r18, Y+19	; 0x13
    4e1c:	3c 89       	ldd	r19, Y+20	; 0x14
    4e1e:	4d 89       	ldd	r20, Y+21	; 0x15
    4e20:	5e 89       	ldd	r21, Y+22	; 0x16
				if (dj.fs->fs_type == FS_FAT32 && pcl == dj.fs->dirbase)
    4e22:	ed 85       	ldd	r30, Y+13	; 0x0d
    4e24:	fe 85       	ldd	r31, Y+14	; 0x0e
    4e26:	80 81       	ld	r24, Z
    4e28:	83 30       	cpi	r24, 0x03	; 3
    4e2a:	69 f4       	brne	.+26     	; 0x4e46 <f_mkdir+0x200>
    4e2c:	86 a1       	ldd	r24, Z+38	; 0x26
    4e2e:	97 a1       	ldd	r25, Z+39	; 0x27
    4e30:	a0 a5       	ldd	r26, Z+40	; 0x28
    4e32:	b1 a5       	ldd	r27, Z+41	; 0x29
    4e34:	28 17       	cp	r18, r24
    4e36:	39 07       	cpc	r19, r25
    4e38:	4a 07       	cpc	r20, r26
    4e3a:	5b 07       	cpc	r21, r27
    4e3c:	21 f4       	brne	.+8      	; 0x4e46 <f_mkdir+0x200>
    4e3e:	20 e0       	ldi	r18, 0x00	; 0
    4e40:	30 e0       	ldi	r19, 0x00	; 0
    4e42:	40 e0       	ldi	r20, 0x00	; 0
    4e44:	50 e0       	ldi	r21, 0x00	; 0
					pcl = 0;
				ST_CLUST(dir+32, pcl);
    4e46:	d7 01       	movw	r26, r14
    4e48:	db 96       	adiw	r26, 0x3b	; 59
    4e4a:	3c 93       	st	X, r19
    4e4c:	2e 93       	st	-X, r18
    4e4e:	da 97       	sbiw	r26, 0x3a	; 58
    4e50:	9a 01       	movw	r18, r20
    4e52:	44 27       	eor	r20, r20
    4e54:	55 27       	eor	r21, r21
    4e56:	d5 96       	adiw	r26, 0x35	; 53
    4e58:	3c 93       	st	X, r19
    4e5a:	2e 93       	st	-X, r18
    4e5c:	d4 97       	sbiw	r26, 0x34	; 52
				for (n = dj.fs->csize; n; n--) {	/* Write dot entries and clear following sectors */
    4e5e:	02 81       	ldd	r16, Z+2	; 0x02
					dj.fs->winsect = dsc++;
					dj.fs->wflag = 1;
    4e60:	dd 24       	eor	r13, r13
    4e62:	d3 94       	inc	r13
    4e64:	21 c0       	rjmp	.+66     	; 0x4ea8 <f_mkdir+0x262>
				dir[33] = '.'; pcl = dj.sclust;
				if (dj.fs->fs_type == FS_FAT32 && pcl == dj.fs->dirbase)
					pcl = 0;
				ST_CLUST(dir+32, pcl);
				for (n = dj.fs->csize; n; n--) {	/* Write dot entries and clear following sectors */
					dj.fs->winsect = dsc++;
    4e66:	ed 85       	ldd	r30, Y+13	; 0x0d
    4e68:	fe 85       	ldd	r31, Y+14	; 0x0e
    4e6a:	46 a6       	std	Z+46, r4	; 0x2e
    4e6c:	57 a6       	std	Z+47, r5	; 0x2f
    4e6e:	60 aa       	std	Z+48, r6	; 0x30
    4e70:	71 aa       	std	Z+49, r7	; 0x31
					dj.fs->wflag = 1;
    4e72:	d4 82       	std	Z+4, r13	; 0x04
					res = move_window(dj.fs, 0);
    4e74:	cf 01       	movw	r24, r30
    4e76:	40 e0       	ldi	r20, 0x00	; 0
    4e78:	50 e0       	ldi	r21, 0x00	; 0
    4e7a:	60 e0       	ldi	r22, 0x00	; 0
    4e7c:	70 e0       	ldi	r23, 0x00	; 0
    4e7e:	0e 94 b9 0d 	call	0x1b72	; 0x1b72 <move_window>
    4e82:	18 2f       	mov	r17, r24
					if (res != FR_OK) break;
    4e84:	88 23       	and	r24, r24
    4e86:	99 f4       	brne	.+38     	; 0x4eae <f_mkdir+0x268>
    4e88:	f7 01       	movw	r30, r14
    4e8a:	80 e0       	ldi	r24, 0x00	; 0
    4e8c:	92 e0       	ldi	r25, 0x02	; 2
    4e8e:	01 c0       	rjmp	.+2      	; 0x4e92 <f_mkdir+0x24c>
static
void mem_set (void* dst, int val, UINT cnt) {
	BYTE *d = (BYTE*)dst;

	while (cnt--)
		*d++ = (BYTE)val;
    4e90:	11 92       	st	Z+, r1
/* Fill memory */
static
void mem_set (void* dst, int val, UINT cnt) {
	BYTE *d = (BYTE*)dst;

	while (cnt--)
    4e92:	01 97       	sbiw	r24, 0x01	; 1
    4e94:	bf ef       	ldi	r27, 0xFF	; 255
    4e96:	8f 3f       	cpi	r24, 0xFF	; 255
    4e98:	9b 07       	cpc	r25, r27
    4e9a:	d1 f7       	brne	.-12     	; 0x4e90 <f_mkdir+0x24a>
				dir[33] = '.'; pcl = dj.sclust;
				if (dj.fs->fs_type == FS_FAT32 && pcl == dj.fs->dirbase)
					pcl = 0;
				ST_CLUST(dir+32, pcl);
				for (n = dj.fs->csize; n; n--) {	/* Write dot entries and clear following sectors */
					dj.fs->winsect = dsc++;
    4e9c:	08 94       	sec
    4e9e:	41 1c       	adc	r4, r1
    4ea0:	51 1c       	adc	r5, r1
    4ea2:	61 1c       	adc	r6, r1
    4ea4:	71 1c       	adc	r7, r1
				mem_cpy(dir+32, dir, 32); 			/* Create ".." entry */
				dir[33] = '.'; pcl = dj.sclust;
				if (dj.fs->fs_type == FS_FAT32 && pcl == dj.fs->dirbase)
					pcl = 0;
				ST_CLUST(dir+32, pcl);
				for (n = dj.fs->csize; n; n--) {	/* Write dot entries and clear following sectors */
    4ea6:	01 50       	subi	r16, 0x01	; 1
    4ea8:	00 23       	and	r16, r16
    4eaa:	e9 f6       	brne	.-70     	; 0x4e66 <f_mkdir+0x220>
    4eac:	3d c0       	rjmp	.+122    	; 0x4f28 <f_mkdir+0x2e2>
					mem_set(dir, 0, SS(dj.fs));
				}
			}
			if (res == FR_OK) res = dir_register(&dj);	/* Register the object to the directoy */
			if (res != FR_OK) {
				remove_chain(dj.fs, dcl);			/* Could not register, remove cluster chain */
    4eae:	8d 85       	ldd	r24, Y+13	; 0x0d
    4eb0:	9e 85       	ldd	r25, Y+14	; 0x0e
    4eb2:	b5 01       	movw	r22, r10
    4eb4:	a4 01       	movw	r20, r8
    4eb6:	0e 94 d8 11 	call	0x23b0	; 0x23b0 <remove_chain>
    4eba:	1a c0       	rjmp	.+52     	; 0x4ef0 <f_mkdir+0x2aa>
			} else {
				dir = dj.dir;
    4ebc:	ef 8d       	ldd	r30, Y+31	; 0x1f
    4ebe:	f8 a1       	ldd	r31, Y+32	; 0x20
				dir[DIR_Attr] = AM_DIR;				/* Attribute */
    4ec0:	80 e1       	ldi	r24, 0x10	; 16
    4ec2:	83 87       	std	Z+11, r24	; 0x0b
				ST_DWORD(dir+DIR_WrtTime, tim);		/* Created time */
    4ec4:	83 e4       	ldi	r24, 0x43	; 67
    4ec6:	9b e0       	ldi	r25, 0x0B	; 11
    4ec8:	a7 e4       	ldi	r26, 0x47	; 71
    4eca:	bd e3       	ldi	r27, 0x3D	; 61
    4ecc:	86 8b       	std	Z+22, r24	; 0x16
    4ece:	97 8b       	std	Z+23, r25	; 0x17
    4ed0:	a0 8f       	std	Z+24, r26	; 0x18
    4ed2:	b1 8f       	std	Z+25, r27	; 0x19
				ST_CLUST(dir, dcl);					/* Table start cluster */
    4ed4:	2d a1       	ldd	r18, Y+37	; 0x25
    4ed6:	3e a1       	ldd	r19, Y+38	; 0x26
    4ed8:	33 8f       	std	Z+27, r19	; 0x1b
    4eda:	22 8f       	std	Z+26, r18	; 0x1a
    4edc:	35 8a       	std	Z+21, r3	; 0x15
    4ede:	24 8a       	std	Z+20, r2	; 0x14
				dj.fs->wflag = 1;
    4ee0:	ed 85       	ldd	r30, Y+13	; 0x0d
    4ee2:	fe 85       	ldd	r31, Y+14	; 0x0e
    4ee4:	81 e0       	ldi	r24, 0x01	; 1
    4ee6:	84 83       	std	Z+4, r24	; 0x04
				res = sync(dj.fs);
    4ee8:	cf 01       	movw	r24, r30
    4eea:	0e 94 b7 23 	call	0x476e	; 0x476e <sync>
    4eee:	18 2f       	mov	r17, r24
		}
		FREE_BUF();
	}

	LEAVE_FF(dj.fs, res);
}
    4ef0:	81 2f       	mov	r24, r17
    4ef2:	a6 96       	adiw	r28, 0x26	; 38
    4ef4:	0f b6       	in	r0, 0x3f	; 63
    4ef6:	f8 94       	cli
    4ef8:	de bf       	out	0x3e, r29	; 62
    4efa:	0f be       	out	0x3f, r0	; 63
    4efc:	cd bf       	out	0x3d, r28	; 61
    4efe:	cf 91       	pop	r28
    4f00:	df 91       	pop	r29
    4f02:	1f 91       	pop	r17
    4f04:	0f 91       	pop	r16
    4f06:	ff 90       	pop	r15
    4f08:	ef 90       	pop	r14
    4f0a:	df 90       	pop	r13
    4f0c:	cf 90       	pop	r12
    4f0e:	bf 90       	pop	r11
    4f10:	af 90       	pop	r10
    4f12:	9f 90       	pop	r9
    4f14:	8f 90       	pop	r8
    4f16:	7f 90       	pop	r7
    4f18:	6f 90       	pop	r6
    4f1a:	5f 90       	pop	r5
    4f1c:	4f 90       	pop	r4
    4f1e:	3f 90       	pop	r3
    4f20:	2f 90       	pop	r2
    4f22:	08 95       	ret
				dir = dj.dir;
				dir[DIR_Attr] = AM_DIR;				/* Attribute */
				ST_DWORD(dir+DIR_WrtTime, tim);		/* Created time */
				ST_CLUST(dir, dcl);					/* Table start cluster */
				dj.fs->wflag = 1;
				res = sync(dj.fs);
    4f24:	11 e0       	ldi	r17, 0x01	; 1
    4f26:	c3 cf       	rjmp	.-122    	; 0x4eae <f_mkdir+0x268>
					res = move_window(dj.fs, 0);
					if (res != FR_OK) break;
					mem_set(dir, 0, SS(dj.fs));
				}
			}
			if (res == FR_OK) res = dir_register(&dj);	/* Register the object to the directoy */
    4f28:	ce 01       	movw	r24, r28
    4f2a:	0d 96       	adiw	r24, 0x0d	; 13
    4f2c:	0e 94 dd 16 	call	0x2dba	; 0x2dba <dir_register>
    4f30:	18 2f       	mov	r17, r24
			if (res != FR_OK) {
    4f32:	88 23       	and	r24, r24
    4f34:	19 f2       	breq	.-122    	; 0x4ebc <f_mkdir+0x276>
    4f36:	bb cf       	rjmp	.-138    	; 0x4eae <f_mkdir+0x268>

00004f38 <f_unlink>:
/*-----------------------------------------------------------------------*/

FRESULT f_unlink (
	const TCHAR *path		/* Pointer to the file or directory path */
)
{
    4f38:	cf 92       	push	r12
    4f3a:	df 92       	push	r13
    4f3c:	ef 92       	push	r14
    4f3e:	ff 92       	push	r15
    4f40:	0f 93       	push	r16
    4f42:	1f 93       	push	r17
    4f44:	df 93       	push	r29
    4f46:	cf 93       	push	r28
    4f48:	cd b7       	in	r28, 0x3d	; 61
    4f4a:	de b7       	in	r29, 0x3e	; 62
    4f4c:	ea 97       	sbiw	r28, 0x3a	; 58
    4f4e:	0f b6       	in	r0, 0x3f	; 63
    4f50:	f8 94       	cli
    4f52:	de bf       	out	0x3e, r29	; 62
    4f54:	0f be       	out	0x3f, r0	; 63
    4f56:	cd bf       	out	0x3d, r28	; 61
    4f58:	9a af       	std	Y+58, r25	; 0x3a
    4f5a:	89 af       	std	Y+57, r24	; 0x39
	BYTE *dir;
	DWORD dclst;
	DEF_NAMEBUF;


	res = chk_mounted(&path, &dj.fs, 1);
    4f5c:	8e 01       	movw	r16, r28
    4f5e:	03 5f       	subi	r16, 0xF3	; 243
    4f60:	1f 4f       	sbci	r17, 0xFF	; 255
    4f62:	ce 01       	movw	r24, r28
    4f64:	c9 96       	adiw	r24, 0x39	; 57
    4f66:	b8 01       	movw	r22, r16
    4f68:	41 e0       	ldi	r20, 0x01	; 1
    4f6a:	0e 94 9a 0a 	call	0x1534	; 0x1534 <chk_mounted>
    4f6e:	28 2f       	mov	r18, r24
	if (res == FR_OK) {
    4f70:	88 23       	and	r24, r24
    4f72:	09 f0       	breq	.+2      	; 0x4f76 <f_unlink+0x3e>
    4f74:	87 c0       	rjmp	.+270    	; 0x5084 <f_unlink+0x14c>
		INIT_BUF(dj);
    4f76:	ce 01       	movw	r24, r28
    4f78:	01 96       	adiw	r24, 0x01	; 1
    4f7a:	9a a3       	std	Y+34, r25	; 0x22
    4f7c:	89 a3       	std	Y+33, r24	; 0x21
		res = follow_path(&dj, path);		/* Follow the file path */
    4f7e:	69 ad       	ldd	r22, Y+57	; 0x39
    4f80:	7a ad       	ldd	r23, Y+58	; 0x3a
    4f82:	c8 01       	movw	r24, r16
    4f84:	0e 94 7e 14 	call	0x28fc	; 0x28fc <follow_path>
    4f88:	28 2f       	mov	r18, r24
		if (_FS_RPATH && res == FR_OK && (dj.fn[NS] & NS_DOT))
    4f8a:	88 23       	and	r24, r24
    4f8c:	09 f0       	breq	.+2      	; 0x4f90 <f_unlink+0x58>
    4f8e:	7a c0       	rjmp	.+244    	; 0x5084 <f_unlink+0x14c>
    4f90:	e9 a1       	ldd	r30, Y+33	; 0x21
    4f92:	fa a1       	ldd	r31, Y+34	; 0x22
    4f94:	83 85       	ldd	r24, Z+11	; 0x0b
    4f96:	85 ff       	sbrs	r24, 5
    4f98:	02 c0       	rjmp	.+4      	; 0x4f9e <f_unlink+0x66>
    4f9a:	26 e0       	ldi	r18, 0x06	; 6
    4f9c:	73 c0       	rjmp	.+230    	; 0x5084 <f_unlink+0x14c>
			res = FR_INVALID_NAME;			/* Cannot remove dot entry */
#if _FS_SHARE
		if (res == FR_OK) res = chk_lock(&dj, 2);	/* Cannot remove open file */
#endif
		if (res == FR_OK) {					/* The object is accessible */
			dir = dj.dir;
    4f9e:	ef 8d       	ldd	r30, Y+31	; 0x1f
    4fa0:	f8 a1       	ldd	r31, Y+32	; 0x20
			if (!dir) {
    4fa2:	30 97       	sbiw	r30, 0x00	; 0
    4fa4:	11 f4       	brne	.+4      	; 0x4faa <f_unlink+0x72>
    4fa6:	26 e0       	ldi	r18, 0x06	; 6
    4fa8:	03 c0       	rjmp	.+6      	; 0x4fb0 <f_unlink+0x78>
				res = FR_INVALID_NAME;		/* Cannot remove the start directory */
			} else {
				if (dir[DIR_Attr] & AM_RDO)
    4faa:	83 85       	ldd	r24, Z+11	; 0x0b
    4fac:	80 fd       	sbrc	r24, 0
    4fae:	27 e0       	ldi	r18, 0x07	; 7
					res = FR_DENIED;		/* Cannot remove R/O object */
			}
			dclst = LD_CLUST(dir);
    4fb0:	84 89       	ldd	r24, Z+20	; 0x14
    4fb2:	95 89       	ldd	r25, Z+21	; 0x15
    4fb4:	42 8d       	ldd	r20, Z+26	; 0x1a
    4fb6:	53 8d       	ldd	r21, Z+27	; 0x1b
			if (res == FR_OK && (dir[DIR_Attr] & AM_DIR)) {	/* Is it a sub-dir? */
    4fb8:	22 23       	and	r18, r18
    4fba:	09 f0       	breq	.+2      	; 0x4fbe <f_unlink+0x86>
    4fbc:	63 c0       	rjmp	.+198    	; 0x5084 <f_unlink+0x14c>
				res = FR_INVALID_NAME;		/* Cannot remove the start directory */
			} else {
				if (dir[DIR_Attr] & AM_RDO)
					res = FR_DENIED;		/* Cannot remove R/O object */
			}
			dclst = LD_CLUST(dir);
    4fbe:	a0 e0       	ldi	r26, 0x00	; 0
    4fc0:	b0 e0       	ldi	r27, 0x00	; 0
    4fc2:	8c 01       	movw	r16, r24
    4fc4:	ff 24       	eor	r15, r15
    4fc6:	ee 24       	eor	r14, r14
    4fc8:	ca 01       	movw	r24, r20
    4fca:	a0 e0       	ldi	r26, 0x00	; 0
    4fcc:	b0 e0       	ldi	r27, 0x00	; 0
    4fce:	e8 2a       	or	r14, r24
    4fd0:	f9 2a       	or	r15, r25
    4fd2:	0a 2b       	or	r16, r26
    4fd4:	1b 2b       	or	r17, r27
			if (res == FR_OK && (dir[DIR_Attr] & AM_DIR)) {	/* Is it a sub-dir? */
    4fd6:	83 85       	ldd	r24, Z+11	; 0x0b
    4fd8:	84 ff       	sbrs	r24, 4
    4fda:	66 c0       	rjmp	.+204    	; 0x50a8 <f_unlink+0x170>
				if (dclst < 2) {
    4fdc:	82 e0       	ldi	r24, 0x02	; 2
    4fde:	e8 16       	cp	r14, r24
    4fe0:	f1 04       	cpc	r15, r1
    4fe2:	01 05       	cpc	r16, r1
    4fe4:	11 05       	cpc	r17, r1
    4fe6:	10 f4       	brcc	.+4      	; 0x4fec <f_unlink+0xb4>
    4fe8:	22 e0       	ldi	r18, 0x02	; 2
    4fea:	4c c0       	rjmp	.+152    	; 0x5084 <f_unlink+0x14c>
    4fec:	20 e0       	ldi	r18, 0x00	; 0
    4fee:	30 e0       	ldi	r19, 0x00	; 0
	BYTE *d = (BYTE*)dst;
	const BYTE *s = (const BYTE*)src;

#if _WORD_ACCESS == 1
	while (cnt >= sizeof(int)) {
		*(int*)d = *(int*)s;
    4ff0:	83 e2       	ldi	r24, 0x23	; 35
    4ff2:	c8 2e       	mov	r12, r24
    4ff4:	d1 2c       	mov	r13, r1
    4ff6:	cc 0e       	add	r12, r28
    4ff8:	dd 1e       	adc	r13, r29
    4ffa:	ae 01       	movw	r20, r28
    4ffc:	43 5f       	subi	r20, 0xF3	; 243
    4ffe:	5f 4f       	sbci	r21, 0xFF	; 255
    5000:	f6 01       	movw	r30, r12
    5002:	e2 0f       	add	r30, r18
    5004:	f3 1f       	adc	r31, r19
    5006:	da 01       	movw	r26, r20
    5008:	a2 0f       	add	r26, r18
    500a:	b3 1f       	adc	r27, r19
    500c:	8d 91       	ld	r24, X+
    500e:	9c 91       	ld	r25, X
    5010:	91 83       	std	Z+1, r25	; 0x01
    5012:	80 83       	st	Z, r24
    5014:	2e 5f       	subi	r18, 0xFE	; 254
    5016:	3f 4f       	sbci	r19, 0xFF	; 255
void mem_cpy (void* dst, const void* src, UINT cnt) {
	BYTE *d = (BYTE*)dst;
	const BYTE *s = (const BYTE*)src;

#if _WORD_ACCESS == 1
	while (cnt >= sizeof(int)) {
    5018:	26 31       	cpi	r18, 0x16	; 22
    501a:	31 05       	cpc	r19, r1
    501c:	89 f7       	brne	.-30     	; 0x5000 <f_unlink+0xc8>
			if (res == FR_OK && (dir[DIR_Attr] & AM_DIR)) {	/* Is it a sub-dir? */
				if (dclst < 2) {
					res = FR_INT_ERR;
				} else {
					mem_cpy(&sdj, &dj, sizeof(DIR));	/* Check if the sub-dir is empty or not */
					sdj.sclust = dclst;
    501e:	e9 a6       	std	Y+41, r14	; 0x29
    5020:	fa a6       	std	Y+42, r15	; 0x2a
    5022:	0b a7       	std	Y+43, r16	; 0x2b
    5024:	1c a7       	std	Y+44, r17	; 0x2c
					res = dir_sdi(&sdj, 2);		/* Exclude dot entries */
    5026:	c6 01       	movw	r24, r12
    5028:	62 e0       	ldi	r22, 0x02	; 2
    502a:	70 e0       	ldi	r23, 0x00	; 0
    502c:	0e 94 fc 0f 	call	0x1ff8	; 0x1ff8 <dir_sdi>
    5030:	28 2f       	mov	r18, r24
					if (res == FR_OK) {
    5032:	88 23       	and	r24, r24
    5034:	39 f5       	brne	.+78     	; 0x5084 <f_unlink+0x14c>
						res = dir_read(&sdj);
    5036:	c6 01       	movw	r24, r12
    5038:	0e 94 3f 17 	call	0x2e7e	; 0x2e7e <dir_read>
    503c:	28 2f       	mov	r18, r24
						if (res == FR_OK			/* Not empty dir */
    503e:	88 23       	and	r24, r24
    5040:	89 f1       	breq	.+98     	; 0x50a4 <f_unlink+0x16c>
    5042:	eb a1       	ldd	r30, Y+35	; 0x23
    5044:	fc a1       	ldd	r31, Y+36	; 0x24
    5046:	86 89       	ldd	r24, Z+22	; 0x16
    5048:	97 89       	ldd	r25, Z+23	; 0x17
    504a:	a0 8d       	ldd	r26, Z+24	; 0x18
    504c:	b1 8d       	ldd	r27, Z+25	; 0x19
    504e:	e8 16       	cp	r14, r24
    5050:	f9 06       	cpc	r15, r25
    5052:	0a 07       	cpc	r16, r26
    5054:	1b 07       	cpc	r17, r27
    5056:	31 f1       	breq	.+76     	; 0x50a4 <f_unlink+0x16c>
#if _FS_RPATH
						|| dclst == sdj.fs->cdir	/* Current dir */
#endif
						) res = FR_DENIED;
						if (res == FR_NO_FILE) res = FR_OK;	/* Empty */
    5058:	24 30       	cpi	r18, 0x04	; 4
    505a:	31 f1       	breq	.+76     	; 0x50a8 <f_unlink+0x170>
    505c:	13 c0       	rjmp	.+38     	; 0x5084 <f_unlink+0x14c>
				}
			}
			if (res == FR_OK) {
				res = dir_remove(&dj);		/* Remove the directory entry */
				if (res == FR_OK) {
					if (dclst)				/* Remove the cluster chain if exist */
    505e:	e1 14       	cp	r14, r1
    5060:	f1 04       	cpc	r15, r1
    5062:	01 05       	cpc	r16, r1
    5064:	11 05       	cpc	r17, r1
    5066:	49 f0       	breq	.+18     	; 0x507a <f_unlink+0x142>
						res = remove_chain(dj.fs, dclst);
    5068:	8d 85       	ldd	r24, Y+13	; 0x0d
    506a:	9e 85       	ldd	r25, Y+14	; 0x0e
    506c:	b8 01       	movw	r22, r16
    506e:	a7 01       	movw	r20, r14
    5070:	0e 94 d8 11 	call	0x23b0	; 0x23b0 <remove_chain>
    5074:	28 2f       	mov	r18, r24
					if (res == FR_OK) res = sync(dj.fs);
    5076:	88 23       	and	r24, r24
    5078:	29 f4       	brne	.+10     	; 0x5084 <f_unlink+0x14c>
    507a:	8d 85       	ldd	r24, Y+13	; 0x0d
    507c:	9e 85       	ldd	r25, Y+14	; 0x0e
    507e:	0e 94 b7 23 	call	0x476e	; 0x476e <sync>
    5082:	28 2f       	mov	r18, r24
			}
		}
		FREE_BUF();
	}
	LEAVE_FF(dj.fs, res);
}
    5084:	82 2f       	mov	r24, r18
    5086:	ea 96       	adiw	r28, 0x3a	; 58
    5088:	0f b6       	in	r0, 0x3f	; 63
    508a:	f8 94       	cli
    508c:	de bf       	out	0x3e, r29	; 62
    508e:	0f be       	out	0x3f, r0	; 63
    5090:	cd bf       	out	0x3d, r28	; 61
    5092:	cf 91       	pop	r28
    5094:	df 91       	pop	r29
    5096:	1f 91       	pop	r17
    5098:	0f 91       	pop	r16
    509a:	ff 90       	pop	r15
    509c:	ef 90       	pop	r14
    509e:	df 90       	pop	r13
    50a0:	cf 90       	pop	r12
    50a2:	08 95       	ret
			if (res == FR_OK) {
				res = dir_remove(&dj);		/* Remove the directory entry */
				if (res == FR_OK) {
					if (dclst)				/* Remove the cluster chain if exist */
						res = remove_chain(dj.fs, dclst);
					if (res == FR_OK) res = sync(dj.fs);
    50a4:	27 e0       	ldi	r18, 0x07	; 7
    50a6:	ee cf       	rjmp	.-36     	; 0x5084 <f_unlink+0x14c>
						if (res == FR_NO_FILE) res = FR_OK;	/* Empty */
					}
				}
			}
			if (res == FR_OK) {
				res = dir_remove(&dj);		/* Remove the directory entry */
    50a8:	ce 01       	movw	r24, r28
    50aa:	0d 96       	adiw	r24, 0x0d	; 13
    50ac:	0e 94 e0 12 	call	0x25c0	; 0x25c0 <dir_remove>
    50b0:	28 2f       	mov	r18, r24
				if (res == FR_OK) {
    50b2:	88 23       	and	r24, r24
    50b4:	a1 f2       	breq	.-88     	; 0x505e <f_unlink+0x126>
    50b6:	e6 cf       	rjmp	.-52     	; 0x5084 <f_unlink+0x14c>

000050b8 <f_sync>:
/*-----------------------------------------------------------------------*/

FRESULT f_sync (
	FIL *fp		/* Pointer to the file object */
)
{
    50b8:	0f 93       	push	r16
    50ba:	cf 93       	push	r28
    50bc:	df 93       	push	r29
    50be:	ec 01       	movw	r28, r24
	FRESULT res;
	DWORD tim;
	BYTE *dir;


	res = validate(fp->fs, fp->id);		/* Check validity of the object */
    50c0:	6a 81       	ldd	r22, Y+2	; 0x02
    50c2:	7b 81       	ldd	r23, Y+3	; 0x03
    50c4:	88 81       	ld	r24, Y
    50c6:	99 81       	ldd	r25, Y+1	; 0x01
    50c8:	0e 94 84 0a 	call	0x1508	; 0x1508 <validate>
    50cc:	98 2f       	mov	r25, r24
	if (res == FR_OK) {
    50ce:	88 23       	and	r24, r24
    50d0:	09 f0       	breq	.+2      	; 0x50d4 <f_sync+0x1c>
    50d2:	52 c0       	rjmp	.+164    	; 0x5178 <f_sync+0xc0>
		if (fp->flag & FA__WRITTEN) {	/* Has the file been written? */
    50d4:	8c 81       	ldd	r24, Y+4	; 0x04
    50d6:	85 ff       	sbrs	r24, 5
    50d8:	4f c0       	rjmp	.+158    	; 0x5178 <f_sync+0xc0>
#if !_FS_TINY	/* Write-back dirty buffer */
			if (fp->flag & FA__DIRTY) {
    50da:	86 ff       	sbrs	r24, 6
    50dc:	14 c0       	rjmp	.+40     	; 0x5106 <f_sync+0x4e>
				if (disk_write(fp->fs->drv, fp->buf, fp->dsect, 1) != RES_OK)
    50de:	e8 81       	ld	r30, Y
    50e0:	f9 81       	ldd	r31, Y+1	; 0x01
    50e2:	be 01       	movw	r22, r28
    50e4:	60 5e       	subi	r22, 0xE0	; 224
    50e6:	7f 4f       	sbci	r23, 0xFF	; 255
    50e8:	2e 89       	ldd	r18, Y+22	; 0x16
    50ea:	3f 89       	ldd	r19, Y+23	; 0x17
    50ec:	48 8d       	ldd	r20, Y+24	; 0x18
    50ee:	59 8d       	ldd	r21, Y+25	; 0x19
    50f0:	81 81       	ldd	r24, Z+1	; 0x01
    50f2:	01 e0       	ldi	r16, 0x01	; 1
    50f4:	0e 94 36 2a 	call	0x546c	; 0x546c <disk_write>
    50f8:	88 23       	and	r24, r24
    50fa:	11 f0       	breq	.+4      	; 0x5100 <f_sync+0x48>
    50fc:	91 e0       	ldi	r25, 0x01	; 1
    50fe:	3c c0       	rjmp	.+120    	; 0x5178 <f_sync+0xc0>
					LEAVE_FF(fp->fs, FR_DISK_ERR);
				fp->flag &= ~FA__DIRTY;
    5100:	8c 81       	ldd	r24, Y+4	; 0x04
    5102:	8f 7b       	andi	r24, 0xBF	; 191
    5104:	8c 83       	std	Y+4, r24	; 0x04
			}
#endif
			/* Update the directory entry */
			res = move_window(fp->fs, fp->dir_sect);
    5106:	4a 8d       	ldd	r20, Y+26	; 0x1a
    5108:	5b 8d       	ldd	r21, Y+27	; 0x1b
    510a:	6c 8d       	ldd	r22, Y+28	; 0x1c
    510c:	7d 8d       	ldd	r23, Y+29	; 0x1d
    510e:	88 81       	ld	r24, Y
    5110:	99 81       	ldd	r25, Y+1	; 0x01
    5112:	0e 94 b9 0d 	call	0x1b72	; 0x1b72 <move_window>
    5116:	98 2f       	mov	r25, r24
			if (res == FR_OK) {
    5118:	88 23       	and	r24, r24
    511a:	71 f5       	brne	.+92     	; 0x5178 <f_sync+0xc0>
				dir = fp->dir_ptr;
    511c:	ee 8d       	ldd	r30, Y+30	; 0x1e
    511e:	ff 8d       	ldd	r31, Y+31	; 0x1f
				dir[DIR_Attr] |= AM_ARC;					/* Set archive bit */
    5120:	83 85       	ldd	r24, Z+11	; 0x0b
    5122:	80 62       	ori	r24, 0x20	; 32
    5124:	83 87       	std	Z+11, r24	; 0x0b
				ST_DWORD(dir+DIR_FileSize, fp->fsize);		/* Update file size */
    5126:	8a 85       	ldd	r24, Y+10	; 0x0a
    5128:	9b 85       	ldd	r25, Y+11	; 0x0b
    512a:	ac 85       	ldd	r26, Y+12	; 0x0c
    512c:	bd 85       	ldd	r27, Y+13	; 0x0d
    512e:	84 8f       	std	Z+28, r24	; 0x1c
    5130:	95 8f       	std	Z+29, r25	; 0x1d
    5132:	a6 8f       	std	Z+30, r26	; 0x1e
    5134:	b7 8f       	std	Z+31, r27	; 0x1f
				ST_CLUST(dir, fp->org_clust);				/* Update start cluster */
    5136:	8e 85       	ldd	r24, Y+14	; 0x0e
    5138:	9f 85       	ldd	r25, Y+15	; 0x0f
    513a:	93 8f       	std	Z+27, r25	; 0x1b
    513c:	82 8f       	std	Z+26, r24	; 0x1a
    513e:	8e 85       	ldd	r24, Y+14	; 0x0e
    5140:	9f 85       	ldd	r25, Y+15	; 0x0f
    5142:	a8 89       	ldd	r26, Y+16	; 0x10
    5144:	b9 89       	ldd	r27, Y+17	; 0x11
    5146:	cd 01       	movw	r24, r26
    5148:	aa 27       	eor	r26, r26
    514a:	bb 27       	eor	r27, r27
    514c:	95 8b       	std	Z+21, r25	; 0x15
    514e:	84 8b       	std	Z+20, r24	; 0x14
				tim = get_fattime();						/* Update updated time */
				ST_DWORD(dir+DIR_WrtTime, tim);
    5150:	83 e4       	ldi	r24, 0x43	; 67
    5152:	9b e0       	ldi	r25, 0x0B	; 11
    5154:	a7 e4       	ldi	r26, 0x47	; 71
    5156:	bd e3       	ldi	r27, 0x3D	; 61
    5158:	86 8b       	std	Z+22, r24	; 0x16
    515a:	97 8b       	std	Z+23, r25	; 0x17
    515c:	a0 8f       	std	Z+24, r26	; 0x18
    515e:	b1 8f       	std	Z+25, r27	; 0x19
				fp->flag &= ~FA__WRITTEN;
    5160:	8c 81       	ldd	r24, Y+4	; 0x04
    5162:	8f 7d       	andi	r24, 0xDF	; 223
    5164:	8c 83       	std	Y+4, r24	; 0x04
				fp->fs->wflag = 1;
    5166:	e8 81       	ld	r30, Y
    5168:	f9 81       	ldd	r31, Y+1	; 0x01
    516a:	81 e0       	ldi	r24, 0x01	; 1
    516c:	84 83       	std	Z+4, r24	; 0x04
				res = sync(fp->fs);
    516e:	88 81       	ld	r24, Y
    5170:	99 81       	ldd	r25, Y+1	; 0x01
    5172:	0e 94 b7 23 	call	0x476e	; 0x476e <sync>
    5176:	98 2f       	mov	r25, r24
			}
		}
	}

	LEAVE_FF(fp->fs, res);
}
    5178:	89 2f       	mov	r24, r25
    517a:	df 91       	pop	r29
    517c:	cf 91       	pop	r28
    517e:	0f 91       	pop	r16
    5180:	08 95       	ret

00005182 <f_close>:
/*-----------------------------------------------------------------------*/

FRESULT f_close (
	FIL *fp		/* Pointer to the file object to be closed */
)
{
    5182:	cf 93       	push	r28
    5184:	df 93       	push	r29
    5186:	ec 01       	movw	r28, r24
	res = validate(fs, fp->id);
	if (res == FR_OK) fp->fs = 0;	/* Discard file object */
	LEAVE_FF(fs, res);

#else
	res = f_sync(fp);		/* Flush cached data */
    5188:	0e 94 5c 28 	call	0x50b8	; 0x50b8 <f_sync>
#else
		res = dec_lock(fp->lockid);
#endif
	}
#endif
	if (res == FR_OK) fp->fs = 0;	/* Discard file object */
    518c:	88 23       	and	r24, r24
    518e:	11 f4       	brne	.+4      	; 0x5194 <f_close+0x12>
    5190:	19 82       	std	Y+1, r1	; 0x01
    5192:	18 82       	st	Y, r1
	return res;
#endif
}
    5194:	df 91       	pop	r29
    5196:	cf 91       	pop	r28
    5198:	08 95       	ret

0000519a <rcvr_datablock>:
static
int rcvr_datablock (
	BYTE *buff,			/* Data buffer to store received data */
	UINT btr			/* Byte count (must be multiple of 4) */
)
{
    519a:	fc 01       	movw	r30, r24
    519c:	20 e0       	ldi	r18, 0x00	; 0
    519e:	30 e0       	ldi	r19, 0x00	; 0
/*-----------------------------------------------------------------------*/

static
BYTE rcvr_spi (void)
{
	SPDR = 0xFF;
    51a0:	5f ef       	ldi	r21, 0xFF	; 255
    51a2:	a0 e0       	ldi	r26, 0x00	; 0
    51a4:	b0 e9       	ldi	r27, 0x90	; 144
    51a6:	5f b9       	out	0x0f, r21	; 15
	loop_until_bit_is_set(SPSR, SPIF);
    51a8:	77 9b       	sbis	0x0e, 7	; 14
    51aa:	fe cf       	rjmp	.-4      	; 0x51a8 <rcvr_datablock+0xe>
	return SPDR;
    51ac:	4f b1       	in	r20, 0x0f	; 15
    51ae:	cd 01       	movw	r24, r26
    51b0:	01 97       	sbiw	r24, 0x01	; 1
    51b2:	f1 f7       	brne	.-4      	; 0x51b0 <rcvr_datablock+0x16>
{
	BYTE token;


	token = 0xFF;
	for (int i = 0; i < 20 && token == 0xFF; i++)
    51b4:	2f 5f       	subi	r18, 0xFF	; 255
    51b6:	3f 4f       	sbci	r19, 0xFF	; 255
    51b8:	24 31       	cpi	r18, 0x14	; 20
    51ba:	31 05       	cpc	r19, r1
    51bc:	11 f0       	breq	.+4      	; 0x51c2 <rcvr_datablock+0x28>
    51be:	4f 3f       	cpi	r20, 0xFF	; 255
    51c0:	91 f3       	breq	.-28     	; 0x51a6 <rcvr_datablock+0xc>
	{
	  token = rcvr_spi();
	  _delay_ms(10);
	}

	if(token != 0xFE) return 0;		/* If not valid data token, retutn with error */
    51c2:	4e 3f       	cpi	r20, 0xFE	; 254
    51c4:	19 f0       	breq	.+6      	; 0x51cc <rcvr_datablock+0x32>
    51c6:	20 e0       	ldi	r18, 0x00	; 0
    51c8:	30 e0       	ldi	r19, 0x00	; 0
    51ca:	26 c0       	rjmp	.+76     	; 0x5218 <rcvr_datablock+0x7e>

	do {							/* Receive the data block into buffer */
		rcvr_spi_m(buff++);
    51cc:	9f ef       	ldi	r25, 0xFF	; 255
    51ce:	9f b9       	out	0x0f, r25	; 15
    51d0:	77 9b       	sbis	0x0e, 7	; 14
    51d2:	fe cf       	rjmp	.-4      	; 0x51d0 <rcvr_datablock+0x36>
    51d4:	8f b1       	in	r24, 0x0f	; 15
    51d6:	80 83       	st	Z, r24
		rcvr_spi_m(buff++);
    51d8:	9f b9       	out	0x0f, r25	; 15
    51da:	77 9b       	sbis	0x0e, 7	; 14
    51dc:	fe cf       	rjmp	.-4      	; 0x51da <rcvr_datablock+0x40>
    51de:	8f b1       	in	r24, 0x0f	; 15
    51e0:	81 83       	std	Z+1, r24	; 0x01
		rcvr_spi_m(buff++);
    51e2:	9f b9       	out	0x0f, r25	; 15
    51e4:	77 9b       	sbis	0x0e, 7	; 14
    51e6:	fe cf       	rjmp	.-4      	; 0x51e4 <rcvr_datablock+0x4a>
    51e8:	8f b1       	in	r24, 0x0f	; 15
    51ea:	82 83       	std	Z+2, r24	; 0x02
		rcvr_spi_m(buff++);
    51ec:	9f b9       	out	0x0f, r25	; 15
    51ee:	77 9b       	sbis	0x0e, 7	; 14
    51f0:	fe cf       	rjmp	.-4      	; 0x51ee <rcvr_datablock+0x54>
    51f2:	8f b1       	in	r24, 0x0f	; 15
    51f4:	83 83       	std	Z+3, r24	; 0x03
	} while (btr -= 4);
    51f6:	64 50       	subi	r22, 0x04	; 4
    51f8:	70 40       	sbci	r23, 0x00	; 0
    51fa:	11 f0       	breq	.+4      	; 0x5200 <rcvr_datablock+0x66>
static
int rcvr_datablock (
	BYTE *buff,			/* Data buffer to store received data */
	UINT btr			/* Byte count (must be multiple of 4) */
)
{
    51fc:	34 96       	adiw	r30, 0x04	; 4
    51fe:	e7 cf       	rjmp	.-50     	; 0x51ce <rcvr_datablock+0x34>
/*-----------------------------------------------------------------------*/

static
BYTE rcvr_spi (void)
{
	SPDR = 0xFF;
    5200:	8f ef       	ldi	r24, 0xFF	; 255
    5202:	8f b9       	out	0x0f, r24	; 15
	loop_until_bit_is_set(SPSR, SPIF);
    5204:	77 9b       	sbis	0x0e, 7	; 14
    5206:	fe cf       	rjmp	.-4      	; 0x5204 <rcvr_datablock+0x6a>
	return SPDR;
    5208:	8f b1       	in	r24, 0x0f	; 15
/*-----------------------------------------------------------------------*/

static
BYTE rcvr_spi (void)
{
	SPDR = 0xFF;
    520a:	8f ef       	ldi	r24, 0xFF	; 255
    520c:	8f b9       	out	0x0f, r24	; 15
	loop_until_bit_is_set(SPSR, SPIF);
    520e:	77 9b       	sbis	0x0e, 7	; 14
    5210:	fe cf       	rjmp	.-4      	; 0x520e <rcvr_datablock+0x74>
	return SPDR;
    5212:	8f b1       	in	r24, 0x0f	; 15
    5214:	21 e0       	ldi	r18, 0x01	; 1
    5216:	30 e0       	ldi	r19, 0x00	; 0
	} while (btr -= 4);
	rcvr_spi();						/* Discard CRC */
	rcvr_spi();

	return 1;						/* Return with success */
}
    5218:	c9 01       	movw	r24, r18
    521a:	08 95       	ret

0000521c <xmit_datablock>:
static
int xmit_datablock (
	const BYTE *buff,	/* 512 byte data block to be transmitted */
	BYTE token			/* Data/Stop token */
)
{
    521c:	fc 01       	movw	r30, r24
/*-----------------------------------------------------------------------*/

static
BYTE rcvr_spi (void)
{
	SPDR = 0xFF;
    521e:	8f ef       	ldi	r24, 0xFF	; 255
    5220:	8f b9       	out	0x0f, r24	; 15
	loop_until_bit_is_set(SPSR, SPIF);
    5222:	77 9b       	sbis	0x0e, 7	; 14
    5224:	fe cf       	rjmp	.-4      	; 0x5222 <xmit_datablock+0x6>
	return SPDR;
    5226:	8f b1       	in	r24, 0x0f	; 15
    5228:	20 e0       	ldi	r18, 0x00	; 0
    522a:	30 e0       	ldi	r19, 0x00	; 0
/*-----------------------------------------------------------------------*/

static
BYTE rcvr_spi (void)
{
	SPDR = 0xFF;
    522c:	7f ef       	ldi	r23, 0xFF	; 255
    522e:	40 e0       	ldi	r20, 0x00	; 0
    5230:	50 e9       	ldi	r21, 0x90	; 144
    5232:	7f b9       	out	0x0f, r23	; 15
	loop_until_bit_is_set(SPSR, SPIF);
    5234:	77 9b       	sbis	0x0e, 7	; 14
    5236:	fe cf       	rjmp	.-4      	; 0x5234 <xmit_datablock+0x18>
	return SPDR;
    5238:	8f b1       	in	r24, 0x0f	; 15
{
	int timer = 0;	/* Wait for ready in timeout of 500ms */
	rcvr_spi();
	do
	{
		if (rcvr_spi() == 0xFF) return 1;
    523a:	8f 3f       	cpi	r24, 0xFF	; 255
    523c:	59 f0       	breq	.+22     	; 0x5254 <xmit_datablock+0x38>
    523e:	ca 01       	movw	r24, r20
    5240:	01 97       	sbiw	r24, 0x01	; 1
    5242:	f1 f7       	brne	.-4      	; 0x5240 <xmit_datablock+0x24>
		_delay_ms(10);
		timer++;
    5244:	2f 5f       	subi	r18, 0xFF	; 255
    5246:	3f 4f       	sbci	r19, 0xFF	; 255
	}
	while (timer<50);
    5248:	22 33       	cpi	r18, 0x32	; 50
    524a:	31 05       	cpc	r19, r1
    524c:	91 f7       	brne	.-28     	; 0x5232 <xmit_datablock+0x16>
    524e:	20 e0       	ldi	r18, 0x00	; 0
    5250:	30 e0       	ldi	r19, 0x00	; 0
    5252:	2b c0       	rjmp	.+86     	; 0x52aa <xmit_datablock+0x8e>
	BYTE resp, wc;


	if (!wait_ready()) return 0;

	xmit_spi(token);					/* Xmit data token */
    5254:	6f b9       	out	0x0f, r22	; 15
    5256:	77 9b       	sbis	0x0e, 7	; 14
    5258:	fe cf       	rjmp	.-4      	; 0x5256 <xmit_datablock+0x3a>
	if (token != 0xFD) {	/* Is data token */
    525a:	6d 3f       	cpi	r22, 0xFD	; 253
    525c:	19 f4       	brne	.+6      	; 0x5264 <xmit_datablock+0x48>
    525e:	21 e0       	ldi	r18, 0x01	; 1
    5260:	30 e0       	ldi	r19, 0x00	; 0
    5262:	23 c0       	rjmp	.+70     	; 0x52aa <xmit_datablock+0x8e>
    5264:	90 e0       	ldi	r25, 0x00	; 0
		wc = 0;
		do {							/* Xmit the 512 byte data block to MMC */
			xmit_spi(*buff++);
    5266:	80 81       	ld	r24, Z
    5268:	8f b9       	out	0x0f, r24	; 15
    526a:	77 9b       	sbis	0x0e, 7	; 14
    526c:	fe cf       	rjmp	.-4      	; 0x526a <xmit_datablock+0x4e>
			xmit_spi(*buff++);
    526e:	81 81       	ldd	r24, Z+1	; 0x01
    5270:	8f b9       	out	0x0f, r24	; 15
    5272:	77 9b       	sbis	0x0e, 7	; 14
    5274:	fe cf       	rjmp	.-4      	; 0x5272 <xmit_datablock+0x56>
		} while (--wc);
    5276:	91 50       	subi	r25, 0x01	; 1
    5278:	11 f0       	breq	.+4      	; 0x527e <xmit_datablock+0x62>
static
int xmit_datablock (
	const BYTE *buff,	/* 512 byte data block to be transmitted */
	BYTE token			/* Data/Stop token */
)
{
    527a:	32 96       	adiw	r30, 0x02	; 2
    527c:	f4 cf       	rjmp	.-24     	; 0x5266 <xmit_datablock+0x4a>
		wc = 0;
		do {							/* Xmit the 512 byte data block to MMC */
			xmit_spi(*buff++);
			xmit_spi(*buff++);
		} while (--wc);
		xmit_spi(0xFF);					/* CRC (Dummy) */
    527e:	8f ef       	ldi	r24, 0xFF	; 255
    5280:	8f b9       	out	0x0f, r24	; 15
    5282:	77 9b       	sbis	0x0e, 7	; 14
    5284:	fe cf       	rjmp	.-4      	; 0x5282 <xmit_datablock+0x66>
		xmit_spi(0xFF);
    5286:	8f ef       	ldi	r24, 0xFF	; 255
    5288:	8f b9       	out	0x0f, r24	; 15
    528a:	77 9b       	sbis	0x0e, 7	; 14
    528c:	fe cf       	rjmp	.-4      	; 0x528a <xmit_datablock+0x6e>
/*-----------------------------------------------------------------------*/

static
BYTE rcvr_spi (void)
{
	SPDR = 0xFF;
    528e:	8f ef       	ldi	r24, 0xFF	; 255
    5290:	8f b9       	out	0x0f, r24	; 15
	loop_until_bit_is_set(SPSR, SPIF);
    5292:	77 9b       	sbis	0x0e, 7	; 14
    5294:	fe cf       	rjmp	.-4      	; 0x5292 <xmit_datablock+0x76>
	return SPDR;
    5296:	8f b1       	in	r24, 0x0f	; 15
    5298:	90 e0       	ldi	r25, 0x00	; 0
    529a:	8f 71       	andi	r24, 0x1F	; 31
    529c:	85 30       	cpi	r24, 0x05	; 5
    529e:	09 f0       	breq	.+2      	; 0x52a2 <xmit_datablock+0x86>
    52a0:	91 e0       	ldi	r25, 0x01	; 1
    52a2:	81 e0       	ldi	r24, 0x01	; 1
    52a4:	98 27       	eor	r25, r24
    52a6:	29 2f       	mov	r18, r25
    52a8:	30 e0       	ldi	r19, 0x00	; 0
		if ((resp & 0x1F) != 0x05)		/* If not accepted, return with error */
			return 0;
	}

	return 1;
}
    52aa:	c9 01       	movw	r24, r18
    52ac:	08 95       	ret

000052ae <send_cmd>:
static
BYTE send_cmd (		/* Returns R1 resp (bit7==1:Send failed) */
	BYTE cmd,		/* Command index */
	DWORD arg		/* Argument */
)
{
    52ae:	df 92       	push	r13
    52b0:	ef 92       	push	r14
    52b2:	ff 92       	push	r15
    52b4:	0f 93       	push	r16
    52b6:	1f 93       	push	r17
    52b8:	d8 2e       	mov	r13, r24
    52ba:	7a 01       	movw	r14, r20
    52bc:	8b 01       	movw	r16, r22
	BYTE n, res;


	if (cmd & 0x80) {	/* ACMD<n> is the command sequense of CMD55-CMD<n> */
    52be:	87 ff       	sbrs	r24, 7
    52c0:	0c c0       	rjmp	.+24     	; 0x52da <send_cmd+0x2c>
		cmd &= 0x7F;
		res = send_cmd(CMD55, 0);
    52c2:	87 e3       	ldi	r24, 0x37	; 55
    52c4:	40 e0       	ldi	r20, 0x00	; 0
    52c6:	50 e0       	ldi	r21, 0x00	; 0
    52c8:	60 e0       	ldi	r22, 0x00	; 0
    52ca:	70 e0       	ldi	r23, 0x00	; 0
    52cc:	0e 94 57 29 	call	0x52ae	; 0x52ae <send_cmd>
		if (res > 1) return res;
    52d0:	82 30       	cpi	r24, 0x02	; 2
    52d2:	08 f0       	brcs	.+2      	; 0x52d6 <send_cmd+0x28>
    52d4:	62 c0       	rjmp	.+196    	; 0x539a <send_cmd+0xec>
{
	BYTE n, res;


	if (cmd & 0x80) {	/* ACMD<n> is the command sequense of CMD55-CMD<n> */
		cmd &= 0x7F;
    52d6:	8f e7       	ldi	r24, 0x7F	; 127
    52d8:	d8 22       	and	r13, r24
/*-----------------------------------------------------------------------*/

static
void deselect (void)
{
	CS_HIGH();
    52da:	c0 9a       	sbi	0x18, 0	; 24
/*-----------------------------------------------------------------------*/

static
BYTE rcvr_spi (void)
{
	SPDR = 0xFF;
    52dc:	8f ef       	ldi	r24, 0xFF	; 255
    52de:	8f b9       	out	0x0f, r24	; 15
	loop_until_bit_is_set(SPSR, SPIF);
    52e0:	77 9b       	sbis	0x0e, 7	; 14
    52e2:	fe cf       	rjmp	.-4      	; 0x52e0 <send_cmd+0x32>
	return SPDR;
    52e4:	8f b1       	in	r24, 0x0f	; 15
/*-----------------------------------------------------------------------*/

static
int select (void)	/* 1:Successful, 0:Timeout */
{
	CS_LOW();
    52e6:	c0 98       	cbi	0x18, 0	; 24
/*-----------------------------------------------------------------------*/

static
BYTE rcvr_spi (void)
{
	SPDR = 0xFF;
    52e8:	8f ef       	ldi	r24, 0xFF	; 255
    52ea:	8f b9       	out	0x0f, r24	; 15
	loop_until_bit_is_set(SPSR, SPIF);
    52ec:	77 9b       	sbis	0x0e, 7	; 14
    52ee:	fe cf       	rjmp	.-4      	; 0x52ec <send_cmd+0x3e>
	return SPDR;
    52f0:	8f b1       	in	r24, 0x0f	; 15
    52f2:	20 e0       	ldi	r18, 0x00	; 0
    52f4:	30 e0       	ldi	r19, 0x00	; 0
/*-----------------------------------------------------------------------*/

static
BYTE rcvr_spi (void)
{
	SPDR = 0xFF;
    52f6:	6f ef       	ldi	r22, 0xFF	; 255
    52f8:	40 e0       	ldi	r20, 0x00	; 0
    52fa:	50 e9       	ldi	r21, 0x90	; 144
    52fc:	6f b9       	out	0x0f, r22	; 15
	loop_until_bit_is_set(SPSR, SPIF);
    52fe:	77 9b       	sbis	0x0e, 7	; 14
    5300:	fe cf       	rjmp	.-4      	; 0x52fe <send_cmd+0x50>
	return SPDR;
    5302:	8f b1       	in	r24, 0x0f	; 15
{
	int timer = 0;	/* Wait for ready in timeout of 500ms */
	rcvr_spi();
	do
	{
		if (rcvr_spi() == 0xFF) return 1;
    5304:	8f 3f       	cpi	r24, 0xFF	; 255
    5306:	71 f0       	breq	.+28     	; 0x5324 <send_cmd+0x76>
    5308:	ca 01       	movw	r24, r20
    530a:	01 97       	sbiw	r24, 0x01	; 1
    530c:	f1 f7       	brne	.-4      	; 0x530a <send_cmd+0x5c>
		_delay_ms(10);
		timer++;
    530e:	2f 5f       	subi	r18, 0xFF	; 255
    5310:	3f 4f       	sbci	r19, 0xFF	; 255
	}
	while (timer<50);
    5312:	22 33       	cpi	r18, 0x32	; 50
    5314:	31 05       	cpc	r19, r1
    5316:	91 f7       	brne	.-28     	; 0x52fc <send_cmd+0x4e>
    5318:	46 c0       	rjmp	.+140    	; 0x53a6 <send_cmd+0xf8>

static
BYTE rcvr_spi (void)
{
	SPDR = 0xFF;
	loop_until_bit_is_set(SPSR, SPIF);
    531a:	77 9b       	sbis	0x0e, 7	; 14
    531c:	fe cf       	rjmp	.-4      	; 0x531a <send_cmd+0x6c>
	return SPDR;
    531e:	8f b1       	in	r24, 0x0f	; 15
    5320:	8f ef       	ldi	r24, 0xFF	; 255
    5322:	3b c0       	rjmp	.+118    	; 0x539a <send_cmd+0xec>
	/* Select the card and wait for ready */
	deselect();
	if (!select()) return 0xFF;

	/* Send command packet */
	xmit_spi(0x40 | cmd);				/* Start + Command index */
    5324:	8d 2d       	mov	r24, r13
    5326:	80 64       	ori	r24, 0x40	; 64
    5328:	8f b9       	out	0x0f, r24	; 15
    532a:	77 9b       	sbis	0x0e, 7	; 14
    532c:	fe cf       	rjmp	.-4      	; 0x532a <send_cmd+0x7c>
	xmit_spi((BYTE)(arg >> 24));		/* Argument[31..24] */
    532e:	81 2f       	mov	r24, r17
    5330:	99 27       	eor	r25, r25
    5332:	aa 27       	eor	r26, r26
    5334:	bb 27       	eor	r27, r27
    5336:	8f b9       	out	0x0f, r24	; 15
    5338:	77 9b       	sbis	0x0e, 7	; 14
    533a:	fe cf       	rjmp	.-4      	; 0x5338 <send_cmd+0x8a>
	xmit_spi((BYTE)(arg >> 16));		/* Argument[23..16] */
    533c:	c8 01       	movw	r24, r16
    533e:	aa 27       	eor	r26, r26
    5340:	bb 27       	eor	r27, r27
    5342:	8f b9       	out	0x0f, r24	; 15
    5344:	77 9b       	sbis	0x0e, 7	; 14
    5346:	fe cf       	rjmp	.-4      	; 0x5344 <send_cmd+0x96>
	xmit_spi((BYTE)(arg >> 8));			/* Argument[15..8] */
    5348:	bb 27       	eor	r27, r27
    534a:	a1 2f       	mov	r26, r17
    534c:	90 2f       	mov	r25, r16
    534e:	8f 2d       	mov	r24, r15
    5350:	8f b9       	out	0x0f, r24	; 15
    5352:	77 9b       	sbis	0x0e, 7	; 14
    5354:	fe cf       	rjmp	.-4      	; 0x5352 <send_cmd+0xa4>
	xmit_spi((BYTE)arg);				/* Argument[7..0] */
    5356:	ef b8       	out	0x0f, r14	; 15
    5358:	77 9b       	sbis	0x0e, 7	; 14
    535a:	fe cf       	rjmp	.-4      	; 0x5358 <send_cmd+0xaa>
	n = 0x01;							/* Dummy CRC + Stop */
	if (cmd == CMD0) n = 0x95;			/* Valid CRC for CMD0(0) */
    535c:	dd 20       	and	r13, r13
    535e:	11 f4       	brne	.+4      	; 0x5364 <send_cmd+0xb6>
    5360:	85 e9       	ldi	r24, 0x95	; 149
    5362:	06 c0       	rjmp	.+12     	; 0x5370 <send_cmd+0xc2>
	if (cmd == CMD8) n = 0x87;			/* Valid CRC for CMD8(0x1AA) */
    5364:	88 e0       	ldi	r24, 0x08	; 8
    5366:	d8 16       	cp	r13, r24
    5368:	11 f4       	brne	.+4      	; 0x536e <send_cmd+0xc0>
    536a:	87 e8       	ldi	r24, 0x87	; 135
    536c:	01 c0       	rjmp	.+2      	; 0x5370 <send_cmd+0xc2>
    536e:	81 e0       	ldi	r24, 0x01	; 1
	xmit_spi(n);
    5370:	8f b9       	out	0x0f, r24	; 15
    5372:	77 9b       	sbis	0x0e, 7	; 14
    5374:	fe cf       	rjmp	.-4      	; 0x5372 <send_cmd+0xc4>

	/* Receive command response */
	if (cmd == CMD12) rcvr_spi();		/* Skip a stuff byte when stop reading */
    5376:	8c e0       	ldi	r24, 0x0C	; 12
    5378:	d8 16       	cp	r13, r24
    537a:	29 f4       	brne	.+10     	; 0x5386 <send_cmd+0xd8>
/*-----------------------------------------------------------------------*/

static
BYTE rcvr_spi (void)
{
	SPDR = 0xFF;
    537c:	8f ef       	ldi	r24, 0xFF	; 255
    537e:	8f b9       	out	0x0f, r24	; 15
	loop_until_bit_is_set(SPSR, SPIF);
    5380:	77 9b       	sbis	0x0e, 7	; 14
    5382:	fe cf       	rjmp	.-4      	; 0x5380 <send_cmd+0xd2>
	return SPDR;
    5384:	8f b1       	in	r24, 0x0f	; 15
    5386:	9a e0       	ldi	r25, 0x0A	; 10
/*-----------------------------------------------------------------------*/

static
BYTE rcvr_spi (void)
{
	SPDR = 0xFF;
    5388:	2f ef       	ldi	r18, 0xFF	; 255
    538a:	2f b9       	out	0x0f, r18	; 15
	loop_until_bit_is_set(SPSR, SPIF);
    538c:	77 9b       	sbis	0x0e, 7	; 14
    538e:	fe cf       	rjmp	.-4      	; 0x538c <send_cmd+0xde>
	return SPDR;
    5390:	8f b1       	in	r24, 0x0f	; 15
	/* Receive command response */
	if (cmd == CMD12) rcvr_spi();		/* Skip a stuff byte when stop reading */
	n = 10;								/* Wait for a valid response in timeout of 10 attempts */
	do
		res = rcvr_spi();
	while ((res & 0x80) && --n);
    5392:	87 ff       	sbrs	r24, 7
    5394:	02 c0       	rjmp	.+4      	; 0x539a <send_cmd+0xec>
    5396:	91 50       	subi	r25, 0x01	; 1
    5398:	c1 f7       	brne	.-16     	; 0x538a <send_cmd+0xdc>

	return res;			/* Return with the response value */
}
    539a:	1f 91       	pop	r17
    539c:	0f 91       	pop	r16
    539e:	ff 90       	pop	r15
    53a0:	ef 90       	pop	r14
    53a2:	df 90       	pop	r13
    53a4:	08 95       	ret
/*-----------------------------------------------------------------------*/

static
void deselect (void)
{
	CS_HIGH();
    53a6:	c0 9a       	sbi	0x18, 0	; 24
/*-----------------------------------------------------------------------*/

static
BYTE rcvr_spi (void)
{
	SPDR = 0xFF;
    53a8:	8f ef       	ldi	r24, 0xFF	; 255
    53aa:	8f b9       	out	0x0f, r24	; 15
    53ac:	b6 cf       	rjmp	.-148    	; 0x531a <send_cmd+0x6c>

000053ae <disk_status>:

DSTATUS disk_status (
	BYTE drv		/* Physical drive nmuber (0) */
)
{
	if (drv) return STA_NOINIT;		/* Supports only single drive */
    53ae:	88 23       	and	r24, r24
    53b0:	11 f0       	breq	.+4      	; 0x53b6 <disk_status+0x8>
    53b2:	81 e0       	ldi	r24, 0x01	; 1
    53b4:	08 95       	ret
	return Stat;
    53b6:	80 91 cd 01 	lds	r24, 0x01CD
}
    53ba:	08 95       	ret

000053bc <disk_read>:
	BYTE drv,			/* Physical drive nmuber (0) */
	BYTE *buff,			/* Pointer to the data buffer to store read data */
	DWORD sector,		/* Start sector number (LBA) */
	BYTE count			/* Sector count (1..255) */
)
{
    53bc:	0f 93       	push	r16
    53be:	cf 93       	push	r28
    53c0:	df 93       	push	r29
    53c2:	eb 01       	movw	r28, r22
	if (drv || !count) return RES_PARERR;
    53c4:	88 23       	and	r24, r24
    53c6:	09 f0       	breq	.+2      	; 0x53ca <disk_read+0xe>
    53c8:	4b c0       	rjmp	.+150    	; 0x5460 <disk_read+0xa4>
    53ca:	00 23       	and	r16, r16
    53cc:	09 f4       	brne	.+2      	; 0x53d0 <disk_read+0x14>
    53ce:	48 c0       	rjmp	.+144    	; 0x5460 <disk_read+0xa4>
	if (Stat & STA_NOINIT) return RES_NOTRDY;
    53d0:	80 91 cd 01 	lds	r24, 0x01CD
    53d4:	80 ff       	sbrs	r24, 0
    53d6:	02 c0       	rjmp	.+4      	; 0x53dc <disk_read+0x20>
    53d8:	03 e0       	ldi	r16, 0x03	; 3
    53da:	43 c0       	rjmp	.+134    	; 0x5462 <disk_read+0xa6>

	if (!(CardType & CT_BLOCK)) sector *= 512;	/* Convert to byte address if needed */
    53dc:	80 91 0c 05 	lds	r24, 0x050C
    53e0:	83 fd       	sbrc	r24, 3
    53e2:	07 c0       	rjmp	.+14     	; 0x53f2 <disk_read+0x36>
    53e4:	69 e0       	ldi	r22, 0x09	; 9
    53e6:	22 0f       	add	r18, r18
    53e8:	33 1f       	adc	r19, r19
    53ea:	44 1f       	adc	r20, r20
    53ec:	55 1f       	adc	r21, r21
    53ee:	6a 95       	dec	r22
    53f0:	d1 f7       	brne	.-12     	; 0x53e6 <disk_read+0x2a>

	if (count == 1) {	/* Single block read */
    53f2:	01 30       	cpi	r16, 0x01	; 1
    53f4:	89 f4       	brne	.+34     	; 0x5418 <disk_read+0x5c>
		if ((send_cmd(CMD17, sector) == 0)	/* READ_SINGLE_BLOCK */
    53f6:	81 e1       	ldi	r24, 0x11	; 17
    53f8:	ba 01       	movw	r22, r20
    53fa:	a9 01       	movw	r20, r18
    53fc:	0e 94 57 29 	call	0x52ae	; 0x52ae <send_cmd>
    5400:	88 23       	and	r24, r24
    5402:	21 f5       	brne	.+72     	; 0x544c <disk_read+0x90>
    5404:	ce 01       	movw	r24, r28
    5406:	60 e0       	ldi	r22, 0x00	; 0
    5408:	72 e0       	ldi	r23, 0x02	; 2
    540a:	0e 94 cd 28 	call	0x519a	; 0x519a <rcvr_datablock>
    540e:	00 e0       	ldi	r16, 0x00	; 0
    5410:	89 2b       	or	r24, r25
    5412:	e1 f4       	brne	.+56     	; 0x544c <disk_read+0x90>
    5414:	01 e0       	ldi	r16, 0x01	; 1
    5416:	1a c0       	rjmp	.+52     	; 0x544c <disk_read+0x90>
			&& rcvr_datablock(buff, 512))
			count = 0;
	}
	else {				/* Multiple block read */
		if (send_cmd(CMD18, sector) == 0) {	/* READ_MULTIPLE_BLOCK */
    5418:	82 e1       	ldi	r24, 0x12	; 18
    541a:	ba 01       	movw	r22, r20
    541c:	a9 01       	movw	r20, r18
    541e:	0e 94 57 29 	call	0x52ae	; 0x52ae <send_cmd>
    5422:	88 23       	and	r24, r24
    5424:	99 f4       	brne	.+38     	; 0x544c <disk_read+0x90>
			do {
				if (!rcvr_datablock(buff, 512)) break;
    5426:	ce 01       	movw	r24, r28
    5428:	60 e0       	ldi	r22, 0x00	; 0
    542a:	72 e0       	ldi	r23, 0x02	; 2
    542c:	0e 94 cd 28 	call	0x519a	; 0x519a <rcvr_datablock>
    5430:	89 2b       	or	r24, r25
    5432:	29 f0       	breq	.+10     	; 0x543e <disk_read+0x82>
				buff += 512;
			} while (--count);
    5434:	01 50       	subi	r16, 0x01	; 1
    5436:	19 f0       	breq	.+6      	; 0x543e <disk_read+0x82>
	}
	else {				/* Multiple block read */
		if (send_cmd(CMD18, sector) == 0) {	/* READ_MULTIPLE_BLOCK */
			do {
				if (!rcvr_datablock(buff, 512)) break;
				buff += 512;
    5438:	c0 50       	subi	r28, 0x00	; 0
    543a:	de 4f       	sbci	r29, 0xFE	; 254
    543c:	f4 cf       	rjmp	.-24     	; 0x5426 <disk_read+0x6a>
			} while (--count);
			send_cmd(CMD12, 0);				/* STOP_TRANSMISSION */
    543e:	8c e0       	ldi	r24, 0x0C	; 12
    5440:	40 e0       	ldi	r20, 0x00	; 0
    5442:	50 e0       	ldi	r21, 0x00	; 0
    5444:	60 e0       	ldi	r22, 0x00	; 0
    5446:	70 e0       	ldi	r23, 0x00	; 0
    5448:	0e 94 57 29 	call	0x52ae	; 0x52ae <send_cmd>
/*-----------------------------------------------------------------------*/

static
void deselect (void)
{
	CS_HIGH();
    544c:	c0 9a       	sbi	0x18, 0	; 24
/*-----------------------------------------------------------------------*/

static
BYTE rcvr_spi (void)
{
	SPDR = 0xFF;
    544e:	8f ef       	ldi	r24, 0xFF	; 255
    5450:	8f b9       	out	0x0f, r24	; 15
	loop_until_bit_is_set(SPSR, SPIF);
    5452:	77 9b       	sbis	0x0e, 7	; 14
    5454:	fe cf       	rjmp	.-4      	; 0x5452 <disk_read+0x96>
	return SPDR;
    5456:	8f b1       	in	r24, 0x0f	; 15
			send_cmd(CMD12, 0);				/* STOP_TRANSMISSION */
		}
	}
	deselect();

	return count ? RES_ERROR : RES_OK;
    5458:	00 23       	and	r16, r16
    545a:	19 f0       	breq	.+6      	; 0x5462 <disk_read+0xa6>
    545c:	01 e0       	ldi	r16, 0x01	; 1
    545e:	01 c0       	rjmp	.+2      	; 0x5462 <disk_read+0xa6>
    5460:	04 e0       	ldi	r16, 0x04	; 4
}
    5462:	80 2f       	mov	r24, r16
    5464:	df 91       	pop	r29
    5466:	cf 91       	pop	r28
    5468:	0f 91       	pop	r16
    546a:	08 95       	ret

0000546c <disk_write>:
	BYTE drv,			/* Physical drive nmuber (0) */
	const BYTE *buff,	/* Pointer to the data to be written */
	DWORD sector,		/* Start sector number (LBA) */
	BYTE count			/* Sector count (1..255) */
)
{
    546c:	cf 92       	push	r12
    546e:	df 92       	push	r13
    5470:	ef 92       	push	r14
    5472:	ff 92       	push	r15
    5474:	0f 93       	push	r16
    5476:	cf 93       	push	r28
    5478:	df 93       	push	r29
    547a:	eb 01       	movw	r28, r22
    547c:	69 01       	movw	r12, r18
    547e:	7a 01       	movw	r14, r20
	if (drv || !count) return RES_PARERR;
    5480:	88 23       	and	r24, r24
    5482:	09 f0       	breq	.+2      	; 0x5486 <disk_write+0x1a>
    5484:	59 c0       	rjmp	.+178    	; 0x5538 <disk_write+0xcc>
    5486:	00 23       	and	r16, r16
    5488:	09 f4       	brne	.+2      	; 0x548c <disk_write+0x20>
    548a:	56 c0       	rjmp	.+172    	; 0x5538 <disk_write+0xcc>
	if (Stat & STA_NOINIT) return RES_NOTRDY;
    548c:	80 91 cd 01 	lds	r24, 0x01CD
    5490:	80 ff       	sbrs	r24, 0
    5492:	02 c0       	rjmp	.+4      	; 0x5498 <disk_write+0x2c>
    5494:	03 e0       	ldi	r16, 0x03	; 3
    5496:	51 c0       	rjmp	.+162    	; 0x553a <disk_write+0xce>
	if (Stat & STA_PROTECT) return RES_WRPRT;
    5498:	80 91 cd 01 	lds	r24, 0x01CD
    549c:	82 ff       	sbrs	r24, 2
    549e:	02 c0       	rjmp	.+4      	; 0x54a4 <disk_write+0x38>
    54a0:	02 e0       	ldi	r16, 0x02	; 2
    54a2:	4b c0       	rjmp	.+150    	; 0x553a <disk_write+0xce>

	if (!(CardType & CT_BLOCK)) sector *= 512;	/* Convert to byte address if needed */
    54a4:	80 91 0c 05 	lds	r24, 0x050C
    54a8:	90 e0       	ldi	r25, 0x00	; 0
    54aa:	83 fd       	sbrc	r24, 3
    54ac:	07 c0       	rjmp	.+14     	; 0x54bc <disk_write+0x50>
    54ae:	79 e0       	ldi	r23, 0x09	; 9
    54b0:	cc 0c       	add	r12, r12
    54b2:	dd 1c       	adc	r13, r13
    54b4:	ee 1c       	adc	r14, r14
    54b6:	ff 1c       	adc	r15, r15
    54b8:	7a 95       	dec	r23
    54ba:	d1 f7       	brne	.-12     	; 0x54b0 <disk_write+0x44>

	if (count == 1) {	/* Single block write */
    54bc:	01 30       	cpi	r16, 0x01	; 1
    54be:	69 f4       	brne	.+26     	; 0x54da <disk_write+0x6e>
		if ((send_cmd(CMD24, sector) == 0)	/* WRITE_BLOCK */
    54c0:	88 e1       	ldi	r24, 0x18	; 24
    54c2:	b7 01       	movw	r22, r14
    54c4:	a6 01       	movw	r20, r12
    54c6:	0e 94 57 29 	call	0x52ae	; 0x52ae <send_cmd>
    54ca:	88 23       	and	r24, r24
    54cc:	59 f5       	brne	.+86     	; 0x5524 <disk_write+0xb8>
    54ce:	ce 01       	movw	r24, r28
    54d0:	6e ef       	ldi	r22, 0xFE	; 254
    54d2:	0e 94 0e 29 	call	0x521c	; 0x521c <xmit_datablock>
    54d6:	00 e0       	ldi	r16, 0x00	; 0
    54d8:	22 c0       	rjmp	.+68     	; 0x551e <disk_write+0xb2>
			&& xmit_datablock(buff, 0xFE))
			count = 0;
	}
	else {				/* Multiple block write */
		if (CardType & CT_SDC) send_cmd(ACMD23, count);
    54da:	86 70       	andi	r24, 0x06	; 6
    54dc:	90 70       	andi	r25, 0x00	; 0
    54de:	89 2b       	or	r24, r25
    54e0:	39 f0       	breq	.+14     	; 0x54f0 <disk_write+0x84>
    54e2:	40 2f       	mov	r20, r16
    54e4:	50 e0       	ldi	r21, 0x00	; 0
    54e6:	60 e0       	ldi	r22, 0x00	; 0
    54e8:	70 e0       	ldi	r23, 0x00	; 0
    54ea:	87 e9       	ldi	r24, 0x97	; 151
    54ec:	0e 94 57 29 	call	0x52ae	; 0x52ae <send_cmd>
		if (send_cmd(CMD25, sector) == 0) {	/* WRITE_MULTIPLE_BLOCK */
    54f0:	89 e1       	ldi	r24, 0x19	; 25
    54f2:	b7 01       	movw	r22, r14
    54f4:	a6 01       	movw	r20, r12
    54f6:	0e 94 57 29 	call	0x52ae	; 0x52ae <send_cmd>
    54fa:	88 23       	and	r24, r24
    54fc:	99 f4       	brne	.+38     	; 0x5524 <disk_write+0xb8>
			do {
				if (!xmit_datablock(buff, 0xFC)) break;
    54fe:	ce 01       	movw	r24, r28
    5500:	6c ef       	ldi	r22, 0xFC	; 252
    5502:	0e 94 0e 29 	call	0x521c	; 0x521c <xmit_datablock>
    5506:	89 2b       	or	r24, r25
    5508:	29 f0       	breq	.+10     	; 0x5514 <disk_write+0xa8>
				buff += 512;
			} while (--count);
    550a:	01 50       	subi	r16, 0x01	; 1
    550c:	19 f0       	breq	.+6      	; 0x5514 <disk_write+0xa8>
	else {				/* Multiple block write */
		if (CardType & CT_SDC) send_cmd(ACMD23, count);
		if (send_cmd(CMD25, sector) == 0) {	/* WRITE_MULTIPLE_BLOCK */
			do {
				if (!xmit_datablock(buff, 0xFC)) break;
				buff += 512;
    550e:	c0 50       	subi	r28, 0x00	; 0
    5510:	de 4f       	sbci	r29, 0xFE	; 254
    5512:	f5 cf       	rjmp	.-22     	; 0x54fe <disk_write+0x92>
			} while (--count);
			if (!xmit_datablock(0, 0xFD))	/* STOP_TRAN token */
    5514:	80 e0       	ldi	r24, 0x00	; 0
    5516:	90 e0       	ldi	r25, 0x00	; 0
    5518:	6d ef       	ldi	r22, 0xFD	; 253
    551a:	0e 94 0e 29 	call	0x521c	; 0x521c <xmit_datablock>
    551e:	89 2b       	or	r24, r25
    5520:	09 f4       	brne	.+2      	; 0x5524 <disk_write+0xb8>
    5522:	01 e0       	ldi	r16, 0x01	; 1
/*-----------------------------------------------------------------------*/

static
void deselect (void)
{
	CS_HIGH();
    5524:	c0 9a       	sbi	0x18, 0	; 24
/*-----------------------------------------------------------------------*/

static
BYTE rcvr_spi (void)
{
	SPDR = 0xFF;
    5526:	8f ef       	ldi	r24, 0xFF	; 255
    5528:	8f b9       	out	0x0f, r24	; 15
	loop_until_bit_is_set(SPSR, SPIF);
    552a:	77 9b       	sbis	0x0e, 7	; 14
    552c:	fe cf       	rjmp	.-4      	; 0x552a <disk_write+0xbe>
	return SPDR;
    552e:	8f b1       	in	r24, 0x0f	; 15
				count = 1;
		}
	}
	deselect();

	return count ? RES_ERROR : RES_OK;
    5530:	00 23       	and	r16, r16
    5532:	19 f0       	breq	.+6      	; 0x553a <disk_write+0xce>
    5534:	01 e0       	ldi	r16, 0x01	; 1
    5536:	01 c0       	rjmp	.+2      	; 0x553a <disk_write+0xce>
    5538:	04 e0       	ldi	r16, 0x04	; 4
}
    553a:	80 2f       	mov	r24, r16
    553c:	df 91       	pop	r29
    553e:	cf 91       	pop	r28
    5540:	0f 91       	pop	r16
    5542:	ff 90       	pop	r15
    5544:	ef 90       	pop	r14
    5546:	df 90       	pop	r13
    5548:	cf 90       	pop	r12
    554a:	08 95       	ret

0000554c <disk_ioctl>:
DRESULT disk_ioctl (
	BYTE drv,		/* Physical drive nmuber (0) */
	BYTE ctrl,		/* Control code */
	void *buff		/* Buffer to send/receive control data */
)
{
    554c:	ff 92       	push	r15
    554e:	0f 93       	push	r16
    5550:	1f 93       	push	r17
    5552:	df 93       	push	r29
    5554:	cf 93       	push	r28
    5556:	cd b7       	in	r28, 0x3d	; 61
    5558:	de b7       	in	r29, 0x3e	; 62
    555a:	60 97       	sbiw	r28, 0x10	; 16
    555c:	0f b6       	in	r0, 0x3f	; 63
    555e:	f8 94       	cli
    5560:	de bf       	out	0x3e, r29	; 62
    5562:	0f be       	out	0x3f, r0	; 63
    5564:	cd bf       	out	0x3d, r28	; 61
    5566:	8a 01       	movw	r16, r20
	DRESULT res;
	BYTE n, csd[16], *ptr = buff;
	WORD csize;


	if (drv) return RES_PARERR;
    5568:	88 23       	and	r24, r24
    556a:	09 f0       	breq	.+2      	; 0x556e <disk_ioctl+0x22>
    556c:	a9 c1       	rjmp	.+850    	; 0x58c0 <disk_ioctl+0x374>

	res = RES_ERROR;

	if (ctrl == CTRL_POWER) {
    556e:	64 30       	cpi	r22, 0x04	; 4
    5570:	d1 f4       	brne	.+52     	; 0x55a6 <disk_ioctl+0x5a>
		switch (ptr[0]) {
    5572:	fa 01       	movw	r30, r20
    5574:	90 81       	ld	r25, Z
    5576:	99 23       	and	r25, r25
    5578:	21 f0       	breq	.+8      	; 0x5582 <disk_ioctl+0x36>
    557a:	91 30       	cpi	r25, 0x01	; 1
    557c:	09 f0       	breq	.+2      	; 0x5580 <disk_ioctl+0x34>
    557e:	a0 c1       	rjmp	.+832    	; 0x58c0 <disk_ioctl+0x374>
    5580:	0b c0       	rjmp	.+22     	; 0x5598 <disk_ioctl+0x4c>


static
void power_off (void)
{
	SPCR = 0;				// Disable SPI function 
    5582:	1d b8       	out	0x0d, r1	; 13
	DDRB  = 0b11000000;		//Disable drivers 
    5584:	80 ec       	ldi	r24, 0xC0	; 192
    5586:	87 bb       	out	0x17, r24	; 23
	PORTB = 0b10110000;
    5588:	80 eb       	ldi	r24, 0xB0	; 176
    558a:	88 bb       	out	0x18, r24	; 24

//	PORTC |=  0x80;			// Socket power off 
	Stat |= STA_NOINIT;
    558c:	80 91 cd 01 	lds	r24, 0x01CD
    5590:	81 60       	ori	r24, 0x01	; 1
    5592:	80 93 cd 01 	sts	0x01CD, r24
    5596:	05 c0       	rjmp	.+10     	; 0x55a2 <disk_ioctl+0x56>
/* is nothing to do in these functions and chk_power always returns 1.   */

static
int power_status(void)		// Socket power state: 0=off, 1=on 
{
	return (PORTC & 0x80) ? 0 : 1;
    5598:	85 b3       	in	r24, 0x15	; 21
		case 0:		/* Sub control code (POWER_OFF) */
			power_off();		/* Power off */
			res = RES_OK;
			break;
		case 1:		/* Sub control code (POWER_GET) */
			ptr[1] = (BYTE)power_status();
    559a:	fa 01       	movw	r30, r20
    559c:	11 82       	std	Z+1, r1	; 0x01
    559e:	87 ff       	sbrs	r24, 7
    55a0:	91 83       	std	Z+1, r25	; 0x01
    55a2:	20 e0       	ldi	r18, 0x00	; 0
    55a4:	8e c1       	rjmp	.+796    	; 0x58c2 <disk_ioctl+0x376>
		default :
			res = RES_PARERR;
		}
	}
	else {
		if (Stat & STA_NOINIT) return RES_NOTRDY;
    55a6:	80 91 cd 01 	lds	r24, 0x01CD
    55aa:	80 ff       	sbrs	r24, 0
    55ac:	02 c0       	rjmp	.+4      	; 0x55b2 <disk_ioctl+0x66>
    55ae:	23 e0       	ldi	r18, 0x03	; 3
    55b0:	88 c1       	rjmp	.+784    	; 0x58c2 <disk_ioctl+0x376>

		switch (ctrl) {
    55b2:	6a 30       	cpi	r22, 0x0A	; 10
    55b4:	09 f4       	brne	.+2      	; 0x55b8 <disk_ioctl+0x6c>
    55b6:	3a c1       	rjmp	.+628    	; 0x582c <disk_ioctl+0x2e0>
    55b8:	6b 30       	cpi	r22, 0x0B	; 11
    55ba:	50 f4       	brcc	.+20     	; 0x55d0 <disk_ioctl+0x84>
    55bc:	61 30       	cpi	r22, 0x01	; 1
    55be:	d1 f1       	breq	.+116    	; 0x5634 <disk_ioctl+0xe8>
    55c0:	61 30       	cpi	r22, 0x01	; 1
    55c2:	a0 f0       	brcs	.+40     	; 0x55ec <disk_ioctl+0xa0>
    55c4:	62 30       	cpi	r22, 0x02	; 2
    55c6:	09 f4       	brne	.+2      	; 0x55ca <disk_ioctl+0x7e>
    55c8:	9b c0       	rjmp	.+310    	; 0x5700 <disk_ioctl+0x1b4>
    55ca:	63 30       	cpi	r22, 0x03	; 3
    55cc:	69 f4       	brne	.+26     	; 0x55e8 <disk_ioctl+0x9c>
    55ce:	9e c0       	rjmp	.+316    	; 0x570c <disk_ioctl+0x1c0>
    55d0:	6c 30       	cpi	r22, 0x0C	; 12
    55d2:	09 f4       	brne	.+2      	; 0x55d6 <disk_ioctl+0x8a>
    55d4:	32 c1       	rjmp	.+612    	; 0x583a <disk_ioctl+0x2ee>
    55d6:	6c 30       	cpi	r22, 0x0C	; 12
    55d8:	08 f4       	brcc	.+2      	; 0x55dc <disk_ioctl+0x90>
    55da:	2d c1       	rjmp	.+602    	; 0x5836 <disk_ioctl+0x2ea>
    55dc:	6d 30       	cpi	r22, 0x0D	; 13
    55de:	09 f4       	brne	.+2      	; 0x55e2 <disk_ioctl+0x96>
    55e0:	39 c1       	rjmp	.+626    	; 0x5854 <disk_ioctl+0x308>
    55e2:	6e 30       	cpi	r22, 0x0E	; 14
    55e4:	09 f4       	brne	.+2      	; 0x55e8 <disk_ioctl+0x9c>
    55e6:	4e c1       	rjmp	.+668    	; 0x5884 <disk_ioctl+0x338>
    55e8:	24 e0       	ldi	r18, 0x04	; 4
    55ea:	63 c1       	rjmp	.+710    	; 0x58b2 <disk_ioctl+0x366>
/*-----------------------------------------------------------------------*/

static
int select (void)	/* 1:Successful, 0:Timeout */
{
	CS_LOW();
    55ec:	c0 98       	cbi	0x18, 0	; 24
/*-----------------------------------------------------------------------*/

static
BYTE rcvr_spi (void)
{
	SPDR = 0xFF;
    55ee:	8f ef       	ldi	r24, 0xFF	; 255
    55f0:	8f b9       	out	0x0f, r24	; 15
	loop_until_bit_is_set(SPSR, SPIF);
    55f2:	77 9b       	sbis	0x0e, 7	; 14
    55f4:	fe cf       	rjmp	.-4      	; 0x55f2 <disk_ioctl+0xa6>
	return SPDR;
    55f6:	8f b1       	in	r24, 0x0f	; 15
    55f8:	20 e0       	ldi	r18, 0x00	; 0
    55fa:	30 e0       	ldi	r19, 0x00	; 0
/*-----------------------------------------------------------------------*/

static
BYTE rcvr_spi (void)
{
	SPDR = 0xFF;
    55fc:	6f ef       	ldi	r22, 0xFF	; 255
    55fe:	40 e0       	ldi	r20, 0x00	; 0
    5600:	50 e9       	ldi	r21, 0x90	; 144
    5602:	6f b9       	out	0x0f, r22	; 15
	loop_until_bit_is_set(SPSR, SPIF);
    5604:	77 9b       	sbis	0x0e, 7	; 14
    5606:	fe cf       	rjmp	.-4      	; 0x5604 <disk_ioctl+0xb8>
	return SPDR;
    5608:	8f b1       	in	r24, 0x0f	; 15
{
	int timer = 0;	/* Wait for ready in timeout of 500ms */
	rcvr_spi();
	do
	{
		if (rcvr_spi() == 0xFF) return 1;
    560a:	8f 3f       	cpi	r24, 0xFF	; 255
    560c:	69 f0       	breq	.+26     	; 0x5628 <disk_ioctl+0xdc>
    560e:	ca 01       	movw	r24, r20
    5610:	01 97       	sbiw	r24, 0x01	; 1
    5612:	f1 f7       	brne	.-4      	; 0x5610 <disk_ioctl+0xc4>
		_delay_ms(10);
		timer++;
    5614:	2f 5f       	subi	r18, 0xFF	; 255
    5616:	3f 4f       	sbci	r19, 0xFF	; 255
	}
	while (timer<50);
    5618:	22 33       	cpi	r18, 0x32	; 50
    561a:	31 05       	cpc	r19, r1
    561c:	91 f7       	brne	.-28     	; 0x5602 <disk_ioctl+0xb6>
    561e:	5e c1       	rjmp	.+700    	; 0x58dc <disk_ioctl+0x390>

static
BYTE rcvr_spi (void)
{
	SPDR = 0xFF;
	loop_until_bit_is_set(SPSR, SPIF);
    5620:	77 9b       	sbis	0x0e, 7	; 14
    5622:	fe cf       	rjmp	.-4      	; 0x5620 <disk_ioctl+0xd4>
	return SPDR;
    5624:	8f b1       	in	r24, 0x0f	; 15
    5626:	44 c1       	rjmp	.+648    	; 0x58b0 <disk_ioctl+0x364>
/*-----------------------------------------------------------------------*/

static
void deselect (void)
{
	CS_HIGH();
    5628:	c0 9a       	sbi	0x18, 0	; 24
/*-----------------------------------------------------------------------*/

static
BYTE rcvr_spi (void)
{
	SPDR = 0xFF;
    562a:	8f b9       	out	0x0f, r24	; 15
	loop_until_bit_is_set(SPSR, SPIF);
    562c:	77 9b       	sbis	0x0e, 7	; 14
    562e:	fe cf       	rjmp	.-4      	; 0x562c <disk_ioctl+0xe0>
	return SPDR;
    5630:	8f b1       	in	r24, 0x0f	; 15
    5632:	fa c0       	rjmp	.+500    	; 0x5828 <disk_ioctl+0x2dc>
				res = RES_OK;
			}
			break;

		case GET_SECTOR_COUNT :	/* Get number of sectors on the disk (DWORD) */
			if ((send_cmd(CMD9, 0) == 0) && rcvr_datablock(csd, 16)) {
    5634:	89 e0       	ldi	r24, 0x09	; 9
    5636:	40 e0       	ldi	r20, 0x00	; 0
    5638:	50 e0       	ldi	r21, 0x00	; 0
    563a:	60 e0       	ldi	r22, 0x00	; 0
    563c:	70 e0       	ldi	r23, 0x00	; 0
    563e:	0e 94 57 29 	call	0x52ae	; 0x52ae <send_cmd>
    5642:	88 23       	and	r24, r24
    5644:	09 f0       	breq	.+2      	; 0x5648 <disk_ioctl+0xfc>
    5646:	34 c1       	rjmp	.+616    	; 0x58b0 <disk_ioctl+0x364>
    5648:	ce 01       	movw	r24, r28
    564a:	01 96       	adiw	r24, 0x01	; 1
    564c:	60 e1       	ldi	r22, 0x10	; 16
    564e:	70 e0       	ldi	r23, 0x00	; 0
    5650:	0e 94 cd 28 	call	0x519a	; 0x519a <rcvr_datablock>
    5654:	89 2b       	or	r24, r25
    5656:	09 f4       	brne	.+2      	; 0x565a <disk_ioctl+0x10e>
    5658:	2b c1       	rjmp	.+598    	; 0x58b0 <disk_ioctl+0x364>
				if ((csd[0] >> 6) == 1) {	/* SDC ver 2.00 */
    565a:	89 81       	ldd	r24, Y+1	; 0x01
    565c:	82 95       	swap	r24
    565e:	86 95       	lsr	r24
    5660:	86 95       	lsr	r24
    5662:	83 70       	andi	r24, 0x03	; 3
    5664:	7a 85       	ldd	r23, Y+10	; 0x0a
    5666:	49 85       	ldd	r20, Y+9	; 0x09
    5668:	81 30       	cpi	r24, 0x01	; 1
    566a:	b1 f4       	brne	.+44     	; 0x5698 <disk_ioctl+0x14c>
					csize = csd[9] + ((WORD)csd[8] << 8) + 1;
					*(DWORD*)buff = (DWORD)csize << 10;
    566c:	87 2f       	mov	r24, r23
    566e:	90 e0       	ldi	r25, 0x00	; 0
    5670:	01 96       	adiw	r24, 0x01	; 1
    5672:	34 2f       	mov	r19, r20
    5674:	20 e0       	ldi	r18, 0x00	; 0
    5676:	82 0f       	add	r24, r18
    5678:	93 1f       	adc	r25, r19
    567a:	a0 e0       	ldi	r26, 0x00	; 0
    567c:	b0 e0       	ldi	r27, 0x00	; 0
    567e:	3a e0       	ldi	r19, 0x0A	; 10
    5680:	88 0f       	add	r24, r24
    5682:	99 1f       	adc	r25, r25
    5684:	aa 1f       	adc	r26, r26
    5686:	bb 1f       	adc	r27, r27
    5688:	3a 95       	dec	r19
    568a:	d1 f7       	brne	.-12     	; 0x5680 <disk_ioctl+0x134>
    568c:	f8 01       	movw	r30, r16
    568e:	80 83       	st	Z, r24
    5690:	91 83       	std	Z+1, r25	; 0x01
    5692:	a2 83       	std	Z+2, r26	; 0x02
    5694:	b3 83       	std	Z+3, r27	; 0x03
    5696:	0d c1       	rjmp	.+538    	; 0x58b2 <disk_ioctl+0x366>
				} else {					/* SDC ver 1.XX or MMC*/
					n = (csd[5] & 15) + ((csd[10] & 128) >> 7) + ((csd[9] & 3) << 1) + 2;
					csize = (csd[8] >> 6) + ((WORD)csd[7] << 2) + ((WORD)(csd[6] & 3) << 10) + 1;
					*(DWORD*)buff = (DWORD)csize << (n - 9);
    5698:	42 95       	swap	r20
    569a:	46 95       	lsr	r20
    569c:	46 95       	lsr	r20
    569e:	43 70       	andi	r20, 0x03	; 3
    56a0:	28 85       	ldd	r18, Y+8	; 0x08
    56a2:	30 e0       	ldi	r19, 0x00	; 0
    56a4:	22 0f       	add	r18, r18
    56a6:	33 1f       	adc	r19, r19
    56a8:	22 0f       	add	r18, r18
    56aa:	33 1f       	adc	r19, r19
    56ac:	24 0f       	add	r18, r20
    56ae:	31 1d       	adc	r19, r1
    56b0:	2f 5f       	subi	r18, 0xFF	; 255
    56b2:	3f 4f       	sbci	r19, 0xFF	; 255
    56b4:	8f 81       	ldd	r24, Y+7	; 0x07
    56b6:	90 e0       	ldi	r25, 0x00	; 0
    56b8:	83 70       	andi	r24, 0x03	; 3
    56ba:	90 70       	andi	r25, 0x00	; 0
    56bc:	98 2f       	mov	r25, r24
    56be:	88 27       	eor	r24, r24
    56c0:	99 0f       	add	r25, r25
    56c2:	99 0f       	add	r25, r25
    56c4:	28 0f       	add	r18, r24
    56c6:	39 1f       	adc	r19, r25
    56c8:	40 e0       	ldi	r20, 0x00	; 0
    56ca:	50 e0       	ldi	r21, 0x00	; 0
    56cc:	8e 81       	ldd	r24, Y+6	; 0x06
    56ce:	8f 70       	andi	r24, 0x0F	; 15
    56d0:	6b 85       	ldd	r22, Y+11	; 0x0b
    56d2:	66 1f       	adc	r22, r22
    56d4:	66 27       	eor	r22, r22
    56d6:	66 1f       	adc	r22, r22
    56d8:	86 0f       	add	r24, r22
    56da:	8e 5f       	subi	r24, 0xFE	; 254
    56dc:	73 70       	andi	r23, 0x03	; 3
    56de:	77 0f       	add	r23, r23
    56e0:	87 0f       	add	r24, r23
    56e2:	90 e0       	ldi	r25, 0x00	; 0
    56e4:	09 97       	sbiw	r24, 0x09	; 9
    56e6:	04 c0       	rjmp	.+8      	; 0x56f0 <disk_ioctl+0x1a4>
    56e8:	22 0f       	add	r18, r18
    56ea:	33 1f       	adc	r19, r19
    56ec:	44 1f       	adc	r20, r20
    56ee:	55 1f       	adc	r21, r21
    56f0:	8a 95       	dec	r24
    56f2:	d2 f7       	brpl	.-12     	; 0x56e8 <disk_ioctl+0x19c>
    56f4:	f8 01       	movw	r30, r16
    56f6:	20 83       	st	Z, r18
    56f8:	31 83       	std	Z+1, r19	; 0x01
    56fa:	42 83       	std	Z+2, r20	; 0x02
    56fc:	53 83       	std	Z+3, r21	; 0x03
    56fe:	94 c0       	rjmp	.+296    	; 0x5828 <disk_ioctl+0x2dc>
				res = RES_OK;
			}
			break;

		case GET_SECTOR_SIZE :	/* Get R/W sector size (WORD) */
			*(WORD*)buff = 512;
    5700:	80 e0       	ldi	r24, 0x00	; 0
    5702:	92 e0       	ldi	r25, 0x02	; 2
    5704:	fa 01       	movw	r30, r20
    5706:	91 83       	std	Z+1, r25	; 0x01
    5708:	80 83       	st	Z, r24
    570a:	8e c0       	rjmp	.+284    	; 0x5828 <disk_ioctl+0x2dc>
			res = RES_OK;
			break;

		case GET_BLOCK_SIZE :	/* Get erase block size in unit of sector (DWORD) */
			if (CardType & CT_SD2) {	/* SDv2? */
    570c:	80 91 0c 05 	lds	r24, 0x050C
    5710:	f8 2e       	mov	r15, r24
    5712:	82 ff       	sbrs	r24, 2
    5714:	2f c0       	rjmp	.+94     	; 0x5774 <disk_ioctl+0x228>
				if (send_cmd(ACMD13, 0) == 0) {	/* Read SD status */
    5716:	8d e8       	ldi	r24, 0x8D	; 141
    5718:	40 e0       	ldi	r20, 0x00	; 0
    571a:	50 e0       	ldi	r21, 0x00	; 0
    571c:	60 e0       	ldi	r22, 0x00	; 0
    571e:	70 e0       	ldi	r23, 0x00	; 0
    5720:	0e 94 57 29 	call	0x52ae	; 0x52ae <send_cmd>
    5724:	88 23       	and	r24, r24
    5726:	09 f0       	breq	.+2      	; 0x572a <disk_ioctl+0x1de>
    5728:	c3 c0       	rjmp	.+390    	; 0x58b0 <disk_ioctl+0x364>
/*-----------------------------------------------------------------------*/

static
BYTE rcvr_spi (void)
{
	SPDR = 0xFF;
    572a:	8f ef       	ldi	r24, 0xFF	; 255
    572c:	8f b9       	out	0x0f, r24	; 15
	loop_until_bit_is_set(SPSR, SPIF);
    572e:	77 9b       	sbis	0x0e, 7	; 14
    5730:	fe cf       	rjmp	.-4      	; 0x572e <disk_ioctl+0x1e2>
	return SPDR;
    5732:	8f b1       	in	r24, 0x0f	; 15

		case GET_BLOCK_SIZE :	/* Get erase block size in unit of sector (DWORD) */
			if (CardType & CT_SD2) {	/* SDv2? */
				if (send_cmd(ACMD13, 0) == 0) {	/* Read SD status */
					rcvr_spi();
					if (rcvr_datablock(csd, 16)) {				/* Read partial block */
    5734:	ce 01       	movw	r24, r28
    5736:	01 96       	adiw	r24, 0x01	; 1
    5738:	60 e1       	ldi	r22, 0x10	; 16
    573a:	70 e0       	ldi	r23, 0x00	; 0
    573c:	0e 94 cd 28 	call	0x519a	; 0x519a <rcvr_datablock>
    5740:	89 2b       	or	r24, r25
    5742:	09 f4       	brne	.+2      	; 0x5746 <disk_ioctl+0x1fa>
    5744:	b5 c0       	rjmp	.+362    	; 0x58b0 <disk_ioctl+0x364>
    5746:	80 e3       	ldi	r24, 0x30	; 48
/*-----------------------------------------------------------------------*/

static
BYTE rcvr_spi (void)
{
	SPDR = 0xFF;
    5748:	9f ef       	ldi	r25, 0xFF	; 255
    574a:	9f b9       	out	0x0f, r25	; 15
	loop_until_bit_is_set(SPSR, SPIF);
    574c:	77 9b       	sbis	0x0e, 7	; 14
    574e:	fe cf       	rjmp	.-4      	; 0x574c <disk_ioctl+0x200>
	return SPDR;
    5750:	2f b1       	in	r18, 0x0f	; 15
		case GET_BLOCK_SIZE :	/* Get erase block size in unit of sector (DWORD) */
			if (CardType & CT_SD2) {	/* SDv2? */
				if (send_cmd(ACMD13, 0) == 0) {	/* Read SD status */
					rcvr_spi();
					if (rcvr_datablock(csd, 16)) {				/* Read partial block */
						for (n = 64 - 16; n; n--) rcvr_spi();	/* Purge trailing data */
    5752:	81 50       	subi	r24, 0x01	; 1
    5754:	d1 f7       	brne	.-12     	; 0x574a <disk_ioctl+0x1fe>
						*(DWORD*)buff = 16UL << (csd[10] >> 4);
    5756:	2b 85       	ldd	r18, Y+11	; 0x0b
    5758:	22 95       	swap	r18
    575a:	2f 70       	andi	r18, 0x0F	; 15
    575c:	80 e1       	ldi	r24, 0x10	; 16
    575e:	90 e0       	ldi	r25, 0x00	; 0
    5760:	a0 e0       	ldi	r26, 0x00	; 0
    5762:	b0 e0       	ldi	r27, 0x00	; 0
    5764:	04 c0       	rjmp	.+8      	; 0x576e <disk_ioctl+0x222>
    5766:	88 0f       	add	r24, r24
    5768:	99 1f       	adc	r25, r25
    576a:	aa 1f       	adc	r26, r26
    576c:	bb 1f       	adc	r27, r27
    576e:	2a 95       	dec	r18
    5770:	d2 f7       	brpl	.-12     	; 0x5766 <disk_ioctl+0x21a>
    5772:	55 c0       	rjmp	.+170    	; 0x581e <disk_ioctl+0x2d2>
						res = RES_OK;
					}
				}
			} else {					/* SDv1 or MMCv3 */
				if ((send_cmd(CMD9, 0) == 0) && rcvr_datablock(csd, 16)) {	/* Read CSD */
    5774:	89 e0       	ldi	r24, 0x09	; 9
    5776:	40 e0       	ldi	r20, 0x00	; 0
    5778:	50 e0       	ldi	r21, 0x00	; 0
    577a:	60 e0       	ldi	r22, 0x00	; 0
    577c:	70 e0       	ldi	r23, 0x00	; 0
    577e:	0e 94 57 29 	call	0x52ae	; 0x52ae <send_cmd>
    5782:	88 23       	and	r24, r24
    5784:	09 f0       	breq	.+2      	; 0x5788 <disk_ioctl+0x23c>
    5786:	94 c0       	rjmp	.+296    	; 0x58b0 <disk_ioctl+0x364>
    5788:	ce 01       	movw	r24, r28
    578a:	01 96       	adiw	r24, 0x01	; 1
    578c:	60 e1       	ldi	r22, 0x10	; 16
    578e:	70 e0       	ldi	r23, 0x00	; 0
    5790:	0e 94 cd 28 	call	0x519a	; 0x519a <rcvr_datablock>
    5794:	89 2b       	or	r24, r25
    5796:	09 f4       	brne	.+2      	; 0x579a <disk_ioctl+0x24e>
    5798:	8b c0       	rjmp	.+278    	; 0x58b0 <disk_ioctl+0x364>
    579a:	4b 85       	ldd	r20, Y+11	; 0x0b
    579c:	8c 85       	ldd	r24, Y+12	; 0x0c
					if (CardType & CT_SD1) {	/* SDv1 */
    579e:	f1 fe       	sbrs	r15, 1
    57a0:	1b c0       	rjmp	.+54     	; 0x57d8 <disk_ioctl+0x28c>
						*(DWORD*)buff = (((csd[10] & 63) << 1) + ((WORD)(csd[11] & 128) >> 7) + 1) << ((csd[13] >> 6) - 1);
    57a2:	88 1f       	adc	r24, r24
    57a4:	88 27       	eor	r24, r24
    57a6:	88 1f       	adc	r24, r24
    57a8:	90 e0       	ldi	r25, 0x00	; 0
    57aa:	01 96       	adiw	r24, 0x01	; 1
    57ac:	24 2f       	mov	r18, r20
    57ae:	30 e0       	ldi	r19, 0x00	; 0
    57b0:	2f 73       	andi	r18, 0x3F	; 63
    57b2:	30 70       	andi	r19, 0x00	; 0
    57b4:	22 0f       	add	r18, r18
    57b6:	33 1f       	adc	r19, r19
    57b8:	82 0f       	add	r24, r18
    57ba:	93 1f       	adc	r25, r19
    57bc:	2e 85       	ldd	r18, Y+14	; 0x0e
    57be:	22 95       	swap	r18
    57c0:	26 95       	lsr	r18
    57c2:	26 95       	lsr	r18
    57c4:	23 70       	andi	r18, 0x03	; 3
    57c6:	30 e0       	ldi	r19, 0x00	; 0
    57c8:	21 50       	subi	r18, 0x01	; 1
    57ca:	30 40       	sbci	r19, 0x00	; 0
    57cc:	02 c0       	rjmp	.+4      	; 0x57d2 <disk_ioctl+0x286>
    57ce:	88 0f       	add	r24, r24
    57d0:	99 1f       	adc	r25, r25
    57d2:	2a 95       	dec	r18
    57d4:	e2 f7       	brpl	.-8      	; 0x57ce <disk_ioctl+0x282>
    57d6:	21 c0       	rjmp	.+66     	; 0x581a <disk_ioctl+0x2ce>
					} else {					/* MMCv3 */
						*(DWORD*)buff = ((WORD)((csd[10] & 124) >> 2) + 1) * (((csd[11] & 3) << 3) + ((csd[11] & 224) >> 5) + 1);
    57d8:	28 2f       	mov	r18, r24
    57da:	30 e0       	ldi	r19, 0x00	; 0
    57dc:	23 70       	andi	r18, 0x03	; 3
    57de:	30 70       	andi	r19, 0x00	; 0
    57e0:	f3 e0       	ldi	r31, 0x03	; 3
    57e2:	22 0f       	add	r18, r18
    57e4:	33 1f       	adc	r19, r19
    57e6:	fa 95       	dec	r31
    57e8:	e1 f7       	brne	.-8      	; 0x57e2 <disk_ioctl+0x296>
    57ea:	82 95       	swap	r24
    57ec:	86 95       	lsr	r24
    57ee:	87 70       	andi	r24, 0x07	; 7
    57f0:	28 0f       	add	r18, r24
    57f2:	31 1d       	adc	r19, r1
    57f4:	2f 5f       	subi	r18, 0xFF	; 255
    57f6:	3f 4f       	sbci	r19, 0xFF	; 255
    57f8:	84 2f       	mov	r24, r20
    57fa:	90 e0       	ldi	r25, 0x00	; 0
    57fc:	8c 77       	andi	r24, 0x7C	; 124
    57fe:	90 70       	andi	r25, 0x00	; 0
    5800:	95 95       	asr	r25
    5802:	87 95       	ror	r24
    5804:	95 95       	asr	r25
    5806:	87 95       	ror	r24
    5808:	01 96       	adiw	r24, 0x01	; 1
    580a:	ac 01       	movw	r20, r24
    580c:	24 9f       	mul	r18, r20
    580e:	c0 01       	movw	r24, r0
    5810:	25 9f       	mul	r18, r21
    5812:	90 0d       	add	r25, r0
    5814:	34 9f       	mul	r19, r20
    5816:	90 0d       	add	r25, r0
    5818:	11 24       	eor	r1, r1
    581a:	a0 e0       	ldi	r26, 0x00	; 0
    581c:	b0 e0       	ldi	r27, 0x00	; 0
    581e:	f8 01       	movw	r30, r16
    5820:	80 83       	st	Z, r24
    5822:	91 83       	std	Z+1, r25	; 0x01
    5824:	a2 83       	std	Z+2, r26	; 0x02
    5826:	b3 83       	std	Z+3, r27	; 0x03
    5828:	20 e0       	ldi	r18, 0x00	; 0
    582a:	43 c0       	rjmp	.+134    	; 0x58b2 <disk_ioctl+0x366>
				}
			}
			break;

		case MMC_GET_TYPE :		/* Get card type flags (1 byte) */
			*ptr = CardType;
    582c:	80 91 0c 05 	lds	r24, 0x050C
    5830:	fa 01       	movw	r30, r20
    5832:	80 83       	st	Z, r24
    5834:	f9 cf       	rjmp	.-14     	; 0x5828 <disk_ioctl+0x2dc>
			res = RES_OK;
			break;

		case MMC_GET_CSD :		/* Receive CSD as a data block (16 bytes) */
			if (send_cmd(CMD9, 0) == 0		/* READ_CSD */
    5836:	89 e0       	ldi	r24, 0x09	; 9
    5838:	01 c0       	rjmp	.+2      	; 0x583c <disk_ioctl+0x2f0>
				&& rcvr_datablock(ptr, 16))
				res = RES_OK;
			break;

		case MMC_GET_CID :		/* Receive CID as a data block (16 bytes) */
			if (send_cmd(CMD10, 0) == 0		/* READ_CID */
    583a:	8a e0       	ldi	r24, 0x0A	; 10
    583c:	40 e0       	ldi	r20, 0x00	; 0
    583e:	50 e0       	ldi	r21, 0x00	; 0
    5840:	60 e0       	ldi	r22, 0x00	; 0
    5842:	70 e0       	ldi	r23, 0x00	; 0
    5844:	0e 94 57 29 	call	0x52ae	; 0x52ae <send_cmd>
    5848:	88 23       	and	r24, r24
    584a:	91 f5       	brne	.+100    	; 0x58b0 <disk_ioctl+0x364>
    584c:	c8 01       	movw	r24, r16
    584e:	60 e1       	ldi	r22, 0x10	; 16
    5850:	70 e0       	ldi	r23, 0x00	; 0
    5852:	29 c0       	rjmp	.+82     	; 0x58a6 <disk_ioctl+0x35a>
				&& rcvr_datablock(ptr, 16))
				res = RES_OK;
			break;

		case MMC_GET_OCR :		/* Receive OCR as an R3 resp (4 bytes) */
			if (send_cmd(CMD58, 0) == 0) {	/* READ_OCR */
    5854:	8a e3       	ldi	r24, 0x3A	; 58
    5856:	40 e0       	ldi	r20, 0x00	; 0
    5858:	50 e0       	ldi	r21, 0x00	; 0
    585a:	60 e0       	ldi	r22, 0x00	; 0
    585c:	70 e0       	ldi	r23, 0x00	; 0
    585e:	0e 94 57 29 	call	0x52ae	; 0x52ae <send_cmd>
    5862:	88 23       	and	r24, r24
    5864:	29 f5       	brne	.+74     	; 0x58b0 <disk_ioctl+0x364>
    5866:	f8 01       	movw	r30, r16
/*-----------------------------------------------------------------------*/

static
BYTE rcvr_spi (void)
{
	SPDR = 0xFF;
    5868:	9f ef       	ldi	r25, 0xFF	; 255
				res = RES_OK;
			break;

		case MMC_GET_OCR :		/* Receive OCR as an R3 resp (4 bytes) */
			if (send_cmd(CMD58, 0) == 0) {	/* READ_OCR */
				for (n = 4; n; n--) *ptr++ = rcvr_spi();
    586a:	98 01       	movw	r18, r16
    586c:	2d 5f       	subi	r18, 0xFD	; 253
    586e:	3f 4f       	sbci	r19, 0xFF	; 255
/*-----------------------------------------------------------------------*/

static
BYTE rcvr_spi (void)
{
	SPDR = 0xFF;
    5870:	9f b9       	out	0x0f, r25	; 15
	loop_until_bit_is_set(SPSR, SPIF);
    5872:	77 9b       	sbis	0x0e, 7	; 14
    5874:	fe cf       	rjmp	.-4      	; 0x5872 <disk_ioctl+0x326>
	return SPDR;
    5876:	8f b1       	in	r24, 0x0f	; 15
				res = RES_OK;
			break;

		case MMC_GET_OCR :		/* Receive OCR as an R3 resp (4 bytes) */
			if (send_cmd(CMD58, 0) == 0) {	/* READ_OCR */
				for (n = 4; n; n--) *ptr++ = rcvr_spi();
    5878:	80 83       	st	Z, r24
    587a:	e2 17       	cp	r30, r18
    587c:	f3 07       	cpc	r31, r19
    587e:	a1 f2       	breq	.-88     	; 0x5828 <disk_ioctl+0x2dc>
    5880:	31 96       	adiw	r30, 0x01	; 1
    5882:	f6 cf       	rjmp	.-20     	; 0x5870 <disk_ioctl+0x324>
				res = RES_OK;
			}
			break;

		case MMC_GET_SDSTAT :	/* Receive SD statsu as a data block (64 bytes) */
			if (send_cmd(ACMD13, 0) == 0) {	/* SD_STATUS */
    5884:	8d e8       	ldi	r24, 0x8D	; 141
    5886:	40 e0       	ldi	r20, 0x00	; 0
    5888:	50 e0       	ldi	r21, 0x00	; 0
    588a:	60 e0       	ldi	r22, 0x00	; 0
    588c:	70 e0       	ldi	r23, 0x00	; 0
    588e:	0e 94 57 29 	call	0x52ae	; 0x52ae <send_cmd>
    5892:	88 23       	and	r24, r24
    5894:	69 f4       	brne	.+26     	; 0x58b0 <disk_ioctl+0x364>
/*-----------------------------------------------------------------------*/

static
BYTE rcvr_spi (void)
{
	SPDR = 0xFF;
    5896:	8f ef       	ldi	r24, 0xFF	; 255
    5898:	8f b9       	out	0x0f, r24	; 15
	loop_until_bit_is_set(SPSR, SPIF);
    589a:	77 9b       	sbis	0x0e, 7	; 14
    589c:	fe cf       	rjmp	.-4      	; 0x589a <disk_ioctl+0x34e>
	return SPDR;
    589e:	8f b1       	in	r24, 0x0f	; 15
			break;

		case MMC_GET_SDSTAT :	/* Receive SD statsu as a data block (64 bytes) */
			if (send_cmd(ACMD13, 0) == 0) {	/* SD_STATUS */
				rcvr_spi();
				if (rcvr_datablock(ptr, 64))
    58a0:	c8 01       	movw	r24, r16
    58a2:	60 e4       	ldi	r22, 0x40	; 64
    58a4:	70 e0       	ldi	r23, 0x00	; 0
    58a6:	0e 94 cd 28 	call	0x519a	; 0x519a <rcvr_datablock>
    58aa:	20 e0       	ldi	r18, 0x00	; 0
    58ac:	89 2b       	or	r24, r25
    58ae:	09 f4       	brne	.+2      	; 0x58b2 <disk_ioctl+0x366>
    58b0:	21 e0       	ldi	r18, 0x01	; 1
/*-----------------------------------------------------------------------*/

static
void deselect (void)
{
	CS_HIGH();
    58b2:	c0 9a       	sbi	0x18, 0	; 24
/*-----------------------------------------------------------------------*/

static
BYTE rcvr_spi (void)
{
	SPDR = 0xFF;
    58b4:	8f ef       	ldi	r24, 0xFF	; 255
    58b6:	8f b9       	out	0x0f, r24	; 15
	loop_until_bit_is_set(SPSR, SPIF);
    58b8:	77 9b       	sbis	0x0e, 7	; 14
    58ba:	fe cf       	rjmp	.-4      	; 0x58b8 <disk_ioctl+0x36c>
	return SPDR;
    58bc:	8f b1       	in	r24, 0x0f	; 15
    58be:	01 c0       	rjmp	.+2      	; 0x58c2 <disk_ioctl+0x376>
    58c0:	24 e0       	ldi	r18, 0x04	; 4

		deselect();
	}

	return res;
}
    58c2:	82 2f       	mov	r24, r18
    58c4:	60 96       	adiw	r28, 0x10	; 16
    58c6:	0f b6       	in	r0, 0x3f	; 63
    58c8:	f8 94       	cli
    58ca:	de bf       	out	0x3e, r29	; 62
    58cc:	0f be       	out	0x3f, r0	; 63
    58ce:	cd bf       	out	0x3d, r28	; 61
    58d0:	cf 91       	pop	r28
    58d2:	df 91       	pop	r29
    58d4:	1f 91       	pop	r17
    58d6:	0f 91       	pop	r16
    58d8:	ff 90       	pop	r15
    58da:	08 95       	ret
/*-----------------------------------------------------------------------*/

static
void deselect (void)
{
	CS_HIGH();
    58dc:	c0 9a       	sbi	0x18, 0	; 24
/*-----------------------------------------------------------------------*/

static
BYTE rcvr_spi (void)
{
	SPDR = 0xFF;
    58de:	8f ef       	ldi	r24, 0xFF	; 255
    58e0:	8f b9       	out	0x0f, r24	; 15
    58e2:	9e ce       	rjmp	.-708    	; 0x5620 <disk_ioctl+0xd4>

000058e4 <disk_timerproc>:
void disk_timerproc (void)
{
	BYTE n, s=0;


	n = Timer1;						/* 100Hz decrement timer */
    58e4:	80 91 0a 05 	lds	r24, 0x050A
	if (n) Timer1 = --n;
    58e8:	88 23       	and	r24, r24
    58ea:	19 f0       	breq	.+6      	; 0x58f2 <disk_timerproc+0xe>
    58ec:	81 50       	subi	r24, 0x01	; 1
    58ee:	80 93 0a 05 	sts	0x050A, r24
	n = Timer2;
    58f2:	80 91 0b 05 	lds	r24, 0x050B
	if (n) Timer2 = --n;
    58f6:	88 23       	and	r24, r24
    58f8:	19 f0       	breq	.+6      	; 0x5900 <disk_timerproc+0x1c>
    58fa:	81 50       	subi	r24, 0x01	; 1
    58fc:	80 93 0b 05 	sts	0x050B, r24
	//if (SOCKINS)			/* Card inserted */
		s &= ~STA_NODISK;
	//else					/* Socket empty */
	//	s |= (STA_NODISK | STA_NOINIT);

	Stat = s;
    5900:	10 92 cd 01 	sts	0x01CD, r1
}
    5904:	08 95       	ret

00005906 <disk_initialize>:
/*-----------------------------------------------------------------------*/

DSTATUS disk_initialize (
	BYTE drv		/* Physical drive nmuber (0) */
)
{
    5906:	af 92       	push	r10
    5908:	bf 92       	push	r11
    590a:	cf 92       	push	r12
    590c:	df 92       	push	r13
    590e:	ef 92       	push	r14
    5910:	ff 92       	push	r15
    5912:	0f 93       	push	r16
    5914:	1f 93       	push	r17
    5916:	df 93       	push	r29
    5918:	cf 93       	push	r28
    591a:	00 d0       	rcall	.+0      	; 0x591c <disk_initialize+0x16>
    591c:	00 d0       	rcall	.+0      	; 0x591e <disk_initialize+0x18>
    591e:	cd b7       	in	r28, 0x3d	; 61
    5920:	de b7       	in	r29, 0x3e	; 62
	BYTE n, cmd, ty, ocr[4];
	
	//sendStr0("disk_initialize start");

	if (drv) return STA_NOINIT;			/* Supports only single drive */
    5922:	88 23       	and	r24, r24
    5924:	11 f0       	breq	.+4      	; 0x592a <disk_initialize+0x24>
    5926:	81 e0       	ldi	r24, 0x01	; 1
    5928:	f4 c0       	rjmp	.+488    	; 0x5b12 <disk_initialize+0x20c>
	//sendStr0("Supports only single drive -complete");

	if (Stat & STA_NODISK) return Stat;	/* No card in the socket */
    592a:	80 91 cd 01 	lds	r24, 0x01CD
    592e:	81 fd       	sbrc	r24, 1
    5930:	ee c0       	rjmp	.+476    	; 0x5b0e <disk_initialize+0x208>
    5932:	88 ec       	ldi	r24, 0xC8	; 200
    5934:	90 e0       	ldi	r25, 0x00	; 0
    5936:	20 e7       	ldi	r18, 0x70	; 112
    5938:	31 e0       	ldi	r19, 0x01	; 1
    593a:	f9 01       	movw	r30, r18
    593c:	31 97       	sbiw	r30, 0x01	; 1
    593e:	f1 f7       	brne	.-4      	; 0x593c <disk_initialize+0x36>
		__ticks = (uint16_t) (__ms * 10.0);
		while(__ticks)
		{
			// wait 1/10 ms
			_delay_loop_2(((F_CPU) / 4e3) / 10);
			__ticks --;
    5940:	01 97       	sbiw	r24, 0x01	; 1
		__ticks = 1;
	else if (__tmp > 65535)
	{
		//	__ticks = requested delay in 1/10 ms
		__ticks = (uint16_t) (__ms * 10.0);
		while(__ticks)
    5942:	d9 f7       	brne	.-10     	; 0x593a <disk_initialize+0x34>
	//for (Timer1 = 2; Timer1; );	// Wait for 20ms 
	_delay_ms(20);
	//PORTB = 0b10110101;			// Enable drivers 
	//DDRB  = 0b11000111;

	PORTB = 0xFF;
    5944:	8f ef       	ldi	r24, 0xFF	; 255
    5946:	88 bb       	out	0x18, r24	; 24
	DDRB  = 0xF7 ;//0xBF; //MISO line i/p, rest o/p
    5948:	87 ef       	ldi	r24, 0xF7	; 247
    594a:	87 bb       	out	0x17, r24	; 23

	SPCR = 0x52;			// Enable SPI function in mode 0 
    594c:	92 e5       	ldi	r25, 0x52	; 82
    594e:	9d b9       	out	0x0d, r25	; 13
	SPSR = 0x01;			// SPI 2x mode 
    5950:	81 e0       	ldi	r24, 0x01	; 1
    5952:	8e b9       	out	0x0e, r24	; 14
	//sendStr0("Card in the socket");
	
	power_on();							/* Force socket power on */
	//sendStr0("power_on...");

	FCLK_SLOW();
    5954:	9d b9       	out	0x0d, r25	; 13
    5956:	8a e0       	ldi	r24, 0x0A	; 10
/*-----------------------------------------------------------------------*/

static
BYTE rcvr_spi (void)
{
	SPDR = 0xFF;
    5958:	9f ef       	ldi	r25, 0xFF	; 255
    595a:	9f b9       	out	0x0f, r25	; 15
	loop_until_bit_is_set(SPSR, SPIF);
    595c:	77 9b       	sbis	0x0e, 7	; 14
    595e:	fe cf       	rjmp	.-4      	; 0x595c <disk_initialize+0x56>
	return SPDR;
    5960:	2f b1       	in	r18, 0x0f	; 15
	
	power_on();							/* Force socket power on */
	//sendStr0("power_on...");

	FCLK_SLOW();
	for (n = 10; n; n--) rcvr_spi();	/* 80 dummy clocks */
    5962:	81 50       	subi	r24, 0x01	; 1
    5964:	d1 f7       	brne	.-12     	; 0x595a <disk_initialize+0x54>
    5966:	00 e0       	ldi	r16, 0x00	; 0
    5968:	10 e0       	ldi	r17, 0x00	; 0
	int retry=0;
	int reset_complete = 1;
	BYTE response = 0x00;
	do
	{
		response = send_cmd(CMD0, 0); //send 'reset & go idle' command
    596a:	80 e0       	ldi	r24, 0x00	; 0
    596c:	40 e0       	ldi	r20, 0x00	; 0
    596e:	50 e0       	ldi	r21, 0x00	; 0
    5970:	60 e0       	ldi	r22, 0x00	; 0
    5972:	70 e0       	ldi	r23, 0x00	; 0
    5974:	0e 94 57 29 	call	0x52ae	; 0x52ae <send_cmd>
		retry++;
    5978:	0f 5f       	subi	r16, 0xFF	; 255
    597a:	1f 4f       	sbci	r17, 0xFF	; 255
		if(retry>0x20) 
    597c:	01 32       	cpi	r16, 0x21	; 33
    597e:	11 05       	cpc	r17, r1
    5980:	19 f0       	breq	.+6      	; 0x5988 <disk_initialize+0x82>
		{
			reset_complete = 0;   //time out, card not detected
			break;
		}
	} while(response != 0x01);
    5982:	81 30       	cpi	r24, 0x01	; 1
    5984:	91 f7       	brne	.-28     	; 0x596a <disk_initialize+0x64>
    5986:	d4 c0       	rjmp	.+424    	; 0x5b30 <disk_initialize+0x22a>
				ty = 0;
		}
	}
	else
	{
		sendStr0("Enter Idle state error");
    5988:	82 ed       	ldi	r24, 0xD2	; 210
    598a:	97 e0       	ldi	r25, 0x07	; 7
    598c:	0e 94 b2 09 	call	0x1364	; 0x1364 <transmitString_F>
    5990:	8d e0       	ldi	r24, 0x0D	; 13
    5992:	0e 94 a9 09 	call	0x1352	; 0x1352 <transmitByte>
    5996:	8a e0       	ldi	r24, 0x0A	; 10
    5998:	0e 94 a9 09 	call	0x1352	; 0x1352 <transmitByte>
    599c:	20 e1       	ldi	r18, 0x10	; 16
    599e:	37 e2       	ldi	r19, 0x27	; 39
    59a0:	40 e7       	ldi	r20, 0x70	; 112
    59a2:	51 e0       	ldi	r21, 0x01	; 1
    59a4:	7e c0       	rjmp	.+252    	; 0x5aa2 <disk_initialize+0x19c>
/*-----------------------------------------------------------------------*/

static
BYTE rcvr_spi (void)
{
	SPDR = 0xFF;
    59a6:	9f b9       	out	0x0f, r25	; 15
	loop_until_bit_is_set(SPSR, SPIF);
    59a8:	77 9b       	sbis	0x0e, 7	; 14
    59aa:	fe cf       	rjmp	.-4      	; 0x59a8 <disk_initialize+0xa2>
	return SPDR;
    59ac:	8f b1       	in	r24, 0x0f	; 15
	{			
		//sendStr0("Enter Idle state complite");
		//Timer1 = 100;						/* Initialization timeout of 1000 msec */
		//_delay_ms(100);
		if (send_cmd(CMD8, 0x1AA) == 1) {	/* SDv2? */
			for (n = 0; n < 4; n++) ocr[n] = rcvr_spi();		/* Get trailing return value of R7 resp */
    59ae:	f7 01       	movw	r30, r14
    59b0:	81 93       	st	Z+, r24
    59b2:	7f 01       	movw	r14, r30
    59b4:	e2 17       	cp	r30, r18
    59b6:	f3 07       	cpc	r31, r19
    59b8:	b1 f7       	brne	.-20     	; 0x59a6 <disk_initialize+0xa0>
			if (ocr[2] == 0x01 && ocr[3] == 0xAA)
    59ba:	8b 81       	ldd	r24, Y+3	; 0x03
    59bc:	81 30       	cpi	r24, 0x01	; 1
    59be:	09 f0       	breq	.+2      	; 0x59c2 <disk_initialize+0xbc>
    59c0:	76 c0       	rjmp	.+236    	; 0x5aae <disk_initialize+0x1a8>
    59c2:	8c 81       	ldd	r24, Y+4	; 0x04
    59c4:	8a 3a       	cpi	r24, 0xAA	; 170
    59c6:	09 f0       	breq	.+2      	; 0x59ca <disk_initialize+0xc4>
    59c8:	72 c0       	rjmp	.+228    	; 0x5aae <disk_initialize+0x1a8>
    59ca:	00 e0       	ldi	r16, 0x00	; 0
    59cc:	10 e0       	ldi	r17, 0x00	; 0
    59ce:	a1 2c       	mov	r10, r1
    59d0:	f0 e9       	ldi	r31, 0x90	; 144
    59d2:	bf 2e       	mov	r11, r31
    59d4:	08 c0       	rjmp	.+16     	; 0x59e6 <disk_initialize+0xe0>
    59d6:	c5 01       	movw	r24, r10
    59d8:	01 97       	sbiw	r24, 0x01	; 1
    59da:	f1 f7       	brne	.-4      	; 0x59d8 <disk_initialize+0xd2>
			   {				/* The card can work at vdd range of 2.7-3.6V */
				//while (Timer1 && send_cmd(ACMD41, 1UL << 30));	/* Wait for leaving idle state (ACMD41 with HCS bit) */
				int counter1 = 0;
//				char buff[100];
				for (int i = 0; i < 10 && send_cmd(ACMD41, 1UL << 30); i++)
    59dc:	0f 5f       	subi	r16, 0xFF	; 255
    59de:	1f 4f       	sbci	r17, 0xFF	; 255
    59e0:	0a 30       	cpi	r16, 0x0A	; 10
    59e2:	11 05       	cpc	r17, r1
    59e4:	49 f0       	breq	.+18     	; 0x59f8 <disk_initialize+0xf2>
    59e6:	89 ea       	ldi	r24, 0xA9	; 169
    59e8:	40 e0       	ldi	r20, 0x00	; 0
    59ea:	50 e0       	ldi	r21, 0x00	; 0
    59ec:	60 e0       	ldi	r22, 0x00	; 0
    59ee:	70 e4       	ldi	r23, 0x40	; 64
    59f0:	0e 94 57 29 	call	0x52ae	; 0x52ae <send_cmd>
    59f4:	88 23       	and	r24, r24
    59f6:	79 f7       	brne	.-34     	; 0x59d6 <disk_initialize+0xd0>
				}

				//sprintf(buff,"delaying %d ms",counter1);
				//transmitString_F(buff);
				//_delay_ms(10);
				if (/*Timer1 && */send_cmd(CMD58, 0) == 0)
    59f8:	8a e3       	ldi	r24, 0x3A	; 58
    59fa:	40 e0       	ldi	r20, 0x00	; 0
    59fc:	50 e0       	ldi	r21, 0x00	; 0
    59fe:	60 e0       	ldi	r22, 0x00	; 0
    5a00:	70 e0       	ldi	r23, 0x00	; 0
    5a02:	0e 94 57 29 	call	0x52ae	; 0x52ae <send_cmd>
    5a06:	88 23       	and	r24, r24
    5a08:	09 f0       	breq	.+2      	; 0x5a0c <disk_initialize+0x106>
    5a0a:	51 c0       	rjmp	.+162    	; 0x5aae <disk_initialize+0x1a8>
/*-----------------------------------------------------------------------*/

static
BYTE rcvr_spi (void)
{
	SPDR = 0xFF;
    5a0c:	9f ef       	ldi	r25, 0xFF	; 255
    5a0e:	9f b9       	out	0x0f, r25	; 15
	loop_until_bit_is_set(SPSR, SPIF);
    5a10:	77 9b       	sbis	0x0e, 7	; 14
    5a12:	fe cf       	rjmp	.-4      	; 0x5a10 <disk_initialize+0x10a>
	return SPDR;
    5a14:	8f b1       	in	r24, 0x0f	; 15
				//sprintf(buff,"delaying %d ms",counter1);
				//transmitString_F(buff);
				//_delay_ms(10);
				if (/*Timer1 && */send_cmd(CMD58, 0) == 0)
				{		/* Check CCS bit in the OCR */
					for (n = 0; n < 4; n++) ocr[n] = rcvr_spi();
    5a16:	f6 01       	movw	r30, r12
    5a18:	81 93       	st	Z+, r24
    5a1a:	6f 01       	movw	r12, r30
    5a1c:	ee 15       	cp	r30, r14
    5a1e:	ff 05       	cpc	r31, r15
    5a20:	b1 f7       	brne	.-20     	; 0x5a0e <disk_initialize+0x108>
					ty = (ocr[0] & 0x40) ? CT_SD2 | CT_BLOCK : CT_SD2;	/* SDv2 */
    5a22:	89 81       	ldd	r24, Y+1	; 0x01
    5a24:	86 fd       	sbrc	r24, 6
    5a26:	03 c0       	rjmp	.+6      	; 0x5a2e <disk_initialize+0x128>
    5a28:	e4 e0       	ldi	r30, 0x04	; 4
    5a2a:	fe 2e       	mov	r15, r30
    5a2c:	41 c0       	rjmp	.+130    	; 0x5ab0 <disk_initialize+0x1aa>
    5a2e:	7c e0       	ldi	r23, 0x0C	; 12
    5a30:	f7 2e       	mov	r15, r23
    5a32:	3e c0       	rjmp	.+124    	; 0x5ab0 <disk_initialize+0x1aa>
				}
			}
		} else {							/* SDv1 or MMCv3 */
			if (send_cmd(ACMD41, 0) <= 1) 	{
    5a34:	89 ea       	ldi	r24, 0xA9	; 169
    5a36:	40 e0       	ldi	r20, 0x00	; 0
    5a38:	50 e0       	ldi	r21, 0x00	; 0
    5a3a:	60 e0       	ldi	r22, 0x00	; 0
    5a3c:	70 e0       	ldi	r23, 0x00	; 0
    5a3e:	0e 94 57 29 	call	0x52ae	; 0x52ae <send_cmd>
    5a42:	82 30       	cpi	r24, 0x02	; 2
    5a44:	28 f0       	brcs	.+10     	; 0x5a50 <disk_initialize+0x14a>
    5a46:	ee 24       	eor	r14, r14
    5a48:	e3 94       	inc	r14
    5a4a:	ff 24       	eor	r15, r15
    5a4c:	f3 94       	inc	r15
    5a4e:	04 c0       	rjmp	.+8      	; 0x5a58 <disk_initialize+0x152>
    5a50:	69 ea       	ldi	r22, 0xA9	; 169
    5a52:	e6 2e       	mov	r14, r22
    5a54:	52 e0       	ldi	r21, 0x02	; 2
    5a56:	f5 2e       	mov	r15, r21
    5a58:	00 e0       	ldi	r16, 0x00	; 0
    5a5a:	10 e0       	ldi	r17, 0x00	; 0
    5a5c:	c1 2c       	mov	r12, r1
    5a5e:	40 e9       	ldi	r20, 0x90	; 144
    5a60:	d4 2e       	mov	r13, r20
    5a62:	08 c0       	rjmp	.+16     	; 0x5a74 <disk_initialize+0x16e>
    5a64:	c6 01       	movw	r24, r12
    5a66:	01 97       	sbiw	r24, 0x01	; 1
    5a68:	f1 f7       	brne	.-4      	; 0x5a66 <disk_initialize+0x160>
				ty = CT_SD1; cmd = ACMD41;	/* SDv1 */
			} else {
				ty = CT_MMC; cmd = CMD1;	/* MMCv3 */
			}
			//while (Timer1 && send_cmd(cmd, 0));			/* Wait for leaving idle state */
			for (int i = 0; i < 10 && send_cmd(cmd, 0); i++)
    5a6a:	0f 5f       	subi	r16, 0xFF	; 255
    5a6c:	1f 4f       	sbci	r17, 0xFF	; 255
    5a6e:	0a 30       	cpi	r16, 0x0A	; 10
    5a70:	11 05       	cpc	r17, r1
    5a72:	49 f0       	breq	.+18     	; 0x5a86 <disk_initialize+0x180>
    5a74:	8e 2d       	mov	r24, r14
    5a76:	40 e0       	ldi	r20, 0x00	; 0
    5a78:	50 e0       	ldi	r21, 0x00	; 0
    5a7a:	60 e0       	ldi	r22, 0x00	; 0
    5a7c:	70 e0       	ldi	r23, 0x00	; 0
    5a7e:	0e 94 57 29 	call	0x52ae	; 0x52ae <send_cmd>
    5a82:	88 23       	and	r24, r24
    5a84:	79 f7       	brne	.-34     	; 0x5a64 <disk_initialize+0x15e>
    5a86:	80 e0       	ldi	r24, 0x00	; 0
    5a88:	90 e9       	ldi	r25, 0x90	; 144
    5a8a:	01 97       	sbiw	r24, 0x01	; 1
    5a8c:	f1 f7       	brne	.-4      	; 0x5a8a <disk_initialize+0x184>
  				_delay_ms(10);

			_delay_ms(10);
			if (/*!Timer1 || */send_cmd(CMD16, 512) != 0)	/* Set R/W block length to 512 */
    5a8e:	80 e1       	ldi	r24, 0x10	; 16
    5a90:	40 e0       	ldi	r20, 0x00	; 0
    5a92:	52 e0       	ldi	r21, 0x02	; 2
    5a94:	60 e0       	ldi	r22, 0x00	; 0
    5a96:	70 e0       	ldi	r23, 0x00	; 0
    5a98:	0e 94 57 29 	call	0x52ae	; 0x52ae <send_cmd>
    5a9c:	88 23       	and	r24, r24
    5a9e:	39 f4       	brne	.+14     	; 0x5aae <disk_initialize+0x1a8>
    5aa0:	07 c0       	rjmp	.+14     	; 0x5ab0 <disk_initialize+0x1aa>
    5aa2:	ca 01       	movw	r24, r20
    5aa4:	01 97       	sbiw	r24, 0x01	; 1
    5aa6:	f1 f7       	brne	.-4      	; 0x5aa4 <disk_initialize+0x19e>
		{
			// wait 1/10 ms
			_delay_loop_2(((F_CPU) / 4e3) / 10);
			__ticks --;
    5aa8:	21 50       	subi	r18, 0x01	; 1
    5aaa:	30 40       	sbci	r19, 0x00	; 0
		__ticks = 1;
	else if (__tmp > 65535)
	{
		//	__ticks = requested delay in 1/10 ms
		__ticks = (uint16_t) (__ms * 10.0);
		while(__ticks)
    5aac:	d1 f7       	brne	.-12     	; 0x5aa2 <disk_initialize+0x19c>
    5aae:	ff 24       	eor	r15, r15
	{
		sendStr0("Enter Idle state error");
		_delay_ms(1000);
	}

	CardType = ty;
    5ab0:	f0 92 0c 05 	sts	0x050C, r15
/*-----------------------------------------------------------------------*/

static
void deselect (void)
{
	CS_HIGH();
    5ab4:	c0 9a       	sbi	0x18, 0	; 24
/*-----------------------------------------------------------------------*/

static
BYTE rcvr_spi (void)
{
	SPDR = 0xFF;
    5ab6:	8f ef       	ldi	r24, 0xFF	; 255
    5ab8:	8f b9       	out	0x0f, r24	; 15
	loop_until_bit_is_set(SPSR, SPIF);
    5aba:	77 9b       	sbis	0x0e, 7	; 14
    5abc:	fe cf       	rjmp	.-4      	; 0x5aba <disk_initialize+0x1b4>
	return SPDR;
    5abe:	8f b1       	in	r24, 0x0f	; 15
	}

	CardType = ty;
	deselect();

	if (ty) {			/* Initialization succeded */
    5ac0:	ff 20       	and	r15, r15
    5ac2:	41 f0       	breq	.+16     	; 0x5ad4 <disk_initialize+0x1ce>
		//sendStr0("Initialization succeded");
		//_delay_ms(1000);
		Stat &= ~STA_NOINIT;		/* Clear STA_NOINIT */
    5ac4:	80 91 cd 01 	lds	r24, 0x01CD
    5ac8:	8e 7f       	andi	r24, 0xFE	; 254
    5aca:	80 93 cd 01 	sts	0x01CD, r24
		FCLK_FAST();
    5ace:	80 e5       	ldi	r24, 0x50	; 80
    5ad0:	8d b9       	out	0x0d, r24	; 13
    5ad2:	1d c0       	rjmp	.+58     	; 0x5b0e <disk_initialize+0x208>


static
void power_off (void)
{
	SPCR = 0;				// Disable SPI function 
    5ad4:	1d b8       	out	0x0d, r1	; 13
	DDRB  = 0b11000000;		//Disable drivers 
    5ad6:	80 ec       	ldi	r24, 0xC0	; 192
    5ad8:	87 bb       	out	0x17, r24	; 23
	PORTB = 0b10110000;
    5ada:	80 eb       	ldi	r24, 0xB0	; 176
    5adc:	88 bb       	out	0x18, r24	; 24

//	PORTC |=  0x80;			// Socket power off 
	Stat |= STA_NOINIT;
    5ade:	80 91 cd 01 	lds	r24, 0x01CD
    5ae2:	81 60       	ori	r24, 0x01	; 1
    5ae4:	80 93 cd 01 	sts	0x01CD, r24
		//_delay_ms(1000);
		Stat &= ~STA_NOINIT;		/* Clear STA_NOINIT */
		FCLK_FAST();
	} else {			/* Initialization failed */
		power_off();
		sendStr0("Initialization failed");
    5ae8:	8c eb       	ldi	r24, 0xBC	; 188
    5aea:	97 e0       	ldi	r25, 0x07	; 7
    5aec:	0e 94 b2 09 	call	0x1364	; 0x1364 <transmitString_F>
    5af0:	8d e0       	ldi	r24, 0x0D	; 13
    5af2:	0e 94 a9 09 	call	0x1352	; 0x1352 <transmitByte>
    5af6:	8a e0       	ldi	r24, 0x0A	; 10
    5af8:	0e 94 a9 09 	call	0x1352	; 0x1352 <transmitByte>
    5afc:	80 e1       	ldi	r24, 0x10	; 16
    5afe:	97 e2       	ldi	r25, 0x27	; 39
    5b00:	20 e7       	ldi	r18, 0x70	; 112
    5b02:	31 e0       	ldi	r19, 0x01	; 1
    5b04:	f9 01       	movw	r30, r18
    5b06:	31 97       	sbiw	r30, 0x01	; 1
    5b08:	f1 f7       	brne	.-4      	; 0x5b06 <disk_initialize+0x200>
		{
			// wait 1/10 ms
			_delay_loop_2(((F_CPU) / 4e3) / 10);
			__ticks --;
    5b0a:	01 97       	sbiw	r24, 0x01	; 1
		__ticks = 1;
	else if (__tmp > 65535)
	{
		//	__ticks = requested delay in 1/10 ms
		__ticks = (uint16_t) (__ms * 10.0);
		while(__ticks)
    5b0c:	d9 f7       	brne	.-10     	; 0x5b04 <disk_initialize+0x1fe>
		_delay_ms(1000);
	}

	return Stat;
    5b0e:	80 91 cd 01 	lds	r24, 0x01CD
}
    5b12:	0f 90       	pop	r0
    5b14:	0f 90       	pop	r0
    5b16:	0f 90       	pop	r0
    5b18:	0f 90       	pop	r0
    5b1a:	cf 91       	pop	r28
    5b1c:	df 91       	pop	r29
    5b1e:	1f 91       	pop	r17
    5b20:	0f 91       	pop	r16
    5b22:	ff 90       	pop	r15
    5b24:	ef 90       	pop	r14
    5b26:	df 90       	pop	r13
    5b28:	cf 90       	pop	r12
    5b2a:	bf 90       	pop	r11
    5b2c:	af 90       	pop	r10
    5b2e:	08 95       	ret
	if (reset_complete == 1/*send_cmd(CMD0, 0) == 1*/) /* Enter Idle state */
	{			
		//sendStr0("Enter Idle state complite");
		//Timer1 = 100;						/* Initialization timeout of 1000 msec */
		//_delay_ms(100);
		if (send_cmd(CMD8, 0x1AA) == 1) {	/* SDv2? */
    5b30:	88 e0       	ldi	r24, 0x08	; 8
    5b32:	4a ea       	ldi	r20, 0xAA	; 170
    5b34:	51 e0       	ldi	r21, 0x01	; 1
    5b36:	60 e0       	ldi	r22, 0x00	; 0
    5b38:	70 e0       	ldi	r23, 0x00	; 0
    5b3a:	0e 94 57 29 	call	0x52ae	; 0x52ae <send_cmd>
    5b3e:	81 30       	cpi	r24, 0x01	; 1
    5b40:	09 f0       	breq	.+2      	; 0x5b44 <disk_initialize+0x23e>
    5b42:	78 cf       	rjmp	.-272    	; 0x5a34 <disk_initialize+0x12e>
    5b44:	6e 01       	movw	r12, r28
    5b46:	08 94       	sec
    5b48:	c1 1c       	adc	r12, r1
    5b4a:	d1 1c       	adc	r13, r1
    5b4c:	76 01       	movw	r14, r12
/*-----------------------------------------------------------------------*/

static
BYTE rcvr_spi (void)
{
	SPDR = 0xFF;
    5b4e:	9f ef       	ldi	r25, 0xFF	; 255
	{			
		//sendStr0("Enter Idle state complite");
		//Timer1 = 100;						/* Initialization timeout of 1000 msec */
		//_delay_ms(100);
		if (send_cmd(CMD8, 0x1AA) == 1) {	/* SDv2? */
			for (n = 0; n < 4; n++) ocr[n] = rcvr_spi();		/* Get trailing return value of R7 resp */
    5b50:	9e 01       	movw	r18, r28
    5b52:	2b 5f       	subi	r18, 0xFB	; 251
    5b54:	3f 4f       	sbci	r19, 0xFF	; 255
    5b56:	27 cf       	rjmp	.-434    	; 0x59a6 <disk_initialize+0xa0>

00005b58 <ff_convert>:

WCHAR ff_convert (	/* Converted code, 0 means conversion error */
	WCHAR	src,	/* Character code to be converted */
	UINT	dir		/* 0: Unicode to OEMCP, 1: OEMCP to Unicode */
)
{
    5b58:	fc 01       	movw	r30, r24
//	const WCHAR *p;
	WCHAR c;


	if (src < 0x80) {	/* ASCII */
    5b5a:	80 38       	cpi	r24, 0x80	; 128
    5b5c:	91 05       	cpc	r25, r1
    5b5e:	10 f4       	brcc	.+4      	; 0x5b64 <ff_convert+0xc>
    5b60:	9c 01       	movw	r18, r24
    5b62:	23 c0       	rjmp	.+70     	; 0x5baa <ff_convert+0x52>
		c = src;

	} else {
		if (dir) {		/* OEMCP to Unicode */
    5b64:	67 2b       	or	r22, r23
    5b66:	71 f0       	breq	.+28     	; 0x5b84 <ff_convert+0x2c>
			c = (src >= 0x100) ? 0 : Tbl[src - 0x80];
    5b68:	8f 3f       	cpi	r24, 0xFF	; 255
    5b6a:	91 05       	cpc	r25, r1
    5b6c:	21 f0       	breq	.+8      	; 0x5b76 <ff_convert+0x1e>
    5b6e:	18 f0       	brcs	.+6      	; 0x5b76 <ff_convert+0x1e>
    5b70:	20 e0       	ldi	r18, 0x00	; 0
    5b72:	30 e0       	ldi	r19, 0x00	; 0
    5b74:	1a c0       	rjmp	.+52     	; 0x5baa <ff_convert+0x52>
    5b76:	ee 0f       	add	r30, r30
    5b78:	ff 1f       	adc	r31, r31
    5b7a:	e2 53       	subi	r30, 0x32	; 50
    5b7c:	ff 4f       	sbci	r31, 0xFF	; 255
    5b7e:	20 81       	ld	r18, Z
    5b80:	31 81       	ldd	r19, Z+1	; 0x01
    5b82:	13 c0       	rjmp	.+38     	; 0x5baa <ff_convert+0x52>
    5b84:	ae ec       	ldi	r26, 0xCE	; 206
    5b86:	b1 e0       	ldi	r27, 0x01	; 1
    5b88:	20 e0       	ldi	r18, 0x00	; 0
    5b8a:	30 e0       	ldi	r19, 0x00	; 0

		} else {		/* Unicode to OEMCP */
			for (c = 0; c < 0x80; c++) {
				if (src == Tbl[c]) break;
    5b8c:	8d 91       	ld	r24, X+
    5b8e:	9c 91       	ld	r25, X
    5b90:	11 97       	sbiw	r26, 0x01	; 1
    5b92:	e8 17       	cp	r30, r24
    5b94:	f9 07       	cpc	r31, r25
    5b96:	31 f0       	breq	.+12     	; 0x5ba4 <ff_convert+0x4c>
	} else {
		if (dir) {		/* OEMCP to Unicode */
			c = (src >= 0x100) ? 0 : Tbl[src - 0x80];

		} else {		/* Unicode to OEMCP */
			for (c = 0; c < 0x80; c++) {
    5b98:	2f 5f       	subi	r18, 0xFF	; 255
    5b9a:	3f 4f       	sbci	r19, 0xFF	; 255
    5b9c:	12 96       	adiw	r26, 0x02	; 2
    5b9e:	20 38       	cpi	r18, 0x80	; 128
    5ba0:	31 05       	cpc	r19, r1
    5ba2:	a1 f7       	brne	.-24     	; 0x5b8c <ff_convert+0x34>
				if (src == Tbl[c]) break;
			}
			c = (c + 0x80) & 0xFF;
    5ba4:	20 58       	subi	r18, 0x80	; 128
    5ba6:	3f 4f       	sbci	r19, 0xFF	; 255
    5ba8:	30 70       	andi	r19, 0x00	; 0
		}
	}

	return c;
}
    5baa:	c9 01       	movw	r24, r18
    5bac:	08 95       	ret

00005bae <strcpy>:
    5bae:	fb 01       	movw	r30, r22
    5bb0:	dc 01       	movw	r26, r24
    5bb2:	01 90       	ld	r0, Z+
    5bb4:	0d 92       	st	X+, r0
    5bb6:	00 20       	and	r0, r0
    5bb8:	e1 f7       	brne	.-8      	; 0x5bb2 <strcpy+0x4>
    5bba:	08 95       	ret

00005bbc <__mulsi3>:
    5bbc:	62 9f       	mul	r22, r18
    5bbe:	d0 01       	movw	r26, r0
    5bc0:	73 9f       	mul	r23, r19
    5bc2:	f0 01       	movw	r30, r0
    5bc4:	82 9f       	mul	r24, r18
    5bc6:	e0 0d       	add	r30, r0
    5bc8:	f1 1d       	adc	r31, r1
    5bca:	64 9f       	mul	r22, r20
    5bcc:	e0 0d       	add	r30, r0
    5bce:	f1 1d       	adc	r31, r1
    5bd0:	92 9f       	mul	r25, r18
    5bd2:	f0 0d       	add	r31, r0
    5bd4:	83 9f       	mul	r24, r19
    5bd6:	f0 0d       	add	r31, r0
    5bd8:	74 9f       	mul	r23, r20
    5bda:	f0 0d       	add	r31, r0
    5bdc:	65 9f       	mul	r22, r21
    5bde:	f0 0d       	add	r31, r0
    5be0:	99 27       	eor	r25, r25
    5be2:	72 9f       	mul	r23, r18
    5be4:	b0 0d       	add	r27, r0
    5be6:	e1 1d       	adc	r30, r1
    5be8:	f9 1f       	adc	r31, r25
    5bea:	63 9f       	mul	r22, r19
    5bec:	b0 0d       	add	r27, r0
    5bee:	e1 1d       	adc	r30, r1
    5bf0:	f9 1f       	adc	r31, r25
    5bf2:	bd 01       	movw	r22, r26
    5bf4:	cf 01       	movw	r24, r30
    5bf6:	11 24       	eor	r1, r1
    5bf8:	08 95       	ret

00005bfa <__udivmodsi4>:
    5bfa:	a1 e2       	ldi	r26, 0x21	; 33
    5bfc:	1a 2e       	mov	r1, r26
    5bfe:	aa 1b       	sub	r26, r26
    5c00:	bb 1b       	sub	r27, r27
    5c02:	fd 01       	movw	r30, r26
    5c04:	0d c0       	rjmp	.+26     	; 0x5c20 <__udivmodsi4_ep>

00005c06 <__udivmodsi4_loop>:
    5c06:	aa 1f       	adc	r26, r26
    5c08:	bb 1f       	adc	r27, r27
    5c0a:	ee 1f       	adc	r30, r30
    5c0c:	ff 1f       	adc	r31, r31
    5c0e:	a2 17       	cp	r26, r18
    5c10:	b3 07       	cpc	r27, r19
    5c12:	e4 07       	cpc	r30, r20
    5c14:	f5 07       	cpc	r31, r21
    5c16:	20 f0       	brcs	.+8      	; 0x5c20 <__udivmodsi4_ep>
    5c18:	a2 1b       	sub	r26, r18
    5c1a:	b3 0b       	sbc	r27, r19
    5c1c:	e4 0b       	sbc	r30, r20
    5c1e:	f5 0b       	sbc	r31, r21

00005c20 <__udivmodsi4_ep>:
    5c20:	66 1f       	adc	r22, r22
    5c22:	77 1f       	adc	r23, r23
    5c24:	88 1f       	adc	r24, r24
    5c26:	99 1f       	adc	r25, r25
    5c28:	1a 94       	dec	r1
    5c2a:	69 f7       	brne	.-38     	; 0x5c06 <__udivmodsi4_loop>
    5c2c:	60 95       	com	r22
    5c2e:	70 95       	com	r23
    5c30:	80 95       	com	r24
    5c32:	90 95       	com	r25
    5c34:	9b 01       	movw	r18, r22
    5c36:	ac 01       	movw	r20, r24
    5c38:	bd 01       	movw	r22, r26
    5c3a:	cf 01       	movw	r24, r30
    5c3c:	08 95       	ret

00005c3e <_exit>:
    5c3e:	f8 94       	cli

00005c40 <__stop_program>:
    5c40:	ff cf       	rjmp	.-2      	; 0x5c40 <__stop_program>
