Archive member included because of file (symbol)

c:/winavr-20081205/bin/../lib/gcc/avr/4.3.2/avr51\libgcc.a(_mulsi3.o)
                              ff.o (__mulsi3)
c:/winavr-20081205/bin/../lib/gcc/avr/4.3.2/avr51\libgcc.a(_udivmodsi4.o)
                              lcd_driver.o (__udivmodsi4)
c:/winavr-20081205/bin/../lib/gcc/avr/4.3.2/avr51\libgcc.a(_exit.o)
                              c:/winavr-20081205/bin/../lib/gcc/avr/4.3.2/../../../../avr/lib/avr51/crtm128.o (exit)
c:/winavr-20081205/bin/../lib/gcc/avr/4.3.2/avr51\libgcc.a(_clear_bss.o)
                              main.o (__do_clear_bss)
c:/winavr-20081205/bin/../lib/gcc/avr/4.3.2/../../../../avr/lib/avr51\libc.a(strcpy.o)
                              main.o (strcpy)

Allocating common symbols
Common symbol       size              file

dir_                0x2               main.o
acc_dirs            0x2               main.o
buff                0x1               lcd_driver.o
acc_files           0x2               main.o
file                0x2               main.o
Buff                0x100             main.o

Memory Configuration

Name             Origin             Length             Attributes
text             0x00000000         0x00020000         xr
data             0x00800060         0x0000ffa0         rw !x
eeprom           0x00810000         0x00010000         rw !x
fuse             0x00820000         0x00000400         rw !x
lock             0x00830000         0x00000400         rw !x
signature        0x00840000         0x00000400         rw !x
*default*        0x00000000         0xffffffff

Linker script and memory map

Address of section .data set to 0x800100
LOAD c:/winavr-20081205/bin/../lib/gcc/avr/4.3.2/../../../../avr/lib/avr51/crtm128.o
LOAD main.o
LOAD lcd_driver.o
LOAD UART_routines.o
LOAD ff.o
LOAD diskio.o
LOAD ccsbcs.o
LOAD c:/winavr-20081205/bin/../lib/gcc/avr/4.3.2/avr51\libgcc.a
LOAD c:/winavr-20081205/bin/../lib/gcc/avr/4.3.2/../../../../avr/lib/avr51\libc.a
LOAD c:/winavr-20081205/bin/../lib/gcc/avr/4.3.2/avr51\libgcc.a

.hash
 *(.hash)

.dynsym
 *(.dynsym)

.dynstr
 *(.dynstr)

.gnu.version
 *(.gnu.version)

.gnu.version_d
 *(.gnu.version_d)

.gnu.version_r
 *(.gnu.version_r)

.rel.init
 *(.rel.init)

.rela.init
 *(.rela.init)

.rel.text
 *(.rel.text)
 *(.rel.text.*)
 *(.rel.gnu.linkonce.t*)

.rela.text
 *(.rela.text)
 *(.rela.text.*)
 *(.rela.gnu.linkonce.t*)

.rel.fini
 *(.rel.fini)

.rela.fini
 *(.rela.fini)

.rel.rodata
 *(.rel.rodata)
 *(.rel.rodata.*)
 *(.rel.gnu.linkonce.r*)

.rela.rodata
 *(.rela.rodata)
 *(.rela.rodata.*)
 *(.rela.gnu.linkonce.r*)

.rel.data
 *(.rel.data)
 *(.rel.data.*)
 *(.rel.gnu.linkonce.d*)

.rela.data
 *(.rela.data)
 *(.rela.data.*)
 *(.rela.gnu.linkonce.d*)

.rel.ctors
 *(.rel.ctors)

.rela.ctors
 *(.rela.ctors)

.rel.dtors
 *(.rel.dtors)

.rela.dtors
 *(.rela.dtors)

.rel.got
 *(.rel.got)

.rela.got
 *(.rela.got)

.rel.bss
 *(.rel.bss)

.rela.bss
 *(.rela.bss)

.rel.plt
 *(.rel.plt)

.rela.plt
 *(.rela.plt)

.text           0x00000000     0x5c42
 *(.vectors)
 .vectors       0x00000000       0x8c c:/winavr-20081205/bin/../lib/gcc/avr/4.3.2/../../../../avr/lib/avr51/crtm128.o
                0x00000000                __vectors
                0x00000000                __vector_default
 *(.vectors)
 *(.progmem.gcc*)
 *(.progmem*)
 .progmem.data  0x0000008c       0x36 main.o
                0x0000008c                hello
                0x000000a0                mounting_FAT
                0x000000ae                move_to_DIR_SKINS
 .progmem.data  0x000000c2      0x6fa lcd_driver.o
 .progmem.data  0x000007bc       0x2d diskio.o
                0x000007ea                . = ALIGN (0x2)
 *fill*         0x000007e9        0x1 00
                0x000007ea                __trampolines_start = .
 *(.trampolines)
 .trampolines   0x000007ea        0x0 linker stubs
 *(.trampolines*)
                0x000007ea                __trampolines_end = .
 *(.jumptables)
 *(.jumptables*)
 *(.lowtext)
 *(.lowtext*)
                0x000007ea                __ctors_start = .
 *(.ctors)
                0x000007ea                __ctors_end = .
                0x000007ea                __dtors_start = .
 *(.dtors)
                0x000007ea                __dtors_end = .
 SORT(*)(.ctors)
 SORT(*)(.dtors)
 *(.init0)
 .init0         0x000007ea        0x0 c:/winavr-20081205/bin/../lib/gcc/avr/4.3.2/../../../../avr/lib/avr51/crtm128.o
                0x000007ea                __init
 *(.init0)
 *(.init1)
 *(.init1)
 *(.init2)
 .init2         0x000007ea        0xc c:/winavr-20081205/bin/../lib/gcc/avr/4.3.2/../../../../avr/lib/avr51/crtm128.o
 *(.init2)
 *(.init3)
 *(.init3)
 *(.init4)
 .init4         0x000007f6       0x1c c:/winavr-20081205/bin/../lib/gcc/avr/4.3.2/../../../../avr/lib/avr51/crtm128.o
                0x000007f6                __do_copy_data
 .init4         0x00000812       0x10 c:/winavr-20081205/bin/../lib/gcc/avr/4.3.2/avr51\libgcc.a(_clear_bss.o)
                0x00000812                __do_clear_bss
 *(.init4)
 *(.init5)
 *(.init5)
 *(.init6)
 *(.init6)
 *(.init7)
 *(.init7)
 *(.init8)
 *(.init8)
 *(.init9)
 .init9         0x00000822        0x8 c:/winavr-20081205/bin/../lib/gcc/avr/4.3.2/../../../../avr/lib/avr51/crtm128.o
 *(.init9)
 *(.text)
 .text          0x0000082a        0x4 c:/winavr-20081205/bin/../lib/gcc/avr/4.3.2/../../../../avr/lib/avr51/crtm128.o
                0x0000082a                __vector_22
                0x0000082a                __vector_28
                0x0000082a                __vector_1
                0x0000082a                __vector_32
                0x0000082a                __vector_34
                0x0000082a                __vector_24
                0x0000082a                __vector_12
                0x0000082a                __bad_interrupt
                0x0000082a                __vector_6
                0x0000082a                __vector_31
                0x0000082a                __vector_3
                0x0000082a                __vector_23
                0x0000082a                __vector_30
                0x0000082a                __vector_25
                0x0000082a                __vector_11
                0x0000082a                __vector_13
                0x0000082a                __vector_17
                0x0000082a                __vector_19
                0x0000082a                __vector_7
                0x0000082a                __vector_27
                0x0000082a                __vector_5
                0x0000082a                __vector_33
                0x0000082a                __vector_4
                0x0000082a                __vector_9
                0x0000082a                __vector_2
                0x0000082a                __vector_21
                0x0000082a                __vector_15
                0x0000082a                __vector_29
                0x0000082a                __vector_8
                0x0000082a                __vector_26
                0x0000082a                __vector_14
                0x0000082a                __vector_10
                0x0000082a                __vector_16
                0x0000082a                __vector_18
                0x0000082a                __vector_20
 .text          0x0000082e      0x2e0 main.o
                0x0000082e                waitms
                0x0000099e                main
                0x0000084a                scan_files
 .text          0x00000b0e      0x81c lcd_driver.o
                0x00000e58                set_Pixel
                0x00000c3e                clrscr
                0x00001162                bmp_rcv_uart
                0x00000d28                printDecimal
                0x00000cb6                pix_blit
                0x00000b8a                putch
                0x00000b0e                send_byte_
                0x00000cbc                putstr_ram
                0x00000ebc                drawLine
                0x00000b2a                send_data
                0x00000b38                send_cmd
                0x00000c96                lcd_set_brightness_parms
                0x00001240                init_lcd
                0x00000b46                window
                0x00000fc8                print_bmp_sd
                0x00000cf0                putstr_pgm
                0x00000dd2                test_all_char
 .text          0x0000132a       0x6e UART_routines.o
                0x00001352                transmitByte
                0x0000132a                uart1_init
                0x00001364                transmitString_F
                0x00001362                transmitHex
                0x0000137e                transmitString
                0x00001340                receiveByte
 .text          0x00001398     0x3e02 ff.o
                0x000046bc                f_gets
                0x00001e52                get_fat
                0x00003f72                f_printf
                0x00002f88                f_getcwd
                0x0000484c                f_rename
                0x00002cf8                f_chdir
                0x000024a6                f_truncate
                0x00004f38                f_unlink
                0x00003ee2                f_putc
                0x00003f2c                f_puts
                0x000014ee                f_chdrive
                0x00005182                f_close
                0x000042c0                f_read
                0x00002ee4                f_readdir
                0x00004ba6                f_chmod
                0x000014fe                get_fattime
                0x000050b8                f_sync
                0x000014c4                f_mount
                0x00002c38                f_opendir
                0x00001c64                put_fat
                0x000035ee                f_lseek
                0x00002bae                f_stat
                0x00001398                clust2sect
                0x00004b00                f_utime
                0x00003a42                f_write
                0x000031b0                f_open
                0x00004c46                f_mkdir
                0x000033fa                f_getfree
 .text          0x0000519a      0x9be diskio.o
                0x00005906                disk_initialize
                0x000053ae                disk_status
                0x0000554c                disk_ioctl
                0x000058e4                disk_timerproc
                0x0000546c                disk_write
                0x000053bc                disk_read
 .text          0x00005b58       0x56 ccsbcs.o
                0x00005b58                ff_convert
 .text          0x00005bae        0x0 c:/winavr-20081205/bin/../lib/gcc/avr/4.3.2/avr51\libgcc.a(_mulsi3.o)
 .text          0x00005bae        0x0 c:/winavr-20081205/bin/../lib/gcc/avr/4.3.2/avr51\libgcc.a(_udivmodsi4.o)
 .text          0x00005bae        0x0 c:/winavr-20081205/bin/../lib/gcc/avr/4.3.2/avr51\libgcc.a(_exit.o)
 .text          0x00005bae        0x0 c:/winavr-20081205/bin/../lib/gcc/avr/4.3.2/avr51\libgcc.a(_clear_bss.o)
 .text          0x00005bae        0xe c:/winavr-20081205/bin/../lib/gcc/avr/4.3.2/../../../../avr/lib/avr51\libc.a(strcpy.o)
                0x00005bae                strcpy
                0x00005bbc                . = ALIGN (0x2)
 *(.text.*)
 .text.libgcc   0x00005bbc       0x3e c:/winavr-20081205/bin/../lib/gcc/avr/4.3.2/avr51\libgcc.a(_mulsi3.o)
                0x00005bbc                __mulsi3
 .text.libgcc   0x00005bfa       0x44 c:/winavr-20081205/bin/../lib/gcc/avr/4.3.2/avr51\libgcc.a(_udivmodsi4.o)
                0x00005bfa                __udivmodsi4
 .text.libgcc   0x00005c3e        0x0 c:/winavr-20081205/bin/../lib/gcc/avr/4.3.2/avr51\libgcc.a(_exit.o)
 .text.libgcc   0x00005c3e        0x0 c:/winavr-20081205/bin/../lib/gcc/avr/4.3.2/avr51\libgcc.a(_clear_bss.o)
                0x00005c3e                . = ALIGN (0x2)
 *(.fini9)
 .fini9         0x00005c3e        0x0 c:/winavr-20081205/bin/../lib/gcc/avr/4.3.2/avr51\libgcc.a(_exit.o)
                0x00005c3e                exit
                0x00005c3e                _exit
 *(.fini9)
 *(.fini8)
 *(.fini8)
 *(.fini7)
 *(.fini7)
 *(.fini6)
 *(.fini6)
 *(.fini5)
 *(.fini5)
 *(.fini4)
 *(.fini4)
 *(.fini3)
 *(.fini3)
 *(.fini2)
 *(.fini2)
 *(.fini1)
 *(.fini1)
 *(.fini0)
 .fini0         0x00005c3e        0x4 c:/winavr-20081205/bin/../lib/gcc/avr/4.3.2/avr51\libgcc.a(_exit.o)
 *(.fini0)
                0x00005c42                _etext = .

.data           0x00800100      0x1ce load address 0x00005c42
                0x00800100                PROVIDE (__data_start, .)
 *(.data)
 .data          0x00800100        0x0 c:/winavr-20081205/bin/../lib/gcc/avr/4.3.2/../../../../avr/lib/avr51/crtm128.o
 .data          0x00800100       0x3e main.o
                0x0080013d                bg
 .data          0x0080013e        0x0 lcd_driver.o
 .data          0x0080013e        0x0 UART_routines.o
 .data          0x0080013e       0x8f ff.o
 .data          0x008001cd        0x1 diskio.o
 .data          0x008001ce      0x100 ccsbcs.o
 .data          0x008002ce        0x0 c:/winavr-20081205/bin/../lib/gcc/avr/4.3.2/avr51\libgcc.a(_mulsi3.o)
 .data          0x008002ce        0x0 c:/winavr-20081205/bin/../lib/gcc/avr/4.3.2/avr51\libgcc.a(_udivmodsi4.o)
 .data          0x008002ce        0x0 c:/winavr-20081205/bin/../lib/gcc/avr/4.3.2/avr51\libgcc.a(_exit.o)
 .data          0x008002ce        0x0 c:/winavr-20081205/bin/../lib/gcc/avr/4.3.2/avr51\libgcc.a(_clear_bss.o)
 .data          0x008002ce        0x0 c:/winavr-20081205/bin/../lib/gcc/avr/4.3.2/../../../../avr/lib/avr51\libc.a(strcpy.o)
 *(.data*)
 *(.rodata)
 *(.rodata*)
 *(.gnu.linkonce.d*)
                0x008002ce                . = ALIGN (0x2)
                0x008002ce                _edata = .
                0x008002ce                PROVIDE (__data_end, .)

.bss            0x008002ce      0x348
                0x008002ce                PROVIDE (__bss_start, .)
 *(.bss)
 .bss           0x008002ce        0x0 c:/winavr-20081205/bin/../lib/gcc/avr/4.3.2/../../../../avr/lib/avr51/crtm128.o
 .bss           0x008002ce      0x237 main.o
                0x008002cf                x
                0x008002ce                fg
                0x008002d1                dir_counter
                0x008002d2                file_counter
                0x008002d0                y
 .bss           0x00800505        0x0 lcd_driver.o
 .bss           0x00800505        0x0 UART_routines.o
 .bss           0x00800505        0x5 ff.o
 .bss           0x0080050a        0x3 diskio.o
 .bss           0x0080050d        0x0 ccsbcs.o
 .bss           0x0080050d        0x0 c:/winavr-20081205/bin/../lib/gcc/avr/4.3.2/avr51\libgcc.a(_mulsi3.o)
 .bss           0x0080050d        0x0 c:/winavr-20081205/bin/../lib/gcc/avr/4.3.2/avr51\libgcc.a(_udivmodsi4.o)
 .bss           0x0080050d        0x0 c:/winavr-20081205/bin/../lib/gcc/avr/4.3.2/avr51\libgcc.a(_exit.o)
 .bss           0x0080050d        0x0 c:/winavr-20081205/bin/../lib/gcc/avr/4.3.2/avr51\libgcc.a(_clear_bss.o)
 .bss           0x0080050d        0x0 c:/winavr-20081205/bin/../lib/gcc/avr/4.3.2/../../../../avr/lib/avr51\libc.a(strcpy.o)
 *(.bss*)
 *(COMMON)
 COMMON         0x0080050d      0x108 main.o
                0x0080050d                dir_
                0x0080050f                acc_dirs
                0x00800511                acc_files
                0x00800513                file
                0x00800515                Buff
 COMMON         0x00800615        0x1 lcd_driver.o
                0x00800615                buff
                0x00800616                PROVIDE (__bss_end, .)
                0x00005c42                __data_load_start = LOADADDR (.data)
                0x00005e10                __data_load_end = (__data_load_start + SIZEOF (.data))

.noinit         0x00800616        0x0
                0x00800616                PROVIDE (__noinit_start, .)
 *(.noinit*)
                0x00800616                PROVIDE (__noinit_end, .)
                0x00800616                _end = .
                0x00800616                PROVIDE (__heap_start, .)

.eeprom         0x00810000        0x0
 *(.eeprom*)
                0x00810000                __eeprom_end = .

.fuse
 *(.fuse)
 *(.lfuse)
 *(.hfuse)
 *(.efuse)

.lock
 *(.lock*)

.signature
 *(.signature*)

.stab
 *(.stab)

.stabstr
 *(.stabstr)

.stab.excl
 *(.stab.excl)

.stab.exclstr
 *(.stab.exclstr)

.stab.index
 *(.stab.index)

.stab.indexstr
 *(.stab.indexstr)

.comment
 *(.comment)

.debug
 *(.debug)

.line
 *(.line)

.debug_srcinfo
 *(.debug_srcinfo)

.debug_sfnames
 *(.debug_sfnames)

.debug_aranges  0x00000000       0xc0
 *(.debug_aranges)
 .debug_aranges
                0x00000000       0x20 main.o
 .debug_aranges
                0x00000020       0x20 lcd_driver.o
 .debug_aranges
                0x00000040       0x20 UART_routines.o
 .debug_aranges
                0x00000060       0x20 ff.o
 .debug_aranges
                0x00000080       0x20 diskio.o
 .debug_aranges
                0x000000a0       0x20 ccsbcs.o

.debug_pubnames
                0x00000000      0x472
 *(.debug_pubnames)
 .debug_pubnames
                0x00000000       0xd7 main.o
 .debug_pubnames
                0x000000d7      0x11a lcd_driver.o
 .debug_pubnames
                0x000001f1       0x7a UART_routines.o
 .debug_pubnames
                0x0000026b      0x171 ff.o
 .debug_pubnames
                0x000003dc       0x75 diskio.o
 .debug_pubnames
                0x00000451       0x21 ccsbcs.o

.debug_info     0x00000000     0x425f
 *(.debug_info)
 .debug_info    0x00000000      0x65b main.o
 .debug_info    0x0000065b      0xc59 lcd_driver.o
 .debug_info    0x000012b4      0x23e UART_routines.o
 .debug_info    0x000014f2     0x212a ff.o
 .debug_info    0x0000361c      0xb50 diskio.o
 .debug_info    0x0000416c       0xf3 ccsbcs.o
 *(.gnu.linkonce.wi.*)

.debug_abbrev   0x00000000      0xbf0
 *(.debug_abbrev)
 .debug_abbrev  0x00000000      0x1d0 main.o
 .debug_abbrev  0x000001d0      0x250 lcd_driver.o
 .debug_abbrev  0x00000420      0x17a UART_routines.o
 .debug_abbrev  0x0000059a      0x2b8 ff.o
 .debug_abbrev  0x00000852      0x2f0 diskio.o
 .debug_abbrev  0x00000b42       0xae ccsbcs.o

.debug_line     0x00000000     0x3732
 *(.debug_line)
 .debug_line    0x00000000      0x26f main.o
 .debug_line    0x0000026f      0x6ed lcd_driver.o
 .debug_line    0x0000095c      0x180 UART_routines.o
 .debug_line    0x00000adc     0x211e ff.o
 .debug_line    0x00002bfa      0xa98 diskio.o
 .debug_line    0x00003692       0xa0 ccsbcs.o

.debug_frame    0x00000000      0x530
 *(.debug_frame)
 .debug_frame   0x00000000       0x40 main.o
 .debug_frame   0x00000040      0x120 lcd_driver.o
 .debug_frame   0x00000160       0x70 UART_routines.o
 .debug_frame   0x000001d0      0x2a0 ff.o
 .debug_frame   0x00000470       0xa0 diskio.o
 .debug_frame   0x00000510       0x20 ccsbcs.o

.debug_str      0x00000000      0x93d
 *(.debug_str)
 .debug_str     0x00000000      0x334 main.o
                                0x38c (size before relaxing)
 .debug_str     0x00000334      0x182 lcd_driver.o
                                0x2f8 (size before relaxing)
 .debug_str     0x000004b6       0x83 UART_routines.o
                                0x14b (size before relaxing)
 .debug_str     0x00000539      0x2d4 ff.o
                                0x5dc (size before relaxing)
 .debug_str     0x0000080d      0x113 diskio.o
                                0x27c (size before relaxing)
 .debug_str     0x00000920       0x1d ccsbcs.o
                                 0xad (size before relaxing)

.debug_loc      0x00000000     0x5664
 *(.debug_loc)
 .debug_loc     0x00000000       0xc7 main.o
 .debug_loc     0x000000c7      0xa9d lcd_driver.o
 .debug_loc     0x00000b64       0x94 UART_routines.o
 .debug_loc     0x00000bf8     0x40c1 ff.o
 .debug_loc     0x00004cb9      0x91b diskio.o
 .debug_loc     0x000055d4       0x90 ccsbcs.o

.debug_macinfo
 *(.debug_macinfo)
OUTPUT(SD_and_LCD.elf elf32-avr)
LOAD linker stubs

.debug_ranges   0x00000000      0x348
 .debug_ranges  0x00000000       0x30 UART_routines.o
 .debug_ranges  0x00000030       0x90 ff.o
 .debug_ranges  0x000000c0      0x288 diskio.o
