
;CodeVisionAVR C Compiler V1.25.8 Standard
;(C) Copyright 1998-2007 Pavel Haiduc, HP InfoTech s.r.l.
;http://www.hpinfotech.com

;Chip type              : ATmega8
;Program type           : Application
;Clock frequency        : 11,059200 MHz
;Memory model           : Small
;Optimize for           : Size
;(s)printf features     : int, width
;(s)scanf features      : int, width
;External SRAM size     : 0
;Data Stack size        : 256 byte(s)
;Heap size              : 0 byte(s)
;Promote char to int    : Yes
;char is unsigned       : Yes
;8 bit enums            : Yes
;Word align FLASH struct: Yes
;Enhanced core instructions    : On
;Smart register allocation : On
;Automatic register allocation : On

	#pragma AVRPART ADMIN PART_NAME ATmega8
	#pragma AVRPART MEMORY PROG_FLASH 8192
	#pragma AVRPART MEMORY EEPROM 512
	#pragma AVRPART MEMORY INT_SRAM SIZE 1024
	#pragma AVRPART MEMORY INT_SRAM START_ADDR 0x60

	.EQU UDRE=0x5
	.EQU RXC=0x7
	.EQU USR=0xB
	.EQU UDR=0xC
	.EQU SPSR=0xE
	.EQU SPDR=0xF
	.EQU EERE=0x0
	.EQU EEWE=0x1
	.EQU EEMWE=0x2
	.EQU EECR=0x1C
	.EQU EEDR=0x1D
	.EQU EEARL=0x1E
	.EQU EEARH=0x1F
	.EQU WDTCR=0x21
	.EQU MCUCR=0x35
	.EQU GICR=0x3B
	.EQU SPL=0x3D
	.EQU SPH=0x3E
	.EQU SREG=0x3F

	.DEF R0X0=R0
	.DEF R0X1=R1
	.DEF R0X2=R2
	.DEF R0X3=R3
	.DEF R0X4=R4
	.DEF R0X5=R5
	.DEF R0X6=R6
	.DEF R0X7=R7
	.DEF R0X8=R8
	.DEF R0X9=R9
	.DEF R0XA=R10
	.DEF R0XB=R11
	.DEF R0XC=R12
	.DEF R0XD=R13
	.DEF R0XE=R14
	.DEF R0XF=R15
	.DEF R0X10=R16
	.DEF R0X11=R17
	.DEF R0X12=R18
	.DEF R0X13=R19
	.DEF R0X14=R20
	.DEF R0X15=R21
	.DEF R0X16=R22
	.DEF R0X17=R23
	.DEF R0X18=R24
	.DEF R0X19=R25
	.DEF R0X1A=R26
	.DEF R0X1B=R27
	.DEF R0X1C=R28
	.DEF R0X1D=R29
	.DEF R0X1E=R30
	.DEF R0X1F=R31

	.MACRO __CPD1N
	CPI  R30,LOW(@0)
	LDI  R26,HIGH(@0)
	CPC  R31,R26
	LDI  R26,BYTE3(@0)
	CPC  R22,R26
	LDI  R26,BYTE4(@0)
	CPC  R23,R26
	.ENDM

	.MACRO __CPD2N
	CPI  R26,LOW(@0)
	LDI  R30,HIGH(@0)
	CPC  R27,R30
	LDI  R30,BYTE3(@0)
	CPC  R24,R30
	LDI  R30,BYTE4(@0)
	CPC  R25,R30
	.ENDM

	.MACRO __CPWRR
	CP   R@0,R@2
	CPC  R@1,R@3
	.ENDM

	.MACRO __CPWRN
	CPI  R@0,LOW(@2)
	LDI  R30,HIGH(@2)
	CPC  R@1,R30
	.ENDM

	.MACRO __ADDB1MN
	SUBI R30,LOW(-@0-(@1))
	.ENDM
	.MACRO __ADDB2MN
	SUBI R26,LOW(-@0-(@1))
	.ENDM
	.MACRO __ADDW1MN
	SUBI R30,LOW(-@0-(@1))
	SBCI R31,HIGH(-@0-(@1))
	.ENDM
	.MACRO __ADDW2MN
	SUBI R26,LOW(-@0-(@1))
	SBCI R27,HIGH(-@0-(@1))
	.ENDM
	.MACRO __ADDW1FN
	SUBI R30,LOW(-2*@0-(@1))
	SBCI R31,HIGH(-2*@0-(@1))
	.ENDM
	.MACRO __ADDD1FN
	SUBI R30,LOW(-2*@0-(@1))
	SBCI R31,HIGH(-2*@0-(@1))
	SBCI R22,BYTE3(-2*@0-(@1))
	.ENDM
	.MACRO __ADDD1N
	SUBI R30,LOW(-@0)
	SBCI R31,HIGH(-@0)
	SBCI R22,BYTE3(-@0)
	SBCI R23,BYTE4(-@0)
	.ENDM

	.MACRO __ADDD2N
	SUBI R26,LOW(-@0)
	SBCI R27,HIGH(-@0)
	SBCI R24,BYTE3(-@0)
	SBCI R25,BYTE4(-@0)
	.ENDM

	.MACRO __SUBD1N
	SUBI R30,LOW(@0)
	SBCI R31,HIGH(@0)
	SBCI R22,BYTE3(@0)
	SBCI R23,BYTE4(@0)
	.ENDM

	.MACRO __SUBD2N
	SUBI R26,LOW(@0)
	SBCI R27,HIGH(@0)
	SBCI R24,BYTE3(@0)
	SBCI R25,BYTE4(@0)
	.ENDM

	.MACRO __ANDBMNN
	LDS  R30,@0+@1
	ANDI R30,LOW(@2)
	STS  @0+@1,R30
	.ENDM

	.MACRO __ANDWMNN
	LDS  R30,@0+@1
	ANDI R30,LOW(@2)
	STS  @0+@1,R30
	LDS  R30,@0+@1+1
	ANDI R30,HIGH(@2)
	STS  @0+@1+1,R30
	.ENDM

	.MACRO __ANDD1N
	ANDI R30,LOW(@0)
	ANDI R31,HIGH(@0)
	ANDI R22,BYTE3(@0)
	ANDI R23,BYTE4(@0)
	.ENDM

	.MACRO __ORBMNN
	LDS  R30,@0+@1
	ORI  R30,LOW(@2)
	STS  @0+@1,R30
	.ENDM

	.MACRO __ORWMNN
	LDS  R30,@0+@1
	ORI  R30,LOW(@2)
	STS  @0+@1,R30
	LDS  R30,@0+@1+1
	ORI  R30,HIGH(@2)
	STS  @0+@1+1,R30
	.ENDM

	.MACRO __ORD1N
	ORI  R30,LOW(@0)
	ORI  R31,HIGH(@0)
	ORI  R22,BYTE3(@0)
	ORI  R23,BYTE4(@0)
	.ENDM

	.MACRO __DELAY_USB
	LDI  R24,LOW(@0)
__DELAY_USB_LOOP:
	DEC  R24
	BRNE __DELAY_USB_LOOP
	.ENDM

	.MACRO __DELAY_USW
	LDI  R24,LOW(@0)
	LDI  R25,HIGH(@0)
__DELAY_USW_LOOP:
	SBIW R24,1
	BRNE __DELAY_USW_LOOP
	.ENDM

	.MACRO __CLRD1S
	LDI  R30,0
	STD  Y+@0,R30
	STD  Y+@0+1,R30
	STD  Y+@0+2,R30
	STD  Y+@0+3,R30
	.ENDM

	.MACRO __GETD1S
	LDD  R30,Y+@0
	LDD  R31,Y+@0+1
	LDD  R22,Y+@0+2
	LDD  R23,Y+@0+3
	.ENDM

	.MACRO __PUTD1S
	STD  Y+@0,R30
	STD  Y+@0+1,R31
	STD  Y+@0+2,R22
	STD  Y+@0+3,R23
	.ENDM

	.MACRO __PUTD2S
	STD  Y+@0,R26
	STD  Y+@0+1,R27
	STD  Y+@0+2,R24
	STD  Y+@0+3,R25
	.ENDM

	.MACRO __POINTB1MN
	LDI  R30,LOW(@0+@1)
	.ENDM

	.MACRO __POINTW1MN
	LDI  R30,LOW(@0+@1)
	LDI  R31,HIGH(@0+@1)
	.ENDM

	.MACRO __POINTD1M
	LDI  R30,LOW(@0)
	LDI  R31,HIGH(@0)
	LDI  R22,BYTE3(@0)
	LDI  R23,BYTE4(@0)
	.ENDM

	.MACRO __POINTW1FN
	LDI  R30,LOW(2*@0+@1)
	LDI  R31,HIGH(2*@0+@1)
	.ENDM

	.MACRO __POINTD1FN
	LDI  R30,LOW(2*@0+@1)
	LDI  R31,HIGH(2*@0+@1)
	LDI  R22,BYTE3(2*@0+@1)
	LDI  R23,BYTE4(2*@0+@1)
	.ENDM

	.MACRO __POINTB2MN
	LDI  R26,LOW(@0+@1)
	.ENDM

	.MACRO __POINTW2MN
	LDI  R26,LOW(@0+@1)
	LDI  R27,HIGH(@0+@1)
	.ENDM

	.MACRO __POINTBRM
	LDI  R@0,LOW(@1)
	.ENDM

	.MACRO __POINTWRM
	LDI  R@0,LOW(@2)
	LDI  R@1,HIGH(@2)
	.ENDM

	.MACRO __POINTBRMN
	LDI  R@0,LOW(@1+@2)
	.ENDM

	.MACRO __POINTWRMN
	LDI  R@0,LOW(@2+@3)
	LDI  R@1,HIGH(@2+@3)
	.ENDM

	.MACRO __POINTWRFN
	LDI  R@0,LOW(@2*2+@3)
	LDI  R@1,HIGH(@2*2+@3)
	.ENDM

	.MACRO __GETD1N
	LDI  R30,LOW(@0)
	LDI  R31,HIGH(@0)
	LDI  R22,BYTE3(@0)
	LDI  R23,BYTE4(@0)
	.ENDM

	.MACRO __GETD2N
	LDI  R26,LOW(@0)
	LDI  R27,HIGH(@0)
	LDI  R24,BYTE3(@0)
	LDI  R25,BYTE4(@0)
	.ENDM

	.MACRO __GETD2S
	LDD  R26,Y+@0
	LDD  R27,Y+@0+1
	LDD  R24,Y+@0+2
	LDD  R25,Y+@0+3
	.ENDM

	.MACRO __GETB1MN
	LDS  R30,@0+@1
	.ENDM

	.MACRO __GETB1HMN
	LDS  R31,@0+@1
	.ENDM

	.MACRO __GETW1MN
	LDS  R30,@0+@1
	LDS  R31,@0+@1+1
	.ENDM

	.MACRO __GETD1MN
	LDS  R30,@0+@1
	LDS  R31,@0+@1+1
	LDS  R22,@0+@1+2
	LDS  R23,@0+@1+3
	.ENDM

	.MACRO __GETBRMN
	LDS  R@0,@1+@2
	.ENDM

	.MACRO __GETWRMN
	LDS  R@0,@2+@3
	LDS  R@1,@2+@3+1
	.ENDM

	.MACRO __GETWRZ
	LDD  R@0,Z+@2
	LDD  R@1,Z+@2+1
	.ENDM

	.MACRO __GETD2Z
	LDD  R26,Z+@0
	LDD  R27,Z+@0+1
	LDD  R24,Z+@0+2
	LDD  R25,Z+@0+3
	.ENDM

	.MACRO __GETB2MN
	LDS  R26,@0+@1
	.ENDM

	.MACRO __GETW2MN
	LDS  R26,@0+@1
	LDS  R27,@0+@1+1
	.ENDM

	.MACRO __GETD2MN
	LDS  R26,@0+@1
	LDS  R27,@0+@1+1
	LDS  R24,@0+@1+2
	LDS  R25,@0+@1+3
	.ENDM

	.MACRO __PUTB1MN
	STS  @0+@1,R30
	.ENDM

	.MACRO __PUTW1MN
	STS  @0+@1,R30
	STS  @0+@1+1,R31
	.ENDM

	.MACRO __PUTD1MN
	STS  @0+@1,R30
	STS  @0+@1+1,R31
	STS  @0+@1+2,R22
	STS  @0+@1+3,R23
	.ENDM

	.MACRO __PUTBR0MN
	STS  @0+@1,R0
	.ENDM

	.MACRO __PUTDZ2
	STD  Z+@0,R26
	STD  Z+@0+1,R27
	STD  Z+@0+2,R24
	STD  Z+@0+3,R25
	.ENDM

	.MACRO __PUTBMRN
	STS  @0+@1,R@2
	.ENDM

	.MACRO __PUTWMRN
	STS  @0+@1,R@2
	STS  @0+@1+1,R@3
	.ENDM

	.MACRO __PUTBZR
	STD  Z+@1,R@0
	.ENDM

	.MACRO __PUTWZR
	STD  Z+@2,R@0
	STD  Z+@2+1,R@1
	.ENDM

	.MACRO __GETW1R
	MOV  R30,R@0
	MOV  R31,R@1
	.ENDM

	.MACRO __GETW2R
	MOV  R26,R@0
	MOV  R27,R@1
	.ENDM

	.MACRO __GETWRN
	LDI  R@0,LOW(@2)
	LDI  R@1,HIGH(@2)
	.ENDM

	.MACRO __PUTW1R
	MOV  R@0,R30
	MOV  R@1,R31
	.ENDM

	.MACRO __PUTW2R
	MOV  R@0,R26
	MOV  R@1,R27
	.ENDM

	.MACRO __ADDWRN
	SUBI R@0,LOW(-@2)
	SBCI R@1,HIGH(-@2)
	.ENDM

	.MACRO __ADDWRR
	ADD  R@0,R@2
	ADC  R@1,R@3
	.ENDM

	.MACRO __SUBWRN
	SUBI R@0,LOW(@2)
	SBCI R@1,HIGH(@2)
	.ENDM

	.MACRO __SUBWRR
	SUB  R@0,R@2
	SBC  R@1,R@3
	.ENDM

	.MACRO __ANDWRN
	ANDI R@0,LOW(@2)
	ANDI R@1,HIGH(@2)
	.ENDM

	.MACRO __ANDWRR
	AND  R@0,R@2
	AND  R@1,R@3
	.ENDM

	.MACRO __ORWRN
	ORI  R@0,LOW(@2)
	ORI  R@1,HIGH(@2)
	.ENDM

	.MACRO __ORWRR
	OR   R@0,R@2
	OR   R@1,R@3
	.ENDM

	.MACRO __EORWRR
	EOR  R@0,R@2
	EOR  R@1,R@3
	.ENDM

	.MACRO __GETWRS
	LDD  R@0,Y+@2
	LDD  R@1,Y+@2+1
	.ENDM

	.MACRO __PUTWSR
	STD  Y+@2,R@0
	STD  Y+@2+1,R@1
	.ENDM

	.MACRO __MOVEWRR
	MOV  R@0,R@2
	MOV  R@1,R@3
	.ENDM

	.MACRO __INWR
	IN   R@0,@2
	IN   R@1,@2+1
	.ENDM

	.MACRO __OUTWR
	OUT  @2+1,R@1
	OUT  @2,R@0
	.ENDM

	.MACRO __CALL1MN
	LDS  R30,@0+@1
	LDS  R31,@0+@1+1
	ICALL
	.ENDM

	.MACRO __CALL1FN
	LDI  R30,LOW(2*@0+@1)
	LDI  R31,HIGH(2*@0+@1)
	RCALL __GETW1PF
	ICALL
	.ENDM

	.MACRO __CALL2EN
	LDI  R26,LOW(@0+@1)
	LDI  R27,HIGH(@0+@1)
	RCALL __EEPROMRDW
	ICALL
	.ENDM

	.MACRO __GETW1STACK
	IN   R26,SPL
	IN   R27,SPH
	ADIW R26,@0+1
	LD   R30,X+
	LD   R31,X
	.ENDM

	.MACRO __NBST
	BST  R@0,@1
	IN   R30,SREG
	LDI  R31,0x40
	EOR  R30,R31
	OUT  SREG,R30
	.ENDM


	.MACRO __PUTB1SN
	LDD  R26,Y+@0
	LDD  R27,Y+@0+1
	SUBI R26,LOW(-@1)
	SBCI R27,HIGH(-@1)
	ST   X,R30
	.ENDM

	.MACRO __PUTW1SN
	LDD  R26,Y+@0
	LDD  R27,Y+@0+1
	SUBI R26,LOW(-@1)
	SBCI R27,HIGH(-@1)
	ST   X+,R30
	ST   X,R31
	.ENDM

	.MACRO __PUTD1SN
	LDD  R26,Y+@0
	LDD  R27,Y+@0+1
	SUBI R26,LOW(-@1)
	SBCI R27,HIGH(-@1)
	RCALL __PUTDP1
	.ENDM

	.MACRO __PUTB1SNS
	LDD  R26,Y+@0
	LDD  R27,Y+@0+1
	ADIW R26,@1
	ST   X,R30
	.ENDM

	.MACRO __PUTW1SNS
	LDD  R26,Y+@0
	LDD  R27,Y+@0+1
	ADIW R26,@1
	ST   X+,R30
	ST   X,R31
	.ENDM

	.MACRO __PUTD1SNS
	LDD  R26,Y+@0
	LDD  R27,Y+@0+1
	ADIW R26,@1
	RCALL __PUTDP1
	.ENDM

	.MACRO __PUTB1PMN
	LDS  R26,@0
	LDS  R27,@0+1
	SUBI R26,LOW(-@1)
	SBCI R27,HIGH(-@1)
	ST   X,R30
	.ENDM

	.MACRO __PUTW1PMN
	LDS  R26,@0
	LDS  R27,@0+1
	SUBI R26,LOW(-@1)
	SBCI R27,HIGH(-@1)
	ST   X+,R30
	ST   X,R31
	.ENDM

	.MACRO __PUTD1PMN
	LDS  R26,@0
	LDS  R27,@0+1
	SUBI R26,LOW(-@1)
	SBCI R27,HIGH(-@1)
	RCALL __PUTDP1
	.ENDM

	.MACRO __PUTB1PMNS
	LDS  R26,@0
	LDS  R27,@0+1
	ADIW R26,@1
	ST   X,R30
	.ENDM

	.MACRO __PUTW1PMNS
	LDS  R26,@0
	LDS  R27,@0+1
	ADIW R26,@1
	ST   X+,R30
	ST   X,R31
	.ENDM

	.MACRO __PUTD1PMNS
	LDS  R26,@0
	LDS  R27,@0+1
	ADIW R26,@1
	RCALL __PUTDP1
	.ENDM

	.MACRO __PUTB1RN
	MOVW R26,R@0
	SUBI R26,LOW(-@1)
	SBCI R27,HIGH(-@1)
	ST   X,R30
	.ENDM

	.MACRO __PUTW1RN
	MOVW R26,R@0
	SUBI R26,LOW(-@1)
	SBCI R27,HIGH(-@1)
	ST   X+,R30
	ST   X,R31
	.ENDM

	.MACRO __PUTD1RN
	MOVW R26,R@0
	SUBI R26,LOW(-@1)
	SBCI R27,HIGH(-@1)
	RCALL __PUTDP1
	.ENDM

	.MACRO __PUTB1RNS
	MOVW R26,R@0
	ADIW R26,@1
	ST   X,R30
	.ENDM

	.MACRO __PUTW1RNS
	MOVW R26,R@0
	ADIW R26,@1
	ST   X+,R30
	ST   X,R31
	.ENDM

	.MACRO __PUTD1RNS
	MOVW R26,R@0
	ADIW R26,@1
	RCALL __PUTDP1
	.ENDM

	.MACRO __PUTB1RON
	MOV  R26,R@0
	MOV  R27,R@1
	SUBI R26,LOW(-@2)
	SBCI R27,HIGH(-@2)
	ST   X,R30
	.ENDM

	.MACRO __PUTW1RON
	MOV  R26,R@0
	MOV  R27,R@1
	SUBI R26,LOW(-@2)
	SBCI R27,HIGH(-@2)
	ST   X+,R30
	ST   X,R31
	.ENDM

	.MACRO __PUTD1RON
	MOV  R26,R@0
	MOV  R27,R@1
	SUBI R26,LOW(-@2)
	SBCI R27,HIGH(-@2)
	RCALL __PUTDP1
	.ENDM

	.MACRO __PUTB1RONS
	MOV  R26,R@0
	MOV  R27,R@1
	ADIW R26,@2
	ST   X,R30
	.ENDM

	.MACRO __PUTW1RONS
	MOV  R26,R@0
	MOV  R27,R@1
	ADIW R26,@2
	ST   X+,R30
	ST   X,R31
	.ENDM

	.MACRO __PUTD1RONS
	MOV  R26,R@0
	MOV  R27,R@1
	ADIW R26,@2
	RCALL __PUTDP1
	.ENDM


	.MACRO __GETB1SX
	MOVW R30,R28
	SUBI R30,LOW(-@0)
	SBCI R31,HIGH(-@0)
	LD   R30,Z
	.ENDM

	.MACRO __GETB1HSX
	MOVW R30,R28
	SUBI R30,LOW(-@0)
	SBCI R31,HIGH(-@0)
	LD   R31,Z
	.ENDM

	.MACRO __GETW1SX
	MOVW R30,R28
	SUBI R30,LOW(-@0)
	SBCI R31,HIGH(-@0)
	LD   R0,Z+
	LD   R31,Z
	MOV  R30,R0
	.ENDM

	.MACRO __GETD1SX
	MOVW R30,R28
	SUBI R30,LOW(-@0)
	SBCI R31,HIGH(-@0)
	LD   R0,Z+
	LD   R1,Z+
	LD   R22,Z+
	LD   R23,Z
	MOVW R30,R0
	.ENDM

	.MACRO __GETB2SX
	MOVW R26,R28
	SUBI R26,LOW(-@0)
	SBCI R27,HIGH(-@0)
	LD   R26,X
	.ENDM

	.MACRO __GETW2SX
	MOVW R26,R28
	SUBI R26,LOW(-@0)
	SBCI R27,HIGH(-@0)
	LD   R0,X+
	LD   R27,X
	MOV  R26,R0
	.ENDM

	.MACRO __GETD2SX
	MOVW R26,R28
	SUBI R26,LOW(-@0)
	SBCI R27,HIGH(-@0)
	LD   R0,X+
	LD   R1,X+
	LD   R24,X+
	LD   R25,X
	MOVW R26,R0
	.ENDM

	.MACRO __GETBRSX
	MOVW R30,R28
	SUBI R30,LOW(-@1)
	SBCI R31,HIGH(-@1)
	LD   R@0,Z
	.ENDM

	.MACRO __GETWRSX
	MOVW R30,R28
	SUBI R30,LOW(-@2)
	SBCI R31,HIGH(-@2)
	LD   R@0,Z+
	LD   R@1,Z
	.ENDM

	.MACRO __LSLW8SX
	MOVW R30,R28
	SUBI R30,LOW(-@0)
	SBCI R31,HIGH(-@0)
	LD   R31,Z
	CLR  R30
	.ENDM

	.MACRO __PUTB1SX
	MOVW R26,R28
	SUBI R26,LOW(-@0)
	SBCI R27,HIGH(-@0)
	ST   X,R30
	.ENDM

	.MACRO __PUTW1SX
	MOVW R26,R28
	SUBI R26,LOW(-@0)
	SBCI R27,HIGH(-@0)
	ST   X+,R30
	ST   X,R31
	.ENDM

	.MACRO __PUTD1SX
	MOVW R26,R28
	SUBI R26,LOW(-@0)
	SBCI R27,HIGH(-@0)
	ST   X+,R30
	ST   X+,R31
	ST   X+,R22
	ST   X,R23
	.ENDM

	.MACRO __CLRW1SX
	MOVW R30,R28
	SUBI R30,LOW(-@0)
	SBCI R31,HIGH(-@0)
	CLR  R0
	ST   Z+,R0
	ST   Z,R0
	.ENDM

	.MACRO __CLRD1SX
	MOVW R30,R28
	SUBI R30,LOW(-@0)
	SBCI R31,HIGH(-@0)
	CLR  R0
	ST   Z+,R0
	ST   Z+,R0
	ST   Z+,R0
	ST   Z,R0
	.ENDM

	.MACRO __PUTB2SX
	MOVW R30,R28
	SUBI R30,LOW(-@0)
	SBCI R31,HIGH(-@0)
	ST   Z,R26
	.ENDM

	.MACRO __PUTW2SX
	MOVW R30,R28
	SUBI R30,LOW(-@0)
	SBCI R31,HIGH(-@0)
	ST   Z+,R26
	ST   Z,R27
	.ENDM

	.MACRO __PUTD2SX
	MOVW R30,R28
	SUBI R30,LOW(-@0)
	SBCI R31,HIGH(-@0)
	ST   Z+,R26
	ST   Z+,R27
	ST   Z+,R24
	ST   Z,R25
	.ENDM

	.MACRO __PUTBSRX
	MOVW R30,R28
	SUBI R30,LOW(-@0)
	SBCI R31,HIGH(-@0)
	ST   Z,R@1
	.ENDM

	.MACRO __PUTWSRX
	MOVW R30,R28
	SUBI R30,LOW(-@2)
	SBCI R31,HIGH(-@2)
	ST   Z+,R@0
	ST   Z,R@1
	.ENDM

	.MACRO __PUTB1SNX
	MOVW R26,R28
	SUBI R26,LOW(-@0)
	SBCI R27,HIGH(-@0)
	LD   R0,X+
	LD   R27,X
	MOV  R26,R0
	SUBI R26,LOW(-@1)
	SBCI R27,HIGH(-@1)
	ST   X,R30
	.ENDM

	.MACRO __PUTW1SNX
	MOVW R26,R28
	SUBI R26,LOW(-@0)
	SBCI R27,HIGH(-@0)
	LD   R0,X+
	LD   R27,X
	MOV  R26,R0
	SUBI R26,LOW(-@1)
	SBCI R27,HIGH(-@1)
	ST   X+,R30
	ST   X,R31
	.ENDM

	.MACRO __PUTD1SNX
	MOVW R26,R28
	SUBI R26,LOW(-@0)
	SBCI R27,HIGH(-@0)
	LD   R0,X+
	LD   R27,X
	MOV  R26,R0
	SUBI R26,LOW(-@1)
	SBCI R27,HIGH(-@1)
	ST   X+,R30
	ST   X+,R31
	ST   X+,R22
	ST   X,R23
	.ENDM

	.MACRO __MULBRR
	MULS R@0,R@1
	MOVW R30,R0
	.ENDM

	.MACRO __MULBRRU
	MUL  R@0,R@1
	MOVW R30,R0
	.ENDM

	.MACRO __MULBRR0
	MULS R@0,R@1
	.ENDM

	.MACRO __MULBRRU0
	MUL  R@0,R@1
	.ENDM

	.MACRO __MULBNWRU
	LDI  R26,@2
	MUL  R26,R@0
	MOVW R30,R0
	MUL  R26,R@1
	ADD  R31,R0
	.ENDM

	.CSEG
	.ORG 0

	.INCLUDE "slave.vec"
	.INCLUDE "slave.inc"

__RESET:
	CLI
	CLR  R30
	OUT  EECR,R30

;INTERRUPT VECTORS ARE PLACED
;AT THE START OF FLASH
	LDI  R31,1
	OUT  GICR,R31
	OUT  GICR,R30
	OUT  MCUCR,R30

;DISABLE WATCHDOG
	LDI  R31,0x18
	OUT  WDTCR,R31
	OUT  WDTCR,R30

;CLEAR R2-R14
	LDI  R24,13
	LDI  R26,2
	CLR  R27
__CLEAR_REG:
	ST   X+,R30
	DEC  R24
	BRNE __CLEAR_REG

;CLEAR SRAM
	LDI  R24,LOW(0x400)
	LDI  R25,HIGH(0x400)
	LDI  R26,0x60
__CLEAR_SRAM:
	ST   X+,R30
	SBIW R24,1
	BRNE __CLEAR_SRAM

;GLOBAL VARIABLES INITIALIZATION
	LDI  R30,LOW(__GLOBAL_INI_TBL*2)
	LDI  R31,HIGH(__GLOBAL_INI_TBL*2)
__GLOBAL_INI_NEXT:
	LPM  R24,Z+
	LPM  R25,Z+
	SBIW R24,0
	BREQ __GLOBAL_INI_END
	LPM  R26,Z+
	LPM  R27,Z+
	LPM  R0,Z+
	LPM  R1,Z+
	MOVW R22,R30
	MOVW R30,R0
__GLOBAL_INI_LOOP:
	LPM  R0,Z+
	ST   X+,R0
	SBIW R24,1
	BRNE __GLOBAL_INI_LOOP
	MOVW R30,R22
	RJMP __GLOBAL_INI_NEXT
__GLOBAL_INI_END:

;STACK POINTER INITIALIZATION
	LDI  R30,LOW(0x45F)
	OUT  SPL,R30
	LDI  R30,HIGH(0x45F)
	OUT  SPH,R30

;DATA STACK POINTER INITIALIZATION
	LDI  R28,LOW(0x160)
	LDI  R29,HIGH(0x160)

	RJMP _main

	.ESEG
	.ORG 0

	.DSEG
	.ORG 0x160
;       1 /**
;       2 @author vektor dewanto
;       3 @ver 18Jan10
;       4 @desc this is slave's main-software
;       5 */
;       6 
;       7 #include <mega8.h>
;       8 	#ifndef __SLEEP_DEFINED__
	#ifndef __SLEEP_DEFINED__
;       9 	#define __SLEEP_DEFINED__
	#define __SLEEP_DEFINED__
;      10 	.EQU __se_bit=0x80
	.EQU __se_bit=0x80
;      11 	.EQU __sm_mask=0x70
	.EQU __sm_mask=0x70
;      12 	.EQU __sm_powerdown=0x20
	.EQU __sm_powerdown=0x20
;      13 	.EQU __sm_powersave=0x30
	.EQU __sm_powersave=0x30
;      14 	.EQU __sm_standby=0x60
	.EQU __sm_standby=0x60
;      15 	.EQU __sm_ext_standby=0x70
	.EQU __sm_ext_standby=0x70
;      16 	.EQU __sm_adc_noise_red=0x10
	.EQU __sm_adc_noise_red=0x10
;      17 	.SET power_ctrl_reg=mcucr
	.SET power_ctrl_reg=mcucr
;      18 	#endif
	#endif
;      19 #include <stdio.h>
;      20 #include <delay.h>
;      21 #include <stdlib.h>
;      22 
;      23 #asm
;      24    .equ __lcd_port=0x18 ;PORTB
   .equ __lcd_port=0x18 ;PORTB
;      25 #endasm
;      26 #include <lcd.h>
;      27 
;      28 
;      29 void main(){

	.CSEG
_main:
;      30    unsigned char data;
;      31    char lcd[15];
;      32 
;      33    PORTB=0x00;DDRB=0x00;
	SBIW R28,15
;	data -> R17
;	lcd -> Y+0
	LDI  R30,LOW(0)
	OUT  0x18,R30
	OUT  0x17,R30
;      34    PORTC=0x00;DDRC=0x00;
	OUT  0x15,R30
	OUT  0x14,R30
;      35    PORTD=0x00;DDRD=0x00;
	OUT  0x12,R30
	OUT  0x11,R30
;      36 
;      37    // USART initialization NO INTERRUPT
;      38    // Communication Parameters: 8 Data, 1 Stop, No Parity
;      39    // USART Receiver: On
;      40    // USART Transmitter: On
;      41    // USART Mode: Asynchronous
;      42    // USART Baud Rate: 9600
;      43    UCSRA=0x00;
	OUT  0xB,R30
;      44    UCSRB=0x18;
	LDI  R30,LOW(24)
	OUT  0xA,R30
;      45    UCSRC=0x86;
	LDI  R30,LOW(134)
	OUT  0x20,R30
;      46    UBRRH=0x00;
	LDI  R30,LOW(0)
	OUT  0x20,R30
;      47    UBRRL=0x47;
	LDI  R30,LOW(71)
	OUT  0x9,R30
;      48 
;      49    lcd_init(16);
	LDI  R30,LOW(16)
	ST   -Y,R30
	RCALL _lcd_init
;      50    while(9)
_0x3:
;      51    {
;      52    data=getchar();
	RCALL _getchar
	MOV  R17,R30
;      53 
;      54    if(data==19)
	CPI  R17,19
	BRNE _0x6
;      55    {
;      56         itoa(data,lcd);
	MOV  R30,R17
	RCALL SUBOPT_0x0
	RCALL SUBOPT_0x1
	MOVW R30,R28
	ADIW R30,2
	RCALL SUBOPT_0x1
	RCALL _itoa
;      57         lcd_putsf("receive : ");
	__POINTW1FN _0,0
	RCALL SUBOPT_0x1
	RCALL _lcd_putsf
;      58         lcd_puts(lcd);
	MOVW R30,R28
	RCALL SUBOPT_0x1
	RCALL _lcd_puts
;      59         lcd_gotoxy(0,1);
	LDI  R30,LOW(0)
	ST   -Y,R30
	LDI  R30,LOW(1)
	ST   -Y,R30
	RCALL _lcd_gotoxy
;      60 
;      61         lcd_putsf("transmit : 38");
	__POINTW1FN _0,11
	RCALL SUBOPT_0x1
	RCALL _lcd_putsf
;      62         putchar(38);
	LDI  R30,LOW(38)
	ST   -Y,R30
	RCALL _putchar
;      63         delay_ms(2000);
	LDI  R30,LOW(2000)
	LDI  R31,HIGH(2000)
	RCALL SUBOPT_0x1
	RCALL _delay_ms
;      64    }
;      65    };
_0x6:
	RJMP _0x3
;      66    //-------------------------End of yours
;      67 }//end main
_0x7:
	RJMP _0x7

	#ifndef __SLEEP_DEFINED__
	#define __SLEEP_DEFINED__
	.EQU __se_bit=0x80
	.EQU __sm_mask=0x70
	.EQU __sm_powerdown=0x20
	.EQU __sm_powersave=0x30
	.EQU __sm_standby=0x60
	.EQU __sm_ext_standby=0x70
	.EQU __sm_adc_noise_red=0x10
	.SET power_ctrl_reg=mcucr
	#endif
_getchar:
     sbis usr,rxc
     rjmp _getchar
     in   r30,udr
	RET
_putchar:
     sbis usr,udre
     rjmp _putchar
     ld   r30,y
     out  udr,r30
	ADIW R28,1
	RET
_itoa:
    ld   r26,y+
    ld   r27,y+
    ld   r30,y+
    ld   r31,y+
    adiw r30,0
    brpl __itoa0
    com  r30
    com  r31
    adiw r30,1
    ldi  r22,'-'
    st   x+,r22
__itoa0:
    clt
    ldi  r24,low(10000)
    ldi  r25,high(10000)
    rcall __itoa1
    ldi  r24,low(1000)
    ldi  r25,high(1000)
    rcall __itoa1
    ldi  r24,100
    clr  r25
    rcall __itoa1
    ldi  r24,10
    rcall __itoa1
    mov  r22,r30
    rcall __itoa5
    clr  r22
    st   x,r22
    ret
__itoa1:
    clr	 r22
__itoa2:
    cp   r30,r24
    cpc  r31,r25
    brlo __itoa3
    inc  r22
    sub  r30,r24
    sbc  r31,r25
    brne __itoa2
__itoa3:
    tst  r22
    brne __itoa4
    brts __itoa5
    ret
__itoa4:
    set
__itoa5:
    subi r22,-0x30
    st   x+,r22
    ret
    .equ __lcd_direction=__lcd_port-1
    .equ __lcd_pin=__lcd_port-2
    .equ __lcd_rs=0
    .equ __lcd_rd=1
    .equ __lcd_enable=2
    .equ __lcd_busy_flag=7

	.DSEG
__base_y_G4:
	.BYTE 0x4

	.CSEG
__lcd_delay_G4:
    ldi   r31,15
__lcd_delay0:
    dec   r31
    brne  __lcd_delay0
	RET
__lcd_ready:
    in    r26,__lcd_direction
    andi  r26,0xf                 ;set as input
    out   __lcd_direction,r26
    sbi   __lcd_port,__lcd_rd     ;RD=1
    cbi   __lcd_port,__lcd_rs     ;RS=0
__lcd_busy:
	RCALL __lcd_delay_G4
    sbi   __lcd_port,__lcd_enable ;EN=1
	RCALL __lcd_delay_G4
    in    r26,__lcd_pin
    cbi   __lcd_port,__lcd_enable ;EN=0
	RCALL __lcd_delay_G4
    sbi   __lcd_port,__lcd_enable ;EN=1
	RCALL __lcd_delay_G4
    cbi   __lcd_port,__lcd_enable ;EN=0
    sbrc  r26,__lcd_busy_flag
    rjmp  __lcd_busy
	RET
__lcd_write_nibble_G4:
    andi  r26,0xf0
    or    r26,r27
    out   __lcd_port,r26          ;write
    sbi   __lcd_port,__lcd_enable ;EN=1
	RCALL __lcd_delay_G4
    cbi   __lcd_port,__lcd_enable ;EN=0
	RCALL __lcd_delay_G4
	RET
__lcd_write_data:
    cbi  __lcd_port,__lcd_rd 	  ;RD=0
    in    r26,__lcd_direction
    ori   r26,0xf0 | (1<<__lcd_rs) | (1<<__lcd_rd) | (1<<__lcd_enable) ;set as output    
    out   __lcd_direction,r26
    in    r27,__lcd_port
    andi  r27,0xf
    ld    r26,y
	RCALL __lcd_write_nibble_G4
    ld    r26,y
    swap  r26
	RCALL __lcd_write_nibble_G4
    sbi   __lcd_port,__lcd_rd     ;RD=1
	ADIW R28,1
	RET
__lcd_read_nibble_G4:
    sbi   __lcd_port,__lcd_enable ;EN=1
	RCALL __lcd_delay_G4
    in    r30,__lcd_pin           ;read
    cbi   __lcd_port,__lcd_enable ;EN=0
	RCALL __lcd_delay_G4
    andi  r30,0xf0
	RET
_lcd_read_byte0_G4:
	RCALL __lcd_delay_G4
	RCALL __lcd_read_nibble_G4
    mov   r26,r30
	RCALL __lcd_read_nibble_G4
    cbi   __lcd_port,__lcd_rd     ;RD=0
    swap  r30
    or    r30,r26
	RET
_lcd_gotoxy:
	RCALL __lcd_ready
	LD   R30,Y
	RCALL SUBOPT_0x0
	SUBI R30,LOW(-__base_y_G4)
	SBCI R31,HIGH(-__base_y_G4)
	LD   R30,Z
	MOV  R26,R30
	LDD  R30,Y+1
	RCALL SUBOPT_0x0
	LDI  R27,0
	ADD  R30,R26
	ADC  R31,R27
	RCALL SUBOPT_0x2
	LDD  R5,Y+1
	LDD  R4,Y+0
	ADIW R28,2
	RET
_lcd_clear:
	RCALL __lcd_ready
	LDI  R30,LOW(2)
	RCALL SUBOPT_0x2
	RCALL __lcd_ready
	LDI  R30,LOW(12)
	RCALL SUBOPT_0x2
	RCALL __lcd_ready
	LDI  R30,LOW(1)
	RCALL SUBOPT_0x2
	LDI  R30,LOW(0)
	MOV  R4,R30
	MOV  R5,R30
	RET
_lcd_putchar:
    push r30
    push r31
    ld   r26,y
    set
    cpi  r26,10
    breq __lcd_putchar1
    clt
	INC  R5
	CP   R7,R5
	BRSH _0xC2
	__lcd_putchar1:
	INC  R4
	LDI  R30,LOW(0)
	ST   -Y,R30
	ST   -Y,R4
	RCALL _lcd_gotoxy
	brts __lcd_putchar0
_0xC2:
    rcall __lcd_ready
    sbi  __lcd_port,__lcd_rs ;RS=1
    ld   r26,y
    st   -y,r26
    rcall __lcd_write_data
__lcd_putchar0:
    pop  r31
    pop  r30
	ADIW R28,1
	RET
_lcd_puts:
	ST   -Y,R17
_0xC3:
	LDD  R26,Y+1
	LDD  R27,Y+1+1
	LD   R30,X+
	STD  Y+1,R26
	STD  Y+1+1,R27
	MOV  R17,R30
	CPI  R30,0
	BREQ _0xC5
	ST   -Y,R17
	RCALL _lcd_putchar
	RJMP _0xC3
_0xC5:
	LDD  R17,Y+0
	RJMP _0xD0
_lcd_putsf:
	ST   -Y,R17
_0xC6:
	LDD  R30,Y+1
	LDD  R31,Y+1+1
	ADIW R30,1
	STD  Y+1,R30
	STD  Y+1+1,R31
	SBIW R30,1
	LPM  R30,Z
	MOV  R17,R30
	CPI  R30,0
	BREQ _0xC8
	ST   -Y,R17
	RCALL _lcd_putchar
	RJMP _0xC6
_0xC8:
	LDD  R17,Y+0
_0xD0:
	ADIW R28,3
	RET
__long_delay_G4:
    clr   r26
    clr   r27
__long_delay0:
    sbiw  r26,1         ;2 cycles
    brne  __long_delay0 ;2 cycles
	RET
__lcd_init_write_G4:
    cbi  __lcd_port,__lcd_rd 	  ;RD=0
    in    r26,__lcd_direction
    ori   r26,0xf7                ;set as output
    out   __lcd_direction,r26
    in    r27,__lcd_port
    andi  r27,0xf
    ld    r26,y
	RCALL __lcd_write_nibble_G4
    sbi   __lcd_port,__lcd_rd     ;RD=1
	ADIW R28,1
	RET
_lcd_init:
    cbi   __lcd_port,__lcd_enable ;EN=0
    cbi   __lcd_port,__lcd_rs     ;RS=0
	LDD  R7,Y+0
	LD   R30,Y
	SUBI R30,-LOW(128)
	__PUTB1MN __base_y_G4,2
	LD   R30,Y
	SUBI R30,-LOW(192)
	__PUTB1MN __base_y_G4,3
	RCALL SUBOPT_0x3
	RCALL SUBOPT_0x3
	RCALL SUBOPT_0x3
	RCALL __long_delay_G4
	LDI  R30,LOW(32)
	ST   -Y,R30
	RCALL __lcd_init_write_G4
	RCALL __long_delay_G4
	LDI  R30,LOW(40)
	RCALL SUBOPT_0x2
	RCALL __long_delay_G4
	LDI  R30,LOW(4)
	RCALL SUBOPT_0x2
	RCALL __long_delay_G4
	LDI  R30,LOW(133)
	RCALL SUBOPT_0x2
	RCALL __long_delay_G4
    in    r26,__lcd_direction
    andi  r26,0xf                 ;set as input
    out   __lcd_direction,r26
    sbi   __lcd_port,__lcd_rd     ;RD=1
	RCALL _lcd_read_byte0_G4
	CPI  R30,LOW(0x5)
	BREQ _0xC9
	LDI  R30,LOW(0)
	RJMP _0xCF
_0xC9:
	RCALL __lcd_ready
	LDI  R30,LOW(6)
	RCALL SUBOPT_0x2
	RCALL _lcd_clear
	LDI  R30,LOW(1)
_0xCF:
	ADIW R28,1
	RET

	.DSEG
_p_S55:
	.BYTE 0x2

	.CSEG

;OPTIMIZER ADDED SUBROUTINE, CALLED 3 TIMES, CODE SIZE REDUCTION:2 WORDS
SUBOPT_0x0:
	LDI  R31,0
	RET

;OPTIMIZER ADDED SUBROUTINE, CALLED 6 TIMES, CODE SIZE REDUCTION:3 WORDS
SUBOPT_0x1:
	ST   -Y,R31
	ST   -Y,R30
	RET

;OPTIMIZER ADDED SUBROUTINE, CALLED 8 TIMES, CODE SIZE REDUCTION:5 WORDS
SUBOPT_0x2:
	ST   -Y,R30
	RJMP __lcd_write_data

;OPTIMIZER ADDED SUBROUTINE, CALLED 3 TIMES, CODE SIZE REDUCTION:4 WORDS
SUBOPT_0x3:
	RCALL __long_delay_G4
	LDI  R30,LOW(48)
	ST   -Y,R30
	RJMP __lcd_init_write_G4

_delay_ms:
	ld   r30,y+
	ld   r31,y+
	adiw r30,0
	breq __delay_ms1
__delay_ms0:
	__DELAY_USW 0xACD
	wdr
	sbiw r30,1
	brne __delay_ms0
__delay_ms1:
	ret

__SAVELOCR6:
	ST   -Y,R21
__SAVELOCR5:
	ST   -Y,R20
__SAVELOCR4:
	ST   -Y,R19
__SAVELOCR3:
	ST   -Y,R18
__SAVELOCR2:
	ST   -Y,R17
	ST   -Y,R16
	RET

__LOADLOCR6:
	LDD  R21,Y+5
__LOADLOCR5:
	LDD  R20,Y+4
__LOADLOCR4:
	LDD  R19,Y+3
__LOADLOCR3:
	LDD  R18,Y+2
__LOADLOCR2:
	LDD  R17,Y+1
	LD   R16,Y
	RET

;END OF CODE MARKER
__END_OF_CODE:
