
MrData.elf:     file format elf32-avr

Sections:
Idx Name          Size      VMA       LMA       File off  Algn
  0 .data         00000034  00800100  000018b2  00001946  2**0
                  CONTENTS, ALLOC, LOAD, DATA
  1 .text         000018b2  00000000  00000000  00000094  2**1
                  CONTENTS, ALLOC, LOAD, READONLY, CODE
  2 .bss          0000035e  00800134  00800134  0000197a  2**0
                  ALLOC
  3 .stab         0000036c  00000000  00000000  0000197c  2**2
                  CONTENTS, READONLY, DEBUGGING
  4 .stabstr      00000084  00000000  00000000  00001ce8  2**0
                  CONTENTS, READONLY, DEBUGGING
  5 .debug_aranges 000000a0  00000000  00000000  00001d6c  2**0
                  CONTENTS, READONLY, DEBUGGING
  6 .debug_pubnames 000003d5  00000000  00000000  00001e0c  2**0
                  CONTENTS, READONLY, DEBUGGING
  7 .debug_info   000015de  00000000  00000000  000021e1  2**0
                  CONTENTS, READONLY, DEBUGGING
  8 .debug_abbrev 00000807  00000000  00000000  000037bf  2**0
                  CONTENTS, READONLY, DEBUGGING
  9 .debug_line   00001717  00000000  00000000  00003fc6  2**0
                  CONTENTS, READONLY, DEBUGGING
 10 .debug_frame  00000330  00000000  00000000  000056dd  2**0
                  CONTENTS, READONLY, DEBUGGING
 11 .debug_str    000007d8  00000000  00000000  00005a0d  2**0
                  CONTENTS, READONLY, DEBUGGING
 12 .debug_loc    00000a86  00000000  00000000  000061e5  2**0
                  CONTENTS, READONLY, DEBUGGING
Disassembly of section .text:

00000000 <__vectors>:
       0:	21 c0       	rjmp	.+66     	; 0x44 <__ctors_end>
       2:	3a c0       	rjmp	.+116    	; 0x78 <__bad_interrupt>
       4:	39 c0       	rjmp	.+114    	; 0x78 <__bad_interrupt>
       6:	38 c0       	rjmp	.+112    	; 0x78 <__bad_interrupt>
       8:	37 c0       	rjmp	.+110    	; 0x78 <__bad_interrupt>
       a:	36 c0       	rjmp	.+108    	; 0x78 <__bad_interrupt>
       c:	35 c0       	rjmp	.+106    	; 0x78 <__bad_interrupt>
       e:	34 c0       	rjmp	.+104    	; 0x78 <__bad_interrupt>
      10:	33 c0       	rjmp	.+102    	; 0x78 <__bad_interrupt>
      12:	32 c0       	rjmp	.+100    	; 0x78 <__bad_interrupt>
      14:	31 c0       	rjmp	.+98     	; 0x78 <__bad_interrupt>
      16:	75 c6       	rjmp	.+3306   	; 0xd02 <__vector_11>
      18:	2f c0       	rjmp	.+94     	; 0x78 <__bad_interrupt>
      1a:	2e c0       	rjmp	.+92     	; 0x78 <__bad_interrupt>
      1c:	2d c0       	rjmp	.+90     	; 0x78 <__bad_interrupt>
      1e:	2c c0       	rjmp	.+88     	; 0x78 <__bad_interrupt>
      20:	2b c0       	rjmp	.+86     	; 0x78 <__bad_interrupt>
      22:	2a c0       	rjmp	.+84     	; 0x78 <__bad_interrupt>
      24:	29 c0       	rjmp	.+82     	; 0x78 <__bad_interrupt>
      26:	28 c0       	rjmp	.+80     	; 0x78 <__bad_interrupt>
      28:	27 c0       	rjmp	.+78     	; 0x78 <__bad_interrupt>
      2a:	99 c6       	rjmp	.+3378   	; 0xd5e <__vector_21>
      2c:	25 c0       	rjmp	.+74     	; 0x78 <__bad_interrupt>
      2e:	24 c0       	rjmp	.+72     	; 0x78 <__bad_interrupt>
      30:	23 c0       	rjmp	.+70     	; 0x78 <__bad_interrupt>
      32:	22 c0       	rjmp	.+68     	; 0x78 <__bad_interrupt>

00000034 <FILEENTRY>:
      34:	20 00 c2 b3 92 84 36 84 36 00 00 91 92 84 36 00      .....6.6.....6.

00000044 <__ctors_end>:
      44:	11 24       	eor	r1, r1
      46:	1f be       	out	0x3f, r1	; 63
      48:	cf ef       	ldi	r28, 0xFF	; 255
      4a:	d4 e0       	ldi	r29, 0x04	; 4
      4c:	de bf       	out	0x3e, r29	; 62
      4e:	cd bf       	out	0x3d, r28	; 61

00000050 <__do_copy_data>:
      50:	11 e0       	ldi	r17, 0x01	; 1
      52:	a0 e0       	ldi	r26, 0x00	; 0
      54:	b1 e0       	ldi	r27, 0x01	; 1
      56:	e2 eb       	ldi	r30, 0xB2	; 178
      58:	f8 e1       	ldi	r31, 0x18	; 24
      5a:	02 c0       	rjmp	.+4      	; 0x60 <.do_copy_data_start>

0000005c <.do_copy_data_loop>:
      5c:	05 90       	lpm	r0, Z+
      5e:	0d 92       	st	X+, r0

00000060 <.do_copy_data_start>:
      60:	a4 33       	cpi	r26, 0x34	; 52
      62:	b1 07       	cpc	r27, r17
      64:	d9 f7       	brne	.-10     	; 0x5c <.do_copy_data_loop>

00000066 <__do_clear_bss>:
      66:	14 e0       	ldi	r17, 0x04	; 4
      68:	a4 e3       	ldi	r26, 0x34	; 52
      6a:	b1 e0       	ldi	r27, 0x01	; 1
      6c:	01 c0       	rjmp	.+2      	; 0x70 <.do_clear_bss_start>

0000006e <.do_clear_bss_loop>:
      6e:	1d 92       	st	X+, r1

00000070 <.do_clear_bss_start>:
      70:	a2 39       	cpi	r26, 0x92	; 146
      72:	b1 07       	cpc	r27, r17
      74:	e1 f7       	brne	.-8      	; 0x6e <.do_clear_bss_loop>
      76:	11 c8       	rjmp	.-4062   	; 0xfffff09a <__eeprom_end+0xff7ef09a>

00000078 <__bad_interrupt>:
      78:	c3 cf       	rjmp	.-122    	; 0x0 <__vectors>

0000007a <delay_us>:
// for 8MHZ 8 ticks
// for 4 mhz 4 ticks
// assuming a for loop is 3 commands in asm -->  inc, tst, jmp
// if a loop takes more or less then 3 let me know. this is sort of a guess
void delay_us(u16 n) {
      7a:	06 c0       	rjmp	.+12     	; 0x88 <delay_us+0xe>
	...
	for(;n>0;n--){
#if F_CPU > 8000000
		NOP;NOP;NOP;NOP;NOP;NOP;NOP;NOP;NOP;NOP;NOP;NOP;NOP;NOP;NOP;
#endif
		NOP;NOP;NOP;NOP;NOP;
      84:	00 00       	nop
      86:	01 97       	sbiw	r24, 0x01	; 1
      88:	00 97       	sbiw	r24, 0x00	; 0
      8a:	c1 f7       	brne	.-16     	; 0x7c <delay_us+0x2>
      8c:	08 95       	ret

0000008e <delay_ms>:
	};
};

void delay_ms(u16 m){
      8e:	0b c0       	rjmp	.+22     	; 0xa6 <delay_ms+0x18>
	u16 n;
	for(;m>0;m--){
      90:	28 ee       	ldi	r18, 0xE8	; 232
      92:	33 e0       	ldi	r19, 0x03	; 3
	...
		for(n = 1000 ;n>0;n--){
#if F_CPU > 8000000
			NOP;NOP;NOP;NOP;NOP;NOP;NOP;NOP;NOP;NOP;NOP;NOP;NOP;NOP;NOP;
#endif
			NOP;NOP;NOP;NOP;NOP;
      9c:	00 00       	nop
      9e:	21 50       	subi	r18, 0x01	; 1
      a0:	30 40       	sbci	r19, 0x00	; 0
      a2:	c1 f7       	brne	.-16     	; 0x94 <delay_ms+0x6>
      a4:	01 97       	sbiw	r24, 0x01	; 1
      a6:	00 97       	sbiw	r24, 0x00	; 0
      a8:	99 f7       	brne	.-26     	; 0x90 <delay_ms+0x2>
      aa:	08 95       	ret

000000ac <sector2cluster>:
/** Calc Cluster from given Sector
    @param Sector
    @return Cluster
*/
static u16 sector2cluster(u32 s) {
      ac:	9b 01       	movw	r18, r22
      ae:	ac 01       	movw	r20, r24
	u32 temp = s - file_pos;
      b0:	80 91 4c 01 	lds	r24, 0x014C
      b4:	90 91 4d 01 	lds	r25, 0x014D
      b8:	aa 27       	eor	r26, r26
      ba:	bb 27       	eor	r27, r27
      bc:	28 1b       	sub	r18, r24
      be:	39 0b       	sbc	r19, r25
      c0:	4a 0b       	sbc	r20, r26
      c2:	5b 0b       	sbc	r21, r27
	if (cluster_size == 1)
      c4:	80 91 4e 01 	lds	r24, 0x014E
      c8:	81 30       	cpi	r24, 0x01	; 1
      ca:	c1 f1       	breq	.+112    	; 0x13c <sector2cluster+0x90>
		return temp+2;
	else if (cluster_size == 2)
      cc:	82 30       	cpi	r24, 0x02	; 2
      ce:	29 f4       	brne	.+10     	; 0xda <sector2cluster+0x2e>
		return (temp>>1)+2;
      d0:	56 95       	lsr	r21
      d2:	47 95       	ror	r20
      d4:	37 95       	ror	r19
      d6:	27 95       	ror	r18
      d8:	31 c0       	rjmp	.+98     	; 0x13c <sector2cluster+0x90>
	else if (cluster_size == 4)
      da:	84 30       	cpi	r24, 0x04	; 4
      dc:	41 f4       	brne	.+16     	; 0xee <sector2cluster+0x42>
		return (temp>>2)+2;
      de:	f2 e0       	ldi	r31, 0x02	; 2
      e0:	56 95       	lsr	r21
      e2:	47 95       	ror	r20
      e4:	37 95       	ror	r19
      e6:	27 95       	ror	r18
      e8:	fa 95       	dec	r31
      ea:	d1 f7       	brne	.-12     	; 0xe0 <sector2cluster+0x34>
      ec:	27 c0       	rjmp	.+78     	; 0x13c <sector2cluster+0x90>
	else if (cluster_size == 8)
      ee:	88 30       	cpi	r24, 0x08	; 8
      f0:	41 f4       	brne	.+16     	; 0x102 <sector2cluster+0x56>
		return (temp>>3)+2;
      f2:	e3 e0       	ldi	r30, 0x03	; 3
      f4:	56 95       	lsr	r21
      f6:	47 95       	ror	r20
      f8:	37 95       	ror	r19
      fa:	27 95       	ror	r18
      fc:	ea 95       	dec	r30
      fe:	d1 f7       	brne	.-12     	; 0xf4 <sector2cluster+0x48>
     100:	1d c0       	rjmp	.+58     	; 0x13c <sector2cluster+0x90>
	else if (cluster_size == 16)
     102:	80 31       	cpi	r24, 0x10	; 16
     104:	41 f4       	brne	.+16     	; 0x116 <sector2cluster+0x6a>
		return (temp>>4)+2;
     106:	74 e0       	ldi	r23, 0x04	; 4
     108:	56 95       	lsr	r21
     10a:	47 95       	ror	r20
     10c:	37 95       	ror	r19
     10e:	27 95       	ror	r18
     110:	7a 95       	dec	r23
     112:	d1 f7       	brne	.-12     	; 0x108 <sector2cluster+0x5c>
     114:	13 c0       	rjmp	.+38     	; 0x13c <sector2cluster+0x90>
	else if (cluster_size == 32)
     116:	80 32       	cpi	r24, 0x20	; 32
     118:	41 f4       	brne	.+16     	; 0x12a <sector2cluster+0x7e>
		return (temp>>5)+2;
     11a:	65 e0       	ldi	r22, 0x05	; 5
     11c:	56 95       	lsr	r21
     11e:	47 95       	ror	r20
     120:	37 95       	ror	r19
     122:	27 95       	ror	r18
     124:	6a 95       	dec	r22
     126:	d1 f7       	brne	.-12     	; 0x11c <sector2cluster+0x70>
     128:	09 c0       	rjmp	.+18     	; 0x13c <sector2cluster+0x90>
	else if (cluster_size == 64)
     12a:	80 34       	cpi	r24, 0x40	; 64
     12c:	51 f4       	brne	.+20     	; 0x142 <sector2cluster+0x96>
		return (temp>>6)+2;
     12e:	96 e0       	ldi	r25, 0x06	; 6
     130:	56 95       	lsr	r21
     132:	47 95       	ror	r20
     134:	37 95       	ror	r19
     136:	27 95       	ror	r18
     138:	9a 95       	dec	r25
     13a:	d1 f7       	brne	.-12     	; 0x130 <sector2cluster+0x84>
     13c:	c9 01       	movw	r24, r18
     13e:	02 96       	adiw	r24, 0x02	; 2
     140:	08 95       	ret
	return (temp>>7)+2;
     142:	87 e0       	ldi	r24, 0x07	; 7
     144:	56 95       	lsr	r21
     146:	47 95       	ror	r20
     148:	37 95       	ror	r19
     14a:	27 95       	ror	r18
     14c:	8a 95       	dec	r24
     14e:	d1 f7       	brne	.-12     	; 0x144 <sector2cluster+0x98>
     150:	c9 01       	movw	r24, r18
     152:	02 96       	adiw	r24, 0x02	; 2
}
     154:	08 95       	ret

00000156 <cluster2sector>:


/** Calc Sector from given Cluster
    @param Cluster
    @return Sector
*/
static u32 cluster2sector(u16 c) {
     156:	bc 01       	movw	r22, r24
     158:	62 50       	subi	r22, 0x02	; 2
     15a:	70 40       	sbci	r23, 0x00	; 0
	c -= 2;
	if (cluster_size == 1)
     15c:	80 91 4e 01 	lds	r24, 0x014E
     160:	81 30       	cpi	r24, 0x01	; 1
     162:	99 f1       	breq	.+102    	; 0x1ca <cluster2sector+0x74>
		{}
	else if (cluster_size == 2)
     164:	82 30       	cpi	r24, 0x02	; 2
     166:	19 f4       	brne	.+6      	; 0x16e <cluster2sector+0x18>
		c = c<<1;
     168:	66 0f       	add	r22, r22
     16a:	77 1f       	adc	r23, r23
     16c:	2e c0       	rjmp	.+92     	; 0x1ca <cluster2sector+0x74>
	else if (cluster_size == 4)
     16e:	84 30       	cpi	r24, 0x04	; 4
     170:	29 f4       	brne	.+10     	; 0x17c <cluster2sector+0x26>
		c = c<<2;
     172:	66 0f       	add	r22, r22
     174:	77 1f       	adc	r23, r23
     176:	66 0f       	add	r22, r22
     178:	77 1f       	adc	r23, r23
     17a:	27 c0       	rjmp	.+78     	; 0x1ca <cluster2sector+0x74>
	else if (cluster_size == 8)
     17c:	88 30       	cpi	r24, 0x08	; 8
     17e:	31 f4       	brne	.+12     	; 0x18c <cluster2sector+0x36>
		c = c<<3;
     180:	33 e0       	ldi	r19, 0x03	; 3
     182:	66 0f       	add	r22, r22
     184:	77 1f       	adc	r23, r23
     186:	3a 95       	dec	r19
     188:	e1 f7       	brne	.-8      	; 0x182 <cluster2sector+0x2c>
     18a:	1f c0       	rjmp	.+62     	; 0x1ca <cluster2sector+0x74>
	else if (cluster_size == 16)
     18c:	80 31       	cpi	r24, 0x10	; 16
     18e:	31 f4       	brne	.+12     	; 0x19c <cluster2sector+0x46>
		c = c<<4;
     190:	24 e0       	ldi	r18, 0x04	; 4
     192:	66 0f       	add	r22, r22
     194:	77 1f       	adc	r23, r23
     196:	2a 95       	dec	r18
     198:	e1 f7       	brne	.-8      	; 0x192 <cluster2sector+0x3c>
     19a:	17 c0       	rjmp	.+46     	; 0x1ca <cluster2sector+0x74>
	else if (cluster_size == 32)
     19c:	80 32       	cpi	r24, 0x20	; 32
     19e:	31 f4       	brne	.+12     	; 0x1ac <cluster2sector+0x56>
		c = c<<5;
     1a0:	95 e0       	ldi	r25, 0x05	; 5
     1a2:	66 0f       	add	r22, r22
     1a4:	77 1f       	adc	r23, r23
     1a6:	9a 95       	dec	r25
     1a8:	e1 f7       	brne	.-8      	; 0x1a2 <cluster2sector+0x4c>
     1aa:	0f c0       	rjmp	.+30     	; 0x1ca <cluster2sector+0x74>
	else if (cluster_size == 64)
     1ac:	80 34       	cpi	r24, 0x40	; 64
     1ae:	31 f4       	brne	.+12     	; 0x1bc <cluster2sector+0x66>
		c = c<<6;
     1b0:	86 e0       	ldi	r24, 0x06	; 6
     1b2:	66 0f       	add	r22, r22
     1b4:	77 1f       	adc	r23, r23
     1b6:	8a 95       	dec	r24
     1b8:	e1 f7       	brne	.-8      	; 0x1b2 <cluster2sector+0x5c>
     1ba:	07 c0       	rjmp	.+14     	; 0x1ca <cluster2sector+0x74>
	else if (cluster_size == 128)
     1bc:	80 38       	cpi	r24, 0x80	; 128
     1be:	29 f4       	brne	.+10     	; 0x1ca <cluster2sector+0x74>
		c = c<<7;
     1c0:	76 95       	lsr	r23
     1c2:	76 2f       	mov	r23, r22
     1c4:	66 27       	eor	r22, r22
     1c6:	77 95       	ror	r23
     1c8:	67 95       	ror	r22
     1ca:	80 91 4c 01 	lds	r24, 0x014C
     1ce:	90 91 4d 01 	lds	r25, 0x014D
     1d2:	68 0f       	add	r22, r24
     1d4:	79 1f       	adc	r23, r25
     1d6:	88 27       	eor	r24, r24
     1d8:	99 27       	eor	r25, r25
     1da:	08 95       	ret

000001dc <find_free_cluster>:
	return c + file_pos;
}


/** Read Long File Name
    Reads data from sharedmem
    Stores result in global struct fat_filedata.name
*/
static void extractlfn(void) {
	u08 i, spos = 1, pos;

	pos = ((sharedmem[0]&0x3f)-1)*13;

	for (i=0; i<13; i++) {
		if (sharedmem[spos] == 0 || sharedmem[spos] == 0xff)
			return;
		if (pos < NAMELEN)
			fat_filedata.name[pos++] = sharedmem[spos];
		else
			return;
		spos += 2;
		if (spos == 11)
			spos = 14;
		else if (spos == 26)
			spos = 28;
	}
}


/** Filesystem-Init
    @return success [=true]
*/
u08 fat_init(void) {
	u16 root_size;
	struct BootSec_st *bs;

	mmc_read_sector(MASTER_BOOT_RECORD_SECTOR, sharedmem); // MBR lesen
	sect_offs = sharedmem[VBR_ADDR] | (sharedmem[VBR_ADDR+1]<<8); // Erste Partition: Startsektor bestimmen
	if (sect_offs > 1000 || sect_offs == 0) // Ungültiger Startsektor
		sect_offs = 0;  // Kein MBR? Annahme: SuperFloppy-Format (ohne Partitionen)

	mmc_read_sector(sect_offs, sharedmem); // Bootsektor lesen
	bs = (struct BootSec_st *)sharedmem; // Strukturinterpretation anbringen
	//fat_size = sharedmem[0x16] | (sharedmem[0x17]<<8); // alt
	fat_size = bs->BPB_FATSz16; // FAT-Größe auslesen
	if (fat_size == 0) // Ist nicht angegeben... wohl FAT32 oder ganz was Anderes
		return 0;

	//cluster_size = sharedmem[0x0d];
	cluster_size = bs->BPB_SecPerClus; // Sektoren pro Cluster auslesen
	//fat_cnt = sharedmem[0x10];
	fat_cnt = bs->BPB_NumFATs; // Anzahl FATs lesen
	if (fat_cnt == 0) // FAT-Anzahl ungültig
		return 0;

	fat_pos = sect_offs + bs->BPB_RsvdSecCnt; // Reservierte Sektoren aufaddieren -> FAT-Startsektor //(sharedmem[0x0e] | (sharedmem[0x0f]<<8)); // alt
	root_pos = fat_pos + fat_size * fat_cnt; // Rootdirectory-Startsektor berechnen
	root_size = bs->BPB_RootEntCnt; // Anzahl reservierte Rootdir-Einträge //sharedmem[0x11] | (sharedmem[0x12]<<8); // alt
	if (root_size == 0) // Ungültige Anzahl
		return 0;
	file_pos = root_pos + (root_size>>4); // Erster Datensektor

	return 1;
}


/** Char to Number Conversion, always [3 chars] to [byte]
    @param String
    @return Number
*/
static u08 atoi(unsigned char *s) {
	return (s[0]-'0')*100+(s[1]-'0')*10+(s[2]-'0');
}


/** Fileentry-Reader
    Reads sequential MMC data, must be set up to start sector of root dir
    Stores information in global struct fat_filedata
    @return success [=true]
*/
static u08 read_fileentry(void) {
	struct DirEntry_st *de;
	u32 rootsect;
	u08 lfn=0, i, c=0, e=0, rootsectoffs, fnum;

	for (i=0; i<NAMELEN; i++)
		fat_filedata.name[i] = ' ';
	fat_filedata.rootsect = 0;
	do {
		rootsect = sect;
		rootsectoffs = bufpos>>5;
		mmc_read_block(sharedmem, 32);
		de = (struct DirEntry_st *)sharedmem;
		if (sect >= file_pos)
			return 0;
		else if (sharedmem[0] == 0) {
			if (last_rdsect == 0) {
				last_rdsect = rootsect;
				last_rdoffs = rootsectoffs;
			}
			continue;
		}
		else if (sharedmem[0] == DIR_ENTRY_IS_DELETED || de->DIR_Attr == ATTR_VOLUME_ID) // Gelöscht oder Volumebezeichner
			continue;
		else if (de->DIR_Attr == ATTR_LONG_NAME) {
			if (fat_filedata.rootsect == 0) {
				fat_filedata.rootsect = rootsect;
				fat_filedata.rootsectoffs = rootsectoffs;
			}
			extractlfn();
			lfn = 1;
			e++;
		}
		else {
			fat_filedata.entries = e+1;
			if (!lfn) {
				fat_filedata.rootsect = rootsect;
				fat_filedata.rootsectoffs = rootsectoffs;
				for (i=0; i<8; i++)
					fat_filedata.name[c++] = sharedmem[i]; // de->DIR_Name[i]
				fat_filedata.name[c++] = '.';
				for (i=8; i<11; i++)
					fat_filedata.name[c++] = sharedmem[i];
				if (fat_filedata.name[0] == 'M' && fat_filedata.name[1] == 'D' 
				  && fat_filedata.name[2] >= '0' && fat_filedata.name[2] <= '2' 
				  && fat_filedata.name[3] >= '0' && fat_filedata.name[3] <= '9' 
				  && fat_filedata.name[4] >= '0' && fat_filedata.name[4] <= '9') {
				  	fnum = atoi(&fat_filedata.name[2]);
				  	if (fnum > maxfilenum)
						maxfilenum = fnum;
				}
			}
			fat_filedata.len = de->DIR_FileSize; //sharedmem[0x1c] | (sharedmem[0x1d]<<8) | ((u32)sharedmem[0x1e]<<16) | ((u32)sharedmem[0x1f]<<24);
			fat_filedata.startsect = cluster2sector(de->DIR_FstClusLO); //cluster2sector(sharedmem[0x1a] | (sharedmem[0x1b]<<8));
			if (de->DIR_Attr & ATTR_DIRECTORY)
			{
				lfn = 0; c = 0; e = 0; // War keine Datei, also weitersuchen
				fat_filedata.rootsect = 0;
			}
			else {
				return 1;
			}
		}
	} while (1);
}


/** Searches for a file entry with a given index
    @param File Number
    @return File found [=true]
*/
u08 fat_read_filedata(u08 nr) {	// new file data in global struct
	if (nr >= file_cnt)
		return 0;
	fat_directaccess = 1;
	mmc_load_start(root_pos);
	if (!read_fileentry()) {
		fat_directaccess = 0;
		return 0;
	}
	while (nr--)
		if (!read_fileentry()) {
			fat_directaccess = 0;
			return 0;
		}
	mmc_complete_read();
	fat_directaccess = 0;
	return 1;
}


/** Count Midi Files
    Stores result in global var file_cnt.
    Detects next free sector (cluster) after last file
*/
void fat_count_files(void) {
	fat_directaccess = 1;
	mmc_load_start(root_pos);
	file_cnt = 0;
	while (read_fileentry()) {
		file_cnt++;
	}
	mmc_complete_read();
	fat_directaccess = 0;
}


/** Deletes current file
    Removes FAT entries as well
*/
void fat_delete_file(void) {
	u16 startcl = sector2cluster(fat_filedata.startsect);	// Rechnet den Cluster der zu löschenden Datei aus
	u16 fatsect, fatcl, nfatsect;
	u08 offscl, i;

	fat_directaccess = 1;
	// FATs bearbeiten
	for (i=0; i<fat_cnt; i++) {
		fatsect = fat_pos + (startcl>>8) + fat_size*i;	// Sektor der FAT mit dem Startcluster der zlD
		offscl = (u08)startcl;	// Eintragsposition im FAT-Sektor bestimmen
		mmc_read_sector(fatsect, sharedmem);	// FAT-Sektor lesen
		while (1) {
			fatcl = sharedmem[offscl<<1];	// FAT-Eintrag lesen
			fatcl |= sharedmem[(offscl<<1)+1] << 8;
			sharedmem[offscl<<1] = 0;	// Eintrag löschen (frei markieren)
			sharedmem[(offscl<<1)+1] = 0;
			if (fatcl < 0xfff0 && fatcl > 0) {	// Wenn Eintrag auf weiteren FAT-Eintrag zeigt
				nfatsect = fat_pos + (fatcl>>8);	// Neuen FAT-Sektor bestimmen
				if (i == 1)
			 		nfatsect += fat_size;	// Kopie der FAT
				offscl = (u08)fatcl;	// Eintragsposition im FAT-Sektor bestimmen
				if (nfatsect != fatsect) {	// Falls nächster Eintrag in einem anderen FAT-Sektor liegt
					mmc_write_sector(fatsect, sharedmem);	// Geänderten FAT-Sektor wegschreiben
					fatsect = nfatsect;	// Neuen Sektor festlegen
					mmc_read_sector(fatsect, sharedmem);	// Diesen FAT-Sektor auslesen
				}
			}
			else {
				break;	// Letzter FAT-Eintrag gewesen: Schleife verlassen
			}
		}
		mmc_write_sector(fatsect, sharedmem);	// geänderten FAT-Sektor wegschreiben
	}

/*lcd_setcur(0,0);
lcd_hex_u16(fat_filedata.rootsect);
delay_ms(2000);*/
	// Rootdir ändern
	fatsect = fat_filedata.rootsect;
	mmc_read_sector(fatsect, sharedmem);	// Betroffenen Rootdirsektor laden
	offscl = fat_filedata.rootsectoffs;
/*lcd_data(',');
lcd_hex_u16(fatsect);
lcd_hex_u08(offscl);
delay_ms(2000);*/
	for (i=0; i<fat_filedata.entries; i++) {	// Für jeden Root-Eintrag dieser Datei tue:
		if (offscl >= 16) {	// Sektorgrenze überschritten
			mmc_write_sector(fatsect, sharedmem);	// Rootdirsektor speichern
			fatsect++;	// Nächsten Rootdirsektor bestimmen
			offscl = 0;
			mmc_read_sector(fatsect, sharedmem);	// Betroffenen Rootdirsektor laden
		}
		sharedmem[offscl*32] = DIR_ENTRY_IS_DELETED;	// Erstes Byte im Dateinamen auf "gelöscht" setzen
		offscl++;
	}
	mmc_write_sector(fatsect, sharedmem);
	fat_directaccess = 0;
}


/** Convert Number to String
    @param (OUT) String
    @param (IN) Number
*/
static void wrstr(unsigned char *s, unsigned char d) {
	u08 zehner=0, hunderter=0;
	while (d >= 100) {
		d -= 100;
		hunderter++;
	}
	while (d >= 10) {
		d -= 10;
		zehner++;
	}
	*s = hunderter+'0'; s++;
	*s = zehner+'0'; s++;
	*s = d+'0';
}


/** Create New File
    Uses information from global struct fat_filedata
*/
void fat_new_file(void) {
	u16 startcl = sector2cluster(fat_filedata.startsect);	// Rechnet den Cluster der zu erstellenden Datei aus
	u16 fatsect, fatcl, lastfs, cnt;
	u08 offscl, i, lastco, dirty;

	fat_directaccess = 1;
//	last = cluster2sector(sector2cluster(last)+1);	// Nächster Sektor für neue Datei
	fat_filedata.name[0] = 'M';
	fat_filedata.name[1] = 'D';
	wrstr(&(fat_filedata.name[2]), ++maxfilenum);
	fat_filedata.name[5] = ' ';
	fat_filedata.name[6] = ' ';
	fat_filedata.name[7] = ' ';
	fat_filedata.name[8] = 'T';
	fat_filedata.name[9] = 'X';
	fat_filedata.name[10] = 'T';
	fat_filedata.name[11] = 0;

	// Rootdireintrag erstellen
	fat_filedata.entries = 1;
	fat_filedata.rootsect = last_rdsect;
	fat_filedata.rootsectoffs = last_rdoffs;
	fatsect = last_rdsect;
	mmc_read_sector(fatsect, sharedmem);	// Betroffenen Rootdirsektor laden
	offscl = last_rdoffs;
	for (i=0; i<11; i++)
		sharedmem[offscl*32+i] = fat_filedata.name[i];
	for (i=0; i<15; i++)
		sharedmem[offscl*32+i+11] = (u08)pgm_read_byte( &(FILEENTRY[i]) );
	sharedmem[offscl*32+31] = (u08)(fat_filedata.len >> 24);
	sharedmem[offscl*32+30] = (u08)(fat_filedata.len >> 16);
	sharedmem[offscl*32+29] = (u08)(fat_filedata.len >> 8);
	sharedmem[offscl*32+28] = (u08)fat_filedata.len;
	sharedmem[offscl*32+27] = (u08)(startcl >> 8);
	sharedmem[offscl*32+26] = (u08)startcl;
	mmc_write_sector(fatsect, sharedmem);

/*lcd_setcur(0,0);
lcd_hex_u16(last_rdsect);
lcd_hex_u08(last_rdoffs);
delay_ms(1000);*/
	last_rdoffs++;
	if (last_rdoffs == 16) {
		last_rdoffs = 0;
		last_rdsect++;
	}
/*lcd_data(',');
lcd_hex_u16(last_rdsect);
lcd_hex_u08(last_rdoffs);
delay_ms(1000);*/
/*
	// FATs bearbeiten
	for (i=0; i<fat_cnt; i++) {
		startcl = sector2cluster(fat_filedata.startsect);	// Rechnet den Cluster der zu erstellenden Datei aus
		clcnt = sector2cluster(last)-startcl;
		fatsect = fat_pos + (startcl>>8) + fat_size*i;	// Sektor der FAT mit dem Startcluster der zlD
		offscl = (u08)startcl;	// Eintragsposition im FAT-Sektor bestimmen
		mmc_read_sector(fatsect, sharedmem);	// FAT-Sektor lesen
		while (clcnt) {
			startcl++;
			if (clcnt == 1)
				val = 0xffff;
			else
				val = startcl;
			sharedmem[offscl<<1] = (u08)val;	// FAT-Eintrag schreiben
			sharedmem[(offscl<<1)+1] = val >> 8;
			offscl++;
			if (offscl == 0 && clcnt > 1) {
				mmc_write_sector(fatsect, sharedmem);	// FAT-Sektor speichern
				fatsect++;	// Nächsten FAT-Sektor bestimmen
				mmc_read_sector(fatsect, sharedmem);
			}
			clcnt--;
		}
		mmc_write_sector(fatsect, sharedmem);	// geänderten FAT-Sektor wegschreiben
	}*/
	// FATs bearbeiten
	for (i=0; i<fat_cnt; i++) {
		startcl = sector2cluster(fat_filedata.startsect);	// Rechnet den Cluster der zu erstellenden Datei aus
		fatsect = fat_pos + (startcl>>8) + fat_size*i;	// Sektor der FAT mit dem Startcluster der zlD
		offscl = (u08)startcl;	// Eintragsposition im FAT-Sektor bestimmen
		cnt = clcnt;
//		cnt = (fat_filedata.len-1) / 512 / cluster_size + 1;

		mmc_read_sector(fatsect, sharedmem);	// FAT-Sektor lesen
		if (cnt == 1) {	// Datei braucht bloß 1 Cluster
			sharedmem[offscl<<1] = 0xff;	// FAT-Eintrag schreiben
			sharedmem[(offscl<<1)+1] = 0xff;
		}
		else {
			lastfs = fatsect;
			lastco = offscl;
			dirty = 0;
			while (1) {
				offscl++;
				if (offscl == 0) {
					if (dirty) {
						mmc_write_sector(fatsect, sharedmem);
						dirty = 0;
					}
					fatsect++;
					mmc_read_sector(fatsect, sharedmem);
				}
				fatcl = sharedmem[offscl<<1];	// FAT-Eintrag lesen
				fatcl |= sharedmem[(offscl<<1)+1] << 8;
				if (fatcl == 0) {
					if (lastfs != fatsect) {
						if (dirty) {
							mmc_write_sector(fatsect, sharedmem);
							dirty = 0;
						}
						mmc_read_sector(lastfs, sharedmem);
					}
					if (cnt > 1) {
						sharedmem[lastco<<1] = offscl;	// FAT-Eintrag schreiben
						sharedmem[(lastco<<1)+1] = fatsect - fat_pos - i*fat_size;
						cnt--;
					}
					else {
						sharedmem[lastco<<1] = 0xff;	// FAT-Eintrag schreiben
						sharedmem[(lastco<<1)+1] = 0xff;
						break;
					}
					dirty = 1;
					if (lastfs != fatsect) {
						mmc_write_sector(lastfs, sharedmem);
						dirty = 0;
						mmc_read_sector(fatsect, sharedmem);
					}
					lastfs = fatsect;
					lastco = offscl;
				}
			}
		}
		mmc_write_sector(fatsect, sharedmem);	// geänderten FAT-Sektor wegschreiben
	}
	fat_directaccess = 0;
}


/** Find next free cluster
    @return Cluster Number
*/
static u16 find_free_cluster(void) {
     1dc:	df 92       	push	r13
     1de:	ef 92       	push	r14
     1e0:	ff 92       	push	r15
     1e2:	0f 93       	push	r16
     1e4:	1f 93       	push	r17
     1e6:	cf 93       	push	r28
     1e8:	df 93       	push	r29
	u16 fatsect, fatcl, cnt=clcnt-startfatcnt, pcnt=startfatcnt;
     1ea:	20 91 7b 01 	lds	r18, 0x017B
     1ee:	30 91 7c 01 	lds	r19, 0x017C
     1f2:	00 91 49 01 	lds	r16, 0x0149
     1f6:	10 91 4a 01 	lds	r17, 0x014A
	u08 offscl=0;

	// FAT bearbeiten
	fatsect = fat_pos+startfatoffs;	// Sektor der FAT
     1fa:	80 91 47 01 	lds	r24, 0x0147
     1fe:	90 91 48 01 	lds	r25, 0x0148
     202:	c0 91 80 01 	lds	r28, 0x0180
     206:	d0 91 81 01 	lds	r29, 0x0181
     20a:	c8 0f       	add	r28, r24
     20c:	d9 1f       	adc	r29, r25
	if (startfatoffs == 0)
     20e:	89 2b       	or	r24, r25
     210:	19 f4       	brne	.+6      	; 0x218 <find_free_cluster+0x3c>
     212:	b2 e0       	ldi	r27, 0x02	; 2
     214:	db 2e       	mov	r13, r27
     216:	01 c0       	rjmp	.+2      	; 0x21a <find_free_cluster+0x3e>
     218:	dd 24       	eor	r13, r13
     21a:	79 01       	movw	r14, r18
     21c:	e0 1a       	sub	r14, r16
     21e:	f1 0a       	sbc	r15, r17
		offscl = 2;
	fat_directaccess = 1;
     220:	81 e0       	ldi	r24, 0x01	; 1
     222:	80 93 38 01 	sts	0x0138, r24
	mmc_read_sector(fatsect, sharedmem);	// FAT-Sektor lesen
     226:	be 01       	movw	r22, r28
     228:	88 27       	eor	r24, r24
     22a:	99 27       	eor	r25, r25
     22c:	42 e8       	ldi	r20, 0x82	; 130
     22e:	51 e0       	ldi	r21, 0x01	; 1
     230:	aa d9       	rcall	.-3244   	; 0xfffff586 <__eeprom_end+0xff7ef586>
	fat_directaccess = 0;
     232:	10 92 38 01 	sts	0x0138, r1
	while (1) {
		fatcl = sharedmem[offscl<<1];	// FAT-Eintrag lesen
     236:	ed 2d       	mov	r30, r13
     238:	ff 27       	eor	r31, r31
     23a:	ee 0f       	add	r30, r30
     23c:	ff 1f       	adc	r31, r31
     23e:	ee 57       	subi	r30, 0x7E	; 126
     240:	fe 4f       	sbci	r31, 0xFE	; 254
     242:	20 81       	ld	r18, Z
     244:	33 27       	eor	r19, r19
		fatcl |= sharedmem[(offscl<<1)+1] << 8;
		if (fatcl == 0) {
     246:	81 81       	ldd	r24, Z+1	; 0x01
     248:	99 27       	eor	r25, r25
     24a:	98 2f       	mov	r25, r24
     24c:	88 27       	eor	r24, r24
     24e:	28 2b       	or	r18, r24
     250:	39 2b       	or	r19, r25
     252:	23 2b       	or	r18, r19
     254:	41 f4       	brne	.+16     	; 0x266 <find_free_cluster+0x8a>
			pcnt++;
			cnt--;
     256:	08 94       	sec
     258:	e1 08       	sbc	r14, r1
     25a:	f1 08       	sbc	r15, r1
			if (cnt == 0)
     25c:	e1 14       	cp	r14, r1
     25e:	f1 04       	cpc	r15, r1
     260:	e9 f0       	breq	.+58     	; 0x29c <find_free_cluster+0xc0>
     262:	0f 5f       	subi	r16, 0xFF	; 255
     264:	1f 4f       	sbci	r17, 0xFF	; 255
				return ((fatsect-fat_pos)<<8) + offscl;
		}
		offscl++;
     266:	d3 94       	inc	r13
		if (offscl == 0) {
     268:	31 f7       	brne	.-52     	; 0x236 <find_free_cluster+0x5a>
			fatsect++;
     26a:	21 96       	adiw	r28, 0x01	; 1
			startfatoffs++;
     26c:	80 91 47 01 	lds	r24, 0x0147
     270:	90 91 48 01 	lds	r25, 0x0148
     274:	01 96       	adiw	r24, 0x01	; 1
     276:	90 93 48 01 	sts	0x0148, r25
     27a:	80 93 47 01 	sts	0x0147, r24
			startfatcnt = pcnt;
     27e:	10 93 4a 01 	sts	0x014A, r17
     282:	00 93 49 01 	sts	0x0149, r16
			if (fatsect == root_pos)	// Volle Karte!
     286:	80 91 7e 01 	lds	r24, 0x017E
     28a:	90 91 7f 01 	lds	r25, 0x017F
     28e:	c8 17       	cp	r28, r24
     290:	d9 07       	cpc	r29, r25
     292:	31 f6       	brne	.-116    	; 0x220 <find_free_cluster+0x44>
				fat_cardfull = 1;
     294:	81 e0       	ldi	r24, 0x01	; 1
     296:	80 93 39 01 	sts	0x0139, r24
     29a:	c2 cf       	rjmp	.-124    	; 0x220 <find_free_cluster+0x44>
     29c:	80 91 80 01 	lds	r24, 0x0180
     2a0:	90 91 81 01 	lds	r25, 0x0181
     2a4:	c8 1b       	sub	r28, r24
     2a6:	d9 0b       	sbc	r29, r25
     2a8:	9c 2f       	mov	r25, r28
     2aa:	88 27       	eor	r24, r24
//				return -1;
			fat_directaccess = 1;
			mmc_read_sector(fatsect, sharedmem);	// FAT-Sektor lesen
			fat_directaccess = 0;
		}
	}
}
     2ac:	8d 0d       	add	r24, r13
     2ae:	91 1d       	adc	r25, r1
     2b0:	df 91       	pop	r29
     2b2:	cf 91       	pop	r28
     2b4:	1f 91       	pop	r17
     2b6:	0f 91       	pop	r16
     2b8:	ff 90       	pop	r15
     2ba:	ef 90       	pop	r14
     2bc:	df 90       	pop	r13
     2be:	08 95       	ret

000002c0 <fat_getnextsector>:


/** Opens a File
    @param mode
    @param file number (not needed for write operation)
    @return success
*/
u08 fat_openfile(u08 mode, u08 nr)
{
	if (filemode != FILEMODE_CLOSED)
		return 0;
	if (mode == FILEMODE_READ) {
		if (nr >= file_cnt)
			return 0;
		if (!fat_read_filedata(nr))
			return 0;
		mmc_load_start(fat_filedata.startsect);
		filemode = FILEMODE_READ;
		return 1;
	}
	else if (mode == FILEMODE_WRITE) {
		filemode = FILEMODE_WRITE;
		clcnt = 1;
		startfatoffs = 0;
		startfatcnt = 0;
		fat_filedata.startsect = cluster2sector(find_free_cluster());
	}
	return 0;
}


/** Closes Current File
    @return success
*/
u08 fat_closefile(void)
{
	if (filemode == FILEMODE_CLOSED)
		return 0;
	if (filemode == FILEMODE_READ) {
		mmc_complete_read();
		filemode = FILEMODE_CLOSED;
		return 1;
	}
	else if (filemode == FILEMODE_WRITE) {
		filemode = FILEMODE_CLOSED;
		fat_new_file();
	}
	return 0;
}


/** Finds next Sector for Read/Write
    Works on global var sect
    @return success
*/
u08 fat_getnextsector(void)
{
     2c0:	df 92       	push	r13
     2c2:	ef 92       	push	r14
     2c4:	ff 92       	push	r15
     2c6:	0f 93       	push	r16
     2c8:	1f 93       	push	r17
     2ca:	cf 93       	push	r28
     2cc:	df 93       	push	r29
	u16 startcl = sector2cluster(sect);	// Rechnet den aktuellen Cluster der Datei aus
     2ce:	e0 90 8e 04 	lds	r14, 0x048E
     2d2:	f0 90 8f 04 	lds	r15, 0x048F
     2d6:	00 91 90 04 	lds	r16, 0x0490
     2da:	10 91 91 04 	lds	r17, 0x0491
     2de:	c8 01       	movw	r24, r16
     2e0:	b7 01       	movw	r22, r14
     2e2:	e4 de       	rcall	.-568    	; 0xac <sector2cluster>
     2e4:	ec 01       	movw	r28, r24

	if (filemode == FILEMODE_READ) {
     2e6:	d0 90 37 01 	lds	r13, 0x0137
     2ea:	41 e0       	ldi	r20, 0x01	; 1
     2ec:	d4 16       	cp	r13, r20
     2ee:	09 f0       	breq	.+2      	; 0x2f2 <fat_getnextsector+0x32>
     2f0:	3e c0       	rjmp	.+124    	; 0x36e <fat_getnextsector+0xae>
		u16 fatsect, fatcl;
		u08 offscl;

		if (startcl == sector2cluster(sect+1)) {
     2f2:	08 94       	sec
     2f4:	e1 1c       	adc	r14, r1
     2f6:	f1 1c       	adc	r15, r1
     2f8:	01 1d       	adc	r16, r1
     2fa:	11 1d       	adc	r17, r1
     2fc:	c8 01       	movw	r24, r16
     2fe:	b7 01       	movw	r22, r14
     300:	d5 de       	rcall	.-598    	; 0xac <sector2cluster>
     302:	c8 17       	cp	r28, r24
     304:	d9 07       	cpc	r29, r25
     306:	09 f4       	brne	.+2      	; 0x30a <fat_getnextsector+0x4a>
     308:	40 c0       	rjmp	.+128    	; 0x38a <fat_getnextsector+0xca>
			sect++;
			return 1;
		}
		fatsect = fat_pos + (startcl>>8);	// Sektor der FAT mit dem Cluster der Datei
     30a:	6d 2f       	mov	r22, r29
     30c:	77 27       	eor	r23, r23
     30e:	20 91 80 01 	lds	r18, 0x0180
     312:	30 91 81 01 	lds	r19, 0x0181
     316:	62 0f       	add	r22, r18
     318:	73 1f       	adc	r23, r19
		offscl = (u08)startcl;	// Eintragsposition im FAT-Sektor bestimmen
		fat_directaccess = 1;
     31a:	d0 92 38 01 	sts	0x0138, r13
		mmc_read_sector(fatsect, sharedmem);	// FAT-Sektor lesen
     31e:	88 27       	eor	r24, r24
     320:	99 27       	eor	r25, r25
     322:	42 e8       	ldi	r20, 0x82	; 130
     324:	51 e0       	ldi	r21, 0x01	; 1
     326:	2f d9       	rcall	.-3490   	; 0xfffff586 <__eeprom_end+0xff7ef586>
		fat_directaccess = 0;
     328:	10 92 38 01 	sts	0x0138, r1
		fatcl = sharedmem[offscl<<1];	// FAT-Eintrag lesen
     32c:	ec 2f       	mov	r30, r28
     32e:	ff 27       	eor	r31, r31
     330:	ee 0f       	add	r30, r30
     332:	ff 1f       	adc	r31, r31
     334:	ee 57       	subi	r30, 0x7E	; 126
     336:	fe 4f       	sbci	r31, 0xFE	; 254
     338:	80 81       	ld	r24, Z
     33a:	28 2f       	mov	r18, r24
     33c:	33 27       	eor	r19, r19
		fatcl |= sharedmem[(offscl<<1)+1] << 8;
     33e:	81 81       	ldd	r24, Z+1	; 0x01
     340:	99 27       	eor	r25, r25
     342:	98 2f       	mov	r25, r24
     344:	88 27       	eor	r24, r24
     346:	28 2b       	or	r18, r24
     348:	39 2b       	or	r19, r25
		if (fatcl >= 2 && fatcl < 0xfff0) {
     34a:	c9 01       	movw	r24, r18
     34c:	02 97       	sbiw	r24, 0x02	; 2
     34e:	8e 5e       	subi	r24, 0xEE	; 238
     350:	9f 4f       	sbci	r25, 0xFF	; 255
     352:	80 f5       	brcc	.+96     	; 0x3b4 <fat_getnextsector+0xf4>
			sect = cluster2sector(fatcl);
     354:	c9 01       	movw	r24, r18
     356:	ff de       	rcall	.-514    	; 0x156 <cluster2sector>
     358:	60 93 8e 04 	sts	0x048E, r22
     35c:	70 93 8f 04 	sts	0x048F, r23
     360:	80 93 90 04 	sts	0x0490, r24
     364:	90 93 91 04 	sts	0x0491, r25
     368:	81 e0       	ldi	r24, 0x01	; 1
     36a:	90 e0       	ldi	r25, 0x00	; 0
     36c:	25 c0       	rjmp	.+74     	; 0x3b8 <fat_getnextsector+0xf8>
			return 1;
		}
	}
	else if (filemode == FILEMODE_WRITE) {
     36e:	82 e0       	ldi	r24, 0x02	; 2
     370:	d8 16       	cp	r13, r24
     372:	01 f5       	brne	.+64     	; 0x3b4 <fat_getnextsector+0xf4>
		if (startcl == sector2cluster(sect+1)) {
     374:	08 94       	sec
     376:	e1 1c       	adc	r14, r1
     378:	f1 1c       	adc	r15, r1
     37a:	01 1d       	adc	r16, r1
     37c:	11 1d       	adc	r17, r1
     37e:	c8 01       	movw	r24, r16
     380:	b7 01       	movw	r22, r14
     382:	94 de       	rcall	.-728    	; 0xac <sector2cluster>
     384:	c8 17       	cp	r28, r24
     386:	d9 07       	cpc	r29, r25
     388:	49 f4       	brne	.+18     	; 0x39c <fat_getnextsector+0xdc>
			sect++;
     38a:	e0 92 8e 04 	sts	0x048E, r14
     38e:	f0 92 8f 04 	sts	0x048F, r15
     392:	00 93 90 04 	sts	0x0490, r16
     396:	10 93 91 04 	sts	0x0491, r17
     39a:	e6 cf       	rjmp	.-52     	; 0x368 <fat_getnextsector+0xa8>
			return 1;
		}
		clcnt++;
     39c:	80 91 7b 01 	lds	r24, 0x017B
     3a0:	90 91 7c 01 	lds	r25, 0x017C
     3a4:	01 96       	adiw	r24, 0x01	; 1
     3a6:	90 93 7c 01 	sts	0x017C, r25
     3aa:	80 93 7b 01 	sts	0x017B, r24
		sect = cluster2sector(find_free_cluster());
     3ae:	16 df       	rcall	.-468    	; 0x1dc <find_free_cluster>
     3b0:	d2 de       	rcall	.-604    	; 0x156 <cluster2sector>
     3b2:	d2 cf       	rjmp	.-92     	; 0x358 <fat_getnextsector+0x98>
		return 1;
     3b4:	80 e0       	ldi	r24, 0x00	; 0
     3b6:	90 e0       	ldi	r25, 0x00	; 0
     3b8:	df 91       	pop	r29
     3ba:	cf 91       	pop	r28
     3bc:	1f 91       	pop	r17
     3be:	0f 91       	pop	r16
     3c0:	ff 90       	pop	r15
     3c2:	ef 90       	pop	r14
     3c4:	df 90       	pop	r13
     3c6:	08 95       	ret

000003c8 <fat_init>:
     3c8:	42 e8       	ldi	r20, 0x82	; 130
     3ca:	51 e0       	ldi	r21, 0x01	; 1
     3cc:	60 e0       	ldi	r22, 0x00	; 0
     3ce:	70 e0       	ldi	r23, 0x00	; 0
     3d0:	80 e0       	ldi	r24, 0x00	; 0
     3d2:	90 e0       	ldi	r25, 0x00	; 0
     3d4:	d8 d8       	rcall	.-3664   	; 0xfffff586 <__eeprom_end+0xff7ef586>
     3d6:	20 91 48 03 	lds	r18, 0x0348
     3da:	33 27       	eor	r19, r19
     3dc:	80 91 49 03 	lds	r24, 0x0349
     3e0:	99 27       	eor	r25, r25
     3e2:	98 2f       	mov	r25, r24
     3e4:	88 27       	eor	r24, r24
     3e6:	28 2b       	or	r18, r24
     3e8:	39 2b       	or	r19, r25
     3ea:	30 93 46 01 	sts	0x0146, r19
     3ee:	20 93 45 01 	sts	0x0145, r18
     3f2:	21 50       	subi	r18, 0x01	; 1
     3f4:	30 40       	sbci	r19, 0x00	; 0
     3f6:	28 5e       	subi	r18, 0xE8	; 232
     3f8:	33 40       	sbci	r19, 0x03	; 3
     3fa:	20 f0       	brcs	.+8      	; 0x404 <fat_init+0x3c>
     3fc:	10 92 46 01 	sts	0x0146, r1
     400:	10 92 45 01 	sts	0x0145, r1
     404:	60 91 45 01 	lds	r22, 0x0145
     408:	70 91 46 01 	lds	r23, 0x0146
     40c:	88 27       	eor	r24, r24
     40e:	99 27       	eor	r25, r25
     410:	42 e8       	ldi	r20, 0x82	; 130
     412:	51 e0       	ldi	r21, 0x01	; 1
     414:	b8 d8       	rcall	.-3728   	; 0xfffff586 <__eeprom_end+0xff7ef586>
     416:	40 91 98 01 	lds	r20, 0x0198
     41a:	50 91 99 01 	lds	r21, 0x0199
     41e:	50 93 44 01 	sts	0x0144, r21
     422:	40 93 43 01 	sts	0x0143, r20
     426:	41 15       	cp	r20, r1
     428:	51 05       	cpc	r21, r1
     42a:	e1 f1       	breq	.+120    	; 0x4a4 <fat_init+0xdc>
     42c:	80 91 8f 01 	lds	r24, 0x018F
     430:	80 93 4e 01 	sts	0x014E, r24
     434:	60 91 92 01 	lds	r22, 0x0192
     438:	60 93 7d 01 	sts	0x017D, r22
     43c:	66 23       	and	r22, r22
     43e:	91 f1       	breq	.+100    	; 0x4a4 <fat_init+0xdc>
     440:	80 91 45 01 	lds	r24, 0x0145
     444:	90 91 46 01 	lds	r25, 0x0146
     448:	20 91 90 01 	lds	r18, 0x0190
     44c:	30 91 91 01 	lds	r19, 0x0191
     450:	82 0f       	add	r24, r18
     452:	93 1f       	adc	r25, r19
     454:	90 93 81 01 	sts	0x0181, r25
     458:	80 93 80 01 	sts	0x0180, r24
     45c:	26 2f       	mov	r18, r22
     45e:	33 27       	eor	r19, r19
     460:	b9 01       	movw	r22, r18
     462:	46 9f       	mul	r20, r22
     464:	90 01       	movw	r18, r0
     466:	47 9f       	mul	r20, r23
     468:	30 0d       	add	r19, r0
     46a:	56 9f       	mul	r21, r22
     46c:	30 0d       	add	r19, r0
     46e:	11 24       	eor	r1, r1
     470:	28 0f       	add	r18, r24
     472:	39 1f       	adc	r19, r25
     474:	30 93 7f 01 	sts	0x017F, r19
     478:	20 93 7e 01 	sts	0x017E, r18
     47c:	80 91 93 01 	lds	r24, 0x0193
     480:	90 91 94 01 	lds	r25, 0x0194
     484:	00 97       	sbiw	r24, 0x00	; 0
     486:	71 f0       	breq	.+28     	; 0x4a4 <fat_init+0xdc>
     488:	44 e0       	ldi	r20, 0x04	; 4
     48a:	96 95       	lsr	r25
     48c:	87 95       	ror	r24
     48e:	4a 95       	dec	r20
     490:	e1 f7       	brne	.-8      	; 0x48a <fat_init+0xc2>
     492:	28 0f       	add	r18, r24
     494:	39 1f       	adc	r19, r25
     496:	30 93 4d 01 	sts	0x014D, r19
     49a:	20 93 4c 01 	sts	0x014C, r18
     49e:	81 e0       	ldi	r24, 0x01	; 1
     4a0:	90 e0       	ldi	r25, 0x00	; 0
     4a2:	08 95       	ret
     4a4:	80 e0       	ldi	r24, 0x00	; 0
     4a6:	90 e0       	ldi	r25, 0x00	; 0
     4a8:	08 95       	ret

000004aa <fat_new_file>:
     4aa:	6f 92       	push	r6
     4ac:	7f 92       	push	r7
     4ae:	8f 92       	push	r8
     4b0:	9f 92       	push	r9
     4b2:	af 92       	push	r10
     4b4:	bf 92       	push	r11
     4b6:	df 92       	push	r13
     4b8:	ef 92       	push	r14
     4ba:	ff 92       	push	r15
     4bc:	0f 93       	push	r16
     4be:	1f 93       	push	r17
     4c0:	cf 93       	push	r28
     4c2:	df 93       	push	r29
     4c4:	60 91 53 01 	lds	r22, 0x0153
     4c8:	70 91 54 01 	lds	r23, 0x0154
     4cc:	80 91 55 01 	lds	r24, 0x0155
     4d0:	90 91 56 01 	lds	r25, 0x0156
     4d4:	eb dd       	rcall	.-1066   	; 0xac <sector2cluster>
     4d6:	5c 01       	movw	r10, r24
     4d8:	81 e0       	ldi	r24, 0x01	; 1
     4da:	80 93 38 01 	sts	0x0138, r24
     4de:	8d e4       	ldi	r24, 0x4D	; 77
     4e0:	80 93 5b 01 	sts	0x015B, r24
     4e4:	84 e4       	ldi	r24, 0x44	; 68
     4e6:	80 93 5c 01 	sts	0x015C, r24
     4ea:	80 91 36 01 	lds	r24, 0x0136
     4ee:	8f 5f       	subi	r24, 0xFF	; 255
     4f0:	80 93 36 01 	sts	0x0136, r24
     4f4:	20 e0       	ldi	r18, 0x00	; 0
     4f6:	02 c0       	rjmp	.+4      	; 0x4fc <fat_new_file+0x52>
     4f8:	84 56       	subi	r24, 0x64	; 100
     4fa:	2f 5f       	subi	r18, 0xFF	; 255
     4fc:	84 36       	cpi	r24, 0x64	; 100
     4fe:	e0 f7       	brcc	.-8      	; 0x4f8 <fat_new_file+0x4e>
     500:	90 e0       	ldi	r25, 0x00	; 0
     502:	02 c0       	rjmp	.+4      	; 0x508 <__stack+0x9>
     504:	8a 50       	subi	r24, 0x0A	; 10
     506:	9f 5f       	subi	r25, 0xFF	; 255
     508:	8a 30       	cpi	r24, 0x0A	; 10
     50a:	e0 f7       	brcc	.-8      	; 0x504 <__stack+0x5>
     50c:	20 5d       	subi	r18, 0xD0	; 208
     50e:	20 93 5d 01 	sts	0x015D, r18
     512:	90 5d       	subi	r25, 0xD0	; 208
     514:	90 93 5e 01 	sts	0x015E, r25
     518:	80 5d       	subi	r24, 0xD0	; 208
     51a:	80 93 5f 01 	sts	0x015F, r24
     51e:	80 e2       	ldi	r24, 0x20	; 32
     520:	80 93 60 01 	sts	0x0160, r24
     524:	80 93 61 01 	sts	0x0161, r24
     528:	80 93 62 01 	sts	0x0162, r24
     52c:	94 e5       	ldi	r25, 0x54	; 84
     52e:	90 93 63 01 	sts	0x0163, r25
     532:	88 e5       	ldi	r24, 0x58	; 88
     534:	80 93 64 01 	sts	0x0164, r24
     538:	90 93 65 01 	sts	0x0165, r25
     53c:	10 92 66 01 	sts	0x0166, r1
     540:	81 e0       	ldi	r24, 0x01	; 1
     542:	80 93 5a 01 	sts	0x015A, r24
     546:	20 91 34 01 	lds	r18, 0x0134
     54a:	30 91 35 01 	lds	r19, 0x0135
     54e:	30 93 58 01 	sts	0x0158, r19
     552:	20 93 57 01 	sts	0x0157, r18
     556:	80 91 4b 01 	lds	r24, 0x014B
     55a:	80 93 59 01 	sts	0x0159, r24
     55e:	79 01       	movw	r14, r18
     560:	00 27       	eor	r16, r16
     562:	11 27       	eor	r17, r17
     564:	42 e8       	ldi	r20, 0x82	; 130
     566:	51 e0       	ldi	r21, 0x01	; 1
     568:	c8 01       	movw	r24, r16
     56a:	b7 01       	movw	r22, r14
     56c:	0c d8       	rcall	.-4072   	; 0xfffff586 <__eeprom_end+0xff7ef586>
     56e:	80 91 4b 01 	lds	r24, 0x014B
     572:	28 2f       	mov	r18, r24
     574:	33 27       	eor	r19, r19
     576:	e5 e0       	ldi	r30, 0x05	; 5
     578:	22 0f       	add	r18, r18
     57a:	33 1f       	adc	r19, r19
     57c:	ea 95       	dec	r30
     57e:	e1 f7       	brne	.-8      	; 0x578 <__stack+0x79>
     580:	40 e0       	ldi	r20, 0x00	; 0
     582:	50 e0       	ldi	r21, 0x00	; 0
     584:	ab e5       	ldi	r26, 0x5B	; 91
     586:	b1 e0       	ldi	r27, 0x01	; 1
     588:	f9 01       	movw	r30, r18
     58a:	ee 57       	subi	r30, 0x7E	; 126
     58c:	fe 4f       	sbci	r31, 0xFE	; 254
     58e:	8d 91       	ld	r24, X+
     590:	81 93       	st	Z+, r24
     592:	4f 5f       	subi	r20, 0xFF	; 255
     594:	5f 4f       	sbci	r21, 0xFF	; 255
     596:	4b 30       	cpi	r20, 0x0B	; 11
     598:	51 05       	cpc	r21, r1
     59a:	c9 f7       	brne	.-14     	; 0x58e <__stack+0x8f>
     59c:	e9 01       	movw	r28, r18
     59e:	ce 57       	subi	r28, 0x7E	; 126
     5a0:	de 4f       	sbci	r29, 0xFE	; 254
     5a2:	d9 01       	movw	r26, r18
     5a4:	a3 57       	subi	r26, 0x73	; 115
     5a6:	be 4f       	sbci	r27, 0xFE	; 254
     5a8:	e4 e3       	ldi	r30, 0x34	; 52
     5aa:	f0 e0       	ldi	r31, 0x00	; 0
     5ac:	84 91       	lpm	r24, Z
     5ae:	8d 93       	st	X+, r24
     5b0:	31 96       	adiw	r30, 0x01	; 1
     5b2:	20 e0       	ldi	r18, 0x00	; 0
     5b4:	e3 34       	cpi	r30, 0x43	; 67
     5b6:	f2 07       	cpc	r31, r18
     5b8:	c9 f7       	brne	.-14     	; 0x5ac <__stack+0xad>
     5ba:	20 91 4f 01 	lds	r18, 0x014F
     5be:	30 91 50 01 	lds	r19, 0x0150
     5c2:	40 91 51 01 	lds	r20, 0x0151
     5c6:	50 91 52 01 	lds	r21, 0x0152
     5ca:	85 2f       	mov	r24, r21
     5cc:	99 27       	eor	r25, r25
     5ce:	aa 27       	eor	r26, r26
     5d0:	bb 27       	eor	r27, r27
     5d2:	8f 8f       	std	Y+31, r24	; 0x1f
     5d4:	ca 01       	movw	r24, r20
     5d6:	aa 27       	eor	r26, r26
     5d8:	bb 27       	eor	r27, r27
     5da:	8e 8f       	std	Y+30, r24	; 0x1e
     5dc:	bb 27       	eor	r27, r27
     5de:	a5 2f       	mov	r26, r21
     5e0:	94 2f       	mov	r25, r20
     5e2:	83 2f       	mov	r24, r19
     5e4:	8d 8f       	std	Y+29, r24	; 0x1d
     5e6:	2c 8f       	std	Y+28, r18	; 0x1c
     5e8:	8b 2d       	mov	r24, r11
     5ea:	99 27       	eor	r25, r25
     5ec:	8b 8f       	std	Y+27, r24	; 0x1b
     5ee:	aa 8e       	std	Y+26, r10	; 0x1a
     5f0:	42 e8       	ldi	r20, 0x82	; 130
     5f2:	51 e0       	ldi	r21, 0x01	; 1
     5f4:	c8 01       	movw	r24, r16
     5f6:	b7 01       	movw	r22, r14
     5f8:	67 d7       	rcall	.+3790   	; 0x14c8 <mmc_write_sector>
     5fa:	80 91 4b 01 	lds	r24, 0x014B
     5fe:	8f 5f       	subi	r24, 0xFF	; 255
     600:	80 93 4b 01 	sts	0x014B, r24
     604:	80 31       	cpi	r24, 0x10	; 16
     606:	59 f4       	brne	.+22     	; 0x61e <__stack+0x11f>
     608:	10 92 4b 01 	sts	0x014B, r1
     60c:	80 91 34 01 	lds	r24, 0x0134
     610:	90 91 35 01 	lds	r25, 0x0135
     614:	01 96       	adiw	r24, 0x01	; 1
     616:	90 93 35 01 	sts	0x0135, r25
     61a:	80 93 34 01 	sts	0x0134, r24
     61e:	88 24       	eor	r8, r8
     620:	99 24       	eor	r9, r9
     622:	b5 c0       	rjmp	.+362    	; 0x78e <__stack+0x28f>
     624:	60 91 53 01 	lds	r22, 0x0153
     628:	70 91 54 01 	lds	r23, 0x0154
     62c:	80 91 55 01 	lds	r24, 0x0155
     630:	90 91 56 01 	lds	r25, 0x0156
     634:	3b dd       	rcall	.-1418   	; 0xac <sector2cluster>
     636:	8c 01       	movw	r16, r24
     638:	6f 2c       	mov	r6, r15
     63a:	77 24       	eor	r7, r7
     63c:	c9 2f       	mov	r28, r25
     63e:	dd 27       	eor	r29, r29
     640:	80 91 80 01 	lds	r24, 0x0180
     644:	90 91 81 01 	lds	r25, 0x0181
     648:	c8 0f       	add	r28, r24
     64a:	d9 1f       	adc	r29, r25
     64c:	80 91 43 01 	lds	r24, 0x0143
     650:	90 91 44 01 	lds	r25, 0x0144
     654:	ac 01       	movw	r20, r24
     656:	64 9e       	mul	r6, r20
     658:	c0 01       	movw	r24, r0
     65a:	65 9e       	mul	r6, r21
     65c:	90 0d       	add	r25, r0
     65e:	74 9e       	mul	r7, r20
     660:	90 0d       	add	r25, r0
     662:	11 24       	eor	r1, r1
     664:	c8 0f       	add	r28, r24
     666:	d9 1f       	adc	r29, r25
     668:	d0 2e       	mov	r13, r16
     66a:	a0 90 7b 01 	lds	r10, 0x017B
     66e:	b0 90 7c 01 	lds	r11, 0x017C
     672:	be 01       	movw	r22, r28
     674:	88 27       	eor	r24, r24
     676:	99 27       	eor	r25, r25
     678:	42 e8       	ldi	r20, 0x82	; 130
     67a:	51 e0       	ldi	r21, 0x01	; 1
     67c:	84 d7       	rcall	.+3848   	; 0x1586 <mmc_read_sector>
     67e:	51 e0       	ldi	r21, 0x01	; 1
     680:	a5 16       	cp	r10, r21
     682:	b1 04       	cpc	r11, r1
     684:	19 f0       	breq	.+6      	; 0x68c <__stack+0x18d>
     686:	7e 01       	movw	r14, r28
     688:	10 2f       	mov	r17, r16
     68a:	6f c0       	rjmp	.+222    	; 0x76a <__stack+0x26b>
     68c:	e0 2f       	mov	r30, r16
     68e:	ff 27       	eor	r31, r31
     690:	6e c0       	rjmp	.+220    	; 0x76e <__stack+0x26f>
     692:	7e 01       	movw	r14, r28
     694:	1d 2d       	mov	r17, r13
     696:	41 e0       	ldi	r20, 0x01	; 1
     698:	d3 94       	inc	r13
     69a:	81 f4       	brne	.+32     	; 0x6bc <__stack+0x1bd>
     69c:	44 23       	and	r20, r20
     69e:	31 f0       	breq	.+12     	; 0x6ac <__stack+0x1ad>
     6a0:	be 01       	movw	r22, r28
     6a2:	88 27       	eor	r24, r24
     6a4:	99 27       	eor	r25, r25
     6a6:	42 e8       	ldi	r20, 0x82	; 130
     6a8:	51 e0       	ldi	r21, 0x01	; 1
     6aa:	0e d7       	rcall	.+3612   	; 0x14c8 <mmc_write_sector>
     6ac:	21 96       	adiw	r28, 0x01	; 1
     6ae:	be 01       	movw	r22, r28
     6b0:	88 27       	eor	r24, r24
     6b2:	99 27       	eor	r25, r25
     6b4:	42 e8       	ldi	r20, 0x82	; 130
     6b6:	51 e0       	ldi	r21, 0x01	; 1
     6b8:	66 d7       	rcall	.+3788   	; 0x1586 <mmc_read_sector>
     6ba:	40 e0       	ldi	r20, 0x00	; 0
     6bc:	ed 2d       	mov	r30, r13
     6be:	ff 27       	eor	r31, r31
     6c0:	ee 0f       	add	r30, r30
     6c2:	ff 1f       	adc	r31, r31
     6c4:	ee 57       	subi	r30, 0x7E	; 126
     6c6:	fe 4f       	sbci	r31, 0xFE	; 254
     6c8:	20 81       	ld	r18, Z
     6ca:	33 27       	eor	r19, r19
     6cc:	81 81       	ldd	r24, Z+1	; 0x01
     6ce:	99 27       	eor	r25, r25
     6d0:	98 2f       	mov	r25, r24
     6d2:	88 27       	eor	r24, r24
     6d4:	28 2b       	or	r18, r24
     6d6:	39 2b       	or	r19, r25
     6d8:	23 2b       	or	r18, r19
     6da:	f1 f6       	brne	.-68     	; 0x698 <__stack+0x199>
     6dc:	ec 16       	cp	r14, r28
     6de:	fd 06       	cpc	r15, r29
     6e0:	71 f0       	breq	.+28     	; 0x6fe <__stack+0x1ff>
     6e2:	44 23       	and	r20, r20
     6e4:	31 f0       	breq	.+12     	; 0x6f2 <__stack+0x1f3>
     6e6:	be 01       	movw	r22, r28
     6e8:	88 27       	eor	r24, r24
     6ea:	99 27       	eor	r25, r25
     6ec:	42 e8       	ldi	r20, 0x82	; 130
     6ee:	51 e0       	ldi	r21, 0x01	; 1
     6f0:	eb d6       	rcall	.+3542   	; 0x14c8 <mmc_write_sector>
     6f2:	b7 01       	movw	r22, r14
     6f4:	88 27       	eor	r24, r24
     6f6:	99 27       	eor	r25, r25
     6f8:	42 e8       	ldi	r20, 0x82	; 130
     6fa:	51 e0       	ldi	r21, 0x01	; 1
     6fc:	44 d7       	rcall	.+3720   	; 0x1586 <mmc_read_sector>
     6fe:	81 2f       	mov	r24, r17
     700:	99 27       	eor	r25, r25
     702:	22 e0       	ldi	r18, 0x02	; 2
     704:	a2 16       	cp	r10, r18
     706:	b1 04       	cpc	r11, r1
     708:	00 f1       	brcs	.+64     	; 0x74a <__stack+0x24b>
     70a:	fc 01       	movw	r30, r24
     70c:	ee 0f       	add	r30, r30
     70e:	ff 1f       	adc	r31, r31
     710:	ee 57       	subi	r30, 0x7E	; 126
     712:	fe 4f       	sbci	r31, 0xFE	; 254
     714:	d0 82       	st	Z, r13
     716:	80 91 80 01 	lds	r24, 0x0180
     71a:	ae 01       	movw	r20, r28
     71c:	48 1b       	sub	r20, r24
     71e:	24 2f       	mov	r18, r20
     720:	80 91 43 01 	lds	r24, 0x0143
     724:	90 91 44 01 	lds	r25, 0x0144
     728:	ac 01       	movw	r20, r24
     72a:	64 9e       	mul	r6, r20
     72c:	c0 01       	movw	r24, r0
     72e:	65 9e       	mul	r6, r21
     730:	90 0d       	add	r25, r0
     732:	74 9e       	mul	r7, r20
     734:	90 0d       	add	r25, r0
     736:	11 24       	eor	r1, r1
     738:	28 1b       	sub	r18, r24
     73a:	21 83       	std	Z+1, r18	; 0x01
     73c:	08 94       	sec
     73e:	a1 08       	sbc	r10, r1
     740:	b1 08       	sbc	r11, r1
     742:	ec 16       	cp	r14, r28
     744:	fd 06       	cpc	r15, r29
     746:	19 f4       	brne	.+6      	; 0x74e <__stack+0x24f>
     748:	a4 cf       	rjmp	.-184    	; 0x692 <__stack+0x193>
     74a:	fc 01       	movw	r30, r24
     74c:	10 c0       	rjmp	.+32     	; 0x76e <__stack+0x26f>
     74e:	b7 01       	movw	r22, r14
     750:	88 27       	eor	r24, r24
     752:	99 27       	eor	r25, r25
     754:	42 e8       	ldi	r20, 0x82	; 130
     756:	51 e0       	ldi	r21, 0x01	; 1
     758:	b7 d6       	rcall	.+3438   	; 0x14c8 <mmc_write_sector>
     75a:	be 01       	movw	r22, r28
     75c:	88 27       	eor	r24, r24
     75e:	99 27       	eor	r25, r25
     760:	42 e8       	ldi	r20, 0x82	; 130
     762:	51 e0       	ldi	r21, 0x01	; 1
     764:	10 d7       	rcall	.+3616   	; 0x1586 <mmc_read_sector>
     766:	7e 01       	movw	r14, r28
     768:	1d 2d       	mov	r17, r13
     76a:	40 e0       	ldi	r20, 0x00	; 0
     76c:	95 cf       	rjmp	.-214    	; 0x698 <__stack+0x199>
     76e:	ee 0f       	add	r30, r30
     770:	ff 1f       	adc	r31, r31
     772:	ee 57       	subi	r30, 0x7E	; 126
     774:	fe 4f       	sbci	r31, 0xFE	; 254
     776:	8f ef       	ldi	r24, 0xFF	; 255
     778:	80 83       	st	Z, r24
     77a:	81 83       	std	Z+1, r24	; 0x01
     77c:	be 01       	movw	r22, r28
     77e:	88 27       	eor	r24, r24
     780:	99 27       	eor	r25, r25
     782:	42 e8       	ldi	r20, 0x82	; 130
     784:	51 e0       	ldi	r21, 0x01	; 1
     786:	a0 d6       	rcall	.+3392   	; 0x14c8 <mmc_write_sector>
     788:	08 94       	sec
     78a:	81 1c       	adc	r8, r1
     78c:	91 1c       	adc	r9, r1
     78e:	f8 2c       	mov	r15, r8
     790:	80 91 7d 01 	lds	r24, 0x017D
     794:	88 16       	cp	r8, r24
     796:	08 f4       	brcc	.+2      	; 0x79a <__stack+0x29b>
     798:	45 cf       	rjmp	.-374    	; 0x624 <__stack+0x125>
     79a:	10 92 38 01 	sts	0x0138, r1
     79e:	df 91       	pop	r29
     7a0:	cf 91       	pop	r28
     7a2:	1f 91       	pop	r17
     7a4:	0f 91       	pop	r16
     7a6:	ff 90       	pop	r15
     7a8:	ef 90       	pop	r14
     7aa:	df 90       	pop	r13
     7ac:	bf 90       	pop	r11
     7ae:	af 90       	pop	r10
     7b0:	9f 90       	pop	r9
     7b2:	8f 90       	pop	r8
     7b4:	7f 90       	pop	r7
     7b6:	6f 90       	pop	r6
     7b8:	08 95       	ret

000007ba <fat_closefile>:
     7ba:	80 91 37 01 	lds	r24, 0x0137
     7be:	88 23       	and	r24, r24
     7c0:	81 f0       	breq	.+32     	; 0x7e2 <fat_closefile+0x28>
     7c2:	81 30       	cpi	r24, 0x01	; 1
     7c4:	31 f4       	brne	.+12     	; 0x7d2 <fat_closefile+0x18>
     7c6:	e4 d5       	rcall	.+3016   	; 0x1390 <mmc_complete_read>
     7c8:	10 92 37 01 	sts	0x0137, r1
     7cc:	81 e0       	ldi	r24, 0x01	; 1
     7ce:	90 e0       	ldi	r25, 0x00	; 0
     7d0:	08 95       	ret
     7d2:	82 30       	cpi	r24, 0x02	; 2
     7d4:	31 f4       	brne	.+12     	; 0x7e2 <fat_closefile+0x28>
     7d6:	10 92 37 01 	sts	0x0137, r1
     7da:	67 de       	rcall	.-818    	; 0x4aa <fat_new_file>
     7dc:	80 e0       	ldi	r24, 0x00	; 0
     7de:	90 e0       	ldi	r25, 0x00	; 0
     7e0:	08 95       	ret
     7e2:	80 e0       	ldi	r24, 0x00	; 0
     7e4:	90 e0       	ldi	r25, 0x00	; 0
     7e6:	08 95       	ret

000007e8 <fat_delete_file>:
     7e8:	8f 92       	push	r8
     7ea:	9f 92       	push	r9
     7ec:	af 92       	push	r10
     7ee:	bf 92       	push	r11
     7f0:	df 92       	push	r13
     7f2:	ef 92       	push	r14
     7f4:	ff 92       	push	r15
     7f6:	0f 93       	push	r16
     7f8:	1f 93       	push	r17
     7fa:	cf 93       	push	r28
     7fc:	df 93       	push	r29
     7fe:	60 91 53 01 	lds	r22, 0x0153
     802:	70 91 54 01 	lds	r23, 0x0154
     806:	80 91 55 01 	lds	r24, 0x0155
     80a:	90 91 56 01 	lds	r25, 0x0156
     80e:	4e dc       	rcall	.-1892   	; 0xac <sector2cluster>
     810:	4c 01       	movw	r8, r24
     812:	81 e0       	ldi	r24, 0x01	; 1
     814:	80 93 38 01 	sts	0x0138, r24
     818:	aa 24       	eor	r10, r10
     81a:	bb 24       	eor	r11, r11
     81c:	65 c0       	rjmp	.+202    	; 0x8e8 <fat_delete_file+0x100>
     81e:	09 2d       	mov	r16, r9
     820:	11 27       	eor	r17, r17
     822:	80 91 80 01 	lds	r24, 0x0180
     826:	90 91 81 01 	lds	r25, 0x0181
     82a:	08 0f       	add	r16, r24
     82c:	19 1f       	adc	r17, r25
     82e:	2d 2d       	mov	r18, r13
     830:	33 27       	eor	r19, r19
     832:	80 91 43 01 	lds	r24, 0x0143
     836:	90 91 44 01 	lds	r25, 0x0144
     83a:	ac 01       	movw	r20, r24
     83c:	24 9f       	mul	r18, r20
     83e:	c0 01       	movw	r24, r0
     840:	25 9f       	mul	r18, r21
     842:	90 0d       	add	r25, r0
     844:	34 9f       	mul	r19, r20
     846:	90 0d       	add	r25, r0
     848:	11 24       	eor	r1, r1
     84a:	08 0f       	add	r16, r24
     84c:	19 1f       	adc	r17, r25
     84e:	f8 2c       	mov	r15, r8
     850:	b8 01       	movw	r22, r16
     852:	88 27       	eor	r24, r24
     854:	99 27       	eor	r25, r25
     856:	42 e8       	ldi	r20, 0x82	; 130
     858:	51 e0       	ldi	r21, 0x01	; 1
     85a:	95 d6       	rcall	.+3370   	; 0x1586 <mmc_read_sector>
     85c:	01 c0       	rjmp	.+2      	; 0x860 <fat_delete_file+0x78>
     85e:	fe 2c       	mov	r15, r14
     860:	ef 2d       	mov	r30, r15
     862:	ff 27       	eor	r31, r31
     864:	ee 0f       	add	r30, r30
     866:	ff 1f       	adc	r31, r31
     868:	df 01       	movw	r26, r30
     86a:	ae 57       	subi	r26, 0x7E	; 126
     86c:	be 4f       	sbci	r27, 0xFE	; 254
     86e:	8c 91       	ld	r24, X
     870:	e8 2e       	mov	r14, r24
     872:	ff 24       	eor	r15, r15
     874:	ed 57       	subi	r30, 0x7D	; 125
     876:	fe 4f       	sbci	r31, 0xFE	; 254
     878:	80 81       	ld	r24, Z
     87a:	99 27       	eor	r25, r25
     87c:	98 2f       	mov	r25, r24
     87e:	88 27       	eor	r24, r24
     880:	e8 2a       	or	r14, r24
     882:	f9 2a       	or	r15, r25
     884:	1c 92       	st	X, r1
     886:	10 82       	st	Z, r1
     888:	c7 01       	movw	r24, r14
     88a:	01 97       	sbiw	r24, 0x01	; 1
     88c:	8f 5e       	subi	r24, 0xEF	; 239
     88e:	9f 4f       	sbci	r25, 0xFF	; 255
     890:	10 f5       	brcc	.+68     	; 0x8d6 <fat_delete_file+0xee>
     892:	cf 2d       	mov	r28, r15
     894:	dd 27       	eor	r29, r29
     896:	80 91 80 01 	lds	r24, 0x0180
     89a:	90 91 81 01 	lds	r25, 0x0181
     89e:	c8 0f       	add	r28, r24
     8a0:	d9 1f       	adc	r29, r25
     8a2:	81 e0       	ldi	r24, 0x01	; 1
     8a4:	d8 16       	cp	r13, r24
     8a6:	31 f4       	brne	.+12     	; 0x8b4 <fat_delete_file+0xcc>
     8a8:	80 91 43 01 	lds	r24, 0x0143
     8ac:	90 91 44 01 	lds	r25, 0x0144
     8b0:	c8 0f       	add	r28, r24
     8b2:	d9 1f       	adc	r29, r25
     8b4:	c0 17       	cp	r28, r16
     8b6:	d1 07       	cpc	r29, r17
     8b8:	91 f2       	breq	.-92     	; 0x85e <fat_delete_file+0x76>
     8ba:	b8 01       	movw	r22, r16
     8bc:	88 27       	eor	r24, r24
     8be:	99 27       	eor	r25, r25
     8c0:	42 e8       	ldi	r20, 0x82	; 130
     8c2:	51 e0       	ldi	r21, 0x01	; 1
     8c4:	01 d6       	rcall	.+3074   	; 0x14c8 <mmc_write_sector>
     8c6:	be 01       	movw	r22, r28
     8c8:	88 27       	eor	r24, r24
     8ca:	99 27       	eor	r25, r25
     8cc:	42 e8       	ldi	r20, 0x82	; 130
     8ce:	51 e0       	ldi	r21, 0x01	; 1
     8d0:	5a d6       	rcall	.+3252   	; 0x1586 <mmc_read_sector>
     8d2:	8e 01       	movw	r16, r28
     8d4:	c4 cf       	rjmp	.-120    	; 0x85e <fat_delete_file+0x76>
     8d6:	b8 01       	movw	r22, r16
     8d8:	88 27       	eor	r24, r24
     8da:	99 27       	eor	r25, r25
     8dc:	42 e8       	ldi	r20, 0x82	; 130
     8de:	51 e0       	ldi	r21, 0x01	; 1
     8e0:	f3 d5       	rcall	.+3046   	; 0x14c8 <mmc_write_sector>
     8e2:	08 94       	sec
     8e4:	a1 1c       	adc	r10, r1
     8e6:	b1 1c       	adc	r11, r1
     8e8:	da 2c       	mov	r13, r10
     8ea:	80 91 7d 01 	lds	r24, 0x017D
     8ee:	a8 16       	cp	r10, r24
     8f0:	08 f4       	brcc	.+2      	; 0x8f4 <fat_delete_file+0x10c>
     8f2:	95 cf       	rjmp	.-214    	; 0x81e <fat_delete_file+0x36>
     8f4:	c0 91 57 01 	lds	r28, 0x0157
     8f8:	d0 91 58 01 	lds	r29, 0x0158
     8fc:	be 01       	movw	r22, r28
     8fe:	88 27       	eor	r24, r24
     900:	99 27       	eor	r25, r25
     902:	42 e8       	ldi	r20, 0x82	; 130
     904:	51 e0       	ldi	r21, 0x01	; 1
     906:	3f d6       	rcall	.+3198   	; 0x1586 <mmc_read_sector>
     908:	90 91 59 01 	lds	r25, 0x0159
     90c:	00 e0       	ldi	r16, 0x00	; 0
     90e:	10 e0       	ldi	r17, 0x00	; 0
     910:	1e c0       	rjmp	.+60     	; 0x94e <fat_delete_file+0x166>
     912:	90 31       	cpi	r25, 0x10	; 16
     914:	70 f0       	brcs	.+28     	; 0x932 <fat_delete_file+0x14a>
     916:	be 01       	movw	r22, r28
     918:	88 27       	eor	r24, r24
     91a:	99 27       	eor	r25, r25
     91c:	42 e8       	ldi	r20, 0x82	; 130
     91e:	51 e0       	ldi	r21, 0x01	; 1
     920:	d3 d5       	rcall	.+2982   	; 0x14c8 <mmc_write_sector>
     922:	21 96       	adiw	r28, 0x01	; 1
     924:	be 01       	movw	r22, r28
     926:	88 27       	eor	r24, r24
     928:	99 27       	eor	r25, r25
     92a:	42 e8       	ldi	r20, 0x82	; 130
     92c:	51 e0       	ldi	r21, 0x01	; 1
     92e:	2b d6       	rcall	.+3158   	; 0x1586 <mmc_read_sector>
     930:	90 e0       	ldi	r25, 0x00	; 0
     932:	e9 2f       	mov	r30, r25
     934:	ff 27       	eor	r31, r31
     936:	a5 e0       	ldi	r26, 0x05	; 5
     938:	ee 0f       	add	r30, r30
     93a:	ff 1f       	adc	r31, r31
     93c:	aa 95       	dec	r26
     93e:	e1 f7       	brne	.-8      	; 0x938 <fat_delete_file+0x150>
     940:	ee 57       	subi	r30, 0x7E	; 126
     942:	fe 4f       	sbci	r31, 0xFE	; 254
     944:	85 ee       	ldi	r24, 0xE5	; 229
     946:	80 83       	st	Z, r24
     948:	9f 5f       	subi	r25, 0xFF	; 255
     94a:	0f 5f       	subi	r16, 0xFF	; 255
     94c:	1f 4f       	sbci	r17, 0xFF	; 255
     94e:	80 91 5a 01 	lds	r24, 0x015A
     952:	08 17       	cp	r16, r24
     954:	f0 f2       	brcs	.-68     	; 0x912 <fat_delete_file+0x12a>
     956:	be 01       	movw	r22, r28
     958:	88 27       	eor	r24, r24
     95a:	99 27       	eor	r25, r25
     95c:	42 e8       	ldi	r20, 0x82	; 130
     95e:	51 e0       	ldi	r21, 0x01	; 1
     960:	b3 d5       	rcall	.+2918   	; 0x14c8 <mmc_write_sector>
     962:	10 92 38 01 	sts	0x0138, r1
     966:	df 91       	pop	r29
     968:	cf 91       	pop	r28
     96a:	1f 91       	pop	r17
     96c:	0f 91       	pop	r16
     96e:	ff 90       	pop	r15
     970:	ef 90       	pop	r14
     972:	df 90       	pop	r13
     974:	bf 90       	pop	r11
     976:	af 90       	pop	r10
     978:	9f 90       	pop	r9
     97a:	8f 90       	pop	r8
     97c:	08 95       	ret

0000097e <read_fileentry>:
     97e:	bf 92       	push	r11
     980:	cf 92       	push	r12
     982:	df 92       	push	r13
     984:	ef 92       	push	r14
     986:	ff 92       	push	r15
     988:	0f 93       	push	r16
     98a:	1f 93       	push	r17
     98c:	cf 93       	push	r28
     98e:	df 93       	push	r29
     990:	eb e5       	ldi	r30, 0x5B	; 91
     992:	f1 e0       	ldi	r31, 0x01	; 1
     994:	80 e2       	ldi	r24, 0x20	; 32
     996:	81 93       	st	Z+, r24
     998:	41 e0       	ldi	r20, 0x01	; 1
     99a:	eb 37       	cpi	r30, 0x7B	; 123
     99c:	f4 07       	cpc	r31, r20
     99e:	d9 f7       	brne	.-10     	; 0x996 <read_fileentry+0x18>
     9a0:	10 92 58 01 	sts	0x0158, r1
     9a4:	10 92 57 01 	sts	0x0157, r1
     9a8:	cc 24       	eor	r12, r12
     9aa:	bb 24       	eor	r11, r11
     9ac:	e0 90 8e 04 	lds	r14, 0x048E
     9b0:	f0 90 8f 04 	lds	r15, 0x048F
     9b4:	00 91 90 04 	lds	r16, 0x0490
     9b8:	10 91 91 04 	lds	r17, 0x0491
     9bc:	c0 91 3f 01 	lds	r28, 0x013F
     9c0:	d0 91 40 01 	lds	r29, 0x0140
     9c4:	60 e2       	ldi	r22, 0x20	; 32
     9c6:	70 e0       	ldi	r23, 0x00	; 0
     9c8:	82 e8       	ldi	r24, 0x82	; 130
     9ca:	91 e0       	ldi	r25, 0x01	; 1
     9cc:	97 d6       	rcall	.+3374   	; 0x16fc <mmc_read_block>
     9ce:	80 91 4c 01 	lds	r24, 0x014C
     9d2:	90 91 4d 01 	lds	r25, 0x014D
     9d6:	aa 27       	eor	r26, r26
     9d8:	bb 27       	eor	r27, r27
     9da:	20 91 8e 04 	lds	r18, 0x048E
     9de:	30 91 8f 04 	lds	r19, 0x048F
     9e2:	40 91 90 04 	lds	r20, 0x0490
     9e6:	50 91 91 04 	lds	r21, 0x0491
     9ea:	28 17       	cp	r18, r24
     9ec:	39 07       	cpc	r19, r25
     9ee:	4a 07       	cpc	r20, r26
     9f0:	5b 07       	cpc	r21, r27
     9f2:	08 f0       	brcs	.+2      	; 0x9f6 <read_fileentry+0x78>
     9f4:	d6 c0       	rjmp	.+428    	; 0xba2 <read_fileentry+0x224>
     9f6:	9e 01       	movw	r18, r28
     9f8:	65 e0       	ldi	r22, 0x05	; 5
     9fa:	36 95       	lsr	r19
     9fc:	27 95       	ror	r18
     9fe:	6a 95       	dec	r22
     a00:	e1 f7       	brne	.-8      	; 0x9fa <read_fileentry+0x7c>
     a02:	40 91 82 01 	lds	r20, 0x0182
     a06:	44 23       	and	r20, r20
     a08:	69 f4       	brne	.+26     	; 0xa24 <read_fileentry+0xa6>
     a0a:	80 91 34 01 	lds	r24, 0x0134
     a0e:	90 91 35 01 	lds	r25, 0x0135
     a12:	89 2b       	or	r24, r25
     a14:	59 f6       	brne	.-106    	; 0x9ac <read_fileentry+0x2e>
     a16:	f0 92 35 01 	sts	0x0135, r15
     a1a:	e0 92 34 01 	sts	0x0134, r14
     a1e:	20 93 4b 01 	sts	0x014B, r18
     a22:	c4 cf       	rjmp	.-120    	; 0x9ac <read_fileentry+0x2e>
     a24:	45 3e       	cpi	r20, 0xE5	; 229
     a26:	11 f2       	breq	.-124    	; 0x9ac <read_fileentry+0x2e>
     a28:	d0 90 8d 01 	lds	r13, 0x018D
     a2c:	58 e0       	ldi	r21, 0x08	; 8
     a2e:	d5 16       	cp	r13, r21
     a30:	09 f4       	brne	.+2      	; 0xa34 <read_fileentry+0xb6>
     a32:	bc cf       	rjmp	.-136    	; 0x9ac <read_fileentry+0x2e>
     a34:	8f e0       	ldi	r24, 0x0F	; 15
     a36:	d8 16       	cp	r13, r24
     a38:	09 f0       	breq	.+2      	; 0xa3c <read_fileentry+0xbe>
     a3a:	3f c0       	rjmp	.+126    	; 0xaba <read_fileentry+0x13c>
     a3c:	80 91 57 01 	lds	r24, 0x0157
     a40:	90 91 58 01 	lds	r25, 0x0158
     a44:	89 2b       	or	r24, r25
     a46:	31 f4       	brne	.+12     	; 0xa54 <read_fileentry+0xd6>
     a48:	f0 92 58 01 	sts	0x0158, r15
     a4c:	e0 92 57 01 	sts	0x0157, r14
     a50:	20 93 59 01 	sts	0x0159, r18
     a54:	84 2f       	mov	r24, r20
     a56:	99 27       	eor	r25, r25
     a58:	8f 73       	andi	r24, 0x3F	; 63
     a5a:	90 70       	andi	r25, 0x00	; 0
     a5c:	2d e0       	ldi	r18, 0x0D	; 13
     a5e:	30 e0       	ldi	r19, 0x00	; 0
     a60:	ac 01       	movw	r20, r24
     a62:	42 9f       	mul	r20, r18
     a64:	c0 01       	movw	r24, r0
     a66:	43 9f       	mul	r20, r19
     a68:	90 0d       	add	r25, r0
     a6a:	52 9f       	mul	r21, r18
     a6c:	90 0d       	add	r25, r0
     a6e:	11 24       	eor	r1, r1
     a70:	98 2f       	mov	r25, r24
     a72:	9d 50       	subi	r25, 0x0D	; 13
     a74:	40 e0       	ldi	r20, 0x00	; 0
     a76:	21 e0       	ldi	r18, 0x01	; 1
     a78:	e2 2f       	mov	r30, r18
     a7a:	ff 27       	eor	r31, r31
     a7c:	ee 57       	subi	r30, 0x7E	; 126
     a7e:	fe 4f       	sbci	r31, 0xFE	; 254
     a80:	30 81       	ld	r19, Z
     a82:	83 2f       	mov	r24, r19
     a84:	81 50       	subi	r24, 0x01	; 1
     a86:	8e 3f       	cpi	r24, 0xFE	; 254
     a88:	a0 f4       	brcc	.+40     	; 0xab2 <read_fileentry+0x134>
     a8a:	90 32       	cpi	r25, 0x20	; 32
     a8c:	90 f4       	brcc	.+36     	; 0xab2 <read_fileentry+0x134>
     a8e:	e9 2f       	mov	r30, r25
     a90:	ff 27       	eor	r31, r31
     a92:	e1 5b       	subi	r30, 0xB1	; 177
     a94:	fe 4f       	sbci	r31, 0xFE	; 254
     a96:	34 87       	std	Z+12, r19	; 0x0c
     a98:	2e 5f       	subi	r18, 0xFE	; 254
     a9a:	2b 30       	cpi	r18, 0x0B	; 11
     a9c:	11 f4       	brne	.+4      	; 0xaa2 <read_fileentry+0x124>
     a9e:	2e e0       	ldi	r18, 0x0E	; 14
     aa0:	03 c0       	rjmp	.+6      	; 0xaa8 <read_fileentry+0x12a>
     aa2:	2a 31       	cpi	r18, 0x1A	; 26
     aa4:	09 f4       	brne	.+2      	; 0xaa8 <read_fileentry+0x12a>
     aa6:	2c e1       	ldi	r18, 0x1C	; 28
     aa8:	4f 5f       	subi	r20, 0xFF	; 255
     aaa:	4d 30       	cpi	r20, 0x0D	; 13
     aac:	11 f0       	breq	.+4      	; 0xab2 <read_fileentry+0x134>
     aae:	9f 5f       	subi	r25, 0xFF	; 255
     ab0:	e3 cf       	rjmp	.-58     	; 0xa78 <read_fileentry+0xfa>
     ab2:	b3 94       	inc	r11
     ab4:	51 e0       	ldi	r21, 0x01	; 1
     ab6:	c5 2e       	mov	r12, r21
     ab8:	79 cf       	rjmp	.-270    	; 0x9ac <read_fileentry+0x2e>
     aba:	b3 94       	inc	r11
     abc:	b0 92 5a 01 	sts	0x015A, r11
     ac0:	cc 20       	and	r12, r12
     ac2:	09 f0       	breq	.+2      	; 0xac6 <read_fileentry+0x148>
     ac4:	4c c0       	rjmp	.+152    	; 0xb5e <read_fileentry+0x1e0>
     ac6:	f0 92 58 01 	sts	0x0158, r15
     aca:	e0 92 57 01 	sts	0x0157, r14
     ace:	20 93 59 01 	sts	0x0159, r18
     ad2:	e2 e8       	ldi	r30, 0x82	; 130
     ad4:	f1 e0       	ldi	r31, 0x01	; 1
     ad6:	ab e5       	ldi	r26, 0x5B	; 91
     ad8:	b1 e0       	ldi	r27, 0x01	; 1
     ada:	81 91       	ld	r24, Z+
     adc:	8d 93       	st	X+, r24
     ade:	51 e0       	ldi	r21, 0x01	; 1
     ae0:	ea 38       	cpi	r30, 0x8A	; 138
     ae2:	f5 07       	cpc	r31, r21
     ae4:	d1 f7       	brne	.-12     	; 0xada <read_fileentry+0x15c>
     ae6:	8e e2       	ldi	r24, 0x2E	; 46
     ae8:	80 93 63 01 	sts	0x0163, r24
     aec:	80 91 8a 01 	lds	r24, 0x018A
     af0:	80 93 64 01 	sts	0x0164, r24
     af4:	80 91 8b 01 	lds	r24, 0x018B
     af8:	80 93 65 01 	sts	0x0165, r24
     afc:	80 91 8c 01 	lds	r24, 0x018C
     b00:	80 93 66 01 	sts	0x0166, r24
     b04:	80 91 5b 01 	lds	r24, 0x015B
     b08:	8d 34       	cpi	r24, 0x4D	; 77
     b0a:	49 f5       	brne	.+82     	; 0xb5e <read_fileentry+0x1e0>
     b0c:	80 91 5c 01 	lds	r24, 0x015C
     b10:	84 34       	cpi	r24, 0x44	; 68
     b12:	29 f5       	brne	.+74     	; 0xb5e <read_fileentry+0x1e0>
     b14:	30 91 5d 01 	lds	r19, 0x015D
     b18:	30 33       	cpi	r19, 0x30	; 48
     b1a:	08 f1       	brcs	.+66     	; 0xb5e <read_fileentry+0x1e0>
     b1c:	33 33       	cpi	r19, 0x33	; 51
     b1e:	f8 f4       	brcc	.+62     	; 0xb5e <read_fileentry+0x1e0>
     b20:	90 91 5e 01 	lds	r25, 0x015E
     b24:	90 33       	cpi	r25, 0x30	; 48
     b26:	d8 f0       	brcs	.+54     	; 0xb5e <read_fileentry+0x1e0>
     b28:	9a 33       	cpi	r25, 0x3A	; 58
     b2a:	c8 f4       	brcc	.+50     	; 0xb5e <read_fileentry+0x1e0>
     b2c:	40 91 5f 01 	lds	r20, 0x015F
     b30:	40 33       	cpi	r20, 0x30	; 48
     b32:	a8 f0       	brcs	.+42     	; 0xb5e <read_fileentry+0x1e0>
     b34:	4a 33       	cpi	r20, 0x3A	; 58
     b36:	98 f4       	brcc	.+38     	; 0xb5e <read_fileentry+0x1e0>
     b38:	8a e0       	ldi	r24, 0x0A	; 10
     b3a:	98 9f       	mul	r25, r24
     b3c:	c0 01       	movw	r24, r0
     b3e:	11 24       	eor	r1, r1
     b40:	24 e6       	ldi	r18, 0x64	; 100
     b42:	32 9f       	mul	r19, r18
     b44:	90 01       	movw	r18, r0
     b46:	11 24       	eor	r1, r1
     b48:	42 0f       	add	r20, r18
     b4a:	48 0f       	add	r20, r24
     b4c:	40 5d       	subi	r20, 0xD0	; 208
     b4e:	24 2f       	mov	r18, r20
     b50:	33 27       	eor	r19, r19
     b52:	80 91 36 01 	lds	r24, 0x0136
     b56:	82 17       	cp	r24, r18
     b58:	10 f4       	brcc	.+4      	; 0xb5e <read_fileentry+0x1e0>
     b5a:	20 93 36 01 	sts	0x0136, r18
     b5e:	80 91 9e 01 	lds	r24, 0x019E
     b62:	90 91 9f 01 	lds	r25, 0x019F
     b66:	a0 91 a0 01 	lds	r26, 0x01A0
     b6a:	b0 91 a1 01 	lds	r27, 0x01A1
     b6e:	80 93 4f 01 	sts	0x014F, r24
     b72:	90 93 50 01 	sts	0x0150, r25
     b76:	a0 93 51 01 	sts	0x0151, r26
     b7a:	b0 93 52 01 	sts	0x0152, r27
     b7e:	80 91 9c 01 	lds	r24, 0x019C
     b82:	90 91 9d 01 	lds	r25, 0x019D
     b86:	e7 da       	rcall	.-2610   	; 0x156 <cluster2sector>
     b88:	60 93 53 01 	sts	0x0153, r22
     b8c:	70 93 54 01 	sts	0x0154, r23
     b90:	80 93 55 01 	sts	0x0155, r24
     b94:	90 93 56 01 	sts	0x0156, r25
     b98:	d4 fc       	sbrc	r13, 4
     b9a:	02 cf       	rjmp	.-508    	; 0x9a0 <read_fileentry+0x22>
     b9c:	81 e0       	ldi	r24, 0x01	; 1
     b9e:	90 e0       	ldi	r25, 0x00	; 0
     ba0:	02 c0       	rjmp	.+4      	; 0xba6 <read_fileentry+0x228>
     ba2:	80 e0       	ldi	r24, 0x00	; 0
     ba4:	90 e0       	ldi	r25, 0x00	; 0
     ba6:	df 91       	pop	r29
     ba8:	cf 91       	pop	r28
     baa:	1f 91       	pop	r17
     bac:	0f 91       	pop	r16
     bae:	ff 90       	pop	r15
     bb0:	ef 90       	pop	r14
     bb2:	df 90       	pop	r13
     bb4:	cf 90       	pop	r12
     bb6:	bf 90       	pop	r11
     bb8:	08 95       	ret

00000bba <fat_count_files>:
     bba:	81 e0       	ldi	r24, 0x01	; 1
     bbc:	80 93 38 01 	sts	0x0138, r24
     bc0:	60 91 7e 01 	lds	r22, 0x017E
     bc4:	70 91 7f 01 	lds	r23, 0x017F
     bc8:	88 27       	eor	r24, r24
     bca:	99 27       	eor	r25, r25
     bcc:	c9 d4       	rcall	.+2450   	; 0x1560 <mmc_load_start>
     bce:	10 92 3e 01 	sts	0x013E, r1
     bd2:	10 92 3d 01 	sts	0x013D, r1
     bd6:	09 c0       	rjmp	.+18     	; 0xbea <fat_count_files+0x30>
     bd8:	80 91 3d 01 	lds	r24, 0x013D
     bdc:	90 91 3e 01 	lds	r25, 0x013E
     be0:	01 96       	adiw	r24, 0x01	; 1
     be2:	90 93 3e 01 	sts	0x013E, r25
     be6:	80 93 3d 01 	sts	0x013D, r24
     bea:	c9 de       	rcall	.-622    	; 0x97e <read_fileentry>
     bec:	88 23       	and	r24, r24
     bee:	a1 f7       	brne	.-24     	; 0xbd8 <fat_count_files+0x1e>
     bf0:	cf d3       	rcall	.+1950   	; 0x1390 <mmc_complete_read>
     bf2:	10 92 38 01 	sts	0x0138, r1
     bf6:	08 95       	ret

00000bf8 <fat_read_filedata>:
     bf8:	1f 93       	push	r17
     bfa:	18 2f       	mov	r17, r24
     bfc:	28 2f       	mov	r18, r24
     bfe:	33 27       	eor	r19, r19
     c00:	80 91 3d 01 	lds	r24, 0x013D
     c04:	90 91 3e 01 	lds	r25, 0x013E
     c08:	28 17       	cp	r18, r24
     c0a:	39 07       	cpc	r19, r25
     c0c:	68 f4       	brcc	.+26     	; 0xc28 <fat_read_filedata+0x30>
     c0e:	81 e0       	ldi	r24, 0x01	; 1
     c10:	80 93 38 01 	sts	0x0138, r24
     c14:	60 91 7e 01 	lds	r22, 0x017E
     c18:	70 91 7f 01 	lds	r23, 0x017F
     c1c:	88 27       	eor	r24, r24
     c1e:	99 27       	eor	r25, r25
     c20:	9f d4       	rcall	.+2366   	; 0x1560 <mmc_load_start>
     c22:	05 c0       	rjmp	.+10     	; 0xc2e <fat_read_filedata+0x36>
     c24:	10 92 38 01 	sts	0x0138, r1
     c28:	80 e0       	ldi	r24, 0x00	; 0
     c2a:	90 e0       	ldi	r25, 0x00	; 0
     c2c:	0a c0       	rjmp	.+20     	; 0xc42 <fat_read_filedata+0x4a>
     c2e:	a7 de       	rcall	.-690    	; 0x97e <read_fileentry>
     c30:	88 23       	and	r24, r24
     c32:	c1 f3       	breq	.-16     	; 0xc24 <fat_read_filedata+0x2c>
     c34:	11 50       	subi	r17, 0x01	; 1
     c36:	d8 f7       	brcc	.-10     	; 0xc2e <fat_read_filedata+0x36>
     c38:	ab d3       	rcall	.+1878   	; 0x1390 <mmc_complete_read>
     c3a:	10 92 38 01 	sts	0x0138, r1
     c3e:	81 e0       	ldi	r24, 0x01	; 1
     c40:	90 e0       	ldi	r25, 0x00	; 0
     c42:	1f 91       	pop	r17
     c44:	08 95       	ret

00000c46 <fat_openfile>:
     c46:	1f 93       	push	r17
     c48:	18 2f       	mov	r17, r24
     c4a:	80 91 37 01 	lds	r24, 0x0137
     c4e:	88 23       	and	r24, r24
     c50:	c9 f5       	brne	.+114    	; 0xcc4 <fat_openfile+0x7e>
     c52:	11 30       	cpi	r17, 0x01	; 1
     c54:	d9 f4       	brne	.+54     	; 0xc8c <fat_openfile+0x46>
     c56:	26 2f       	mov	r18, r22
     c58:	33 27       	eor	r19, r19
     c5a:	80 91 3d 01 	lds	r24, 0x013D
     c5e:	90 91 3e 01 	lds	r25, 0x013E
     c62:	28 17       	cp	r18, r24
     c64:	39 07       	cpc	r19, r25
     c66:	70 f5       	brcc	.+92     	; 0xcc4 <fat_openfile+0x7e>
     c68:	86 2f       	mov	r24, r22
     c6a:	c6 df       	rcall	.-116    	; 0xbf8 <fat_read_filedata>
     c6c:	88 23       	and	r24, r24
     c6e:	51 f1       	breq	.+84     	; 0xcc4 <fat_openfile+0x7e>
     c70:	60 91 53 01 	lds	r22, 0x0153
     c74:	70 91 54 01 	lds	r23, 0x0154
     c78:	80 91 55 01 	lds	r24, 0x0155
     c7c:	90 91 56 01 	lds	r25, 0x0156
     c80:	6f d4       	rcall	.+2270   	; 0x1560 <mmc_load_start>
     c82:	10 93 37 01 	sts	0x0137, r17
     c86:	81 e0       	ldi	r24, 0x01	; 1
     c88:	90 e0       	ldi	r25, 0x00	; 0
     c8a:	1e c0       	rjmp	.+60     	; 0xcc8 <fat_openfile+0x82>
     c8c:	12 30       	cpi	r17, 0x02	; 2
     c8e:	d1 f4       	brne	.+52     	; 0xcc4 <fat_openfile+0x7e>
     c90:	10 93 37 01 	sts	0x0137, r17
     c94:	81 e0       	ldi	r24, 0x01	; 1
     c96:	90 e0       	ldi	r25, 0x00	; 0
     c98:	90 93 7c 01 	sts	0x017C, r25
     c9c:	80 93 7b 01 	sts	0x017B, r24
     ca0:	10 92 48 01 	sts	0x0148, r1
     ca4:	10 92 47 01 	sts	0x0147, r1
     ca8:	10 92 4a 01 	sts	0x014A, r1
     cac:	10 92 49 01 	sts	0x0149, r1
     cb0:	95 da       	rcall	.-2774   	; 0x1dc <find_free_cluster>
     cb2:	51 da       	rcall	.-2910   	; 0x156 <cluster2sector>
     cb4:	60 93 53 01 	sts	0x0153, r22
     cb8:	70 93 54 01 	sts	0x0154, r23
     cbc:	80 93 55 01 	sts	0x0155, r24
     cc0:	90 93 56 01 	sts	0x0156, r25
     cc4:	80 e0       	ldi	r24, 0x00	; 0
     cc6:	90 e0       	ldi	r25, 0x00	; 0
     cc8:	1f 91       	pop	r17
     cca:	08 95       	ret

00000ccc <str_ncomp>:
	mmc_write_byte(d+'0');
}


static s08 str_ncomp(u08 *buf, u08 *buf2, u08 len) {
     ccc:	20 e0       	ldi	r18, 0x00	; 0
     cce:	14 c0       	rjmp	.+40     	; 0xcf8 <str_ncomp+0x2c>
	u08 cnt=0;

	for (cnt=0; cnt<len; cnt++) {
		if (buf[cnt] < buf2[cnt])
     cd0:	e2 2f       	mov	r30, r18
     cd2:	ff 27       	eor	r31, r31
     cd4:	dc 01       	movw	r26, r24
     cd6:	ae 0f       	add	r26, r30
     cd8:	bf 1f       	adc	r27, r31
     cda:	ac 91       	ld	r26, X
     cdc:	e6 0f       	add	r30, r22
     cde:	f7 1f       	adc	r31, r23
     ce0:	e0 81       	ld	r30, Z
     ce2:	ae 17       	cp	r26, r30
     ce4:	18 f4       	brcc	.+6      	; 0xcec <str_ncomp+0x20>
     ce6:	81 e0       	ldi	r24, 0x01	; 1
     ce8:	90 e0       	ldi	r25, 0x00	; 0
     cea:	08 95       	ret
			return 1;
		else if (buf[cnt] > buf2[cnt])
     cec:	ea 17       	cp	r30, r26
     cee:	18 f4       	brcc	.+6      	; 0xcf6 <str_ncomp+0x2a>
     cf0:	8f ef       	ldi	r24, 0xFF	; 255
     cf2:	9f ef       	ldi	r25, 0xFF	; 255
     cf4:	08 95       	ret
     cf6:	2f 5f       	subi	r18, 0xFF	; 255
     cf8:	24 17       	cp	r18, r20
     cfa:	51 f7       	brne	.-44     	; 0xcd0 <str_ncomp+0x4>
     cfc:	80 e0       	ldi	r24, 0x00	; 0
     cfe:	90 e0       	ldi	r25, 0x00	; 0
			return -1;
	}
	return 0;
}
     d00:	08 95       	ret

00000d02 <__vector_11>:


// Read string from MMC and verify content
static u08 eat_string(u08 *buf, u08 len) {
	u08 b, cnt=0;

	for (cnt=0; cnt<len; cnt++) {
		do {
			b = mmc_fetch_byte();
		} while (b == 13 || b == 10);
		if (b != (u08)buf[cnt])
			return 0;
	}
	return 1;
}


static u16 eat_number_u16(void) {
	u08 b;
	u16 erg=0;

	while (1) {
		b = mmc_fetch_byte();
		if (b>='0' && b<='9') {
			erg *= 10;
			erg += b-'0';
		}
		else
			return erg;
	}
}


//----------------------------------------------------------
// Main

void main(void) {
	u08 i;
	u16 overflow=781/*2*/, k;
	u08 prescaler=8+5;

	hw_init();
	PORT_LED |= PIN_LED;
	delay_ms(100);
	PORT_LED &= ~PIN_LED;
	if (!fat_init()) {
		error();
	}
	else {
		fat_count_files();
		if (file_cnt) {
			for (k=0; k<file_cnt; k++) {
				fat_read_filedata(k);
				if (str_ncomp(fat_filedata.name, "SETTINGS.TXT", 12) == 0 || str_ncomp(fat_filedata.name, "settings.txt", 12) == 0) {
					//mmc_read_sector(fat_filedata.startsect, sharedmem);
					fat_openfile(FILEMODE_READ, k);
					if (eat_string("ch=", 3)) {
						channels = eat_number_u16();
						if (channels == 0)
							channels = 1;
						else if (channels > 6)
							channels = 6;
					}
					if (eat_string("overflow=", 9)) {
						overflow = eat_number_u16();
					}
					if (eat_string("prescaler=", 10)) {
						prescaler = eat_number_u16();
						if (prescaler == 0)
							prescaler = 8+1;
					}
					fat_closefile();
				}
			}
		}
	}
	PORT_LED |= PIN_LED;

	while (1) {
		switch (state) {
			case STOP:
				if ((u08)(~KEY_PORT) & KEY_MASK) {
					delay_ms(100);
					state = REC;
					PORT_LED &= ~PIN_LED;
					while ((u08)(~KEY_PORT) & KEY_MASK);
				}
				break;

			case REC:
				// Rekorder-Task
				fat_openfile(FILEMODE_WRITE, file_cnt);
				if (fat_cardfull) {
					state = STOP;
					PORT_LED |= PIN_LED;
				}
				mmc_write_start(fat_filedata.startsect);
				file_len = 0;
			
				u08 tx_rdp=0;
				tx_wrp=0;
				//start_time((u32)(interval*F_CPU));
				time = 0;
				OCR1A = overflow;
				TCNT1 = overflow-1;
				TCCR1B = prescaler;

				while (1) {
					if (sample == channels) {
						PORT_LED &= ~PIN_LED;
						while (tx_rdp != tx_wrp) {
							write_number_u32(time);
							for (i=0; i<channels; i++) {
								mmc_write_byte(9);
								write_number_u32(tx_buf[tx_rdp]+256*tx_buf[tx_rdp+1]);
								tx_rdp+=2;
							}
							mmc_write_byte(0x0d);
							mmc_write_byte(0x0a);
						}
						sample = 0;
					}
					if (((u08)(~KEY_PORT) & KEY_MASK) || fat_cardfull) {
						stop_time();
						PORT_LED |= PIN_LED;
						delay_ms(100);
						state = STOP;
						while ((u08)(~KEY_PORT) & KEY_MASK);
						break;
					}
				}
				
				fat_filedata.len = file_len;
				mmc_complete_write();
				fat_closefile();
				file_cnt++;

				break;
		}
	}
}


//----------------------------------------------------------
// IRQ

ISR(SIG_OUTPUT_COMPARE1A) {
     d02:	1f 92       	push	r1
     d04:	0f 92       	push	r0
     d06:	0f b6       	in	r0, 0x3f	; 63
     d08:	0f 92       	push	r0
     d0a:	11 24       	eor	r1, r1
     d0c:	8f 93       	push	r24
     d0e:	9f 93       	push	r25
     d10:	af 93       	push	r26
     d12:	bf 93       	push	r27
	sample = 0;
     d14:	10 92 3c 01 	sts	0x013C, r1
	PORT_LED |= PIN_LED;
     d18:	28 9a       	sbi	0x05, 0	; 5
	// ADC start
	ADMUX = 0x40+0;
     d1a:	80 e4       	ldi	r24, 0x40	; 64
     d1c:	80 93 7c 00 	sts	0x007C, r24
	ADCSRA = 0xc8+6;
     d20:	8e ec       	ldi	r24, 0xCE	; 206
     d22:	80 93 7a 00 	sts	0x007A, r24
	time++;
     d26:	80 91 82 03 	lds	r24, 0x0382
     d2a:	90 91 83 03 	lds	r25, 0x0383
     d2e:	a0 91 84 03 	lds	r26, 0x0384
     d32:	b0 91 85 03 	lds	r27, 0x0385
     d36:	01 96       	adiw	r24, 0x01	; 1
     d38:	a1 1d       	adc	r26, r1
     d3a:	b1 1d       	adc	r27, r1
     d3c:	80 93 82 03 	sts	0x0382, r24
     d40:	90 93 83 03 	sts	0x0383, r25
     d44:	a0 93 84 03 	sts	0x0384, r26
     d48:	b0 93 85 03 	sts	0x0385, r27
     d4c:	bf 91       	pop	r27
     d4e:	af 91       	pop	r26
     d50:	9f 91       	pop	r25
     d52:	8f 91       	pop	r24
     d54:	0f 90       	pop	r0
     d56:	0f be       	out	0x3f, r0	; 63
     d58:	0f 90       	pop	r0
     d5a:	1f 90       	pop	r1
     d5c:	18 95       	reti

00000d5e <__vector_21>:
}

//volatile u16 adcval;

ISR(SIG_ADC) {
     d5e:	1f 92       	push	r1
     d60:	0f 92       	push	r0
     d62:	0f b6       	in	r0, 0x3f	; 63
     d64:	0f 92       	push	r0
     d66:	11 24       	eor	r1, r1
     d68:	8f 93       	push	r24
     d6a:	9f 93       	push	r25
     d6c:	ef 93       	push	r30
     d6e:	ff 93       	push	r31
//	adcval = ADC;
	tx_buf[tx_wrp++] = ADCL;
     d70:	80 91 3a 01 	lds	r24, 0x013A
     d74:	90 91 78 00 	lds	r25, 0x0078
     d78:	e8 2f       	mov	r30, r24
     d7a:	ff 27       	eor	r31, r31
     d7c:	ea 57       	subi	r30, 0x7A	; 122
     d7e:	fc 4f       	sbci	r31, 0xFC	; 252
     d80:	90 83       	st	Z, r25
     d82:	8f 5f       	subi	r24, 0xFF	; 255
	tx_buf[tx_wrp++] = ADCH;
     d84:	90 91 79 00 	lds	r25, 0x0079
     d88:	e8 2f       	mov	r30, r24
     d8a:	ff 27       	eor	r31, r31
     d8c:	ea 57       	subi	r30, 0x7A	; 122
     d8e:	fc 4f       	sbci	r31, 0xFC	; 252
     d90:	90 83       	st	Z, r25
     d92:	8f 5f       	subi	r24, 0xFF	; 255
     d94:	80 93 3a 01 	sts	0x013A, r24
	sample++;
     d98:	80 91 3c 01 	lds	r24, 0x013C
     d9c:	8f 5f       	subi	r24, 0xFF	; 255
     d9e:	80 93 3c 01 	sts	0x013C, r24
	if (sample < channels) {
     da2:	90 91 33 01 	lds	r25, 0x0133
     da6:	89 17       	cp	r24, r25
     da8:	40 f4       	brcc	.+16     	; 0xdba <__vector_21+0x5c>
		ADMUX++;
     daa:	80 91 7c 00 	lds	r24, 0x007C
     dae:	8f 5f       	subi	r24, 0xFF	; 255
     db0:	80 93 7c 00 	sts	0x007C, r24
		ADCSRA = 0xc8+6;
     db4:	8e ec       	ldi	r24, 0xCE	; 206
     db6:	80 93 7a 00 	sts	0x007A, r24
     dba:	ff 91       	pop	r31
     dbc:	ef 91       	pop	r30
     dbe:	9f 91       	pop	r25
     dc0:	8f 91       	pop	r24
     dc2:	0f 90       	pop	r0
     dc4:	0f be       	out	0x3f, r0	; 63
     dc6:	0f 90       	pop	r0
     dc8:	1f 90       	pop	r1
     dca:	18 95       	reti

00000dcc <error>:
     dcc:	28 98       	cbi	0x05, 0	; 5
     dce:	84 e6       	ldi	r24, 0x64	; 100
     dd0:	90 e0       	ldi	r25, 0x00	; 0
     dd2:	5d d9       	rcall	.-3398   	; 0x8e <delay_ms>
     dd4:	28 9a       	sbi	0x05, 0	; 5
     dd6:	84 e6       	ldi	r24, 0x64	; 100
     dd8:	90 e0       	ldi	r25, 0x00	; 0
     dda:	59 d9       	rcall	.-3406   	; 0x8e <delay_ms>
     ddc:	f7 cf       	rjmp	.-18     	; 0xdcc <error>

00000dde <write_number_u32>:
     dde:	7f 92       	push	r7
     de0:	8f 92       	push	r8
     de2:	9f 92       	push	r9
     de4:	af 92       	push	r10
     de6:	bf 92       	push	r11
     de8:	cf 92       	push	r12
     dea:	df 92       	push	r13
     dec:	ef 92       	push	r14
     dee:	ff 92       	push	r15
     df0:	0f 93       	push	r16
     df2:	1f 93       	push	r17
     df4:	cf 93       	push	r28
     df6:	df 93       	push	r29
     df8:	cd b7       	in	r28, 0x3d	; 61
     dfa:	de b7       	in	r29, 0x3e	; 62
     dfc:	21 97       	sbiw	r28, 0x01	; 1
     dfe:	0f b6       	in	r0, 0x3f	; 63
     e00:	f8 94       	cli
     e02:	de bf       	out	0x3e, r29	; 62
     e04:	0f be       	out	0x3f, r0	; 63
     e06:	cd bf       	out	0x3d, r28	; 61
     e08:	7b 01       	movw	r14, r22
     e0a:	8c 01       	movw	r16, r24
     e0c:	80 e0       	ldi	r24, 0x00	; 0
     e0e:	09 c0       	rjmp	.+18     	; 0xe22 <write_number_u32+0x44>
     e10:	20 e0       	ldi	r18, 0x00	; 0
     e12:	36 e3       	ldi	r19, 0x36	; 54
     e14:	45 e6       	ldi	r20, 0x65	; 101
     e16:	54 ec       	ldi	r21, 0xC4	; 196
     e18:	e2 0e       	add	r14, r18
     e1a:	f3 1e       	adc	r15, r19
     e1c:	04 1f       	adc	r16, r20
     e1e:	15 1f       	adc	r17, r21
     e20:	8f 5f       	subi	r24, 0xFF	; 255
     e22:	30 e0       	ldi	r19, 0x00	; 0
     e24:	e3 16       	cp	r14, r19
     e26:	3a ec       	ldi	r19, 0xCA	; 202
     e28:	f3 06       	cpc	r15, r19
     e2a:	3a e9       	ldi	r19, 0x9A	; 154
     e2c:	03 07       	cpc	r16, r19
     e2e:	3b e3       	ldi	r19, 0x3B	; 59
     e30:	13 07       	cpc	r17, r19
     e32:	70 f7       	brcc	.-36     	; 0xe10 <write_number_u32+0x32>
     e34:	90 e0       	ldi	r25, 0x00	; 0
     e36:	09 c0       	rjmp	.+18     	; 0xe4a <write_number_u32+0x6c>
     e38:	20 e0       	ldi	r18, 0x00	; 0
     e3a:	3f e1       	ldi	r19, 0x1F	; 31
     e3c:	4a e0       	ldi	r20, 0x0A	; 10
     e3e:	5a ef       	ldi	r21, 0xFA	; 250
     e40:	e2 0e       	add	r14, r18
     e42:	f3 1e       	adc	r15, r19
     e44:	04 1f       	adc	r16, r20
     e46:	15 1f       	adc	r17, r21
     e48:	9f 5f       	subi	r25, 0xFF	; 255
     e4a:	30 e0       	ldi	r19, 0x00	; 0
     e4c:	e3 16       	cp	r14, r19
     e4e:	31 ee       	ldi	r19, 0xE1	; 225
     e50:	f3 06       	cpc	r15, r19
     e52:	35 ef       	ldi	r19, 0xF5	; 245
     e54:	03 07       	cpc	r16, r19
     e56:	35 e0       	ldi	r19, 0x05	; 5
     e58:	13 07       	cpc	r17, r19
     e5a:	70 f7       	brcc	.-36     	; 0xe38 <write_number_u32+0x5a>
     e5c:	dd 24       	eor	r13, r13
     e5e:	09 c0       	rjmp	.+18     	; 0xe72 <write_number_u32+0x94>
     e60:	20 e8       	ldi	r18, 0x80	; 128
     e62:	39 e6       	ldi	r19, 0x69	; 105
     e64:	47 e6       	ldi	r20, 0x67	; 103
     e66:	5f ef       	ldi	r21, 0xFF	; 255
     e68:	e2 0e       	add	r14, r18
     e6a:	f3 1e       	adc	r15, r19
     e6c:	04 1f       	adc	r16, r20
     e6e:	15 1f       	adc	r17, r21
     e70:	d3 94       	inc	r13
     e72:	30 e8       	ldi	r19, 0x80	; 128
     e74:	e3 16       	cp	r14, r19
     e76:	36 e9       	ldi	r19, 0x96	; 150
     e78:	f3 06       	cpc	r15, r19
     e7a:	38 e9       	ldi	r19, 0x98	; 152
     e7c:	03 07       	cpc	r16, r19
     e7e:	30 e0       	ldi	r19, 0x00	; 0
     e80:	13 07       	cpc	r17, r19
     e82:	70 f7       	brcc	.-36     	; 0xe60 <write_number_u32+0x82>
     e84:	cc 24       	eor	r12, r12
     e86:	09 c0       	rjmp	.+18     	; 0xe9a <write_number_u32+0xbc>
     e88:	20 ec       	ldi	r18, 0xC0	; 192
     e8a:	3d eb       	ldi	r19, 0xBD	; 189
     e8c:	40 ef       	ldi	r20, 0xF0	; 240
     e8e:	5f ef       	ldi	r21, 0xFF	; 255
     e90:	e2 0e       	add	r14, r18
     e92:	f3 1e       	adc	r15, r19
     e94:	04 1f       	adc	r16, r20
     e96:	15 1f       	adc	r17, r21
     e98:	c3 94       	inc	r12
     e9a:	30 e4       	ldi	r19, 0x40	; 64
     e9c:	e3 16       	cp	r14, r19
     e9e:	32 e4       	ldi	r19, 0x42	; 66
     ea0:	f3 06       	cpc	r15, r19
     ea2:	3f e0       	ldi	r19, 0x0F	; 15
     ea4:	03 07       	cpc	r16, r19
     ea6:	30 e0       	ldi	r19, 0x00	; 0
     ea8:	13 07       	cpc	r17, r19
     eaa:	70 f7       	brcc	.-36     	; 0xe88 <write_number_u32+0xaa>
     eac:	bb 24       	eor	r11, r11
     eae:	09 c0       	rjmp	.+18     	; 0xec2 <write_number_u32+0xe4>
     eb0:	20 e6       	ldi	r18, 0x60	; 96
     eb2:	39 e7       	ldi	r19, 0x79	; 121
     eb4:	4e ef       	ldi	r20, 0xFE	; 254
     eb6:	5f ef       	ldi	r21, 0xFF	; 255
     eb8:	e2 0e       	add	r14, r18
     eba:	f3 1e       	adc	r15, r19
     ebc:	04 1f       	adc	r16, r20
     ebe:	15 1f       	adc	r17, r21
     ec0:	b3 94       	inc	r11
     ec2:	30 ea       	ldi	r19, 0xA0	; 160
     ec4:	e3 16       	cp	r14, r19
     ec6:	36 e8       	ldi	r19, 0x86	; 134
     ec8:	f3 06       	cpc	r15, r19
     eca:	31 e0       	ldi	r19, 0x01	; 1
     ecc:	03 07       	cpc	r16, r19
     ece:	30 e0       	ldi	r19, 0x00	; 0
     ed0:	13 07       	cpc	r17, r19
     ed2:	70 f7       	brcc	.-36     	; 0xeb0 <write_number_u32+0xd2>
     ed4:	aa 24       	eor	r10, r10
     ed6:	09 c0       	rjmp	.+18     	; 0xeea <write_number_u32+0x10c>
     ed8:	20 ef       	ldi	r18, 0xF0	; 240
     eda:	38 ed       	ldi	r19, 0xD8	; 216
     edc:	4f ef       	ldi	r20, 0xFF	; 255
     ede:	5f ef       	ldi	r21, 0xFF	; 255
     ee0:	e2 0e       	add	r14, r18
     ee2:	f3 1e       	adc	r15, r19
     ee4:	04 1f       	adc	r16, r20
     ee6:	15 1f       	adc	r17, r21
     ee8:	a3 94       	inc	r10
     eea:	30 e1       	ldi	r19, 0x10	; 16
     eec:	e3 16       	cp	r14, r19
     eee:	37 e2       	ldi	r19, 0x27	; 39
     ef0:	f3 06       	cpc	r15, r19
     ef2:	30 e0       	ldi	r19, 0x00	; 0
     ef4:	03 07       	cpc	r16, r19
     ef6:	30 e0       	ldi	r19, 0x00	; 0
     ef8:	13 07       	cpc	r17, r19
     efa:	70 f7       	brcc	.-36     	; 0xed8 <write_number_u32+0xfa>
     efc:	99 24       	eor	r9, r9
     efe:	09 c0       	rjmp	.+18     	; 0xf12 <write_number_u32+0x134>
     f00:	28 e1       	ldi	r18, 0x18	; 24
     f02:	3c ef       	ldi	r19, 0xFC	; 252
     f04:	4f ef       	ldi	r20, 0xFF	; 255
     f06:	5f ef       	ldi	r21, 0xFF	; 255
     f08:	e2 0e       	add	r14, r18
     f0a:	f3 1e       	adc	r15, r19
     f0c:	04 1f       	adc	r16, r20
     f0e:	15 1f       	adc	r17, r21
     f10:	93 94       	inc	r9
     f12:	38 ee       	ldi	r19, 0xE8	; 232
     f14:	e3 16       	cp	r14, r19
     f16:	33 e0       	ldi	r19, 0x03	; 3
     f18:	f3 06       	cpc	r15, r19
     f1a:	30 e0       	ldi	r19, 0x00	; 0
     f1c:	03 07       	cpc	r16, r19
     f1e:	30 e0       	ldi	r19, 0x00	; 0
     f20:	13 07       	cpc	r17, r19
     f22:	70 f7       	brcc	.-36     	; 0xf00 <write_number_u32+0x122>
     f24:	88 24       	eor	r8, r8
     f26:	09 c0       	rjmp	.+18     	; 0xf3a <write_number_u32+0x15c>
     f28:	2c e9       	ldi	r18, 0x9C	; 156
     f2a:	3f ef       	ldi	r19, 0xFF	; 255
     f2c:	4f ef       	ldi	r20, 0xFF	; 255
     f2e:	5f ef       	ldi	r21, 0xFF	; 255
     f30:	e2 0e       	add	r14, r18
     f32:	f3 1e       	adc	r15, r19
     f34:	04 1f       	adc	r16, r20
     f36:	15 1f       	adc	r17, r21
     f38:	83 94       	inc	r8
     f3a:	34 e6       	ldi	r19, 0x64	; 100
     f3c:	e3 16       	cp	r14, r19
     f3e:	f1 04       	cpc	r15, r1
     f40:	01 05       	cpc	r16, r1
     f42:	11 05       	cpc	r17, r1
     f44:	88 f7       	brcc	.-30     	; 0xf28 <write_number_u32+0x14a>
     f46:	77 24       	eor	r7, r7
     f48:	09 c0       	rjmp	.+18     	; 0xf5c <write_number_u32+0x17e>
     f4a:	26 ef       	ldi	r18, 0xF6	; 246
     f4c:	3f ef       	ldi	r19, 0xFF	; 255
     f4e:	4f ef       	ldi	r20, 0xFF	; 255
     f50:	5f ef       	ldi	r21, 0xFF	; 255
     f52:	e2 0e       	add	r14, r18
     f54:	f3 1e       	adc	r15, r19
     f56:	04 1f       	adc	r16, r20
     f58:	15 1f       	adc	r17, r21
     f5a:	73 94       	inc	r7
     f5c:	3a e0       	ldi	r19, 0x0A	; 10
     f5e:	e3 16       	cp	r14, r19
     f60:	f1 04       	cpc	r15, r1
     f62:	01 05       	cpc	r16, r1
     f64:	11 05       	cpc	r17, r1
     f66:	88 f7       	brcc	.-30     	; 0xf4a <write_number_u32+0x16c>
     f68:	88 23       	and	r24, r24
     f6a:	29 f0       	breq	.+10     	; 0xf76 <write_number_u32+0x198>
     f6c:	80 5d       	subi	r24, 0xD0	; 208
     f6e:	99 83       	std	Y+1, r25	; 0x01
     f70:	25 d3       	rcall	.+1610   	; 0x15bc <mmc_write_byte>
     f72:	81 e0       	ldi	r24, 0x01	; 1
     f74:	99 81       	ldd	r25, Y+1	; 0x01
     f76:	99 23       	and	r25, r25
     f78:	11 f4       	brne	.+4      	; 0xf7e <write_number_u32+0x1a0>
     f7a:	88 23       	and	r24, r24
     f7c:	21 f0       	breq	.+8      	; 0xf86 <write_number_u32+0x1a8>
     f7e:	89 2f       	mov	r24, r25
     f80:	80 5d       	subi	r24, 0xD0	; 208
     f82:	1c d3       	rcall	.+1592   	; 0x15bc <mmc_write_byte>
     f84:	81 e0       	ldi	r24, 0x01	; 1
     f86:	dd 20       	and	r13, r13
     f88:	11 f4       	brne	.+4      	; 0xf8e <write_number_u32+0x1b0>
     f8a:	88 23       	and	r24, r24
     f8c:	21 f0       	breq	.+8      	; 0xf96 <write_number_u32+0x1b8>
     f8e:	8d 2d       	mov	r24, r13
     f90:	80 5d       	subi	r24, 0xD0	; 208
     f92:	14 d3       	rcall	.+1576   	; 0x15bc <mmc_write_byte>
     f94:	81 e0       	ldi	r24, 0x01	; 1
     f96:	cc 20       	and	r12, r12
     f98:	11 f4       	brne	.+4      	; 0xf9e <write_number_u32+0x1c0>
     f9a:	88 23       	and	r24, r24
     f9c:	21 f0       	breq	.+8      	; 0xfa6 <write_number_u32+0x1c8>
     f9e:	8c 2d       	mov	r24, r12
     fa0:	80 5d       	subi	r24, 0xD0	; 208
     fa2:	0c d3       	rcall	.+1560   	; 0x15bc <mmc_write_byte>
     fa4:	81 e0       	ldi	r24, 0x01	; 1
     fa6:	bb 20       	and	r11, r11
     fa8:	11 f4       	brne	.+4      	; 0xfae <write_number_u32+0x1d0>
     faa:	88 23       	and	r24, r24
     fac:	21 f0       	breq	.+8      	; 0xfb6 <write_number_u32+0x1d8>
     fae:	8b 2d       	mov	r24, r11
     fb0:	80 5d       	subi	r24, 0xD0	; 208
     fb2:	04 d3       	rcall	.+1544   	; 0x15bc <mmc_write_byte>
     fb4:	81 e0       	ldi	r24, 0x01	; 1
     fb6:	aa 20       	and	r10, r10
     fb8:	11 f4       	brne	.+4      	; 0xfbe <write_number_u32+0x1e0>
     fba:	88 23       	and	r24, r24
     fbc:	21 f0       	breq	.+8      	; 0xfc6 <write_number_u32+0x1e8>
     fbe:	8a 2d       	mov	r24, r10
     fc0:	80 5d       	subi	r24, 0xD0	; 208
     fc2:	fc d2       	rcall	.+1528   	; 0x15bc <mmc_write_byte>
     fc4:	81 e0       	ldi	r24, 0x01	; 1
     fc6:	99 20       	and	r9, r9
     fc8:	11 f4       	brne	.+4      	; 0xfce <write_number_u32+0x1f0>
     fca:	88 23       	and	r24, r24
     fcc:	21 f0       	breq	.+8      	; 0xfd6 <write_number_u32+0x1f8>
     fce:	89 2d       	mov	r24, r9
     fd0:	80 5d       	subi	r24, 0xD0	; 208
     fd2:	f4 d2       	rcall	.+1512   	; 0x15bc <mmc_write_byte>
     fd4:	81 e0       	ldi	r24, 0x01	; 1
     fd6:	88 20       	and	r8, r8
     fd8:	11 f4       	brne	.+4      	; 0xfde <write_number_u32+0x200>
     fda:	88 23       	and	r24, r24
     fdc:	21 f0       	breq	.+8      	; 0xfe6 <write_number_u32+0x208>
     fde:	88 2d       	mov	r24, r8
     fe0:	80 5d       	subi	r24, 0xD0	; 208
     fe2:	ec d2       	rcall	.+1496   	; 0x15bc <mmc_write_byte>
     fe4:	81 e0       	ldi	r24, 0x01	; 1
     fe6:	77 20       	and	r7, r7
     fe8:	11 f4       	brne	.+4      	; 0xfee <write_number_u32+0x210>
     fea:	88 23       	and	r24, r24
     fec:	19 f0       	breq	.+6      	; 0xff4 <write_number_u32+0x216>
     fee:	87 2d       	mov	r24, r7
     ff0:	80 5d       	subi	r24, 0xD0	; 208
     ff2:	e4 d2       	rcall	.+1480   	; 0x15bc <mmc_write_byte>
     ff4:	8e 2d       	mov	r24, r14
     ff6:	80 5d       	subi	r24, 0xD0	; 208
     ff8:	e1 d2       	rcall	.+1474   	; 0x15bc <mmc_write_byte>
     ffa:	21 96       	adiw	r28, 0x01	; 1
     ffc:	0f b6       	in	r0, 0x3f	; 63
     ffe:	f8 94       	cli
    1000:	de bf       	out	0x3e, r29	; 62
    1002:	0f be       	out	0x3f, r0	; 63
    1004:	cd bf       	out	0x3d, r28	; 61
    1006:	df 91       	pop	r29
    1008:	cf 91       	pop	r28
    100a:	1f 91       	pop	r17
    100c:	0f 91       	pop	r16
    100e:	ff 90       	pop	r15
    1010:	ef 90       	pop	r14
    1012:	df 90       	pop	r13
    1014:	cf 90       	pop	r12
    1016:	bf 90       	pop	r11
    1018:	af 90       	pop	r10
    101a:	9f 90       	pop	r9
    101c:	8f 90       	pop	r8
    101e:	7f 90       	pop	r7
    1020:	08 95       	ret

00001022 <eat_number_u16>:
    1022:	cf 93       	push	r28
    1024:	df 93       	push	r29
    1026:	c0 e0       	ldi	r28, 0x00	; 0
    1028:	d0 e0       	ldi	r29, 0x00	; 0
    102a:	2e d3       	rcall	.+1628   	; 0x1688 <mmc_fetch_byte>
    102c:	28 2f       	mov	r18, r24
    102e:	80 53       	subi	r24, 0x30	; 48
    1030:	8a 30       	cpi	r24, 0x0A	; 10
    1032:	70 f4       	brcc	.+28     	; 0x1050 <eat_number_u16+0x2e>
    1034:	8a e0       	ldi	r24, 0x0A	; 10
    1036:	90 e0       	ldi	r25, 0x00	; 0
    1038:	ae 01       	movw	r20, r28
    103a:	48 9f       	mul	r20, r24
    103c:	e0 01       	movw	r28, r0
    103e:	49 9f       	mul	r20, r25
    1040:	d0 0d       	add	r29, r0
    1042:	58 9f       	mul	r21, r24
    1044:	d0 0d       	add	r29, r0
    1046:	11 24       	eor	r1, r1
    1048:	c2 0f       	add	r28, r18
    104a:	d1 1d       	adc	r29, r1
    104c:	e0 97       	sbiw	r28, 0x30	; 48
    104e:	ed cf       	rjmp	.-38     	; 0x102a <eat_number_u16+0x8>
    1050:	ce 01       	movw	r24, r28
    1052:	df 91       	pop	r29
    1054:	cf 91       	pop	r28
    1056:	08 95       	ret

00001058 <eat_string>:
    1058:	0f 93       	push	r16
    105a:	1f 93       	push	r17
    105c:	cf 93       	push	r28
    105e:	df 93       	push	r29
    1060:	ec 01       	movw	r28, r24
    1062:	06 2f       	mov	r16, r22
    1064:	10 e0       	ldi	r17, 0x00	; 0
    1066:	10 c0       	rjmp	.+32     	; 0x1088 <eat_string+0x30>
    1068:	0f d3       	rcall	.+1566   	; 0x1688 <mmc_fetch_byte>
    106a:	98 2f       	mov	r25, r24
    106c:	8d 30       	cpi	r24, 0x0D	; 13
    106e:	e1 f3       	breq	.-8      	; 0x1068 <eat_string+0x10>
    1070:	8a 30       	cpi	r24, 0x0A	; 10
    1072:	d1 f3       	breq	.-12     	; 0x1068 <eat_string+0x10>
    1074:	fe 01       	movw	r30, r28
    1076:	e1 0f       	add	r30, r17
    1078:	f1 1d       	adc	r31, r1
    107a:	80 81       	ld	r24, Z
    107c:	98 17       	cp	r25, r24
    107e:	19 f0       	breq	.+6      	; 0x1086 <eat_string+0x2e>
    1080:	80 e0       	ldi	r24, 0x00	; 0
    1082:	90 e0       	ldi	r25, 0x00	; 0
    1084:	05 c0       	rjmp	.+10     	; 0x1090 <eat_string+0x38>
    1086:	1f 5f       	subi	r17, 0xFF	; 255
    1088:	10 17       	cp	r17, r16
    108a:	71 f7       	brne	.-36     	; 0x1068 <eat_string+0x10>
    108c:	81 e0       	ldi	r24, 0x01	; 1
    108e:	90 e0       	ldi	r25, 0x00	; 0
    1090:	df 91       	pop	r29
    1092:	cf 91       	pop	r28
    1094:	1f 91       	pop	r17
    1096:	0f 91       	pop	r16
    1098:	08 95       	ret

0000109a <main>:
    109a:	ef 92       	push	r14
    109c:	ff 92       	push	r15
    109e:	0f 93       	push	r16
    10a0:	1f 93       	push	r17
    10a2:	cf 93       	push	r28
    10a4:	df 93       	push	r29
    10a6:	17 b8       	out	0x07, r1	; 7
    10a8:	18 b8       	out	0x08, r1	; 8
    10aa:	8f e2       	ldi	r24, 0x2F	; 47
    10ac:	84 b9       	out	0x04, r24	; 4
    10ae:	8e ef       	ldi	r24, 0xFE	; 254
    10b0:	85 b9       	out	0x05, r24	; 5
    10b2:	82 e1       	ldi	r24, 0x12	; 18
    10b4:	8a b9       	out	0x0a, r24	; 10
    10b6:	8f ee       	ldi	r24, 0xEF	; 239
    10b8:	8b b9       	out	0x0b, r24	; 11
    10ba:	1e d1       	rcall	.+572    	; 0x12f8 <MMC_hw_init>
    10bc:	ec d3       	rcall	.+2008   	; 0x1896 <spi_init>
    10be:	84 e6       	ldi	r24, 0x64	; 100
    10c0:	90 e0       	ldi	r25, 0x00	; 0
    10c2:	e5 d7       	rcall	.+4042   	; 0x208e <__data_load_end+0x7a8>
    10c4:	78 94       	sei
    10c6:	30 d3       	rcall	.+1632   	; 0x1728 <MMC_init>
    10c8:	88 23       	and	r24, r24
    10ca:	09 f4       	brne	.+2      	; 0x10ce <main+0x34>
    10cc:	7f de       	rcall	.-770    	; 0xdcc <error>
    10ce:	82 e0       	ldi	r24, 0x02	; 2
    10d0:	80 93 6f 00 	sts	0x006F, r24
    10d4:	28 9a       	sbi	0x05, 0	; 5
    10d6:	84 e6       	ldi	r24, 0x64	; 100
    10d8:	90 e0       	ldi	r25, 0x00	; 0
    10da:	d9 d7       	rcall	.+4018   	; 0x208e <__data_load_end+0x7a8>
    10dc:	28 98       	cbi	0x05, 0	; 5
    10de:	74 d9       	rcall	.-3352   	; 0x3c8 <fat_init>
    10e0:	88 23       	and	r24, r24
    10e2:	11 f4       	brne	.+4      	; 0x10e8 <main+0x4e>
    10e4:	73 de       	rcall	.-794    	; 0xdcc <error>
    10e6:	05 c0       	rjmp	.+10     	; 0x10f2 <main+0x58>
    10e8:	68 dd       	rcall	.-1328   	; 0xbba <fat_count_files>
    10ea:	80 91 3d 01 	lds	r24, 0x013D
    10ee:	88 23       	and	r24, r24
    10f0:	31 f4       	brne	.+12     	; 0x10fe <main+0x64>
    10f2:	0d e0       	ldi	r16, 0x0D	; 13
    10f4:	2d e0       	ldi	r18, 0x0D	; 13
    10f6:	e2 2e       	mov	r14, r18
    10f8:	23 e0       	ldi	r18, 0x03	; 3
    10fa:	f2 2e       	mov	r15, r18
    10fc:	4b c0       	rjmp	.+150    	; 0x1194 <main+0xfa>
    10fe:	c0 e0       	ldi	r28, 0x00	; 0
    1100:	d0 e0       	ldi	r29, 0x00	; 0
    1102:	0d e0       	ldi	r16, 0x0D	; 13
    1104:	9d e0       	ldi	r25, 0x0D	; 13
    1106:	e9 2e       	mov	r14, r25
    1108:	93 e0       	ldi	r25, 0x03	; 3
    110a:	f9 2e       	mov	r15, r25
    110c:	3c c0       	rjmp	.+120    	; 0x1186 <main+0xec>
    110e:	8c 2f       	mov	r24, r28
    1110:	73 dd       	rcall	.-1306   	; 0xbf8 <fat_read_filedata>
    1112:	4c e0       	ldi	r20, 0x0C	; 12
    1114:	60 e0       	ldi	r22, 0x00	; 0
    1116:	71 e0       	ldi	r23, 0x01	; 1
    1118:	8b e5       	ldi	r24, 0x5B	; 91
    111a:	91 e0       	ldi	r25, 0x01	; 1
    111c:	d7 dd       	rcall	.-1106   	; 0xccc <str_ncomp>
    111e:	88 23       	and	r24, r24
    1120:	41 f0       	breq	.+16     	; 0x1132 <main+0x98>
    1122:	4c e0       	ldi	r20, 0x0C	; 12
    1124:	6d e0       	ldi	r22, 0x0D	; 13
    1126:	71 e0       	ldi	r23, 0x01	; 1
    1128:	8b e5       	ldi	r24, 0x5B	; 91
    112a:	91 e0       	ldi	r25, 0x01	; 1
    112c:	cf dd       	rcall	.-1122   	; 0xccc <str_ncomp>
    112e:	88 23       	and	r24, r24
    1130:	49 f5       	brne	.+82     	; 0x1184 <main+0xea>
    1132:	6c 2f       	mov	r22, r28
    1134:	81 e0       	ldi	r24, 0x01	; 1
    1136:	87 dd       	rcall	.-1266   	; 0xc46 <fat_openfile>
    1138:	63 e0       	ldi	r22, 0x03	; 3
    113a:	8a e1       	ldi	r24, 0x1A	; 26
    113c:	91 e0       	ldi	r25, 0x01	; 1
    113e:	8c df       	rcall	.-232    	; 0x1058 <eat_string>
    1140:	88 23       	and	r24, r24
    1142:	61 f0       	breq	.+24     	; 0x115c <main+0xc2>
    1144:	6e df       	rcall	.-292    	; 0x1022 <eat_number_u16>
    1146:	80 93 33 01 	sts	0x0133, r24
    114a:	88 23       	and	r24, r24
    114c:	11 f4       	brne	.+4      	; 0x1152 <main+0xb8>
    114e:	81 e0       	ldi	r24, 0x01	; 1
    1150:	03 c0       	rjmp	.+6      	; 0x1158 <main+0xbe>
    1152:	87 30       	cpi	r24, 0x07	; 7
    1154:	18 f0       	brcs	.+6      	; 0x115c <main+0xc2>
    1156:	86 e0       	ldi	r24, 0x06	; 6
    1158:	80 93 33 01 	sts	0x0133, r24
    115c:	69 e0       	ldi	r22, 0x09	; 9
    115e:	8e e1       	ldi	r24, 0x1E	; 30
    1160:	91 e0       	ldi	r25, 0x01	; 1
    1162:	7a df       	rcall	.-268    	; 0x1058 <eat_string>
    1164:	88 23       	and	r24, r24
    1166:	11 f0       	breq	.+4      	; 0x116c <main+0xd2>
    1168:	5c df       	rcall	.-328    	; 0x1022 <eat_number_u16>
    116a:	7c 01       	movw	r14, r24
    116c:	6a e0       	ldi	r22, 0x0A	; 10
    116e:	88 e2       	ldi	r24, 0x28	; 40
    1170:	91 e0       	ldi	r25, 0x01	; 1
    1172:	72 df       	rcall	.-284    	; 0x1058 <eat_string>
    1174:	88 23       	and	r24, r24
    1176:	29 f0       	breq	.+10     	; 0x1182 <main+0xe8>
    1178:	54 df       	rcall	.-344    	; 0x1022 <eat_number_u16>
    117a:	08 2f       	mov	r16, r24
    117c:	88 23       	and	r24, r24
    117e:	09 f4       	brne	.+2      	; 0x1182 <main+0xe8>
    1180:	09 e0       	ldi	r16, 0x09	; 9
    1182:	1b db       	rcall	.-2506   	; 0x7ba <fat_closefile>
    1184:	21 96       	adiw	r28, 0x01	; 1
    1186:	80 91 3d 01 	lds	r24, 0x013D
    118a:	99 27       	eor	r25, r25
    118c:	c8 17       	cp	r28, r24
    118e:	d9 07       	cpc	r29, r25
    1190:	08 f4       	brcc	.+2      	; 0x1194 <main+0xfa>
    1192:	bd cf       	rjmp	.-134    	; 0x110e <main+0x74>
    1194:	28 9a       	sbi	0x05, 0	; 5
    1196:	80 91 3b 01 	lds	r24, 0x013B
    119a:	88 23       	and	r24, r24
    119c:	19 f0       	breq	.+6      	; 0x11a4 <main+0x10a>
    119e:	82 30       	cpi	r24, 0x02	; 2
    11a0:	d1 f7       	brne	.-12     	; 0x1196 <main+0xfc>
    11a2:	10 c0       	rjmp	.+32     	; 0x11c4 <main+0x12a>
    11a4:	89 b1       	in	r24, 0x09	; 9
    11a6:	80 95       	com	r24
    11a8:	83 ff       	sbrs	r24, 3
    11aa:	f5 cf       	rjmp	.-22     	; 0x1196 <main+0xfc>
    11ac:	84 e6       	ldi	r24, 0x64	; 100
    11ae:	90 e0       	ldi	r25, 0x00	; 0
    11b0:	6e d7       	rcall	.+3804   	; 0x208e <__data_load_end+0x7a8>
    11b2:	82 e0       	ldi	r24, 0x02	; 2
    11b4:	80 93 3b 01 	sts	0x013B, r24
    11b8:	28 98       	cbi	0x05, 0	; 5
    11ba:	89 b1       	in	r24, 0x09	; 9
    11bc:	80 95       	com	r24
    11be:	83 ff       	sbrs	r24, 3
    11c0:	ea cf       	rjmp	.-44     	; 0x1196 <main+0xfc>
    11c2:	fb cf       	rjmp	.-10     	; 0x11ba <main+0x120>
    11c4:	60 91 3d 01 	lds	r22, 0x013D
    11c8:	82 e0       	ldi	r24, 0x02	; 2
    11ca:	3d dd       	rcall	.-1414   	; 0xc46 <fat_openfile>
    11cc:	80 91 39 01 	lds	r24, 0x0139
    11d0:	88 23       	and	r24, r24
    11d2:	19 f0       	breq	.+6      	; 0x11da <main+0x140>
    11d4:	10 92 3b 01 	sts	0x013B, r1
    11d8:	28 9a       	sbi	0x05, 0	; 5
    11da:	60 91 53 01 	lds	r22, 0x0153
    11de:	70 91 54 01 	lds	r23, 0x0154
    11e2:	80 91 55 01 	lds	r24, 0x0155
    11e6:	90 91 56 01 	lds	r25, 0x0156
    11ea:	5b d1       	rcall	.+694    	; 0x14a2 <mmc_write_start>
    11ec:	10 92 86 04 	sts	0x0486, r1
    11f0:	10 92 87 04 	sts	0x0487, r1
    11f4:	10 92 88 04 	sts	0x0488, r1
    11f8:	10 92 89 04 	sts	0x0489, r1
    11fc:	10 92 3a 01 	sts	0x013A, r1
    1200:	10 92 82 03 	sts	0x0382, r1
    1204:	10 92 83 03 	sts	0x0383, r1
    1208:	10 92 84 03 	sts	0x0384, r1
    120c:	10 92 85 03 	sts	0x0385, r1
    1210:	f0 92 89 00 	sts	0x0089, r15
    1214:	e0 92 88 00 	sts	0x0088, r14
    1218:	08 94       	sec
    121a:	e1 08       	sbc	r14, r1
    121c:	f1 08       	sbc	r15, r1
    121e:	f0 92 85 00 	sts	0x0085, r15
    1222:	e0 92 84 00 	sts	0x0084, r14
    1226:	08 94       	sec
    1228:	e1 1c       	adc	r14, r1
    122a:	f1 1c       	adc	r15, r1
    122c:	00 93 81 00 	sts	0x0081, r16
    1230:	10 e0       	ldi	r17, 0x00	; 0
    1232:	90 91 3c 01 	lds	r25, 0x013C
    1236:	80 91 33 01 	lds	r24, 0x0133
    123a:	98 17       	cp	r25, r24
    123c:	89 f5       	brne	.+98     	; 0x12a0 <main+0x206>
    123e:	28 98       	cbi	0x05, 0	; 5
    1240:	29 c0       	rjmp	.+82     	; 0x1294 <main+0x1fa>
    1242:	60 91 82 03 	lds	r22, 0x0382
    1246:	70 91 83 03 	lds	r23, 0x0383
    124a:	80 91 84 03 	lds	r24, 0x0384
    124e:	90 91 85 03 	lds	r25, 0x0385
    1252:	c5 dd       	rcall	.-1142   	; 0xdde <write_number_u32>
    1254:	c0 e0       	ldi	r28, 0x00	; 0
    1256:	d0 e0       	ldi	r29, 0x00	; 0
    1258:	13 c0       	rjmp	.+38     	; 0x1280 <main+0x1e6>
    125a:	89 e0       	ldi	r24, 0x09	; 9
    125c:	af d1       	rcall	.+862    	; 0x15bc <mmc_write_byte>
    125e:	e1 2f       	mov	r30, r17
    1260:	ff 27       	eor	r31, r31
    1262:	ea 57       	subi	r30, 0x7A	; 122
    1264:	fc 4f       	sbci	r31, 0xFC	; 252
    1266:	20 81       	ld	r18, Z
    1268:	61 81       	ldd	r22, Z+1	; 0x01
    126a:	77 27       	eor	r23, r23
    126c:	76 2f       	mov	r23, r22
    126e:	66 27       	eor	r22, r22
    1270:	62 0f       	add	r22, r18
    1272:	71 1d       	adc	r23, r1
    1274:	88 27       	eor	r24, r24
    1276:	77 fd       	sbrc	r23, 7
    1278:	80 95       	com	r24
    127a:	98 2f       	mov	r25, r24
    127c:	b0 dd       	rcall	.-1184   	; 0xdde <write_number_u32>
    127e:	1e 5f       	subi	r17, 0xFE	; 254
    1280:	9c 2f       	mov	r25, r28
    1282:	21 96       	adiw	r28, 0x01	; 1
    1284:	80 91 33 01 	lds	r24, 0x0133
    1288:	98 17       	cp	r25, r24
    128a:	38 f3       	brcs	.-50     	; 0x125a <main+0x1c0>
    128c:	8d e0       	ldi	r24, 0x0D	; 13
    128e:	96 d1       	rcall	.+812    	; 0x15bc <mmc_write_byte>
    1290:	8a e0       	ldi	r24, 0x0A	; 10
    1292:	94 d1       	rcall	.+808    	; 0x15bc <mmc_write_byte>
    1294:	80 91 3a 01 	lds	r24, 0x013A
    1298:	18 17       	cp	r17, r24
    129a:	99 f6       	brne	.-90     	; 0x1242 <main+0x1a8>
    129c:	10 92 3c 01 	sts	0x013C, r1
    12a0:	89 b1       	in	r24, 0x09	; 9
    12a2:	80 95       	com	r24
    12a4:	83 fd       	sbrc	r24, 3
    12a6:	04 c0       	rjmp	.+8      	; 0x12b0 <main+0x216>
    12a8:	80 91 39 01 	lds	r24, 0x0139
    12ac:	88 23       	and	r24, r24
    12ae:	09 f2       	breq	.-126    	; 0x1232 <main+0x198>
    12b0:	10 92 81 00 	sts	0x0081, r1
    12b4:	28 9a       	sbi	0x05, 0	; 5
    12b6:	84 e6       	ldi	r24, 0x64	; 100
    12b8:	90 e0       	ldi	r25, 0x00	; 0
    12ba:	e9 d6       	rcall	.+3538   	; 0x208e <__data_load_end+0x7a8>
    12bc:	10 92 3b 01 	sts	0x013B, r1
    12c0:	89 b1       	in	r24, 0x09	; 9
    12c2:	80 95       	com	r24
    12c4:	83 fd       	sbrc	r24, 3
    12c6:	fc cf       	rjmp	.-8      	; 0x12c0 <main+0x226>
    12c8:	80 91 86 04 	lds	r24, 0x0486
    12cc:	90 91 87 04 	lds	r25, 0x0487
    12d0:	a0 91 88 04 	lds	r26, 0x0488
    12d4:	b0 91 89 04 	lds	r27, 0x0489
    12d8:	80 93 4f 01 	sts	0x014F, r24
    12dc:	90 93 50 01 	sts	0x0150, r25
    12e0:	a0 93 51 01 	sts	0x0151, r26
    12e4:	b0 93 52 01 	sts	0x0152, r27
    12e8:	2e d0       	rcall	.+92     	; 0x1346 <mmc_complete_write>
    12ea:	67 da       	rcall	.-2866   	; 0x7ba <fat_closefile>
    12ec:	80 91 3d 01 	lds	r24, 0x013D
    12f0:	8f 5f       	subi	r24, 0xFF	; 255
    12f2:	80 93 3d 01 	sts	0x013D, r24
    12f6:	4f cf       	rjmp	.-354    	; 0x1196 <main+0xfc>

000012f8 <MMC_hw_init>:
	last_sector += (data[8] & 0xc0) >> 6;
};

// sets up the pins used by the MMC interface
void MMC_hw_init(void){
    12f8:	2a 9a       	sbi	0x05, 2	; 5
	// set MMC CS pin high output 
	sbi(MMC_CS_PORT,PIN_MMC_CS);
	sbi(MMC_CS_DDR, PIN_MMC_CS);
    12fa:	22 9a       	sbi	0x04, 2	; 4
    12fc:	08 95       	ret

000012fe <MMC_write_sec_next>:
};

// starts up the MMC card
u08 MMC_init(void){
	u08 i;
	u08 res;	
	// the data sheet says that the MMC needs 74 clock pulses to startup
	// 10*8== 80; 80>76
	for( i = 0; i < 100; i++){
		spi_io(0xff);
	};
	
	// select card
	MMC_CS_select();
	// put MMC in idle
	MMC_send_cmd(MMC_CMD_0_GO_IDLE,0x0,0x0);
	// get the response
	res = MMC_get_R1();
	
	//if(res != 0x01) USART_sendstring("Error R1-init",0x01);
	if(res != 0x01) 
		return 0;
	
	// tell the MMC to start its init process by sending the MMC_CMD_1_SEND_OP_COND comand
	// until the response has the idle bit set to 0
	while(res==0x01){
		// deselect card
		MMC_CS_deselect();
		// send 32 clock pulses
		spi_io(0xff);
		spi_io(0xff);
		spi_io(0xff);
		spi_io(0xff);
		// select card
		MMC_CS_select();
    // send wake up signal s.t. MMC leaves idle state and switches to operation mode
		MMC_send_cmd(MMC_CMD_1_SEND_OP_COND,0x0,0x0);
    // get response
		res = MMC_get_R1();
	};
	// cleanup behind us
	MMC_cleanup();
	  
	// now increase MMC card interface speed to 4MHz
//	UBRR0 = 1;

	// find out some info on card
	MMC_get_volume_info();

	MMC_set_blocklen(512);
	mmc_open = 0;
	return 1;
};

// starts the read process of a sector
static void MMC_get_sec_start(u16 sectorh, u16 sectorl){
	spi_io(0xff);
	spi_io(0xff);
	// turn sectors into byte addr
	sectorh = (sectorh << 9) + (sectorl >> 7);
	sectorl = sectorl << 9;
	// select card
	MMC_CS_select();
	mmc_open = 1;
	// tell the MMC card that we want to know its status
	MMC_send_cmd(MMC_CMD_17_READ_SINGLE, sectorh, sectorl);
	// get the response
	if (MMC_get_R1()) {
		MMC_cleanup();
		return;
	}
	// wait till the mmc starts sending data
	MMC_wait_for_start_token(255);
};

// starts the write process of a sector
static void MMC_write_sec_start(u16 sectorh, u16 sectorl){
	spi_io(0xff);
	spi_io(0xff);
	// turn sectors into byte addr
	sectorh = (sectorh << 9) + (sectorl >> 7);
	sectorl = sectorl << 9;
	// select card
	MMC_CS_select();
	mmc_open = 1;
	// tell the MMC card that we want to know its status
	MMC_send_cmd(MMC_CMD_24_WRITE_SINGLE, sectorh, sectorl);
	// get the response
	if (MMC_get_R1()) {
		MMC_cleanup();
		return;
	}
	// send start byte
	spi_io(0xfe);
};

// gets the next byte from the MMC card
static inline u08 MMC_get_sec_next(void){
	u08 tmp = spi_io(0xff);
	return tmp;
};

// writes the next byte to the MMC card
static inline void MMC_write_sec_next(u08 b){
    12fe:	0e 94 52 0c 	call	0x18a4	; 0x18a4 <spi_io>
    1302:	08 95       	ret

00001304 <MMC_get_sec_next>:
    1304:	8f ef       	ldi	r24, 0xFF	; 255
    1306:	0e 94 52 0c 	call	0x18a4	; 0x18a4 <spi_io>
    130a:	99 27       	eor	r25, r25
    130c:	08 95       	ret

0000130e <MMC_cleanup>:
    130e:	2a 9a       	sbi	0x05, 2	; 5
    1310:	8f ef       	ldi	r24, 0xFF	; 255
    1312:	0e 94 52 0c 	call	0x18a4	; 0x18a4 <spi_io>
    1316:	8f ef       	ldi	r24, 0xFF	; 255
    1318:	0e 94 52 0c 	call	0x18a4	; 0x18a4 <spi_io>
    131c:	08 95       	ret

0000131e <MMC_get_sec_stop_w>:
	spi_io(b);
};

// stop read process of a sector
static inline void MMC_get_sec_stop(void){
	if (mmc_open) {
		// get the 2 CRC bytes
		spi_io(0xff);
		spi_io(0xff);
		// give enough time
		MMC_cleanup();
		mmc_open = 0;
	}
};


// stop write process of a sector
static inline void MMC_get_sec_stop_w(void){
    131e:	80 91 3e 01 	lds	r24, 0x013E
    1322:	88 23       	and	r24, r24
    1324:	79 f0       	breq	.+30     	; 0x1344 <MMC_get_sec_stop_w+0x26>
	if (mmc_open) {
		// get the 2 CRC bytes
		spi_io(0xff);
    1326:	8f ef       	ldi	r24, 0xFF	; 255
    1328:	0e 94 52 0c 	call	0x18a4	; 0x18a4 <spi_io>
		spi_io(0xff);
    132c:	8f ef       	ldi	r24, 0xFF	; 255
    132e:	0e 94 52 0c 	call	0x18a4	; 0x18a4 <spi_io>
	    // wait while card is busy
	    while (spi_io(0xff) != 0xff);
    1332:	8f ef       	ldi	r24, 0xFF	; 255
    1334:	0e 94 52 0c 	call	0x18a4	; 0x18a4 <spi_io>
    1338:	8f 3f       	cpi	r24, 0xFF	; 255
    133a:	d9 f7       	brne	.-10     	; 0x1332 <MMC_get_sec_stop_w+0x14>
		// give enough time
		MMC_cleanup();
    133c:	0e 94 87 09 	call	0x130e	; 0x130e <MMC_cleanup>
		mmc_open = 0;
    1340:	10 92 3e 01 	sts	0x013E, r1
    1344:	08 95       	ret

00001346 <mmc_complete_write>:
	}
};



//-------------------------------------------------------------
// High Level MMC-Funktionen

u32 sect;
u32 file_len;
u16 bufpos=0;

extern u08 fat_directaccess;


void mmc_read_sector(u32 s, u08 *buf) {
	u16 i;
	MMC_get_sec_start((u16)(s>>16), (u16)s);
	for (i=0; i<512; i++)
		buf[i] = MMC_get_sec_next();
	MMC_get_sec_stop();
}

void mmc_write_sector(u32 s, u08 *buf) {
	u16 i;
	MMC_write_sec_start((u16)(s>>16), (u16)s);
	for (i=0; i<512; i++)
		MMC_write_sec_next(buf[i]);
	MMC_get_sec_stop_w();
}

// Lesen beginnen
void mmc_load_start(u32 s) {
	sect = s;
	MMC_get_sec_start((u16)(s>>16), (u16)s);
	bufpos = 0;
}


// Schreiben beginnen
void mmc_write_start(u32 s) {
	sect = s;
	MMC_write_sec_start((u16)(s>>16), (u16)s);
	bufpos = 0;
}


// Byte lesen
u08 mmc_fetch_byte(void) {
	if (bufpos == 512) {
		MMC_get_sec_stop();
		if (!fat_directaccess)
			fat_getnextsector();
		else
			sect++;
		mmc_load_start(sect);
	}
	bufpos++;
	return MMC_get_sec_next();
}


// Byte schreiben
void mmc_write_byte(u08 b) {
	if (bufpos == 512) {
		MMC_get_sec_stop_w();
		if (!fat_directaccess)
			fat_getnextsector();
		else
			sect++;
		mmc_write_start(sect);
	}
	bufpos++;
	MMC_write_sec_next(b);
	file_len++;
}


// Lesen, um die 512 voll zu machen
void mmc_complete_read(void) {
	while (bufpos < 512) {
		MMC_get_sec_next();
		bufpos++;
	}
	MMC_get_sec_stop();
}


// Schreiben, um die 512 voll zu machen
void mmc_complete_write(void) {
    1346:	0b c0       	rjmp	.+22     	; 0x135e <mmc_complete_write+0x18>
	while (bufpos < 512) {
		MMC_get_sec_next();
    1348:	0e 94 82 09 	call	0x1304	; 0x1304 <MMC_get_sec_next>
		bufpos++;
    134c:	80 91 3f 01 	lds	r24, 0x013F
    1350:	90 91 40 01 	lds	r25, 0x0140
    1354:	01 96       	adiw	r24, 0x01	; 1
    1356:	90 93 40 01 	sts	0x0140, r25
    135a:	80 93 3f 01 	sts	0x013F, r24
    135e:	80 91 3f 01 	lds	r24, 0x013F
    1362:	90 91 40 01 	lds	r25, 0x0140
    1366:	80 50       	subi	r24, 0x00	; 0
    1368:	92 40       	sbci	r25, 0x02	; 2
    136a:	70 f3       	brcs	.-36     	; 0x1348 <mmc_complete_write+0x2>
	}
	MMC_get_sec_stop_w();
    136c:	0e 94 8f 09 	call	0x131e	; 0x131e <MMC_get_sec_stop_w>
    1370:	08 95       	ret

00001372 <MMC_get_sec_stop>:
    1372:	80 91 3e 01 	lds	r24, 0x013E
    1376:	88 23       	and	r24, r24
    1378:	51 f0       	breq	.+20     	; 0x138e <MMC_get_sec_stop+0x1c>
    137a:	8f ef       	ldi	r24, 0xFF	; 255
    137c:	0e 94 52 0c 	call	0x18a4	; 0x18a4 <spi_io>
    1380:	8f ef       	ldi	r24, 0xFF	; 255
    1382:	0e 94 52 0c 	call	0x18a4	; 0x18a4 <spi_io>
    1386:	0e 94 87 09 	call	0x130e	; 0x130e <MMC_cleanup>
    138a:	10 92 3e 01 	sts	0x013E, r1
    138e:	08 95       	ret

00001390 <mmc_complete_read>:
    1390:	0b c0       	rjmp	.+22     	; 0x13a8 <mmc_complete_read+0x18>
    1392:	0e 94 82 09 	call	0x1304	; 0x1304 <MMC_get_sec_next>
    1396:	80 91 3f 01 	lds	r24, 0x013F
    139a:	90 91 40 01 	lds	r25, 0x0140
    139e:	01 96       	adiw	r24, 0x01	; 1
    13a0:	90 93 40 01 	sts	0x0140, r25
    13a4:	80 93 3f 01 	sts	0x013F, r24
    13a8:	80 91 3f 01 	lds	r24, 0x013F
    13ac:	90 91 40 01 	lds	r25, 0x0140
    13b0:	80 50       	subi	r24, 0x00	; 0
    13b2:	92 40       	sbci	r25, 0x02	; 2
    13b4:	70 f3       	brcs	.-36     	; 0x1392 <mmc_complete_read+0x2>
    13b6:	0e 94 b9 09 	call	0x1372	; 0x1372 <MMC_get_sec_stop>
    13ba:	08 95       	ret

000013bc <MMC_wait_for_start_token>:
    13bc:	8f ef       	ldi	r24, 0xFF	; 255
    13be:	0e 94 52 0c 	call	0x18a4	; 0x18a4 <spi_io>
    13c2:	8e 3f       	cpi	r24, 0xFE	; 254
    13c4:	d9 f7       	brne	.-10     	; 0x13bc <MMC_wait_for_start_token>
    13c6:	08 95       	ret

000013c8 <MMC_get_R1>:
    13c8:	1f 93       	push	r17
    13ca:	10 e8       	ldi	r17, 0x80	; 128
    13cc:	8f ef       	ldi	r24, 0xFF	; 255
    13ce:	0e 94 52 0c 	call	0x18a4	; 0x18a4 <spi_io>
    13d2:	87 ff       	sbrs	r24, 7
    13d4:	02 c0       	rjmp	.+4      	; 0x13da <MMC_get_R1+0x12>
    13d6:	11 50       	subi	r17, 0x01	; 1
    13d8:	c9 f7       	brne	.-14     	; 0x13cc <MMC_get_R1+0x4>
    13da:	99 27       	eor	r25, r25
    13dc:	1f 91       	pop	r17
    13de:	08 95       	ret

000013e0 <MMC_send_cmd>:
    13e0:	0f 93       	push	r16
    13e2:	1f 93       	push	r17
    13e4:	cf 93       	push	r28
    13e6:	df 93       	push	r29
    13e8:	cd b7       	in	r28, 0x3d	; 61
    13ea:	de b7       	in	r29, 0x3e	; 62
    13ec:	26 97       	sbiw	r28, 0x06	; 6
    13ee:	0f b6       	in	r0, 0x3f	; 63
    13f0:	f8 94       	cli
    13f2:	de bf       	out	0x3e, r29	; 62
    13f4:	0f be       	out	0x3f, r0	; 63
    13f6:	cd bf       	out	0x3d, r28	; 61
    13f8:	80 64       	ori	r24, 0x40	; 64
    13fa:	89 83       	std	Y+1, r24	; 0x01
    13fc:	87 2f       	mov	r24, r23
    13fe:	99 27       	eor	r25, r25
    1400:	8a 83       	std	Y+2, r24	; 0x02
    1402:	6b 83       	std	Y+3, r22	; 0x03
    1404:	85 2f       	mov	r24, r21
    1406:	99 27       	eor	r25, r25
    1408:	8c 83       	std	Y+4, r24	; 0x04
    140a:	4d 83       	std	Y+5, r20	; 0x05
    140c:	85 e9       	ldi	r24, 0x95	; 149
    140e:	8e 83       	std	Y+6, r24	; 0x06
    1410:	8e 01       	movw	r16, r28
    1412:	0f 5f       	subi	r16, 0xFF	; 255
    1414:	1f 4f       	sbci	r17, 0xFF	; 255
    1416:	f8 01       	movw	r30, r16
    1418:	81 91       	ld	r24, Z+
    141a:	8f 01       	movw	r16, r30
    141c:	0e 94 52 0c 	call	0x18a4	; 0x18a4 <spi_io>
    1420:	ce 01       	movw	r24, r28
    1422:	07 96       	adiw	r24, 0x07	; 7
    1424:	08 17       	cp	r16, r24
    1426:	19 07       	cpc	r17, r25
    1428:	b1 f7       	brne	.-20     	; 0x1416 <MMC_send_cmd+0x36>
    142a:	26 96       	adiw	r28, 0x06	; 6
    142c:	0f b6       	in	r0, 0x3f	; 63
    142e:	f8 94       	cli
    1430:	de bf       	out	0x3e, r29	; 62
    1432:	0f be       	out	0x3f, r0	; 63
    1434:	cd bf       	out	0x3d, r28	; 61
    1436:	df 91       	pop	r29
    1438:	cf 91       	pop	r28
    143a:	1f 91       	pop	r17
    143c:	0f 91       	pop	r16
    143e:	08 95       	ret

00001440 <MMC_write_sec_start>:
    1440:	ef 92       	push	r14
    1442:	ff 92       	push	r15
    1444:	0f 93       	push	r16
    1446:	1f 93       	push	r17
    1448:	7c 01       	movw	r14, r24
    144a:	8b 01       	movw	r16, r22
    144c:	8f ef       	ldi	r24, 0xFF	; 255
    144e:	0e 94 52 0c 	call	0x18a4	; 0x18a4 <spi_io>
    1452:	8f ef       	ldi	r24, 0xFF	; 255
    1454:	0e 94 52 0c 	call	0x18a4	; 0x18a4 <spi_io>
    1458:	2a 98       	cbi	0x05, 2	; 5
    145a:	81 e0       	ldi	r24, 0x01	; 1
    145c:	80 93 3e 01 	sts	0x013E, r24
    1460:	fe 2c       	mov	r15, r14
    1462:	ee 24       	eor	r14, r14
    1464:	ff 0c       	add	r15, r15
    1466:	b8 01       	movw	r22, r16
    1468:	66 0f       	add	r22, r22
    146a:	67 2f       	mov	r22, r23
    146c:	66 1f       	adc	r22, r22
    146e:	77 0b       	sbc	r23, r23
    1470:	71 95       	neg	r23
    1472:	6e 0d       	add	r22, r14
    1474:	7f 1d       	adc	r23, r15
    1476:	10 2f       	mov	r17, r16
    1478:	00 27       	eor	r16, r16
    147a:	11 0f       	add	r17, r17
    147c:	a8 01       	movw	r20, r16
    147e:	88 e1       	ldi	r24, 0x18	; 24
    1480:	0e 94 f0 09 	call	0x13e0	; 0x13e0 <MMC_send_cmd>
    1484:	0e 94 e4 09 	call	0x13c8	; 0x13c8 <MMC_get_R1>
    1488:	88 23       	and	r24, r24
    148a:	19 f0       	breq	.+6      	; 0x1492 <MMC_write_sec_start+0x52>
    148c:	0e 94 87 09 	call	0x130e	; 0x130e <MMC_cleanup>
    1490:	03 c0       	rjmp	.+6      	; 0x1498 <MMC_write_sec_start+0x58>
    1492:	8e ef       	ldi	r24, 0xFE	; 254
    1494:	0e 94 52 0c 	call	0x18a4	; 0x18a4 <spi_io>
    1498:	1f 91       	pop	r17
    149a:	0f 91       	pop	r16
    149c:	ff 90       	pop	r15
    149e:	ef 90       	pop	r14
    14a0:	08 95       	ret

000014a2 <mmc_write_start>:
    14a2:	60 93 8e 04 	sts	0x048E, r22
    14a6:	70 93 8f 04 	sts	0x048F, r23
    14aa:	80 93 90 04 	sts	0x0490, r24
    14ae:	90 93 91 04 	sts	0x0491, r25
    14b2:	9c 01       	movw	r18, r24
    14b4:	44 27       	eor	r20, r20
    14b6:	55 27       	eor	r21, r21
    14b8:	c9 01       	movw	r24, r18
    14ba:	0e 94 20 0a 	call	0x1440	; 0x1440 <MMC_write_sec_start>
    14be:	10 92 40 01 	sts	0x0140, r1
    14c2:	10 92 3f 01 	sts	0x013F, r1
    14c6:	08 95       	ret

000014c8 <mmc_write_sector>:
    14c8:	0f 93       	push	r16
    14ca:	1f 93       	push	r17
    14cc:	cf 93       	push	r28
    14ce:	df 93       	push	r29
    14d0:	8a 01       	movw	r16, r20
    14d2:	9c 01       	movw	r18, r24
    14d4:	44 27       	eor	r20, r20
    14d6:	55 27       	eor	r21, r21
    14d8:	c9 01       	movw	r24, r18
    14da:	0e 94 20 0a 	call	0x1440	; 0x1440 <MMC_write_sec_start>
    14de:	e8 01       	movw	r28, r16
    14e0:	00 50       	subi	r16, 0x00	; 0
    14e2:	1e 4f       	sbci	r17, 0xFE	; 254
    14e4:	89 91       	ld	r24, Y+
    14e6:	0e 94 7f 09 	call	0x12fe	; 0x12fe <MMC_write_sec_next>
    14ea:	c0 17       	cp	r28, r16
    14ec:	d1 07       	cpc	r29, r17
    14ee:	d1 f7       	brne	.-12     	; 0x14e4 <mmc_write_sector+0x1c>
    14f0:	0e 94 8f 09 	call	0x131e	; 0x131e <MMC_get_sec_stop_w>
    14f4:	df 91       	pop	r29
    14f6:	cf 91       	pop	r28
    14f8:	1f 91       	pop	r17
    14fa:	0f 91       	pop	r16
    14fc:	08 95       	ret

000014fe <MMC_get_sec_start>:
    14fe:	ef 92       	push	r14
    1500:	ff 92       	push	r15
    1502:	0f 93       	push	r16
    1504:	1f 93       	push	r17
    1506:	7c 01       	movw	r14, r24
    1508:	8b 01       	movw	r16, r22
    150a:	8f ef       	ldi	r24, 0xFF	; 255
    150c:	0e 94 52 0c 	call	0x18a4	; 0x18a4 <spi_io>
    1510:	8f ef       	ldi	r24, 0xFF	; 255
    1512:	0e 94 52 0c 	call	0x18a4	; 0x18a4 <spi_io>
    1516:	2a 98       	cbi	0x05, 2	; 5
    1518:	81 e0       	ldi	r24, 0x01	; 1
    151a:	80 93 3e 01 	sts	0x013E, r24
    151e:	fe 2c       	mov	r15, r14
    1520:	ee 24       	eor	r14, r14
    1522:	ff 0c       	add	r15, r15
    1524:	b8 01       	movw	r22, r16
    1526:	66 0f       	add	r22, r22
    1528:	67 2f       	mov	r22, r23
    152a:	66 1f       	adc	r22, r22
    152c:	77 0b       	sbc	r23, r23
    152e:	71 95       	neg	r23
    1530:	6e 0d       	add	r22, r14
    1532:	7f 1d       	adc	r23, r15
    1534:	10 2f       	mov	r17, r16
    1536:	00 27       	eor	r16, r16
    1538:	11 0f       	add	r17, r17
    153a:	a8 01       	movw	r20, r16
    153c:	81 e1       	ldi	r24, 0x11	; 17
    153e:	0e 94 f0 09 	call	0x13e0	; 0x13e0 <MMC_send_cmd>
    1542:	0e 94 e4 09 	call	0x13c8	; 0x13c8 <MMC_get_R1>
    1546:	88 23       	and	r24, r24
    1548:	19 f0       	breq	.+6      	; 0x1550 <MMC_get_sec_start+0x52>
    154a:	0e 94 87 09 	call	0x130e	; 0x130e <MMC_cleanup>
    154e:	03 c0       	rjmp	.+6      	; 0x1556 <MMC_get_sec_start+0x58>
    1550:	8f ef       	ldi	r24, 0xFF	; 255
    1552:	0e 94 de 09 	call	0x13bc	; 0x13bc <MMC_wait_for_start_token>
    1556:	1f 91       	pop	r17
    1558:	0f 91       	pop	r16
    155a:	ff 90       	pop	r15
    155c:	ef 90       	pop	r14
    155e:	08 95       	ret

00001560 <mmc_load_start>:
    1560:	60 93 8e 04 	sts	0x048E, r22
    1564:	70 93 8f 04 	sts	0x048F, r23
    1568:	80 93 90 04 	sts	0x0490, r24
    156c:	90 93 91 04 	sts	0x0491, r25
    1570:	9c 01       	movw	r18, r24
    1572:	44 27       	eor	r20, r20
    1574:	55 27       	eor	r21, r21
    1576:	c9 01       	movw	r24, r18
    1578:	0e 94 7f 0a 	call	0x14fe	; 0x14fe <MMC_get_sec_start>
    157c:	10 92 40 01 	sts	0x0140, r1
    1580:	10 92 3f 01 	sts	0x013F, r1
    1584:	08 95       	ret

00001586 <mmc_read_sector>:
    1586:	0f 93       	push	r16
    1588:	1f 93       	push	r17
    158a:	cf 93       	push	r28
    158c:	df 93       	push	r29
    158e:	8a 01       	movw	r16, r20
    1590:	9c 01       	movw	r18, r24
    1592:	44 27       	eor	r20, r20
    1594:	55 27       	eor	r21, r21
    1596:	c9 01       	movw	r24, r18
    1598:	0e 94 7f 0a 	call	0x14fe	; 0x14fe <MMC_get_sec_start>
    159c:	e8 01       	movw	r28, r16
    159e:	00 50       	subi	r16, 0x00	; 0
    15a0:	1e 4f       	sbci	r17, 0xFE	; 254
    15a2:	0e 94 82 09 	call	0x1304	; 0x1304 <MMC_get_sec_next>
    15a6:	89 93       	st	Y+, r24
    15a8:	c0 17       	cp	r28, r16
    15aa:	d1 07       	cpc	r29, r17
    15ac:	d1 f7       	brne	.-12     	; 0x15a2 <mmc_read_sector+0x1c>
    15ae:	0e 94 b9 09 	call	0x1372	; 0x1372 <MMC_get_sec_stop>
    15b2:	df 91       	pop	r29
    15b4:	cf 91       	pop	r28
    15b6:	1f 91       	pop	r17
    15b8:	0f 91       	pop	r16
    15ba:	08 95       	ret

000015bc <mmc_write_byte>:
    15bc:	1f 93       	push	r17
    15be:	18 2f       	mov	r17, r24
    15c0:	80 91 3f 01 	lds	r24, 0x013F
    15c4:	90 91 40 01 	lds	r25, 0x0140
    15c8:	80 50       	subi	r24, 0x00	; 0
    15ca:	92 40       	sbci	r25, 0x02	; 2
    15cc:	31 f5       	brne	.+76     	; 0x161a <mmc_write_byte+0x5e>
    15ce:	0e 94 8f 09 	call	0x131e	; 0x131e <MMC_get_sec_stop_w>
    15d2:	80 91 38 01 	lds	r24, 0x0138
    15d6:	88 23       	and	r24, r24
    15d8:	19 f4       	brne	.+6      	; 0x15e0 <mmc_write_byte+0x24>
    15da:	0e 94 60 01 	call	0x2c0	; 0x2c0 <fat_getnextsector>
    15de:	13 c0       	rjmp	.+38     	; 0x1606 <mmc_write_byte+0x4a>
    15e0:	80 91 8e 04 	lds	r24, 0x048E
    15e4:	90 91 8f 04 	lds	r25, 0x048F
    15e8:	a0 91 90 04 	lds	r26, 0x0490
    15ec:	b0 91 91 04 	lds	r27, 0x0491
    15f0:	01 96       	adiw	r24, 0x01	; 1
    15f2:	a1 1d       	adc	r26, r1
    15f4:	b1 1d       	adc	r27, r1
    15f6:	80 93 8e 04 	sts	0x048E, r24
    15fa:	90 93 8f 04 	sts	0x048F, r25
    15fe:	a0 93 90 04 	sts	0x0490, r26
    1602:	b0 93 91 04 	sts	0x0491, r27
    1606:	60 91 8e 04 	lds	r22, 0x048E
    160a:	70 91 8f 04 	lds	r23, 0x048F
    160e:	80 91 90 04 	lds	r24, 0x0490
    1612:	90 91 91 04 	lds	r25, 0x0491
    1616:	0e 94 51 0a 	call	0x14a2	; 0x14a2 <mmc_write_start>
    161a:	80 91 3f 01 	lds	r24, 0x013F
    161e:	90 91 40 01 	lds	r25, 0x0140
    1622:	01 96       	adiw	r24, 0x01	; 1
    1624:	90 93 40 01 	sts	0x0140, r25
    1628:	80 93 3f 01 	sts	0x013F, r24
    162c:	81 2f       	mov	r24, r17
    162e:	0e 94 7f 09 	call	0x12fe	; 0x12fe <MMC_write_sec_next>
    1632:	80 91 86 04 	lds	r24, 0x0486
    1636:	90 91 87 04 	lds	r25, 0x0487
    163a:	a0 91 88 04 	lds	r26, 0x0488
    163e:	b0 91 89 04 	lds	r27, 0x0489
    1642:	01 96       	adiw	r24, 0x01	; 1
    1644:	a1 1d       	adc	r26, r1
    1646:	b1 1d       	adc	r27, r1
    1648:	80 93 86 04 	sts	0x0486, r24
    164c:	90 93 87 04 	sts	0x0487, r25
    1650:	a0 93 88 04 	sts	0x0488, r26
    1654:	b0 93 89 04 	sts	0x0489, r27
    1658:	1f 91       	pop	r17
    165a:	08 95       	ret

0000165c <mmc_write_block>:
}


void mmc_read_block(u08 *buf, u16 cnt) {
	while (cnt--) {
		*buf = mmc_fetch_byte();
		buf++;
	}
}


void mmc_write_block(u08 *buf, u16 cnt) {
    165c:	0f 93       	push	r16
    165e:	1f 93       	push	r17
    1660:	cf 93       	push	r28
    1662:	df 93       	push	r29
    1664:	8c 01       	movw	r16, r24
    1666:	eb 01       	movw	r28, r22
    1668:	05 c0       	rjmp	.+10     	; 0x1674 <mmc_write_block+0x18>
	while (cnt--) {
		mmc_write_byte(*buf);
    166a:	f8 01       	movw	r30, r16
    166c:	81 91       	ld	r24, Z+
    166e:	8f 01       	movw	r16, r30
    1670:	0e 94 de 0a 	call	0x15bc	; 0x15bc <mmc_write_byte>
    1674:	21 97       	sbiw	r28, 0x01	; 1
    1676:	ff ef       	ldi	r31, 0xFF	; 255
    1678:	cf 3f       	cpi	r28, 0xFF	; 255
    167a:	df 07       	cpc	r29, r31
    167c:	b1 f7       	brne	.-20     	; 0x166a <mmc_write_block+0xe>
    167e:	df 91       	pop	r29
    1680:	cf 91       	pop	r28
    1682:	1f 91       	pop	r17
    1684:	0f 91       	pop	r16
    1686:	08 95       	ret

00001688 <mmc_fetch_byte>:
    1688:	80 91 3f 01 	lds	r24, 0x013F
    168c:	90 91 40 01 	lds	r25, 0x0140
    1690:	80 50       	subi	r24, 0x00	; 0
    1692:	92 40       	sbci	r25, 0x02	; 2
    1694:	31 f5       	brne	.+76     	; 0x16e2 <mmc_fetch_byte+0x5a>
    1696:	0e 94 b9 09 	call	0x1372	; 0x1372 <MMC_get_sec_stop>
    169a:	80 91 38 01 	lds	r24, 0x0138
    169e:	88 23       	and	r24, r24
    16a0:	19 f4       	brne	.+6      	; 0x16a8 <mmc_fetch_byte+0x20>
    16a2:	0e 94 60 01 	call	0x2c0	; 0x2c0 <fat_getnextsector>
    16a6:	13 c0       	rjmp	.+38     	; 0x16ce <mmc_fetch_byte+0x46>
    16a8:	80 91 8e 04 	lds	r24, 0x048E
    16ac:	90 91 8f 04 	lds	r25, 0x048F
    16b0:	a0 91 90 04 	lds	r26, 0x0490
    16b4:	b0 91 91 04 	lds	r27, 0x0491
    16b8:	01 96       	adiw	r24, 0x01	; 1
    16ba:	a1 1d       	adc	r26, r1
    16bc:	b1 1d       	adc	r27, r1
    16be:	80 93 8e 04 	sts	0x048E, r24
    16c2:	90 93 8f 04 	sts	0x048F, r25
    16c6:	a0 93 90 04 	sts	0x0490, r26
    16ca:	b0 93 91 04 	sts	0x0491, r27
    16ce:	60 91 8e 04 	lds	r22, 0x048E
    16d2:	70 91 8f 04 	lds	r23, 0x048F
    16d6:	80 91 90 04 	lds	r24, 0x0490
    16da:	90 91 91 04 	lds	r25, 0x0491
    16de:	0e 94 b0 0a 	call	0x1560	; 0x1560 <mmc_load_start>
    16e2:	80 91 3f 01 	lds	r24, 0x013F
    16e6:	90 91 40 01 	lds	r25, 0x0140
    16ea:	01 96       	adiw	r24, 0x01	; 1
    16ec:	90 93 40 01 	sts	0x0140, r25
    16f0:	80 93 3f 01 	sts	0x013F, r24
    16f4:	0e 94 82 09 	call	0x1304	; 0x1304 <MMC_get_sec_next>
    16f8:	99 27       	eor	r25, r25
    16fa:	08 95       	ret

000016fc <mmc_read_block>:
    16fc:	0f 93       	push	r16
    16fe:	1f 93       	push	r17
    1700:	cf 93       	push	r28
    1702:	df 93       	push	r29
    1704:	8c 01       	movw	r16, r24
    1706:	eb 01       	movw	r28, r22
    1708:	05 c0       	rjmp	.+10     	; 0x1714 <mmc_read_block+0x18>
    170a:	0e 94 44 0b 	call	0x1688	; 0x1688 <mmc_fetch_byte>
    170e:	f8 01       	movw	r30, r16
    1710:	81 93       	st	Z+, r24
    1712:	8f 01       	movw	r16, r30
    1714:	21 97       	sbiw	r28, 0x01	; 1
    1716:	ff ef       	ldi	r31, 0xFF	; 255
    1718:	cf 3f       	cpi	r28, 0xFF	; 255
    171a:	df 07       	cpc	r29, r31
    171c:	b1 f7       	brne	.-20     	; 0x170a <mmc_read_block+0xe>
    171e:	df 91       	pop	r29
    1720:	cf 91       	pop	r28
    1722:	1f 91       	pop	r17
    1724:	0f 91       	pop	r16
    1726:	08 95       	ret

00001728 <MMC_init>:
    1728:	0f 93       	push	r16
    172a:	1f 93       	push	r17
    172c:	cf 93       	push	r28
    172e:	df 93       	push	r29
    1730:	cd b7       	in	r28, 0x3d	; 61
    1732:	de b7       	in	r29, 0x3e	; 62
    1734:	60 97       	sbiw	r28, 0x10	; 16
    1736:	0f b6       	in	r0, 0x3f	; 63
    1738:	f8 94       	cli
    173a:	de bf       	out	0x3e, r29	; 62
    173c:	0f be       	out	0x3f, r0	; 63
    173e:	cd bf       	out	0x3d, r28	; 61
    1740:	10 e0       	ldi	r17, 0x00	; 0
    1742:	8f ef       	ldi	r24, 0xFF	; 255
    1744:	0e 94 52 0c 	call	0x18a4	; 0x18a4 <spi_io>
    1748:	1f 5f       	subi	r17, 0xFF	; 255
    174a:	14 36       	cpi	r17, 0x64	; 100
    174c:	d1 f7       	brne	.-12     	; 0x1742 <MMC_init+0x1a>
    174e:	2a 98       	cbi	0x05, 2	; 5
    1750:	40 e0       	ldi	r20, 0x00	; 0
    1752:	50 e0       	ldi	r21, 0x00	; 0
    1754:	60 e0       	ldi	r22, 0x00	; 0
    1756:	70 e0       	ldi	r23, 0x00	; 0
    1758:	80 e0       	ldi	r24, 0x00	; 0
    175a:	0e 94 f0 09 	call	0x13e0	; 0x13e0 <MMC_send_cmd>
    175e:	0e 94 e4 09 	call	0x13c8	; 0x13c8 <MMC_get_R1>
    1762:	81 30       	cpi	r24, 0x01	; 1
    1764:	19 f0       	breq	.+6      	; 0x176c <MMC_init+0x44>
    1766:	80 e0       	ldi	r24, 0x00	; 0
    1768:	90 e0       	ldi	r25, 0x00	; 0
    176a:	8a c0       	rjmp	.+276    	; 0x1880 <MMC_init+0x158>
    176c:	2a 9a       	sbi	0x05, 2	; 5
    176e:	8f ef       	ldi	r24, 0xFF	; 255
    1770:	0e 94 52 0c 	call	0x18a4	; 0x18a4 <spi_io>
    1774:	8f ef       	ldi	r24, 0xFF	; 255
    1776:	0e 94 52 0c 	call	0x18a4	; 0x18a4 <spi_io>
    177a:	8f ef       	ldi	r24, 0xFF	; 255
    177c:	0e 94 52 0c 	call	0x18a4	; 0x18a4 <spi_io>
    1780:	8f ef       	ldi	r24, 0xFF	; 255
    1782:	0e 94 52 0c 	call	0x18a4	; 0x18a4 <spi_io>
    1786:	2a 98       	cbi	0x05, 2	; 5
    1788:	40 e0       	ldi	r20, 0x00	; 0
    178a:	50 e0       	ldi	r21, 0x00	; 0
    178c:	60 e0       	ldi	r22, 0x00	; 0
    178e:	70 e0       	ldi	r23, 0x00	; 0
    1790:	81 e0       	ldi	r24, 0x01	; 1
    1792:	0e 94 f0 09 	call	0x13e0	; 0x13e0 <MMC_send_cmd>
    1796:	0e 94 e4 09 	call	0x13c8	; 0x13c8 <MMC_get_R1>
    179a:	81 30       	cpi	r24, 0x01	; 1
    179c:	39 f3       	breq	.-50     	; 0x176c <MMC_init+0x44>
    179e:	0e 94 87 09 	call	0x130e	; 0x130e <MMC_cleanup>
    17a2:	2a 98       	cbi	0x05, 2	; 5
    17a4:	40 e0       	ldi	r20, 0x00	; 0
    17a6:	50 e0       	ldi	r21, 0x00	; 0
    17a8:	60 e0       	ldi	r22, 0x00	; 0
    17aa:	70 e0       	ldi	r23, 0x00	; 0
    17ac:	89 e0       	ldi	r24, 0x09	; 9
    17ae:	0e 94 f0 09 	call	0x13e0	; 0x13e0 <MMC_send_cmd>
    17b2:	0e 94 e4 09 	call	0x13c8	; 0x13c8 <MMC_get_R1>
    17b6:	80 e8       	ldi	r24, 0x80	; 128
    17b8:	0e 94 de 09 	call	0x13bc	; 0x13bc <MMC_wait_for_start_token>
    17bc:	8e 01       	movw	r16, r28
    17be:	0f 5f       	subi	r16, 0xFF	; 255
    17c0:	1f 4f       	sbci	r17, 0xFF	; 255
    17c2:	8f ef       	ldi	r24, 0xFF	; 255
    17c4:	0e 94 52 0c 	call	0x18a4	; 0x18a4 <spi_io>
    17c8:	f8 01       	movw	r30, r16
    17ca:	81 93       	st	Z+, r24
    17cc:	8f 01       	movw	r16, r30
    17ce:	ce 01       	movw	r24, r28
    17d0:	41 96       	adiw	r24, 0x11	; 17
    17d2:	e8 17       	cp	r30, r24
    17d4:	f9 07       	cpc	r31, r25
    17d6:	a9 f7       	brne	.-22     	; 0x17c2 <MMC_init+0x9a>
    17d8:	8f ef       	ldi	r24, 0xFF	; 255
    17da:	0e 94 52 0c 	call	0x18a4	; 0x18a4 <spi_io>
    17de:	8f ef       	ldi	r24, 0xFF	; 255
    17e0:	0e 94 52 0c 	call	0x18a4	; 0x18a4 <spi_io>
    17e4:	0e 94 87 09 	call	0x130e	; 0x130e <MMC_cleanup>
    17e8:	2f 81       	ldd	r18, Y+7	; 0x07
    17ea:	33 27       	eor	r19, r19
    17ec:	44 27       	eor	r20, r20
    17ee:	55 27       	eor	r21, r21
    17f0:	23 70       	andi	r18, 0x03	; 3
    17f2:	30 70       	andi	r19, 0x00	; 0
    17f4:	40 70       	andi	r20, 0x00	; 0
    17f6:	50 70       	andi	r21, 0x00	; 0
    17f8:	54 2f       	mov	r21, r20
    17fa:	43 2f       	mov	r20, r19
    17fc:	32 2f       	mov	r19, r18
    17fe:	22 27       	eor	r18, r18
    1800:	88 85       	ldd	r24, Y+8	; 0x08
    1802:	28 0f       	add	r18, r24
    1804:	31 1d       	adc	r19, r1
    1806:	41 1d       	adc	r20, r1
    1808:	51 1d       	adc	r21, r1
    180a:	72 e0       	ldi	r23, 0x02	; 2
    180c:	22 0f       	add	r18, r18
    180e:	33 1f       	adc	r19, r19
    1810:	44 1f       	adc	r20, r20
    1812:	55 1f       	adc	r21, r21
    1814:	7a 95       	dec	r23
    1816:	d1 f7       	brne	.-12     	; 0x180c <MMC_init+0xe4>
    1818:	89 85       	ldd	r24, Y+9	; 0x09
    181a:	99 27       	eor	r25, r25
    181c:	66 e0       	ldi	r22, 0x06	; 6
    181e:	96 95       	lsr	r25
    1820:	87 95       	ror	r24
    1822:	6a 95       	dec	r22
    1824:	e1 f7       	brne	.-8      	; 0x181e <MMC_init+0xf6>
    1826:	aa 27       	eor	r26, r26
    1828:	97 fd       	sbrc	r25, 7
    182a:	a0 95       	com	r26
    182c:	ba 2f       	mov	r27, r26
    182e:	28 0f       	add	r18, r24
    1830:	39 1f       	adc	r19, r25
    1832:	4a 1f       	adc	r20, r26
    1834:	5b 1f       	adc	r21, r27
    1836:	20 93 8a 04 	sts	0x048A, r18
    183a:	30 93 8b 04 	sts	0x048B, r19
    183e:	40 93 8c 04 	sts	0x048C, r20
    1842:	50 93 8d 04 	sts	0x048D, r21
    1846:	80 91 41 01 	lds	r24, 0x0141
    184a:	90 91 42 01 	lds	r25, 0x0142
    184e:	80 50       	subi	r24, 0x00	; 0
    1850:	92 40       	sbci	r25, 0x02	; 2
    1852:	91 f0       	breq	.+36     	; 0x1878 <MMC_init+0x150>
    1854:	80 e0       	ldi	r24, 0x00	; 0
    1856:	92 e0       	ldi	r25, 0x02	; 2
    1858:	90 93 42 01 	sts	0x0142, r25
    185c:	80 93 41 01 	sts	0x0141, r24
    1860:	2a 98       	cbi	0x05, 2	; 5
    1862:	40 e0       	ldi	r20, 0x00	; 0
    1864:	52 e0       	ldi	r21, 0x02	; 2
    1866:	60 e0       	ldi	r22, 0x00	; 0
    1868:	70 e0       	ldi	r23, 0x00	; 0
    186a:	80 e1       	ldi	r24, 0x10	; 16
    186c:	0e 94 f0 09 	call	0x13e0	; 0x13e0 <MMC_send_cmd>
    1870:	0e 94 e4 09 	call	0x13c8	; 0x13c8 <MMC_get_R1>
    1874:	0e 94 87 09 	call	0x130e	; 0x130e <MMC_cleanup>
    1878:	10 92 3e 01 	sts	0x013E, r1
    187c:	81 e0       	ldi	r24, 0x01	; 1
    187e:	90 e0       	ldi	r25, 0x00	; 0
    1880:	60 96       	adiw	r28, 0x10	; 16
    1882:	0f b6       	in	r0, 0x3f	; 63
    1884:	f8 94       	cli
    1886:	de bf       	out	0x3e, r29	; 62
    1888:	0f be       	out	0x3f, r0	; 63
    188a:	cd bf       	out	0x3d, r28	; 61
    188c:	df 91       	pop	r29
    188e:	cf 91       	pop	r28
    1890:	1f 91       	pop	r17
    1892:	0f 91       	pop	r16
    1894:	08 95       	ret

00001896 <spi_init>:
#include <avr/interrupt.h>

#include "types.h"

void spi_init(void){
    1896:	22 9a       	sbi	0x04, 2	; 4
/*	UCSR0C = 0xc0;
	UCSR0B = 0x1e;
	UBRR0 = 1;*/
	sbi(DDRB,PB2);
	sbi(DDRB,PB3);
    1898:	23 9a       	sbi	0x04, 3	; 4
	cbi(PORTB,PB5);
    189a:	2d 98       	cbi	0x05, 5	; 5
	sbi(DDRB,PB5);
    189c:	25 9a       	sbi	0x04, 5	; 4

	outp(((1<<MSTR)|(1<<SPE) ), SPCR );	// enable SPI interface (8MHz/4=2MHz)
    189e:	80 e5       	ldi	r24, 0x50	; 80
    18a0:	8c bd       	out	0x2c, r24	; 44
    18a2:	08 95       	ret

000018a4 <spi_io>:
};

inline u08 spi_io(u08 data){
    18a4:	8e bd       	out	0x2e, r24	; 46
/*	UDR0 = data;
	while (!(UCSR0A&(1<<RXC0)));
	return UDR0;*/
	outp(data, SPDR);
	while((inp(SPSR)&(1<<SPIF)) == 0x00){};
    18a6:	0d b4       	in	r0, 0x2d	; 45
    18a8:	07 fe       	sbrs	r0, 7
    18aa:	fd cf       	rjmp	.-6      	; 0x18a6 <spi_io+0x2>
	return inp(SPDR);
    18ac:	8e b5       	in	r24, 0x2e	; 46
};
    18ae:	99 27       	eor	r25, r25
    18b0:	08 95       	ret
