Archive member included because of file (symbol)

c:/tools/programmierung/winavr/bin/../lib/gcc/avr/4.1.1/avr4\libgcc.a(_copy_data.o)
                              delay.o (__do_copy_data)
c:/tools/programmierung/winavr/bin/../lib/gcc/avr/4.1.1/avr4\libgcc.a(_clear_bss.o)
                              delay.o (__do_clear_bss)

Allocating common symbols
Common symbol       size              file

fat_size            0x2               fat16.o
sharedmem           0x200             main.o
sect_offs           0x2               fat16.o
startfatoffs        0x2               fat16.o
startfatcnt         0x2               fat16.o
file_len            0x4               mmc.o
last_rdoffs         0x1               fat16.o
last_sector         0x4               mmc.o
file_pos            0x2               fat16.o
cluster_size        0x1               fat16.o
fat_filedata        0x2c              fat16.o
time                0x4               main.o
clcnt               0x2               fat16.o
sect                0x4               mmc.o
tx_buf              0x100             main.o
fat_cnt             0x1               fat16.o
root_pos            0x2               fat16.o
fat_pos             0x2               fat16.o

Discarded input sections

 .stabstr       0x00000000        0x0 c:/tools/programmierung/winavr/bin/../lib/gcc/avr/4.1.1/../../../../avr/lib/avr4/crtm88.o

Memory Configuration

Name             Origin             Length             Attributes
text             0x00000000         0x00002000         xr
data             0x00800060         0x0000ffa0         rw !x
eeprom           0x00810000         0x00010000         rw !x
*default*        0x00000000         0xffffffff

Linker script and memory map

Address of section .data set to 0x800100
LOAD c:/tools/programmierung/winavr/bin/../lib/gcc/avr/4.1.1/../../../../avr/lib/avr4/crtm88.o
LOAD delay.o
LOAD fat16.o
LOAD main.o
LOAD mmc.o
LOAD spi.o
LOAD c:/tools/programmierung/winavr/bin/../lib/gcc/avr/4.1.1/avr4\libgcc.a
LOAD c:/tools/programmierung/winavr/bin/../lib/gcc/avr/4.1.1/../../../../avr/lib/avr4\libc.a
LOAD c:/tools/programmierung/winavr/bin/../lib/gcc/avr/4.1.1/avr4\libgcc.a

.hash
 *(.hash)

.dynsym
 *(.dynsym)

.dynstr
 *(.dynstr)

.gnu.version
 *(.gnu.version)

.gnu.version_d
 *(.gnu.version_d)

.gnu.version_r
 *(.gnu.version_r)

.rel.init
 *(.rel.init)

.rela.init
 *(.rela.init)

.rel.text
 *(.rel.text)
 *(.rel.text.*)
 *(.rel.gnu.linkonce.t*)

.rela.text
 *(.rela.text)
 *(.rela.text.*)
 *(.rela.gnu.linkonce.t*)

.rel.fini
 *(.rel.fini)

.rela.fini
 *(.rela.fini)

.rel.rodata
 *(.rel.rodata)
 *(.rel.rodata.*)
 *(.rel.gnu.linkonce.r*)

.rela.rodata
 *(.rela.rodata)
 *(.rela.rodata.*)
 *(.rela.gnu.linkonce.r*)

.rel.data
 *(.rel.data)
 *(.rel.data.*)
 *(.rel.gnu.linkonce.d*)

.rela.data
 *(.rela.data)
 *(.rela.data.*)
 *(.rela.gnu.linkonce.d*)

.rel.ctors
 *(.rel.ctors)

.rela.ctors
 *(.rela.ctors)

.rel.dtors
 *(.rel.dtors)

.rela.dtors
 *(.rela.dtors)

.rel.got
 *(.rel.got)

.rela.got
 *(.rela.got)

.rel.bss
 *(.rel.bss)

.rela.bss
 *(.rela.bss)

.rel.plt
 *(.rel.plt)

.rela.plt
 *(.rela.plt)

.text           0x00000000     0x18b2
 *(.vectors)
 .vectors       0x00000000       0x34 c:/tools/programmierung/winavr/bin/../lib/gcc/avr/4.1.1/../../../../avr/lib/avr4/crtm88.o
                0x00000000                __vectors
                0x00000000                __vector_default
 *(.vectors)
 *(.progmem.gcc*)
 *(.progmem*)
 .progmem.data  0x00000034        0xf fat16.o
                0x00000034                FILEENTRY
                0x00000044                . = ALIGN (0x2)
 *fill*         0x00000043        0x1 00
                0x00000044                __trampolines_start = .
 *(.trampolines)
 .trampolines   0x00000044        0x0 linker stubs
 *(.trampolines*)
                0x00000044                __trampolines_end = .
 *(.jumptables)
 *(.jumptables*)
 *(.lowtext)
 *(.lowtext*)
                0x00000044                __ctors_start = .
 *(.ctors)
                0x00000044                __ctors_end = .
                0x00000044                __dtors_start = .
 *(.dtors)
                0x00000044                __dtors_end = .
 SORT(*)(.ctors)
 SORT(*)(.dtors)
 *(.init0)
 .init0         0x00000044        0x0 c:/tools/programmierung/winavr/bin/../lib/gcc/avr/4.1.1/../../../../avr/lib/avr4/crtm88.o
                0x00000044                __init
 *(.init0)
 *(.init1)
 *(.init1)
 *(.init2)
 .init2         0x00000044        0xc c:/tools/programmierung/winavr/bin/../lib/gcc/avr/4.1.1/../../../../avr/lib/avr4/crtm88.o
 *(.init2)
 *(.init3)
 *(.init3)
 *(.init4)
 .init4         0x00000050       0x16 c:/tools/programmierung/winavr/bin/../lib/gcc/avr/4.1.1/avr4\libgcc.a(_copy_data.o)
                0x00000050                __do_copy_data
 .init4         0x00000066       0x10 c:/tools/programmierung/winavr/bin/../lib/gcc/avr/4.1.1/avr4\libgcc.a(_clear_bss.o)
                0x00000066                __do_clear_bss
 *(.init4)
 *(.init5)
 *(.init5)
 *(.init6)
 *(.init6)
 *(.init7)
 *(.init7)
 *(.init8)
 *(.init8)
 *(.init9)
 .init9         0x00000076        0x2 c:/tools/programmierung/winavr/bin/../lib/gcc/avr/4.1.1/../../../../avr/lib/avr4/crtm88.o
 *(.init9)
 *(.text)
 .text          0x00000078        0x2 c:/tools/programmierung/winavr/bin/../lib/gcc/avr/4.1.1/../../../../avr/lib/avr4/crtm88.o
                0x00000078                __vector_22
                0x00000078                __vector_1
                0x00000078                __vector_24
                0x00000078                __vector_12
                0x00000078                __bad_interrupt
                0x00000078                __vector_6
                0x00000078                __vector_3
                0x00000078                __vector_23
                0x00000078                __vector_25
                0x00000078                __vector_13
                0x00000078                __vector_17
                0x00000078                __vector_19
                0x00000078                __vector_7
                0x00000078                __vector_5
                0x00000078                __vector_4
                0x00000078                __vector_9
                0x00000078                __vector_2
                0x00000078                __vector_15
                0x00000078                __vector_8
                0x00000078                __vector_14
                0x00000078                __vector_10
                0x00000078                __vector_16
                0x00000078                __vector_18
                0x00000078                __vector_20
 .text          0x0000007a       0x32 delay.o
                0x0000007a                delay_us
                0x0000008e                delay_ms
 .text          0x000000ac      0xc20 fat16.o
                0x000002c0                fat_getnextsector
                0x000007e8                fat_delete_file
                0x000004aa                fat_new_file
                0x000003c8                fat_init
                0x00000bf8                fat_read_filedata
                0x00000bba                fat_count_files
                0x000007ba                fat_closefile
                0x00000c46                fat_openfile
 .text          0x00000ccc      0x62c main.o
                0x00000d02                __vector_11
                0x0000109a                main
                0x00000d5e                __vector_21
 .text          0x000012f8      0x59e mmc.o
                0x00001586                mmc_read_sector
                0x00001688                mmc_fetch_byte
                0x000012f8                MMC_hw_init
                0x00001346                mmc_complete_write
                0x0000165c                mmc_write_block
                0x000014a2                mmc_write_start
                0x000015bc                mmc_write_byte
                0x000016fc                mmc_read_block
                0x00001390                mmc_complete_read
                0x00001560                mmc_load_start
                0x00001728                MMC_init
                0x000014c8                mmc_write_sector
 .text          0x00001896       0x1c spi.o
                0x000018a4                spi_io
                0x00001896                spi_init
 .text          0x000018b2        0x0 c:/tools/programmierung/winavr/bin/../lib/gcc/avr/4.1.1/avr4\libgcc.a(_copy_data.o)
 .text          0x000018b2        0x0 c:/tools/programmierung/winavr/bin/../lib/gcc/avr/4.1.1/avr4\libgcc.a(_clear_bss.o)
                0x000018b2                . = ALIGN (0x2)
 *(.text.*)
 .text.libgcc   0x000018b2        0x0 c:/tools/programmierung/winavr/bin/../lib/gcc/avr/4.1.1/avr4\libgcc.a(_copy_data.o)
 .text.libgcc   0x000018b2        0x0 c:/tools/programmierung/winavr/bin/../lib/gcc/avr/4.1.1/avr4\libgcc.a(_clear_bss.o)
                0x000018b2                . = ALIGN (0x2)
 *(.fini9)
 *(.fini9)
 *(.fini8)
 *(.fini8)
 *(.fini7)
 *(.fini7)
 *(.fini6)
 *(.fini6)
 *(.fini5)
 *(.fini5)
 *(.fini4)
 *(.fini4)
 *(.fini3)
 *(.fini3)
 *(.fini2)
 *(.fini2)
 *(.fini1)
 *(.fini1)
 *(.fini0)
 *(.fini0)
                0x000018b2                _etext = .

.data           0x00800100       0x34 load address 0x000018b2
                0x00800100                PROVIDE (__data_start, .)
 *(.data)
 .data          0x00800100        0x0 c:/tools/programmierung/winavr/bin/../lib/gcc/avr/4.1.1/../../../../avr/lib/avr4/crtm88.o
 .data          0x00800100        0x0 delay.o
 .data          0x00800100        0x0 fat16.o
 .data          0x00800100       0x34 main.o
                0x00800133                channels
 .data          0x00800134        0x0 mmc.o
 .data          0x00800134        0x0 spi.o
 .data          0x00800134        0x0 c:/tools/programmierung/winavr/bin/../lib/gcc/avr/4.1.1/avr4\libgcc.a(_copy_data.o)
 .data          0x00800134        0x0 c:/tools/programmierung/winavr/bin/../lib/gcc/avr/4.1.1/avr4\libgcc.a(_clear_bss.o)
 *(.data*)
 *(.rodata)
 *(.rodata*)
 *(.gnu.linkonce.d*)
                0x00800134                . = ALIGN (0x2)
                0x00800134                _edata = .
                0x00800134                PROVIDE (__data_end, .)

.bss            0x00800134      0x35e
                0x00800134                PROVIDE (__bss_start, .)
 *(.bss)
 .bss           0x00800134        0x0 c:/tools/programmierung/winavr/bin/../lib/gcc/avr/4.1.1/../../../../avr/lib/avr4/crtm88.o
 .bss           0x00800134        0x0 delay.o
 .bss           0x00800134        0x6 fat16.o
                0x00800134                last_rdsect
                0x00800138                fat_directaccess
                0x00800139                fat_cardfull
                0x00800136                maxfilenum
                0x00800137                filemode
 .bss           0x0080013a        0x4 main.o
                0x0080013b                state
                0x0080013a                tx_wrp
                0x0080013d                file_cnt
                0x0080013c                sample
 .bss           0x0080013e        0x5 mmc.o
                0x0080013e                mmc_open
                0x0080013f                bufpos
 .bss           0x00800143        0x0 spi.o
 .bss           0x00800143        0x0 c:/tools/programmierung/winavr/bin/../lib/gcc/avr/4.1.1/avr4\libgcc.a(_copy_data.o)
 .bss           0x00800143        0x0 c:/tools/programmierung/winavr/bin/../lib/gcc/avr/4.1.1/avr4\libgcc.a(_clear_bss.o)
 *(.bss*)
 *(COMMON)
 COMMON         0x00800143       0x3f fat16.o
                0x00800143                fat_size
                0x00800145                sect_offs
                0x00800147                startfatoffs
                0x00800149                startfatcnt
                0x0080014b                last_rdoffs
                0x0080014c                file_pos
                0x0080014e                cluster_size
                0x0080014f                fat_filedata
                0x0080017b                clcnt
                0x0080017d                fat_cnt
                0x0080017e                root_pos
                0x00800180                fat_pos
 COMMON         0x00800182      0x304 main.o
                0x00800182                sharedmem
                0x00800382                time
                0x00800386                tx_buf
 COMMON         0x00800486        0xc mmc.o
                0x00800486                file_len
                0x0080048a                last_sector
                0x0080048e                sect
                0x00800492                PROVIDE (__bss_end, .)
                0x000018b2                __data_load_start = LOADADDR (.data)
                0x000018e6                __data_load_end = (__data_load_start + SIZEOF (.data))

.noinit         0x00800492        0x0
                0x00800492                PROVIDE (__noinit_start, .)
 *(.noinit*)
                0x00800492                PROVIDE (__noinit_end, .)
                0x00800492                _end = .
                0x00800492                PROVIDE (__heap_start, .)

.eeprom         0x00810000        0x0
 *(.eeprom*)
                0x00810000                __eeprom_end = .

.stab           0x00000000      0x36c
 *(.stab)
 .stab          0x00000000      0x36c c:/tools/programmierung/winavr/bin/../lib/gcc/avr/4.1.1/../../../../avr/lib/avr4/crtm88.o

.stabstr        0x00000000       0x84
 *(.stabstr)
 .stabstr       0x00000000       0x84 c:/tools/programmierung/winavr/bin/../lib/gcc/avr/4.1.1/../../../../avr/lib/avr4/crtm88.o

.stab.excl
 *(.stab.excl)

.stab.exclstr
 *(.stab.exclstr)

.stab.index
 *(.stab.index)

.stab.indexstr
 *(.stab.indexstr)

.comment
 *(.comment)

.debug
 *(.debug)

.line
 *(.line)

.debug_srcinfo
 *(.debug_srcinfo)

.debug_sfnames
 *(.debug_sfnames)

.debug_aranges  0x00000000       0xa0
 *(.debug_aranges)
 .debug_aranges
                0x00000000       0x20 delay.o
 .debug_aranges
                0x00000020       0x20 fat16.o
 .debug_aranges
                0x00000040       0x20 main.o
 .debug_aranges
                0x00000060       0x20 mmc.o
 .debug_aranges
                0x00000080       0x20 spi.o

.debug_pubnames
                0x00000000      0x3d5
 *(.debug_pubnames)
 .debug_pubnames
                0x00000000       0x2c delay.o
 .debug_pubnames
                0x0000002c      0x1b1 fat16.o
 .debug_pubnames
                0x000001dd       0x97 main.o
 .debug_pubnames
                0x00000274      0x137 mmc.o
 .debug_pubnames
                0x000003ab       0x2a spi.o

.debug_info     0x00000000     0x15de
 *(.debug_info)
 .debug_info    0x00000000       0xc7 delay.o
 .debug_info    0x000000c7      0x985 fat16.o
 .debug_info    0x00000a4c      0x450 main.o
 .debug_info    0x00000e9c      0x69d mmc.o
 .debug_info    0x00001539       0xa5 spi.o
 *(.gnu.linkonce.wi.*)

.debug_abbrev   0x00000000      0x807
 *(.debug_abbrev)
 .debug_abbrev  0x00000000       0x81 delay.o
 .debug_abbrev  0x00000081      0x2ab fat16.o
 .debug_abbrev  0x0000032c      0x1d2 main.o
 .debug_abbrev  0x000004fe      0x297 mmc.o
 .debug_abbrev  0x00000795       0x72 spi.o

.debug_line     0x00000000     0x1717
 *(.debug_line)
 .debug_line    0x00000000       0xe8 delay.o
 .debug_line    0x000000e8      0x9fd fat16.o
 .debug_line    0x00000ae5      0x59f main.o
 .debug_line    0x00001084      0x595 mmc.o
 .debug_line    0x00001619       0xfe spi.o

.debug_frame    0x00000000      0x330
 *(.debug_frame)
 .debug_frame   0x00000000       0x30 delay.o
 .debug_frame   0x00000030       0xd0 fat16.o
 .debug_frame   0x00000100       0x90 main.o
 .debug_frame   0x00000190      0x170 mmc.o
 .debug_frame   0x00000300       0x30 spi.o

.debug_str      0x00000000      0x7d8
 *(.debug_str)
 .debug_str     0x00000000       0x87 delay.o
                                 0xbb (size before relaxing)
 .debug_str     0x00000087      0x3f2 fat16.o
                                0x4bf (size before relaxing)
 .debug_str     0x00000479      0x109 main.o
                                0x243 (size before relaxing)
 .debug_str     0x00000582      0x23d mmc.o
                                0x30f (size before relaxing)
 .debug_str     0x000007bf       0x19 spi.o
                                 0xbc (size before relaxing)

.debug_loc      0x00000000      0xa86
 *(.debug_loc)
 .debug_loc     0x00000000      0x4be fat16.o
 .debug_loc     0x000004be      0x2b0 main.o
 .debug_loc     0x0000076e      0x305 mmc.o
 .debug_loc     0x00000a73       0x13 spi.o

.debug_macinfo
 *(.debug_macinfo)
OUTPUT(MrData.elf elf32-avr)
LOAD linker stubs
