Archive member included because of file (symbol)

c:/winavr/bin/../lib/gcc/avr/4.2.2/avr4\libgcc.a(_exit.o)
                              c:/winavr/bin/../lib/gcc/avr/4.2.2/../../../../avr/lib/avr4/crtm8.o (exit)
c:/winavr/bin/../lib/gcc/avr/4.2.2/avr4\libgcc.a(_copy_data.o)
                              E:\Projects\_1wire_i2c_monitor\FirmWare\1wm\1wm\.objs\main.o (__do_copy_data)
c:/winavr/bin/../lib/gcc/avr/4.2.2/avr4\libgcc.a(_clear_bss.o)
                              E:\Projects\_1wire_i2c_monitor\FirmWare\1wm\1wm\.objs\main.o (__do_clear_bss)

Allocating common symbols
Common symbol       size              file

Mode                0x1               E:\Projects\_1wire_i2c_monitor\FirmWare\1wm\1wm\.objs\main.o
LineBuf             0xff              E:\Projects\_1wire_i2c_monitor\FirmWare\1wm\1wm\.objs\main.o
hSer                0x3               E:\Projects\_1wire_i2c_monitor\FirmWare\1wm\1wm\.objs\printf.o
LBInd               0x1               E:\Projects\_1wire_i2c_monitor\FirmWare\1wm\1wm\.objs\1wire.o
ConsolBuf           0xff              E:\Projects\_1wire_i2c_monitor\FirmWare\1wm\1wm\.objs\main.o

Memory Configuration

Name             Origin             Length             Attributes
text             0x00000000         0x00002000         xr
data             0x00800060         0x0000ffa0         rw !x
eeprom           0x00810000         0x00010000         rw !x
fuse             0x00820000         0x00000400         rw !x
lock             0x00830000         0x00000400         rw !x
signature        0x00840000         0x00000400         rw !x
*default*        0x00000000         0xffffffff

Linker script and memory map

LOAD c:/winavr/bin/../lib/gcc/avr/4.2.2/../../../../avr/lib/avr4/crtm8.o
LOAD E:\Projects\_1wire_i2c_monitor\FirmWare\1wm\1wm\.objs\main.o
LOAD E:\Projects\_1wire_i2c_monitor\FirmWare\1wm\1wm\.objs\printf.o
LOAD E:\Projects\_1wire_i2c_monitor\FirmWare\1wm\1wm\.objs\1wire.o
LOAD c:/winavr/bin/../lib/gcc/avr/4.2.2/avr4\libgcc.a
LOAD C:\WinAVR\avr\lib\libm.a
LOAD c:/winavr/bin/../lib/gcc/avr/4.2.2/avr4\libgcc.a
LOAD C:\WinAVR\avr\lib\libc.a
LOAD c:/winavr/bin/../lib/gcc/avr/4.2.2/avr4\libgcc.a

.hash
 *(.hash)

.dynsym
 *(.dynsym)

.dynstr
 *(.dynstr)

.gnu.version
 *(.gnu.version)

.gnu.version_d
 *(.gnu.version_d)

.gnu.version_r
 *(.gnu.version_r)

.rel.init
 *(.rel.init)

.rela.init
 *(.rela.init)

.rel.text
 *(.rel.text)
 *(.rel.text.*)
 *(.rel.gnu.linkonce.t*)

.rela.text
 *(.rela.text)
 *(.rela.text.*)
 *(.rela.gnu.linkonce.t*)

.rel.fini
 *(.rel.fini)

.rela.fini
 *(.rela.fini)

.rel.rodata
 *(.rel.rodata)
 *(.rel.rodata.*)
 *(.rel.gnu.linkonce.r*)

.rela.rodata
 *(.rela.rodata)
 *(.rela.rodata.*)
 *(.rela.gnu.linkonce.r*)

.rel.data
 *(.rel.data)
 *(.rel.data.*)
 *(.rel.gnu.linkonce.d*)

.rela.data
 *(.rela.data)
 *(.rela.data.*)
 *(.rela.gnu.linkonce.d*)

.rel.ctors
 *(.rel.ctors)

.rela.ctors
 *(.rela.ctors)

.rel.dtors
 *(.rel.dtors)

.rela.dtors
 *(.rela.dtors)

.rel.got
 *(.rel.got)

.rela.got
 *(.rela.got)

.rel.bss
 *(.rel.bss)

.rela.bss
 *(.rela.bss)

.rel.plt
 *(.rel.plt)

.rela.plt
 *(.rela.plt)

.text           0x00000000      0x888
 *(.vectors)
 .vectors       0x00000000       0x26 c:/winavr/bin/../lib/gcc/avr/4.2.2/../../../../avr/lib/avr4/crtm8.o
                0x00000000                __vectors
                0x00000000                __vector_default
 *(.vectors)
 *(.progmem.gcc*)
 *(.progmem*)
 .progmem.data  0x00000026      0x26f E:\Projects\_1wire_i2c_monitor\FirmWare\1wm\1wm\.objs\main.o
                0x000000bc                String_4
                0x000000d9                String_5
                0x00000026                String_reset
                0x000001ae                String_16
                0x00000158                String_14
                0x00000173                String_15
                0x00000235                String_rm
                0x0000012f                String_9
                0x00000036                String_0
                0x00000078                String_1
                0x00000201                String_18
                0x000001ec                String_17
                0x000000f2                String_8
                0x00000266                String_err
                0x000000a5                String_3
                0x0000008a                String_2
                0x0000024e                String_sm
                0x0000014e                String_13
                0x00000296                . = ALIGN (0x2)
 *fill*         0x00000295        0x1 00
                0x00000296                __trampolines_start = .
 *(.trampolines)
 .trampolines   0x00000296        0x0 linker stubs
 *(.trampolines*)
                0x00000296                __trampolines_end = .
 *(.jumptables)
 *(.jumptables*)
 *(.lowtext)
 *(.lowtext*)
                0x00000296                __ctors_start = .
 *(.ctors)
                0x00000296                __ctors_end = .
                0x00000296                __dtors_start = .
 *(.dtors)
                0x00000296                __dtors_end = .
 SORT(*)(.ctors)
 SORT(*)(.dtors)
 *(.init0)
 .init0         0x00000296        0x0 c:/winavr/bin/../lib/gcc/avr/4.2.2/../../../../avr/lib/avr4/crtm8.o
                0x00000296                __init
 *(.init0)
 *(.init1)
 *(.init1)
 *(.init2)
 .init2         0x00000296        0xc c:/winavr/bin/../lib/gcc/avr/4.2.2/../../../../avr/lib/avr4/crtm8.o
 *(.init2)
 *(.init3)
 *(.init3)
 *(.init4)
 .init4         0x000002a2       0x16 c:/winavr/bin/../lib/gcc/avr/4.2.2/avr4\libgcc.a(_copy_data.o)
                0x000002a2                __do_copy_data
 .init4         0x000002b8       0x10 c:/winavr/bin/../lib/gcc/avr/4.2.2/avr4\libgcc.a(_clear_bss.o)
                0x000002b8                __do_clear_bss
 *(.init4)
 *(.init5)
 *(.init5)
 *(.init6)
 *(.init6)
 *(.init7)
 *(.init7)
 *(.init8)
 *(.init8)
 *(.init9)
 .init9         0x000002c8        0x4 c:/winavr/bin/../lib/gcc/avr/4.2.2/../../../../avr/lib/avr4/crtm8.o
 *(.init9)
 *(.text)
 .text          0x000002cc        0x2 c:/winavr/bin/../lib/gcc/avr/4.2.2/../../../../avr/lib/avr4/crtm8.o
                0x000002cc                __vector_12
                0x000002cc                __bad_interrupt
                0x000002cc                __vector_3
                0x000002cc                __vector_13
                0x000002cc                __vector_17
                0x000002cc                __vector_7
                0x000002cc                __vector_5
                0x000002cc                __vector_4
                0x000002cc                __vector_9
                0x000002cc                __vector_15
                0x000002cc                __vector_8
                0x000002cc                __vector_14
                0x000002cc                __vector_10
                0x000002cc                __vector_16
                0x000002cc                __vector_18
 .text          0x000002ce      0x16c E:\Projects\_1wire_i2c_monitor\FirmWare\1wm\1wm\.objs\main.o
                0x000002ce                wait_05s
                0x000002e4                main
 .text          0x0000043a      0x126 E:\Projects\_1wire_i2c_monitor\FirmWare\1wm\1wm\.objs\printf.o
                0x00000514                s_printf
                0x000004f6                m_printf
                0x0000044a                __vector_11
                0x0000043a                USART0_Init
                0x0000053e                print_in_buff
 .text          0x00000560      0x326 E:\Projects\_1wire_i2c_monitor\FirmWare\1wm\1wm\.objs\1wire.o
                0x00000584                __vector_1
                0x00000742                TxByte
                0x000006aa                __vector_6
                0x0000071c                TxResetPuls
                0x00000784                Exeq1Wire
                0x000005a4                __vector_2
                0x00000730                TxPresenPuls
                0x00000560                Hex2Byte
 .text          0x00000886        0x0 c:/winavr/bin/../lib/gcc/avr/4.2.2/avr4\libgcc.a(_exit.o)
 .text          0x00000886        0x0 c:/winavr/bin/../lib/gcc/avr/4.2.2/avr4\libgcc.a(_copy_data.o)
 .text          0x00000886        0x0 c:/winavr/bin/../lib/gcc/avr/4.2.2/avr4\libgcc.a(_clear_bss.o)
                0x00000886                . = ALIGN (0x2)
 *(.text.*)
 .text.libgcc   0x00000886        0x0 c:/winavr/bin/../lib/gcc/avr/4.2.2/avr4\libgcc.a(_exit.o)
 .text.libgcc   0x00000886        0x0 c:/winavr/bin/../lib/gcc/avr/4.2.2/avr4\libgcc.a(_copy_data.o)
 .text.libgcc   0x00000886        0x0 c:/winavr/bin/../lib/gcc/avr/4.2.2/avr4\libgcc.a(_clear_bss.o)
                0x00000886                . = ALIGN (0x2)
 *(.fini9)
 .fini9         0x00000886        0x0 c:/winavr/bin/../lib/gcc/avr/4.2.2/avr4\libgcc.a(_exit.o)
                0x00000886                exit
                0x00000886                _exit
 *(.fini9)
 *(.fini8)
 *(.fini8)
 *(.fini7)
 *(.fini7)
 *(.fini6)
 *(.fini6)
 *(.fini5)
 *(.fini5)
 *(.fini4)
 *(.fini4)
 *(.fini3)
 *(.fini3)
 *(.fini2)
 *(.fini2)
 *(.fini1)
 *(.fini1)
 *(.fini0)
 .fini0         0x00000886        0x2 c:/winavr/bin/../lib/gcc/avr/4.2.2/avr4\libgcc.a(_exit.o)
 *(.fini0)
                0x00000888                _etext = .

.data           0x00800060       0x10 load address 0x00000888
                0x00800060                PROVIDE (__data_start, .)
 *(.data)
 .data          0x00800060        0x0 c:/winavr/bin/../lib/gcc/avr/4.2.2/../../../../avr/lib/avr4/crtm8.o
 .data          0x00800060        0x0 E:\Projects\_1wire_i2c_monitor\FirmWare\1wm\1wm\.objs\main.o
 .data          0x00800060        0x0 E:\Projects\_1wire_i2c_monitor\FirmWare\1wm\1wm\.objs\printf.o
 .data          0x00800060       0x10 E:\Projects\_1wire_i2c_monitor\FirmWare\1wm\1wm\.objs\1wire.o
                0x00800060                DeCodeArray
 .data          0x00800070        0x0 c:/winavr/bin/../lib/gcc/avr/4.2.2/avr4\libgcc.a(_exit.o)
 .data          0x00800070        0x0 c:/winavr/bin/../lib/gcc/avr/4.2.2/avr4\libgcc.a(_copy_data.o)
 .data          0x00800070        0x0 c:/winavr/bin/../lib/gcc/avr/4.2.2/avr4\libgcc.a(_clear_bss.o)
 *(.data*)
 *(.rodata)
 *(.rodata*)
 *(.gnu.linkonce.d*)
                0x00800070                . = ALIGN (0x2)
                0x00800070                _edata = .
                0x00800070                PROVIDE (__data_end, .)

.bss            0x00800070      0x203 load address 0x00000898
                0x00800070                PROVIDE (__bss_start, .)
 *(.bss)
 .bss           0x00800070        0x0 c:/winavr/bin/../lib/gcc/avr/4.2.2/../../../../avr/lib/avr4/crtm8.o
 .bss           0x00800070        0x0 E:\Projects\_1wire_i2c_monitor\FirmWare\1wm\1wm\.objs\main.o
 .bss           0x00800070        0x0 E:\Projects\_1wire_i2c_monitor\FirmWare\1wm\1wm\.objs\printf.o
 .bss           0x00800070        0x0 E:\Projects\_1wire_i2c_monitor\FirmWare\1wm\1wm\.objs\1wire.o
 .bss           0x00800070        0x0 c:/winavr/bin/../lib/gcc/avr/4.2.2/avr4\libgcc.a(_exit.o)
 .bss           0x00800070        0x0 c:/winavr/bin/../lib/gcc/avr/4.2.2/avr4\libgcc.a(_copy_data.o)
 .bss           0x00800070        0x0 c:/winavr/bin/../lib/gcc/avr/4.2.2/avr4\libgcc.a(_clear_bss.o)
 *(.bss*)
 *(COMMON)
 COMMON         0x00800070      0x1ff E:\Projects\_1wire_i2c_monitor\FirmWare\1wm\1wm\.objs\main.o
                0x00800070                Mode
                0x00800071                LineBuf
                0x00800170                ConsolBuf
 COMMON         0x0080026f        0x3 E:\Projects\_1wire_i2c_monitor\FirmWare\1wm\1wm\.objs\printf.o
                0x0080026f                hSer
 COMMON         0x00800272        0x1 E:\Projects\_1wire_i2c_monitor\FirmWare\1wm\1wm\.objs\1wire.o
                0x00800272                LBInd
                0x00800273                PROVIDE (__bss_end, .)
                0x00000888                __data_load_start = LOADADDR (.data)
                0x00000898                __data_load_end = (__data_load_start + SIZEOF (.data))

.noinit         0x00800273        0x0
                0x00800273                PROVIDE (__noinit_start, .)
 *(.noinit*)
                0x00800273                PROVIDE (__noinit_end, .)
                0x00800273                _end = .
                0x00800273                PROVIDE (__heap_start, .)

.eeprom         0x00810000        0x0
 *(.eeprom*)
                0x00810000                __eeprom_end = .

.fuse
 *(.fuse)
 *(.lfuse)
 *(.hfuse)
 *(.efuse)

.lock
 *(.lock*)

.signature
 *(.signature*)

.stab           0x00000000      0x378
 *(.stab)
 .stab          0x00000000      0x378 c:/winavr/bin/../lib/gcc/avr/4.2.2/../../../../avr/lib/avr4/crtm8.o

.stabstr        0x00000000       0x5f
 *(.stabstr)
 .stabstr       0x00000000       0x5f c:/winavr/bin/../lib/gcc/avr/4.2.2/../../../../avr/lib/avr4/crtm8.o

.stab.excl
 *(.stab.excl)

.stab.exclstr
 *(.stab.exclstr)

.stab.index
 *(.stab.index)

.stab.indexstr
 *(.stab.indexstr)

.comment
 *(.comment)

.debug
 *(.debug)

.line
 *(.line)

.debug_srcinfo
 *(.debug_srcinfo)

.debug_sfnames
 *(.debug_sfnames)

.debug_aranges  0x00000000       0x60
 *(.debug_aranges)
 .debug_aranges
                0x00000000       0x20 E:\Projects\_1wire_i2c_monitor\FirmWare\1wm\1wm\.objs\main.o
 .debug_aranges
                0x00000020       0x20 E:\Projects\_1wire_i2c_monitor\FirmWare\1wm\1wm\.objs\printf.o
 .debug_aranges
                0x00000040       0x20 E:\Projects\_1wire_i2c_monitor\FirmWare\1wm\1wm\.objs\1wire.o

.debug_pubnames
                0x00000000      0x270
 *(.debug_pubnames)
 .debug_pubnames
                0x00000000      0x143 E:\Projects\_1wire_i2c_monitor\FirmWare\1wm\1wm\.objs\main.o
 .debug_pubnames
                0x00000143       0x67 E:\Projects\_1wire_i2c_monitor\FirmWare\1wm\1wm\.objs\printf.o
 .debug_pubnames
                0x000001aa       0xc6 E:\Projects\_1wire_i2c_monitor\FirmWare\1wm\1wm\.objs\1wire.o

.debug_info     0x00000000      0x9db
 *(.debug_info)
 .debug_info    0x00000000      0x448 E:\Projects\_1wire_i2c_monitor\FirmWare\1wm\1wm\.objs\main.o
 .debug_info    0x00000448      0x218 E:\Projects\_1wire_i2c_monitor\FirmWare\1wm\1wm\.objs\printf.o
 .debug_info    0x00000660      0x37b E:\Projects\_1wire_i2c_monitor\FirmWare\1wm\1wm\.objs\1wire.o
 *(.gnu.linkonce.wi.*)

.debug_abbrev   0x00000000      0x3c9
 *(.debug_abbrev)
 .debug_abbrev  0x00000000      0x118 E:\Projects\_1wire_i2c_monitor\FirmWare\1wm\1wm\.objs\main.o
 .debug_abbrev  0x00000118      0x120 E:\Projects\_1wire_i2c_monitor\FirmWare\1wm\1wm\.objs\printf.o
 .debug_abbrev  0x00000238      0x191 E:\Projects\_1wire_i2c_monitor\FirmWare\1wm\1wm\.objs\1wire.o

.debug_line     0x00000000      0x7e4
 *(.debug_line)
 .debug_line    0x00000000      0x217 E:\Projects\_1wire_i2c_monitor\FirmWare\1wm\1wm\.objs\main.o
 .debug_line    0x00000217      0x1c9 E:\Projects\_1wire_i2c_monitor\FirmWare\1wm\1wm\.objs\printf.o
 .debug_line    0x000003e0      0x404 E:\Projects\_1wire_i2c_monitor\FirmWare\1wm\1wm\.objs\1wire.o

.debug_frame    0x00000000      0x120
 *(.debug_frame)
 .debug_frame   0x00000000       0x30 E:\Projects\_1wire_i2c_monitor\FirmWare\1wm\1wm\.objs\main.o
 .debug_frame   0x00000030       0x60 E:\Projects\_1wire_i2c_monitor\FirmWare\1wm\1wm\.objs\printf.o
 .debug_frame   0x00000090       0x90 E:\Projects\_1wire_i2c_monitor\FirmWare\1wm\1wm\.objs\1wire.o

.debug_str      0x00000000      0x2a9
 *(.debug_str)
 .debug_str     0x00000000      0x176 E:\Projects\_1wire_i2c_monitor\FirmWare\1wm\1wm\.objs\main.o
                                0x1aa (size before relaxing)
 .debug_str     0x00000176       0x69 E:\Projects\_1wire_i2c_monitor\FirmWare\1wm\1wm\.objs\printf.o
                                0x135 (size before relaxing)
 .debug_str     0x000001df       0xca E:\Projects\_1wire_i2c_monitor\FirmWare\1wm\1wm\.objs\1wire.o
                                0x189 (size before relaxing)

.debug_loc      0x00000000      0x2f5
 *(.debug_loc)
 .debug_loc     0x00000000       0x18 E:\Projects\_1wire_i2c_monitor\FirmWare\1wm\1wm\.objs\main.o
 .debug_loc     0x00000018       0x8b E:\Projects\_1wire_i2c_monitor\FirmWare\1wm\1wm\.objs\printf.o
 .debug_loc     0x000000a3      0x252 E:\Projects\_1wire_i2c_monitor\FirmWare\1wm\1wm\.objs\1wire.o

.debug_macinfo
 *(.debug_macinfo)
OUTPUT(1wm.elf elf32-avr)
LOAD linker stubs

Cross Reference Table

Symbol                                            File
ConsolBuf                                         E:\Projects\_1wire_i2c_monitor\FirmWare\1wm\1wm\.objs\printf.o
                                                  E:\Projects\_1wire_i2c_monitor\FirmWare\1wm\1wm\.objs\main.o
DeCodeArray                                       E:\Projects\_1wire_i2c_monitor\FirmWare\1wm\1wm\.objs\1wire.o
Exeq1Wire                                         E:\Projects\_1wire_i2c_monitor\FirmWare\1wm\1wm\.objs\1wire.o
                                                  E:\Projects\_1wire_i2c_monitor\FirmWare\1wm\1wm\.objs\main.o
Hex2Byte                                          E:\Projects\_1wire_i2c_monitor\FirmWare\1wm\1wm\.objs\1wire.o
LBInd                                             E:\Projects\_1wire_i2c_monitor\FirmWare\1wm\1wm\.objs\1wire.o
LineBuf                                           E:\Projects\_1wire_i2c_monitor\FirmWare\1wm\1wm\.objs\1wire.o
                                                  E:\Projects\_1wire_i2c_monitor\FirmWare\1wm\1wm\.objs\main.o
Mode                                              E:\Projects\_1wire_i2c_monitor\FirmWare\1wm\1wm\.objs\main.o
String_0                                          E:\Projects\_1wire_i2c_monitor\FirmWare\1wm\1wm\.objs\main.o
String_1                                          E:\Projects\_1wire_i2c_monitor\FirmWare\1wm\1wm\.objs\main.o
String_13                                         E:\Projects\_1wire_i2c_monitor\FirmWare\1wm\1wm\.objs\main.o
String_14                                         E:\Projects\_1wire_i2c_monitor\FirmWare\1wm\1wm\.objs\main.o
String_15                                         E:\Projects\_1wire_i2c_monitor\FirmWare\1wm\1wm\.objs\main.o
String_16                                         E:\Projects\_1wire_i2c_monitor\FirmWare\1wm\1wm\.objs\main.o
String_17                                         E:\Projects\_1wire_i2c_monitor\FirmWare\1wm\1wm\.objs\main.o
String_18                                         E:\Projects\_1wire_i2c_monitor\FirmWare\1wm\1wm\.objs\main.o
String_2                                          E:\Projects\_1wire_i2c_monitor\FirmWare\1wm\1wm\.objs\main.o
String_3                                          E:\Projects\_1wire_i2c_monitor\FirmWare\1wm\1wm\.objs\main.o
String_4                                          E:\Projects\_1wire_i2c_monitor\FirmWare\1wm\1wm\.objs\main.o
String_5                                          E:\Projects\_1wire_i2c_monitor\FirmWare\1wm\1wm\.objs\main.o
String_8                                          E:\Projects\_1wire_i2c_monitor\FirmWare\1wm\1wm\.objs\main.o
String_9                                          E:\Projects\_1wire_i2c_monitor\FirmWare\1wm\1wm\.objs\main.o
String_err                                        E:\Projects\_1wire_i2c_monitor\FirmWare\1wm\1wm\.objs\main.o
String_reset                                      E:\Projects\_1wire_i2c_monitor\FirmWare\1wm\1wm\.objs\main.o
String_rm                                         E:\Projects\_1wire_i2c_monitor\FirmWare\1wm\1wm\.objs\main.o
String_sm                                         E:\Projects\_1wire_i2c_monitor\FirmWare\1wm\1wm\.objs\main.o
TxByte                                            E:\Projects\_1wire_i2c_monitor\FirmWare\1wm\1wm\.objs\1wire.o
TxPresenPuls                                      E:\Projects\_1wire_i2c_monitor\FirmWare\1wm\1wm\.objs\1wire.o
TxResetPuls                                       E:\Projects\_1wire_i2c_monitor\FirmWare\1wm\1wm\.objs\1wire.o
USART0_Init                                       E:\Projects\_1wire_i2c_monitor\FirmWare\1wm\1wm\.objs\printf.o
                                                  E:\Projects\_1wire_i2c_monitor\FirmWare\1wm\1wm\.objs\main.o
__bad_interrupt                                   c:/winavr/bin/../lib/gcc/avr/4.2.2/../../../../avr/lib/avr4/crtm8.o
__bss_end                                         c:/winavr/bin/../lib/gcc/avr/4.2.2/avr4\libgcc.a(_clear_bss.o)
__bss_start                                       c:/winavr/bin/../lib/gcc/avr/4.2.2/avr4\libgcc.a(_clear_bss.o)
__data_end                                        c:/winavr/bin/../lib/gcc/avr/4.2.2/avr4\libgcc.a(_copy_data.o)
__data_load_start                                 c:/winavr/bin/../lib/gcc/avr/4.2.2/avr4\libgcc.a(_copy_data.o)
__data_start                                      c:/winavr/bin/../lib/gcc/avr/4.2.2/avr4\libgcc.a(_copy_data.o)
__do_clear_bss                                    c:/winavr/bin/../lib/gcc/avr/4.2.2/avr4\libgcc.a(_clear_bss.o)
                                                  E:\Projects\_1wire_i2c_monitor\FirmWare\1wm\1wm\.objs\1wire.o
                                                  E:\Projects\_1wire_i2c_monitor\FirmWare\1wm\1wm\.objs\printf.o
                                                  E:\Projects\_1wire_i2c_monitor\FirmWare\1wm\1wm\.objs\main.o
__do_copy_data                                    c:/winavr/bin/../lib/gcc/avr/4.2.2/avr4\libgcc.a(_copy_data.o)
                                                  E:\Projects\_1wire_i2c_monitor\FirmWare\1wm\1wm\.objs\1wire.o
                                                  E:\Projects\_1wire_i2c_monitor\FirmWare\1wm\1wm\.objs\printf.o
                                                  E:\Projects\_1wire_i2c_monitor\FirmWare\1wm\1wm\.objs\main.o
__heap_end                                        c:/winavr/bin/../lib/gcc/avr/4.2.2/../../../../avr/lib/avr4/crtm8.o
__init                                            c:/winavr/bin/../lib/gcc/avr/4.2.2/../../../../avr/lib/avr4/crtm8.o
__stack                                           c:/winavr/bin/../lib/gcc/avr/4.2.2/../../../../avr/lib/avr4/crtm8.o
__vector_1                                        E:\Projects\_1wire_i2c_monitor\FirmWare\1wm\1wm\.objs\1wire.o
                                                  c:/winavr/bin/../lib/gcc/avr/4.2.2/../../../../avr/lib/avr4/crtm8.o
__vector_10                                       c:/winavr/bin/../lib/gcc/avr/4.2.2/../../../../avr/lib/avr4/crtm8.o
__vector_11                                       E:\Projects\_1wire_i2c_monitor\FirmWare\1wm\1wm\.objs\printf.o
                                                  c:/winavr/bin/../lib/gcc/avr/4.2.2/../../../../avr/lib/avr4/crtm8.o
__vector_12                                       c:/winavr/bin/../lib/gcc/avr/4.2.2/../../../../avr/lib/avr4/crtm8.o
__vector_13                                       c:/winavr/bin/../lib/gcc/avr/4.2.2/../../../../avr/lib/avr4/crtm8.o
__vector_14                                       c:/winavr/bin/../lib/gcc/avr/4.2.2/../../../../avr/lib/avr4/crtm8.o
__vector_15                                       c:/winavr/bin/../lib/gcc/avr/4.2.2/../../../../avr/lib/avr4/crtm8.o
__vector_16                                       c:/winavr/bin/../lib/gcc/avr/4.2.2/../../../../avr/lib/avr4/crtm8.o
__vector_17                                       c:/winavr/bin/../lib/gcc/avr/4.2.2/../../../../avr/lib/avr4/crtm8.o
__vector_18                                       c:/winavr/bin/../lib/gcc/avr/4.2.2/../../../../avr/lib/avr4/crtm8.o
__vector_2                                        E:\Projects\_1wire_i2c_monitor\FirmWare\1wm\1wm\.objs\1wire.o
                                                  c:/winavr/bin/../lib/gcc/avr/4.2.2/../../../../avr/lib/avr4/crtm8.o
__vector_3                                        c:/winavr/bin/../lib/gcc/avr/4.2.2/../../../../avr/lib/avr4/crtm8.o
__vector_4                                        c:/winavr/bin/../lib/gcc/avr/4.2.2/../../../../avr/lib/avr4/crtm8.o
__vector_5                                        c:/winavr/bin/../lib/gcc/avr/4.2.2/../../../../avr/lib/avr4/crtm8.o
__vector_6                                        E:\Projects\_1wire_i2c_monitor\FirmWare\1wm\1wm\.objs\1wire.o
                                                  c:/winavr/bin/../lib/gcc/avr/4.2.2/../../../../avr/lib/avr4/crtm8.o
__vector_7                                        c:/winavr/bin/../lib/gcc/avr/4.2.2/../../../../avr/lib/avr4/crtm8.o
__vector_8                                        c:/winavr/bin/../lib/gcc/avr/4.2.2/../../../../avr/lib/avr4/crtm8.o
__vector_9                                        c:/winavr/bin/../lib/gcc/avr/4.2.2/../../../../avr/lib/avr4/crtm8.o
__vector_default                                  c:/winavr/bin/../lib/gcc/avr/4.2.2/../../../../avr/lib/avr4/crtm8.o
__vectors                                         c:/winavr/bin/../lib/gcc/avr/4.2.2/../../../../avr/lib/avr4/crtm8.o
_exit                                             c:/winavr/bin/../lib/gcc/avr/4.2.2/avr4\libgcc.a(_exit.o)
exit                                              c:/winavr/bin/../lib/gcc/avr/4.2.2/avr4\libgcc.a(_exit.o)
                                                  c:/winavr/bin/../lib/gcc/avr/4.2.2/../../../../avr/lib/avr4/crtm8.o
hSer                                              E:\Projects\_1wire_i2c_monitor\FirmWare\1wm\1wm\.objs\printf.o
                                                  E:\Projects\_1wire_i2c_monitor\FirmWare\1wm\1wm\.objs\main.o
m_printf                                          E:\Projects\_1wire_i2c_monitor\FirmWare\1wm\1wm\.objs\printf.o
                                                  E:\Projects\_1wire_i2c_monitor\FirmWare\1wm\1wm\.objs\main.o
main                                              E:\Projects\_1wire_i2c_monitor\FirmWare\1wm\1wm\.objs\main.o
                                                  c:/winavr/bin/../lib/gcc/avr/4.2.2/../../../../avr/lib/avr4/crtm8.o
print_in_buff                                     E:\Projects\_1wire_i2c_monitor\FirmWare\1wm\1wm\.objs\printf.o
s_printf                                          E:\Projects\_1wire_i2c_monitor\FirmWare\1wm\1wm\.objs\printf.o
                                                  E:\Projects\_1wire_i2c_monitor\FirmWare\1wm\1wm\.objs\main.o
wait_05s                                          E:\Projects\_1wire_i2c_monitor\FirmWare\1wm\1wm\.objs\main.o
