;CodeVisionAVR C Compiler V1.24.5 Light
;(C) Copyright 1998-2005 Pavel Haiduc, HP InfoTech s.r.l.
;http://www.hpinfotech.com
;e-mail:office@hpinfotech.com

;Chip type              : AT90S8515
;Clock frequency        : 7.372800 MHz
;Memory model           : Small
;Optimize for           : Size
;(s)printf features     : int, width
;(s)scanf features      : int, width
;External SRAM size     : 32768
;Ext. SRAM wait state   : 1
;Data Stack size        : 512 byte(s)
;Heap size              : 0 byte(s)
;Promote char to int    : No
;char is unsigned       : Yes
;8 bit enums            : Yes
;Word align FLASH struct: No
;Automatic register allocation : On

	.DEVICE AT90S8515
	.EQU UDRE=0x5
	.EQU RXC=0x7
	.EQU USR=0xB
	.EQU UDR=0xC
	.EQU SPSR=0xE
	.EQU SPDR=0xF
	.EQU EERE=0x0
	.EQU EEWE=0x1
	.EQU EEMWE=0x2
	.EQU EECR=0x1C
	.EQU EEDR=0x1D
	.EQU EEARL=0x1E
	.EQU EEARH=0x1F
	.EQU WDTCR=0x21
	.EQU MCUCR=0x35
	.EQU RAMPZ=0x3B
	.EQU SPL=0x3D
	.EQU SPH=0x3E
	.EQU SREG=0x3F

	.DEF R0X0=R0
	.DEF R0X1=R1
	.DEF R0X2=R2
	.DEF R0X3=R3
	.DEF R0X4=R4
	.DEF R0X5=R5
	.DEF R0X6=R6
	.DEF R0X7=R7
	.DEF R0X8=R8
	.DEF R0X9=R9
	.DEF R0XA=R10
	.DEF R0XB=R11
	.DEF R0XC=R12
	.DEF R0XD=R13
	.DEF R0XE=R14
	.DEF R0XF=R15
	.DEF R0X10=R16
	.DEF R0X11=R17
	.DEF R0X12=R18
	.DEF R0X13=R19
	.DEF R0X14=R20
	.DEF R0X15=R21
	.DEF R0X16=R22
	.DEF R0X17=R23
	.DEF R0X18=R24
	.DEF R0X19=R25
	.DEF R0X1A=R26
	.DEF R0X1B=R27
	.DEF R0X1C=R28
	.DEF R0X1D=R29
	.DEF R0X1E=R30
	.DEF R0X1F=R31

	.EQU __se_bit=0x20
	.EQU __sm_mask=0x10

	.MACRO __CPD1N
	CPI  R30,LOW(@0)
	LDI  R26,HIGH(@0)
	CPC  R31,R26
	LDI  R26,BYTE3(@0)
	CPC  R22,R26
	LDI  R26,BYTE4(@0)
	CPC  R23,R26
	.ENDM

	.MACRO __CPD2N
	CPI  R26,LOW(@0)
	LDI  R30,HIGH(@0)
	CPC  R27,R30
	LDI  R30,BYTE3(@0)
	CPC  R24,R30
	LDI  R30,BYTE4(@0)
	CPC  R25,R30
	.ENDM

	.MACRO __CPWRR
	CP   R@0,R@2
	CPC  R@1,R@3
	.ENDM

	.MACRO __CPWRN
	CPI  R@0,LOW(@2)
	LDI  R30,HIGH(@2)
	CPC  R@1,R30
	.ENDM

	.MACRO __ADDD1N
	SUBI R30,LOW(-@0)
	SBCI R31,HIGH(-@0)
	SBCI R22,BYTE3(-@0)
	SBCI R23,BYTE4(-@0)
	.ENDM

	.MACRO __ADDD2N
	SUBI R26,LOW(-@0)
	SBCI R27,HIGH(-@0)
	SBCI R24,BYTE3(-@0)
	SBCI R25,BYTE4(-@0)
	.ENDM

	.MACRO __SUBD1N
	SUBI R30,LOW(@0)
	SBCI R31,HIGH(@0)
	SBCI R22,BYTE3(@0)
	SBCI R23,BYTE4(@0)
	.ENDM

	.MACRO __SUBD2N
	SUBI R26,LOW(@0)
	SBCI R27,HIGH(@0)
	SBCI R24,BYTE3(@0)
	SBCI R25,BYTE4(@0)
	.ENDM

	.MACRO __ANDD1N
	ANDI R30,LOW(@0)
	ANDI R31,HIGH(@0)
	ANDI R22,BYTE3(@0)
	ANDI R23,BYTE4(@0)
	.ENDM

	.MACRO __ORD1N
	ORI  R30,LOW(@0)
	ORI  R31,HIGH(@0)
	ORI  R22,BYTE3(@0)
	ORI  R23,BYTE4(@0)
	.ENDM

	.MACRO __DELAY_USB
	LDI  R24,LOW(@0)
__DELAY_USB_LOOP:
	DEC  R24
	BRNE __DELAY_USB_LOOP
	.ENDM

	.MACRO __DELAY_USW
	LDI  R24,LOW(@0)
	LDI  R25,HIGH(@0)
__DELAY_USW_LOOP:
	SBIW R24,1
	BRNE __DELAY_USW_LOOP
	.ENDM

	.MACRO __CLRD1S
	LDI  R30,0
	STD  Y+@0,R30
	STD  Y+@0+1,R30
	STD  Y+@0+2,R30
	STD  Y+@0+3,R30
	.ENDM

	.MACRO __GETD1S
	LDD  R30,Y+@0
	LDD  R31,Y+@0+1
	LDD  R22,Y+@0+2
	LDD  R23,Y+@0+3
	.ENDM

	.MACRO __PUTD1S
	STD  Y+@0,R30
	STD  Y+@0+1,R31
	STD  Y+@0+2,R22
	STD  Y+@0+3,R23
	.ENDM

	.MACRO __POINTB1MN
	LDI  R30,LOW(@0+@1)
	.ENDM

	.MACRO __POINTW1MN
	LDI  R30,LOW(@0+@1)
	LDI  R31,HIGH(@0+@1)
	.ENDM

	.MACRO __POINTW1FN
	LDI  R30,LOW(2*@0+@1)
	LDI  R31,HIGH(2*@0+@1)
	.ENDM

	.MACRO __POINTB2MN
	LDI  R26,LOW(@0+@1)
	.ENDM

	.MACRO __POINTW2MN
	LDI  R26,LOW(@0+@1)
	LDI  R27,HIGH(@0+@1)
	.ENDM

	.MACRO __POINTBRM
	LDI  R@0,LOW(@1)
	.ENDM

	.MACRO __POINTWRM
	LDI  R@0,LOW(@2)
	LDI  R@1,HIGH(@2)
	.ENDM

	.MACRO __POINTBRMN
	LDI  R@0,LOW(@1+@2)
	.ENDM

	.MACRO __POINTWRMN
	LDI  R@0,LOW(@2+@3)
	LDI  R@1,HIGH(@2+@3)
	.ENDM

	.MACRO __GETD1N
	LDI  R30,LOW(@0)
	LDI  R31,HIGH(@0)
	LDI  R22,BYTE3(@0)
	LDI  R23,BYTE4(@0)
	.ENDM

	.MACRO __GETD2N
	LDI  R26,LOW(@0)
	LDI  R27,HIGH(@0)
	LDI  R24,BYTE3(@0)
	LDI  R25,BYTE4(@0)
	.ENDM

	.MACRO __GETD2S
	LDD  R26,Y+@0
	LDD  R27,Y+@0+1
	LDD  R24,Y+@0+2
	LDD  R25,Y+@0+3
	.ENDM

	.MACRO __GETB1MN
	LDS  R30,@0+@1
	.ENDM

	.MACRO __GETW1MN
	LDS  R30,@0+@1
	LDS  R31,@0+@1+1
	.ENDM

	.MACRO __GETD1MN
	LDS  R30,@0+@1
	LDS  R31,@0+@1+1
	LDS  R22,@0+@1+2
	LDS  R23,@0+@1+3
	.ENDM

	.MACRO __GETBRMN
	LDS  R@2,@0+@1
	.ENDM

	.MACRO __GETWRMN
	LDS  R@2,@0+@1
	LDS  R@3,@0+@1+1
	.ENDM

	.MACRO __GETWRZ
	LDD  R@0,Z+@2
	LDD  R@1,Z+@2+1
	.ENDM

	.MACRO __GETD2Z
	LDD  R26,Z+@0
	LDD  R27,Z+@0+1
	LDD  R24,Z+@0+2
	LDD  R25,Z+@0+3
	.ENDM

	.MACRO __GETB2MN
	LDS  R26,@0+@1
	.ENDM

	.MACRO __GETW2MN
	LDS  R26,@0+@1
	LDS  R27,@0+@1+1
	.ENDM

	.MACRO __GETD2MN
	LDS  R26,@0+@1
	LDS  R27,@0+@1+1
	LDS  R24,@0+@1+2
	LDS  R25,@0+@1+3
	.ENDM

	.MACRO __PUTB1MN
	STS  @0+@1,R30
	.ENDM

	.MACRO __PUTW1MN
	STS  @0+@1,R30
	STS  @0+@1+1,R31
	.ENDM

	.MACRO __PUTD1MN
	STS  @0+@1,R30
	STS  @0+@1+1,R31
	STS  @0+@1+2,R22
	STS  @0+@1+3,R23
	.ENDM

	.MACRO __PUTDZ2
	STD  Z+@0,R26
	STD  Z+@0+1,R27
	STD  Z+@0+2,R24
	STD  Z+@0+3,R25
	.ENDM

	.MACRO __PUTBMRN
	STS  @0+@1,R@2
	.ENDM

	.MACRO __PUTWMRN
	STS  @0+@1,R@2
	STS  @0+@1+1,R@3
	.ENDM

	.MACRO __PUTBZR
	STD  Z+@1,R@0
	.ENDM

	.MACRO __PUTWZR
	STD  Z+@2,R@0
	STD  Z+@2+1,R@1
	.ENDM

	.MACRO __GETW1R
	MOV  R30,R@0
	MOV  R31,R@1
	.ENDM

	.MACRO __GETW2R
	MOV  R26,R@0
	MOV  R27,R@1
	.ENDM

	.MACRO __GETWRN
	LDI  R@0,LOW(@2)
	LDI  R@1,HIGH(@2)
	.ENDM

	.MACRO __PUTW1R
	MOV  R@0,R30
	MOV  R@1,R31
	.ENDM

	.MACRO __PUTW2R
	MOV  R@0,R26
	MOV  R@1,R27
	.ENDM

	.MACRO __ADDWRN
	SUBI R@0,LOW(-@2)
	SBCI R@1,HIGH(-@2)
	.ENDM

	.MACRO __ADDWRR
	ADD  R@0,R@2
	ADC  R@1,R@3
	.ENDM

	.MACRO __SUBWRN
	SUBI R@0,LOW(@2)
	SBCI R@1,HIGH(@2)
	.ENDM

	.MACRO __SUBWRR
	SUB  R@0,R@2
	SBC  R@1,R@3
	.ENDM

	.MACRO __ANDWRN
	ANDI R@0,LOW(@2)
	ANDI R@1,HIGH(@2)
	.ENDM

	.MACRO __ANDWRR
	AND  R@0,R@2
	AND  R@1,R@3
	.ENDM

	.MACRO __ORWRN
	ORI  R@0,LOW(@2)
	ORI  R@1,HIGH(@2)
	.ENDM

	.MACRO __ORWRR
	OR   R@0,R@2
	OR   R@1,R@3
	.ENDM

	.MACRO __EORWRR
	EOR  R@0,R@2
	EOR  R@1,R@3
	.ENDM

	.MACRO __GETWRS
	LDD  R@0,Y+@2
	LDD  R@1,Y+@2+1
	.ENDM

	.MACRO __PUTWSR
	STD  Y+@2,R@0
	STD  Y+@2+1,R@1
	.ENDM

	.MACRO __MOVEWRR
	MOV  R@0,R@2
	MOV  R@1,R@3
	.ENDM

	.MACRO __INWR
	IN   R@0,@2
	IN   R@1,@2+1
	.ENDM

	.MACRO __OUTWR
	OUT  @2+1,R@1
	OUT  @2,R@0
	.ENDM

	.MACRO __CALL1MN
	LDS  R30,@0+@1
	LDS  R31,@0+@1+1
	ICALL
	.ENDM


	.MACRO __CALL1FN
	LDI  R30,LOW(2*@0+@1)
	LDI  R31,HIGH(2*@0+@1)
	RCALL __GETW1PF
	ICALL
	.ENDM


	.MACRO __CALL2EN
	LDI  R26,LOW(@0+@1)
	LDI  R27,HIGH(@0+@1)
	RCALL __EEPROMRDW
	ICALL
	.ENDM


	.MACRO __GETW1STACK
	IN   R26,SPL
	IN   R27,SPH
	ADIW R26,@0+1
	LD   R30,X+
	LD   R31,X
	.ENDM

	.MACRO __NBST
	BST  R@0,@1
	IN   R30,SREG
	LDI  R31,0x40
	EOR  R30,R31
	OUT  SREG,R30
	.ENDM


	.MACRO __PUTB1SN
	LDD  R26,Y+@0
	LDD  R27,Y+@0+1
	SUBI R26,LOW(-@1)
	SBCI R27,HIGH(-@1)
	ST   X,R30
	.ENDM

	.MACRO __PUTW1SN
	LDD  R26,Y+@0
	LDD  R27,Y+@0+1
	SUBI R26,LOW(-@1)
	SBCI R27,HIGH(-@1)
	ST   X+,R30
	ST   X,R31
	.ENDM

	.MACRO __PUTD1SN
	LDD  R26,Y+@0
	LDD  R27,Y+@0+1
	SUBI R26,LOW(-@1)
	SBCI R27,HIGH(-@1)
	RCALL __PUTDP1
	.ENDM

	.MACRO __PUTB1SNS
	LDD  R26,Y+@0
	LDD  R27,Y+@0+1
	ADIW R26,@1
	ST   X,R30
	.ENDM

	.MACRO __PUTW1SNS
	LDD  R26,Y+@0
	LDD  R27,Y+@0+1
	ADIW R26,@1
	ST   X+,R30
	ST   X,R31
	.ENDM

	.MACRO __PUTD1SNS
	LDD  R26,Y+@0
	LDD  R27,Y+@0+1
	ADIW R26,@1
	RCALL __PUTDP1
	.ENDM

	.MACRO __PUTB1PMN
	LDS  R26,@0
	LDS  R27,@0+1
	SUBI R26,LOW(-@1)
	SBCI R27,HIGH(-@1)
	ST   X,R30
	.ENDM

	.MACRO __PUTW1PMN
	LDS  R26,@0
	LDS  R27,@0+1
	SUBI R26,LOW(-@1)
	SBCI R27,HIGH(-@1)
	ST   X+,R30
	ST   X,R31
	.ENDM

	.MACRO __PUTD1PMN
	LDS  R26,@0
	LDS  R27,@0+1
	SUBI R26,LOW(-@1)
	SBCI R27,HIGH(-@1)
	RCALL __PUTDP1
	.ENDM

	.MACRO __PUTB1PMNS
	LDS  R26,@0
	LDS  R27,@0+1
	ADIW R26,@1
	ST   X,R30
	.ENDM

	.MACRO __PUTW1PMNS
	LDS  R26,@0
	LDS  R27,@0+1
	ADIW R26,@1
	ST   X+,R30
	ST   X,R31
	.ENDM

	.MACRO __PUTD1PMNS
	LDS  R26,@0
	LDS  R27,@0+1
	ADIW R26,@1
	RCALL __PUTDP1
	.ENDM

	.MACRO __PUTB1RN
	MOV  R26,R@0
	MOV  R27,R@1
	SUBI R26,LOW(-@2)
	SBCI R27,HIGH(-@2)
	ST   X,R30
	.ENDM

	.MACRO __PUTW1RN
	MOV  R26,R@0
	MOV  R27,R@1
	SUBI R26,LOW(-@2)
	SBCI R27,HIGH(-@2)
	ST   X+,R30
	ST   X,R31
	.ENDM

	.MACRO __PUTD1RN
	MOV  R26,R@0
	MOV  R27,R@1
	SUBI R26,LOW(-@2)
	SBCI R27,HIGH(-@2)
	RCALL __PUTDP1
	.ENDM

	.MACRO __PUTB1RNS
	MOV  R26,R@0
	MOV  R27,R@1
	ADIW R26,@2
	ST   X,R30
	.ENDM

	.MACRO __PUTW1RNS
	MOV  R26,R@0
	MOV  R27,R@1
	ADIW R26,@2
	ST   X+,R30
	ST   X,R31
	.ENDM

	.MACRO __PUTD1RNS
	MOV  R26,R@0
	MOV  R27,R@1
	ADIW R26,@2
	RCALL __PUTDP1
	.ENDM


	.MACRO __GETB1SX
	MOV  R30,R28
	MOV  R31,R29
	SUBI R30,LOW(-@0)
	SBCI R31,HIGH(-@0)
	LD   R30,Z
	.ENDM

	.MACRO __GETW1SX
	MOV  R30,R28
	MOV  R31,R29
	SUBI R30,LOW(-@0)
	SBCI R31,HIGH(-@0)
	LD   R0,Z+
	LD   R31,Z
	MOV  R30,R0
	.ENDM

	.MACRO __GETD1SX
	MOV  R30,R28
	MOV  R31,R29
	SUBI R30,LOW(-@0)
	SBCI R31,HIGH(-@0)
	LD   R0,Z+
	LD   R1,Z+
	LD   R22,Z+
	LD   R23,Z
	MOV  R30,R0
	MOV  R31,R1
	.ENDM

	.MACRO __GETB2SX
	MOV  R26,R28
	MOV  R27,R29
	SUBI R26,LOW(-@0)
	SBCI R27,HIGH(-@0)
	LD   R26,X
	.ENDM

	.MACRO __GETW2SX
	MOV  R26,R28
	MOV  R27,R29
	SUBI R26,LOW(-@0)
	SBCI R27,HIGH(-@0)
	LD   R0,X+
	LD   R27,X
	MOV  R26,R0
	.ENDM

	.MACRO __GETD2SX
	MOV  R26,R28
	MOV  R27,R29
	SUBI R26,LOW(-@0)
	SBCI R27,HIGH(-@0)
	LD   R0,X+
	LD   R1,X+
	LD   R24,X+
	LD   R25,X
	MOV  R26,R0
	MOV  R27,R1
	.ENDM

	.MACRO __GETBRSX
	MOV  R30,R28
	MOV  R31,R29
	SUBI R30,LOW(-@1)
	SBCI R31,HIGH(-@1)
	LD   R@0,Z
	.ENDM

	.MACRO __GETWRSX
	MOV  R30,R28
	MOV  R31,R29
	SUBI R30,LOW(-@2)
	SBCI R31,HIGH(-@2)
	LD   R@0,Z+
	LD   R@1,Z
	.ENDM

	.MACRO __LSLW8SX
	MOV  R30,R28
	MOV  R31,R29
	SUBI R30,LOW(-@0)
	SBCI R31,HIGH(-@0)
	LD   R31,Z
	CLR  R30
	.ENDM

	.MACRO __PUTB1SX
	MOV  R26,R28
	MOV  R27,R29
	SUBI R26,LOW(-@0)
	SBCI R27,HIGH(-@0)
	ST   X,R30
	.ENDM

	.MACRO __PUTW1SX
	MOV  R26,R28
	MOV  R27,R29
	SUBI R26,LOW(-@0)
	SBCI R27,HIGH(-@0)
	ST   X+,R30
	ST   X,R31
	.ENDM

	.MACRO __PUTD1SX
	MOV  R26,R28
	MOV  R27,R29
	SUBI R26,LOW(-@0)
	SBCI R27,HIGH(-@0)
	ST   X+,R30
	ST   X+,R31
	ST   X+,R22
	ST   X,R23
	.ENDM

	.MACRO __CLRW1SX
	MOV  R30,R28
	MOV  R31,R29
	SUBI R30,LOW(-@0)
	SBCI R31,HIGH(-@0)
	CLR  R0
	ST   Z+,R0
	ST   Z,R0
	.ENDM

	.MACRO __CLRD1SX
	MOV  R30,R28
	MOV  R31,R29
	SUBI R30,LOW(-@0)
	SBCI R31,HIGH(-@0)
	CLR  R0
	ST   Z+,R0
	ST   Z+,R0
	ST   Z+,R0
	ST   Z,R0
	.ENDM

	.MACRO __PUTB2SX
	MOV  R30,R28
	MOV  R31,R29
	SUBI R30,LOW(-@0)
	SBCI R31,HIGH(-@0)
	ST   Z,R26
	.ENDM

	.MACRO __PUTW2SX
	MOV  R30,R28
	MOV  R31,R29
	SUBI R30,LOW(-@0)
	SBCI R31,HIGH(-@0)
	ST   Z+,R26
	ST   Z,R27
	.ENDM

	.MACRO __PUTBSRX
	MOV  R30,R28
	MOV  R31,R29
	SUBI R30,LOW(-@0)
	SBCI R31,HIGH(-@0)
	ST   Z,R@1
	.ENDM

	.MACRO __PUTWSRX
	MOV  R30,R28
	MOV  R31,R29
	SUBI R30,LOW(-@2)
	SBCI R31,HIGH(-@2)
	ST   Z+,R@0
	ST   Z,R@1
	.ENDM

	.MACRO __PUTB1SNX
	MOV  R26,R28
	MOV  R27,R29
	SUBI R26,LOW(-@0)
	SBCI R27,HIGH(-@0)
	LD   R0,X+
	LD   R27,X
	MOV  R26,R0
	SUBI R26,LOW(-@1)
	SBCI R27,HIGH(-@1)
	ST   X,R30
	.ENDM

	.MACRO __PUTW1SNX
	MOV  R26,R28
	MOV  R27,R29
	SUBI R26,LOW(-@0)
	SBCI R27,HIGH(-@0)
	LD   R0,X+
	LD   R27,X
	MOV  R26,R0
	SUBI R26,LOW(-@1)
	SBCI R27,HIGH(-@1)
	ST   X+,R30
	ST   X,R31
	.ENDM

	.MACRO __PUTD1SNX
	MOV  R26,R28
	MOV  R27,R29
	SUBI R26,LOW(-@0)
	SBCI R27,HIGH(-@0)
	LD   R0,X+
	LD   R27,X
	MOV  R26,R0
	SUBI R26,LOW(-@1)
	SBCI R27,HIGH(-@1)
	ST   X+,R30
	ST   X+,R31
	ST   X+,R22
	ST   X,R23
	.ENDM

	.CSEG
	.ORG 0

	.INCLUDE "new.vec"
	.INCLUDE "new.inc"

__RESET:
	CLI
	CLR  R30
	OUT  EECR,R30
	LDI  R31,0xC0
	OUT  MCUCR,R31

;DISABLE WATCHDOG
	LDI  R31,0x18
	OUT  WDTCR,R31
	OUT  WDTCR,R30

;CLEAR R2-R14
	LDI  R24,13
	LDI  R26,2
	CLR  R27
__CLEAR_REG:
	ST   X+,R30
	DEC  R24
	BRNE __CLEAR_REG

;CLEAR SRAM
	LDI  R24,LOW(0x7FA0)
	LDI  R25,HIGH(0x7FA0)
	LDI  R26,0x60
__CLEAR_SRAM:
	ST   X+,R30
	SBIW R24,1
	BRNE __CLEAR_SRAM

;GLOBAL VARIABLES INITIALIZATION
	LDI  R30,LOW(__GLOBAL_INI_TBL*2)
	LDI  R31,HIGH(__GLOBAL_INI_TBL*2)
__GLOBAL_INI_NEXT:
	LPM
	ADIW R30,1
	MOV  R24,R0
	LPM
	ADIW R30,1
	MOV  R25,R0
	SBIW R24,0
	BREQ __GLOBAL_INI_END
	LPM
	ADIW R30,1
	MOV  R26,R0
	LPM
	ADIW R30,1
	MOV  R27,R0
	LPM
	ADIW R30,1
	MOV  R1,R0
	LPM
	ADIW R30,1
	MOV  R22,R30
	MOV  R23,R31
	MOV  R31,R0
	MOV  R30,R1
__GLOBAL_INI_LOOP:
	LPM
	ADIW R30,1
	ST   X+,R0
	SBIW R24,1
	BRNE __GLOBAL_INI_LOOP
	MOV  R30,R22
	MOV  R31,R23
	RJMP __GLOBAL_INI_NEXT
__GLOBAL_INI_END:

;STACK POINTER INITIALIZATION
	LDI  R30,LOW(0x7FFF)
	OUT  SPL,R30
	LDI  R30,HIGH(0x7FFF)
	OUT  SPH,R30

;DATA STACK POINTER INITIALIZATION
	LDI  R28,LOW(0x260)
	LDI  R29,HIGH(0x260)

	RJMP _main

	.ESEG
	.ORG 0

	.DSEG
	.ORG 0x260
;       1 /*****************************************************
;       2 This program was produced by the
;       3 CodeWizardAVR V1.24.5 Light
;       4 Automatic Program Generator
;       5 © Copyright 1998-2005 Pavel Haiduc, HP InfoTech s.r.l.
;       6 http://www.hpinfotech.com
;       7 e-mail:office@hpinfotech.com
;       8 
;       9 Project : 
;      10 Version : 
;      11 Date    : 20/10/2005
;      12 Author  : Richard Grant                   
;      13 Company : UCOL                            
;      14 Comments: 
;      15 
;      16 
;      17 Chip type           : AT90S8515
;      18 Clock frequency     : 7.372800 MHz
;      19 Memory model        : Small
;      20 External SRAM size  : 32768
;      21 Ext. SRAM wait state: 1
;      22 Data Stack size     : 128
;      23 *****************************************************/
;      24 
;      25 #include <90s8515.h>
;      26 
;      27 // Alphanumeric LCD Module functions
;      28 #asm
;      29    .equ __lcd_port=0x18 ;PORTB
   .equ __lcd_port=0x18 ;PORTB
;      30 #endasm
;      31 #include <lcd.h>
;      32 
;      33 // Standard Input/Output functions
;      34 #include <stdio.h>
;      35 
;      36 // Declare your global variables here
;      37 int a[100][100];
_a:
	.BYTE 0x4E20
;      38 void main(void)
;      39 {

	.CSEG
_main:
;      40 // Declare your local variables here
;      41 
;      42 // Input/Output Ports initialization
;      43 // Port A initialization
;      44 // Func7=In Func6=In Func5=In Func4=In Func3=In Func2=In Func1=In Func0=In 
;      45 // State7=T State6=T State5=T State4=T State3=T State2=T State1=T State0=T 
;      46 PORTA=0x00;
	LDI  R30,LOW(0)
	OUT  0x1B,R30
;      47 DDRA=0x00;
	OUT  0x1A,R30
;      48 
;      49 // Port B initialization
;      50 // Func7=In Func6=In Func5=In Func4=In Func3=In Func2=In Func1=In Func0=In 
;      51 // State7=T State6=T State5=T State4=T State3=T State2=T State1=T State0=T 
;      52 PORTB=0x00;
	OUT  0x18,R30
;      53 DDRB=0x00;
	OUT  0x17,R30
;      54 
;      55 // Port C initialization
;      56 // Func7=In Func6=In Func5=In Func4=In Func3=In Func2=In Func1=In Func0=In 
;      57 // State7=T State6=T State5=T State4=T State3=T State2=T State1=T State0=T 
;      58 PORTC=0x00;
	OUT  0x15,R30
;      59 DDRC=0x00;
	OUT  0x14,R30
;      60 
;      61 // Port D initialization
;      62 // Func7=In Func6=In Func5=In Func4=In Func3=In Func2=In Func1=In Func0=In 
;      63 // State7=T State6=T State5=T State4=T State3=T State2=T State1=T State0=T 
;      64 PORTD=0x00;
	OUT  0x12,R30
;      65 DDRD=0x00;
	OUT  0x11,R30
;      66 
;      67 // Timer/Counter 0 initialization
;      68 // Clock source: System Clock
;      69 // Clock value: Timer 0 Stopped
;      70 TCCR0=0x00;
	OUT  0x33,R30
;      71 TCNT0=0x00;
	OUT  0x32,R30
;      72 
;      73 // Timer/Counter 1 initialization
;      74 // Clock source: System Clock
;      75 // Clock value: Timer 1 Stopped
;      76 // Mode: Normal top=FFFFh
;      77 // OC1A output: Discon.
;      78 // OC1B output: Discon.
;      79 // Noise Canceler: Off
;      80 // Input Capture on Falling Edge
;      81 TCCR1A=0x00;
	OUT  0x2F,R30
;      82 TCCR1B=0x00;
	OUT  0x2E,R30
;      83 TCNT1H=0x00;
	OUT  0x2D,R30
;      84 TCNT1L=0x00;
	OUT  0x2C,R30
;      85 OCR1AH=0x00;
	OUT  0x2B,R30
;      86 OCR1AL=0x00;
	OUT  0x2A,R30
;      87 OCR1BH=0x00;
	OUT  0x29,R30
;      88 OCR1BL=0x00;
	OUT  0x28,R30
;      89 
;      90 // External Interrupt(s) initialization
;      91 // INT0: Off
;      92 // INT1: Off
;      93 GIMSK=0x00;
	OUT  0x3B,R30
;      94 MCUCR=0xC0;
	LDI  R30,LOW(192)
	OUT  0x35,R30
;      95 
;      96 // Timer(s)/Counter(s) Interrupt(s) initialization
;      97 TIMSK=0x00;
	LDI  R30,LOW(0)
	OUT  0x39,R30
;      98 
;      99 // UART initialization
;     100 // Communication Parameters: 8 Data, 1 Stop, No Parity
;     101 // UART Receiver: On
;     102 // UART Transmitter: On
;     103 // UART Baud rate: 9600
;     104 UCR=0x18;
	LDI  R30,LOW(24)
	OUT  0xA,R30
;     105 UBRR=0x2F;
	LDI  R30,LOW(47)
	OUT  0x9,R30
;     106 
;     107 // Analog Comparator initialization
;     108 // Analog Comparator: Off
;     109 // Analog Comparator Input Capture by Timer/Counter 1: Off
;     110 ACSR=0x80;
	LDI  R30,LOW(128)
	OUT  0x8,R30
;     111 
;     112 // LCD module initialization
;     113 lcd_init(20);
	LDI  R30,LOW(20)
	ST   -Y,R30
	RCALL _lcd_init
;     114 
;     115 
;     116 while(1)
_0x3:
;     117 {
;     118         a[1][1]=1;
	LDI  R30,LOW(1)
	LDI  R31,HIGH(1)
	__PUTW1MN _a,202
;     119         lcd_gotoxy(0,0);
	RCALL SUBOPT_0x0
	RCALL SUBOPT_0x0
	RCALL _lcd_gotoxy
;     120       lcd_putsf("hi");
	__POINTW1FN _0,0
	ST   -Y,R31
	ST   -Y,R30
	RCALL _lcd_putsf
;     121 }
	RJMP _0x3
;     122 
;     123 
;     124 
;     125 }
_0x6:
	RJMP _0x6

    .equ __lcd_direction=__lcd_port-1
    .equ __lcd_pin=__lcd_port-2
    .equ __lcd_rs=0
    .equ __lcd_rd=1
    .equ __lcd_enable=2
    .equ __lcd_busy_flag=7

	.DSEG
__base_y_G2:
	.BYTE 0x4

	.CSEG
__lcd_delay_G2:
    ldi   r31,15
__lcd_delay0:
    dec   r31
    brne  __lcd_delay0
	RET
__lcd_ready:
    in    r26,__lcd_direction
    andi  r26,0xf                 ;set as input
    out   __lcd_direction,r26
    sbi   __lcd_port,__lcd_rd     ;RD=1
    cbi   __lcd_port,__lcd_rs     ;RS=0
__lcd_busy:
	RCALL __lcd_delay_G2
    sbi   __lcd_port,__lcd_enable ;EN=1
	RCALL __lcd_delay_G2
    in    r26,__lcd_pin
    cbi   __lcd_port,__lcd_enable ;EN=0
	RCALL __lcd_delay_G2
    sbi   __lcd_port,__lcd_enable ;EN=1
	RCALL __lcd_delay_G2
    cbi   __lcd_port,__lcd_enable ;EN=0
    sbrc  r26,__lcd_busy_flag
    rjmp  __lcd_busy
	RET
__lcd_write_nibble_G2:
    andi  r26,0xf0
    or    r26,r27
    out   __lcd_port,r26          ;write
    sbi   __lcd_port,__lcd_enable ;EN=1
	RCALL __lcd_delay_G2
    cbi   __lcd_port,__lcd_enable ;EN=0
	RCALL __lcd_delay_G2
	RET
__lcd_write_data:
    cbi  __lcd_port,__lcd_rd 	  ;RD=0
    in    r26,__lcd_direction
    ori   r26,0xf0 | (1<<__lcd_rs) | (1<<__lcd_rd) | (1<<__lcd_enable) ;set as output    
    out   __lcd_direction,r26
    in    r27,__lcd_port
    andi  r27,0xf
    ld    r26,y
	RCALL __lcd_write_nibble_G2
    ld    r26,y
    swap  r26
	RCALL __lcd_write_nibble_G2
    sbi   __lcd_port,__lcd_rd     ;RD=1
	ADIW R28,1
	RET
__lcd_read_nibble_G2:
    sbi   __lcd_port,__lcd_enable ;EN=1
	RCALL __lcd_delay_G2
    in    r30,__lcd_pin           ;read
    cbi   __lcd_port,__lcd_enable ;EN=0
	RCALL __lcd_delay_G2
    andi  r30,0xf0
	RET
_lcd_read_byte0_G2:
	RCALL __lcd_delay_G2
	RCALL __lcd_read_nibble_G2
    mov   r26,r30
	RCALL __lcd_read_nibble_G2
    cbi   __lcd_port,__lcd_rd     ;RD=0
    swap  r30
    or    r30,r26
	RET
_lcd_gotoxy:
	RCALL __lcd_ready
	LD   R30,Y
	LDI  R31,0
	SUBI R30,LOW(-__base_y_G2)
	SBCI R31,HIGH(-__base_y_G2)
	LD   R30,Z
	LDD  R26,Y+1
	ADD  R30,R26
	RCALL SUBOPT_0x1
	LDD  R4,Y+1
	LDD  R5,Y+0
	ADIW R28,2
	RET
_lcd_clear:
	RCALL __lcd_ready
	LDI  R30,LOW(2)
	RCALL SUBOPT_0x1
	RCALL __lcd_ready
	LDI  R30,LOW(15)
	RCALL SUBOPT_0x1
	RCALL __lcd_ready
	LDI  R30,LOW(1)
	RCALL SUBOPT_0x1
	LDI  R30,LOW(0)
	MOV  R5,R30
	MOV  R4,R30
	RET
_lcd_putchar:
    push r30
    push r31
    ld   r26,y
    set
    cpi  r26,10
    breq __lcd_putchar1
    clt
	INC  R4
	CP   R6,R4
	BRSH _0x8
	__lcd_putchar1:
	INC  R5
	RCALL SUBOPT_0x0
	ST   -Y,R5
	RCALL _lcd_gotoxy
	brts __lcd_putchar0
_0x8:
    rcall __lcd_ready
    sbi  __lcd_port,__lcd_rs ;RS=1
    ld   r26,y
    st   -y,r26
    rcall __lcd_write_data
__lcd_putchar0:
    pop  r31
    pop  r30
	ADIW R28,1
	RET
_lcd_putsf:
    ld   r30,y
    ldd  r31,y+1
__lcd_putsf0:
	lpm
    tst  r0
    breq __lcd_putsf1
    adiw r30,1
    st   -y,r0
    rcall _lcd_putchar
    rjmp __lcd_putsf0
__lcd_putsf1:
	ADIW R28,2
	RET
__long_delay_G2:
    clr   r26
    clr   r27
__long_delay0:
    sbiw  r26,1         ;2 cycles
    brne  __long_delay0 ;2 cycles
	RET
__lcd_init_write_G2:
    cbi  __lcd_port,__lcd_rd 	  ;RD=0
    in    r26,__lcd_direction
    ori   r26,0xf7                ;set as output
    out   __lcd_direction,r26
    in    r27,__lcd_port
    andi  r27,0xf
    ld    r26,y
	RCALL __lcd_write_nibble_G2
    sbi   __lcd_port,__lcd_rd     ;RD=1
	ADIW R28,1
	RET
_lcd_init:
    cbi   __lcd_port,__lcd_enable ;EN=0
    cbi   __lcd_port,__lcd_rs     ;RS=0
	LDD  R6,Y+0
	LD   R30,Y
	SUBI R30,-LOW(128)
	__PUTB1MN __base_y_G2,2
	LD   R30,Y
	SUBI R30,-LOW(192)
	__PUTB1MN __base_y_G2,3
	RCALL SUBOPT_0x2
	RCALL SUBOPT_0x2
	RCALL SUBOPT_0x2
	RCALL __long_delay_G2
	LDI  R30,LOW(32)
	ST   -Y,R30
	RCALL __lcd_init_write_G2
	RCALL __long_delay_G2
	LDI  R30,LOW(40)
	RCALL SUBOPT_0x1
	RCALL __long_delay_G2
	LDI  R30,LOW(4)
	RCALL SUBOPT_0x1
	RCALL __long_delay_G2
	LDI  R30,LOW(133)
	RCALL SUBOPT_0x1
	RCALL __long_delay_G2
    in    r26,__lcd_direction
    andi  r26,0xf                 ;set as input
    out   __lcd_direction,r26
    sbi   __lcd_port,__lcd_rd     ;RD=1
	RCALL _lcd_read_byte0_G2
	CPI  R30,LOW(0x5)
	BREQ _0x9
	LDI  R30,LOW(0)
	RJMP _0xA
_0x9:
	RCALL __lcd_ready
	LDI  R30,LOW(6)
	RCALL SUBOPT_0x1
	RCALL _lcd_clear
	LDI  R30,LOW(1)
_0xA:
	ADIW R28,1
	RET
_getchar:
     sbis usr,rxc
     rjmp _getchar
     in   r30,udr
	RET
_putchar:
     sbis usr,udre
     rjmp _putchar
     ld   r30,y
     out  udr,r30
	ADIW R28,1
	RET

;OPTIMIZER ADDED SUBROUTINE, CALLED 3 TIMES
SUBOPT_0x0:
	LDI  R30,LOW(0)
	ST   -Y,R30
	RET

;OPTIMIZER ADDED SUBROUTINE, CALLED 8 TIMES
SUBOPT_0x1:
	ST   -Y,R30
	RJMP __lcd_write_data

;OPTIMIZER ADDED SUBROUTINE, CALLED 3 TIMES
SUBOPT_0x2:
	RCALL __long_delay_G2
	LDI  R30,LOW(48)
	ST   -Y,R30
	RJMP __lcd_init_write_G2

;END OF CODE MARKER
__END_OF_CODE:
