Archive member included because of file (symbol)

C:/WinAVR/lib/gcc/avr/3.4.5\libgcc.a(_udivmodhi4.o)
                              XYplotter.o (__udivmodhi4)
C:/WinAVR/lib/gcc/avr/3.4.5\libgcc.a(_copy_data.o)
                              XYplotter.o (__do_copy_data)
C:/WinAVR/lib/gcc/avr/3.4.5\libgcc.a(_clear_bss.o)
                              XYplotter.o (__do_clear_bss)

Allocating common symbols
Common symbol       size              file

ADC_Y               0x2               XYplotter.o
Last_ADC_X          0x2               XYplotter.o
dec_out             0x2               XYplotter.o
Idel_Mode           0x1               XYplotter.o
Last_ADC_Y          0x2               XYplotter.o
Pen                 0x1               XYplotter.o
ADC_X               0x2               XYplotter.o
Last_Pen            0x1               XYplotter.o

Memory Configuration

Name             Origin             Length             Attributes
text             0x00000000         0x00002000         xr
data             0x00800060         0x0000ffa0         rw !x
eeprom           0x00810000         0x00010000         rw !x
*default*        0x00000000         0xffffffff

Linker script and memory map

LOAD C:/WinAVR/bin/../lib/gcc/avr/3.4.5/../../../../avr/lib/crttn13.o
LOAD XYplotter.o
LOAD PcRs232.o
LOAD ADC.o
LOAD C:/WinAVR/lib/gcc/avr/3.4.5\libgcc.a
LOAD C:/WinAVR/bin/../lib/gcc/avr/3.4.5/../../../../avr/lib\libc.a
LOAD C:/WinAVR/lib/gcc/avr/3.4.5\libgcc.a

.hash
 *(.hash)

.dynsym
 *(.dynsym)

.dynstr
 *(.dynstr)

.gnu.version
 *(.gnu.version)

.gnu.version_d
 *(.gnu.version_d)

.gnu.version_r
 *(.gnu.version_r)

.rel.init
 *(.rel.init)

.rela.init
 *(.rela.init)

.rel.text
 *(.rel.text)
 *(.rel.text.*)
 *(.rel.gnu.linkonce.t*)

.rela.text
 *(.rela.text)
 *(.rela.text.*)
 *(.rela.gnu.linkonce.t*)

.rel.fini
 *(.rel.fini)

.rela.fini
 *(.rela.fini)

.rel.rodata
 *(.rel.rodata)
 *(.rel.rodata.*)
 *(.rel.gnu.linkonce.r*)

.rela.rodata
 *(.rela.rodata)
 *(.rela.rodata.*)
 *(.rela.gnu.linkonce.r*)

.rel.data
 *(.rel.data)
 *(.rel.data.*)
 *(.rel.gnu.linkonce.d*)

.rela.data
 *(.rela.data)
 *(.rela.data.*)
 *(.rela.gnu.linkonce.d*)

.rel.ctors
 *(.rel.ctors)

.rela.ctors
 *(.rela.ctors)

.rel.dtors
 *(.rel.dtors)

.rela.dtors
 *(.rela.dtors)

.rel.got
 *(.rel.got)

.rela.got
 *(.rela.got)

.rel.bss
 *(.rel.bss)

.rela.bss
 *(.rela.bss)

.rel.plt
 *(.rel.plt)

.rela.plt
 *(.rela.plt)

.text           0x00000000      0x3be
 *(.vectors)
 .vectors       0x00000000       0x14 C:/WinAVR/bin/../lib/gcc/avr/3.4.5/../../../../avr/lib/crttn13.o
                0x00000000                __vectors
                0x00000000                __vector_default
                0x00000014                __ctors_start = .
 *(.ctors)
                0x00000014                __ctors_end = .
                0x00000014                __dtors_start = .
 *(.dtors)
                0x00000014                __dtors_end = .
 *(.progmem.gcc*)
 *(.progmem*)
 .progmem.data  0x00000014       0x44 XYplotter.o
                0x00000058                . = ALIGN (0x2)
 *(.init0)
 *(.init1)
 *(.init2)
 .init2         0x00000058        0x8 C:/WinAVR/bin/../lib/gcc/avr/3.4.5/../../../../avr/lib/crttn13.o
 *(.init3)
 *(.init4)
 .init4         0x00000060       0x18 C:/WinAVR/lib/gcc/avr/3.4.5\libgcc.a(_copy_data.o)
                0x00000060                __do_copy_data
 .init4         0x00000078       0x10 C:/WinAVR/lib/gcc/avr/3.4.5\libgcc.a(_clear_bss.o)
                0x00000078                __do_clear_bss
 *(.init5)
 *(.init6)
 *(.init7)
 *(.init8)
 *(.init9)
 .init9         0x00000088        0x2 C:/WinAVR/bin/../lib/gcc/avr/3.4.5/../../../../avr/lib/crttn13.o
 *(.text)
 .text          0x0000008a        0x2 C:/WinAVR/bin/../lib/gcc/avr/3.4.5/../../../../avr/lib/crttn13.o
                0x0000008a                __vector_1
                0x0000008a                __bad_interrupt
                0x0000008a                __vector_6
                0x0000008a                __vector_3
                0x0000008a                __vector_7
                0x0000008a                __vector_5
                0x0000008a                __vector_4
                0x0000008a                __vector_9
                0x0000008a                __vector_2
                0x0000008a                __vector_8
 .text          0x0000008c      0x2a4 XYplotter.o
                0x00000144                PutLastXY
                0x0000008c                PutDec
                0x0000019a                Wait_For_Char_End
                0x000002a6                main
                0x00000204                PutDiffrentXY
                0x00000130                PutSemicolom
                0x000001d2                PutPlotterInitalization
 .text          0x00000330       0x4c PcRs232.o
                0x00000358                GetChar
                0x00000374                UART_delay
                0x0000033c                PutChar
                0x00000330                Puts
 .text          0x0000037c       0x16 ADC.o
                0x0000037c                Get_adc
                0x00000392                . = ALIGN (0x2)
 *(.text.*)
 .text.libgcc   0x00000392       0x2c C:/WinAVR/lib/gcc/avr/3.4.5\libgcc.a(_udivmodhi4.o)
                0x00000392                __udivmodhi4
                0x000003be                . = ALIGN (0x2)
 *(.fini9)
 *(.fini8)
 *(.fini7)
 *(.fini6)
 *(.fini5)
 *(.fini4)
 *(.fini3)
 *(.fini2)
 *(.fini1)
 *(.fini0)
                0x000003be                _etext = .

.data           0x00800060        0x2 load address 0x000003be
                0x00800060                PROVIDE (__data_start, .)
 *(.data)
 .data          0x00800060        0x1 PcRs232.o
 *(.gnu.linkonce.d*)
                0x00800062                . = ALIGN (0x2)
 *fill*         0x00800061        0x1 00
                0x00800062                _edata = .
                0x00800062                PROVIDE (__data_end, .)

.bss            0x00800062        0xd
                0x00800062                PROVIDE (__bss_start, .)
 *(.bss)
 *(COMMON)
 COMMON         0x00800062        0xd XYplotter.o
                0x00800062                ADC_Y
                0x00800064                Last_ADC_X
                0x00800066                dec_out
                0x00800068                Idel_Mode
                0x00800069                Last_ADC_Y
                0x0080006b                Pen
                0x0080006c                ADC_X
                0x0080006e                Last_Pen
                0x0080006f                PROVIDE (__bss_end, .)
                0x000003be                __data_load_start = LOADADDR (.data)
                0x000003c0                __data_load_end = (__data_load_start + SIZEOF (.data))

.noinit         0x0080006f        0x0
                0x0080006f                PROVIDE (__noinit_start, .)
 *(.noinit*)
                0x0080006f                PROVIDE (__noinit_end, .)
                0x0080006f                _end = .
                0x0080006f                PROVIDE (__heap_start, .)

.eeprom         0x00810000        0x0
 *(.eeprom*)
                0x00810000                __eeprom_end = .

.stab           0x00000000      0x354
 *(.stab)
 .stab          0x00000000      0x354 C:/WinAVR/bin/../lib/gcc/avr/3.4.5/../../../../avr/lib/crttn13.o

.stabstr        0x00000000       0x84
 *(.stabstr)
 .stabstr       0x00000000       0x84 C:/WinAVR/bin/../lib/gcc/avr/3.4.5/../../../../avr/lib/crttn13.o

.stab.excl
 *(.stab.excl)

.stab.exclstr
 *(.stab.exclstr)

.stab.index
 *(.stab.index)

.stab.indexstr
 *(.stab.indexstr)

.comment
 *(.comment)

.debug
 *(.debug)

.line
 *(.line)

.debug_srcinfo
 *(.debug_srcinfo)

.debug_sfnames
 *(.debug_sfnames)

.debug_aranges  0x00000000       0x14
 *(.debug_aranges)
 .debug_aranges
                0x00000000       0x14 XYplotter.o

.debug_pubnames
                0x00000000       0xea
 *(.debug_pubnames)
 .debug_pubnames
                0x00000000       0xea XYplotter.o

.debug_info     0x00000000      0x2d7
 *(.debug_info)
 .debug_info    0x00000000      0x2d7 XYplotter.o
 *(.gnu.linkonce.wi.*)

.debug_abbrev   0x00000000       0xb3
 *(.debug_abbrev)
 .debug_abbrev  0x00000000       0xb3 XYplotter.o

.debug_line     0x00000000      0x275
 *(.debug_line)
 .debug_line    0x00000000      0x275 XYplotter.o

.debug_frame
 *(.debug_frame)

.debug_str      0x00000000       0x29
 *(.debug_str)
 .debug_str     0x00000000       0x29 XYplotter.o

.debug_loc
 *(.debug_loc)

.debug_macinfo
 *(.debug_macinfo)
OUTPUT(XYplotter.elf elf32-avr)
