Archive member included       because of file (symbol)

D:\Develop\avrgcc\bin\..\lib\gcc-lib\avr\3.0.2\libgcc.a(_udivmodsi4.o)
                              ../../obj/avr/serial_avr.o (__udivmodsi4)

Allocating common symbols
Common symbol       size              file

uart_receivedChar   0x1               ../../obj/avr/serial_avr.o
uart_rxChar         0x1               ../../obj/avr/serial_avr.o
pBuffer             0x2               ../../obj/avr/serial_avr.o
uart_ready          0x1               ../../obj/avr/serial_avr.o

Memory Configuration

Name             Origin             Length             Attributes
text             0x00000000         0x00002000         xr
data             0x00800060         0x00000200         rw !x
eeprom           0x00810000         0x00000200         rw !x
*default*        0x00000000         0xffffffff

Linker script and memory map

LOAD D:\Develop\avrgcc\bin\..\lib\gcc-lib\avr\3.0.2\..\..\..\..\avr\lib\crts8515.o
LOAD ../../obj/avr/serial_avr.o
LOAD ../../obj/avr/serial.o
LOAD ../../obj/avr/slip.o
LOAD ../../obj/avr/slipdump.o
LOAD D:\Develop\avrgcc\bin\..\lib\gcc-lib\avr\3.0.2\libgcc.a
LOAD D:\Develop\avrgcc\bin\..\lib\gcc-lib\avr\3.0.2\..\..\..\..\avr\lib\libc.a
LOAD D:\Develop\avrgcc\bin\..\lib\gcc-lib\avr\3.0.2\libgcc.a

.hash
 *(.hash)

.dynsym
 *(.dynsym)

.dynstr
 *(.dynstr)

.gnu.version
 *(.gnu.version)

.gnu.version_d
 *(.gnu.version_d)

.gnu.version_r
 *(.gnu.version_r)

.rel.init
 *(.rel.init)

.rela.init
 *(.rela.init)

.rel.text
 *(.rel.text)
 *(.rel.text.*)
 *(.rel.gnu.linkonce.t*)

.rela.text
 *(.rela.text)
 *(.rela.text.*)
 *(.rela.gnu.linkonce.t*)

.rel.fini
 *(.rel.fini)

.rela.fini
 *(.rela.fini)

.rel.rodata
 *(.rel.rodata)
 *(.rel.rodata.*)
 *(.rel.gnu.linkonce.r*)

.rela.rodata
 *(.rela.rodata)
 *(.rela.rodata.*)
 *(.rela.gnu.linkonce.r*)

.rel.data
 *(.rel.data)
 *(.rel.data.*)
 *(.rel.gnu.linkonce.d*)

.rela.data
 *(.rela.data)
 *(.rela.data.*)
 *(.rela.gnu.linkonce.d*)

.rel.ctors
 *(.rel.ctors)

.rela.ctors
 *(.rela.ctors)

.rel.dtors
 *(.rel.dtors)

.rela.dtors
 *(.rela.dtors)

.rel.got
 *(.rel.got)

.rela.got
 *(.rela.got)

.rel.bss
 *(.rel.bss)

.rela.bss
 *(.rela.bss)

.rel.plt
 *(.rel.plt)

.rela.plt
 *(.rela.plt)

.text           0x00000000      0x81c
 *(.init)
 .init          0x00000000       0x1a D:\Develop\avrgcc\bin\..\lib\gcc-lib\avr\3.0.2\..\..\..\..\avr\lib\crts8515.o
 *(.progmem.gcc*)
 *(.progmem*)
 .progmem.data  0x0000001a        0x3 ../../obj/avr/serial_avr.o
                0x0000001a                uart_endOfLine
 *fill*         0x0000001d        0x1
                0x0000001e                .=ALIGN(0x2)
 *(.text)
 .text          0x0000001e       0x3c D:\Develop\avrgcc\bin\..\lib\gcc-lib\avr\3.0.2\..\..\..\..\avr\lib\crts8515.o
                0x00000056                _overflow1_
                0x00000056                _interrupt1_
                0x00000056                _spi_
                0x00000056                _overflow0_
                0x0000001e                _init_
                0x00000056                _output_compare1b_
                0x00000056                _uart_data_
                0x00000058                _unexpected_
                0x00000056                _comparator_
                0x00000056                _interrupt0_
                0x00000056                _output_compare1a_
                0x00000056                _input_capture1_
                0x0000001e                _real_init_
 .text          0x0000005a      0x11e ../../obj/avr/serial_avr.o
                0x0000005a                _uart_trans_
                0x000000ec                uart_receiveByte
                0x00000120                uart_printEndOfLine
                0x00000140                uart_init
                0x000000b2                _uart_recv_
                0x000000da                uart_sendByte
                0x00000100                uart_printProgString
 .text          0x00000178      0x176 ../../obj/avr/serial.o
                0x0000018c                serial_destroy
                0x00000190                serial_open
                0x000001c2                serial_close
                0x00000290                serial_write
                0x000001d6                serial_ioctl
                0x00000178                serial_create
                0x0000022c                serial_read
 .text          0x000002ee      0x2c6 ../../obj/avr/slip.o
                0x00000332                slip_ioctl
                0x00000370                slip_read
                0x00000300                slip_destroy
                0x00000302                slip_open
                0x0000043a                slip_write
                0x0000031a                slip_close
                0x000002ee                slip_create
 .text          0x000005b4      0x21a ../../obj/avr/slipdump.o
                0x000005b4                main
                0x000007ce                .=ALIGN(0x2)
 *(.text.*)
 .text.libgcc   0x000007ce       0x4e D:\Develop\avrgcc\bin\..\lib\gcc-lib\avr\3.0.2\libgcc.a(_udivmodsi4.o)
                0x000007ce                __udivmodsi4
                0x0000081c                .=ALIGN(0x2)
 *(.fini)
                0x0000081c                _etext=.

.data           0x00800060       0xa4 load address 0x0000081c
                0x00800060                PROVIDE (__data_start, .)
 *(.data)
 .data          0x00800060       0xa4 ../../obj/avr/slipdump.o
 *(.gnu.linkonce.d*)
                0x00800104                .=ALIGN(0x2)
                0x00800104                _edata=.

.bss            0x00800104        0x5
                0x00800104                PROVIDE (__bss_start, .)
 *(.bss)
 *(COMMON)
 COMMON         0x00800104        0x5 ../../obj/avr/serial_avr.o
                                  0x0 (size before relaxing)
                0x00800104                uart_receivedChar
                0x00800105                uart_rxChar
                0x00800106                pBuffer
                0x00800108                uart_ready
                0x00800109                PROVIDE (__bss_end, .)
                0x00800109                _end=.

.eeprom         0x00810000        0x0 load address 0x000008c0
 *(.eeprom*)
                0x00810000                __eeprom_end=.

.stab           0x00000000     0x1c80
 *(.stab)
 .stab          0x00000000      0x324 D:\Develop\avrgcc\bin\..\lib\gcc-lib\avr\3.0.2\..\..\..\..\avr\lib\crts8515.o
 .stab          0x00000324      0x708 ../../obj/avr/serial_avr.o
                                0x744 (size before relaxing)
 .stab          0x00000a2c      0x6e4 ../../obj/avr/serial.o
                                0x900 (size before relaxing)
 .stab          0x00001110      0x690 ../../obj/avr/slip.o
                                0x75c (size before relaxing)
 .stab          0x000017a0      0x4e0 ../../obj/avr/slipdump.o
                                0x774 (size before relaxing)

.stabstr        0x00000000     0x19dc
 *(.stabstr)
 .stabstr       0x00000000     0x19dc D:\Develop\avrgcc\bin\..\lib\gcc-lib\avr\3.0.2\..\..\..\..\avr\lib\crts8515.o
                                  0x0 (size before relaxing)

.stab.excl
 *(.stab.excl)

.stab.exclstr
 *(.stab.exclstr)

.stab.index
 *(.stab.index)

.stab.indexstr
 *(.stab.indexstr)

.comment
 *(.comment)

.debug
 *(.debug)

.line
 *(.line)

.debug_srcinfo
 *(.debug_srcinfo)

.debug_sfnames
 *(.debug_sfnames)

.debug_aranges
 *(.debug_aranges)

.debug_pubnames
 *(.debug_pubnames)

.debug_info
 *(.debug_info)
 *(.gnu.linkonce.wi.*)

.debug_abbrev
 *(.debug_abbrev)

.debug_line
 *(.debug_line)

.debug_frame
 *(.debug_frame)

.debug_str
 *(.debug_str)

.debug_loc
 *(.debug_loc)

.debug_macinfo
 *(.debug_macinfo)
                0x0000025f                PROVIDE (__stack, 0x25f)
OUTPUT(../../obj/avr/slipdump.elf elf32-avr)

Cross Reference Table

Symbol                                            File
__bss_end                                         D:\Develop\avrgcc\bin\..\lib\gcc-lib\avr\3.0.2\..\..\..\..\avr\lib\crts8515.o
__bss_start                                       D:\Develop\avrgcc\bin\..\lib\gcc-lib\avr\3.0.2\..\..\..\..\avr\lib\crts8515.o
__data_start                                      D:\Develop\avrgcc\bin\..\lib\gcc-lib\avr\3.0.2\..\..\..\..\avr\lib\crts8515.o
__init_emcucr__                                   D:\Develop\avrgcc\bin\..\lib\gcc-lib\avr\3.0.2\..\..\..\..\avr\lib\crts8515.o
__init_mcucr__                                    D:\Develop\avrgcc\bin\..\lib\gcc-lib\avr\3.0.2\..\..\..\..\avr\lib\crts8515.o
__init_wdtcr__                                    D:\Develop\avrgcc\bin\..\lib\gcc-lib\avr\3.0.2\..\..\..\..\avr\lib\crts8515.o
__stack                                           D:\Develop\avrgcc\bin\..\lib\gcc-lib\avr\3.0.2\..\..\..\..\avr\lib\crts8515.o
                                                  ../../obj/avr/slipdump.o
__udivmodsi4                                      D:\Develop\avrgcc\bin\..\lib\gcc-lib\avr\3.0.2\libgcc.a(_udivmodsi4.o)
                                                  ../../obj/avr/serial_avr.o
_comparator_                                      D:\Develop\avrgcc\bin\..\lib\gcc-lib\avr\3.0.2\..\..\..\..\avr\lib\crts8515.o
_edata                                            D:\Develop\avrgcc\bin\..\lib\gcc-lib\avr\3.0.2\..\..\..\..\avr\lib\crts8515.o
_etext                                            D:\Develop\avrgcc\bin\..\lib\gcc-lib\avr\3.0.2\..\..\..\..\avr\lib\crts8515.o
_init_                                            D:\Develop\avrgcc\bin\..\lib\gcc-lib\avr\3.0.2\..\..\..\..\avr\lib\crts8515.o
_input_capture1_                                  D:\Develop\avrgcc\bin\..\lib\gcc-lib\avr\3.0.2\..\..\..\..\avr\lib\crts8515.o
_interrupt0_                                      D:\Develop\avrgcc\bin\..\lib\gcc-lib\avr\3.0.2\..\..\..\..\avr\lib\crts8515.o
_interrupt1_                                      D:\Develop\avrgcc\bin\..\lib\gcc-lib\avr\3.0.2\..\..\..\..\avr\lib\crts8515.o
_output_compare1a_                                D:\Develop\avrgcc\bin\..\lib\gcc-lib\avr\3.0.2\..\..\..\..\avr\lib\crts8515.o
_output_compare1b_                                D:\Develop\avrgcc\bin\..\lib\gcc-lib\avr\3.0.2\..\..\..\..\avr\lib\crts8515.o
_overflow0_                                       D:\Develop\avrgcc\bin\..\lib\gcc-lib\avr\3.0.2\..\..\..\..\avr\lib\crts8515.o
_overflow1_                                       D:\Develop\avrgcc\bin\..\lib\gcc-lib\avr\3.0.2\..\..\..\..\avr\lib\crts8515.o
_real_init_                                       D:\Develop\avrgcc\bin\..\lib\gcc-lib\avr\3.0.2\..\..\..\..\avr\lib\crts8515.o
_spi_                                             D:\Develop\avrgcc\bin\..\lib\gcc-lib\avr\3.0.2\..\..\..\..\avr\lib\crts8515.o
_uart_data_                                       D:\Develop\avrgcc\bin\..\lib\gcc-lib\avr\3.0.2\..\..\..\..\avr\lib\crts8515.o
_uart_recv_                                       ../../obj/avr/serial_avr.o
                                                  D:\Develop\avrgcc\bin\..\lib\gcc-lib\avr\3.0.2\..\..\..\..\avr\lib\crts8515.o
_uart_trans_                                      ../../obj/avr/serial_avr.o
                                                  D:\Develop\avrgcc\bin\..\lib\gcc-lib\avr\3.0.2\..\..\..\..\avr\lib\crts8515.o
_unexpected_                                      D:\Develop\avrgcc\bin\..\lib\gcc-lib\avr\3.0.2\..\..\..\..\avr\lib\crts8515.o
main                                              ../../obj/avr/slipdump.o
                                                  D:\Develop\avrgcc\bin\..\lib\gcc-lib\avr\3.0.2\..\..\..\..\avr\lib\crts8515.o
pBuffer                                           ../../obj/avr/serial_avr.o
serial_close                                      ../../obj/avr/serial.o
                                                  ../../obj/avr/slipdump.o
serial_create                                     ../../obj/avr/serial.o
                                                  ../../obj/avr/slipdump.o
serial_destroy                                    ../../obj/avr/serial.o
                                                  ../../obj/avr/slipdump.o
serial_ioctl                                      ../../obj/avr/serial.o
                                                  ../../obj/avr/slipdump.o
serial_open                                       ../../obj/avr/serial.o
                                                  ../../obj/avr/slipdump.o
serial_read                                       ../../obj/avr/serial.o
                                                  ../../obj/avr/slipdump.o
serial_write                                      ../../obj/avr/serial.o
                                                  ../../obj/avr/slipdump.o
slip_close                                        ../../obj/avr/slip.o
                                                  ../../obj/avr/slipdump.o
slip_create                                       ../../obj/avr/slip.o
                                                  ../../obj/avr/slipdump.o
slip_destroy                                      ../../obj/avr/slip.o
                                                  ../../obj/avr/slipdump.o
slip_ioctl                                        ../../obj/avr/slip.o
                                                  ../../obj/avr/slipdump.o
slip_open                                         ../../obj/avr/slip.o
                                                  ../../obj/avr/slipdump.o
slip_read                                         ../../obj/avr/slip.o
                                                  ../../obj/avr/slipdump.o
slip_write                                        ../../obj/avr/slip.o
                                                  ../../obj/avr/slipdump.o
uart_endOfLine                                    ../../obj/avr/serial_avr.o
uart_init                                         ../../obj/avr/serial_avr.o
                                                  ../../obj/avr/serial.o
uart_printEndOfLine                               ../../obj/avr/serial_avr.o
uart_printProgString                              ../../obj/avr/serial_avr.o
uart_ready                                        ../../obj/avr/serial_avr.o
uart_receiveByte                                  ../../obj/avr/serial_avr.o
                                                  ../../obj/avr/serial.o
uart_receivedChar                                 ../../obj/avr/serial_avr.o
uart_rxChar                                       ../../obj/avr/serial_avr.o
uart_sendByte                                     ../../obj/avr/serial_avr.o
                                                  ../../obj/avr/serial.o
