   1               		.file	"simon.c"
   2               		.arch atmega16
   3               	__SREG__ = 0x3f
   4               	__SP_H__ = 0x3e
   5               	__SP_L__ = 0x3d
   6               	__tmp_reg__ = 0
   7               	__zero_reg__ = 1
   8               		.global __do_copy_data
   9               		.global __do_clear_bss
  17               	.Ltext0:
  18               	.global	PWMValues
  19               		.data
  22               	PWMValues:
  23 0000 64        		.byte	100
  24 0001 73        		.byte	115
  25 0002 82        		.byte	-126
  26 0003 91        		.byte	-111
  27               		.text
  28               	.global	CreateTimerRand
  30               	CreateTimerRand:
  31               	.LFB8:
  32               	.LM1:
  33               	/* prologue: frame size=0 */
  34               	/* prologue end (size=0) */
  35               	.LM2:
  36 0000 82B7      		in r24,82-0x20
  37               	.LM3:
  38 0002 8134      		cpi r24,lo8(65)
  39 0004 10F4      		brsh .L2
  40               	.LM4:
  41 0006 81E0      		ldi r24,lo8(1)
  42 0008 09C0      		rjmp .L3
  43               	.L2:
  44               	.LM5:
  45 000a 8138      		cpi r24,lo8(-127)
  46 000c 10F4      		brsh .L4
  47 000e 82E0      		ldi r24,lo8(2)
  48 0010 05C0      		rjmp .L3
  49               	.L4:
  50               	.LM6:
  51 0012 813C      		cpi r24,lo8(-63)
  52 0014 10F4      		brsh .L6
  53 0016 84E0      		ldi r24,lo8(4)
  54 0018 01C0      		rjmp .L3
  55               	.L6:
  56               	.LM7:
  57 001a 88E0      		ldi r24,lo8(8)
  58               	.L3:
  59               	.LM8:
  60 001c 9927      		clr r25
  61               	/* epilogue: frame size=0 */
  62 001e 0895      		ret
  63               	/* epilogue end (size=1) */
  64               	/* function CreateTimerRand size 16 (15) */
  65               	.LFE8:
  67               	.global	Delay10MS
  69               	Delay10MS:
  70               	.LFB9:
  71               	.LM9:
  72               	/* prologue: frame size=0 */
  73 0020 CF93      		push r28
  74 0022 DF93      		push r29
  75               	/* prologue end (size=2) */
  76               	.LM10:
  77 0024 282F      		mov r18,r24
  78 0026 2150      		subi r18,lo8(-(-1))
  79 0028 2F3F      		cpi r18,lo8(-1)
  80 002a 49F0      		breq .L21
  81 002c A4EC      		ldi r26,lo8(2500)
  82 002e B9E0      		ldi r27,hi8(2500)
  83 0030 C0E0      		ldi r28,hlo8(2500)
  84 0032 D0E0      		ldi r29,hhi8(2500)
  85               	.L19:
  86               	.LBB2:
  87               	.LBB3:
  88               	.LBB4:
  89               	.LBB5:
  90               	.LM11:
  91 0034 CD01      		movw r24,r26
  92               	/* #APP */
  93 0036 0197      		1: sbiw r24,1
  94 0038 F1F7      		brne 1b
  95               	/* #NOAPP */
  96               	.LBE5:
  97               	.LBE4:
  98               	.LBE3:
  99               	.LBE2:
 100 003a 2150      		subi r18,1
 101 003c D8F7      		brcc .L19
 102               	.L21:
 103               	/* epilogue: frame size=0 */
 104 003e DF91      		pop r29
 105 0040 CF91      		pop r28
 106 0042 0895      		ret
 107               	/* epilogue end (size=3) */
 108               	/* function Delay10MS size 21 (16) */
 109               	.LFE9:
 111               	.global	GenerateTone
 113               	GenerateTone:
 114               	.LFB7:
 115               	.LM12:
 116               	/* prologue: frame size=0 */
 117               	/* prologue end (size=0) */
 118               	.LM13:
 119 0044 8130      		cpi r24,lo8(1)
 120 0046 11F4      		brne .L23
 121               	.LM14:
 122 0048 80E0      		ldi r24,lo8(0)
 123 004a 09C0      		rjmp .L24
 124               	.L23:
 125               	.LM15:
 126 004c 8230      		cpi r24,lo8(2)
 127 004e 11F4      		brne .L25
 128 0050 81E0      		ldi r24,lo8(1)
 129 0052 05C0      		rjmp .L24
 130               	.L25:
 131               	.LM16:
 132 0054 8430      		cpi r24,lo8(4)
 133 0056 11F4      		brne .L27
 134 0058 82E0      		ldi r24,lo8(2)
 135 005a 01C0      		rjmp .L24
 136               	.L27:
 137               	.LM17:
 138 005c 83E0      		ldi r24,lo8(3)
 139               	.L24:
 140               	.LM18:
 141 005e 1DBC      		out (76)+1-0x20,__zero_reg__
 142 0060 1CBC      		out 76-0x20,__zero_reg__
 143               	.LM19:
 144 0062 E82F      		mov r30,r24
 145 0064 FF27      		clr r31
 146 0066 E050      		subi r30,lo8(-(PWMValues))
 147 0068 F040      		sbci r31,hi8(-(PWMValues))
 148 006a 8081      		ld r24,Z
 149 006c 9927      		clr r25
 150 006e 9BBD      		out (74)+1-0x20,r25
 151 0070 8ABD      		out 74-0x20,r24
 152               	.LM20:
 153 0072 8EB5      		in r24,78-0x20
 154 0074 8160      		ori r24,lo8(1)
 155 0076 8EBD      		out 78-0x20,r24
 156               	/* epilogue: frame size=0 */
 157 0078 0895      		ret
 158               	/* epilogue end (size=1) */
 159               	/* function GenerateTone size 27 (26) */
 160               	.LFE7:
 162               	.global	main
 164               	main:
 165               	.LFB6:
 166               	.LM21:
 167               	/* prologue: frame size=20 */
 168 007a C0E0      		ldi r28,lo8(__stack - 20)
 169 007c D0E0      		ldi r29,hi8(__stack - 20)
 170 007e DEBF      		out __SP_H__,r29
 171 0080 CDBF      		out __SP_L__,r28
 172               	/* prologue end (size=4) */
 173               	.LM22:
 174 0082 20E0      		ldi r18,lo8(0)
 175               	.LM23:
 176 0084 84E1      		ldi r24,lo8(20)
 177 0086 FE01      		movw r30,r28
 178 0088 3196      		adiw r30,1
 179 008a 1192      		st Z+,__zero_reg__
 180 008c 8A95      	        dec r24
 181 008e E9F7      		brne .-6
 182               	.LM24:
 183 0090 E22E      		mov r14,r18
 184               	.LM25:
 185 0092 F22E      		mov r15,r18
 186               	.LM26:
 187 0094 8FEF      		ldi r24,lo8(-1)
 188 0096 81BB      		out 49-0x20,r24
 189               	.LM27:
 190 0098 84BB      		out 52-0x20,r24
 191               	.LM28:
 192 009a 2ABB      		out 58-0x20,r18
 193               	.LM29:
 194 009c 22BB      		out 50-0x20,r18
 195               	.LM30:
 196 009e 85BB      		out 53-0x20,r24
 197               	.LM31:
 198 00a0 8BBB      		out 59-0x20,r24
 199               	.LM32:
 200 00a2 80E4      		ldi r24,lo8(64)
 201 00a4 8FBD      		out 79-0x20,r24
 202               	.LM33:
 203 00a6 88E0      		ldi r24,lo8(8)
 204 00a8 8EBD      		out 78-0x20,r24
 205               	.LM34:
 206 00aa 83B7      		in r24,83-0x20
 207 00ac 8160      		ori r24,lo8(1)
 208 00ae 83BF      		out 83-0x20,r24
 209               	.L71:
 210               	.LM35:
 211 00b0 822F      		mov r24,r18
 212 00b2 9927      		clr r25
 213 00b4 8230      		cpi r24,2
 214 00b6 9105      		cpc r25,__zero_reg__
 215 00b8 09F4      		brne .+2
 216 00ba 4FC0      		rjmp .L41
 217 00bc 8330      		cpi r24,3
 218 00be 9105      		cpc r25,__zero_reg__
 219 00c0 2CF4      		brge .L60
 220 00c2 0097      		sbiw r24,0
 221 00c4 79F0      		breq .L33
 222 00c6 0197      		sbiw r24,1
 223 00c8 11F1      		breq .L37
 224 00ca F2CF      		rjmp .L71
 225               	.L60:
 226 00cc 8430      		cpi r24,4
 227 00ce 9105      		cpc r25,__zero_reg__
 228 00d0 09F4      		brne .+2
 229 00d2 8EC0      		rjmp .L58
 230 00d4 8430      		cpi r24,4
 231 00d6 9105      		cpc r25,__zero_reg__
 232 00d8 0CF4      		brge .+2
 233 00da 7AC0      		rjmp .L53
 234 00dc 0597      		sbiw r24,5
 235 00de 09F4      		brne .+2
 236 00e0 8BC0      		rjmp .L59
 237 00e2 E6CF      		rjmp .L71
 238               	.L33:
 239               	.LBB6:
 240               	.LM36:
 241 00e4 81E0      		ldi r24,lo8(1)
 242 00e6 F82E      		mov r15,r24
 243               	.LM37:
 244 00e8 EE24      		clr r14
 245               	.LM38:
 246 00ea 80EF      		ldi r24,lo8(-16)
 247 00ec 85BB      		out 53-0x20,r24
 248               	.L34:
 249               	.LM39:
 250 00ee 89B3      		in r24,57-0x20
 251 00f0 8095      		com r24
 252 00f2 9927      		clr r25
 253 00f4 8F70      		andi r24,lo8(15)
 254 00f6 9070      		andi r25,hi8(15)
 255 00f8 892B      		or r24,r25
 256 00fa C9F3      		breq .L34
 257               	.LM40:
 258 00fc 8FEF      		ldi r24,lo8(-1)
 259 00fe 85BB      		out 53-0x20,r24
 260               	.LM41:
 261 0100 0E94 0000 		call CreateTimerRand
 262 0104 8983      		std Y+1,r24
 263               	.LM42:
 264 0106 88E2      		ldi r24,lo8(40)
 265 0108 0E94 0000 		call Delay10MS
 266 010c 6FC0      		rjmp .L70
 267               	.L37:
 268               	.LM43:
 269 010e 8E01      		movw r16,r28
 270 0110 0F5F      		subi r16,lo8(-(1))
 271 0112 1F4F      		sbci r17,hi8(-(1))
 272 0114 0E0D      		add r16,r14
 273 0116 111D      		adc r17,__zero_reg__
 274 0118 F801      		movw r30,r16
 275 011a 8081      		ld r24,Z
 276 011c 0E94 0000 		call GenerateTone
 277               	.LM44:
 278 0120 F801      		movw r30,r16
 279 0122 9081      		ld r25,Z
 280 0124 9095      		com r25
 281 0126 906F      		ori r25,lo8(-16)
 282 0128 85B3      		in r24,53-0x20
 283 012a 8923      		and r24,r25
 284 012c 85BB      		out 53-0x20,r24
 285               	.LM45:
 286 012e 84E1      		ldi r24,lo8(20)
 287 0130 0E94 0000 		call Delay10MS
 288               	.LM46:
 289 0134 85B3      		in r24,53-0x20
 290 0136 F801      		movw r30,r16
 291 0138 9081      		ld r25,Z
 292 013a 892B      		or r24,r25
 293 013c 806F      		ori r24,lo8(-16)
 294 013e 85BB      		out 53-0x20,r24
 295               	.LM47:
 296 0140 84E1      		ldi r24,lo8(20)
 297 0142 0E94 0000 		call Delay10MS
 298               	.LM48:
 299 0146 8EB5      		in r24,78-0x20
 300 0148 8E7F      		andi r24,lo8(-2)
 301 014a 8EBD      		out 78-0x20,r24
 302 014c 9598      		cbi 50-0x20,5
 303               	.LM49:
 304 014e E394      		inc r14
 305 0150 EF14      		cp r14,r15
 306 0152 09F0      		breq .+2
 307 0154 4BC0      		rjmp .L70
 308               	.LM50:
 309 0156 EE24      		clr r14
 310 0158 39C0      		rjmp .L48
 311               	.L41:
 312               	.LM51:
 313 015a 89B3      		in r24,57-0x20
 314 015c 8095      		com r24
 315 015e 9927      		clr r25
 316 0160 8F70      		andi r24,lo8(15)
 317 0162 9070      		andi r25,hi8(15)
 318 0164 892B      		or r24,r25
 319 0166 C9F7      		brne .L41
 320               	.L46:
 321               	.LM52:
 322 0168 09B3      		in r16,57-0x20
 323 016a 0095      		com r16
 324 016c 0F70      		andi r16,lo8(15)
 325 016e E1F3      		breq .L46
 326               	.LM53:
 327 0170 802F      		mov r24,r16
 328 0172 0E94 0000 		call GenerateTone
 329               	.LM54:
 330 0176 902F      		mov r25,r16
 331 0178 9095      		com r25
 332 017a 906F      		ori r25,lo8(-16)
 333 017c 85B3      		in r24,53-0x20
 334 017e 8923      		and r24,r25
 335 0180 85BB      		out 53-0x20,r24
 336               	.LM55:
 337 0182 84E1      		ldi r24,lo8(20)
 338 0184 0E94 0000 		call Delay10MS
 339               	.LM56:
 340 0188 85B3      		in r24,53-0x20
 341 018a 802B      		or r24,r16
 342 018c 806F      		ori r24,lo8(-16)
 343 018e 85BB      		out 53-0x20,r24
 344               	.LM57:
 345 0190 84E1      		ldi r24,lo8(20)
 346 0192 0E94 0000 		call Delay10MS
 347               	.LM58:
 348 0196 8EB5      		in r24,78-0x20
 349 0198 8E7F      		andi r24,lo8(-2)
 350 019a 8EBD      		out 78-0x20,r24
 351 019c 9598      		cbi 50-0x20,5
 352               	.LM59:
 353 019e FE01      		movw r30,r28
 354 01a0 EE0D      		add r30,r14
 355 01a2 F11D      		adc r31,__zero_reg__
 356 01a4 8181      		ldd r24,Z+1
 357 01a6 0817      		cp r16,r24
 358 01a8 29F5      		brne .L68
 359               	.LM60:
 360 01aa E394      		inc r14
 361 01ac EF14      		cp r14,r15
 362 01ae 71F4      		brne .L48
 363               	.LM61:
 364 01b0 F394      		inc r15
 365               	.LM62:
 366 01b2 EE24      		clr r14
 367               	.LM63:
 368 01b4 F4E1      		ldi r31,lo8(20)
 369 01b6 FF15      		cp r31,r15
 370 01b8 30F1      		brlo .L69
 371               	.LM64:
 372 01ba 8E01      		movw r16,r28
 373 01bc 0F0D      		add r16,r15
 374 01be 111D      		adc r17,__zero_reg__
 375 01c0 0E94 0000 		call CreateTimerRand
 376 01c4 F801      		movw r30,r16
 377 01c6 8083      		st Z,r24
 378               	.LM65:
 379 01c8 23E0      		ldi r18,lo8(3)
 380 01ca 72CF      		rjmp .L71
 381               	.L48:
 382               	.LM66:
 383 01cc 22E0      		ldi r18,lo8(2)
 384 01ce 70CF      		rjmp .L71
 385               	.L53:
 386 01d0 02E0      		ldi r16,lo8(2)
 387               	.L57:
 388               	.LBB7:
 389               	.LM67:
 390 01d2 80EF      		ldi r24,lo8(-16)
 391 01d4 85BB      		out 53-0x20,r24
 392               	.LM68:
 393 01d6 88E0      		ldi r24,lo8(8)
 394 01d8 0E94 0000 		call Delay10MS
 395               	.LM69:
 396 01dc 8FEF      		ldi r24,lo8(-1)
 397 01de 85BB      		out 53-0x20,r24
 398               	.LM70:
 399 01e0 88E0      		ldi r24,lo8(8)
 400 01e2 0E94 0000 		call Delay10MS
 401               	.LM71:
 402 01e6 0150      		subi r16,lo8(-(-1))
 403 01e8 07FF      		sbrs r16,7
 404 01ea F3CF      		rjmp .L57
 405               	.L70:
 406               	.LBE7:
 407               	.LM72:
 408 01ec 21E0      		ldi r18,lo8(1)
 409               	.LM73:
 410 01ee 60CF      		rjmp .L71
 411               	.L58:
 412               	.LM74:
 413 01f0 80EF      		ldi r24,lo8(-16)
 414 01f2 85BB      		out 53-0x20,r24
 415               	.L68:
 416               	.LM75:
 417 01f4 24E0      		ldi r18,lo8(4)
 418               	.LM76:
 419 01f6 5CCF      		rjmp .L71
 420               	.L59:
 421               	.LM77:
 422 01f8 85B3      		in r24,53-0x20
 423 01fa 8095      		com r24
 424 01fc 806F      		ori r24,lo8(-16)
 425 01fe 85BB      		out 53-0x20,r24
 426               	.LM78:
 427 0200 84E1      		ldi r24,lo8(20)
 428 0202 0E94 0000 		call Delay10MS
 429               	.L69:
 430               	.LM79:
 431 0206 25E0      		ldi r18,lo8(5)
 432               	.LBE6:
 433               	.LM80:
 434 0208 53CF      		rjmp .L71
 435               	/* epilogue: frame size=20 */
 436               	/* epilogue: noreturn */
 437               	/* epilogue end (size=0) */
 438               	/* function main size 203 (199) */
 439               	.LFE6:
 441               	.Letext0:
DEFINED SYMBOLS
                            *ABS*:00000000 simon.c
C:\DOCUME~1\Dean\LOCALS~1\Temp/ccYNaaaa.s:3      *ABS*:0000003f __SREG__
C:\DOCUME~1\Dean\LOCALS~1\Temp/ccYNaaaa.s:4      *ABS*:0000003e __SP_H__
C:\DOCUME~1\Dean\LOCALS~1\Temp/ccYNaaaa.s:5      *ABS*:0000003d __SP_L__
C:\DOCUME~1\Dean\LOCALS~1\Temp/ccYNaaaa.s:6      *ABS*:00000000 __tmp_reg__
C:\DOCUME~1\Dean\LOCALS~1\Temp/ccYNaaaa.s:7      *ABS*:00000001 __zero_reg__
C:\DOCUME~1\Dean\LOCALS~1\Temp/ccYNaaaa.s:22     .data:00000000 PWMValues
C:\DOCUME~1\Dean\LOCALS~1\Temp/ccYNaaaa.s:30     .text:00000000 CreateTimerRand
C:\DOCUME~1\Dean\LOCALS~1\Temp/ccYNaaaa.s:69     .text:00000020 Delay10MS
C:\DOCUME~1\Dean\LOCALS~1\Temp/ccYNaaaa.s:113    .text:00000044 GenerateTone
C:\DOCUME~1\Dean\LOCALS~1\Temp/ccYNaaaa.s:164    .text:0000007a main

UNDEFINED SYMBOLS
__do_copy_data
__do_clear_bss
__stack
