Archive member included because of file (symbol)

/usr/lib/gcc/avr/4.7.0/avr4/libgcc.a(_umulhisi3.o)
                              ./main.o (__umulhisi3)
/usr/lib/gcc/avr/4.7.0/avr4/libgcc.a(_exit.o)
                              /usr/lib/gcc/avr/4.7.0/../../../avr/lib/avr4/crtm8.o (exit)
/usr/lib/gcc/avr/4.7.0/avr4/libgcc.a(_copy_data.o)
                              ./main.o (__do_copy_data)
/usr/lib/gcc/avr/4.7.0/avr4/libgcc.a(_clear_bss.o)
                              ./main.o (__do_clear_bss)
/usr/lib/gcc/avr/4.7.0/avr4/libgcc.a(_fixunssfsi.o)
                              ./main.o (__fixunssfsi)
/usr/lib/gcc/avr/4.7.0/avr4/libgcc.a(_addsub_sf.o)
                              /usr/lib/gcc/avr/4.7.0/avr4/libgcc.a(_fixunssfsi.o) (__subsf3)
/usr/lib/gcc/avr/4.7.0/avr4/libgcc.a(_mul_sf.o)
                              ./main.o (__mulsf3)
/usr/lib/gcc/avr/4.7.0/avr4/libgcc.a(_div_sf.o)
                              ./main.o (__divsf3)
/usr/lib/gcc/avr/4.7.0/avr4/libgcc.a(_gt_sf.o)
                              ./main.o (__gtsf2)
/usr/lib/gcc/avr/4.7.0/avr4/libgcc.a(_ge_sf.o)
                              /usr/lib/gcc/avr/4.7.0/avr4/libgcc.a(_fixunssfsi.o) (__gesf2)
/usr/lib/gcc/avr/4.7.0/avr4/libgcc.a(_lt_sf.o)
                              ./main.o (__ltsf2)
/usr/lib/gcc/avr/4.7.0/avr4/libgcc.a(_sf_to_si.o)
                              /usr/lib/gcc/avr/4.7.0/avr4/libgcc.a(_fixunssfsi.o) (__fixsfsi)
/usr/lib/gcc/avr/4.7.0/avr4/libgcc.a(_thenan_sf.o)
                              /usr/lib/gcc/avr/4.7.0/avr4/libgcc.a(_addsub_sf.o) (__thenan_sf)
/usr/lib/gcc/avr/4.7.0/avr4/libgcc.a(_prologue.o)
                              /usr/lib/gcc/avr/4.7.0/avr4/libgcc.a(_addsub_sf.o) (__prologue_saves__)
/usr/lib/gcc/avr/4.7.0/avr4/libgcc.a(_epilogue.o)
                              /usr/lib/gcc/avr/4.7.0/avr4/libgcc.a(_addsub_sf.o) (__epilogue_restores__)
/usr/lib/gcc/avr/4.7.0/avr4/libgcc.a(_pack_sf.o)
                              /usr/lib/gcc/avr/4.7.0/avr4/libgcc.a(_addsub_sf.o) (__pack_f)
/usr/lib/gcc/avr/4.7.0/avr4/libgcc.a(_unpack_sf.o)
                              /usr/lib/gcc/avr/4.7.0/avr4/libgcc.a(_addsub_sf.o) (__unpack_f)
/usr/lib/gcc/avr/4.7.0/avr4/libgcc.a(_fpcmp_parts_sf.o)
                              /usr/lib/gcc/avr/4.7.0/avr4/libgcc.a(_gt_sf.o) (__fpcmp_parts_f)

Allocating common symbols
Common symbol       size              file

packed_number       0x8               ./main.o

Memory Configuration

Name             Origin             Length             Attributes
text             0x00000000         0x00002000         xr
data             0x00800060         0x0000ffa0         rw !x
eeprom           0x00810000         0x00010000         rw !x
fuse             0x00820000         0x00000400         rw !x
lock             0x00830000         0x00000400         rw !x
signature        0x00840000         0x00000400         rw !x
*default*        0x00000000         0xffffffff

Linker script and memory map

LOAD /usr/lib/gcc/avr/4.7.0/../../../avr/lib/avr4/crtm8.o
LOAD ./main.o
LOAD /usr/lib/gcc/avr/4.7.0/avr4/libgcc.a
LOAD /usr/lib/gcc/avr/4.7.0/../../../avr/lib/avr4/libc.a
LOAD /usr/lib/gcc/avr/4.7.0/avr4/libgcc.a

.hash
 *(.hash)

.dynsym
 *(.dynsym)

.dynstr
 *(.dynstr)

.gnu.version
 *(.gnu.version)

.gnu.version_d
 *(.gnu.version_d)

.gnu.version_r
 *(.gnu.version_r)

.rel.init
 *(.rel.init)

.rela.init
 *(.rela.init)

.rel.text
 *(.rel.text)
 *(.rel.text.*)
 *(.rel.gnu.linkonce.t*)

.rela.text
 *(.rela.text)
 *(.rela.text.*)
 *(.rela.gnu.linkonce.t*)

.rel.fini
 *(.rel.fini)

.rela.fini
 *(.rela.fini)

.rel.rodata
 *(.rel.rodata)
 *(.rel.rodata.*)
 *(.rel.gnu.linkonce.r*)

.rela.rodata
 *(.rela.rodata)
 *(.rela.rodata.*)
 *(.rela.gnu.linkonce.r*)

.rel.data
 *(.rel.data)
 *(.rel.data.*)
 *(.rel.gnu.linkonce.d*)

.rela.data
 *(.rela.data)
 *(.rela.data.*)
 *(.rela.gnu.linkonce.d*)

.rel.ctors
 *(.rel.ctors)

.rela.ctors
 *(.rela.ctors)

.rel.dtors
 *(.rel.dtors)

.rela.dtors
 *(.rela.dtors)

.rel.got
 *(.rel.got)

.rela.got
 *(.rela.got)

.rel.bss
 *(.rel.bss)

.rela.bss
 *(.rela.bss)

.rel.plt
 *(.rel.plt)

.rela.plt
 *(.rela.plt)

.text           0x00000000     0x2b74
 *(.vectors)
 .vectors       0x00000000       0x26 /usr/lib/gcc/avr/4.7.0/../../../avr/lib/avr4/crtm8.o
                0x00000000                __vectors
                0x00000000                __vector_default
 *(.vectors)
 *(.progmem.gcc*)
 *(.progmem*)
                0x00000026                . = ALIGN (0x2)
                0x00000026                __trampolines_start = .
 *(.trampolines)
 .trampolines   0x00000026        0x0 linker stubs
 *(.trampolines*)
                0x00000026                __trampolines_end = .
 *(.jumptables)
 *(.jumptables*)
 *(.lowtext)
 *(.lowtext*)
                0x00000026                __ctors_start = .
 *(.ctors)
                0x00000026                __ctors_end = .
                0x00000026                __dtors_start = .
 *(.dtors)
                0x00000026                __dtors_end = .
 SORT(*)(.ctors)
 SORT(*)(.dtors)
 *(.init0)
 .init0         0x00000026        0x0 /usr/lib/gcc/avr/4.7.0/../../../avr/lib/avr4/crtm8.o
                0x00000026                __init
 *(.init0)
 *(.init1)
 *(.init1)
 *(.init2)
 .init2         0x00000026        0xc /usr/lib/gcc/avr/4.7.0/../../../avr/lib/avr4/crtm8.o
 *(.init2)
 *(.init3)
 *(.init3)
 *(.init4)
 .init4         0x00000032       0x16 /usr/lib/gcc/avr/4.7.0/avr4/libgcc.a(_copy_data.o)
                0x00000032                __do_copy_data
 .init4         0x00000048       0x10 /usr/lib/gcc/avr/4.7.0/avr4/libgcc.a(_clear_bss.o)
                0x00000048                __do_clear_bss
 *(.init4)
 *(.init5)
 *(.init5)
 *(.init6)
 *(.init6)
 *(.init7)
 *(.init7)
 *(.init8)
 *(.init8)
 *(.init9)
 .init9         0x00000058        0x4 /usr/lib/gcc/avr/4.7.0/../../../avr/lib/avr4/crtm8.o
 *(.init9)
 *(.text)
 .text          0x0000005c        0x2 /usr/lib/gcc/avr/4.7.0/../../../avr/lib/avr4/crtm8.o
                0x0000005c                __vector_1
                0x0000005c                __vector_12
                0x0000005c                __bad_interrupt
                0x0000005c                __vector_6
                0x0000005c                __vector_3
                0x0000005c                __vector_11
                0x0000005c                __vector_13
                0x0000005c                __vector_17
                0x0000005c                __vector_7
                0x0000005c                __vector_5
                0x0000005c                __vector_4
                0x0000005c                __vector_9
                0x0000005c                __vector_2
                0x0000005c                __vector_15
                0x0000005c                __vector_8
                0x0000005c                __vector_14
                0x0000005c                __vector_10
                0x0000005c                __vector_16
                0x0000005c                __vector_18
 .text          0x0000005e     0x1f48 ./main.o
                0x0000005e                rs_hi
                0x00000212                read_word
                0x00000396                write_word
                0x0000043c                rs_lo
                0x000005f0                rw_hi
                0x000007a4                rw_lo
                0x00000958                e_hi
                0x00000b0c                e_lo
                0x00000cc0                toggle_E
                0x00000cd2                clcd_init
                0x00000e30                set_cgram_address
                0x00000e74                glcd_enable
                0x00000fd2                write_data
                0x00001002                write_wdata
                0x00001048                test_ports
                0x00001454                cdisplay_clear
                0x0000147e                gotoxy
                0x000014dc                glcd_fill
                0x0000152e                wait
                0x00001550                set_pixel
                0x000015dc                clr_pixel
                0x00001668                write_number_xy
                0x000016fc                write_lnumber_xy
                0x000018d8                test_write
                0x00001c4a                main
 .text          0x00001fa6        0x0 /usr/lib/gcc/avr/4.7.0/avr4/libgcc.a(_umulhisi3.o)
 .text          0x00001fa6        0x0 /usr/lib/gcc/avr/4.7.0/avr4/libgcc.a(_exit.o)
 .text          0x00001fa6        0x0 /usr/lib/gcc/avr/4.7.0/avr4/libgcc.a(_copy_data.o)
 .text          0x00001fa6        0x0 /usr/lib/gcc/avr/4.7.0/avr4/libgcc.a(_clear_bss.o)
 .text          0x00001fa6       0x52 /usr/lib/gcc/avr/4.7.0/avr4/libgcc.a(_fixunssfsi.o)
                0x00001fa6                __fixunssfsi
 .text          0x00001ff8      0x340 /usr/lib/gcc/avr/4.7.0/avr4/libgcc.a(_addsub_sf.o)
                0x00002298                __addsf3
                0x000022e4                __subsf3
 .text          0x00002338      0x1c0 /usr/lib/gcc/avr/4.7.0/avr4/libgcc.a(_mul_sf.o)
                0x00002338                __mulsf3
 .text          0x000024f8      0x13c /usr/lib/gcc/avr/4.7.0/avr4/libgcc.a(_div_sf.o)
                0x000024f8                __divsf3
 .text          0x00002634       0x54 /usr/lib/gcc/avr/4.7.0/avr4/libgcc.a(_gt_sf.o)
                0x00002634                __gtsf2
 .text          0x00002688       0x54 /usr/lib/gcc/avr/4.7.0/avr4/libgcc.a(_ge_sf.o)
                0x00002688                __gesf2
 .text          0x000026dc       0x54 /usr/lib/gcc/avr/4.7.0/avr4/libgcc.a(_lt_sf.o)
                0x000026dc                __ltsf2
 .text          0x00002730       0x98 /usr/lib/gcc/avr/4.7.0/avr4/libgcc.a(_sf_to_si.o)
                0x00002730                __fixsfsi
 .text          0x000027c8        0x0 /usr/lib/gcc/avr/4.7.0/avr4/libgcc.a(_thenan_sf.o)
 .text          0x000027c8        0x0 /usr/lib/gcc/avr/4.7.0/avr4/libgcc.a(_prologue.o)
 .text          0x000027c8        0x0 /usr/lib/gcc/avr/4.7.0/avr4/libgcc.a(_epilogue.o)
 .text          0x000027c8      0x182 /usr/lib/gcc/avr/4.7.0/avr4/libgcc.a(_pack_sf.o)
                0x000027c8                __pack_f
 .text          0x0000294a       0xde /usr/lib/gcc/avr/4.7.0/avr4/libgcc.a(_unpack_sf.o)
                0x0000294a                __unpack_f
 .text          0x00002a28       0xc2 /usr/lib/gcc/avr/4.7.0/avr4/libgcc.a(_fpcmp_parts_sf.o)
                0x00002a28                __fpcmp_parts_f
                0x00002aea                . = ALIGN (0x2)
 *(.text.*)
 .text.libgcc.mul
                0x00002aea       0x18 /usr/lib/gcc/avr/4.7.0/avr4/libgcc.a(_umulhisi3.o)
                0x00002aea                __umulhisi3
 .text.libgcc.div
                0x00002b02        0x0 /usr/lib/gcc/avr/4.7.0/avr4/libgcc.a(_umulhisi3.o)
 .text.libgcc   0x00002b02        0x0 /usr/lib/gcc/avr/4.7.0/avr4/libgcc.a(_umulhisi3.o)
 .text.libgcc.prologue
                0x00002b02        0x0 /usr/lib/gcc/avr/4.7.0/avr4/libgcc.a(_umulhisi3.o)
 .text.libgcc.builtins
                0x00002b02        0x0 /usr/lib/gcc/avr/4.7.0/avr4/libgcc.a(_umulhisi3.o)
 .text.libgcc.fmul
                0x00002b02        0x0 /usr/lib/gcc/avr/4.7.0/avr4/libgcc.a(_umulhisi3.o)
 .text.libgcc.mul
                0x00002b02        0x0 /usr/lib/gcc/avr/4.7.0/avr4/libgcc.a(_exit.o)
 .text.libgcc.div
                0x00002b02        0x0 /usr/lib/gcc/avr/4.7.0/avr4/libgcc.a(_exit.o)
 .text.libgcc   0x00002b02        0x0 /usr/lib/gcc/avr/4.7.0/avr4/libgcc.a(_exit.o)
 .text.libgcc.prologue
                0x00002b02        0x0 /usr/lib/gcc/avr/4.7.0/avr4/libgcc.a(_exit.o)
 .text.libgcc.builtins
                0x00002b02        0x0 /usr/lib/gcc/avr/4.7.0/avr4/libgcc.a(_exit.o)
 .text.libgcc.fmul
                0x00002b02        0x0 /usr/lib/gcc/avr/4.7.0/avr4/libgcc.a(_exit.o)
 .text.libgcc.mul
                0x00002b02        0x0 /usr/lib/gcc/avr/4.7.0/avr4/libgcc.a(_copy_data.o)
 .text.libgcc.div
                0x00002b02        0x0 /usr/lib/gcc/avr/4.7.0/avr4/libgcc.a(_copy_data.o)
 .text.libgcc   0x00002b02        0x0 /usr/lib/gcc/avr/4.7.0/avr4/libgcc.a(_copy_data.o)
 .text.libgcc.prologue
                0x00002b02        0x0 /usr/lib/gcc/avr/4.7.0/avr4/libgcc.a(_copy_data.o)
 .text.libgcc.builtins
                0x00002b02        0x0 /usr/lib/gcc/avr/4.7.0/avr4/libgcc.a(_copy_data.o)
 .text.libgcc.fmul
                0x00002b02        0x0 /usr/lib/gcc/avr/4.7.0/avr4/libgcc.a(_copy_data.o)
 .text.libgcc.mul
                0x00002b02        0x0 /usr/lib/gcc/avr/4.7.0/avr4/libgcc.a(_clear_bss.o)
 .text.libgcc.div
                0x00002b02        0x0 /usr/lib/gcc/avr/4.7.0/avr4/libgcc.a(_clear_bss.o)
 .text.libgcc   0x00002b02        0x0 /usr/lib/gcc/avr/4.7.0/avr4/libgcc.a(_clear_bss.o)
 .text.libgcc.prologue
                0x00002b02        0x0 /usr/lib/gcc/avr/4.7.0/avr4/libgcc.a(_clear_bss.o)
 .text.libgcc.builtins
                0x00002b02        0x0 /usr/lib/gcc/avr/4.7.0/avr4/libgcc.a(_clear_bss.o)
 .text.libgcc.fmul
                0x00002b02        0x0 /usr/lib/gcc/avr/4.7.0/avr4/libgcc.a(_clear_bss.o)
 .text.libgcc.mul
                0x00002b02        0x0 /usr/lib/gcc/avr/4.7.0/avr4/libgcc.a(_prologue.o)
 .text.libgcc.div
                0x00002b02        0x0 /usr/lib/gcc/avr/4.7.0/avr4/libgcc.a(_prologue.o)
 .text.libgcc   0x00002b02        0x0 /usr/lib/gcc/avr/4.7.0/avr4/libgcc.a(_prologue.o)
 .text.libgcc.prologue
                0x00002b02       0x38 /usr/lib/gcc/avr/4.7.0/avr4/libgcc.a(_prologue.o)
                0x00002b02                __prologue_saves__
 .text.libgcc.builtins
                0x00002b3a        0x0 /usr/lib/gcc/avr/4.7.0/avr4/libgcc.a(_prologue.o)
 .text.libgcc.fmul
                0x00002b3a        0x0 /usr/lib/gcc/avr/4.7.0/avr4/libgcc.a(_prologue.o)
 .text.libgcc.mul
                0x00002b3a        0x0 /usr/lib/gcc/avr/4.7.0/avr4/libgcc.a(_epilogue.o)
 .text.libgcc.div
                0x00002b3a        0x0 /usr/lib/gcc/avr/4.7.0/avr4/libgcc.a(_epilogue.o)
 .text.libgcc   0x00002b3a        0x0 /usr/lib/gcc/avr/4.7.0/avr4/libgcc.a(_epilogue.o)
 .text.libgcc.prologue
                0x00002b3a       0x36 /usr/lib/gcc/avr/4.7.0/avr4/libgcc.a(_epilogue.o)
                0x00002b3a                __epilogue_restores__
 .text.libgcc.builtins
                0x00002b70        0x0 /usr/lib/gcc/avr/4.7.0/avr4/libgcc.a(_epilogue.o)
 .text.libgcc.fmul
                0x00002b70        0x0 /usr/lib/gcc/avr/4.7.0/avr4/libgcc.a(_epilogue.o)
                0x00002b70                . = ALIGN (0x2)
 *(.fini9)
 .fini9         0x00002b70        0x0 /usr/lib/gcc/avr/4.7.0/avr4/libgcc.a(_exit.o)
                0x00002b70                exit
                0x00002b70                _exit
 *(.fini9)
 *(.fini8)
 *(.fini8)
 *(.fini7)
 *(.fini7)
 *(.fini6)
 *(.fini6)
 *(.fini5)
 *(.fini5)
 *(.fini4)
 *(.fini4)
 *(.fini3)
 *(.fini3)
 *(.fini2)
 *(.fini2)
 *(.fini1)
 *(.fini1)
 *(.fini0)
 .fini0         0x00002b70        0x4 /usr/lib/gcc/avr/4.7.0/avr4/libgcc.a(_exit.o)
 *(.fini0)
                0x00002b74                _etext = .

.data           0x00800060       0xa4 load address 0x00002b74
                0x00800060                PROVIDE (__data_start, .)
 *(.data)
 .data          0x00800060        0x0 /usr/lib/gcc/avr/4.7.0/../../../avr/lib/avr4/crtm8.o
 .data          0x00800060       0x57 ./main.o
                0x00800060                numbers
                0x00800097                pnumbers
                0x008000b5                x
 .data          0x008000b7        0x0 /usr/lib/gcc/avr/4.7.0/avr4/libgcc.a(_umulhisi3.o)
 .data          0x008000b7        0x0 /usr/lib/gcc/avr/4.7.0/avr4/libgcc.a(_exit.o)
 .data          0x008000b7        0x0 /usr/lib/gcc/avr/4.7.0/avr4/libgcc.a(_copy_data.o)
 .data          0x008000b7        0x0 /usr/lib/gcc/avr/4.7.0/avr4/libgcc.a(_clear_bss.o)
 .data          0x008000b7        0x0 /usr/lib/gcc/avr/4.7.0/avr4/libgcc.a(_fixunssfsi.o)
 .data          0x008000b7        0x0 /usr/lib/gcc/avr/4.7.0/avr4/libgcc.a(_addsub_sf.o)
 .data          0x008000b7        0x0 /usr/lib/gcc/avr/4.7.0/avr4/libgcc.a(_mul_sf.o)
 .data          0x008000b7        0x0 /usr/lib/gcc/avr/4.7.0/avr4/libgcc.a(_div_sf.o)
 .data          0x008000b7        0x0 /usr/lib/gcc/avr/4.7.0/avr4/libgcc.a(_gt_sf.o)
 .data          0x008000b7        0x0 /usr/lib/gcc/avr/4.7.0/avr4/libgcc.a(_ge_sf.o)
 .data          0x008000b7        0x0 /usr/lib/gcc/avr/4.7.0/avr4/libgcc.a(_lt_sf.o)
 .data          0x008000b7        0x0 /usr/lib/gcc/avr/4.7.0/avr4/libgcc.a(_sf_to_si.o)
 .data          0x008000b7        0x0 /usr/lib/gcc/avr/4.7.0/avr4/libgcc.a(_thenan_sf.o)
 .data          0x008000b7        0x0 /usr/lib/gcc/avr/4.7.0/avr4/libgcc.a(_prologue.o)
 .data          0x008000b7        0x0 /usr/lib/gcc/avr/4.7.0/avr4/libgcc.a(_epilogue.o)
 .data          0x008000b7        0x0 /usr/lib/gcc/avr/4.7.0/avr4/libgcc.a(_pack_sf.o)
 .data          0x008000b7        0x0 /usr/lib/gcc/avr/4.7.0/avr4/libgcc.a(_unpack_sf.o)
 .data          0x008000b7        0x0 /usr/lib/gcc/avr/4.7.0/avr4/libgcc.a(_fpcmp_parts_sf.o)
 *(.data*)
 *(.rodata)
 .rodata        0x008000b7       0x44 ./main.o
 .rodata        0x008000fb        0x8 /usr/lib/gcc/avr/4.7.0/avr4/libgcc.a(_thenan_sf.o)
                0x008000fb                __thenan_sf
 *(.rodata*)
 *(.gnu.linkonce.d*)
                0x00800104                . = ALIGN (0x2)
 *fill*         0x00800103        0x1 00
                0x00800104                _edata = .
                0x00800104                PROVIDE (__data_end, .)

.bss            0x00800104        0x8
                0x00800104                PROVIDE (__bss_start, .)
 *(.bss)
 .bss           0x00800104        0x0 /usr/lib/gcc/avr/4.7.0/../../../avr/lib/avr4/crtm8.o
 .bss           0x00800104        0x0 ./main.o
 .bss           0x00800104        0x0 /usr/lib/gcc/avr/4.7.0/avr4/libgcc.a(_umulhisi3.o)
 .bss           0x00800104        0x0 /usr/lib/gcc/avr/4.7.0/avr4/libgcc.a(_exit.o)
 .bss           0x00800104        0x0 /usr/lib/gcc/avr/4.7.0/avr4/libgcc.a(_copy_data.o)
 .bss           0x00800104        0x0 /usr/lib/gcc/avr/4.7.0/avr4/libgcc.a(_clear_bss.o)
 .bss           0x00800104        0x0 /usr/lib/gcc/avr/4.7.0/avr4/libgcc.a(_fixunssfsi.o)
 .bss           0x00800104        0x0 /usr/lib/gcc/avr/4.7.0/avr4/libgcc.a(_addsub_sf.o)
 .bss           0x00800104        0x0 /usr/lib/gcc/avr/4.7.0/avr4/libgcc.a(_mul_sf.o)
 .bss           0x00800104        0x0 /usr/lib/gcc/avr/4.7.0/avr4/libgcc.a(_div_sf.o)
 .bss           0x00800104        0x0 /usr/lib/gcc/avr/4.7.0/avr4/libgcc.a(_gt_sf.o)
 .bss           0x00800104        0x0 /usr/lib/gcc/avr/4.7.0/avr4/libgcc.a(_ge_sf.o)
 .bss           0x00800104        0x0 /usr/lib/gcc/avr/4.7.0/avr4/libgcc.a(_lt_sf.o)
 .bss           0x00800104        0x0 /usr/lib/gcc/avr/4.7.0/avr4/libgcc.a(_sf_to_si.o)
 .bss           0x00800104        0x0 /usr/lib/gcc/avr/4.7.0/avr4/libgcc.a(_thenan_sf.o)
 .bss           0x00800104        0x0 /usr/lib/gcc/avr/4.7.0/avr4/libgcc.a(_prologue.o)
 .bss           0x00800104        0x0 /usr/lib/gcc/avr/4.7.0/avr4/libgcc.a(_epilogue.o)
 .bss           0x00800104        0x0 /usr/lib/gcc/avr/4.7.0/avr4/libgcc.a(_pack_sf.o)
 .bss           0x00800104        0x0 /usr/lib/gcc/avr/4.7.0/avr4/libgcc.a(_unpack_sf.o)
 .bss           0x00800104        0x0 /usr/lib/gcc/avr/4.7.0/avr4/libgcc.a(_fpcmp_parts_sf.o)
 *(.bss*)
 *(COMMON)
 COMMON         0x00800104        0x8 ./main.o
                0x00800104                packed_number
                0x0080010c                PROVIDE (__bss_end, .)
                0x00002b74                __data_load_start = LOADADDR (.data)
                0x00002c18                __data_load_end = (__data_load_start + SIZEOF (.data))

.noinit         0x0080010c        0x0
                0x0080010c                PROVIDE (__noinit_start, .)
 *(.noinit*)
                0x0080010c                PROVIDE (__noinit_end, .)
                0x0080010c                _end = .
                0x0080010c                PROVIDE (__heap_start, .)

.eeprom         0x00810000        0x0
 *(.eeprom*)
                0x00810000                __eeprom_end = .

.fuse
 *(.fuse)
 *(.lfuse)
 *(.hfuse)
 *(.efuse)

.lock
 *(.lock*)

.signature
 *(.signature*)

.stab           0x00000000     0x2afc
 *(.stab)
 .stab          0x00000000      0x6cc /usr/lib/gcc/avr/4.7.0/../../../avr/lib/avr4/crtm8.o
 .stab          0x000006cc     0x2430 ./main.o
                               0x243c (size before relaxing)

.stabstr        0x00000000      0xc38
 *(.stabstr)
 .stabstr       0x00000000      0xc38 /usr/lib/gcc/avr/4.7.0/../../../avr/lib/avr4/crtm8.o

.stab.excl
 *(.stab.excl)

.stab.exclstr
 *(.stab.exclstr)

.stab.index
 *(.stab.index)

.stab.indexstr
 *(.stab.indexstr)

.comment        0x00000000       0x11
 *(.comment)
 .comment       0x00000000       0x11 ./main.o
                                 0x12 (size before relaxing)
 .comment       0x00000000       0x12 /usr/lib/gcc/avr/4.7.0/avr4/libgcc.a(_fixunssfsi.o)
 .comment       0x00000000       0x12 /usr/lib/gcc/avr/4.7.0/avr4/libgcc.a(_addsub_sf.o)
 .comment       0x00000000       0x12 /usr/lib/gcc/avr/4.7.0/avr4/libgcc.a(_mul_sf.o)
 .comment       0x00000000       0x12 /usr/lib/gcc/avr/4.7.0/avr4/libgcc.a(_div_sf.o)
 .comment       0x00000000       0x12 /usr/lib/gcc/avr/4.7.0/avr4/libgcc.a(_gt_sf.o)
 .comment       0x00000000       0x12 /usr/lib/gcc/avr/4.7.0/avr4/libgcc.a(_ge_sf.o)
 .comment       0x00000000       0x12 /usr/lib/gcc/avr/4.7.0/avr4/libgcc.a(_lt_sf.o)
 .comment       0x00000000       0x12 /usr/lib/gcc/avr/4.7.0/avr4/libgcc.a(_sf_to_si.o)
 .comment       0x00000000       0x12 /usr/lib/gcc/avr/4.7.0/avr4/libgcc.a(_thenan_sf.o)
 .comment       0x00000000       0x12 /usr/lib/gcc/avr/4.7.0/avr4/libgcc.a(_pack_sf.o)
 .comment       0x00000000       0x12 /usr/lib/gcc/avr/4.7.0/avr4/libgcc.a(_unpack_sf.o)
 .comment       0x00000000       0x12 /usr/lib/gcc/avr/4.7.0/avr4/libgcc.a(_fpcmp_parts_sf.o)

.debug
 *(.debug)

.line
 *(.line)

.debug_srcinfo
 *(.debug_srcinfo)

.debug_sfnames
 *(.debug_sfnames)

.debug_aranges
 *(.debug_aranges)

.debug_pubnames
 *(.debug_pubnames)

.debug_info
 *(.debug_info)
 *(.gnu.linkonce.wi.*)

.debug_abbrev
 *(.debug_abbrev)

.debug_line
 *(.debug_line)

.debug_frame
 *(.debug_frame)

.debug_str
 *(.debug_str)

.debug_loc
 *(.debug_loc)

.debug_macinfo
 *(.debug_macinfo)
OUTPUT(st7920_v3.elf elf32-avr)
LOAD linker stubs
