   1               		.file	"pcbot.c"
   2               		.arch atmega128
   3               	__SREG__ = 0x3f
   4               	__SP_H__ = 0x3e
   5               	__SP_L__ = 0x3d
   6               	__tmp_reg__ = 0
   7               	__zero_reg__ = 1
   8               		.global __do_copy_data
   9               		.global __do_clear_bss
  17               	.Ltext0:
  18               	.global	right
  20               	right:
  21               	.LFB6:
  22               	.LM1:
  23               	/* prologue: frame size=0 */
  24               	/* prologue end (size=0) */
  25               	.LM2:
  26 0000 C698      		cbi 56-0x20,6
  27               	.LM3:
  28 0002 C598      		cbi 56-0x20,5
  29               	.LM4:
  30 0004 1B98      		cbi 35-0x20,3
  31               	.LM5:
  32 0006 1A9A      		sbi 35-0x20,2
  33               	/* epilogue: frame size=0 */
  34 0008 0895      		ret
  35               	/* epilogue end (size=1) */
  36               	/* function right size 5 (4) */
  37               	.LFE6:
  39               	.global	left
  41               	left:
  42               	.LFB7:
  43               	.LM6:
  44               	/* prologue: frame size=0 */
  45               	/* prologue end (size=0) */
  46               	.LM7:
  47 000a C098      		cbi 56-0x20,0
  48               	.LM8:
  49 000c C59A      		sbi 56-0x20,5
  50               	.LM9:
  51 000e 1B98      		cbi 35-0x20,3
  52               	.LM10:
  53 0010 1A98      		cbi 35-0x20,2
  54               	/* epilogue: frame size=0 */
  55 0012 0895      		ret
  56               	/* epilogue end (size=1) */
  57               	/* function left size 5 (4) */
  58               	.LFE7:
  60               	.global	str
  62               	str:
  63               	.LFB8:
  64               	.LM11:
  65               	/* prologue: frame size=0 */
  66               	/* prologue end (size=0) */
  67               	.LM12:
  68 0014 C698      		cbi 56-0x20,6
  69               	.LM13:
  70 0016 C59A      		sbi 56-0x20,5
  71               	.LM14:
  72 0018 1B98      		cbi 35-0x20,3
  73               	.LM15:
  74 001a 1A9A      		sbi 35-0x20,2
  75               	/* epilogue: frame size=0 */
  76 001c 0895      		ret
  77               	/* epilogue end (size=1) */
  78               	/* function str size 5 (4) */
  79               	.LFE8:
  81               	.global	back
  83               	back:
  84               	.LFB9:
  85               	.LM16:
  86               	/* prologue: frame size=0 */
  87               	/* prologue end (size=0) */
  88               	.LM17:
  89 001e C598      		cbi 56-0x20,5
  90               	.LM18:
  91 0020 C69A      		sbi 56-0x20,6
  92               	.LM19:
  93 0022 1A98      		cbi 35-0x20,2
  94               	.LM20:
  95 0024 1B9A      		sbi 35-0x20,3
  96               	/* epilogue: frame size=0 */
  97 0026 0895      		ret
  98               	/* epilogue end (size=1) */
  99               	/* function back size 5 (4) */
 100               	.LFE9:
 102               	.global	stop
 104               	stop:
 105               	.LFB10:
 106               	.LM21:
 107               	/* prologue: frame size=0 */
 108               	/* prologue end (size=0) */
 109               	.LM22:
 110 0028 C698      		cbi 56-0x20,6
 111               	.LM23:
 112 002a C598      		cbi 56-0x20,5
 113               	.LM24:
 114 002c 1B98      		cbi 35-0x20,3
 115               	.LM25:
 116 002e 1A98      		cbi 35-0x20,2
 117               	/* epilogue: frame size=0 */
 118 0030 0895      		ret
 119               	/* epilogue end (size=1) */
 120               	/* function stop size 5 (4) */
 121               	.LFE10:
 123               	.global	uart_init
 125               	uart_init:
 126               	.LFB11:
 127               	.LM26:
 128               	/* prologue: frame size=0 */
 129               	/* prologue end (size=0) */
 130               	.LM27:
 131 0032 87E6      		ldi r24,lo8(103)
 132 0034 8093 9900 		sts 153,r24
 133               	.LM28:
 134 0038 1092 9800 		sts 152,__zero_reg__
 135               	.LM29:
 136 003c 88E1      		ldi r24,lo8(24)
 137 003e 8093 9A00 		sts 154,r24
 138               	.LM30:
 139 0042 86E0      		ldi r24,lo8(6)
 140 0044 8093 9D00 		sts 157,r24
 141               	/* epilogue: frame size=0 */
 142 0048 0895      		ret
 143               	/* epilogue end (size=1) */
 144               	/* function uart_init size 12 (11) */
 145               	.LFE11:
 147               	.global	uart_rec
 149               	uart_rec:
 150               	.LFB12:
 151               	.LM31:
 152               	/* prologue: frame size=0 */
 153               	/* prologue end (size=0) */
 154               	.L15:
 155               	.LM32:
 156 004a 8091 9B00 		lds r24,155
 157 004e 87FF      		sbrs r24,7
 158 0050 00C0      		rjmp .L15
 159               	.LM33:
 160 0052 8091 9C00 		lds r24,156
 161               	.LM34:
 162 0056 9927      		clr r25
 163               	/* epilogue: frame size=0 */
 164 0058 0895      		ret
 165               	/* epilogue end (size=1) */
 166               	/* function uart_rec size 8 (7) */
 167               	.LFE12:
 169               	.global	trans
 171               	trans:
 172               	.LFB13:
 173               	.LM35:
 174               	/* prologue: frame size=0 */
 175               	/* prologue end (size=0) */
 176               	.LVL0:
 177 005a 982F      		mov r25,r24
 178               	.LVL1:
 179               	.L22:
 180               	.LM36:
 181 005c 8091 9B00 		lds r24,155
 182 0060 85FF      		sbrs r24,5
 183 0062 00C0      		rjmp .L22
 184               	.LM37:
 185 0064 9093 9C00 		sts 156,r25
 186               	/* epilogue: frame size=0 */
 187 0068 0895      		ret
 188               	/* epilogue end (size=1) */
 189               	/* function trans size 8 (7) */
 190               	.LFE13:
 192               	.global	transtring
 194               	transtring:
 195               	.LFB14:
 196               	.LM38:
 197               	/* prologue: frame size=0 */
 198               	/* prologue end (size=0) */
 199               	.LVL2:
 200 006a FC01      		movw r30,r24
 201 006c 00C0      		rjmp .L28
 202               	.L34:
 203               	.LBB4:
 204               	.LBB5:
 205               	.LM39:
 206 006e 8091 9B00 		lds r24,155
 207               	.LVL3:
 208 0072 85FF      		sbrs r24,5
 209 0074 00C0      		rjmp .L34
 210               	.LM40:
 211 0076 9093 9C00 		sts 156,r25
 212 007a 3196      		adiw r30,1
 213               	.LVL4:
 214               	.L28:
 215               	.LBE5:
 216               	.LBE4:
 217               	.LM41:
 218 007c 9081      		ld r25,Z
 219 007e 9923      		tst r25
 220 0080 01F4      		brne .L34
 221               	/* epilogue: frame size=0 */
 222 0082 0895      		ret
 223               	/* epilogue end (size=1) */
 224               	/* function transtring size 13 (12) */
 225               	.LFE14:
 227               		.data
 228               	.LC0:
 229 0000 0A66 6F72 		.string	"\nforward"
 229      7761 7264 
 229      00
 230               	.LC1:
 231 0009 0A6C 6566 		.string	"\nleft"
 231      7400 
 232               	.LC2:
 233 000f 0A72 6967 		.string	"\nright"
 233      6874 00
 234               	.LC3:
 235 0016 0A62 6163 		.string	"\nback"
 235      6B00 
 236               	.LC4:
 237 001c 0A53 746F 		.string	"\nStop"
 237      7000 
 238               	.LC5:
 239 0022 0A69 6E76 		.string	"\ninvald"
 239      616C 6400 
 240               		.text
 241               	.global	main
 243               	main:
 244               	.LFB15:
 245               	.LM42:
 246               	/* prologue: frame size=0 */
 247               	/* prologue end (size=0) */
 248               	.LM43:
 249 0084 BE9A      		sbi 55-0x20,6
 250               	.LM44:
 251 0086 BD9A      		sbi 55-0x20,5
 252               	.LM45:
 253 0088 139A      		sbi 34-0x20,3
 254               	.LM46:
 255 008a 129A      		sbi 34-0x20,2
 256               	.LM47:
 257 008c C698      		cbi 56-0x20,6
 258               	.LM48:
 259 008e C598      		cbi 56-0x20,5
 260               	.LM49:
 261 0090 1B98      		cbi 35-0x20,3
 262               	.LM50:
 263 0092 1A98      		cbi 35-0x20,2
 264               	.LBB8:
 265               	.LBB9:
 266               	.LM51:
 267 0094 87E6      		ldi r24,lo8(103)
 268 0096 8093 9900 		sts 153,r24
 269               	.LM52:
 270 009a 1092 9800 		sts 152,__zero_reg__
 271               	.LM53:
 272 009e 88E1      		ldi r24,lo8(24)
 273 00a0 8093 9A00 		sts 154,r24
 274               	.LM54:
 275 00a4 86E0      		ldi r24,lo8(6)
 276 00a6 8093 9D00 		sts 157,r24
 277               	.L63:
 278               	.LBE9:
 279               	.LBE8:
 280               	.LM55:
 281 00aa 8091 9B00 		lds r24,155
 282 00ae 87FF      		sbrs r24,7
 283 00b0 00C0      		rjmp .L63
 284               	.LM56:
 285 00b2 8091 9C00 		lds r24,156
 286               	.LVL5:
 287               	.LM57:
 288 00b6 8636      		cpi r24,lo8(102)
 289 00b8 01F4      		brne .L40
 290               	.LM58:
 291 00ba 0E94 0000 		call str
 292               	.LVL6:
 293               	.LM59:
 294 00be 80E0      		ldi r24,lo8(.LC0)
 295 00c0 90E0      		ldi r25,hi8(.LC0)
 296 00c2 00C0      		rjmp .L62
 297               	.LVL7:
 298               	.L40:
 299               	.LM60:
 300 00c4 8C36      		cpi r24,lo8(108)
 301 00c6 01F4      		brne .L42
 302               	.LM61:
 303 00c8 0E94 0000 		call left
 304               	.LVL8:
 305               	.LM62:
 306 00cc 80E0      		ldi r24,lo8(.LC1)
 307 00ce 90E0      		ldi r25,hi8(.LC1)
 308               	.L62:
 309 00d0 0E94 0000 		call transtring
 310 00d4 00C0      		rjmp .L63
 311               	.LVL9:
 312               	.L42:
 313               	.LM63:
 314 00d6 8237      		cpi r24,lo8(114)
 315 00d8 01F4      		brne .L44
 316               	.LM64:
 317 00da 0E94 0000 		call right
 318               	.LVL10:
 319               	.LM65:
 320 00de 80E0      		ldi r24,lo8(.LC2)
 321 00e0 90E0      		ldi r25,hi8(.LC2)
 322 00e2 00C0      		rjmp .L62
 323               	.LVL11:
 324               	.L44:
 325               	.LM66:
 326 00e4 8236      		cpi r24,lo8(98)
 327 00e6 01F4      		brne .L46
 328               	.LM67:
 329 00e8 0E94 0000 		call back
 330               	.LVL12:
 331               	.LM68:
 332 00ec 80E0      		ldi r24,lo8(.LC3)
 333 00ee 90E0      		ldi r25,hi8(.LC3)
 334 00f0 00C0      		rjmp .L62
 335               	.LVL13:
 336               	.L46:
 337               	.LM69:
 338 00f2 8337      		cpi r24,lo8(115)
 339 00f4 01F4      		brne .L48
 340               	.LM70:
 341 00f6 0E94 0000 		call stop
 342               	.LVL14:
 343               	.LM71:
 344 00fa 80E0      		ldi r24,lo8(.LC4)
 345 00fc 90E0      		ldi r25,hi8(.LC4)
 346 00fe 00C0      		rjmp .L62
 347               	.LVL15:
 348               	.L48:
 349               	.LM72:
 350 0100 80E0      		ldi r24,lo8(.LC5)
 351 0102 90E0      		ldi r25,hi8(.LC5)
 352               	.LVL16:
 353 0104 0E94 0000 		call transtring
 354               	.LM73:
 355 0108 0E94 0000 		call stop
 356 010c 00C0      		rjmp .L63
 357               	/* epilogue: frame size=0 */
 358               	/* epilogue: noreturn */
 359               	/* epilogue end (size=0) */
 360               	/* function main size 69 (69) */
 361               	.LFE15:
 448               	.Letext0:
DEFINED SYMBOLS
                            *ABS*:00000000 pcbot.c
C:\DOCUME~1\H\LOCALS~1\Temp/ccWabaaa.s:3      *ABS*:0000003f __SREG__
C:\DOCUME~1\H\LOCALS~1\Temp/ccWabaaa.s:4      *ABS*:0000003e __SP_H__
C:\DOCUME~1\H\LOCALS~1\Temp/ccWabaaa.s:5      *ABS*:0000003d __SP_L__
C:\DOCUME~1\H\LOCALS~1\Temp/ccWabaaa.s:6      *ABS*:00000000 __tmp_reg__
C:\DOCUME~1\H\LOCALS~1\Temp/ccWabaaa.s:7      *ABS*:00000001 __zero_reg__
C:\DOCUME~1\H\LOCALS~1\Temp/ccWabaaa.s:20     .text:00000000 right
C:\DOCUME~1\H\LOCALS~1\Temp/ccWabaaa.s:41     .text:0000000a left
C:\DOCUME~1\H\LOCALS~1\Temp/ccWabaaa.s:62     .text:00000014 str
C:\DOCUME~1\H\LOCALS~1\Temp/ccWabaaa.s:83     .text:0000001e back
C:\DOCUME~1\H\LOCALS~1\Temp/ccWabaaa.s:104    .text:00000028 stop
C:\DOCUME~1\H\LOCALS~1\Temp/ccWabaaa.s:125    .text:00000032 uart_init
C:\DOCUME~1\H\LOCALS~1\Temp/ccWabaaa.s:149    .text:0000004a uart_rec
C:\DOCUME~1\H\LOCALS~1\Temp/ccWabaaa.s:171    .text:0000005a trans
C:\DOCUME~1\H\LOCALS~1\Temp/ccWabaaa.s:194    .text:0000006a transtring
C:\DOCUME~1\H\LOCALS~1\Temp/ccWabaaa.s:243    .text:00000084 main

UNDEFINED SYMBOLS
__do_copy_data
__do_clear_bss
