   1               		.file	"lcd_4-8.c"
   2               	__SREG__ = 0x3f
   3               	__SP_H__ = 0x3e
   4               	__SP_L__ = 0x3d
   5               	__CCP__  = 0x34
   6               	__tmp_reg__ = 0
   7               	__zero_reg__ = 1
  15               	.Ltext0:
  16               	.global	lcd_e_toggle
  18               	lcd_e_toggle:
  19               	.LFB4:
  20               	.LM1:
  21               	/* prologue: function */
  22               	/* frame size = 0 */
  23               	.LBB78:
  24               	.LBB79:
  25               	.LM2:
  26               	/* #APP */
  27               	 ;  18 "delay.h" 1
  28 0000 00C0      		rjmp 1f
  29               	 1:
  30               	 ;  0 "" 2
  31               	/* #NOAPP */
  32               	.LBE79:
  33               	.LBE78:
  34               	.LM3:
  35 0002 979A      		sbi 50-32,7
  36               	.LBB80:
  37               	.LBB81:
  38               	.LM4:
  39               	/* #APP */
  40               	 ;  12 "delay.h" 1
  41 0004 0000      		nop
  42               	 ;  0 "" 2
  43               	.LM5:
  44               	/* #NOAPP */
  45 0006 82E0      		ldi r24,lo8(2)
  46 0008 90E0      		ldi r25,hi8(2)
  47 000a FC01      		movw r30,r24
  48               	.LVL0:
  49               	/* #APP */
  50               	 ;  24 "delay.h" 1
  51 000c 3197      		1: sbiw r30,1
  52 000e 01F4      		brne 1b
  53               	 ;  0 "" 2
  54               	/* #NOAPP */
  55               	.LBE81:
  56               	.LBE80:
  57               	.LM6:
  58 0010 9798      		cbi 50-32,7
  59               	.LBB82:
  60               	.LBB83:
  61               	.LM7:
  62               	/* #APP */
  63               	 ;  12 "delay.h" 1
  64 0012 0000      		nop
  65               	 ;  0 "" 2
  66               	.LM8:
  67               	 ;  24 "delay.h" 1
  68 0014 0197      		1: sbiw r24,1
  69 0016 01F4      		brne 1b
  70               	 ;  0 "" 2
  71               	.LVL1:
  72               	/* epilogue start */
  73               	/* #NOAPP */
  74               	.LBE83:
  75               	.LBE82:
  76               	.LM9:
  77 0018 0895      		ret
  78               	.LFE4:
  80               	.global	lcd_read
  82               	lcd_read:
  83               	.LFB5:
  84               	.LM10:
  85               	.LVL2:
  86               	/* prologue: function */
  87               	/* frame size = 0 */
  88               	.LM11:
  89 001a 8823      		tst r24
  90 001c 01F0      		breq .L4
  91               	.LM12:
  92 001e AC9A      		sbi 53-32,4
  93 0020 00C0      		rjmp .L5
  94               	.L4:
  95               	.LM13:
  96 0022 AC98      		cbi 53-32,4
  97               	.L5:
  98               	.LM14:
  99 0024 AD9A      		sbi 53-32,5
 100               	.LM15:
 101 0026 84B3      		in r24,52-32
 102               	.LVL3:
 103 0028 807F      		andi r24,lo8(-16)
 104 002a 84BB      		out 52-32,r24
 105               	.LBB84:
 106               	.LBB85:
 107               	.LM16:
 108               	/* #APP */
 109               	 ;  18 "delay.h" 1
 110 002c 00C0      		rjmp 1f
 111               	 1:
 112               	 ;  0 "" 2
 113               	/* #NOAPP */
 114               	.LBE85:
 115               	.LBE84:
 116               	.LM17:
 117 002e 979A      		sbi 50-32,7
 118               	.LBB86:
 119               	.LBB87:
 120               	.LM18:
 121               	/* #APP */
 122               	 ;  12 "delay.h" 1
 123 0030 0000      		nop
 124               	 ;  0 "" 2
 125               	.LM19:
 126               	/* #NOAPP */
 127 0032 22E0      		ldi r18,lo8(2)
 128 0034 30E0      		ldi r19,hi8(2)
 129 0036 C901      		movw r24,r18
 130               	.LVL4:
 131               	/* #APP */
 132               	 ;  24 "delay.h" 1
 133 0038 0197      		1: sbiw r24,1
 134 003a 01F4      		brne 1b
 135               	 ;  0 "" 2
 136               	/* #NOAPP */
 137               	.LBE87:
 138               	.LBE86:
 139               	.LM20:
 140 003c 93B3      		in r25,51-32
 141               	.LM21:
 142 003e 9798      		cbi 50-32,7
 143               	.LBB88:
 144               	.LBB89:
 145               	.LM22:
 146               	/* #APP */
 147               	 ;  12 "delay.h" 1
 148 0040 0000      		nop
 149               	 ;  0 "" 2
 150               	.LM23:
 151               	/* #NOAPP */
 152 0042 F901      		movw r30,r18
 153               	.LVL5:
 154               	/* #APP */
 155               	 ;  24 "delay.h" 1
 156 0044 3197      		1: sbiw r30,1
 157 0046 01F4      		brne 1b
 158               	 ;  0 "" 2
 159               	/* #NOAPP */
 160               	.LBE89:
 161               	.LBE88:
 162               	.LM24:
 163 0048 979A      		sbi 50-32,7
 164               	.LBB90:
 165               	.LBB91:
 166               	.LM25:
 167               	/* #APP */
 168               	 ;  12 "delay.h" 1
 169 004a 0000      		nop
 170               	 ;  0 "" 2
 171               	.LM26:
 172               	/* #NOAPP */
 173 004c F901      		movw r30,r18
 174               	.LVL6:
 175               	/* #APP */
 176               	 ;  24 "delay.h" 1
 177 004e 3197      		1: sbiw r30,1
 178 0050 01F4      		brne 1b
 179               	 ;  0 "" 2
 180               	/* #NOAPP */
 181               	.LBE91:
 182               	.LBE90:
 183               	.LM27:
 184 0052 83B3      		in r24,51-32
 185               	.LVL7:
 186 0054 8F70      		andi r24,lo8(15)
 187 0056 9295      		swap r25
 188 0058 907F      		andi r25,lo8(-16)
 189 005a 892B      		or r24,r25
 190               	.LM28:
 191 005c 9798      		cbi 50-32,7
 192               	.LBB92:
 193               	.LBB93:
 194               	.LM29:
 195               	/* #APP */
 196               	 ;  12 "delay.h" 1
 197 005e 0000      		nop
 198               	 ;  0 "" 2
 199               	.LM30:
 200               	/* #NOAPP */
 201 0060 F901      		movw r30,r18
 202               	.LVL8:
 203               	/* #APP */
 204               	 ;  24 "delay.h" 1
 205 0062 3197      		1: sbiw r30,1
 206 0064 01F4      		brne 1b
 207               	 ;  0 "" 2
 208               	/* #NOAPP */
 209               	.LBE93:
 210               	.LBE92:
 211               	.LM31:
 212 0066 94B3      		in r25,52-32
 213 0068 9F60      		ori r25,lo8(15)
 214 006a 94BB      		out 52-32,r25
 215               	.LM32:
 216 006c 9FE0      		ldi r25,lo8(15)
 217 006e 95BB      		out 53-32,r25
 218               	.LM33:
 219 0070 AD98      		cbi 53-32,5
 220               	/* epilogue start */
 221               	.LM34:
 222 0072 0895      		ret
 223               	.LFE5:
 225               	.global	lcd_waitbusy
 227               	lcd_waitbusy:
 228               	.LFB6:
 229               	.LM35:
 230               	/* prologue: function */
 231               	/* frame size = 0 */
 232               	.L8:
 233               	.LM36:
 234 0074 80E0      		ldi r24,lo8(0)
 235 0076 0E94 0000 		call lcd_read
 236 007a 87FD      		sbrc r24,7
 237 007c 00C0      		rjmp .L8
 238               	/* epilogue start */
 239               	.LM37:
 240 007e 0895      		ret
 241               	.LFE6:
 243               	.global	lcd_write
 245               	lcd_write:
 246               	.LFB7:
 247               	.LM38:
 248               	.LVL9:
 249 0080 0F93      		push r16
 250 0082 1F93      		push r17
 251               	/* prologue: function */
 252               	/* frame size = 0 */
 253 0084 082F      		mov r16,r24
 254 0086 162F      		mov r17,r22
 255               	.LM39:
 256 0088 0E94 0000 		call lcd_waitbusy
 257               	.LVL10:
 258               	.LM40:
 259 008c 1123      		tst r17
 260 008e 01F0      		breq .L12
 261               	.LM41:
 262 0090 AC9A      		sbi 53-32,4
 263 0092 00C0      		rjmp .L13
 264               	.L12:
 265               	.LM42:
 266 0094 AC98      		cbi 53-32,4
 267               	.L13:
 268               	.LM43:
 269 0096 AD98      		cbi 53-32,5
 270               	.LM44:
 271 0098 84B3      		in r24,52-32
 272 009a 8F60      		ori r24,lo8(15)
 273 009c 84BB      		out 52-32,r24
 274               	.LM45:
 275 009e 85B3      		in r24,53-32
 276 00a0 902F      		mov r25,r16
 277 00a2 9295      		swap r25
 278 00a4 9F70      		andi r25,lo8(15)
 279 00a6 807F      		andi r24,lo8(-16)
 280 00a8 982B      		or r25,r24
 281 00aa 95BB      		out 53-32,r25
 282               	.LBB94:
 283               	.LBB95:
 284               	.LBB96:
 285               	.LBB97:
 286               	.LM46:
 287               	/* #APP */
 288               	 ;  18 "delay.h" 1
 289 00ac 00C0      		rjmp 1f
 290               	 1:
 291               	 ;  0 "" 2
 292               	/* #NOAPP */
 293               	.LBE97:
 294               	.LBE96:
 295               	.LM47:
 296 00ae 979A      		sbi 50-32,7
 297               	.LBB98:
 298               	.LBB99:
 299               	.LM48:
 300               	/* #APP */
 301               	 ;  12 "delay.h" 1
 302 00b0 0000      		nop
 303               	 ;  0 "" 2
 304               	.LM49:
 305               	/* #NOAPP */
 306 00b2 22E0      		ldi r18,lo8(2)
 307 00b4 30E0      		ldi r19,hi8(2)
 308 00b6 C901      		movw r24,r18
 309               	.LVL11:
 310               	/* #APP */
 311               	 ;  24 "delay.h" 1
 312 00b8 0197      		1: sbiw r24,1
 313 00ba 01F4      		brne 1b
 314               	 ;  0 "" 2
 315               	/* #NOAPP */
 316               	.LBE99:
 317               	.LBE98:
 318               	.LM50:
 319 00bc 9798      		cbi 50-32,7
 320               	.LBB100:
 321               	.LBB101:
 322               	.LM51:
 323               	/* #APP */
 324               	 ;  12 "delay.h" 1
 325 00be 0000      		nop
 326               	 ;  0 "" 2
 327               	.LM52:
 328               	/* #NOAPP */
 329 00c0 C901      		movw r24,r18
 330               	.LVL12:
 331               	/* #APP */
 332               	 ;  24 "delay.h" 1
 333 00c2 0197      		1: sbiw r24,1
 334 00c4 01F4      		brne 1b
 335               	 ;  0 "" 2
 336               	/* #NOAPP */
 337               	.LBE101:
 338               	.LBE100:
 339               	.LBE95:
 340               	.LBE94:
 341               	.LM53:
 342 00c6 85B3      		in r24,53-32
 343               	.LVL13:
 344 00c8 0F70      		andi r16,lo8(15)
 345 00ca 807F      		andi r24,lo8(-16)
 346 00cc 802B      		or r24,r16
 347 00ce 85BB      		out 53-32,r24
 348               	.LBB102:
 349               	.LBB103:
 350               	.LBB104:
 351               	.LBB105:
 352               	.LM54:
 353               	/* #APP */
 354               	 ;  18 "delay.h" 1
 355 00d0 00C0      		rjmp 1f
 356               	 1:
 357               	 ;  0 "" 2
 358               	/* #NOAPP */
 359               	.LBE105:
 360               	.LBE104:
 361               	.LM55:
 362 00d2 979A      		sbi 50-32,7
 363               	.LBB106:
 364               	.LBB107:
 365               	.LM56:
 366               	/* #APP */
 367               	 ;  12 "delay.h" 1
 368 00d4 0000      		nop
 369               	 ;  0 "" 2
 370               	.LM57:
 371               	/* #NOAPP */
 372 00d6 C901      		movw r24,r18
 373               	.LVL14:
 374               	/* #APP */
 375               	 ;  24 "delay.h" 1
 376 00d8 0197      		1: sbiw r24,1
 377 00da 01F4      		brne 1b
 378               	 ;  0 "" 2
 379               	/* #NOAPP */
 380               	.LBE107:
 381               	.LBE106:
 382               	.LM58:
 383 00dc 9798      		cbi 50-32,7
 384               	.LBB108:
 385               	.LBB109:
 386               	.LM59:
 387               	/* #APP */
 388               	 ;  12 "delay.h" 1
 389 00de 0000      		nop
 390               	 ;  0 "" 2
 391               	.LM60:
 392               	/* #NOAPP */
 393 00e0 C901      		movw r24,r18
 394               	.LVL15:
 395               	/* #APP */
 396               	 ;  24 "delay.h" 1
 397 00e2 0197      		1: sbiw r24,1
 398 00e4 01F4      		brne 1b
 399               	 ;  0 "" 2
 400               	/* #NOAPP */
 401               	.LBE109:
 402               	.LBE108:
 403               	.LBE103:
 404               	.LBE102:
 405               	.LM61:
 406 00e6 85B3      		in r24,53-32
 407               	.LVL16:
 408 00e8 8F60      		ori r24,lo8(15)
 409 00ea 85BB      		out 53-32,r24
 410               	/* epilogue start */
 411               	.LM62:
 412 00ec 1F91      		pop r17
 413               	.LVL17:
 414 00ee 0F91      		pop r16
 415               	.LVL18:
 416 00f0 0895      		ret
 417               	.LFE7:
 419               	.global	lcd_command
 421               	lcd_command:
 422               	.LFB8:
 423               	.LM63:
 424               	.LVL19:
 425               	/* prologue: function */
 426               	/* frame size = 0 */
 427               	.LM64:
 428 00f2 60E0      		ldi r22,lo8(0)
 429 00f4 0E94 0000 		call lcd_write
 430               	.LVL20:
 431               	/* epilogue start */
 432               	.LM65:
 433 00f8 0895      		ret
 434               	.LFE8:
 436               	.global	lcd_goto
 438               	lcd_goto:
 439               	.LFB9:
 440               	.LM66:
 441               	.LVL21:
 442               	/* prologue: function */
 443               	/* frame size = 0 */
 444               	.LM67:
 445 00fa 8058      		subi r24,lo8(-(-128))
 446               	.LVL22:
 447 00fc 0E94 0000 		call lcd_command
 448               	/* epilogue start */
 449               	.LM68:
 450 0100 0895      		ret
 451               	.LFE9:
 453               	.global	lcd_clrscr
 455               	lcd_clrscr:
 456               	.LFB10:
 457               	.LM69:
 458               	/* prologue: function */
 459               	/* frame size = 0 */
 460               	.LM70:
 461 0102 81E0      		ldi r24,lo8(1)
 462 0104 0E94 0000 		call lcd_command
 463               	/* epilogue start */
 464               	.LM71:
 465 0108 0895      		ret
 466               	.LFE10:
 468               	.global	lcd_home
 470               	lcd_home:
 471               	.LFB11:
 472               	.LM72:
 473               	/* prologue: function */
 474               	/* frame size = 0 */
 475               	.LM73:
 476 010a 82E0      		ldi r24,lo8(2)
 477 010c 0E94 0000 		call lcd_command
 478               	/* epilogue start */
 479               	.LM74:
 480 0110 0895      		ret
 481               	.LFE11:
 483               	.global	lcd_putc
 485               	lcd_putc:
 486               	.LFB12:
 487               	.LM75:
 488               	.LVL23:
 489               	/* prologue: function */
 490               	/* frame size = 0 */
 491               	.LM76:
 492 0112 61E0      		ldi r22,lo8(1)
 493 0114 0E94 0000 		call lcd_write
 494               	.LVL24:
 495               	/* epilogue start */
 496               	.LM77:
 497 0118 0895      		ret
 498               	.LFE12:
 500               	.global	lcd_puts
 502               	lcd_puts:
 503               	.LFB13:
 504               	.LM78:
 505               	.LVL25:
 506 011a CF93      		push r28
 507 011c DF93      		push r29
 508               	/* prologue: function */
 509               	/* frame size = 0 */
 510 011e EC01      		movw r28,r24
 511 0120 00C0      		rjmp .L26
 512               	.LVL26:
 513               	.L27:
 514               	.LM79:
 515 0122 0E94 0000 		call lcd_putc
 516               	.LVL27:
 517               	.L26:
 518               	.LM80:
 519 0126 8991      		ld r24,Y+
 520               	.LVL28:
 521 0128 8823      		tst r24
 522 012a 01F4      		brne .L27
 523               	/* epilogue start */
 524               	.LM81:
 525 012c DF91      		pop r29
 526 012e CF91      		pop r28
 527               	.LVL29:
 528 0130 0895      		ret
 529               	.LFE13:
 531               	.global	lcd_puts_P
 533               	lcd_puts_P:
 534               	.LFB14:
 535               	.LM82:
 536               	.LVL30:
 537 0132 CF93      		push r28
 538 0134 DF93      		push r29
 539               	/* prologue: function */
 540               	/* frame size = 0 */
 541 0136 EC01      		movw r28,r24
 542 0138 00C0      		rjmp .L30
 543               	.LVL31:
 544               	.L31:
 545               	.LM83:
 546 013a 0E94 0000 		call lcd_putc
 547               	.LVL32:
 548               	.L30:
 549 013e FE01      		movw r30,r28
 550               	.LVL33:
 551               	.LBB110:
 552               	.LM84:
 553 0140 2196      		adiw r28,1
 554               	/* #APP */
 555               	 ;  259 "lcd_4-8.c" 1
 556 0142 8491      		lpm r24, Z
 557               		
 558               	 ;  0 "" 2
 559               	.LVL34:
 560               	/* #NOAPP */
 561               	.LBE110:
 562 0144 8823      		tst r24
 563 0146 01F4      		brne .L31
 564               	/* epilogue start */
 565               	.LM85:
 566 0148 DF91      		pop r29
 567 014a CF91      		pop r28
 568               	.LVL35:
 569 014c 0895      		ret
 570               	.LFE14:
 572               	.global	lcd_init
 574               	lcd_init:
 575               	.LFB15:
 576               	.LM86:
 577 014e 0F93      		push r16
 578 0150 1F93      		push r17
 579               	/* prologue: function */
 580               	/* frame size = 0 */
 581               	.LM87:
 582 0152 8F9A      		sbi 49-32,7
 583               	.LM88:
 584 0154 9798      		cbi 50-32,7
 585               	.LM89:
 586 0156 A49A      		sbi 52-32,4
 587               	.LM90:
 588 0158 AC98      		cbi 53-32,4
 589               	.LM91:
 590 015a A59A      		sbi 52-32,5
 591               	.LM92:
 592 015c AD98      		cbi 53-32,5
 593               	.LM93:
 594 015e 84B3      		in r24,52-32
 595 0160 8F60      		ori r24,lo8(15)
 596 0162 84BB      		out 52-32,r24
 597               	.LBB111:
 598               	.LBB112:
 599               	.LBB113:
 600               	.LBB114:
 601               	.LM94:
 602               	/* #APP */
 603               	 ;  12 "delay.h" 1
 604 0164 0000      		nop
 605               	 ;  0 "" 2
 606               	.LM95:
 607               	 ;  18 "delay.h" 1
 608 0166 00C0      		rjmp 1f
 609               	 1:
 610               	 ;  0 "" 2
 611               	.LM96:
 612               	/* #NOAPP */
 613 0168 2FEF      		ldi r18,lo8(16383)
 614 016a 3FE3      		ldi r19,hi8(16383)
 615 016c C901      		movw r24,r18
 616               	.LVL36:
 617               	/* #APP */
 618               	 ;  24 "delay.h" 1
 619 016e 0197      		1: sbiw r24,1
 620 0170 01F4      		brne 1b
 621               	 ;  0 "" 2
 622               	.LM97:
 623               	 ;  12 "delay.h" 1
 624 0172 0000      		nop
 625               	 ;  0 "" 2
 626               	.LM98:
 627               	 ;  18 "delay.h" 1
 628 0174 00C0      		rjmp 1f
 629               	 1:
 630               	 ;  0 "" 2
 631               	.LM99:
 632               	/* #NOAPP */
 633 0176 C901      		movw r24,r18
 634               	.LVL37:
 635               	/* #APP */
 636               	 ;  24 "delay.h" 1
 637 0178 0197      		1: sbiw r24,1
 638 017a 01F4      		brne 1b
 639               	 ;  0 "" 2
 640               	.LM100:
 641               	 ;  12 "delay.h" 1
 642 017c 0000      		nop
 643               	 ;  0 "" 2
 644               	.LM101:
 645               	 ;  18 "delay.h" 1
 646 017e 00C0      		rjmp 1f
 647               	 1:
 648               	 ;  0 "" 2
 649               	.LM102:
 650               	/* #NOAPP */
 651 0180 C901      		movw r24,r18
 652               	.LVL38:
 653               	/* #APP */
 654               	 ;  24 "delay.h" 1
 655 0182 0197      		1: sbiw r24,1
 656 0184 01F4      		brne 1b
 657               	 ;  0 "" 2
 658               	/* #NOAPP */
 659               	.LBE114:
 660               	.LBE113:
 661               	.LBE112:
 662               	.LBE111:
 663               	.LBB115:
 664               	.LBB116:
 665               	.LM103:
 666               	/* #APP */
 667               	 ;  12 "delay.h" 1
 668 0186 0000      		nop
 669               	 ;  0 "" 2
 670               	.LM104:
 671               	/* #NOAPP */
 672 0188 80E0      		ldi r24,lo8(14848)
 673 018a 9AE3      		ldi r25,hi8(14848)
 674               	.LVL39:
 675               	/* #APP */
 676               	 ;  24 "delay.h" 1
 677 018c 0197      		1: sbiw r24,1
 678 018e 01F4      		brne 1b
 679               	 ;  0 "" 2
 680               	/* #NOAPP */
 681               	.LBE116:
 682               	.LBE115:
 683               	.LM105:
 684 0190 85B3      		in r24,53-32
 685               	.LVL40:
 686 0192 8360      		ori r24,lo8(3)
 687 0194 85BB      		out 53-32,r24
 688               	.LBB117:
 689               	.LBB118:
 690               	.LBB119:
 691               	.LBB120:
 692               	.LM106:
 693               	/* #APP */
 694               	 ;  18 "delay.h" 1
 695 0196 00C0      		rjmp 1f
 696               	 1:
 697               	 ;  0 "" 2
 698               	/* #NOAPP */
 699               	.LBE120:
 700               	.LBE119:
 701               	.LM107:
 702 0198 979A      		sbi 50-32,7
 703               	.LBB121:
 704               	.LBB122:
 705               	.LM108:
 706               	/* #APP */
 707               	 ;  12 "delay.h" 1
 708 019a 0000      		nop
 709               	 ;  0 "" 2
 710               	.LM109:
 711               	/* #NOAPP */
 712 019c 82E0      		ldi r24,lo8(2)
 713 019e 90E0      		ldi r25,hi8(2)
 714 01a0 FC01      		movw r30,r24
 715               	.LVL41:
 716               	/* #APP */
 717               	 ;  24 "delay.h" 1
 718 01a2 3197      		1: sbiw r30,1
 719 01a4 01F4      		brne 1b
 720               	 ;  0 "" 2
 721               	/* #NOAPP */
 722               	.LBE122:
 723               	.LBE121:
 724               	.LM110:
 725 01a6 9798      		cbi 50-32,7
 726               	.LBB123:
 727               	.LBB124:
 728               	.LM111:
 729               	/* #APP */
 730               	 ;  12 "delay.h" 1
 731 01a8 0000      		nop
 732               	 ;  0 "" 2
 733               	.LM112:
 734               	/* #NOAPP */
 735 01aa FC01      		movw r30,r24
 736               	.LVL42:
 737               	/* #APP */
 738               	 ;  24 "delay.h" 1
 739 01ac 3197      		1: sbiw r30,1
 740 01ae 01F4      		brne 1b
 741               	 ;  0 "" 2
 742               	/* #NOAPP */
 743               	.LBE124:
 744               	.LBE123:
 745               	.LBE118:
 746               	.LBE117:
 747               	.LBB125:
 748               	.LBB126:
 749               	.LBB127:
 750               	.LBB128:
 751               	.LM113:
 752               	/* #APP */
 753               	 ;  12 "delay.h" 1
 754 01b0 0000      		nop
 755               	 ;  0 "" 2
 756               	.LM114:
 757               	 ;  18 "delay.h" 1
 758 01b2 00C0      		rjmp 1f
 759               	 1:
 760               	 ;  0 "" 2
 761               	.LM115:
 762               	/* #NOAPP */
 763 01b4 F901      		movw r30,r18
 764               	.LVL43:
 765               	/* #APP */
 766               	 ;  24 "delay.h" 1
 767 01b6 3197      		1: sbiw r30,1
 768 01b8 01F4      		brne 1b
 769               	 ;  0 "" 2
 770               	/* #NOAPP */
 771               	.LBE128:
 772               	.LBE127:
 773               	.LBE126:
 774               	.LBE125:
 775               	.LBB129:
 776               	.LBB130:
 777               	.LM116:
 778               	/* #APP */
 779               	 ;  12 "delay.h" 1
 780 01ba 0000      		nop
 781               	 ;  0 "" 2
 782               	.LM117:
 783               	/* #NOAPP */
 784 01bc E0E2      		ldi r30,lo8(3616)
 785 01be FEE0      		ldi r31,hi8(3616)
 786               	.LVL44:
 787               	/* #APP */
 788               	 ;  24 "delay.h" 1
 789 01c0 3197      		1: sbiw r30,1
 790 01c2 01F4      		brne 1b
 791               	 ;  0 "" 2
 792               	/* #NOAPP */
 793               	.LBE130:
 794               	.LBE129:
 795               	.LBB131:
 796               	.LBB132:
 797               	.LBB133:
 798               	.LBB134:
 799               	.LM118:
 800               	/* #APP */
 801               	 ;  18 "delay.h" 1
 802 01c4 00C0      		rjmp 1f
 803               	 1:
 804               	 ;  0 "" 2
 805               	/* #NOAPP */
 806               	.LBE134:
 807               	.LBE133:
 808               	.LM119:
 809 01c6 979A      		sbi 50-32,7
 810               	.LBB135:
 811               	.LBB136:
 812               	.LM120:
 813               	/* #APP */
 814               	 ;  12 "delay.h" 1
 815 01c8 0000      		nop
 816               	 ;  0 "" 2
 817               	.LM121:
 818               	/* #NOAPP */
 819 01ca FC01      		movw r30,r24
 820               	.LVL45:
 821               	/* #APP */
 822               	 ;  24 "delay.h" 1
 823 01cc 3197      		1: sbiw r30,1
 824 01ce 01F4      		brne 1b
 825               	 ;  0 "" 2
 826               	/* #NOAPP */
 827               	.LBE136:
 828               	.LBE135:
 829               	.LM122:
 830 01d0 9798      		cbi 50-32,7
 831               	.LBB137:
 832               	.LBB138:
 833               	.LM123:
 834               	/* #APP */
 835               	 ;  12 "delay.h" 1
 836 01d2 0000      		nop
 837               	 ;  0 "" 2
 838               	.LM124:
 839               	/* #NOAPP */
 840 01d4 FC01      		movw r30,r24
 841               	.LVL46:
 842               	/* #APP */
 843               	 ;  24 "delay.h" 1
 844 01d6 3197      		1: sbiw r30,1
 845 01d8 01F4      		brne 1b
 846               	 ;  0 "" 2
 847               	/* #NOAPP */
 848               	.LBE138:
 849               	.LBE137:
 850               	.LBE132:
 851               	.LBE131:
 852               	.LBB139:
 853               	.LBB140:
 854               	.LM125:
 855               	/* #APP */
 856               	 ;  12 "delay.h" 1
 857 01da 0000      		nop
 858               	 ;  0 "" 2
 859               	.LM126:
 860               	/* #NOAPP */
 861 01dc 00E9      		ldi r16,lo8(400)
 862 01de 11E0      		ldi r17,hi8(400)
 863 01e0 F801      		movw r30,r16
 864               	.LVL47:
 865               	/* #APP */
 866               	 ;  24 "delay.h" 1
 867 01e2 3197      		1: sbiw r30,1
 868 01e4 01F4      		brne 1b
 869               	 ;  0 "" 2
 870               	/* #NOAPP */
 871               	.LBE140:
 872               	.LBE139:
 873               	.LBB141:
 874               	.LBB142:
 875               	.LBB143:
 876               	.LBB144:
 877               	.LM127:
 878               	/* #APP */
 879               	 ;  18 "delay.h" 1
 880 01e6 00C0      		rjmp 1f
 881               	 1:
 882               	 ;  0 "" 2
 883               	/* #NOAPP */
 884               	.LBE144:
 885               	.LBE143:
 886               	.LM128:
 887 01e8 979A      		sbi 50-32,7
 888               	.LBB145:
 889               	.LBB146:
 890               	.LM129:
 891               	/* #APP */
 892               	 ;  12 "delay.h" 1
 893 01ea 0000      		nop
 894               	 ;  0 "" 2
 895               	.LM130:
 896               	/* #NOAPP */
 897 01ec FC01      		movw r30,r24
 898               	.LVL48:
 899               	/* #APP */
 900               	 ;  24 "delay.h" 1
 901 01ee 3197      		1: sbiw r30,1
 902 01f0 01F4      		brne 1b
 903               	 ;  0 "" 2
 904               	/* #NOAPP */
 905               	.LBE146:
 906               	.LBE145:
 907               	.LM131:
 908 01f2 9798      		cbi 50-32,7
 909               	.LBB147:
 910               	.LBB148:
 911               	.LM132:
 912               	/* #APP */
 913               	 ;  12 "delay.h" 1
 914 01f4 0000      		nop
 915               	 ;  0 "" 2
 916               	.LM133:
 917               	 ;  24 "delay.h" 1
 918 01f6 0197      		1: sbiw r24,1
 919 01f8 01F4      		brne 1b
 920               	 ;  0 "" 2
 921               	.LVL49:
 922               	/* #NOAPP */
 923               	.LBE148:
 924               	.LBE147:
 925               	.LBE142:
 926               	.LBE141:
 927               	.LBB149:
 928               	.LBB150:
 929               	.LM134:
 930               	/* #APP */
 931               	 ;  12 "delay.h" 1
 932 01fa 0000      		nop
 933               	 ;  0 "" 2
 934               	.LM135:
 935               	/* #NOAPP */
 936 01fc C801      		movw r24,r16
 937               	.LVL50:
 938               	/* #APP */
 939               	 ;  24 "delay.h" 1
 940 01fe 0197      		1: sbiw r24,1
 941 0200 01F4      		brne 1b
 942               	 ;  0 "" 2
 943               	/* #NOAPP */
 944               	.LBE150:
 945               	.LBE149:
 946               	.LM136:
 947 0202 88E2      		ldi r24,lo8(40)
 948               	.LVL51:
 949 0204 60E0      		ldi r22,lo8(0)
 950 0206 0E94 0000 		call lcd_write
 951               	.LVL52:
 952               	.LBB151:
 953               	.LBB152:
 954               	.LM137:
 955               	/* #APP */
 956               	 ;  12 "delay.h" 1
 957 020a 0000      		nop
 958               	 ;  0 "" 2
 959               	.LM138:
 960               	/* #NOAPP */
 961 020c C801      		movw r24,r16
 962               	.LVL53:
 963               	/* #APP */
 964               	 ;  24 "delay.h" 1
 965 020e 0197      		1: sbiw r24,1
 966 0210 01F4      		brne 1b
 967               	 ;  0 "" 2
 968               	/* #NOAPP */
 969               	.LBE152:
 970               	.LBE151:
 971               	.LM139:
 972 0212 86E0      		ldi r24,lo8(6)
 973               	.LVL54:
 974 0214 0E94 0000 		call lcd_command
 975               	.LM140:
 976 0218 8CE0      		ldi r24,lo8(12)
 977 021a 0E94 0000 		call lcd_command
 978               	/* epilogue start */
 979               	.LM141:
 980 021e 1F91      		pop r17
 981 0220 0F91      		pop r16
 982 0222 0895      		ret
 983               	.LFE15:
 1097               	.Letext0:
DEFINED SYMBOLS
                            *ABS*:00000000 lcd_4-8.c
C:\DOCUME~1\DavidRS\LOCALS~1\Temp/ccgTI56g.s:2      *ABS*:0000003f __SREG__
C:\DOCUME~1\DavidRS\LOCALS~1\Temp/ccgTI56g.s:3      *ABS*:0000003e __SP_H__
C:\DOCUME~1\DavidRS\LOCALS~1\Temp/ccgTI56g.s:4      *ABS*:0000003d __SP_L__
C:\DOCUME~1\DavidRS\LOCALS~1\Temp/ccgTI56g.s:5      *ABS*:00000034 __CCP__
C:\DOCUME~1\DavidRS\LOCALS~1\Temp/ccgTI56g.s:6      *ABS*:00000000 __tmp_reg__
C:\DOCUME~1\DavidRS\LOCALS~1\Temp/ccgTI56g.s:7      *ABS*:00000001 __zero_reg__
C:\DOCUME~1\DavidRS\LOCALS~1\Temp/ccgTI56g.s:18     .text:00000000 lcd_e_toggle
C:\DOCUME~1\DavidRS\LOCALS~1\Temp/ccgTI56g.s:82     .text:0000001a lcd_read
C:\DOCUME~1\DavidRS\LOCALS~1\Temp/ccgTI56g.s:227    .text:00000074 lcd_waitbusy
C:\DOCUME~1\DavidRS\LOCALS~1\Temp/ccgTI56g.s:245    .text:00000080 lcd_write
C:\DOCUME~1\DavidRS\LOCALS~1\Temp/ccgTI56g.s:421    .text:000000f2 lcd_command
C:\DOCUME~1\DavidRS\LOCALS~1\Temp/ccgTI56g.s:438    .text:000000fa lcd_goto
C:\DOCUME~1\DavidRS\LOCALS~1\Temp/ccgTI56g.s:455    .text:00000102 lcd_clrscr
C:\DOCUME~1\DavidRS\LOCALS~1\Temp/ccgTI56g.s:470    .text:0000010a lcd_home
C:\DOCUME~1\DavidRS\LOCALS~1\Temp/ccgTI56g.s:485    .text:00000112 lcd_putc
C:\DOCUME~1\DavidRS\LOCALS~1\Temp/ccgTI56g.s:502    .text:0000011a lcd_puts
C:\DOCUME~1\DavidRS\LOCALS~1\Temp/ccgTI56g.s:533    .text:00000132 lcd_puts_P
C:\DOCUME~1\DavidRS\LOCALS~1\Temp/ccgTI56g.s:574    .text:0000014e lcd_init

NO UNDEFINED SYMBOLS
