                        .area text(rom, con, rel)
 0000                   .dbfile rtos.i
 0000                   .dbfile "C:\Documents and Settings\JimC\Desktop\RTOS\rtos.c"
 0000                   .dbfunc e Task1 _Task1#Fvv fV
                        .even
 0000           _Task1#Fvv::
 0000                   .dbline -1
 0000                   .dbline 22
 0000                   .dbline 23
 0000           L8:
 0000                   .dbline 24
 0000                   .dbline 25
 0000 81E0              ldi R24,1
 0002 28B2              in R2,0x18
 0004 2826              eor R2,R24
 0006 28BA              out 0x18,R2
 0008                   .dbline 26
 0008                   .dbline 26
 0008 0AE0              ldi R16,10
 000A 0E940000          xcall _OSDelay#Fvh
 000E                   .dbline 26
 000E 0E940000          xcall _OSCtxSw#Fvv
 0012                   .dbline 26
 0012                   .dbline 26
 0012                   .dbline 27
 0012                   .dbline 23
 0012                   .dbline 23
 0012 F6CF              xjmp L8
 0014           X0:
 0014                   .dbline -2
 0014           L7:
 0014                   .dbline 0 ; func end
 0014 0895              ret
 0016                   .dbend
 0016                   .dbfunc e Task2 _Task2#Fvv fV
                        .even
 0016           _Task2#Fvv::
 0016                   .dbline -1
 0016                   .dbline 34
 0016                   .dbline 35
 0016           L13:
 0016                   .dbline 36
 0016                   .dbline 37
 0016 82E0              ldi R24,2
 0018 28B2              in R2,0x18
 001A 2826              eor R2,R24
 001C 28BA              out 0x18,R2
 001E                   .dbline 38
 001E                   .dbline 38
 001E 04E1              ldi R16,20
 0020 0E940000          xcall _OSDelay#Fvh
 0024                   .dbline 38
 0024 0E940000          xcall _OSCtxSw#Fvv
 0028                   .dbline 38
 0028                   .dbline 38
 0028                   .dbline 39
 0028                   .dbline 35
 0028                   .dbline 35
 0028 F6CF              xjmp L13
 002A           X1:
 002A                   .dbline -2
 002A           L12:
 002A                   .dbline 0 ; func end
 002A 0895              ret
 002C                   .dbend
 002C                   .dbfunc e Task3 _Task3#Fvv fV
                        .even
 002C           _Task3#Fvv::
 002C                   .dbline -1
 002C                   .dbline 46
 002C                   .dbline 47
 002C           L18:
 002C                   .dbline 48
 002C                   .dbline 49
 002C 84E0              ldi R24,4
 002E 28B2              in R2,0x18
 0030 2826              eor R2,R24
 0032 28BA              out 0x18,R2
 0034                   .dbline 50
 0034                   .dbline 50
 0034 0EE1              ldi R16,30
 0036 0E940000          xcall _OSDelay#Fvh
 003A                   .dbline 50
 003A 0E940000          xcall _OSCtxSw#Fvv
 003E                   .dbline 50
 003E                   .dbline 50
 003E                   .dbline 51
 003E                   .dbline 47
 003E                   .dbline 47
 003E F6CF              xjmp L18
 0040           X2:
 0040                   .dbline -2
 0040           L17:
 0040                   .dbline 0 ; func end
 0040 0895              ret
 0042                   .dbend
 0042                   .dbfunc e Task4 _Task4#Fvv fV
                        .even
 0042           _Task4#Fvv::
 0042                   .dbline -1
 0042                   .dbline 58
 0042                   .dbline 59
 0042           L23:
 0042                   .dbline 60
 0042                   .dbline 61
 0042 88E0              ldi R24,8
 0044 28B2              in R2,0x18
 0046 2826              eor R2,R24
 0048 28BA              out 0x18,R2
 004A                   .dbline 62
 004A                   .dbline 62
 004A 08E2              ldi R16,40
 004C 0E940000          xcall _OSDelay#Fvh
 0050                   .dbline 62
 0050 0E940000          xcall _OSCtxSw#Fvv
 0054                   .dbline 62
 0054                   .dbline 62
 0054                   .dbline 63
 0054                   .dbline 59
 0054                   .dbline 59
 0054 F6CF              xjmp L23
 0056           X3:
 0056                   .dbline -2
 0056           L22:
 0056                   .dbline 0 ; func end
 0056 0895              ret
 0058                   .dbend
 0058                   .dbfunc e Task5 _Task5#Fvv fV
                        .even
 0058           _Task5#Fvv::
 0058                   .dbline -1
 0058                   .dbline 70
 0058                   .dbline 71
 0058           L28:
 0058                   .dbline 72
 0058                   .dbline 73
 0058 80E1              ldi R24,16
 005A 28B2              in R2,0x18
 005C 2826              eor R2,R24
 005E 28BA              out 0x18,R2
 0060                   .dbline 74
 0060                   .dbline 74
 0060 02E3              ldi R16,50
 0062 0E940000          xcall _OSDelay#Fvh
 0066                   .dbline 74
 0066 0E940000          xcall _OSCtxSw#Fvv
 006A                   .dbline 74
 006A                   .dbline 74
 006A                   .dbline 75
 006A                   .dbline 71
 006A                   .dbline 71
 006A F6CF              xjmp L28
 006C           X4:
 006C                   .dbline -2
 006C           L27:
 006C                   .dbline 0 ; func end
 006C 0895              ret
 006E                   .dbend
 006E                   .dbfunc e Task6 _Task6#Fvv fV
                        .even
 006E           _Task6#Fvv::
 006E                   .dbline -1
 006E                   .dbline 82
 006E                   .dbline 83
 006E           L33:
 006E                   .dbline 84
 006E                   .dbline 85
 006E 80E2              ldi R24,32
 0070 28B2              in R2,0x18
 0072 2826              eor R2,R24
 0074 28BA              out 0x18,R2
 0076                   .dbline 86
 0076                   .dbline 86
 0076 0CE3              ldi R16,60
 0078 0E940000          xcall _OSDelay#Fvh
 007C                   .dbline 86
 007C 0E940000          xcall _OSCtxSw#Fvv
 0080                   .dbline 86
 0080                   .dbline 86
 0080                   .dbline 87
 0080                   .dbline 83
 0080                   .dbline 83
 0080 F6CF              xjmp L33
 0082           X5:
 0082                   .dbline -2
 0082           L32:
 0082                   .dbline 0 ; func end
 0082 0895              ret
 0084                   .dbend
 0084                   .dbfunc e Task7 _Task7#Fvv fV
                        .even
 0084           _Task7#Fvv::
 0084                   .dbline -1
 0084                   .dbline 94
 0084                   .dbline 95
 0084           L38:
 0084                   .dbline 96
 0084                   .dbline 97
 0084 80E4              ldi R24,64
 0086 28B2              in R2,0x18
 0088 2826              eor R2,R24
 008A 28BA              out 0x18,R2
 008C                   .dbline 98
 008C                   .dbline 98
 008C 06E4              ldi R16,70
 008E 0E940000          xcall _OSDelay#Fvh
 0092                   .dbline 98
 0092 0E940000          xcall _OSCtxSw#Fvv
 0096                   .dbline 98
 0096                   .dbline 98
 0096                   .dbline 99
 0096                   .dbline 95
 0096                   .dbline 95
 0096 F6CF              xjmp L38
 0098           X6:
 0098                   .dbline -2
 0098           L37:
 0098                   .dbline 0 ; func end
 0098 0895              ret
 009A                   .dbend
 009A                   .dbfunc e Task8 _Task8#Fvv fV
                        .even
 009A           _Task8#Fvv::
 009A                   .dbline -1
 009A                   .dbline 106
 009A                   .dbline 107
 009A           L43:
 009A                   .dbline 108
 009A                   .dbline 109
 009A 80E8              ldi R24,128
 009C 28B2              in R2,0x18
 009E 2826              eor R2,R24
 00A0 28BA              out 0x18,R2
 00A2                   .dbline 110
 00A2                   .dbline 110
 00A2 00E5              ldi R16,80
 00A4 0E940000          xcall _OSDelay#Fvh
 00A8                   .dbline 110
 00A8 0E940000          xcall _OSCtxSw#Fvv
 00AC                   .dbline 110
 00AC                   .dbline 110
 00AC                   .dbline 111
 00AC                   .dbline 107
 00AC                   .dbline 107
 00AC F6CF              xjmp L43
 00AE           X7:
 00AE                   .dbline -2
 00AE           L42:
 00AE                   .dbline 0 ; func end
 00AE 0895              ret
 00B0                   .dbend
 00B0                   .dbfunc e main _main#Fvv fV
                        .even
 00B0           _main#Fvv::
 00B0 2197              sbiw R28,1
 00B2                   .dbline -1
 00B2                   .dbline 120
 00B2                   .dbline 122
 00B2 0E940000          xcall _panel_init#Fvv
 00B6                   .dbline 125
 00B6 0E940000          xcall _OSInit#Fvv
 00BA                   .dbline 128
 00BA 81E0              ldi R24,1
 00BC 8883              std y+0,R24
 00BE 20E0              ldi R18,<_OStcbArea#A_us3_tcb
 00C0 30E0              ldi R19,>_OStcbArea#A_us3_tcb
 00C2 00E0              ldi R16,<PL_Task1#Fvv
 00C4 10E0              ldi R17,>PL_Task1#Fvv
 00C6 0E940000          xcall _OSCreateTask#FhPFvvEPus3_tcbh
 00CA                   .dbline 129
 00CA 82E0              ldi R24,2
 00CC 8883              std y+0,R24
 00CE 20E0              ldi R18,<_OStcbArea#A_us3_tcb+7
 00D0 30E0              ldi R19,>_OStcbArea#A_us3_tcb+7
 00D2 00E0              ldi R16,<PL_Task2#Fvv
 00D4 10E0              ldi R17,>PL_Task2#Fvv
 00D6 0E940000          xcall _OSCreateTask#FhPFvvEPus3_tcbh
 00DA                   .dbline 130
 00DA 83E0              ldi R24,3
 00DC 8883              std y+0,R24
 00DE 20E0              ldi R18,<_OStcbArea#A_us3_tcb+14
 00E0 30E0              ldi R19,>_OStcbArea#A_us3_tcb+14
 00E2 00E0              ldi R16,<PL_Task3#Fvv
 00E4 10E0              ldi R17,>PL_Task3#Fvv
 00E6 0E940000          xcall _OSCreateTask#FhPFvvEPus3_tcbh
 00EA                   .dbline 131
 00EA 84E0              ldi R24,4
 00EC 8883              std y+0,R24
 00EE 20E0              ldi R18,<_OStcbArea#A_us3_tcb+21
 00F0 30E0              ldi R19,>_OStcbArea#A_us3_tcb+21
 00F2 00E0              ldi R16,<PL_Task4#Fvv
 00F4 10E0              ldi R17,>PL_Task4#Fvv
 00F6 0E940000          xcall _OSCreateTask#FhPFvvEPus3_tcbh
 00FA                   .dbline 132
 00FA 86E0              ldi R24,6
 00FC 8883              std y+0,R24
 00FE 20E0              ldi R18,<_OStcbArea#A_us3_tcb+28
 0100 30E0              ldi R19,>_OStcbArea#A_us3_tcb+28
 0102 00E0              ldi R16,<PL_Task5#Fvv
 0104 10E0              ldi R17,>PL_Task5#Fvv
 0106 0E940000          xcall _OSCreateTask#FhPFvvEPus3_tcbh
 010A                   .dbline 133
 010A 87E0              ldi R24,7
 010C 8883              std y+0,R24
 010E 20E0              ldi R18,<_OStcbArea#A_us3_tcb+35
 0110 30E0              ldi R19,>_OStcbArea#A_us3_tcb+35
 0112 00E0              ldi R16,<PL_Task6#Fvv
 0114 10E0              ldi R17,>PL_Task6#Fvv
 0116 0E940000          xcall _OSCreateTask#FhPFvvEPus3_tcbh
 011A                   .dbline 134
 011A 88E0              ldi R24,8
 011C 8883              std y+0,R24
 011E 20E0              ldi R18,<_OStcbArea#A_us3_tcb+42
 0120 30E0              ldi R19,>_OStcbArea#A_us3_tcb+42
 0122 00E0              ldi R16,<PL_Task7#Fvv
 0124 10E0              ldi R17,>PL_Task7#Fvv
 0126 0E940000          xcall _OSCreateTask#FhPFvvEPus3_tcbh
 012A                   .dbline 135
 012A 8AE0              ldi R24,10
 012C 8883              std y+0,R24
 012E 20E0              ldi R18,<_OStcbArea#A_us3_tcb+49
 0130 30E0              ldi R19,>_OStcbArea#A_us3_tcb+49
 0132 00E0              ldi R16,<PL_Task8#Fvv
 0134 10E0              ldi R17,>PL_Task8#Fvv
 0136 0E940000          xcall _OSCreateTask#FhPFvvEPus3_tcbh
 013A                   .dbline 137
 013A 7894              sei
 013C                   .dbline 139
 013C           L55:
 013C                   .dbline 140
 013C                   .dbline 141
 013C 0E940000          xcall _OSSched#Fvv
 0140                   .dbline 142
 0140                   .dbline 139
 0140                   .dbline 139
 0140 FDCF              xjmp L55
 0142           X8:
 0142                   .dbline -2
 0142           L47:
 0142                   .dbline 0 ; func end
 0142 2196              adiw R28,1
 0144 0895              ret
 0146                   .dbend
                        .area  func_lit
 0000 4D00      PL_Task8#Fvv:   .word `_Task8#Fvv
 0002 4200      PL_Task7#Fvv:   .word `_Task7#Fvv
 0004 3700      PL_Task6#Fvv:   .word `_Task6#Fvv
 0006 2C00      PL_Task5#Fvv:   .word `_Task5#Fvv
 0008 2100      PL_Task4#Fvv:   .word `_Task4#Fvv
 000A 1600      PL_Task3#Fvv:   .word `_Task3#Fvv
 000C 0B00      PL_Task2#Fvv:   .word `_Task2#Fvv
 000E 0000      PL_Task1#Fvv:   .word `_Task1#Fvv
