   1               		.file	"lcd.c"
   2               		.arch atmega16
   3               	__SREG__ = 0x3f
   4               	__SP_H__ = 0x3e
   5               	__SP_L__ = 0x3d
   6               	__tmp_reg__ = 0
   7               	__zero_reg__ = 1
   8               		.global __do_copy_data
   9               		.global __do_clear_bss
  17               	.Ltext0:
  19               	toggle_e:
  20               	.LFB3:
  21               	.LM1:
  22               	/* prologue: frame size=0 */
  23               	/* prologue end (size=0) */
  24               	.LM2:
  25 0000 C39A      		sbi 56-0x20,3
  26               	.LM3:
  27               	/* #APP */
  28 0002 00C0      		rjmp 1f
  29               	 1:
  30               	.LM4:
  31               	/* #NOAPP */
  32 0004 C398      		cbi 56-0x20,3
  33               	/* epilogue: frame size=0 */
  34 0006 0895      		ret
  35               	/* epilogue end (size=1) */
  36               	/* function toggle_e size 7 (6) */
  37               	.LFE3:
  40               	lcd_write:
  41               	.LFB4:
  42               	.LM5:
  43               	/* prologue: frame size=0 */
  44 0008 CF93      		push r28
  45 000a DF93      		push r29
  46               	/* prologue end (size=2) */
  47               	.LVL0:
  48               	.LM6:
  49 000c 6623      		tst r22
  50 000e 01F0      		breq .L4
  51               	.LM7:
  52 0010 C09A      		sbi 56-0x20,0
  53 0012 00C0      		rjmp .L6
  54               	.L4:
  55               	.LM8:
  56 0014 C098      		cbi 56-0x20,0
  57               	.L6:
  58               	.LM9:
  59 0016 C198      		cbi 56-0x20,1
  60               	.LM10:
  61 0018 BC9A      		sbi 55-0x20,4
  62               	.LM11:
  63 001a BD9A      		sbi 55-0x20,5
  64               	.LM12:
  65 001c BE9A      		sbi 55-0x20,6
  66               	.LM13:
  67 001e BF9A      		sbi 55-0x20,7
  68               	.LM14:
  69 0020 C798      		cbi 56-0x20,7
  70               	.LM15:
  71 0022 C698      		cbi 56-0x20,6
  72               	.LM16:
  73 0024 C598      		cbi 56-0x20,5
  74               	.LM17:
  75 0026 C498      		cbi 56-0x20,4
  76               	.LM18:
  77 0028 87FD      		sbrc r24,7
  78 002a C79A      		sbi 56-0x20,7
  79               	.L7:
  80               	.LM19:
  81 002c C82F      		mov r28,r24
  82 002e DD27      		clr r29
  83 0030 C6FD      		sbrc r28,6
  84 0032 C69A      		sbi 56-0x20,6
  85               	.L9:
  86               	.LM20:
  87 0034 C5FD      		sbrc r28,5
  88 0036 C59A      		sbi 56-0x20,5
  89               	.L11:
  90               	.LM21:
  91 0038 C4FD      		sbrc r28,4
  92 003a C49A      		sbi 56-0x20,4
  93               	.L13:
  94               	.LM22:
  95 003c 0E94 0000 		call toggle_e
  96               	.LVL1:
  97               	.LM23:
  98 0040 C798      		cbi 56-0x20,7
  99               	.LM24:
 100 0042 C698      		cbi 56-0x20,6
 101               	.LM25:
 102 0044 C598      		cbi 56-0x20,5
 103               	.LM26:
 104 0046 C498      		cbi 56-0x20,4
 105               	.LM27:
 106 0048 C3FD      		sbrc r28,3
 107 004a C79A      		sbi 56-0x20,7
 108               	.L15:
 109               	.LM28:
 110 004c C2FD      		sbrc r28,2
 111 004e C69A      		sbi 56-0x20,6
 112               	.L17:
 113               	.LM29:
 114 0050 C1FD      		sbrc r28,1
 115 0052 C59A      		sbi 56-0x20,5
 116               	.L19:
 117               	.LM30:
 118 0054 C0FD      		sbrc r28,0
 119 0056 C49A      		sbi 56-0x20,4
 120               	.L21:
 121               	.LM31:
 122 0058 0E94 0000 		call toggle_e
 123               	.LM32:
 124 005c C49A      		sbi 56-0x20,4
 125               	.LM33:
 126 005e C59A      		sbi 56-0x20,5
 127               	.LM34:
 128 0060 C69A      		sbi 56-0x20,6
 129               	.LM35:
 130 0062 C79A      		sbi 56-0x20,7
 131               	/* epilogue: frame size=0 */
 132 0064 DF91      		pop r29
 133 0066 CF91      		pop r28
 134 0068 0895      		ret
 135               	/* epilogue end (size=3) */
 136               	/* function lcd_write size 57 (52) */
 137               	.LFE4:
 140               	lcd_read:
 141               	.LFB5:
 142               	.LM36:
 143               	/* prologue: frame size=0 */
 144               	/* prologue end (size=0) */
 145               	.LVL2:
 146               	.LM37:
 147 006a 8823      		tst r24
 148 006c 01F0      		breq .L25
 149               	.LM38:
 150 006e C09A      		sbi 56-0x20,0
 151 0070 00C0      		rjmp .L27
 152               	.L25:
 153               	.LM39:
 154 0072 C098      		cbi 56-0x20,0
 155               	.L27:
 156               	.LM40:
 157 0074 C19A      		sbi 56-0x20,1
 158               	.LM41:
 159 0076 BC98      		cbi 55-0x20,4
 160               	.LM42:
 161 0078 BD98      		cbi 55-0x20,5
 162               	.LM43:
 163 007a BE98      		cbi 55-0x20,6
 164               	.LM44:
 165 007c BF98      		cbi 55-0x20,7
 166               	.LM45:
 167 007e C39A      		sbi 56-0x20,3
 168               	.LM46:
 169               	/* #APP */
 170 0080 00C0      		rjmp 1f
 171               	 1:
 172               	.LM47:
 173               	/* #NOAPP */
 174 0082 B49B      		sbis 54-0x20,4
 175 0084 00C0      		rjmp .L28
 176 0086 80E1      		ldi r24,lo8(16)
 177               	.LVL3:
 178 0088 00C0      		rjmp .L30
 179               	.LVL4:
 180               	.L28:
 181 008a 80E0      		ldi r24,lo8(0)
 182               	.LVL5:
 183               	.L30:
 184               	.LM48:
 185 008c B599      		sbic 54-0x20,5
 186 008e 8062      		ori r24,lo8(32)
 187               	.L31:
 188               	.LM49:
 189 0090 B699      		sbic 54-0x20,6
 190 0092 8064      		ori r24,lo8(64)
 191               	.L33:
 192               	.LM50:
 193 0094 B799      		sbic 54-0x20,7
 194 0096 8068      		ori r24,lo8(-128)
 195               	.L35:
 196               	.LM51:
 197 0098 C398      		cbi 56-0x20,3
 198               	.LM52:
 199               	/* #APP */
 200 009a 00C0      		rjmp 1f
 201               	 1:
 202               	.LM53:
 203               	/* #NOAPP */
 204 009c C39A      		sbi 56-0x20,3
 205               	.LM54:
 206               	/* #APP */
 207 009e 00C0      		rjmp 1f
 208               	 1:
 209               	.LM55:
 210               	/* #NOAPP */
 211 00a0 B499      		sbic 54-0x20,4
 212 00a2 8160      		ori r24,lo8(1)
 213               	.L37:
 214               	.LM56:
 215 00a4 B599      		sbic 54-0x20,5
 216 00a6 8260      		ori r24,lo8(2)
 217               	.L39:
 218               	.LM57:
 219 00a8 B699      		sbic 54-0x20,6
 220 00aa 8460      		ori r24,lo8(4)
 221               	.L41:
 222               	.LM58:
 223 00ac B799      		sbic 54-0x20,7
 224 00ae 8860      		ori r24,lo8(8)
 225               	.L43:
 226               	.LM59:
 227 00b0 C398      		cbi 56-0x20,3
 228               	.LM60:
 229 00b2 9927      		clr r25
 230               	.LVL6:
 231               	/* epilogue: frame size=0 */
 232 00b4 0895      		ret
 233               	/* epilogue end (size=1) */
 234               	/* function lcd_read size 54 (53) */
 235               	.LFE5:
 238               	lcd_waitbusy:
 239               	.LFB6:
 240               	.LM61:
 241               	/* prologue: frame size=0 */
 242               	/* prologue end (size=0) */
 243               	.L48:
 244               	.LM62:
 245 00b6 80E0      		ldi r24,lo8(0)
 246 00b8 0E94 0000 		call lcd_read
 247 00bc 87FD      		sbrc r24,7
 248 00be 00C0      		rjmp .L48
 249               	.LBB4:
 250               	.LBB5:
 251               	.LM63:
 252               	/* #APP */
 253 00c0 00C0      		rjmp 1f
 254               	 1:
 255               	/* #NOAPP */
 256               	.LBE5:
 257               	.LBE4:
 258               	.LM64:
 259 00c2 80E0      		ldi r24,lo8(0)
 260 00c4 0E94 0000 		call lcd_read
 261               	.LM65:
 262 00c8 9927      		clr r25
 263               	/* epilogue: frame size=0 */
 264 00ca 0895      		ret
 265               	/* epilogue end (size=1) */
 266               	/* function lcd_waitbusy size 14 (13) */
 267               	.LFE6:
 269               	.global	lcd_command
 271               	lcd_command:
 272               	.LFB8:
 273               	.LM66:
 274               	/* prologue: frame size=0 */
 275 00cc 1F93      		push r17
 276               	/* prologue end (size=1) */
 277               	.LVL7:
 278 00ce 182F      		mov r17,r24
 279               	.LM67:
 280 00d0 0E94 0000 		call lcd_waitbusy
 281               	.LVL8:
 282               	.LM68:
 283 00d4 60E0      		ldi r22,lo8(0)
 284 00d6 812F      		mov r24,r17
 285 00d8 0E94 0000 		call lcd_write
 286               	/* epilogue: frame size=0 */
 287 00dc 1F91      		pop r17
 288 00de 0895      		ret
 289               	/* epilogue end (size=2) */
 290               	/* function lcd_command size 10 (7) */
 291               	.LFE8:
 293               	.global	lcd_data
 295               	lcd_data:
 296               	.LFB9:
 297               	.LM69:
 298               	/* prologue: frame size=0 */
 299 00e0 1F93      		push r17
 300               	/* prologue end (size=1) */
 301               	.LVL9:
 302 00e2 182F      		mov r17,r24
 303               	.LM70:
 304 00e4 0E94 0000 		call lcd_waitbusy
 305               	.LVL10:
 306               	.LM71:
 307 00e8 61E0      		ldi r22,lo8(1)
 308 00ea 812F      		mov r24,r17
 309 00ec 0E94 0000 		call lcd_write
 310               	/* epilogue: frame size=0 */
 311 00f0 1F91      		pop r17
 312 00f2 0895      		ret
 313               	/* epilogue end (size=2) */
 314               	/* function lcd_data size 10 (7) */
 315               	.LFE9:
 317               	.global	lcd_gotoxy
 319               	lcd_gotoxy:
 320               	.LFB10:
 321               	.LM72:
 322               	/* prologue: frame size=0 */
 323               	/* prologue end (size=0) */
 324               	.LVL11:
 325               	.LM73:
 326 00f4 6623      		tst r22
 327 00f6 01F4      		brne .L58
 328               	.LM74:
 329 00f8 8058      		subi r24,lo8(-(-128))
 330               	.LVL12:
 331 00fa 00C0      		rjmp .L62
 332               	.LVL13:
 333               	.L58:
 334               	.LM75:
 335 00fc 8054      		subi r24,lo8(-(-64))
 336               	.LVL14:
 337               	.L62:
 338 00fe 0E94 0000 		call lcd_command
 339               	.LVL15:
 340 0102 0895      		ret
 341               	/* epilogue: frame size=0 */
 342               	/* epilogue: noreturn */
 343               	/* epilogue end (size=0) */
 344               	/* function lcd_gotoxy size 8 (8) */
 345               	.LFE10:
 347               	.global	lcd_getxy
 349               	lcd_getxy:
 350               	.LFB11:
 351               	.LM76:
 352               	/* prologue: frame size=0 */
 353               	/* prologue end (size=0) */
 354               	.LM77:
 355 0104 0E94 0000 		call lcd_waitbusy
 356               	.LM78:
 357 0108 9927      		clr r25
 358               	/* epilogue: frame size=0 */
 359 010a 0895      		ret
 360               	/* epilogue end (size=1) */
 361               	/* function lcd_getxy size 4 (3) */
 362               	.LFE11:
 364               	.global	lcd_clrscr
 366               	lcd_clrscr:
 367               	.LFB12:
 368               	.LM79:
 369               	/* prologue: frame size=0 */
 370               	/* prologue end (size=0) */
 371               	.LM80:
 372 010c 81E0      		ldi r24,lo8(1)
 373 010e 0E94 0000 		call lcd_command
 374               	/* epilogue: frame size=0 */
 375 0112 0895      		ret
 376               	/* epilogue end (size=1) */
 377               	/* function lcd_clrscr size 4 (3) */
 378               	.LFE12:
 380               	.global	lcd_home
 382               	lcd_home:
 383               	.LFB13:
 384               	.LM81:
 385               	/* prologue: frame size=0 */
 386               	/* prologue end (size=0) */
 387               	.LM82:
 388 0114 82E0      		ldi r24,lo8(2)
 389 0116 0E94 0000 		call lcd_command
 390               	/* epilogue: frame size=0 */
 391 011a 0895      		ret
 392               	/* epilogue end (size=1) */
 393               	/* function lcd_home size 4 (3) */
 394               	.LFE13:
 396               	.global	lcd_putc
 398               	lcd_putc:
 399               	.LFB14:
 400               	.LM83:
 401               	/* prologue: frame size=0 */
 402 011c 1F93      		push r17
 403               	/* prologue end (size=1) */
 404               	.LVL16:
 405 011e 182F      		mov r17,r24
 406               	.LM84:
 407 0120 0E94 0000 		call lcd_waitbusy
 408               	.LVL17:
 409               	.LM85:
 410 0124 1A30      		cpi r17,lo8(10)
 411 0126 01F4      		brne .L70
 412               	.LVL18:
 413               	.LBB8:
 414               	.LBB9:
 415               	.LM86:
 416 0128 8034      		cpi r24,lo8(64)
 417 012a 00F4      		brsh .L72
 418 012c 80E4      		ldi r24,lo8(64)
 419               	.LVL19:
 420 012e 00C0      		rjmp .L74
 421               	.LVL20:
 422               	.L72:
 423 0130 80E0      		ldi r24,lo8(0)
 424               	.LVL21:
 425               	.L74:
 426               	.LM87:
 427 0132 8058      		subi r24,lo8(-(-128))
 428               	.LVL22:
 429 0134 0E94 0000 		call lcd_command
 430 0138 00C0      		rjmp .L76
 431               	.L70:
 432               	.LBE9:
 433               	.LBE8:
 434               	.LM88:
 435 013a 61E0      		ldi r22,lo8(1)
 436 013c 812F      		mov r24,r17
 437 013e 0E94 0000 		call lcd_write
 438               	.L76:
 439               	/* epilogue: frame size=0 */
 440 0142 1F91      		pop r17
 441 0144 0895      		ret
 442               	/* epilogue end (size=2) */
 443               	/* function lcd_putc size 21 (18) */
 444               	.LFE14:
 446               	.global	lcd_puts
 448               	lcd_puts:
 449               	.LFB15:
 450               	.LM89:
 451               	/* prologue: frame size=0 */
 452 0146 CF93      		push r28
 453 0148 DF93      		push r29
 454               	/* prologue end (size=2) */
 455               	.LVL23:
 456 014a EC01      		movw r28,r24
 457 014c 00C0      		rjmp .L78
 458               	.LVL24:
 459               	.L79:
 460               	.LM90:
 461 014e 0E94 0000 		call lcd_putc
 462               	.LVL25:
 463               	.L78:
 464               	.LM91:
 465 0152 8991      		ld r24,Y+
 466               	.LVL26:
 467 0154 8823      		tst r24
 468 0156 01F4      		brne .L79
 469               	/* epilogue: frame size=0 */
 470 0158 DF91      		pop r29
 471 015a CF91      		pop r28
 472 015c 0895      		ret
 473               	/* epilogue end (size=3) */
 474               	/* function lcd_puts size 12 (7) */
 475               	.LFE15:
 477               	.global	lcd_puts_p
 479               	lcd_puts_p:
 480               	.LFB16:
 481               	.LM92:
 482               	/* prologue: frame size=0 */
 483 015e CF93      		push r28
 484 0160 DF93      		push r29
 485               	/* prologue end (size=2) */
 486               	.LVL27:
 487 0162 EC01      		movw r28,r24
 488 0164 00C0      		rjmp .L83
 489               	.LVL28:
 490               	.L84:
 491               	.LM93:
 492 0166 0E94 0000 		call lcd_putc
 493               	.LVL29:
 494               	.L83:
 495 016a FE01      		movw r30,r28
 496               	.LVL30:
 497               	.LBB10:
 498               	.LM94:
 499 016c 2196      		adiw r28,1
 500               	/* #APP */
 501 016e 8491      		lpm r24, Z
 502               		
 503               	.LVL31:
 504               	/* #NOAPP */
 505               	.LBE10:
 506 0170 8823      		tst r24
 507 0172 01F4      		brne .L84
 508               	/* epilogue: frame size=0 */
 509 0174 DF91      		pop r29
 510 0176 CF91      		pop r28
 511 0178 0895      		ret
 512               	/* epilogue end (size=3) */
 513               	/* function lcd_puts_p size 17 (12) */
 514               	.LFE16:
 516               	.global	lcd_init
 518               	lcd_init:
 519               	.LFB17:
 520               	.LM95:
 521               	/* prologue: frame size=0 */
 522 017a FF92      		push r15
 523 017c 0F93      		push r16
 524 017e 1F93      		push r17
 525               	/* prologue end (size=3) */
 526               	.LVL32:
 527 0180 F82E      		mov r15,r24
 528               	.LM96:
 529 0182 B89A      		sbi 55-0x20,0
 530               	.LM97:
 531 0184 B99A      		sbi 55-0x20,1
 532               	.LM98:
 533 0186 BB9A      		sbi 55-0x20,3
 534               	.LM99:
 535 0188 BC9A      		sbi 55-0x20,4
 536               	.LM100:
 537 018a BD9A      		sbi 55-0x20,5
 538               	.LM101:
 539 018c BE9A      		sbi 55-0x20,6
 540               	.LM102:
 541 018e BF9A      		sbi 55-0x20,7
 542               	.LBB21:
 543               	.LBB22:
 544               	.LM103:
 545 0190 80EA      		ldi r24,lo8(4000)
 546 0192 9FE0      		ldi r25,hi8(4000)
 547               	.LVL33:
 548               	/* #APP */
 549 0194 0197      		1: sbiw r24,1
 550 0196 01F4      		brne 1b
 551               	/* #NOAPP */
 552               	.LBE22:
 553               	.LBE21:
 554               	.LM104:
 555 0198 C59A      		sbi 56-0x20,5
 556               	.LM105:
 557 019a C49A      		sbi 56-0x20,4
 558               	.LM106:
 559 019c 0E94 0000 		call toggle_e
 560               	.LVL34:
 561               	.LBB23:
 562               	.LBB24:
 563               	.LM107:
 564 01a0 80EE      		ldi r24,lo8(1248)
 565 01a2 94E0      		ldi r25,hi8(1248)
 566               	.LVL35:
 567               	/* #APP */
 568 01a4 0197      		1: sbiw r24,1
 569 01a6 01F4      		brne 1b
 570               	/* #NOAPP */
 571               	.LBE24:
 572               	.LBE23:
 573               	.LM108:
 574 01a8 0E94 0000 		call toggle_e
 575               	.LVL36:
 576               	.LBB25:
 577               	.LBB26:
 578               	.LM109:
 579 01ac 00E1      		ldi r16,lo8(16)
 580 01ae 10E0      		ldi r17,hi8(16)
 581 01b0 C801      		movw r24,r16
 582               	.LVL37:
 583               	/* #APP */
 584 01b2 0197      		1: sbiw r24,1
 585 01b4 01F4      		brne 1b
 586               	/* #NOAPP */
 587               	.LBE26:
 588               	.LBE25:
 589               	.LM110:
 590 01b6 0E94 0000 		call toggle_e
 591               	.LVL38:
 592               	.LBB27:
 593               	.LBB28:
 594               	.LM111:
 595 01ba C801      		movw r24,r16
 596               	.LVL39:
 597               	/* #APP */
 598 01bc 0197      		1: sbiw r24,1
 599 01be 01F4      		brne 1b
 600               	/* #NOAPP */
 601               	.LBE28:
 602               	.LBE27:
 603               	.LM112:
 604 01c0 C498      		cbi 56-0x20,4
 605               	.LM113:
 606 01c2 0E94 0000 		call toggle_e
 607               	.LVL40:
 608               	.LBB29:
 609               	.LBB30:
 610               	.LM114:
 611 01c6 C801      		movw r24,r16
 612               	/* #APP */
 613 01c8 0197      		1: sbiw r24,1
 614 01ca 01F4      		brne 1b
 615               	/* #NOAPP */
 616               	.LBE30:
 617               	.LBE29:
 618               	.LM115:
 619 01cc 88E2      		ldi r24,lo8(40)
 620 01ce 0E94 0000 		call lcd_command
 621               	.LM116:
 622 01d2 88E0      		ldi r24,lo8(8)
 623 01d4 0E94 0000 		call lcd_command
 624               	.LM117:
 625 01d8 0E94 0000 		call lcd_clrscr
 626               	.LM118:
 627 01dc 86E0      		ldi r24,lo8(6)
 628 01de 0E94 0000 		call lcd_command
 629               	.LM119:
 630 01e2 8F2D      		mov r24,r15
 631 01e4 0E94 0000 		call lcd_command
 632               	/* epilogue: frame size=0 */
 633 01e8 1F91      		pop r17
 634 01ea 0F91      		pop r16
 635 01ec FF90      		pop r15
 636 01ee 0895      		ret
 637               	/* epilogue end (size=4) */
 638               	/* function lcd_init size 69 (62) */
 639               	.LFE17:
 769               	.Letext0:
DEFINED SYMBOLS
                            *ABS*:00000000 lcd.c
C:\DOCUME~1\Sandeep\LOCALS~1\Temp/ccpZJFpg.s:3      *ABS*:0000003f __SREG__
C:\DOCUME~1\Sandeep\LOCALS~1\Temp/ccpZJFpg.s:4      *ABS*:0000003e __SP_H__
C:\DOCUME~1\Sandeep\LOCALS~1\Temp/ccpZJFpg.s:5      *ABS*:0000003d __SP_L__
C:\DOCUME~1\Sandeep\LOCALS~1\Temp/ccpZJFpg.s:6      *ABS*:00000000 __tmp_reg__
C:\DOCUME~1\Sandeep\LOCALS~1\Temp/ccpZJFpg.s:7      *ABS*:00000001 __zero_reg__
C:\DOCUME~1\Sandeep\LOCALS~1\Temp/ccpZJFpg.s:19     .text:00000000 toggle_e
C:\DOCUME~1\Sandeep\LOCALS~1\Temp/ccpZJFpg.s:40     .text:00000008 lcd_write
C:\DOCUME~1\Sandeep\LOCALS~1\Temp/ccpZJFpg.s:140    .text:0000006a lcd_read
C:\DOCUME~1\Sandeep\LOCALS~1\Temp/ccpZJFpg.s:238    .text:000000b6 lcd_waitbusy
C:\DOCUME~1\Sandeep\LOCALS~1\Temp/ccpZJFpg.s:271    .text:000000cc lcd_command
C:\DOCUME~1\Sandeep\LOCALS~1\Temp/ccpZJFpg.s:295    .text:000000e0 lcd_data
C:\DOCUME~1\Sandeep\LOCALS~1\Temp/ccpZJFpg.s:319    .text:000000f4 lcd_gotoxy
C:\DOCUME~1\Sandeep\LOCALS~1\Temp/ccpZJFpg.s:349    .text:00000104 lcd_getxy
C:\DOCUME~1\Sandeep\LOCALS~1\Temp/ccpZJFpg.s:366    .text:0000010c lcd_clrscr
C:\DOCUME~1\Sandeep\LOCALS~1\Temp/ccpZJFpg.s:382    .text:00000114 lcd_home
C:\DOCUME~1\Sandeep\LOCALS~1\Temp/ccpZJFpg.s:398    .text:0000011c lcd_putc
C:\DOCUME~1\Sandeep\LOCALS~1\Temp/ccpZJFpg.s:448    .text:00000146 lcd_puts
C:\DOCUME~1\Sandeep\LOCALS~1\Temp/ccpZJFpg.s:479    .text:0000015e lcd_puts_p
C:\DOCUME~1\Sandeep\LOCALS~1\Temp/ccpZJFpg.s:518    .text:0000017a lcd_init

UNDEFINED SYMBOLS
__do_copy_data
__do_clear_bss
