   1               		.file	"robokits.c"
   2               	__SREG__ = 0x3f
   3               	__SP_H__ = 0x3e
   4               	__SP_L__ = 0x3d
   5               	__CCP__  = 0x34
   6               	__tmp_reg__ = 0
   7               	__zero_reg__ = 1
   8               		.global __do_copy_data
   9               		.global __do_clear_bss
  17               	.Ltext0:
  18               	.global	wait_debounce
  20               	wait_debounce:
  21               	.LFB9:
  22               	.LM1:
  23               	/* prologue: function */
  24               	/* frame size = 0 */
  25               	.L2:
  26               	.LM2:
  27 0000 90B3      		in r25,48-32
  28               	.LVL0:
  29               	.LM3:
  30 0002 80B3      		in r24,48-32
  31               	.LM4:
  32 0004 8923      		and r24,r25
  33 0006 81FD      		sbrc r24,1
  34 0008 00C0      		rjmp .L2
  35               	/* epilogue start */
  36               	.LM5:
  37 000a 0895      		ret
  38               	.LFE9:
  40               	.global	__vector_9
  42               	__vector_9:
  43               	.LFB11:
  44               	.LM6:
  45 000c 1F92      		push __zero_reg__
  46 000e 0F92      		push r0
  47 0010 0FB6      		in r0,__SREG__
  48 0012 0F92      		push r0
  49 0014 1124      		clr __zero_reg__
  50 0016 8F93      		push r24
  51 0018 9F93      		push r25
  52               	/* prologue: Signal */
  53               	/* frame size = 0 */
  54               	.LM7:
  55 001a CE99      		sbic 57-32,6
  56 001c 00C0      		rjmp .L6
  57               	.LM8:
  58 001e DE9A      		sbi 59-32,6
  59 0020 00C0      		rjmp .L7
  60               	.L6:
  61               	.LM9:
  62 0022 DE98      		cbi 59-32,6
  63               	.L7:
  64               	.LM10:
  65 0024 8EE2      		ldi r24,lo8(-978)
  66 0026 9CEF      		ldi r25,hi8(-978)
  67 0028 9DBD      		out (76)+1-32,r25
  68 002a 8CBD      		out 76-32,r24
  69               	/* epilogue start */
  70               	.LM11:
  71 002c 9F91      		pop r25
  72 002e 8F91      		pop r24
  73 0030 0F90      		pop r0
  74 0032 0FBE      		out __SREG__,r0
  75 0034 0F90      		pop r0
  76 0036 1F90      		pop __zero_reg__
  77 0038 1895      		reti
  78               	.LFE11:
  80               		.data
  81               	.LC0:
  82 0000 424C 494E 		.string	"BLINK LEDS PORTA\n"
  82      4B20 4C45 
  82      4453 2050 
  82      4F52 5441 
  82      0A00 
  83               	.LC1:
  84 0012 5052 4553 		.string	"PRESS 4 TO EXIT \n"
  84      5320 3420 
  84      544F 2045 
  84      5849 5420 
  84      0A00 
  85               	.LC2:
  86 0024 4D4F 544F 		.string	"MOTOR SPEED CONT\n"
  86      5220 5350 
  86      4545 4420 
  86      434F 4E54 
  86      0A00 
  87               	.LC3:
  88 0036 5541 5254 		.string	"UART PUT&GET DEM\n"
  88      2050 5554 
  88      2647 4554 
  88      2044 454D 
  88      0A00 
  89               	.LC4:
  90 0048 5449 4D45 		.string	"TIMER1 BLINKY   \n"
  90      5231 2042 
  90      4C49 4E4B 
  90      5920 2020 
  90      0A00 
  91               	.LC5:
  92 005a 4445 424F 		.string	"DEBOUNCE SW1    \n"
  92      554E 4345 
  92      2053 5731 
  92      2020 2020 
  92      0A00 
  93               	.LC6:
  94 006c 3120 4657 		.string	"1 FWD   2 BWD   \n"
  94      4420 2020 
  94      3220 4257 
  94      4420 2020 
  94      0A00 
  95               		.text
  96               	.global	subprog
  98               	subprog:
  99               	.LFB8:
 100               	.LM12:
 101               	/* prologue: function */
 102               	/* frame size = 0 */
 103               	.LM13:
 104 003a 0E94 0000 		call lcd_clrscr
 105               	.LM14:
 106 003e 8091 0000 		lds r24,current
 107 0042 8823      		tst r24
 108 0044 01F4      		brne .L10
 109               	.LM15:
 110 0046 80E0      		ldi r24,lo8(.LC0)
 111 0048 90E0      		ldi r25,hi8(.LC0)
 112 004a 00C0      		rjmp .L17
 113               	.L10:
 114               	.LM16:
 115 004c 8130      		cpi r24,lo8(1)
 116 004e 01F4      		brne .L12
 117               	.LM17:
 118 0050 80E0      		ldi r24,lo8(.LC2)
 119 0052 90E0      		ldi r25,hi8(.LC2)
 120 0054 00C0      		rjmp .L17
 121               	.L12:
 122               	.LM18:
 123 0056 8230      		cpi r24,lo8(2)
 124 0058 01F4      		brne .L13
 125               	.LM19:
 126 005a 80E0      		ldi r24,lo8(.LC3)
 127 005c 90E0      		ldi r25,hi8(.LC3)
 128 005e 00C0      		rjmp .L17
 129               	.L13:
 130               	.LM20:
 131 0060 8330      		cpi r24,lo8(3)
 132 0062 01F4      		brne .L14
 133               	.LM21:
 134 0064 80E0      		ldi r24,lo8(.LC4)
 135 0066 90E0      		ldi r25,hi8(.LC4)
 136 0068 00C0      		rjmp .L17
 137               	.L14:
 138               	.LM22:
 139 006a 8430      		cpi r24,lo8(4)
 140 006c 01F4      		brne .L15
 141               	.LM23:
 142 006e 80E0      		ldi r24,lo8(.LC5)
 143 0070 90E0      		ldi r25,hi8(.LC5)
 144               	.L17:
 145 0072 0E94 0000 		call lcd_puts
 146               	.LM24:
 147 0076 80E0      		ldi r24,lo8(.LC1)
 148 0078 90E0      		ldi r25,hi8(.LC1)
 149 007a 0E94 0000 		call lcd_puts
 150 007e 0895      		ret
 151               	.L15:
 152               	.LM25:
 153 0080 8530      		cpi r24,lo8(5)
 154 0082 01F4      		brne .L16
 155               	.LM26:
 156 0084 80E0      		ldi r24,lo8(.LC6)
 157 0086 90E0      		ldi r25,hi8(.LC6)
 158 0088 0E94 0000 		call lcd_puts
 159               	.LM27:
 160 008c 80E0      		ldi r24,lo8(.LC1)
 161 008e 90E0      		ldi r25,hi8(.LC1)
 162 0090 0E94 0000 		call lcd_puts
 163               	.L16:
 164 0094 0895      		ret
 165               	.LFE8:
 167               		.data
 168               	.LC7:
 169 007e 3153 454C 		.string	"1SELEC 2UP 3DOWN\n"
 169      4543 2032 
 169      5550 2033 
 169      444F 574E 
 169      0A00 
 170               	.LC8:
 171 0090 5354 4550 		.string	"STEPPER MOTOR   \n"
 171      5045 5220 
 171      4D4F 544F 
 171      5220 2020 
 171      0A00 
 172               		.text
 173               	.global	menu
 175               	menu:
 176               	.LFB7:
 177               	.LM28:
 178               	/* prologue: function */
 179               	/* frame size = 0 */
 180               	.LM29:
 181 0096 0E94 0000 		call lcd_clrscr
 182               	.LM30:
 183 009a 8091 0000 		lds r24,current
 184 009e 8823      		tst r24
 185 00a0 01F4      		brne .L19
 186               	.LM31:
 187 00a2 80E0      		ldi r24,lo8(.LC0)
 188 00a4 90E0      		ldi r25,hi8(.LC0)
 189 00a6 00C0      		rjmp .L26
 190               	.L19:
 191               	.LM32:
 192 00a8 8130      		cpi r24,lo8(1)
 193 00aa 01F4      		brne .L21
 194               	.LM33:
 195 00ac 80E0      		ldi r24,lo8(.LC2)
 196 00ae 90E0      		ldi r25,hi8(.LC2)
 197 00b0 00C0      		rjmp .L26
 198               	.L21:
 199               	.LM34:
 200 00b2 8230      		cpi r24,lo8(2)
 201 00b4 01F4      		brne .L22
 202               	.LM35:
 203 00b6 80E0      		ldi r24,lo8(.LC3)
 204 00b8 90E0      		ldi r25,hi8(.LC3)
 205 00ba 00C0      		rjmp .L26
 206               	.L22:
 207               	.LM36:
 208 00bc 8330      		cpi r24,lo8(3)
 209 00be 01F4      		brne .L23
 210               	.LM37:
 211 00c0 80E0      		ldi r24,lo8(.LC4)
 212 00c2 90E0      		ldi r25,hi8(.LC4)
 213 00c4 00C0      		rjmp .L26
 214               	.L23:
 215               	.LM38:
 216 00c6 8430      		cpi r24,lo8(4)
 217 00c8 01F4      		brne .L24
 218               	.LM39:
 219 00ca 80E0      		ldi r24,lo8(.LC5)
 220 00cc 90E0      		ldi r25,hi8(.LC5)
 221               	.L26:
 222 00ce 0E94 0000 		call lcd_puts
 223               	.LM40:
 224 00d2 80E0      		ldi r24,lo8(.LC7)
 225 00d4 90E0      		ldi r25,hi8(.LC7)
 226 00d6 0E94 0000 		call lcd_puts
 227 00da 0895      		ret
 228               	.L24:
 229               	.LM41:
 230 00dc 8530      		cpi r24,lo8(5)
 231 00de 01F4      		brne .L25
 232               	.LM42:
 233 00e0 80E0      		ldi r24,lo8(.LC8)
 234 00e2 90E0      		ldi r25,hi8(.LC8)
 235 00e4 0E94 0000 		call lcd_puts
 236               	.LM43:
 237 00e8 80E0      		ldi r24,lo8(.LC7)
 238 00ea 90E0      		ldi r25,hi8(.LC7)
 239 00ec 0E94 0000 		call lcd_puts
 240               	.L25:
 241 00f0 0895      		ret
 242               	.LFE7:
 244               		.data
 245               	.LC9:
 246 00a2 524F 424F 		.string	"ROBOTICS BY\n"
 246      5449 4353 
 246      2042 590A 
 246      00
 247               	.LC10:
 248 00af 2020 2020 		.string	"    SUDARSHAN"
 248      5355 4441 
 248      5253 4841 
 248      4E00 
 249               	.LC11:
 250 00bd 412E 00   		.string	"A."
 251               	.LC12:
 252 00c0 494E 5432 		.string	"INT2 FOR OPTION1\n"
 252      2046 4F52 
 252      204F 5054 
 252      494F 4E31 
 252      0A00 
 253               	.LC13:
 254 00d2 5357 3120 		.string	"SW1 FOR OPTION2 "
 254      464F 5220 
 254      4F50 5449 
 254      4F4E 3220 
 254      00
 255               	.LC14:
 256 00e3 494E 5430 		.string	"INT0 FOR OPTION3\n"
 256      2046 4F52 
 256      204F 5054 
 256      494F 4E33 
 256      0A00 
 257               	.LC15:
 258 00f5 494E 5431 		.string	"INT1 FOR OPTION4 "
 258      2046 4F52 
 258      204F 5054 
 258      494F 4E34 
 258      2000 
 259               		.text
 260               	.global	main
 262               	main:
 263               	.LFB12:
 264               	.LM44:
 265 00f2 2F92      		push r2
 266 00f4 3F92      		push r3
 267 00f6 4F92      		push r4
 268 00f8 5F92      		push r5
 269 00fa 6F92      		push r6
 270 00fc 7F92      		push r7
 271 00fe 8F92      		push r8
 272 0100 9F92      		push r9
 273 0102 AF92      		push r10
 274 0104 BF92      		push r11
 275 0106 CF92      		push r12
 276 0108 DF92      		push r13
 277 010a EF92      		push r14
 278 010c FF92      		push r15
 279 010e 0F93      		push r16
 280 0110 1F93      		push r17
 281 0112 DF93      		push r29
 282 0114 CF93      		push r28
 283 0116 CDB7      		in r28,__SP_L__
 284 0118 DEB7      		in r29,__SP_H__
 285 011a 2797      		sbiw r28,7
 286 011c 0FB6      		in __tmp_reg__,__SREG__
 287 011e F894      		cli
 288 0120 DEBF      		out __SP_H__,r29
 289 0122 0FBE      		out __SREG__,__tmp_reg__
 290 0124 CDBF      		out __SP_L__,r28
 291               	/* prologue: function */
 292               	/* frame size = 7 */
 293               	.LM45:
 294 0126 80EF      		ldi r24,lo8(-16)
 295 0128 8ABB      		out 58-32,r24
 296               	.LM46:
 297 012a 8BEF      		ldi r24,lo8(-5)
 298 012c 87BB      		out 55-32,r24
 299               	.LM47:
 300 012e 81EF      		ldi r24,lo8(-15)
 301 0130 81BB      		out 49-32,r24
 302               	.LM48:
 303 0132 8FEF      		ldi r24,lo8(-1)
 304 0134 84BB      		out 52-32,r24
 305               	.LM49:
 306 0136 C29A      		sbi 56-32,2
 307               	.LM50:
 308 0138 919A      		sbi 50-32,1
 309               	.LM51:
 310 013a 929A      		sbi 50-32,2
 311               	.LM52:
 312 013c 939A      		sbi 50-32,3
 313               	.LM53:
 314 013e 8CE0      		ldi r24,lo8(12)
 315 0140 0E94 0000 		call lcd_init
 316               	.LM54:
 317 0144 0E94 0000 		call lcd_clrscr
 318               	.LM55:
 319 0148 80E0      		ldi r24,lo8(.LC9)
 320 014a 90E0      		ldi r25,hi8(.LC9)
 321 014c 0E94 0000 		call lcd_puts
 322               	.LM56:
 323 0150 80E0      		ldi r24,lo8(.LC10)
 324 0152 90E0      		ldi r25,hi8(.LC10)
 325 0154 0E94 0000 		call lcd_puts
 326               	.LM57:
 327 0158 61E0      		ldi r22,lo8(1)
 328 015a 80E0      		ldi r24,lo8(0)
 329 015c 0E94 0000 		call lcd_gotoxy
 330               	.LM58:
 331 0160 80E0      		ldi r24,lo8(.LC11)
 332 0162 90E0      		ldi r25,hi8(.LC11)
 333 0164 0E94 0000 		call lcd_puts
 334 0168 20E0      		ldi r18,lo8(0)
 335               	.LVL1:
 336               	.LBB188:
 337               	.LBB189:
 338               	.LBB190:
 339               	.LBB191:
 340               	.LM59:
 341 016a 44E2      		ldi r20,lo8(-3036)
 342 016c 54EF      		ldi r21,hi8(-3036)
 343               	.L28:
 344 016e CA01      		movw r24,r20
 345               	.LVL2:
 346               	/* #APP */
 347               	 ;  105 "c:/winavr-20080610/lib/gcc/../../avr/include/util/delay_basic.h" 1
 348 0170 0197      		1: sbiw r24,1
 349 0172 01F4      		brne 1b
 350               	 ;  0 "" 2
 351               	/* #NOAPP */
 352               	.LBE191:
 353               	.LBE190:
 354               	.LBE189:
 355               	.LBE188:
 356               	.LM60:
 357 0174 2F5F      		subi r18,lo8(-(1))
 358 0176 2F30      		cpi r18,lo8(15)
 359 0178 01F4      		brne .L28
 360               	.LM61:
 361 017a 0E94 0000 		call lcd_clrscr
 362               	.LVL3:
 363               	.LM62:
 364 017e 80E0      		ldi r24,lo8(.LC12)
 365 0180 90E0      		ldi r25,hi8(.LC12)
 366 0182 0E94 0000 		call lcd_puts
 367               	.LM63:
 368 0186 80E0      		ldi r24,lo8(.LC13)
 369 0188 90E0      		ldi r25,hi8(.LC13)
 370 018a 0E94 0000 		call lcd_puts
 371 018e 20E0      		ldi r18,lo8(0)
 372               	.LVL4:
 373               	.LBB192:
 374               	.LBB193:
 375               	.LBB194:
 376               	.LBB195:
 377               	.LM64:
 378 0190 44E2      		ldi r20,lo8(-3036)
 379 0192 54EF      		ldi r21,hi8(-3036)
 380               	.L29:
 381 0194 CA01      		movw r24,r20
 382               	.LVL5:
 383               	/* #APP */
 384               	 ;  105 "c:/winavr-20080610/lib/gcc/../../avr/include/util/delay_basic.h" 1
 385 0196 0197      		1: sbiw r24,1
 386 0198 01F4      		brne 1b
 387               	 ;  0 "" 2
 388               	/* #NOAPP */
 389               	.LBE195:
 390               	.LBE194:
 391               	.LBE193:
 392               	.LBE192:
 393               	.LM65:
 394 019a 2F5F      		subi r18,lo8(-(1))
 395 019c 2F30      		cpi r18,lo8(15)
 396 019e 01F4      		brne .L29
 397               	.LM66:
 398 01a0 0E94 0000 		call lcd_clrscr
 399               	.LVL6:
 400               	.LM67:
 401 01a4 80E0      		ldi r24,lo8(.LC14)
 402 01a6 90E0      		ldi r25,hi8(.LC14)
 403 01a8 0E94 0000 		call lcd_puts
 404               	.LM68:
 405 01ac 80E0      		ldi r24,lo8(.LC15)
 406 01ae 90E0      		ldi r25,hi8(.LC15)
 407 01b0 0E94 0000 		call lcd_puts
 408 01b4 20E0      		ldi r18,lo8(0)
 409               	.LVL7:
 410               	.LBB196:
 411               	.LBB197:
 412               	.LBB198:
 413               	.LBB199:
 414               	.LM69:
 415 01b6 44E2      		ldi r20,lo8(-3036)
 416 01b8 54EF      		ldi r21,hi8(-3036)
 417               	.L30:
 418 01ba CA01      		movw r24,r20
 419               	.LVL8:
 420               	/* #APP */
 421               	 ;  105 "c:/winavr-20080610/lib/gcc/../../avr/include/util/delay_basic.h" 1
 422 01bc 0197      		1: sbiw r24,1
 423 01be 01F4      		brne 1b
 424               	 ;  0 "" 2
 425               	/* #NOAPP */
 426               	.LBE199:
 427               	.LBE198:
 428               	.LBE197:
 429               	.LBE196:
 430               	.LM70:
 431 01c0 2F5F      		subi r18,lo8(-(1))
 432 01c2 2F30      		cpi r18,lo8(15)
 433 01c4 01F4      		brne .L30
 434               	.LM71:
 435 01c6 1092 0000 		sts current,__zero_reg__
 436               	.LM72:
 437 01ca 0E94 0000 		call menu
 438               	.LVL9:
 439               	.LM73:
 440 01ce 80E8      		ldi r24,lo8(-128)
 441 01d0 8BBF      		out 91-32,r24
 442               	.LM74:
 443 01d2 88E0      		ldi r24,lo8(8)
 444 01d4 85BF      		out 85-32,r24
 445               	.LM75:
 446               	/* #APP */
 447               	 ;  270 "robokits.c" 1
 448 01d6 7894      		sei
 449               	 ;  0 "" 2
 450               	.LM76:
 451               	/* #NOAPP */
 452 01d8 80E0      		ldi r24,lo8(env)
 453 01da 90E0      		ldi r25,hi8(env)
 454 01dc 0E94 0000 		call setjmp
 455               	.LM77:
 456 01e0 B0E3      		ldi r27,lo8(48)
 457 01e2 CB2E      		mov r12,r27
 458 01e4 D12C      		mov r13,__zero_reg__
 459               	.LM78:
 460 01e6 05E3      		ldi r16,lo8(53)
 461 01e8 10E0      		ldi r17,hi8(53)
 462               	.LM79:
 463 01ea AFE4      		ldi r26,lo8(79)
 464 01ec 2A2E      		mov r2,r26
 465 01ee 312C      		mov r3,__zero_reg__
 466               	.LM80:
 467 01f0 FEE4      		ldi r31,lo8(78)
 468 01f2 4F2E      		mov r4,r31
 469 01f4 512C      		mov r5,__zero_reg__
 470               	.LM81:
 471 01f6 ECE4      		ldi r30,lo8(76)
 472 01f8 6E2E      		mov r6,r30
 473 01fa 712C      		mov r7,__zero_reg__
 474               	.LM82:
 475 01fc 7AE4      		ldi r23,lo8(74)
 476 01fe 872E      		mov r8,r23
 477 0200 912C      		mov r9,__zero_reg__
 478               	.LM83:
 479 0202 68E4      		ldi r22,lo8(72)
 480 0204 A62E      		mov r10,r22
 481 0206 B12C      		mov r11,__zero_reg__
 482               	.LBB200:
 483               	.LBB201:
 484               	.LBB202:
 485               	.LBB203:
 486               	.LM84:
 487 0208 54E2      		ldi r21,lo8(-3036)
 488 020a E52E      		mov r14,r21
 489 020c 54EF      		ldi r21,hi8(-3036)
 490 020e F52E      		mov r15,r21
 491               	.LVL10:
 492               	.L76:
 493               	.LBE203:
 494               	.LBE202:
 495               	.LBE201:
 496               	.LBE200:
 497               	.LM85:
 498 0210 A6E3      		ldi r26,lo8(54)
 499 0212 B0E0      		ldi r27,hi8(54)
 500 0214 8C91      		ld r24,X
 501               	.LVL11:
 502 0216 82FD      		sbrc r24,2
 503 0218 00C0      		rjmp .L31
 504               	.LM86:
 505 021a 8091 0000 		lds r24,current
 506 021e 8823      		tst r24
 507 0220 01F4      		brne .L32
 508               	.LM87:
 509 0222 0E94 0000 		call subprog
 510               	.LM88:
 511 0226 EBE3      		ldi r30,lo8(59)
 512 0228 F0E0      		ldi r31,hi8(59)
 513               	.LBB207:
 514               	.LBB208:
 515               	.LBB209:
 516               	.LBB210:
 517               	.LM89:
 518 022a 24E2      		ldi r18,lo8(-3036)
 519 022c 34EF      		ldi r19,hi8(-3036)
 520               	.LBE210:
 521               	.LBE209:
 522               	.LBE208:
 523               	.LBE207:
 524               	.LM90:
 525 022e 40EF      		ldi r20,lo8(-16)
 526               	.L33:
 527               	.LM91:
 528 0230 1082      		st Z,__zero_reg__
 529               	.LBB214:
 530               	.LBB213:
 531               	.LBB212:
 532               	.LBB211:
 533               	.LM92:
 534 0232 C901      		movw r24,r18
 535               	.LVL12:
 536               	/* #APP */
 537               	 ;  105 "c:/winavr-20080610/lib/gcc/../../avr/include/util/delay_basic.h" 1
 538 0234 0197      		1: sbiw r24,1
 539 0236 01F4      		brne 1b
 540               	 ;  0 "" 2
 541               	/* #NOAPP */
 542               	.LBE211:
 543               	.LBE212:
 544               	.LBE213:
 545               	.LBE214:
 546               	.LBB215:
 547               	.LBB216:
 548               	.LBB217:
 549               	.LBB218:
 550 0238 C901      		movw r24,r18
 551               	.LVL13:
 552               	/* #APP */
 553               	 ;  105 "c:/winavr-20080610/lib/gcc/../../avr/include/util/delay_basic.h" 1
 554 023a 0197      		1: sbiw r24,1
 555 023c 01F4      		brne 1b
 556               	 ;  0 "" 2
 557               	/* #NOAPP */
 558               	.LBE218:
 559               	.LBE217:
 560               	.LBE216:
 561               	.LBE215:
 562               	.LBB219:
 563               	.LBB220:
 564               	.LBB221:
 565               	.LBB222:
 566 023e C901      		movw r24,r18
 567               	.LVL14:
 568               	/* #APP */
 569               	 ;  105 "c:/winavr-20080610/lib/gcc/../../avr/include/util/delay_basic.h" 1
 570 0240 0197      		1: sbiw r24,1
 571 0242 01F4      		brne 1b
 572               	 ;  0 "" 2
 573               	/* #NOAPP */
 574               	.LBE222:
 575               	.LBE221:
 576               	.LBE220:
 577               	.LBE219:
 578               	.LBB223:
 579               	.LBB224:
 580               	.LBB225:
 581               	.LBB226:
 582 0244 C901      		movw r24,r18
 583               	.LVL15:
 584               	/* #APP */
 585               	 ;  105 "c:/winavr-20080610/lib/gcc/../../avr/include/util/delay_basic.h" 1
 586 0246 0197      		1: sbiw r24,1
 587 0248 01F4      		brne 1b
 588               	 ;  0 "" 2
 589               	/* #NOAPP */
 590               	.LBE226:
 591               	.LBE225:
 592               	.LBE224:
 593               	.LBE223:
 594               	.LM93:
 595 024a 4083      		st Z,r20
 596               	.LBB227:
 597               	.LBB228:
 598               	.LBB229:
 599               	.LBB230:
 600               	.LM94:
 601 024c C901      		movw r24,r18
 602               	.LVL16:
 603               	/* #APP */
 604               	 ;  105 "c:/winavr-20080610/lib/gcc/../../avr/include/util/delay_basic.h" 1
 605 024e 0197      		1: sbiw r24,1
 606 0250 01F4      		brne 1b
 607               	 ;  0 "" 2
 608               	/* #NOAPP */
 609               	.LBE230:
 610               	.LBE229:
 611               	.LBE228:
 612               	.LBE227:
 613               	.LBB231:
 614               	.LBB232:
 615               	.LBB233:
 616               	.LBB234:
 617 0252 C901      		movw r24,r18
 618               	.LVL17:
 619               	/* #APP */
 620               	 ;  105 "c:/winavr-20080610/lib/gcc/../../avr/include/util/delay_basic.h" 1
 621 0254 0197      		1: sbiw r24,1
 622 0256 01F4      		brne 1b
 623               	 ;  0 "" 2
 624               	/* #NOAPP */
 625               	.LBE234:
 626               	.LBE233:
 627               	.LBE232:
 628               	.LBE231:
 629               	.LBB235:
 630               	.LBB236:
 631               	.LBB237:
 632               	.LBB238:
 633 0258 C901      		movw r24,r18
 634               	.LVL18:
 635               	/* #APP */
 636               	 ;  105 "c:/winavr-20080610/lib/gcc/../../avr/include/util/delay_basic.h" 1
 637 025a 0197      		1: sbiw r24,1
 638 025c 01F4      		brne 1b
 639               	 ;  0 "" 2
 640               	/* #NOAPP */
 641               	.LBE238:
 642               	.LBE237:
 643               	.LBE236:
 644               	.LBE235:
 645               	.LBB239:
 646               	.LBB240:
 647               	.LBB241:
 648               	.LBB242:
 649 025e C901      		movw r24,r18
 650               	.LVL19:
 651               	/* #APP */
 652               	 ;  105 "c:/winavr-20080610/lib/gcc/../../avr/include/util/delay_basic.h" 1
 653 0260 0197      		1: sbiw r24,1
 654 0262 01F4      		brne 1b
 655               	 ;  0 "" 2
 656               	/* #NOAPP */
 657 0264 00C0      		rjmp .L33
 658               	.LVL20:
 659               	.L32:
 660               	.LBE242:
 661               	.LBE241:
 662               	.LBE240:
 663               	.LBE239:
 664               	.LM95:
 665 0266 8130      		cpi r24,lo8(1)
 666 0268 01F4      		brne .L34
 667               	.LM96:
 668 026a 0E94 0000 		call subprog
 669               	.LM97:
 670 026e A89A      		sbi 53-32,0
 671               	.LM98:
 672 0270 AB9A      		sbi 53-32,3
 673               	.LM99:
 674 0272 81EF      		ldi r24,lo8(-15)
 675 0274 8FBD      		out 79-32,r24
 676               	.LM100:
 677 0276 8AE0      		ldi r24,lo8(10)
 678 0278 8EBD      		out 78-32,r24
 679 027a 20E0      		ldi r18,lo8(0)
 680               	.LVL21:
 681               	.LM101:
 682 027c AAE4      		ldi r26,lo8(74)
 683 027e B0E0      		ldi r27,hi8(74)
 684               	.LM102:
 685 0280 E8E4      		ldi r30,lo8(72)
 686 0282 F0E0      		ldi r31,hi8(72)
 687               	.LBB243:
 688               	.LBB244:
 689               	.LBB245:
 690               	.LBB246:
 691               	.LM103:
 692 0284 4AE6      		ldi r20,lo8(6250)
 693 0286 58E1      		ldi r21,hi8(6250)
 694               	.LBE246:
 695               	.LBE245:
 696               	.LBE244:
 697               	.LBE243:
 698               	.LM104:
 699 0288 36E9      		ldi r19,lo8(-106)
 700 028a 00C0      		rjmp .L77
 701               	.LVL22:
 702               	.L36:
 703               	.LM105:
 704 028c 2C93      		st X,r18
 705               	.LM106:
 706 028e 2083      		st Z,r18
 707               	.LBB250:
 708               	.LBB249:
 709               	.LBB248:
 710               	.LBB247:
 711               	.LM107:
 712 0290 CA01      		movw r24,r20
 713               	.LVL23:
 714               	/* #APP */
 715               	 ;  105 "c:/winavr-20080610/lib/gcc/../../avr/include/util/delay_basic.h" 1
 716 0292 0197      		1: sbiw r24,1
 717 0294 01F4      		brne 1b
 718               	 ;  0 "" 2
 719               	/* #NOAPP */
 720               	.LBE247:
 721               	.LBE248:
 722               	.LBE249:
 723               	.LBE250:
 724               	.LM108:
 725 0296 2F5F      		subi r18,lo8(-(1))
 726               	.LVL24:
 727               	.L77:
 728 0298 2639      		cpi r18,lo8(-106)
 729 029a 00F0      		brlo .L36
 730 029c 232F      		mov r18,r19
 731               	.L37:
 732               	.LM109:
 733 029e 2C93      		st X,r18
 734               	.LM110:
 735 02a0 2083      		st Z,r18
 736               	.LBB251:
 737               	.LBB252:
 738               	.LBB253:
 739               	.LBB254:
 740               	.LM111:
 741 02a2 CA01      		movw r24,r20
 742               	.LVL25:
 743               	/* #APP */
 744               	 ;  105 "c:/winavr-20080610/lib/gcc/../../avr/include/util/delay_basic.h" 1
 745 02a4 0197      		1: sbiw r24,1
 746 02a6 01F4      		brne 1b
 747               	 ;  0 "" 2
 748               	/* #NOAPP */
 749               	.LBE254:
 750               	.LBE253:
 751               	.LBE252:
 752               	.LBE251:
 753               	.LM112:
 754 02a8 2150      		subi r18,lo8(-(-1))
 755 02aa 01F4      		brne .L37
 756 02ac 00C0      		rjmp .L77
 757               	.LVL26:
 758               	.L34:
 759               	.LM113:
 760 02ae 8230      		cpi r24,lo8(2)
 761 02b0 01F4      		brne .L38
 762               	.LM114:
 763 02b2 0E94 0000 		call subprog
 764               	.LM115:
 765 02b6 8CE0      		ldi r24,lo8(12)
 766 02b8 90E0      		ldi r25,hi8(12)
 767 02ba 0E94 0000 		call uart_init
 768               	.LM116:
 769 02be 80E0      		ldi r24,lo8(__c.1570)
 770 02c0 90E0      		ldi r25,hi8(__c.1570)
 771 02c2 0E94 0000 		call uart_puts_p
 772               	.LM117:
 773 02c6 80E0      		ldi r24,lo8(__c.1572)
 774 02c8 90E0      		ldi r25,hi8(__c.1572)
 775 02ca 0E94 0000 		call uart_puts_p
 776               	.LM118:
 777 02ce 80E0      		ldi r24,lo8(__c.1574)
 778 02d0 90E0      		ldi r25,hi8(__c.1574)
 779 02d2 0E94 0000 		call uart_puts_p
 780               	.LM119:
 781 02d6 4AE0      		ldi r20,lo8(10)
 782 02d8 50E0      		ldi r21,hi8(10)
 783 02da 8E01      		movw r16,r28
 784 02dc 0F5F      		subi r16,lo8(-(1))
 785 02de 1F4F      		sbci r17,hi8(-(1))
 786 02e0 B801      		movw r22,r16
 787 02e2 86E8      		ldi r24,lo8(134)
 788 02e4 90E0      		ldi r25,hi8(134)
 789 02e6 0E94 0000 		call itoa
 790               	.LM120:
 791 02ea C801      		movw r24,r16
 792 02ec 0E94 0000 		call uart_puts
 793               	.LM121:
 794 02f0 8DE0      		ldi r24,lo8(13)
 795 02f2 0E94 0000 		call uart_putc
 796               	.LM122:
 797 02f6 80E0      		ldi r24,lo8(__c.1576)
 798 02f8 90E0      		ldi r25,hi8(__c.1576)
 799 02fa 0E94 0000 		call uart_puts_p
 800               	.L75:
 801               	.LM123:
 802 02fe 0E94 0000 		call uart_getc
 803               	.LM124:
 804 0302 90FD      		sbrc r25,0
 805 0304 00C0      		rjmp .L75
 806               	.LVL27:
 807               	.LM125:
 808 0306 0E94 0000 		call uart_putc
 809               	.LVL28:
 810 030a 00C0      		rjmp .L75
 811               	.L38:
 812               	.LM126:
 813 030c 8330      		cpi r24,lo8(3)
 814 030e 01F4      		brne .L40
 815               	.LM127:
 816 0310 0E94 0000 		call subprog
 817               	.LM128:
 818 0314 DC9A      		sbi 59-32,4
 819               	.LM129:
 820 0316 1FBC      		out 79-32,__zero_reg__
 821               	.LM130:
 822 0318 85E0      		ldi r24,lo8(5)
 823 031a 8EBD      		out 78-32,r24
 824               	.LM131:
 825 031c 8EE2      		ldi r24,lo8(-978)
 826 031e 9CEF      		ldi r25,hi8(-978)
 827 0320 9DBD      		out (76)+1-32,r25
 828 0322 8CBD      		out 76-32,r24
 829               	.LM132:
 830 0324 84E0      		ldi r24,lo8(4)
 831 0326 89BF      		out 89-32,r24
 832               	.LM133:
 833               	/* #APP */
 834               	 ;  355 "robokits.c" 1
 835 0328 7894      		sei
 836               	 ;  0 "" 2
 837               	.LM134:
 838               	/* #NOAPP */
 839 032a A9E3      		ldi r26,lo8(57)
 840 032c B0E0      		ldi r27,hi8(57)
 841               	.LM135:
 842 032e EBE3      		ldi r30,lo8(59)
 843 0330 F0E0      		ldi r31,hi8(59)
 844               	.LBB255:
 845               	.LBB256:
 846               	.LBB257:
 847               	.LBB258:
 848               	.LM136:
 849 0332 24E2      		ldi r18,lo8(-3036)
 850 0334 34EF      		ldi r19,hi8(-3036)
 851               	.LVL29:
 852               	.L43:
 853               	.LBE258:
 854               	.LBE257:
 855               	.LBE256:
 856               	.LBE255:
 857               	.LM137:
 858 0336 8C91      		ld r24,X
 859               	.LVL30:
 860 0338 85FD      		sbrc r24,5
 861 033a 00C0      		rjmp .L41
 862               	.LM138:
 863 033c 8081      		ld r24,Z
 864 033e 8062      		ori r24,lo8(32)
 865 0340 00C0      		rjmp .L79
 866               	.L41:
 867               	.LM139:
 868 0342 8081      		ld r24,Z
 869 0344 8F7D      		andi r24,lo8(-33)
 870               	.L79:
 871 0346 8083      		st Z,r24
 872               	.LBB262:
 873               	.LBB261:
 874               	.LBB260:
 875               	.LBB259:
 876               	.LM140:
 877 0348 C901      		movw r24,r18
 878               	.LVL31:
 879               	/* #APP */
 880               	 ;  105 "c:/winavr-20080610/lib/gcc/../../avr/include/util/delay_basic.h" 1
 881 034a 0197      		1: sbiw r24,1
 882 034c 01F4      		brne 1b
 883               	 ;  0 "" 2
 884               	/* #NOAPP */
 885               	.LBE259:
 886               	.LBE260:
 887               	.LBE261:
 888               	.LBE262:
 889               	.LBB263:
 890               	.LBB264:
 891               	.LBB265:
 892               	.LBB266:
 893 034e C901      		movw r24,r18
 894               	.LVL32:
 895               	/* #APP */
 896               	 ;  105 "c:/winavr-20080610/lib/gcc/../../avr/include/util/delay_basic.h" 1
 897 0350 0197      		1: sbiw r24,1
 898 0352 01F4      		brne 1b
 899               	 ;  0 "" 2
 900               	/* #NOAPP */
 901               	.LBE266:
 902               	.LBE265:
 903               	.LBE264:
 904               	.LBE263:
 905               	.LBB267:
 906               	.LBB268:
 907               	.LBB269:
 908               	.LBB270:
 909 0354 C901      		movw r24,r18
 910               	.LVL33:
 911               	/* #APP */
 912               	 ;  105 "c:/winavr-20080610/lib/gcc/../../avr/include/util/delay_basic.h" 1
 913 0356 0197      		1: sbiw r24,1
 914 0358 01F4      		brne 1b
 915               	 ;  0 "" 2
 916               	/* #NOAPP */
 917               	.LBE270:
 918               	.LBE269:
 919               	.LBE268:
 920               	.LBE267:
 921               	.LBB271:
 922               	.LBB272:
 923               	.LBB273:
 924               	.LBB274:
 925 035a C901      		movw r24,r18
 926               	.LVL34:
 927               	/* #APP */
 928               	 ;  105 "c:/winavr-20080610/lib/gcc/../../avr/include/util/delay_basic.h" 1
 929 035c 0197      		1: sbiw r24,1
 930 035e 01F4      		brne 1b
 931               	 ;  0 "" 2
 932               	/* #NOAPP */
 933 0360 00C0      		rjmp .L43
 934               	.LVL35:
 935               	.L40:
 936               	.LBE274:
 937               	.LBE273:
 938               	.LBE272:
 939               	.LBE271:
 940               	.LM141:
 941 0362 8430      		cpi r24,lo8(4)
 942 0364 01F4      		brne .L44
 943               	.LM142:
 944 0366 0E94 0000 		call subprog
 945               	.LM143:
 946 036a DC9A      		sbi 59-32,4
 947               	.LM144:
 948 036c ABE3      		ldi r26,lo8(59)
 949 036e B0E0      		ldi r27,hi8(59)
 950               	.LBB275:
 951               	.LBB276:
 952               	.LM145:
 953 0370 E0E3      		ldi r30,lo8(48)
 954 0372 F0E0      		ldi r31,hi8(48)
 955               	.LVL36:
 956               	.L47:
 957               	.LBE276:
 958               	.LBE275:
 959               	.LM146:
 960 0374 8C91      		ld r24,X
 961 0376 8062      		ori r24,lo8(32)
 962 0378 8C93      		st X,r24
 963               	.LVL37:
 964               	.L45:
 965               	.LBB278:
 966               	.LBB277:
 967               	.LM147:
 968 037a 9081      		ld r25,Z
 969               	.LVL38:
 970               	.LM148:
 971 037c 8081      		ld r24,Z
 972               	.LM149:
 973 037e 8923      		and r24,r25
 974 0380 81FD      		sbrc r24,1
 975 0382 00C0      		rjmp .L45
 976               	.LBE277:
 977               	.LBE278:
 978               	.LM150:
 979 0384 8C91      		ld r24,X
 980 0386 8F7D      		andi r24,lo8(-33)
 981 0388 8C93      		st X,r24
 982               	.L46:
 983               	.LBB279:
 984               	.LBB280:
 985               	.LM151:
 986 038a 9081      		ld r25,Z
 987               	.LVL39:
 988               	.LM152:
 989 038c 8081      		ld r24,Z
 990               	.LM153:
 991 038e 8923      		and r24,r25
 992 0390 81FD      		sbrc r24,1
 993 0392 00C0      		rjmp .L46
 994 0394 00C0      		rjmp .L47
 995               	.LVL40:
 996               	.L44:
 997               	.LBE280:
 998               	.LBE279:
 999               	.LM154:
 1000 0396 8530      		cpi r24,lo8(5)
 1001 0398 01F0      		breq .+2
 1002 039a 00C0      		rjmp .L76
 1003               	.LM155:
 1004 039c 0E94 0000 		call subprog
 1005               	.LM156:
 1006 03a0 949A      		sbi 50-32,4
 1007               	.LM157:
 1008 03a2 959A      		sbi 50-32,5
 1009               	.LM158:
 1010 03a4 66E3      		ldi r22,lo8(54)
 1011 03a6 70E0      		ldi r23,hi8(54)
 1012               	.LM159:
 1013 03a8 E5E3      		ldi r30,lo8(53)
 1014 03aa F0E0      		ldi r31,hi8(53)
 1015 03ac CC24      		clr r12
 1016 03ae C394      		inc r12
 1017 03b0 DD24      		clr r13
 1018 03b2 D394      		inc r13
 1019               	.LBB281:
 1020               	.LBB282:
 1021               	.LBB283:
 1022               	.LBB284:
 1023               	.LM160:
 1024 03b4 22EE      		ldi r18,lo8(1250)
 1025 03b6 34E0      		ldi r19,hi8(1250)
 1026               	.LBE284:
 1027               	.LBE283:
 1028               	.LBE282:
 1029               	.LBE281:
 1030               	.LM161:
 1031 03b8 02E0      		ldi r16,lo8(2)
 1032               	.LM162:
 1033 03ba 14E0      		ldi r17,lo8(4)
 1034               	.LM163:
 1035 03bc 48E0      		ldi r20,lo8(8)
 1036 03be E42E      		mov r14,r20
 1037               	.LM164:
 1038 03c0 45E3      		ldi r20,lo8(53)
 1039 03c2 50E0      		ldi r21,hi8(53)
 1040               	.LM165:
 1041 03c4 98E0      		ldi r25,lo8(8)
 1042 03c6 F92E      		mov r15,r25
 1043               	.LM166:
 1044 03c8 80E3      		ldi r24,lo8(48)
 1045 03ca A82E      		mov r10,r24
 1046 03cc B12C      		mov r11,__zero_reg__
 1047               	.L78:
 1048               	.LM167:
 1049 03ce DB01      		movw r26,r22
 1050 03d0 8C91      		ld r24,X
 1051 03d2 82FD      		sbrc r24,2
 1052 03d4 00C0      		rjmp .L49
 1053               	.L63:
 1054               	.LM168:
 1055 03d6 D082      		st Z,r13
 1056               	.LBB288:
 1057               	.LBB287:
 1058               	.LBB286:
 1059               	.LBB285:
 1060               	.LM169:
 1061 03d8 C901      		movw r24,r18
 1062               	.LVL41:
 1063               	/* #APP */
 1064               	 ;  105 "c:/winavr-20080610/lib/gcc/../../avr/include/util/delay_basic.h" 1
 1065 03da 0197      		1: sbiw r24,1
 1066 03dc 01F4      		brne 1b
 1067               	 ;  0 "" 2
 1068               	/* #NOAPP */
 1069               	.LBE285:
 1070               	.LBE286:
 1071               	.LBE287:
 1072               	.LBE288:
 1073               	.LM170:
 1074 03de 0083      		st Z,r16
 1075               	.LBB289:
 1076               	.LBB290:
 1077               	.LBB291:
 1078               	.LBB292:
 1079               	.LM171:
 1080 03e0 C901      		movw r24,r18
 1081               	.LVL42:
 1082               	/* #APP */
 1083               	 ;  105 "c:/winavr-20080610/lib/gcc/../../avr/include/util/delay_basic.h" 1
 1084 03e2 0197      		1: sbiw r24,1
 1085 03e4 01F4      		brne 1b
 1086               	 ;  0 "" 2
 1087               	/* #NOAPP */
 1088               	.LBE292:
 1089               	.LBE291:
 1090               	.LBE290:
 1091               	.LBE289:
 1092               	.LM172:
 1093 03e6 1083      		st Z,r17
 1094               	.LBB293:
 1095               	.LBB294:
 1096               	.LBB295:
 1097               	.LBB296:
 1098               	.LM173:
 1099 03e8 C901      		movw r24,r18
 1100               	.LVL43:
 1101               	/* #APP */
 1102               	 ;  105 "c:/winavr-20080610/lib/gcc/../../avr/include/util/delay_basic.h" 1
 1103 03ea 0197      		1: sbiw r24,1
 1104 03ec 01F4      		brne 1b
 1105               	 ;  0 "" 2
 1106               	/* #NOAPP */
 1107               	.LBE296:
 1108               	.LBE295:
 1109               	.LBE294:
 1110               	.LBE293:
 1111               	.LM174:
 1112 03ee E082      		st Z,r14
 1113               	.LBB297:
 1114               	.LBB298:
 1115               	.LBB299:
 1116               	.LBB300:
 1117               	.LM175:
 1118 03f0 C901      		movw r24,r18
 1119               	.LVL44:
 1120               	/* #APP */
 1121               	 ;  105 "c:/winavr-20080610/lib/gcc/../../avr/include/util/delay_basic.h" 1
 1122 03f2 0197      		1: sbiw r24,1
 1123 03f4 01F4      		brne 1b
 1124               	 ;  0 "" 2
 1125               	/* #NOAPP */
 1126               	.LBE300:
 1127               	.LBE299:
 1128               	.LBE298:
 1129               	.LBE297:
 1130               	.LM176:
 1131 03f6 DB01      		movw r26,r22
 1132 03f8 8C91      		ld r24,X
 1133               	.LVL45:
 1134 03fa 82FF      		sbrs r24,2
 1135 03fc 00C0      		rjmp .L63
 1136 03fe 00C0      		rjmp .L80
 1137               	.L49:
 1138               	.LM177:
 1139 0400 D501      		movw r26,r10
 1140 0402 8C91      		ld r24,X
 1141 0404 81FD      		sbrc r24,1
 1142 0406 00C0      		rjmp .L52
 1143               	.L64:
 1144               	.LM178:
 1145 0408 F082      		st Z,r15
 1146               	.LBB301:
 1147               	.LBB302:
 1148               	.LBB303:
 1149               	.LBB304:
 1150               	.LM179:
 1151 040a C901      		movw r24,r18
 1152               	.LVL46:
 1153               	/* #APP */
 1154               	 ;  105 "c:/winavr-20080610/lib/gcc/../../avr/include/util/delay_basic.h" 1
 1155 040c 0197      		1: sbiw r24,1
 1156 040e 01F4      		brne 1b
 1157               	 ;  0 "" 2
 1158               	/* #NOAPP */
 1159               	.LBE304:
 1160               	.LBE303:
 1161               	.LBE302:
 1162               	.LBE301:
 1163               	.LM180:
 1164 0410 1083      		st Z,r17
 1165               	.LBB305:
 1166               	.LBB306:
 1167               	.LBB307:
 1168               	.LBB308:
 1169               	.LM181:
 1170 0412 C901      		movw r24,r18
 1171               	.LVL47:
 1172               	/* #APP */
 1173               	 ;  105 "c:/winavr-20080610/lib/gcc/../../avr/include/util/delay_basic.h" 1
 1174 0414 0197      		1: sbiw r24,1
 1175 0416 01F4      		brne 1b
 1176               	 ;  0 "" 2
 1177               	/* #NOAPP */
 1178               	.LBE308:
 1179               	.LBE307:
 1180               	.LBE306:
 1181               	.LBE305:
 1182               	.LM182:
 1183 0418 0083      		st Z,r16
 1184               	.LBB309:
 1185               	.LBB310:
 1186               	.LBB311:
 1187               	.LBB312:
 1188               	.LM183:
 1189 041a C901      		movw r24,r18
 1190               	.LVL48:
 1191               	/* #APP */
 1192               	 ;  105 "c:/winavr-20080610/lib/gcc/../../avr/include/util/delay_basic.h" 1
 1193 041c 0197      		1: sbiw r24,1
 1194 041e 01F4      		brne 1b
 1195               	 ;  0 "" 2
 1196               	/* #NOAPP */
 1197               	.LBE312:
 1198               	.LBE311:
 1199               	.LBE310:
 1200               	.LBE309:
 1201               	.LM184:
 1202 0420 C082      		st Z,r12
 1203               	.LBB313:
 1204               	.LBB314:
 1205               	.LBB315:
 1206               	.LBB316:
 1207               	.LM185:
 1208 0422 C901      		movw r24,r18
 1209               	.LVL49:
 1210               	/* #APP */
 1211               	 ;  105 "c:/winavr-20080610/lib/gcc/../../avr/include/util/delay_basic.h" 1
 1212 0424 0197      		1: sbiw r24,1
 1213 0426 01F4      		brne 1b
 1214               	 ;  0 "" 2
 1215               	/* #NOAPP */
 1216               	.LBE316:
 1217               	.LBE315:
 1218               	.LBE314:
 1219               	.LBE313:
 1220               	.LM186:
 1221 0428 D501      		movw r26,r10
 1222 042a 8C91      		ld r24,X
 1223               	.LVL50:
 1224 042c 81FF      		sbrs r24,1
 1225 042e 00C0      		rjmp .L64
 1226               	.L80:
 1227               	.LM187:
 1228 0430 DA01      		movw r26,r20
 1229 0432 1C92      		st X,__zero_reg__
 1230 0434 00C0      		rjmp .L78
 1231               	.L52:
 1232               	.LM188:
 1233 0436 1082      		st Z,__zero_reg__
 1234 0438 00C0      		rjmp .L78
 1235               	.L31:
 1236               	.LM189:
 1237 043a F601      		movw r30,r12
 1238 043c 8081      		ld r24,Z
 1239 043e 81FD      		sbrc r24,1
 1240 0440 00C0      		rjmp .L54
 1241               	.LM190:
 1242 0442 8091 0000 		lds r24,current
 1243 0446 8823      		tst r24
 1244 0448 01F4      		brne .L55
 1245               	.LM191:
 1246 044a F5E0      		ldi r31,lo8(5)
 1247 044c F093 0000 		sts current,r31
 1248 0450 00C0      		rjmp .L59
 1249               	.L55:
 1250               	.LM192:
 1251 0452 8150      		subi r24,lo8(-(-1))
 1252 0454 00C0      		rjmp .L81
 1253               	.L54:
 1254               	.LM193:
 1255 0456 D601      		movw r26,r12
 1256 0458 8C91      		ld r24,X
 1257 045a 82FD      		sbrc r24,2
 1258 045c 00C0      		rjmp .L57
 1259               	.LM194:
 1260 045e 8091 0000 		lds r24,current
 1261 0462 8530      		cpi r24,lo8(5)
 1262 0464 01F4      		brne .L58
 1263               	.LM195:
 1264 0466 1092 0000 		sts current,__zero_reg__
 1265 046a 00C0      		rjmp .L59
 1266               	.L58:
 1267               	.LM196:
 1268 046c 8F5F      		subi r24,lo8(-(1))
 1269               	.L81:
 1270 046e 8093 0000 		sts current,r24
 1271               	.L59:
 1272               	.LM197:
 1273 0472 0E94 0000 		call menu
 1274               	.LBB317:
 1275               	.LBB206:
 1276               	.LBB205:
 1277               	.LBB204:
 1278               	.LM198:
 1279 0476 C701      		movw r24,r14
 1280               	.LVL51:
 1281               	/* #APP */
 1282               	 ;  105 "c:/winavr-20080610/lib/gcc/../../avr/include/util/delay_basic.h" 1
 1283 0478 0197      		1: sbiw r24,1
 1284 047a 01F4      		brne 1b
 1285               	 ;  0 "" 2
 1286               	/* #NOAPP */
 1287               	.LBE204:
 1288               	.LBE205:
 1289               	.LBE206:
 1290               	.LBE317:
 1291               	.LBB318:
 1292               	.LBB319:
 1293               	.LBB320:
 1294               	.LBB321:
 1295 047c C701      		movw r24,r14
 1296               	.LVL52:
 1297               	/* #APP */
 1298               	 ;  105 "c:/winavr-20080610/lib/gcc/../../avr/include/util/delay_basic.h" 1
 1299 047e 0197      		1: sbiw r24,1
 1300 0480 01F4      		brne 1b
 1301               	 ;  0 "" 2
 1302               	/* #NOAPP */
 1303 0482 00C0      		rjmp .L76
 1304               	.LVL53:
 1305               	.L57:
 1306               	.LBE321:
 1307               	.LBE320:
 1308               	.LBE319:
 1309               	.LBE318:
 1310               	.LM199:
 1311 0484 EBE3      		ldi r30,lo8(59)
 1312 0486 F0E0      		ldi r31,hi8(59)
 1313 0488 1082      		st Z,__zero_reg__
 1314               	.LM200:
 1315 048a D801      		movw r26,r16
 1316 048c 8C91      		ld r24,X
 1317 048e 8E7F      		andi r24,lo8(-2)
 1318 0490 8C93      		st X,r24
 1319               	.LM201:
 1320 0492 8C91      		ld r24,X
 1321 0494 877F      		andi r24,lo8(-9)
 1322 0496 8C93      		st X,r24
 1323               	.LM202:
 1324 0498 F101      		movw r30,r2
 1325 049a 1082      		st Z,__zero_reg__
 1326               	.LM203:
 1327 049c D201      		movw r26,r4
 1328 049e 1C92      		st X,__zero_reg__
 1329               	.LM204:
 1330 04a0 F301      		movw r30,r6
 1331 04a2 1182      		std Z+1,__zero_reg__
 1332 04a4 1082      		st Z,__zero_reg__
 1333               	.LM205:
 1334 04a6 D401      		movw r26,r8
 1335 04a8 1C92      		st X,__zero_reg__
 1336               	.LM206:
 1337 04aa F501      		movw r30,r10
 1338 04ac 1082      		st Z,__zero_reg__
 1339               	.LM207:
 1340 04ae D801      		movw r26,r16
 1341 04b0 1C92      		st X,__zero_reg__
 1342 04b2 00C0      		rjmp .L76
 1343               	.LFE12:
 1345               	.global	__vector_2
 1347               	__vector_2:
 1348               	.LFB10:
 1349               	.LM208:
 1350 04b4 1F92      		push __zero_reg__
 1351 04b6 0F92      		push r0
 1352 04b8 0FB6      		in r0,__SREG__
 1353 04ba 0F92      		push r0
 1354 04bc 1124      		clr __zero_reg__
 1355 04be 2F93      		push r18
 1356 04c0 3F93      		push r19
 1357 04c2 4F93      		push r20
 1358 04c4 5F93      		push r21
 1359 04c6 6F93      		push r22
 1360 04c8 7F93      		push r23
 1361 04ca 8F93      		push r24
 1362 04cc 9F93      		push r25
 1363 04ce AF93      		push r26
 1364 04d0 BF93      		push r27
 1365 04d2 EF93      		push r30
 1366 04d4 FF93      		push r31
 1367               	/* prologue: Signal */
 1368               	/* frame size = 0 */
 1369               	.LM209:
 1370 04d6 0E94 0000 		call menu
 1371               	.LM210:
 1372 04da 61E0      		ldi r22,lo8(1)
 1373 04dc 70E0      		ldi r23,hi8(1)
 1374 04de 80E0      		ldi r24,lo8(env)
 1375 04e0 90E0      		ldi r25,hi8(env)
 1376 04e2 0E94 0000 		call longjmp
 1377               	.LFE10:
 1379               		.section	.progmem.data,"a",@progbits
 1382               	__c.1576:
 1383 0000 0A0A 5072 		.string	"\n\nPress any key on keyboard: "
 1383      6573 7320 
 1383      616E 7920 
 1383      6B65 7920 
 1383      6F6E 206B 
 1386               	__c.1574:
 1387 001e 0D0A 0A57 		.string	"\r\n\nWriting number to UART: "
 1387      7269 7469 
 1387      6E67 206E 
 1387      756D 6265 
 1387      7220 746F 
 1390               	__c.1572:
 1391 003a 0D0A 0A56 		.string	"\r\n\nVisit Us at www.robokits.org. "
 1391      6973 6974 
 1391      2055 7320 
 1391      6174 2077 
 1391      7777 2E72 
 1394               	__c.1570:
 1395 005c 0D0A 0A53 		.string	"\r\n\nSample code made by Robokits India for ROBOGRID. "
 1395      616D 706C 
 1395      6520 636F 
 1395      6465 206D 
 1395      6164 6520 
 1396               		.comm current,1,1
 1397               		.comm env,23,1
 1462               	.Letext0:
DEFINED SYMBOLS
                            *ABS*:00000000 robokits.c
C:\DOCUME~1\ADMINI~1\LOCALS~1\Temp/ccJhOE6a.s:2      *ABS*:0000003f __SREG__
C:\DOCUME~1\ADMINI~1\LOCALS~1\Temp/ccJhOE6a.s:3      *ABS*:0000003e __SP_H__
C:\DOCUME~1\ADMINI~1\LOCALS~1\Temp/ccJhOE6a.s:4      *ABS*:0000003d __SP_L__
C:\DOCUME~1\ADMINI~1\LOCALS~1\Temp/ccJhOE6a.s:5      *ABS*:00000034 __CCP__
C:\DOCUME~1\ADMINI~1\LOCALS~1\Temp/ccJhOE6a.s:6      *ABS*:00000000 __tmp_reg__
C:\DOCUME~1\ADMINI~1\LOCALS~1\Temp/ccJhOE6a.s:7      *ABS*:00000001 __zero_reg__
C:\DOCUME~1\ADMINI~1\LOCALS~1\Temp/ccJhOE6a.s:20     .text:00000000 wait_debounce
C:\DOCUME~1\ADMINI~1\LOCALS~1\Temp/ccJhOE6a.s:42     .text:0000000c __vector_9
C:\DOCUME~1\ADMINI~1\LOCALS~1\Temp/ccJhOE6a.s:98     .text:0000003a subprog
                            *COM*:00000001 current
C:\DOCUME~1\ADMINI~1\LOCALS~1\Temp/ccJhOE6a.s:175    .text:00000096 menu
C:\DOCUME~1\ADMINI~1\LOCALS~1\Temp/ccJhOE6a.s:262    .text:000000f2 main
                            *COM*:00000017 env
C:\DOCUME~1\ADMINI~1\LOCALS~1\Temp/ccJhOE6a.s:1394   .progmem.data:0000005c __c.1570
C:\DOCUME~1\ADMINI~1\LOCALS~1\Temp/ccJhOE6a.s:1390   .progmem.data:0000003a __c.1572
C:\DOCUME~1\ADMINI~1\LOCALS~1\Temp/ccJhOE6a.s:1386   .progmem.data:0000001e __c.1574
C:\DOCUME~1\ADMINI~1\LOCALS~1\Temp/ccJhOE6a.s:1382   .progmem.data:00000000 __c.1576
C:\DOCUME~1\ADMINI~1\LOCALS~1\Temp/ccJhOE6a.s:1347   .text:000004b4 __vector_2

UNDEFINED SYMBOLS
__do_copy_data
__do_clear_bss
lcd_clrscr
lcd_puts
lcd_init
lcd_gotoxy
setjmp
uart_init
uart_puts_p
itoa
uart_puts
uart_putc
uart_getc
longjmp
