   1               		.file	"uart.c"
   2               		.arch atmega16
   3               	__SREG__ = 0x3f
   4               	__SP_H__ = 0x3e
   5               	__SP_L__ = 0x3d
   6               	__tmp_reg__ = 0
   7               	__zero_reg__ = 1
   8               		.global __do_copy_data
   9               		.global __do_clear_bss
  17               	.Ltext0:
  18               	.global	__vector_11
  20               	__vector_11:
  21               	.LFB2:
  22               	.LM1:
  23               	/* prologue: frame size=0 */
  24 0000 1F92      		push __zero_reg__
  25 0002 0F92      		push __tmp_reg__
  26 0004 0FB6      		in __tmp_reg__,__SREG__
  27 0006 0F92      		push __tmp_reg__
  28 0008 1124      		clr __zero_reg__
  29 000a 2F93      		push r18
  30 000c 8F93      		push r24
  31 000e 9F93      		push r25
  32 0010 EF93      		push r30
  33 0012 FF93      		push r31
  34               	/* prologue end (size=10) */
  35               	.LM2:
  36 0014 9BB1      		in r25,43-0x20
  37               	.LVL0:
  38               	.LM3:
  39 0016 2CB1      		in r18,44-0x20
  40               	.LVL1:
  41               	.LM4:
  42 0018 E091 0000 		lds r30,UART_RxHead
  43               	.LVL2:
  44 001c EF5F      		subi r30,lo8(-(1))
  45 001e EF71      		andi r30,lo8(31)
  46               	.LM5:
  47 0020 8091 0000 		lds r24,UART_RxTail
  48 0024 E817      		cp r30,r24
  49 0026 01F4      		brne .L2
  50               	.LM6:
  51 0028 82E0      		ldi r24,lo8(2)
  52               	.LVL3:
  53 002a 00C0      		rjmp .L4
  54               	.LVL4:
  55               	.L2:
  56               	.LM7:
  57 002c 892F      		mov r24,r25
  58               	.LVL5:
  59 002e 8871      		andi r24,lo8(24)
  60               	.LM8:
  61 0030 E093 0000 		sts UART_RxHead,r30
  62               	.LM9:
  63 0034 FF27      		clr r31
  64               	.LVL6:
  65 0036 E050      		subi r30,lo8(-(UART_RxBuf))
  66 0038 F040      		sbci r31,hi8(-(UART_RxBuf))
  67 003a 2083      		st Z,r18
  68               	.LVL7:
  69               	.L4:
  70               	.LM10:
  71 003c 8093 0000 		sts UART_LastRxError,r24
  72               	/* epilogue: frame size=0 */
  73 0040 FF91      		pop r31
  74 0042 EF91      		pop r30
  75 0044 9F91      		pop r25
  76 0046 8F91      		pop r24
  77 0048 2F91      		pop r18
  78 004a 0F90      		pop __tmp_reg__
  79 004c 0FBE      		out __SREG__,__tmp_reg__
  80 004e 0F90      		pop __tmp_reg__
  81 0050 1F90      		pop __zero_reg__
  82 0052 1895      		reti
  83               	/* epilogue end (size=10) */
  84               	/* function __vector_11 size 42 (22) */
  85               	.LFE2:
  87               	.global	__vector_12
  89               	__vector_12:
  90               	.LFB3:
  91               	.LM11:
  92               	/* prologue: frame size=0 */
  93 0054 1F92      		push __zero_reg__
  94 0056 0F92      		push __tmp_reg__
  95 0058 0FB6      		in __tmp_reg__,__SREG__
  96 005a 0F92      		push __tmp_reg__
  97 005c 1124      		clr __zero_reg__
  98 005e 8F93      		push r24
  99 0060 9F93      		push r25
 100 0062 EF93      		push r30
 101 0064 FF93      		push r31
 102               	/* prologue end (size=9) */
 103               	.LM12:
 104 0066 9091 0000 		lds r25,UART_TxHead
 105 006a 8091 0000 		lds r24,UART_TxTail
 106 006e 9817      		cp r25,r24
 107 0070 01F0      		breq .L7
 108               	.LM13:
 109 0072 E091 0000 		lds r30,UART_TxTail
 110               	.LVL8:
 111 0076 EF5F      		subi r30,lo8(-(1))
 112 0078 EF71      		andi r30,lo8(31)
 113               	.LM14:
 114 007a E093 0000 		sts UART_TxTail,r30
 115               	.LM15:
 116 007e FF27      		clr r31
 117               	.LVL9:
 118 0080 E050      		subi r30,lo8(-(UART_TxBuf))
 119 0082 F040      		sbci r31,hi8(-(UART_TxBuf))
 120 0084 8081      		ld r24,Z
 121 0086 8CB9      		out 44-0x20,r24
 122 0088 00C0      		rjmp .L10
 123               	.L7:
 124               	.LM16:
 125 008a 5598      		cbi 42-0x20,5
 126               	.L10:
 127               	/* epilogue: frame size=0 */
 128 008c FF91      		pop r31
 129 008e EF91      		pop r30
 130 0090 9F91      		pop r25
 131 0092 8F91      		pop r24
 132 0094 0F90      		pop __tmp_reg__
 133 0096 0FBE      		out __SREG__,__tmp_reg__
 134 0098 0F90      		pop __tmp_reg__
 135 009a 1F90      		pop __zero_reg__
 136 009c 1895      		reti
 137               	/* epilogue end (size=9) */
 138               	/* function __vector_12 size 37 (19) */
 139               	.LFE3:
 141               	.global	uart_init
 143               	uart_init:
 144               	.LFB4:
 145               	.LM17:
 146               	/* prologue: frame size=0 */
 147               	/* prologue end (size=0) */
 148               	.LVL10:
 149 009e 9C01      		movw r18,r24
 150               	.LM18:
 151 00a0 1092 0000 		sts UART_TxHead,__zero_reg__
 152               	.LM19:
 153 00a4 1092 0000 		sts UART_TxTail,__zero_reg__
 154               	.LM20:
 155 00a8 1092 0000 		sts UART_RxHead,__zero_reg__
 156               	.LM21:
 157 00ac 1092 0000 		sts UART_RxTail,__zero_reg__
 158               	.LM22:
 159 00b0 97FF      		sbrs r25,7
 160 00b2 00C0      		rjmp .L12
 161               	.LM23:
 162 00b4 82E0      		ldi r24,lo8(2)
 163               	.LVL11:
 164 00b6 8BB9      		out 43-0x20,r24
 165               	.LM24:
 166 00b8 3F77      		andi r19,hi8(32767)
 167               	.LVL12:
 168               	.L12:
 169               	.LM25:
 170 00ba 832F      		mov r24,r19
 171 00bc 9927      		clr r25
 172 00be 80BD      		out 64-0x20,r24
 173               	.LM26:
 174 00c0 29B9      		out 41-0x20,r18
 175               	.LM27:
 176 00c2 88E9      		ldi r24,lo8(-104)
 177 00c4 8AB9      		out 42-0x20,r24
 178               	.LM28:
 179 00c6 86E8      		ldi r24,lo8(-122)
 180 00c8 80BD      		out 64-0x20,r24
 181               	/* epilogue: frame size=0 */
 182 00ca 0895      		ret
 183               	/* epilogue end (size=1) */
 184               	/* function uart_init size 24 (23) */
 185               	.LFE4:
 187               	.global	uart_getc
 189               	uart_getc:
 190               	.LFB5:
 191               	.LM29:
 192               	/* prologue: frame size=0 */
 193               	/* prologue end (size=0) */
 194               	.LM30:
 195 00cc 9091 0000 		lds r25,UART_RxHead
 196 00d0 8091 0000 		lds r24,UART_RxTail
 197 00d4 9817      		cp r25,r24
 198 00d6 01F4      		brne .L16
 199               	.LM31:
 200 00d8 80E0      		ldi r24,lo8(256)
 201 00da 91E0      		ldi r25,hi8(256)
 202 00dc 0895      		ret
 203               	.L16:
 204               	.LM32:
 205 00de E091 0000 		lds r30,UART_RxTail
 206               	.LVL13:
 207 00e2 EF5F      		subi r30,lo8(-(1))
 208 00e4 EF71      		andi r30,lo8(31)
 209               	.LM33:
 210 00e6 E093 0000 		sts UART_RxTail,r30
 211               	.LM34:
 212 00ea FF27      		clr r31
 213               	.LVL14:
 214 00ec E050      		subi r30,lo8(-(UART_RxBuf))
 215 00ee F040      		sbci r31,hi8(-(UART_RxBuf))
 216 00f0 2081      		ld r18,Z
 217               	.LVL15:
 218               	.LM35:
 219 00f2 8091 0000 		lds r24,UART_LastRxError
 220 00f6 9927      		clr r25
 221 00f8 982F      		mov r25,r24
 222 00fa 8827      		clr r24
 223 00fc 820F      		add r24,r18
 224 00fe 911D      		adc r25,__zero_reg__
 225               	.LM36:
 226 0100 0895      		ret
 227               	/* epilogue: frame size=0 */
 228               	/* epilogue: noreturn */
 229               	/* epilogue end (size=0) */
 230               	/* function uart_getc size 27 (27) */
 231               	.LFE5:
 233               	.global	uart_putc
 235               	uart_putc:
 236               	.LFB6:
 237               	.LM37:
 238               	/* prologue: frame size=0 */
 239               	/* prologue end (size=0) */
 240               	.LVL16:
 241 0102 282F      		mov r18,r24
 242               	.LM38:
 243 0104 9091 0000 		lds r25,UART_TxHead
 244               	.LVL17:
 245 0108 9F5F      		subi r25,lo8(-(1))
 246 010a 9F71      		andi r25,lo8(31)
 247               	.LVL18:
 248               	.L21:
 249               	.LM39:
 250 010c 8091 0000 		lds r24,UART_TxTail
 251 0110 9817      		cp r25,r24
 252 0112 01F0      		breq .L21
 253               	.LM40:
 254 0114 E92F      		mov r30,r25
 255 0116 FF27      		clr r31
 256 0118 E050      		subi r30,lo8(-(UART_TxBuf))
 257 011a F040      		sbci r31,hi8(-(UART_TxBuf))
 258 011c 2083      		st Z,r18
 259               	.LM41:
 260 011e 9093 0000 		sts UART_TxHead,r25
 261               	.LM42:
 262 0122 559A      		sbi 42-0x20,5
 263               	/* epilogue: frame size=0 */
 264 0124 0895      		ret
 265               	/* epilogue end (size=1) */
 266               	/* function uart_putc size 18 (17) */
 267               	.LFE6:
 269               	.global	uart_puts
 271               	uart_puts:
 272               	.LFB7:
 273               	.LM43:
 274               	/* prologue: frame size=0 */
 275 0126 CF93      		push r28
 276 0128 DF93      		push r29
 277               	/* prologue end (size=2) */
 278               	.LVL19:
 279 012a EC01      		movw r28,r24
 280 012c 00C0      		rjmp .L27
 281               	.LVL20:
 282               	.L28:
 283               	.LM44:
 284 012e 2196      		adiw r28,1
 285 0130 0E94 0000 		call uart_putc
 286               	.LVL21:
 287               	.L27:
 288               	.LM45:
 289 0134 8881      		ld r24,Y
 290 0136 8823      		tst r24
 291 0138 01F4      		brne .L28
 292               	/* epilogue: frame size=0 */
 293 013a DF91      		pop r29
 294 013c CF91      		pop r28
 295 013e 0895      		ret
 296               	/* epilogue end (size=3) */
 297               	/* function uart_puts size 13 (8) */
 298               	.LFE7:
 300               	.global	uart_puts_p
 302               	uart_puts_p:
 303               	.LFB8:
 304               	.LM46:
 305               	/* prologue: frame size=0 */
 306 0140 CF93      		push r28
 307 0142 DF93      		push r29
 308               	/* prologue end (size=2) */
 309               	.LVL22:
 310 0144 EC01      		movw r28,r24
 311 0146 00C0      		rjmp .L32
 312               	.LVL23:
 313               	.L33:
 314               	.LM47:
 315 0148 0E94 0000 		call uart_putc
 316               	.LVL24:
 317               	.L32:
 318 014c FE01      		movw r30,r28
 319               	.LVL25:
 320               	.LBB2:
 321               	.LM48:
 322 014e 2196      		adiw r28,1
 323               	/* #APP */
 324 0150 8491      		lpm r24, Z
 325               		
 326               	.LVL26:
 327               	/* #NOAPP */
 328               	.LBE2:
 329 0152 8823      		tst r24
 330 0154 01F4      		brne .L33
 331               	/* epilogue: frame size=0 */
 332 0156 DF91      		pop r29
 333 0158 CF91      		pop r28
 334 015a 0895      		ret
 335               	/* epilogue end (size=3) */
 336               	/* function uart_puts_p size 17 (12) */
 337               	.LFE8:
 339               		.lcomm UART_TxBuf,32
 340               		.lcomm UART_RxBuf,32
 341               		.lcomm UART_TxHead,1
 342               		.lcomm UART_TxTail,1
 343               		.lcomm UART_RxHead,1
 344               		.lcomm UART_RxTail,1
 345               		.lcomm UART_LastRxError,1
 418               	.Letext0:
DEFINED SYMBOLS
                            *ABS*:00000000 uart.c
C:\DOCUME~1\Sandeep\LOCALS~1\Temp/ccehp1mm.s:3      *ABS*:0000003f __SREG__
C:\DOCUME~1\Sandeep\LOCALS~1\Temp/ccehp1mm.s:4      *ABS*:0000003e __SP_H__
C:\DOCUME~1\Sandeep\LOCALS~1\Temp/ccehp1mm.s:5      *ABS*:0000003d __SP_L__
C:\DOCUME~1\Sandeep\LOCALS~1\Temp/ccehp1mm.s:6      *ABS*:00000000 __tmp_reg__
C:\DOCUME~1\Sandeep\LOCALS~1\Temp/ccehp1mm.s:7      *ABS*:00000001 __zero_reg__
C:\DOCUME~1\Sandeep\LOCALS~1\Temp/ccehp1mm.s:20     .text:00000000 __vector_11
C:\DOCUME~1\Sandeep\LOCALS~1\Temp/ccehp1mm.s:342    .bss:00000042 UART_RxHead
C:\DOCUME~1\Sandeep\LOCALS~1\Temp/ccehp1mm.s:343    .bss:00000043 UART_RxTail
C:\DOCUME~1\Sandeep\LOCALS~1\Temp/ccehp1mm.s:339    .bss:00000020 UART_RxBuf
C:\DOCUME~1\Sandeep\LOCALS~1\Temp/ccehp1mm.s:344    .bss:00000044 UART_LastRxError
C:\DOCUME~1\Sandeep\LOCALS~1\Temp/ccehp1mm.s:89     .text:00000054 __vector_12
C:\DOCUME~1\Sandeep\LOCALS~1\Temp/ccehp1mm.s:340    .bss:00000040 UART_TxHead
C:\DOCUME~1\Sandeep\LOCALS~1\Temp/ccehp1mm.s:341    .bss:00000041 UART_TxTail
                             .bss:00000000 UART_TxBuf
C:\DOCUME~1\Sandeep\LOCALS~1\Temp/ccehp1mm.s:143    .text:0000009e uart_init
C:\DOCUME~1\Sandeep\LOCALS~1\Temp/ccehp1mm.s:189    .text:000000cc uart_getc
C:\DOCUME~1\Sandeep\LOCALS~1\Temp/ccehp1mm.s:235    .text:00000102 uart_putc
C:\DOCUME~1\Sandeep\LOCALS~1\Temp/ccehp1mm.s:271    .text:00000126 uart_puts
C:\DOCUME~1\Sandeep\LOCALS~1\Temp/ccehp1mm.s:302    .text:00000140 uart_puts_p

UNDEFINED SYMBOLS
__do_copy_data
__do_clear_bss
