Archive member included because of file (symbol)

d:/programy inzynierskie/winavr20100110/bin/../lib/gcc/avr/4.3.3/avrxmega7\libgcc.a(_mulsi3.o)
                              ./PID.o (__mulsi3)
d:/programy inzynierskie/winavr20100110/bin/../lib/gcc/avr/4.3.3/avrxmega7\libgcc.a(_udivmodsi4.o)
                              ./hd44780.o (__udivmodsi4)
d:/programy inzynierskie/winavr20100110/bin/../lib/gcc/avr/4.3.3/avrxmega7\libgcc.a(_exit.o)
                              d:/programy inzynierskie/winavr20100110/bin/../lib/gcc/avr/4.3.3/../../../../avr/lib/avrxmega7/crtx128a1.o (exit)
d:/programy inzynierskie/winavr20100110/bin/../lib/gcc/avr/4.3.3/avrxmega7\libgcc.a(_clear_bss.o)
                              ./Adc.o (__do_clear_bss)
d:/programy inzynierskie/winavr20100110/bin/../lib/gcc/avr/4.3.3/avrxmega7\libgcc.a(_fixunssfsi.o)
                              ./Menu.o (__fixunssfsi)
d:/programy inzynierskie/winavr20100110/bin/../lib/gcc/avr/4.3.3/avrxmega7\libgcc.a(_addsub_sf.o)
                              d:/programy inzynierskie/winavr20100110/bin/../lib/gcc/avr/4.3.3/avrxmega7\libgcc.a(_fixunssfsi.o) (__subsf3)
d:/programy inzynierskie/winavr20100110/bin/../lib/gcc/avr/4.3.3/avrxmega7\libgcc.a(_mul_sf.o)
                              ./Menu.o (__mulsf3)
d:/programy inzynierskie/winavr20100110/bin/../lib/gcc/avr/4.3.3/avrxmega7\libgcc.a(_div_sf.o)
                              ./hd44780.o (__divsf3)
d:/programy inzynierskie/winavr20100110/bin/../lib/gcc/avr/4.3.3/avrxmega7\libgcc.a(_gt_sf.o)
                              ./Menu.o (__gtsf2)
d:/programy inzynierskie/winavr20100110/bin/../lib/gcc/avr/4.3.3/avrxmega7\libgcc.a(_ge_sf.o)
                              d:/programy inzynierskie/winavr20100110/bin/../lib/gcc/avr/4.3.3/avrxmega7\libgcc.a(_fixunssfsi.o) (__gesf2)
d:/programy inzynierskie/winavr20100110/bin/../lib/gcc/avr/4.3.3/avrxmega7\libgcc.a(_lt_sf.o)
                              ./Menu.o (__ltsf2)
d:/programy inzynierskie/winavr20100110/bin/../lib/gcc/avr/4.3.3/avrxmega7\libgcc.a(_sf_to_si.o)
                              d:/programy inzynierskie/winavr20100110/bin/../lib/gcc/avr/4.3.3/avrxmega7\libgcc.a(_fixunssfsi.o) (__fixsfsi)
d:/programy inzynierskie/winavr20100110/bin/../lib/gcc/avr/4.3.3/avrxmega7\libgcc.a(_thenan_sf.o)
                              d:/programy inzynierskie/winavr20100110/bin/../lib/gcc/avr/4.3.3/avrxmega7\libgcc.a(_addsub_sf.o) (__thenan_sf)
d:/programy inzynierskie/winavr20100110/bin/../lib/gcc/avr/4.3.3/avrxmega7\libgcc.a(_prologue.o)
                              d:/programy inzynierskie/winavr20100110/bin/../lib/gcc/avr/4.3.3/avrxmega7\libgcc.a(_addsub_sf.o) (__prologue_saves__)
d:/programy inzynierskie/winavr20100110/bin/../lib/gcc/avr/4.3.3/avrxmega7\libgcc.a(_epilogue.o)
                              d:/programy inzynierskie/winavr20100110/bin/../lib/gcc/avr/4.3.3/avrxmega7\libgcc.a(_addsub_sf.o) (__epilogue_restores__)
d:/programy inzynierskie/winavr20100110/bin/../lib/gcc/avr/4.3.3/avrxmega7\libgcc.a(_pack_sf.o)
                              d:/programy inzynierskie/winavr20100110/bin/../lib/gcc/avr/4.3.3/avrxmega7\libgcc.a(_addsub_sf.o) (__pack_f)
d:/programy inzynierskie/winavr20100110/bin/../lib/gcc/avr/4.3.3/avrxmega7\libgcc.a(_unpack_sf.o)
                              d:/programy inzynierskie/winavr20100110/bin/../lib/gcc/avr/4.3.3/avrxmega7\libgcc.a(_addsub_sf.o) (__unpack_f)
d:/programy inzynierskie/winavr20100110/bin/../lib/gcc/avr/4.3.3/avrxmega7\libgcc.a(_fpcmp_parts_sf.o)
                              d:/programy inzynierskie/winavr20100110/bin/../lib/gcc/avr/4.3.3/avrxmega7\libgcc.a(_gt_sf.o) (__fpcmp_parts_f)

Allocating common symbols
Common symbol       size              file

D                   0x2               ./interrupts.o
Dterm1              0x4               ./PID.o
iindex              0x1               ./Menu.o
Pidindex            0x1               ./Menu.o
LastError2          0x4               ./PID.o
Direction2          0x4               ./PID.o
Errord1             0x4               ./PID.o
Error1              0x4               ./PID.o
Enable1             0x1               ./PID.o
Saturated2          0x4               ./PID.o
ActPoz2             0x4               ./PID.o
Iterm2              0x4               ./PID.o
Direction1          0x4               ./PID.o
AdcResult           0xe               ./Adc.o
AbsError2           0x4               ./PID.o
Errori2             0x4               ./PID.o
PositionBuffor2     0x4               ./PID.o
usart_data          0x2               ./usart.o
LastError1          0x4               ./PID.o
usart_buffer        0x50              ./PcComands.o
ActPoz1             0x4               ./PID.o
AbsError1           0x4               ./PID.o
OnlineSpeed2        0x1               ./PID.o
Errori1             0x4               ./PID.o
test                0x1               ./interrupts.o
Iterm1              0x4               ./PID.o
LastDirection1      0x4               ./PID.o
Cv1                 0x4               ./PID.o
Errord2             0x4               ./PID.o
PositionBuffor1     0x4               ./PID.o
AbsCv1              0x4               ./PID.o
Enable2             0x1               ./PID.o
E                   0x2               ./interrupts.o
Saturated1          0x4               ./PID.o
Pterm2              0x4               ./PID.o
OnlineSpeed1        0x1               ./PID.o
Cv2                 0x4               ./PID.o
Error2              0x4               ./PID.o
Pterm1              0x4               ./PID.o
usart_i             0x1               ./usart.o
AbsCv2              0x4               ./PID.o
LastDirection2      0x4               ./PID.o
F                   0x2               ./interrupts.o
Dterm2              0x4               ./PID.o
ADCindex            0x1               ./interrupts.o

Memory Configuration

Name             Origin             Length             Attributes
text             0x00000000         0x00100000         xr
data             0x00802000         0x0000ffa0         rw !x
eeprom           0x00810000         0x00010000         rw !x
fuse             0x00820000         0x00000400         rw !x
lock             0x00830000         0x00000400         rw !x
signature        0x00840000         0x00000400         rw !x
*default*        0x00000000         0xffffffff

Linker script and memory map

LOAD d:/programy inzynierskie/winavr20100110/bin/../lib/gcc/avr/4.3.3/../../../../avr/lib/avrxmega7/crtx128a1.o
LOAD ./Adc.o
LOAD ./CPU.o
LOAD ./Menu.o
LOAD ./PID.o
LOAD ./PcComands.o
LOAD ./hd44780.o
LOAD ./interrupts.o
LOAD ./main.o
LOAD ./usart.o
LOAD d:/programy inzynierskie/winavr20100110/bin/../lib/gcc/avr/4.3.3/avrxmega7\libgcc.a
LOAD d:/programy inzynierskie/winavr20100110/bin/../lib/gcc/avr/4.3.3/../../../../avr/lib/avrxmega7\libc.a
LOAD d:/programy inzynierskie/winavr20100110/bin/../lib/gcc/avr/4.3.3/avrxmega7\libgcc.a

.hash
 *(.hash)

.dynsym
 *(.dynsym)

.dynstr
 *(.dynstr)

.gnu.version
 *(.gnu.version)

.gnu.version_d
 *(.gnu.version_d)

.gnu.version_r
 *(.gnu.version_r)

.rel.init
 *(.rel.init)

.rela.init
 *(.rela.init)

.rel.text
 *(.rel.text)
 *(.rel.text.*)
 *(.rel.gnu.linkonce.t*)

.rela.text
 *(.rela.text)
 *(.rela.text.*)
 *(.rela.gnu.linkonce.t*)

.rel.fini
 *(.rel.fini)

.rela.fini
 *(.rela.fini)

.rel.rodata
 *(.rel.rodata)
 *(.rel.rodata.*)
 *(.rel.gnu.linkonce.r*)

.rela.rodata
 *(.rela.rodata)
 *(.rela.rodata.*)
 *(.rela.gnu.linkonce.r*)

.rel.data
 *(.rel.data)
 *(.rel.data.*)
 *(.rel.gnu.linkonce.d*)

.rela.data
 *(.rela.data)
 *(.rela.data.*)
 *(.rela.gnu.linkonce.d*)

.rel.ctors
 *(.rel.ctors)

.rela.ctors
 *(.rela.ctors)

.rel.dtors
 *(.rel.dtors)

.rela.dtors
 *(.rela.dtors)

.rel.got
 *(.rel.got)

.rela.got
 *(.rela.got)

.rel.bss
 *(.rel.bss)

.rela.bss
 *(.rela.bss)

.rel.plt
 *(.rel.plt)

.rela.plt
 *(.rela.plt)

.text           0x00000000     0x4ec0
 *(.vectors)
 .vectors       0x00000000      0x1f4 d:/programy inzynierskie/winavr20100110/bin/../lib/gcc/avr/4.3.3/../../../../avr/lib/avrxmega7/crtx128a1.o
                0x00000000                __vectors
                0x00000000                __vector_default
 *(.vectors)
 *(.progmem.gcc*)
 *(.progmem*)
                0x000001f4                . = ALIGN (0x2)
                0x000001f4                __trampolines_start = .
 *(.trampolines)
 .trampolines   0x000001f4        0x0 linker stubs
 *(.trampolines*)
                0x000001f4                __trampolines_end = .
 *(.jumptables)
 *(.jumptables*)
 *(.lowtext)
 *(.lowtext*)
                0x000001f4                __ctors_start = .
 *(.ctors)
                0x000001f4                __ctors_end = .
                0x000001f4                __dtors_start = .
 *(.dtors)
                0x000001f4                __dtors_end = .
 SORT(*)(.ctors)
 SORT(*)(.dtors)
 *(.init0)
 .init0         0x000001f4        0x0 d:/programy inzynierskie/winavr20100110/bin/../lib/gcc/avr/4.3.3/../../../../avr/lib/avrxmega7/crtx128a1.o
                0x000001f4                __init
 *(.init0)
 *(.init1)
 *(.init1)
 *(.init2)
 .init2         0x000001f4       0x18 d:/programy inzynierskie/winavr20100110/bin/../lib/gcc/avr/4.3.3/../../../../avr/lib/avrxmega7/crtx128a1.o
 *(.init2)
 *(.init3)
 *(.init3)
 *(.init4)
 .init4         0x0000020c       0x1c d:/programy inzynierskie/winavr20100110/bin/../lib/gcc/avr/4.3.3/../../../../avr/lib/avrxmega7/crtx128a1.o
                0x0000020c                __do_copy_data
 .init4         0x00000228       0x10 d:/programy inzynierskie/winavr20100110/bin/../lib/gcc/avr/4.3.3/avrxmega7\libgcc.a(_clear_bss.o)
                0x00000228                __do_clear_bss
 *(.init4)
 *(.init5)
 *(.init5)
 *(.init6)
 *(.init6)
 *(.init7)
 *(.init7)
 *(.init8)
 *(.init8)
 *(.init9)
 .init9         0x00000238        0x8 d:/programy inzynierskie/winavr20100110/bin/../lib/gcc/avr/4.3.3/../../../../avr/lib/avrxmega7/crtx128a1.o
 *(.init9)
 *(.text)
 .text          0x00000240        0x4 d:/programy inzynierskie/winavr20100110/bin/../lib/gcc/avr/4.3.3/../../../../avr/lib/avrxmega7/crtx128a1.o
                0x00000240                __vector_38
                0x00000240                __vector_104
                0x00000240                __vector_22
                0x00000240                __vector_63
                0x00000240                __vector_67
                0x00000240                __vector_1
                0x00000240                __vector_119
                0x00000240                __vector_32
                0x00000240                __vector_75
                0x00000240                __vector_71
                0x00000240                __vector_91
                0x00000240                __vector_34
                0x00000240                __vector_62
                0x00000240                __vector_77
                0x00000240                __vector_102
                0x00000240                __vector_24
                0x00000240                __vector_12
                0x00000240                __vector_55
                0x00000240                __vector_69
                0x00000240                __vector_81
                0x00000240                __vector_90
                0x00000240                __vector_46
                0x00000240                __bad_interrupt
                0x00000240                __vector_122
                0x00000240                __vector_72
                0x00000240                __vector_114
                0x00000240                __vector_6
                0x00000240                __vector_110
                0x00000240                __vector_31
                0x00000240                __vector_92
                0x00000240                __vector_35
                0x00000240                __vector_78
                0x00000240                __vector_74
                0x00000240                __vector_117
                0x00000240                __vector_39
                0x00000240                __vector_107
                0x00000240                __vector_3
                0x00000240                __vector_105
                0x00000240                __vector_98
                0x00000240                __vector_23
                0x00000240                __vector_68
                0x00000240                __vector_30
                0x00000240                __vector_73
                0x00000240                __vector_45
                0x00000240                __vector_25
                0x00000240                __vector_93
                0x00000240                __vector_61
                0x00000240                __vector_11
                0x00000240                __vector_54
                0x00000240                __vector_99
                0x00000240                __vector_13
                0x00000240                __vector_17
                0x00000240                __vector_19
                0x00000240                __vector_56
                0x00000240                __vector_7
                0x00000240                __vector_49
                0x00000240                __vector_123
                0x00000240                __vector_41
                0x00000240                __vector_86
                0x00000240                __vector_100
                0x00000240                __vector_101
                0x00000240                __vector_64
                0x00000240                __vector_88
                0x00000240                __vector_109
                0x00000240                __vector_43
                0x00000240                __vector_27
                0x00000240                __vector_5
                0x00000240                __vector_113
                0x00000240                __vector_33
                0x00000240                __vector_76
                0x00000240                __vector_115
                0x00000240                __vector_47
                0x00000240                __vector_52
                0x00000240                __vector_37
                0x00000240                __vector_95
                0x00000240                __vector_103
                0x00000240                __vector_89
                0x00000240                __vector_108
                0x00000240                __vector_4
                0x00000240                __vector_44
                0x00000240                __vector_82
                0x00000240                __vector_106
                0x00000240                __vector_118
                0x00000240                __vector_51
                0x00000240                __vector_9
                0x00000240                __vector_2
                0x00000240                __vector_21
                0x00000240                __vector_15
                0x00000240                __vector_66
                0x00000240                __vector_36
                0x00000240                __vector_79
                0x00000240                __vector_58
                0x00000240                __vector_70
                0x00000240                __vector_83
                0x00000240                __vector_29
                0x00000240                __vector_60
                0x00000240                __vector_121
                0x00000240                __vector_40
                0x00000240                __vector_85
                0x00000240                __vector_94
                0x00000240                __vector_8
                0x00000240                __vector_26
                0x00000240                __vector_48
                0x00000240                __vector_124
                0x00000240                __vector_116
                0x00000240                __vector_112
                0x00000240                __vector_111
                0x00000240                __vector_80
                0x00000240                __vector_14
                0x00000240                __vector_84
                0x00000240                __vector_57
                0x00000240                __vector_53
                0x00000240                __vector_10
                0x00000240                __vector_50
                0x00000240                __vector_16
                0x00000240                __vector_59
                0x00000240                __vector_18
                0x00000240                __vector_97
                0x00000240                __vector_42
                0x00000240                __vector_87
                0x00000240                __vector_65
                0x00000240                __vector_120
 .text          0x00000244      0x18e ./Adc.o
                0x00000276                ReadCalibrationByte
                0x000002b8                AdcBuffer
                0x00000244                AdcRead
 .text          0x000003d2      0x254 ./CPU.o
                0x0000046a                PortConfing
                0x00000412                TimerConfing
                0x00000510                InterruptConfing
                0x000005cc                AdcConfig
                0x000003d2                setClockTo32MHz
                0x00000576                UsartInit
 .text          0x00000626     0x1300 ./Menu.o
                0x00001360                LCDWelcomeTxt
                0x00000626                ButtonState
                0x0000138a                LCDDisplay
 .text          0x00001926     0x114a ./PID.o
                0x00001926                ABS
                0x00002148                PID2
                0x0000291e                Onlinecontrol
                0x00001968                PID1
 .text          0x00002a70      0x43a ./PcComands.o
                0x00002aca                ExecuteCommand
                0x00002a70                GetCommand
 .text          0x00002eaa      0x962 ./hd44780.o
                0x0000314c                LcdWrite
                0x00003108                LcdCommand
                0x00002f3e                _lcd_Write
                0x00003728                LcdDec
                0x000031d0                LcdGoto
                0x00003188                LcdWriteProgmem
                0x0000320e                LcdClear
                0x00003312                LcdInit
                0x0000312a                LcdData
                0x00002eaa                _lcd_OutNibble
 .text          0x0000380c      0x256 ./interrupts.o
                0x000039de                __vector_28
                0x0000380c                __vector_96
                0x0000393e                __vector_20
 .text          0x00003a62      0x134 ./main.o
                0x00003a62                main
 .text          0x00003b96      0x62a ./usart.o
                0x00003f0e                USART_putchar
                0x00003b96                usart_set_baudrate
                0x0000409a                USART_send_int
                0x00003fdc                USART_send_block
                0x0000418c                USART_MergedData
                0x000040ec                USART_MergingData
                0x00003f8a                USART_send_F
                0x00004034                USART_send_block_F
                0x00003f44                USART_send
 .text          0x000041c0        0x0 d:/programy inzynierskie/winavr20100110/bin/../lib/gcc/avr/4.3.3/avrxmega7\libgcc.a(_mulsi3.o)
 .text          0x000041c0        0x0 d:/programy inzynierskie/winavr20100110/bin/../lib/gcc/avr/4.3.3/avrxmega7\libgcc.a(_udivmodsi4.o)
 .text          0x000041c0        0x0 d:/programy inzynierskie/winavr20100110/bin/../lib/gcc/avr/4.3.3/avrxmega7\libgcc.a(_exit.o)
 .text          0x000041c0        0x0 d:/programy inzynierskie/winavr20100110/bin/../lib/gcc/avr/4.3.3/avrxmega7\libgcc.a(_clear_bss.o)
 .text          0x000041c0       0x58 d:/programy inzynierskie/winavr20100110/bin/../lib/gcc/avr/4.3.3/avrxmega7\libgcc.a(_fixunssfsi.o)
                0x000041c0                __fixunssfsi
 .text          0x00004218      0x354 d:/programy inzynierskie/winavr20100110/bin/../lib/gcc/avr/4.3.3/avrxmega7\libgcc.a(_addsub_sf.o)
                0x000044b0                __subsf3
                0x00004512                __addsf3
 .text          0x0000456c      0x1f4 d:/programy inzynierskie/winavr20100110/bin/../lib/gcc/avr/4.3.3/avrxmega7\libgcc.a(_mul_sf.o)
                0x0000456c                __mulsf3
 .text          0x00004760      0x158 d:/programy inzynierskie/winavr20100110/bin/../lib/gcc/avr/4.3.3/avrxmega7\libgcc.a(_div_sf.o)
                0x00004760                __divsf3
 .text          0x000048b8       0x60 d:/programy inzynierskie/winavr20100110/bin/../lib/gcc/avr/4.3.3/avrxmega7\libgcc.a(_gt_sf.o)
                0x000048b8                __gtsf2
 .text          0x00004918       0x60 d:/programy inzynierskie/winavr20100110/bin/../lib/gcc/avr/4.3.3/avrxmega7\libgcc.a(_ge_sf.o)
                0x00004918                __gesf2
 .text          0x00004978       0x60 d:/programy inzynierskie/winavr20100110/bin/../lib/gcc/avr/4.3.3/avrxmega7\libgcc.a(_lt_sf.o)
                0x00004978                __ltsf2
 .text          0x000049d8       0xa8 d:/programy inzynierskie/winavr20100110/bin/../lib/gcc/avr/4.3.3/avrxmega7\libgcc.a(_sf_to_si.o)
                0x000049d8                __fixsfsi
 .text          0x00004a80        0x0 d:/programy inzynierskie/winavr20100110/bin/../lib/gcc/avr/4.3.3/avrxmega7\libgcc.a(_thenan_sf.o)
 .text          0x00004a80        0x0 d:/programy inzynierskie/winavr20100110/bin/../lib/gcc/avr/4.3.3/avrxmega7\libgcc.a(_prologue.o)
 .text          0x00004a80        0x0 d:/programy inzynierskie/winavr20100110/bin/../lib/gcc/avr/4.3.3/avrxmega7\libgcc.a(_epilogue.o)
 .text          0x00004a80      0x1aa d:/programy inzynierskie/winavr20100110/bin/../lib/gcc/avr/4.3.3/avrxmega7\libgcc.a(_pack_sf.o)
                0x00004a80                __pack_f
 .text          0x00004c2a       0xf0 d:/programy inzynierskie/winavr20100110/bin/../lib/gcc/avr/4.3.3/avrxmega7\libgcc.a(_unpack_sf.o)
                0x00004c2a                __unpack_f
 .text          0x00004d1a       0xb2 d:/programy inzynierskie/winavr20100110/bin/../lib/gcc/avr/4.3.3/avrxmega7\libgcc.a(_fpcmp_parts_sf.o)
                0x00004d1a                __fpcmp_parts_f
                0x00004dcc                . = ALIGN (0x2)
 *(.text.*)
 .text.libgcc   0x00004dcc       0x3e d:/programy inzynierskie/winavr20100110/bin/../lib/gcc/avr/4.3.3/avrxmega7\libgcc.a(_mulsi3.o)
                0x00004dcc                __mulsi3
 .text.libgcc   0x00004e0a       0x44 d:/programy inzynierskie/winavr20100110/bin/../lib/gcc/avr/4.3.3/avrxmega7\libgcc.a(_udivmodsi4.o)
                0x00004e0a                __udivmodsi4
 .text.libgcc   0x00004e4e        0x0 d:/programy inzynierskie/winavr20100110/bin/../lib/gcc/avr/4.3.3/avrxmega7\libgcc.a(_exit.o)
 .text.libgcc   0x00004e4e        0x0 d:/programy inzynierskie/winavr20100110/bin/../lib/gcc/avr/4.3.3/avrxmega7\libgcc.a(_clear_bss.o)
 .text.libgcc   0x00004e4e       0x38 d:/programy inzynierskie/winavr20100110/bin/../lib/gcc/avr/4.3.3/avrxmega7\libgcc.a(_prologue.o)
                0x00004e4e                __prologue_saves__
 .text.libgcc   0x00004e86       0x36 d:/programy inzynierskie/winavr20100110/bin/../lib/gcc/avr/4.3.3/avrxmega7\libgcc.a(_epilogue.o)
                0x00004e86                __epilogue_restores__
                0x00004ebc                . = ALIGN (0x2)
 *(.fini9)
 .fini9         0x00004ebc        0x0 d:/programy inzynierskie/winavr20100110/bin/../lib/gcc/avr/4.3.3/avrxmega7\libgcc.a(_exit.o)
                0x00004ebc                exit
                0x00004ebc                _exit
 *(.fini9)
 *(.fini8)
 *(.fini8)
 *(.fini7)
 *(.fini7)
 *(.fini6)
 *(.fini6)
 *(.fini5)
 *(.fini5)
 *(.fini4)
 *(.fini4)
 *(.fini3)
 *(.fini3)
 *(.fini2)
 *(.fini2)
 *(.fini1)
 *(.fini1)
 *(.fini0)
 .fini0         0x00004ebc        0x4 d:/programy inzynierskie/winavr20100110/bin/../lib/gcc/avr/4.3.3/avrxmega7\libgcc.a(_exit.o)
 *(.fini0)
                0x00004ec0                _etext = .

.data           0x00802000      0x130 load address 0x00004ec0
                0x00802000                PROVIDE (__data_start, .)
 *(.data)
 .data          0x00802000        0x0 d:/programy inzynierskie/winavr20100110/bin/../lib/gcc/avr/4.3.3/../../../../avr/lib/avrxmega7/crtx128a1.o
 .data          0x00802000        0x0 ./Adc.o
 .data          0x00802000        0x0 ./CPU.o
 .data          0x00802000       0xdf ./Menu.o
 .data          0x008020df       0x42 ./PID.o
                0x008020f5                MaxErrord1
                0x00802119                Kd2
                0x00802105                Maxerror2
                0x0080211d                MaxCv2
                0x00802101                PozRef2
                0x00802115                MaxErrord2
                0x008020f1                MaxErrori1
                0x008020e0                Zezwolenie2
                0x008020fd                MaxCv1
                0x00802111                MaxErrori2
                0x008020e9                Kp1
                0x008020df                Zezwolenie1
                0x008020e5                Maxerror1
                0x0080210d                Ki2
                0x008020ed                Ki1
                0x00802109                Kp2
                0x008020e1                PozRef1
                0x008020f9                Kd1
 .data          0x00802121        0x0 ./PcComands.o
 .data          0x00802121        0x0 ./hd44780.o
 .data          0x00802121        0x6 ./interrupts.o
                0x00802121                A
                0x00802123                B
                0x00802125                C
 .data          0x00802127        0x0 ./main.o
 .data          0x00802127        0x0 ./usart.o
 .data          0x00802127        0x0 d:/programy inzynierskie/winavr20100110/bin/../lib/gcc/avr/4.3.3/avrxmega7\libgcc.a(_mulsi3.o)
 .data          0x00802127        0x0 d:/programy inzynierskie/winavr20100110/bin/../lib/gcc/avr/4.3.3/avrxmega7\libgcc.a(_udivmodsi4.o)
 .data          0x00802127        0x0 d:/programy inzynierskie/winavr20100110/bin/../lib/gcc/avr/4.3.3/avrxmega7\libgcc.a(_exit.o)
 .data          0x00802127        0x0 d:/programy inzynierskie/winavr20100110/bin/../lib/gcc/avr/4.3.3/avrxmega7\libgcc.a(_clear_bss.o)
 .data          0x00802127        0x0 d:/programy inzynierskie/winavr20100110/bin/../lib/gcc/avr/4.3.3/avrxmega7\libgcc.a(_fixunssfsi.o)
 .data          0x00802127        0x0 d:/programy inzynierskie/winavr20100110/bin/../lib/gcc/avr/4.3.3/avrxmega7\libgcc.a(_addsub_sf.o)
 .data          0x00802127        0x0 d:/programy inzynierskie/winavr20100110/bin/../lib/gcc/avr/4.3.3/avrxmega7\libgcc.a(_mul_sf.o)
 .data          0x00802127        0x0 d:/programy inzynierskie/winavr20100110/bin/../lib/gcc/avr/4.3.3/avrxmega7\libgcc.a(_div_sf.o)
 .data          0x00802127        0x0 d:/programy inzynierskie/winavr20100110/bin/../lib/gcc/avr/4.3.3/avrxmega7\libgcc.a(_gt_sf.o)
 .data          0x00802127        0x0 d:/programy inzynierskie/winavr20100110/bin/../lib/gcc/avr/4.3.3/avrxmega7\libgcc.a(_ge_sf.o)
 .data          0x00802127        0x0 d:/programy inzynierskie/winavr20100110/bin/../lib/gcc/avr/4.3.3/avrxmega7\libgcc.a(_lt_sf.o)
 .data          0x00802127        0x0 d:/programy inzynierskie/winavr20100110/bin/../lib/gcc/avr/4.3.3/avrxmega7\libgcc.a(_sf_to_si.o)
 .data          0x00802127        0x8 d:/programy inzynierskie/winavr20100110/bin/../lib/gcc/avr/4.3.3/avrxmega7\libgcc.a(_thenan_sf.o)
                0x00802127                __thenan_sf
 .data          0x0080212f        0x0 d:/programy inzynierskie/winavr20100110/bin/../lib/gcc/avr/4.3.3/avrxmega7\libgcc.a(_prologue.o)
 .data          0x0080212f        0x0 d:/programy inzynierskie/winavr20100110/bin/../lib/gcc/avr/4.3.3/avrxmega7\libgcc.a(_epilogue.o)
 .data          0x0080212f        0x0 d:/programy inzynierskie/winavr20100110/bin/../lib/gcc/avr/4.3.3/avrxmega7\libgcc.a(_pack_sf.o)
 .data          0x0080212f        0x0 d:/programy inzynierskie/winavr20100110/bin/../lib/gcc/avr/4.3.3/avrxmega7\libgcc.a(_unpack_sf.o)
 .data          0x0080212f        0x0 d:/programy inzynierskie/winavr20100110/bin/../lib/gcc/avr/4.3.3/avrxmega7\libgcc.a(_fpcmp_parts_sf.o)
 *(.data*)
 *(.rodata)
 *(.rodata*)
 *(.gnu.linkonce.d*)
                0x00802130                . = ALIGN (0x2)
 *fill*         0x0080212f        0x1 00
                0x00802130                _edata = .
                0x00802130                PROVIDE (__data_end, .)

.bss            0x00802130       0xf7
                0x00802130                PROVIDE (__bss_start, .)
 *(.bss)
 .bss           0x00802130        0x0 d:/programy inzynierskie/winavr20100110/bin/../lib/gcc/avr/4.3.3/../../../../avr/lib/avrxmega7/crtx128a1.o
 .bss           0x00802130        0x0 ./Adc.o
 .bss           0x00802130        0x0 ./CPU.o
 .bss           0x00802130        0x4 ./Menu.o
                0x00802130                ButtonWork
 .bss           0x00802134        0x8 ./PID.o
                0x00802134                DeadBand1
                0x00802138                DeadBand2
 .bss           0x0080213c        0x3 ./PcComands.o
 .bss           0x0080213f        0x0 ./hd44780.o
 .bss           0x0080213f        0x0 ./interrupts.o
 .bss           0x0080213f        0x0 ./main.o
 .bss           0x0080213f        0x1 ./usart.o
                0x0080213f                buf_index
 .bss           0x00802140        0x0 d:/programy inzynierskie/winavr20100110/bin/../lib/gcc/avr/4.3.3/avrxmega7\libgcc.a(_mulsi3.o)
 .bss           0x00802140        0x0 d:/programy inzynierskie/winavr20100110/bin/../lib/gcc/avr/4.3.3/avrxmega7\libgcc.a(_udivmodsi4.o)
 .bss           0x00802140        0x0 d:/programy inzynierskie/winavr20100110/bin/../lib/gcc/avr/4.3.3/avrxmega7\libgcc.a(_exit.o)
 .bss           0x00802140        0x0 d:/programy inzynierskie/winavr20100110/bin/../lib/gcc/avr/4.3.3/avrxmega7\libgcc.a(_clear_bss.o)
 .bss           0x00802140        0x0 d:/programy inzynierskie/winavr20100110/bin/../lib/gcc/avr/4.3.3/avrxmega7\libgcc.a(_fixunssfsi.o)
 .bss           0x00802140        0x0 d:/programy inzynierskie/winavr20100110/bin/../lib/gcc/avr/4.3.3/avrxmega7\libgcc.a(_addsub_sf.o)
 .bss           0x00802140        0x0 d:/programy inzynierskie/winavr20100110/bin/../lib/gcc/avr/4.3.3/avrxmega7\libgcc.a(_mul_sf.o)
 .bss           0x00802140        0x0 d:/programy inzynierskie/winavr20100110/bin/../lib/gcc/avr/4.3.3/avrxmega7\libgcc.a(_div_sf.o)
 .bss           0x00802140        0x0 d:/programy inzynierskie/winavr20100110/bin/../lib/gcc/avr/4.3.3/avrxmega7\libgcc.a(_gt_sf.o)
 .bss           0x00802140        0x0 d:/programy inzynierskie/winavr20100110/bin/../lib/gcc/avr/4.3.3/avrxmega7\libgcc.a(_ge_sf.o)
 .bss           0x00802140        0x0 d:/programy inzynierskie/winavr20100110/bin/../lib/gcc/avr/4.3.3/avrxmega7\libgcc.a(_lt_sf.o)
 .bss           0x00802140        0x0 d:/programy inzynierskie/winavr20100110/bin/../lib/gcc/avr/4.3.3/avrxmega7\libgcc.a(_sf_to_si.o)
 .bss           0x00802140        0x0 d:/programy inzynierskie/winavr20100110/bin/../lib/gcc/avr/4.3.3/avrxmega7\libgcc.a(_thenan_sf.o)
 .bss           0x00802140        0x0 d:/programy inzynierskie/winavr20100110/bin/../lib/gcc/avr/4.3.3/avrxmega7\libgcc.a(_prologue.o)
 .bss           0x00802140        0x0 d:/programy inzynierskie/winavr20100110/bin/../lib/gcc/avr/4.3.3/avrxmega7\libgcc.a(_epilogue.o)
 .bss           0x00802140        0x0 d:/programy inzynierskie/winavr20100110/bin/../lib/gcc/avr/4.3.3/avrxmega7\libgcc.a(_pack_sf.o)
 .bss           0x00802140        0x0 d:/programy inzynierskie/winavr20100110/bin/../lib/gcc/avr/4.3.3/avrxmega7\libgcc.a(_unpack_sf.o)
 .bss           0x00802140        0x0 d:/programy inzynierskie/winavr20100110/bin/../lib/gcc/avr/4.3.3/avrxmega7\libgcc.a(_fpcmp_parts_sf.o)
 *(.bss*)
 *(COMMON)
 COMMON         0x00802140        0xe ./Adc.o
                0x00802140                AdcResult
 COMMON         0x0080214e        0x2 ./Menu.o
                0x0080214e                iindex
                0x0080214f                Pidindex
 COMMON         0x00802150       0x7c ./PID.o
                0x00802150                Dterm1
                0x00802154                LastError2
                0x00802158                Direction2
                0x0080215c                Errord1
                0x00802160                Error1
                0x00802164                Enable1
                0x00802165                Saturated2
                0x00802169                ActPoz2
                0x0080216d                Iterm2
                0x00802171                Direction1
                0x00802175                AbsError2
                0x00802179                Errori2
                0x0080217d                PositionBuffor2
                0x00802181                LastError1
                0x00802185                ActPoz1
                0x00802189                AbsError1
                0x0080218d                OnlineSpeed2
                0x0080218e                Errori1
                0x00802192                Iterm1
                0x00802196                LastDirection1
                0x0080219a                Cv1
                0x0080219e                Errord2
                0x008021a2                PositionBuffor1
                0x008021a6                AbsCv1
                0x008021aa                Enable2
                0x008021ab                Saturated1
                0x008021af                Pterm2
                0x008021b3                OnlineSpeed1
                0x008021b4                Cv2
                0x008021b8                Error2
                0x008021bc                Pterm1
                0x008021c0                AbsCv2
                0x008021c4                LastDirection2
                0x008021c8                Dterm2
 COMMON         0x008021cc       0x50 ./PcComands.o
                0x008021cc                usart_buffer
 COMMON         0x0080221c        0x8 ./interrupts.o
                0x0080221c                D
                0x0080221e                test
                0x0080221f                E
                0x00802221                F
                0x00802223                ADCindex
 COMMON         0x00802224        0x3 ./usart.o
                0x00802224                usart_data
                0x00802226                usart_i
                0x00802227                PROVIDE (__bss_end, .)
                0x00004ec0                __data_load_start = LOADADDR (.data)
                0x00004ff0                __data_load_end = (__data_load_start + SIZEOF (.data))

.noinit         0x00802227        0x0
                0x00802227                PROVIDE (__noinit_start, .)
 *(.noinit*)
                0x00802227                PROVIDE (__noinit_end, .)
                0x00802227                _end = .
                0x00802227                PROVIDE (__heap_start, .)

.eeprom         0x00810000        0x0
 *(.eeprom*)
                0x00810000                __eeprom_end = .

.fuse
 *(.fuse)
 *(.lfuse)
 *(.hfuse)
 *(.efuse)

.lock
 *(.lock*)

.signature
 *(.signature*)

.stab           0x00000000     0x5268
 *(.stab)
 .stab          0x00000000     0x153c ./Adc.o
 .stab          0x0000153c      0x57c ./CPU.o
                               0x1650 (size before relaxing)
 .stab          0x00001ab8      0xef4 ./Menu.o
                               0x207c (size before relaxing)
 .stab          0x000029ac      0xb1c ./PID.o
                               0x1c98 (size before relaxing)
 .stab          0x000034c8      0x630 ./PcComands.o
                               0x17b8 (size before relaxing)
 .stab          0x00003af8      0xad4 ./hd44780.o
                               0x1c5c (size before relaxing)
 .stab          0x000045cc      0x2dc ./interrupts.o
                               0x1470 (size before relaxing)
 .stab          0x000048a8      0x2a0 ./main.o
                               0x1440 (size before relaxing)
 .stab          0x00004b48      0x720 ./usart.o
                               0x189c (size before relaxing)

.stabstr        0x00000000     0xc39f
 *(.stabstr)
 .stabstr       0x00000000     0xc39f ./Adc.o

.stab.excl
 *(.stab.excl)

.stab.exclstr
 *(.stab.exclstr)

.stab.index
 *(.stab.index)

.stab.indexstr
 *(.stab.indexstr)

.comment
 *(.comment)

.debug
 *(.debug)

.line
 *(.line)

.debug_srcinfo
 *(.debug_srcinfo)

.debug_sfnames
 *(.debug_sfnames)

.debug_aranges  0x00000000      0x160
 *(.debug_aranges)
 .debug_aranges
                0x00000000       0x20 d:/programy inzynierskie/winavr20100110/bin/../lib/gcc/avr/4.3.3/avrxmega7\libgcc.a(_fixunssfsi.o)
 .debug_aranges
                0x00000020       0x20 d:/programy inzynierskie/winavr20100110/bin/../lib/gcc/avr/4.3.3/avrxmega7\libgcc.a(_addsub_sf.o)
 .debug_aranges
                0x00000040       0x20 d:/programy inzynierskie/winavr20100110/bin/../lib/gcc/avr/4.3.3/avrxmega7\libgcc.a(_mul_sf.o)
 .debug_aranges
                0x00000060       0x20 d:/programy inzynierskie/winavr20100110/bin/../lib/gcc/avr/4.3.3/avrxmega7\libgcc.a(_div_sf.o)
 .debug_aranges
                0x00000080       0x20 d:/programy inzynierskie/winavr20100110/bin/../lib/gcc/avr/4.3.3/avrxmega7\libgcc.a(_gt_sf.o)
 .debug_aranges
                0x000000a0       0x20 d:/programy inzynierskie/winavr20100110/bin/../lib/gcc/avr/4.3.3/avrxmega7\libgcc.a(_ge_sf.o)
 .debug_aranges
                0x000000c0       0x20 d:/programy inzynierskie/winavr20100110/bin/../lib/gcc/avr/4.3.3/avrxmega7\libgcc.a(_lt_sf.o)
 .debug_aranges
                0x000000e0       0x20 d:/programy inzynierskie/winavr20100110/bin/../lib/gcc/avr/4.3.3/avrxmega7\libgcc.a(_sf_to_si.o)
 .debug_aranges
                0x00000100       0x20 d:/programy inzynierskie/winavr20100110/bin/../lib/gcc/avr/4.3.3/avrxmega7\libgcc.a(_pack_sf.o)
 .debug_aranges
                0x00000120       0x20 d:/programy inzynierskie/winavr20100110/bin/../lib/gcc/avr/4.3.3/avrxmega7\libgcc.a(_unpack_sf.o)
 .debug_aranges
                0x00000140       0x20 d:/programy inzynierskie/winavr20100110/bin/../lib/gcc/avr/4.3.3/avrxmega7\libgcc.a(_fpcmp_parts_sf.o)

.debug_pubnames
                0x00000000      0x18f
 *(.debug_pubnames)
 .debug_pubnames
                0x00000000       0x23 d:/programy inzynierskie/winavr20100110/bin/../lib/gcc/avr/4.3.3/avrxmega7\libgcc.a(_fixunssfsi.o)
 .debug_pubnames
                0x00000023       0x2c d:/programy inzynierskie/winavr20100110/bin/../lib/gcc/avr/4.3.3/avrxmega7\libgcc.a(_addsub_sf.o)
 .debug_pubnames
                0x0000004f       0x1f d:/programy inzynierskie/winavr20100110/bin/../lib/gcc/avr/4.3.3/avrxmega7\libgcc.a(_mul_sf.o)
 .debug_pubnames
                0x0000006e       0x1f d:/programy inzynierskie/winavr20100110/bin/../lib/gcc/avr/4.3.3/avrxmega7\libgcc.a(_div_sf.o)
 .debug_pubnames
                0x0000008d       0x1e d:/programy inzynierskie/winavr20100110/bin/../lib/gcc/avr/4.3.3/avrxmega7\libgcc.a(_gt_sf.o)
 .debug_pubnames
                0x000000ab       0x1e d:/programy inzynierskie/winavr20100110/bin/../lib/gcc/avr/4.3.3/avrxmega7\libgcc.a(_ge_sf.o)
 .debug_pubnames
                0x000000c9       0x1e d:/programy inzynierskie/winavr20100110/bin/../lib/gcc/avr/4.3.3/avrxmega7\libgcc.a(_lt_sf.o)
 .debug_pubnames
                0x000000e7       0x20 d:/programy inzynierskie/winavr20100110/bin/../lib/gcc/avr/4.3.3/avrxmega7\libgcc.a(_sf_to_si.o)
 .debug_pubnames
                0x00000107       0x22 d:/programy inzynierskie/winavr20100110/bin/../lib/gcc/avr/4.3.3/avrxmega7\libgcc.a(_thenan_sf.o)
 .debug_pubnames
                0x00000129       0x1f d:/programy inzynierskie/winavr20100110/bin/../lib/gcc/avr/4.3.3/avrxmega7\libgcc.a(_pack_sf.o)
 .debug_pubnames
                0x00000148       0x21 d:/programy inzynierskie/winavr20100110/bin/../lib/gcc/avr/4.3.3/avrxmega7\libgcc.a(_unpack_sf.o)
 .debug_pubnames
                0x00000169       0x26 d:/programy inzynierskie/winavr20100110/bin/../lib/gcc/avr/4.3.3/avrxmega7\libgcc.a(_fpcmp_parts_sf.o)

.debug_info     0x00000000     0x2045
 *(.debug_info)
 .debug_info    0x00000000       0xb1 d:/programy inzynierskie/winavr20100110/bin/../lib/gcc/avr/4.3.3/avrxmega7\libgcc.a(_fixunssfsi.o)
 .debug_info    0x000000b1      0x47a d:/programy inzynierskie/winavr20100110/bin/../lib/gcc/avr/4.3.3/avrxmega7\libgcc.a(_addsub_sf.o)
 .debug_info    0x0000052b      0x485 d:/programy inzynierskie/winavr20100110/bin/../lib/gcc/avr/4.3.3/avrxmega7\libgcc.a(_mul_sf.o)
 .debug_info    0x000009b0      0x3fc d:/programy inzynierskie/winavr20100110/bin/../lib/gcc/avr/4.3.3/avrxmega7\libgcc.a(_div_sf.o)
 .debug_info    0x00000dac      0x27f d:/programy inzynierskie/winavr20100110/bin/../lib/gcc/avr/4.3.3/avrxmega7\libgcc.a(_gt_sf.o)
 .debug_info    0x0000102b      0x27f d:/programy inzynierskie/winavr20100110/bin/../lib/gcc/avr/4.3.3/avrxmega7\libgcc.a(_ge_sf.o)
 .debug_info    0x000012aa      0x27f d:/programy inzynierskie/winavr20100110/bin/../lib/gcc/avr/4.3.3/avrxmega7\libgcc.a(_lt_sf.o)
 .debug_info    0x00001529      0x2b0 d:/programy inzynierskie/winavr20100110/bin/../lib/gcc/avr/4.3.3/avrxmega7\libgcc.a(_sf_to_si.o)
 .debug_info    0x000017d9      0x12c d:/programy inzynierskie/winavr20100110/bin/../lib/gcc/avr/4.3.3/avrxmega7\libgcc.a(_thenan_sf.o)
 .debug_info    0x00001905      0x2df d:/programy inzynierskie/winavr20100110/bin/../lib/gcc/avr/4.3.3/avrxmega7\libgcc.a(_pack_sf.o)
 .debug_info    0x00001be4      0x251 d:/programy inzynierskie/winavr20100110/bin/../lib/gcc/avr/4.3.3/avrxmega7\libgcc.a(_unpack_sf.o)
 .debug_info    0x00001e35      0x210 d:/programy inzynierskie/winavr20100110/bin/../lib/gcc/avr/4.3.3/avrxmega7\libgcc.a(_fpcmp_parts_sf.o)
 *(.gnu.linkonce.wi.*)

.debug_abbrev   0x00000000     0x1101
 *(.debug_abbrev)
 .debug_abbrev  0x00000000       0x5d d:/programy inzynierskie/winavr20100110/bin/../lib/gcc/avr/4.3.3/avrxmega7\libgcc.a(_fixunssfsi.o)
 .debug_abbrev  0x0000005d      0x1ea d:/programy inzynierskie/winavr20100110/bin/../lib/gcc/avr/4.3.3/avrxmega7\libgcc.a(_addsub_sf.o)
 .debug_abbrev  0x00000247      0x21b d:/programy inzynierskie/winavr20100110/bin/../lib/gcc/avr/4.3.3/avrxmega7\libgcc.a(_mul_sf.o)
 .debug_abbrev  0x00000462      0x216 d:/programy inzynierskie/winavr20100110/bin/../lib/gcc/avr/4.3.3/avrxmega7\libgcc.a(_div_sf.o)
 .debug_abbrev  0x00000678      0x15a d:/programy inzynierskie/winavr20100110/bin/../lib/gcc/avr/4.3.3/avrxmega7\libgcc.a(_gt_sf.o)
 .debug_abbrev  0x000007d2      0x15a d:/programy inzynierskie/winavr20100110/bin/../lib/gcc/avr/4.3.3/avrxmega7\libgcc.a(_ge_sf.o)
 .debug_abbrev  0x0000092c      0x15a d:/programy inzynierskie/winavr20100110/bin/../lib/gcc/avr/4.3.3/avrxmega7\libgcc.a(_lt_sf.o)
 .debug_abbrev  0x00000a86      0x17f d:/programy inzynierskie/winavr20100110/bin/../lib/gcc/avr/4.3.3/avrxmega7\libgcc.a(_sf_to_si.o)
 .debug_abbrev  0x00000c05       0xad d:/programy inzynierskie/winavr20100110/bin/../lib/gcc/avr/4.3.3/avrxmega7\libgcc.a(_thenan_sf.o)
 .debug_abbrev  0x00000cb2      0x1c0 d:/programy inzynierskie/winavr20100110/bin/../lib/gcc/avr/4.3.3/avrxmega7\libgcc.a(_pack_sf.o)
 .debug_abbrev  0x00000e72      0x154 d:/programy inzynierskie/winavr20100110/bin/../lib/gcc/avr/4.3.3/avrxmega7\libgcc.a(_unpack_sf.o)
 .debug_abbrev  0x00000fc6      0x13b d:/programy inzynierskie/winavr20100110/bin/../lib/gcc/avr/4.3.3/avrxmega7\libgcc.a(_fpcmp_parts_sf.o)

.debug_line     0x00000000      0xf82
 *(.debug_line)
 .debug_line    0x00000000       0xa7 d:/programy inzynierskie/winavr20100110/bin/../lib/gcc/avr/4.3.3/avrxmega7\libgcc.a(_fixunssfsi.o)
 .debug_line    0x000000a7      0x2af d:/programy inzynierskie/winavr20100110/bin/../lib/gcc/avr/4.3.3/avrxmega7\libgcc.a(_addsub_sf.o)
 .debug_line    0x00000356      0x239 d:/programy inzynierskie/winavr20100110/bin/../lib/gcc/avr/4.3.3/avrxmega7\libgcc.a(_mul_sf.o)
 .debug_line    0x0000058f      0x1d5 d:/programy inzynierskie/winavr20100110/bin/../lib/gcc/avr/4.3.3/avrxmega7\libgcc.a(_div_sf.o)
 .debug_line    0x00000764       0xd3 d:/programy inzynierskie/winavr20100110/bin/../lib/gcc/avr/4.3.3/avrxmega7\libgcc.a(_gt_sf.o)
 .debug_line    0x00000837       0xd3 d:/programy inzynierskie/winavr20100110/bin/../lib/gcc/avr/4.3.3/avrxmega7\libgcc.a(_ge_sf.o)
 .debug_line    0x0000090a       0xd3 d:/programy inzynierskie/winavr20100110/bin/../lib/gcc/avr/4.3.3/avrxmega7\libgcc.a(_lt_sf.o)
 .debug_line    0x000009dd      0x109 d:/programy inzynierskie/winavr20100110/bin/../lib/gcc/avr/4.3.3/avrxmega7\libgcc.a(_sf_to_si.o)
 .debug_line    0x00000ae6       0x90 d:/programy inzynierskie/winavr20100110/bin/../lib/gcc/avr/4.3.3/avrxmega7\libgcc.a(_thenan_sf.o)
 .debug_line    0x00000b76      0x18a d:/programy inzynierskie/winavr20100110/bin/../lib/gcc/avr/4.3.3/avrxmega7\libgcc.a(_pack_sf.o)
 .debug_line    0x00000d00      0x14b d:/programy inzynierskie/winavr20100110/bin/../lib/gcc/avr/4.3.3/avrxmega7\libgcc.a(_unpack_sf.o)
 .debug_line    0x00000e4b      0x137 d:/programy inzynierskie/winavr20100110/bin/../lib/gcc/avr/4.3.3/avrxmega7\libgcc.a(_fpcmp_parts_sf.o)

.debug_frame    0x00000000      0x180
 *(.debug_frame)
 .debug_frame   0x00000000       0x20 d:/programy inzynierskie/winavr20100110/bin/../lib/gcc/avr/4.3.3/avrxmega7\libgcc.a(_fixunssfsi.o)
 .debug_frame   0x00000020       0x40 d:/programy inzynierskie/winavr20100110/bin/../lib/gcc/avr/4.3.3/avrxmega7\libgcc.a(_addsub_sf.o)
 .debug_frame   0x00000060       0x20 d:/programy inzynierskie/winavr20100110/bin/../lib/gcc/avr/4.3.3/avrxmega7\libgcc.a(_mul_sf.o)
 .debug_frame   0x00000080       0x20 d:/programy inzynierskie/winavr20100110/bin/../lib/gcc/avr/4.3.3/avrxmega7\libgcc.a(_div_sf.o)
 .debug_frame   0x000000a0       0x20 d:/programy inzynierskie/winavr20100110/bin/../lib/gcc/avr/4.3.3/avrxmega7\libgcc.a(_gt_sf.o)
 .debug_frame   0x000000c0       0x20 d:/programy inzynierskie/winavr20100110/bin/../lib/gcc/avr/4.3.3/avrxmega7\libgcc.a(_ge_sf.o)
 .debug_frame   0x000000e0       0x20 d:/programy inzynierskie/winavr20100110/bin/../lib/gcc/avr/4.3.3/avrxmega7\libgcc.a(_lt_sf.o)
 .debug_frame   0x00000100       0x20 d:/programy inzynierskie/winavr20100110/bin/../lib/gcc/avr/4.3.3/avrxmega7\libgcc.a(_sf_to_si.o)
 .debug_frame   0x00000120       0x20 d:/programy inzynierskie/winavr20100110/bin/../lib/gcc/avr/4.3.3/avrxmega7\libgcc.a(_pack_sf.o)
 .debug_frame   0x00000140       0x20 d:/programy inzynierskie/winavr20100110/bin/../lib/gcc/avr/4.3.3/avrxmega7\libgcc.a(_unpack_sf.o)
 .debug_frame   0x00000160       0x20 d:/programy inzynierskie/winavr20100110/bin/../lib/gcc/avr/4.3.3/avrxmega7\libgcc.a(_fpcmp_parts_sf.o)

.debug_str      0x00000000      0x2c7
 *(.debug_str)
 .debug_str     0x00000000       0xc4 d:/programy inzynierskie/winavr20100110/bin/../lib/gcc/avr/4.3.3/avrxmega7\libgcc.a(_fixunssfsi.o)
                                0x103 (size before relaxing)
 .debug_str     0x000000c4      0x14d d:/programy inzynierskie/winavr20100110/bin/../lib/gcc/avr/4.3.3/avrxmega7\libgcc.a(_addsub_sf.o)
                                0x20b (size before relaxing)
 .debug_str     0x00000211       0x27 d:/programy inzynierskie/winavr20100110/bin/../lib/gcc/avr/4.3.3/avrxmega7\libgcc.a(_mul_sf.o)
                                0x1c4 (size before relaxing)
 .debug_str     0x00000238       0x35 d:/programy inzynierskie/winavr20100110/bin/../lib/gcc/avr/4.3.3/avrxmega7\libgcc.a(_div_sf.o)
                                0x1cd (size before relaxing)
 .debug_str     0x0000026d        0xf d:/programy inzynierskie/winavr20100110/bin/../lib/gcc/avr/4.3.3/avrxmega7\libgcc.a(_gt_sf.o)
                                0x19a (size before relaxing)
 .debug_str     0x0000027c        0x8 d:/programy inzynierskie/winavr20100110/bin/../lib/gcc/avr/4.3.3/avrxmega7\libgcc.a(_ge_sf.o)
                                0x19a (size before relaxing)
 .debug_str     0x00000284        0x8 d:/programy inzynierskie/winavr20100110/bin/../lib/gcc/avr/4.3.3/avrxmega7\libgcc.a(_lt_sf.o)
                                0x19a (size before relaxing)
 .debug_str     0x0000028c        0xa d:/programy inzynierskie/winavr20100110/bin/../lib/gcc/avr/4.3.3/avrxmega7\libgcc.a(_sf_to_si.o)
                                0x1a3 (size before relaxing)
 .debug_str     0x00000000      0x108 d:/programy inzynierskie/winavr20100110/bin/../lib/gcc/avr/4.3.3/avrxmega7\libgcc.a(_thenan_sf.o)
 .debug_str     0x00000296       0x16 d:/programy inzynierskie/winavr20100110/bin/../lib/gcc/avr/4.3.3/avrxmega7\libgcc.a(_pack_sf.o)
                                0x1a2 (size before relaxing)
 .debug_str     0x000002ac        0xb d:/programy inzynierskie/winavr20100110/bin/../lib/gcc/avr/4.3.3/avrxmega7\libgcc.a(_unpack_sf.o)
                                0x184 (size before relaxing)
 .debug_str     0x000002b7       0x10 d:/programy inzynierskie/winavr20100110/bin/../lib/gcc/avr/4.3.3/avrxmega7\libgcc.a(_fpcmp_parts_sf.o)
                                0x168 (size before relaxing)

.debug_loc      0x00000000      0x88e
 *(.debug_loc)
 .debug_loc     0x00000000       0x34 d:/programy inzynierskie/winavr20100110/bin/../lib/gcc/avr/4.3.3/avrxmega7\libgcc.a(_fixunssfsi.o)
 .debug_loc     0x00000034      0x32a d:/programy inzynierskie/winavr20100110/bin/../lib/gcc/avr/4.3.3/avrxmega7\libgcc.a(_addsub_sf.o)
 .debug_loc     0x0000035e      0x104 d:/programy inzynierskie/winavr20100110/bin/../lib/gcc/avr/4.3.3/avrxmega7\libgcc.a(_mul_sf.o)
 .debug_loc     0x00000462       0xc0 d:/programy inzynierskie/winavr20100110/bin/../lib/gcc/avr/4.3.3/avrxmega7\libgcc.a(_div_sf.o)
 .debug_loc     0x00000522       0x3c d:/programy inzynierskie/winavr20100110/bin/../lib/gcc/avr/4.3.3/avrxmega7\libgcc.a(_gt_sf.o)
 .debug_loc     0x0000055e       0x3c d:/programy inzynierskie/winavr20100110/bin/../lib/gcc/avr/4.3.3/avrxmega7\libgcc.a(_ge_sf.o)
 .debug_loc     0x0000059a       0x3c d:/programy inzynierskie/winavr20100110/bin/../lib/gcc/avr/4.3.3/avrxmega7\libgcc.a(_lt_sf.o)
 .debug_loc     0x000005d6       0x7e d:/programy inzynierskie/winavr20100110/bin/../lib/gcc/avr/4.3.3/avrxmega7\libgcc.a(_sf_to_si.o)
 .debug_loc     0x00000654      0x13e d:/programy inzynierskie/winavr20100110/bin/../lib/gcc/avr/4.3.3/avrxmega7\libgcc.a(_pack_sf.o)
 .debug_loc     0x00000792       0xac d:/programy inzynierskie/winavr20100110/bin/../lib/gcc/avr/4.3.3/avrxmega7\libgcc.a(_unpack_sf.o)
 .debug_loc     0x0000083e       0x50 d:/programy inzynierskie/winavr20100110/bin/../lib/gcc/avr/4.3.3/avrxmega7\libgcc.a(_fpcmp_parts_sf.o)

.debug_macinfo
 *(.debug_macinfo)
OUTPUT(Manipulator.elf elf32-avr)
LOAD linker stubs

.debug_ranges   0x00000000       0x50
 .debug_ranges  0x00000000       0x50 d:/programy inzynierskie/winavr20100110/bin/../lib/gcc/avr/4.3.3/avrxmega7\libgcc.a(_mul_sf.o)
