
Manipulator.elf:     file format elf32-avr

Sections:
Idx Name          Size      VMA       LMA       File off  Algn
  0 .text         00004ec0  00000000  00000000  00000094  2**1
                  CONTENTS, ALLOC, LOAD, READONLY, CODE
  1 .data         00000130  00802000  00004ec0  00004f54  2**0
                  CONTENTS, ALLOC, LOAD, DATA
  2 .bss          000000f7  00802130  00802130  00005084  2**0
                  ALLOC
  3 .stab         00005268  00000000  00000000  00005084  2**2
                  CONTENTS, READONLY, DEBUGGING
  4 .stabstr      0000c39f  00000000  00000000  0000a2ec  2**0
                  CONTENTS, READONLY, DEBUGGING
  5 .debug_aranges 00000160  00000000  00000000  0001668b  2**0
                  CONTENTS, READONLY, DEBUGGING
  6 .debug_pubnames 0000018f  00000000  00000000  000167eb  2**0
                  CONTENTS, READONLY, DEBUGGING
  7 .debug_info   00002045  00000000  00000000  0001697a  2**0
                  CONTENTS, READONLY, DEBUGGING
  8 .debug_abbrev 00001101  00000000  00000000  000189bf  2**0
                  CONTENTS, READONLY, DEBUGGING
  9 .debug_line   00000f82  00000000  00000000  00019ac0  2**0
                  CONTENTS, READONLY, DEBUGGING
 10 .debug_frame  00000180  00000000  00000000  0001aa44  2**2
                  CONTENTS, READONLY, DEBUGGING
 11 .debug_str    000002c7  00000000  00000000  0001abc4  2**0
                  CONTENTS, READONLY, DEBUGGING
 12 .debug_loc    0000088e  00000000  00000000  0001ae8b  2**0
                  CONTENTS, READONLY, DEBUGGING
 13 .debug_ranges 00000050  00000000  00000000  0001b719  2**0
                  CONTENTS, READONLY, DEBUGGING

Disassembly of section .text:

00000000 <__vectors>:
       0:	0c 94 fa 00 	jmp	0x1f4	; 0x1f4 <__ctors_end>
       4:	0c 94 20 01 	jmp	0x240	; 0x240 <__bad_interrupt>
       8:	0c 94 20 01 	jmp	0x240	; 0x240 <__bad_interrupt>
       c:	0c 94 20 01 	jmp	0x240	; 0x240 <__bad_interrupt>
      10:	0c 94 20 01 	jmp	0x240	; 0x240 <__bad_interrupt>
      14:	0c 94 20 01 	jmp	0x240	; 0x240 <__bad_interrupt>
      18:	0c 94 20 01 	jmp	0x240	; 0x240 <__bad_interrupt>
      1c:	0c 94 20 01 	jmp	0x240	; 0x240 <__bad_interrupt>
      20:	0c 94 20 01 	jmp	0x240	; 0x240 <__bad_interrupt>
      24:	0c 94 20 01 	jmp	0x240	; 0x240 <__bad_interrupt>
      28:	0c 94 20 01 	jmp	0x240	; 0x240 <__bad_interrupt>
      2c:	0c 94 20 01 	jmp	0x240	; 0x240 <__bad_interrupt>
      30:	0c 94 20 01 	jmp	0x240	; 0x240 <__bad_interrupt>
      34:	0c 94 20 01 	jmp	0x240	; 0x240 <__bad_interrupt>
      38:	0c 94 20 01 	jmp	0x240	; 0x240 <__bad_interrupt>
      3c:	0c 94 20 01 	jmp	0x240	; 0x240 <__bad_interrupt>
      40:	0c 94 20 01 	jmp	0x240	; 0x240 <__bad_interrupt>
      44:	0c 94 20 01 	jmp	0x240	; 0x240 <__bad_interrupt>
      48:	0c 94 20 01 	jmp	0x240	; 0x240 <__bad_interrupt>
      4c:	0c 94 20 01 	jmp	0x240	; 0x240 <__bad_interrupt>
      50:	0c 94 9f 1c 	jmp	0x393e	; 0x393e <__vector_20>
      54:	0c 94 20 01 	jmp	0x240	; 0x240 <__bad_interrupt>
      58:	0c 94 20 01 	jmp	0x240	; 0x240 <__bad_interrupt>
      5c:	0c 94 20 01 	jmp	0x240	; 0x240 <__bad_interrupt>
      60:	0c 94 20 01 	jmp	0x240	; 0x240 <__bad_interrupt>
      64:	0c 94 20 01 	jmp	0x240	; 0x240 <__bad_interrupt>
      68:	0c 94 20 01 	jmp	0x240	; 0x240 <__bad_interrupt>
      6c:	0c 94 20 01 	jmp	0x240	; 0x240 <__bad_interrupt>
      70:	0c 94 ef 1c 	jmp	0x39de	; 0x39de <__vector_28>
      74:	0c 94 20 01 	jmp	0x240	; 0x240 <__bad_interrupt>
      78:	0c 94 20 01 	jmp	0x240	; 0x240 <__bad_interrupt>
      7c:	0c 94 20 01 	jmp	0x240	; 0x240 <__bad_interrupt>
      80:	0c 94 20 01 	jmp	0x240	; 0x240 <__bad_interrupt>
      84:	0c 94 20 01 	jmp	0x240	; 0x240 <__bad_interrupt>
      88:	0c 94 20 01 	jmp	0x240	; 0x240 <__bad_interrupt>
      8c:	0c 94 20 01 	jmp	0x240	; 0x240 <__bad_interrupt>
      90:	0c 94 20 01 	jmp	0x240	; 0x240 <__bad_interrupt>
      94:	0c 94 20 01 	jmp	0x240	; 0x240 <__bad_interrupt>
      98:	0c 94 20 01 	jmp	0x240	; 0x240 <__bad_interrupt>
      9c:	0c 94 20 01 	jmp	0x240	; 0x240 <__bad_interrupt>
      a0:	0c 94 20 01 	jmp	0x240	; 0x240 <__bad_interrupt>
      a4:	0c 94 20 01 	jmp	0x240	; 0x240 <__bad_interrupt>
      a8:	0c 94 20 01 	jmp	0x240	; 0x240 <__bad_interrupt>
      ac:	0c 94 20 01 	jmp	0x240	; 0x240 <__bad_interrupt>
      b0:	0c 94 20 01 	jmp	0x240	; 0x240 <__bad_interrupt>
      b4:	0c 94 20 01 	jmp	0x240	; 0x240 <__bad_interrupt>
      b8:	0c 94 20 01 	jmp	0x240	; 0x240 <__bad_interrupt>
      bc:	0c 94 20 01 	jmp	0x240	; 0x240 <__bad_interrupt>
      c0:	0c 94 20 01 	jmp	0x240	; 0x240 <__bad_interrupt>
      c4:	0c 94 20 01 	jmp	0x240	; 0x240 <__bad_interrupt>
      c8:	0c 94 20 01 	jmp	0x240	; 0x240 <__bad_interrupt>
      cc:	0c 94 20 01 	jmp	0x240	; 0x240 <__bad_interrupt>
      d0:	0c 94 20 01 	jmp	0x240	; 0x240 <__bad_interrupt>
      d4:	0c 94 20 01 	jmp	0x240	; 0x240 <__bad_interrupt>
      d8:	0c 94 20 01 	jmp	0x240	; 0x240 <__bad_interrupt>
      dc:	0c 94 20 01 	jmp	0x240	; 0x240 <__bad_interrupt>
      e0:	0c 94 20 01 	jmp	0x240	; 0x240 <__bad_interrupt>
      e4:	0c 94 20 01 	jmp	0x240	; 0x240 <__bad_interrupt>
      e8:	0c 94 20 01 	jmp	0x240	; 0x240 <__bad_interrupt>
      ec:	0c 94 20 01 	jmp	0x240	; 0x240 <__bad_interrupt>
      f0:	0c 94 20 01 	jmp	0x240	; 0x240 <__bad_interrupt>
      f4:	0c 94 20 01 	jmp	0x240	; 0x240 <__bad_interrupt>
      f8:	0c 94 20 01 	jmp	0x240	; 0x240 <__bad_interrupt>
      fc:	0c 94 20 01 	jmp	0x240	; 0x240 <__bad_interrupt>
     100:	0c 94 20 01 	jmp	0x240	; 0x240 <__bad_interrupt>
     104:	0c 94 20 01 	jmp	0x240	; 0x240 <__bad_interrupt>
     108:	0c 94 20 01 	jmp	0x240	; 0x240 <__bad_interrupt>
     10c:	0c 94 20 01 	jmp	0x240	; 0x240 <__bad_interrupt>
     110:	0c 94 20 01 	jmp	0x240	; 0x240 <__bad_interrupt>
     114:	0c 94 20 01 	jmp	0x240	; 0x240 <__bad_interrupt>
     118:	0c 94 20 01 	jmp	0x240	; 0x240 <__bad_interrupt>
     11c:	0c 94 20 01 	jmp	0x240	; 0x240 <__bad_interrupt>
     120:	0c 94 20 01 	jmp	0x240	; 0x240 <__bad_interrupt>
     124:	0c 94 20 01 	jmp	0x240	; 0x240 <__bad_interrupt>
     128:	0c 94 20 01 	jmp	0x240	; 0x240 <__bad_interrupt>
     12c:	0c 94 20 01 	jmp	0x240	; 0x240 <__bad_interrupt>
     130:	0c 94 20 01 	jmp	0x240	; 0x240 <__bad_interrupt>
     134:	0c 94 20 01 	jmp	0x240	; 0x240 <__bad_interrupt>
     138:	0c 94 20 01 	jmp	0x240	; 0x240 <__bad_interrupt>
     13c:	0c 94 20 01 	jmp	0x240	; 0x240 <__bad_interrupt>
     140:	0c 94 20 01 	jmp	0x240	; 0x240 <__bad_interrupt>
     144:	0c 94 20 01 	jmp	0x240	; 0x240 <__bad_interrupt>
     148:	0c 94 20 01 	jmp	0x240	; 0x240 <__bad_interrupt>
     14c:	0c 94 20 01 	jmp	0x240	; 0x240 <__bad_interrupt>
     150:	0c 94 20 01 	jmp	0x240	; 0x240 <__bad_interrupt>
     154:	0c 94 20 01 	jmp	0x240	; 0x240 <__bad_interrupt>
     158:	0c 94 20 01 	jmp	0x240	; 0x240 <__bad_interrupt>
     15c:	0c 94 20 01 	jmp	0x240	; 0x240 <__bad_interrupt>
     160:	0c 94 20 01 	jmp	0x240	; 0x240 <__bad_interrupt>
     164:	0c 94 20 01 	jmp	0x240	; 0x240 <__bad_interrupt>
     168:	0c 94 20 01 	jmp	0x240	; 0x240 <__bad_interrupt>
     16c:	0c 94 20 01 	jmp	0x240	; 0x240 <__bad_interrupt>
     170:	0c 94 20 01 	jmp	0x240	; 0x240 <__bad_interrupt>
     174:	0c 94 20 01 	jmp	0x240	; 0x240 <__bad_interrupt>
     178:	0c 94 20 01 	jmp	0x240	; 0x240 <__bad_interrupt>
     17c:	0c 94 20 01 	jmp	0x240	; 0x240 <__bad_interrupt>
     180:	0c 94 06 1c 	jmp	0x380c	; 0x380c <__vector_96>
     184:	0c 94 20 01 	jmp	0x240	; 0x240 <__bad_interrupt>
     188:	0c 94 20 01 	jmp	0x240	; 0x240 <__bad_interrupt>
     18c:	0c 94 20 01 	jmp	0x240	; 0x240 <__bad_interrupt>
     190:	0c 94 20 01 	jmp	0x240	; 0x240 <__bad_interrupt>
     194:	0c 94 20 01 	jmp	0x240	; 0x240 <__bad_interrupt>
     198:	0c 94 20 01 	jmp	0x240	; 0x240 <__bad_interrupt>
     19c:	0c 94 20 01 	jmp	0x240	; 0x240 <__bad_interrupt>
     1a0:	0c 94 20 01 	jmp	0x240	; 0x240 <__bad_interrupt>
     1a4:	0c 94 20 01 	jmp	0x240	; 0x240 <__bad_interrupt>
     1a8:	0c 94 20 01 	jmp	0x240	; 0x240 <__bad_interrupt>
     1ac:	0c 94 20 01 	jmp	0x240	; 0x240 <__bad_interrupt>
     1b0:	0c 94 20 01 	jmp	0x240	; 0x240 <__bad_interrupt>
     1b4:	0c 94 20 01 	jmp	0x240	; 0x240 <__bad_interrupt>
     1b8:	0c 94 20 01 	jmp	0x240	; 0x240 <__bad_interrupt>
     1bc:	0c 94 20 01 	jmp	0x240	; 0x240 <__bad_interrupt>
     1c0:	0c 94 20 01 	jmp	0x240	; 0x240 <__bad_interrupt>
     1c4:	0c 94 20 01 	jmp	0x240	; 0x240 <__bad_interrupt>
     1c8:	0c 94 20 01 	jmp	0x240	; 0x240 <__bad_interrupt>
     1cc:	0c 94 20 01 	jmp	0x240	; 0x240 <__bad_interrupt>
     1d0:	0c 94 20 01 	jmp	0x240	; 0x240 <__bad_interrupt>
     1d4:	0c 94 20 01 	jmp	0x240	; 0x240 <__bad_interrupt>
     1d8:	0c 94 20 01 	jmp	0x240	; 0x240 <__bad_interrupt>
     1dc:	0c 94 20 01 	jmp	0x240	; 0x240 <__bad_interrupt>
     1e0:	0c 94 20 01 	jmp	0x240	; 0x240 <__bad_interrupt>
     1e4:	0c 94 20 01 	jmp	0x240	; 0x240 <__bad_interrupt>
     1e8:	0c 94 20 01 	jmp	0x240	; 0x240 <__bad_interrupt>
     1ec:	0c 94 20 01 	jmp	0x240	; 0x240 <__bad_interrupt>
     1f0:	0c 94 20 01 	jmp	0x240	; 0x240 <__bad_interrupt>

000001f4 <__ctors_end>:
     1f4:	11 24       	eor	r1, r1
     1f6:	1f be       	out	0x3f, r1	; 63
     1f8:	cf ef       	ldi	r28, 0xFF	; 255
     1fa:	df e3       	ldi	r29, 0x3F	; 63
     1fc:	de bf       	out	0x3e, r29	; 62
     1fe:	cd bf       	out	0x3d, r28	; 61
     200:	00 e0       	ldi	r16, 0x00	; 0
     202:	0c bf       	out	0x3c, r16	; 60
     204:	18 be       	out	0x38, r1	; 56
     206:	19 be       	out	0x39, r1	; 57
     208:	1a be       	out	0x3a, r1	; 58
     20a:	1b be       	out	0x3b, r1	; 59

0000020c <__do_copy_data>:
     20c:	11 e2       	ldi	r17, 0x21	; 33
     20e:	a0 e0       	ldi	r26, 0x00	; 0
     210:	b0 e2       	ldi	r27, 0x20	; 32
     212:	e0 ec       	ldi	r30, 0xC0	; 192
     214:	fe e4       	ldi	r31, 0x4E	; 78
     216:	00 e0       	ldi	r16, 0x00	; 0
     218:	0b bf       	out	0x3b, r16	; 59
     21a:	02 c0       	rjmp	.+4      	; 0x220 <__do_copy_data+0x14>
     21c:	07 90       	elpm	r0, Z+
     21e:	0d 92       	st	X+, r0
     220:	a0 33       	cpi	r26, 0x30	; 48
     222:	b1 07       	cpc	r27, r17
     224:	d9 f7       	brne	.-10     	; 0x21c <__do_copy_data+0x10>
     226:	1b be       	out	0x3b, r1	; 59

00000228 <__do_clear_bss>:
     228:	12 e2       	ldi	r17, 0x22	; 34
     22a:	a0 e3       	ldi	r26, 0x30	; 48
     22c:	b1 e2       	ldi	r27, 0x21	; 33
     22e:	01 c0       	rjmp	.+2      	; 0x232 <.do_clear_bss_start>

00000230 <.do_clear_bss_loop>:
     230:	1d 92       	st	X+, r1

00000232 <.do_clear_bss_start>:
     232:	a7 32       	cpi	r26, 0x27	; 39
     234:	b1 07       	cpc	r27, r17
     236:	e1 f7       	brne	.-8      	; 0x230 <.do_clear_bss_loop>
     238:	0e 94 31 1d 	call	0x3a62	; 0x3a62 <main>
     23c:	0c 94 5e 27 	jmp	0x4ebc	; 0x4ebc <_exit>

00000240 <__bad_interrupt>:
     240:	0c 94 00 00 	jmp	0	; 0x0 <__vectors>

00000244 <AdcRead>:

uint16_t AdcResult[7];
extern volatile uint8_t ADCindex;

uint16_t AdcRead(void)
{
     244:	df 93       	push	r29
     246:	cf 93       	push	r28
     248:	cd b7       	in	r28, 0x3d	; 61
     24a:	de b7       	in	r29, 0x3e	; 62
	ADCA.CH0.CTRL |= ADC_CH_START_bm;
     24c:	a0 e0       	ldi	r26, 0x00	; 0
     24e:	b2 e0       	ldi	r27, 0x02	; 2
     250:	e0 e0       	ldi	r30, 0x00	; 0
     252:	f2 e0       	ldi	r31, 0x02	; 2
     254:	80 a1       	ldd	r24, Z+32	; 0x20
     256:	80 68       	ori	r24, 0x80	; 128
     258:	90 96       	adiw	r26, 0x20	; 32
     25a:	8c 93       	st	X, r24
     25c:	90 97       	sbiw	r26, 0x20	; 32
	while(!ADCA.CH0.INTFLAGS);
     25e:	e0 e0       	ldi	r30, 0x00	; 0
     260:	f2 e0       	ldi	r31, 0x02	; 2
     262:	83 a1       	ldd	r24, Z+35	; 0x23
     264:	88 23       	and	r24, r24
     266:	d9 f3       	breq	.-10     	; 0x25e <AdcRead+0x1a>
//	ADCA.CH0.RES = 0;
	return ADCA.CH0RES;
     268:	e0 e0       	ldi	r30, 0x00	; 0
     26a:	f2 e0       	ldi	r31, 0x02	; 2
     26c:	80 89       	ldd	r24, Z+16	; 0x10
     26e:	91 89       	ldd	r25, Z+17	; 0x11
}
     270:	cf 91       	pop	r28
     272:	df 91       	pop	r29
     274:	08 95       	ret

00000276 <ReadCalibrationByte>:

uint8_t ReadCalibrationByte( uint8_t index )
{
     276:	df 93       	push	r29
     278:	cf 93       	push	r28
     27a:	cd b7       	in	r28, 0x3d	; 61
     27c:	de b7       	in	r29, 0x3e	; 62
     27e:	25 97       	sbiw	r28, 0x05	; 5
     280:	cd bf       	out	0x3d, r28	; 61
     282:	de bf       	out	0x3e, r29	; 62
     284:	8d 83       	std	Y+5, r24	; 0x05
uint8_t result;

/* Load the NVM Command register to read the calibration row. */
NVM_CMD = NVM_CMD_READ_CALIB_ROW_gc;
     286:	ea ec       	ldi	r30, 0xCA	; 202
     288:	f1 e0       	ldi	r31, 0x01	; 1
     28a:	82 e0       	ldi	r24, 0x02	; 2
     28c:	80 83       	st	Z, r24
result = pgm_read_byte(index);
     28e:	8d 81       	ldd	r24, Y+5	; 0x05
     290:	88 2f       	mov	r24, r24
     292:	90 e0       	ldi	r25, 0x00	; 0
     294:	8a 83       	std	Y+2, r24	; 0x02
     296:	9b 83       	std	Y+3, r25	; 0x03
     298:	ea 81       	ldd	r30, Y+2	; 0x02
     29a:	fb 81       	ldd	r31, Y+3	; 0x03
     29c:	84 91       	lpm	r24, Z+
     29e:	89 83       	std	Y+1, r24	; 0x01
     2a0:	89 81       	ldd	r24, Y+1	; 0x01
     2a2:	8c 83       	std	Y+4, r24	; 0x04

/* Clean up NVM Command register. */
NVM_CMD = NVM_CMD_NO_OPERATION_gc;
     2a4:	ea ec       	ldi	r30, 0xCA	; 202
     2a6:	f1 e0       	ldi	r31, 0x01	; 1
     2a8:	10 82       	st	Z, r1

return( result );
     2aa:	8c 81       	ldd	r24, Y+4	; 0x04
}
     2ac:	25 96       	adiw	r28, 0x05	; 5
     2ae:	cd bf       	out	0x3d, r28	; 61
     2b0:	de bf       	out	0x3e, r29	; 62
     2b2:	cf 91       	pop	r28
     2b4:	df 91       	pop	r29
     2b6:	08 95       	ret

000002b8 <AdcBuffer>:

void AdcBuffer(void)
{
     2b8:	0f 93       	push	r16
     2ba:	1f 93       	push	r17
     2bc:	df 93       	push	r29
     2be:	cf 93       	push	r28
     2c0:	cd b7       	in	r28, 0x3d	; 61
     2c2:	de b7       	in	r29, 0x3e	; 62
	if (ADCindex == 0)
     2c4:	80 91 23 22 	lds	r24, 0x2223
     2c8:	88 23       	and	r24, r24
     2ca:	51 f4       	brne	.+20     	; 0x2e0 <AdcBuffer+0x28>
	{
		ADCA.CH0.MUXCTRL = 0;
     2cc:	e0 e0       	ldi	r30, 0x00	; 0
     2ce:	f2 e0       	ldi	r31, 0x02	; 2
     2d0:	11 a2       	std	Z+33, r1	; 0x21
		AdcResult[0] = AdcRead();
     2d2:	0e 94 22 01 	call	0x244	; 0x244 <AdcRead>
     2d6:	80 93 40 21 	sts	0x2140, r24
     2da:	90 93 41 21 	sts	0x2141, r25
     2de:	74 c0       	rjmp	.+232    	; 0x3c8 <AdcBuffer+0x110>
	}
	else if (ADCindex == 1)
     2e0:	80 91 23 22 	lds	r24, 0x2223
     2e4:	81 30       	cpi	r24, 0x01	; 1
     2e6:	59 f4       	brne	.+22     	; 0x2fe <AdcBuffer+0x46>
	{
		ADCA.CH0.MUXCTRL = 8;
     2e8:	e0 e0       	ldi	r30, 0x00	; 0
     2ea:	f2 e0       	ldi	r31, 0x02	; 2
     2ec:	88 e0       	ldi	r24, 0x08	; 8
     2ee:	81 a3       	std	Z+33, r24	; 0x21
		AdcResult[1] = AdcRead();
     2f0:	0e 94 22 01 	call	0x244	; 0x244 <AdcRead>
     2f4:	80 93 42 21 	sts	0x2142, r24
     2f8:	90 93 43 21 	sts	0x2143, r25
     2fc:	65 c0       	rjmp	.+202    	; 0x3c8 <AdcBuffer+0x110>
	}
	else if (ADCindex == 2)
     2fe:	80 91 23 22 	lds	r24, 0x2223
     302:	82 30       	cpi	r24, 0x02	; 2
     304:	59 f4       	brne	.+22     	; 0x31c <AdcBuffer+0x64>
	{
		ADCA.CH0.MUXCTRL = 16;
     306:	e0 e0       	ldi	r30, 0x00	; 0
     308:	f2 e0       	ldi	r31, 0x02	; 2
     30a:	80 e1       	ldi	r24, 0x10	; 16
     30c:	81 a3       	std	Z+33, r24	; 0x21
		AdcResult[2] = AdcRead();
     30e:	0e 94 22 01 	call	0x244	; 0x244 <AdcRead>
     312:	80 93 44 21 	sts	0x2144, r24
     316:	90 93 45 21 	sts	0x2145, r25
     31a:	56 c0       	rjmp	.+172    	; 0x3c8 <AdcBuffer+0x110>
	}
	else if (ADCindex == 3)
     31c:	80 91 23 22 	lds	r24, 0x2223
     320:	83 30       	cpi	r24, 0x03	; 3
     322:	59 f4       	brne	.+22     	; 0x33a <AdcBuffer+0x82>
	{
		ADCA.CH0.MUXCTRL = 24;
     324:	e0 e0       	ldi	r30, 0x00	; 0
     326:	f2 e0       	ldi	r31, 0x02	; 2
     328:	88 e1       	ldi	r24, 0x18	; 24
     32a:	81 a3       	std	Z+33, r24	; 0x21
		AdcResult[3] = AdcRead();
     32c:	0e 94 22 01 	call	0x244	; 0x244 <AdcRead>
     330:	80 93 46 21 	sts	0x2146, r24
     334:	90 93 47 21 	sts	0x2147, r25
     338:	47 c0       	rjmp	.+142    	; 0x3c8 <AdcBuffer+0x110>
	}
	else if (ADCindex == 4)
     33a:	80 91 23 22 	lds	r24, 0x2223
     33e:	84 30       	cpi	r24, 0x04	; 4
     340:	a1 f4       	brne	.+40     	; 0x36a <AdcBuffer+0xb2>
	{
		ADCA.CH0.MUXCTRL = 32;
     342:	e0 e0       	ldi	r30, 0x00	; 0
     344:	f2 e0       	ldi	r31, 0x02	; 2
     346:	80 e2       	ldi	r24, 0x20	; 32
     348:	81 a3       	std	Z+33, r24	; 0x21
		AdcResult[ADCindex] = AdcRead();
     34a:	80 91 23 22 	lds	r24, 0x2223
     34e:	08 2f       	mov	r16, r24
     350:	10 e0       	ldi	r17, 0x00	; 0
     352:	0e 94 22 01 	call	0x244	; 0x244 <AdcRead>
     356:	9c 01       	movw	r18, r24
     358:	c8 01       	movw	r24, r16
     35a:	88 0f       	add	r24, r24
     35c:	99 1f       	adc	r25, r25
     35e:	fc 01       	movw	r30, r24
     360:	e0 5c       	subi	r30, 0xC0	; 192
     362:	fe 4d       	sbci	r31, 0xDE	; 222
     364:	20 83       	st	Z, r18
     366:	31 83       	std	Z+1, r19	; 0x01
     368:	2f c0       	rjmp	.+94     	; 0x3c8 <AdcBuffer+0x110>
	}
	else if (ADCindex == 5)
     36a:	80 91 23 22 	lds	r24, 0x2223
     36e:	85 30       	cpi	r24, 0x05	; 5
     370:	a1 f4       	brne	.+40     	; 0x39a <AdcBuffer+0xe2>
	{
		ADCA.CH0.MUXCTRL = 40;
     372:	e0 e0       	ldi	r30, 0x00	; 0
     374:	f2 e0       	ldi	r31, 0x02	; 2
     376:	88 e2       	ldi	r24, 0x28	; 40
     378:	81 a3       	std	Z+33, r24	; 0x21
		AdcResult[ADCindex] = AdcRead();
     37a:	80 91 23 22 	lds	r24, 0x2223
     37e:	08 2f       	mov	r16, r24
     380:	10 e0       	ldi	r17, 0x00	; 0
     382:	0e 94 22 01 	call	0x244	; 0x244 <AdcRead>
     386:	9c 01       	movw	r18, r24
     388:	c8 01       	movw	r24, r16
     38a:	88 0f       	add	r24, r24
     38c:	99 1f       	adc	r25, r25
     38e:	fc 01       	movw	r30, r24
     390:	e0 5c       	subi	r30, 0xC0	; 192
     392:	fe 4d       	sbci	r31, 0xDE	; 222
     394:	20 83       	st	Z, r18
     396:	31 83       	std	Z+1, r19	; 0x01
     398:	17 c0       	rjmp	.+46     	; 0x3c8 <AdcBuffer+0x110>
	}
	else if (ADCindex == 6)
     39a:	80 91 23 22 	lds	r24, 0x2223
     39e:	86 30       	cpi	r24, 0x06	; 6
     3a0:	99 f4       	brne	.+38     	; 0x3c8 <AdcBuffer+0x110>
	{
		ADCA.CH0.MUXCTRL = 48;
     3a2:	e0 e0       	ldi	r30, 0x00	; 0
     3a4:	f2 e0       	ldi	r31, 0x02	; 2
     3a6:	80 e3       	ldi	r24, 0x30	; 48
     3a8:	81 a3       	std	Z+33, r24	; 0x21
		AdcResult[ADCindex] = AdcRead();
     3aa:	80 91 23 22 	lds	r24, 0x2223
     3ae:	08 2f       	mov	r16, r24
     3b0:	10 e0       	ldi	r17, 0x00	; 0
     3b2:	0e 94 22 01 	call	0x244	; 0x244 <AdcRead>
     3b6:	9c 01       	movw	r18, r24
     3b8:	c8 01       	movw	r24, r16
     3ba:	88 0f       	add	r24, r24
     3bc:	99 1f       	adc	r25, r25
     3be:	fc 01       	movw	r30, r24
     3c0:	e0 5c       	subi	r30, 0xC0	; 192
     3c2:	fe 4d       	sbci	r31, 0xDE	; 222
     3c4:	20 83       	st	Z, r18
     3c6:	31 83       	std	Z+1, r19	; 0x01
	}
}
     3c8:	cf 91       	pop	r28
     3ca:	df 91       	pop	r29
     3cc:	1f 91       	pop	r17
     3ce:	0f 91       	pop	r16
     3d0:	08 95       	ret

000003d2 <setClockTo32MHz>:
#include <avr\pgmspace.h>
#include "usart.h"
#include "Adc.h"

void setClockTo32MHz(void)
{
     3d2:	df 93       	push	r29
     3d4:	cf 93       	push	r28
     3d6:	cd b7       	in	r28, 0x3d	; 61
     3d8:	de b7       	in	r29, 0x3e	; 62
    CCP = CCP_IOREG_gc;              // disable register security for oscillator update
     3da:	e4 e3       	ldi	r30, 0x34	; 52
     3dc:	f0 e0       	ldi	r31, 0x00	; 0
     3de:	88 ed       	ldi	r24, 0xD8	; 216
     3e0:	80 83       	st	Z, r24
    OSC.CTRL = OSC_RC32MEN_bm;       // enable 32MHz oscillator
     3e2:	e0 e5       	ldi	r30, 0x50	; 80
     3e4:	f0 e0       	ldi	r31, 0x00	; 0
     3e6:	82 e0       	ldi	r24, 0x02	; 2
     3e8:	80 83       	st	Z, r24
    while(!(OSC.STATUS & OSC_RC32MRDY_bm)); // wait for oscillator to be ready
     3ea:	e0 e5       	ldi	r30, 0x50	; 80
     3ec:	f0 e0       	ldi	r31, 0x00	; 0
     3ee:	81 81       	ldd	r24, Z+1	; 0x01
     3f0:	88 2f       	mov	r24, r24
     3f2:	90 e0       	ldi	r25, 0x00	; 0
     3f4:	82 70       	andi	r24, 0x02	; 2
     3f6:	90 70       	andi	r25, 0x00	; 0
     3f8:	00 97       	sbiw	r24, 0x00	; 0
     3fa:	b9 f3       	breq	.-18     	; 0x3ea <setClockTo32MHz+0x18>
    CCP = CCP_IOREG_gc;              // disable register security for clock update
     3fc:	e4 e3       	ldi	r30, 0x34	; 52
     3fe:	f0 e0       	ldi	r31, 0x00	; 0
     400:	88 ed       	ldi	r24, 0xD8	; 216
     402:	80 83       	st	Z, r24
    CLK.CTRL = CLK_SCLKSEL_RC32M_gc; // switch to 32MHz clock
     404:	e0 e4       	ldi	r30, 0x40	; 64
     406:	f0 e0       	ldi	r31, 0x00	; 0
     408:	81 e0       	ldi	r24, 0x01	; 1
     40a:	80 83       	st	Z, r24
}
     40c:	cf 91       	pop	r28
     40e:	df 91       	pop	r29
     410:	08 95       	ret

00000412 <TimerConfing>:

void TimerConfing(void)
{
     412:	df 93       	push	r29
     414:	cf 93       	push	r28
     416:	cd b7       	in	r28, 0x3d	; 61
     418:	de b7       	in	r29, 0x3e	; 62
	/*timer0 E0*/

		TCE0.CTRLA = TC_CLKSEL_DIV8_gc;
     41a:	e0 e0       	ldi	r30, 0x00	; 0
     41c:	fa e0       	ldi	r31, 0x0A	; 10
     41e:	84 e0       	ldi	r24, 0x04	; 4
     420:	80 83       	st	Z, r24
		TCE0.CTRLB = TC_WGMODE_SS_gc | TC0_CCAEN_bm | TC0_CCBEN_bm | TC0_CCCEN_bm | TC0_CCDEN_bm; /*SS mode and OCn output ABCD enable*/
     422:	e0 e0       	ldi	r30, 0x00	; 0
     424:	fa e0       	ldi	r31, 0x0A	; 10
     426:	83 ef       	ldi	r24, 0xF3	; 243
     428:	81 83       	std	Z+1, r24	; 0x01
		TCE0.PER = 1023; /* 10 bit PWM*/
     42a:	e0 e0       	ldi	r30, 0x00	; 0
     42c:	fa e0       	ldi	r31, 0x0A	; 10
     42e:	8f ef       	ldi	r24, 0xFF	; 255
     430:	93 e0       	ldi	r25, 0x03	; 3
     432:	86 a3       	std	Z+38, r24	; 0x26
     434:	97 a3       	std	Z+39, r25	; 0x27
//		TCE0.CCABUF  = 512; /*compare register A*/
//		TCE0.CCBBUF  = 512; /*compare register B*/
		TCE0.CCCBUF  = 512; /*compare register C*/
     436:	e0 e0       	ldi	r30, 0x00	; 0
     438:	fa e0       	ldi	r31, 0x0A	; 10
     43a:	80 e0       	ldi	r24, 0x00	; 0
     43c:	92 e0       	ldi	r25, 0x02	; 2
     43e:	84 af       	std	Z+60, r24	; 0x3c
     440:	95 af       	std	Z+61, r25	; 0x3d
//		TCF0.CCABUF  = 512;
//		TCF0.CCBBUF  = 512;
//		TCF0.CCCBUF  = 512;
//
	/*timer C1 */
		TCC1.CTRLA = TC_CLKSEL_DIV256_gc;
     442:	e0 e4       	ldi	r30, 0x40	; 64
     444:	f8 e0       	ldi	r31, 0x08	; 8
     446:	86 e0       	ldi	r24, 0x06	; 6
     448:	80 83       	st	Z, r24
		TCC1.CTRLB = TC_WGMODE_NORMAL_gc;
     44a:	e0 e4       	ldi	r30, 0x40	; 64
     44c:	f8 e0       	ldi	r31, 0x08	; 8
     44e:	11 82       	std	Z+1, r1	; 0x01
		TCC1.INTCTRLA = TC_OVFINTLVL_MED_gc; //TC_OVFINTLVL_HI_gc;
     450:	e0 e4       	ldi	r30, 0x40	; 64
     452:	f8 e0       	ldi	r31, 0x08	; 8
     454:	82 e0       	ldi	r24, 0x02	; 2
     456:	86 83       	std	Z+6, r24	; 0x06
		TCC1.CNT = 65235 ;
     458:	e0 e4       	ldi	r30, 0x40	; 64
     45a:	f8 e0       	ldi	r31, 0x08	; 8
     45c:	83 ed       	ldi	r24, 0xD3	; 211
     45e:	9e ef       	ldi	r25, 0xFE	; 254
     460:	80 a3       	std	Z+32, r24	; 0x20
     462:	91 a3       	std	Z+33, r25	; 0x21
	/*timer C0 */
	//	TCC0.CTRLA = TC_CLKSEL_DIV256_gc;
	//	TCC0.CTRLB = TC_WGMODE_NORMAL_gc;
	//	TCC0.INTCTRLA = TC_OVFINTLVL_LO_gc;
	//	TCC0.CNT = 65235;
}
     464:	cf 91       	pop	r28
     466:	df 91       	pop	r29
     468:	08 95       	ret

0000046a <PortConfing>:

void PortConfing(void)
{
     46a:	df 93       	push	r29
     46c:	cf 93       	push	r28
     46e:	cd b7       	in	r28, 0x3d	; 61
     470:	de b7       	in	r29, 0x3e	; 62
	PORTA_DIR = 0;
     472:	e0 e0       	ldi	r30, 0x00	; 0
     474:	f6 e0       	ldi	r31, 0x06	; 6
     476:	10 82       	st	Z, r1
	PORTD_DIR = 255;
     478:	e0 e6       	ldi	r30, 0x60	; 96
     47a:	f6 e0       	ldi	r31, 0x06	; 6
     47c:	8f ef       	ldi	r24, 0xFF	; 255
     47e:	80 83       	st	Z, r24
	PORTE_DIR = 255;/* PWM */
     480:	e0 e8       	ldi	r30, 0x80	; 128
     482:	f6 e0       	ldi	r31, 0x06	; 6
     484:	8f ef       	ldi	r24, 0xFF	; 255
     486:	80 83       	st	Z, r24
	PORTF_DIR = 0b00011111; /* PWM */
     488:	e0 ea       	ldi	r30, 0xA0	; 160
     48a:	f6 e0       	ldi	r31, 0x06	; 6
     48c:	8f e1       	ldi	r24, 0x1F	; 31
     48e:	80 83       	st	Z, r24
	PORTH_DIR = 0; /* ENCODER */
     490:	e0 ee       	ldi	r30, 0xE0	; 224
     492:	f6 e0       	ldi	r31, 0x06	; 6
     494:	10 82       	st	Z, r1
	PORTJ_DIR = 0; /* ENCODER */
     496:	e0 e0       	ldi	r30, 0x00	; 0
     498:	f7 e0       	ldi	r31, 0x07	; 7
     49a:	10 82       	st	Z, r1
	PORTK_DIR = 0b00111111;
     49c:	e0 e2       	ldi	r30, 0x20	; 32
     49e:	f7 e0       	ldi	r31, 0x07	; 7
     4a0:	8f e3       	ldi	r24, 0x3F	; 63
     4a2:	80 83       	st	Z, r24
	PORTR_DIR = 1;
     4a4:	e0 ee       	ldi	r30, 0xE0	; 224
     4a6:	f7 e0       	ldi	r31, 0x07	; 7
     4a8:	81 e0       	ldi	r24, 0x01	; 1
     4aa:	80 83       	st	Z, r24
	PORTQ_DIR = 15; /* PORTQ - Out */
     4ac:	e0 ec       	ldi	r30, 0xC0	; 192
     4ae:	f7 e0       	ldi	r31, 0x07	; 7
     4b0:	8f e0       	ldi	r24, 0x0F	; 15
     4b2:	80 83       	st	Z, r24
	PORTC_OUTCLR = PIN6_bm;
     4b4:	e6 e4       	ldi	r30, 0x46	; 70
     4b6:	f6 e0       	ldi	r31, 0x06	; 6
     4b8:	80 e4       	ldi	r24, 0x40	; 64
     4ba:	80 83       	st	Z, r24
	PORTC_OUTSET = PIN7_bm;
     4bc:	e5 e4       	ldi	r30, 0x45	; 69
     4be:	f6 e0       	ldi	r31, 0x06	; 6
     4c0:	80 e8       	ldi	r24, 0x80	; 128
     4c2:	80 83       	st	Z, r24
	PORTC_DIRSET = PIN7_bm;
     4c4:	e1 e4       	ldi	r30, 0x41	; 65
     4c6:	f6 e0       	ldi	r31, 0x06	; 6
     4c8:	80 e8       	ldi	r24, 0x80	; 128
     4ca:	80 83       	st	Z, r24

	PORTR_OUT = 0;
     4cc:	e4 ee       	ldi	r30, 0xE4	; 228
     4ce:	f7 e0       	ldi	r31, 0x07	; 7
     4d0:	10 82       	st	Z, r1
	PORTD_OUT = 255;
     4d2:	e4 e6       	ldi	r30, 0x64	; 100
     4d4:	f6 e0       	ldi	r31, 0x06	; 6
     4d6:	8f ef       	ldi	r24, 0xFF	; 255
     4d8:	80 83       	st	Z, r24
	PORTE_OUT = 255;
     4da:	e4 e8       	ldi	r30, 0x84	; 132
     4dc:	f6 e0       	ldi	r31, 0x06	; 6
     4de:	8f ef       	ldi	r24, 0xFF	; 255
     4e0:	80 83       	st	Z, r24
	PORTF_OUT = 31;
     4e2:	e4 ea       	ldi	r30, 0xA4	; 164
     4e4:	f6 e0       	ldi	r31, 0x06	; 6
     4e6:	8f e1       	ldi	r24, 0x1F	; 31
     4e8:	80 83       	st	Z, r24
//	PORTD_OUTSET = PIN0_bm;
	//PORTD_OUTSET = PIN1_bm;



	PORTF.PIN6CTRL = PORT_OPC_PULLUP_gc;
     4ea:	e0 ea       	ldi	r30, 0xA0	; 160
     4ec:	f6 e0       	ldi	r31, 0x06	; 6
     4ee:	88 e1       	ldi	r24, 0x18	; 24
     4f0:	86 8b       	std	Z+22, r24	; 0x16
	PORTF.PIN7CTRL = PORT_OPC_PULLUP_gc;
     4f2:	e0 ea       	ldi	r30, 0xA0	; 160
     4f4:	f6 e0       	ldi	r31, 0x06	; 6
     4f6:	88 e1       	ldi	r24, 0x18	; 24
     4f8:	87 8b       	std	Z+23, r24	; 0x17
	PORTK.PIN7CTRL = PORT_OPC_PULLUP_gc;
     4fa:	e0 e2       	ldi	r30, 0x20	; 32
     4fc:	f7 e0       	ldi	r31, 0x07	; 7
     4fe:	88 e1       	ldi	r24, 0x18	; 24
     500:	87 8b       	std	Z+23, r24	; 0x17
	PORTK.PIN6CTRL = PORT_OPC_PULLUP_gc;
     502:	e0 e2       	ldi	r30, 0x20	; 32
     504:	f7 e0       	ldi	r31, 0x07	; 7
     506:	88 e1       	ldi	r24, 0x18	; 24
     508:	86 8b       	std	Z+22, r24	; 0x16

}
     50a:	cf 91       	pop	r28
     50c:	df 91       	pop	r29
     50e:	08 95       	ret

00000510 <InterruptConfing>:

void InterruptConfing(void)
{
     510:	df 93       	push	r29
     512:	cf 93       	push	r28
     514:	cd b7       	in	r28, 0x3d	; 61
     516:	de b7       	in	r29, 0x3e	; 62
	PORTH_PIN1CTRL = PORT_ISC_RISING_gc;
     518:	e1 ef       	ldi	r30, 0xF1	; 241
     51a:	f6 e0       	ldi	r31, 0x06	; 6
     51c:	81 e0       	ldi	r24, 0x01	; 1
     51e:	80 83       	st	Z, r24
	PORTH_PIN5CTRL = PORT_ISC_RISING_gc;
     520:	e5 ef       	ldi	r30, 0xF5	; 245
     522:	f6 e0       	ldi	r31, 0x06	; 6
     524:	81 e0       	ldi	r24, 0x01	; 1
     526:	80 83       	st	Z, r24
	PORTH_PIN2CTRL = PORT_ISC_RISING_gc;
     528:	e2 ef       	ldi	r30, 0xF2	; 242
     52a:	f6 e0       	ldi	r31, 0x06	; 6
     52c:	81 e0       	ldi	r24, 0x01	; 1
     52e:	80 83       	st	Z, r24

	PORTJ_PIN5CTRL = PORT_ISC_RISING_gc; /* Configure interrupts on rising edge*/
     530:	e5 e1       	ldi	r30, 0x15	; 21
     532:	f7 e0       	ldi	r31, 0x07	; 7
     534:	81 e0       	ldi	r24, 0x01	; 1
     536:	80 83       	st	Z, r24
	PORTJ_PIN1CTRL = PORT_ISC_RISING_gc;
     538:	e1 e1       	ldi	r30, 0x11	; 17
     53a:	f7 e0       	ldi	r31, 0x07	; 7
     53c:	81 e0       	ldi	r24, 0x01	; 1
     53e:	80 83       	st	Z, r24
	PORTJ_PIN2CTRL = PORT_ISC_RISING_gc;
     540:	e2 e1       	ldi	r30, 0x12	; 18
     542:	f7 e0       	ldi	r31, 0x07	; 7
     544:	81 e0       	ldi	r24, 0x01	; 1
     546:	80 83       	st	Z, r24

	PORTH_INT0MASK = 0b00100110; /* 0 - 5  pins can be source of interrupt*/
     548:	ea ee       	ldi	r30, 0xEA	; 234
     54a:	f6 e0       	ldi	r31, 0x06	; 6
     54c:	86 e2       	ldi	r24, 0x26	; 38
     54e:	80 83       	st	Z, r24
	PORTJ_INT0MASK = 0b00100110;
     550:	ea e0       	ldi	r30, 0x0A	; 10
     552:	f7 e0       	ldi	r31, 0x07	; 7
     554:	86 e2       	ldi	r24, 0x26	; 38
     556:	80 83       	st	Z, r24

	PORTH_INTCTRL = PORT_INT0LVL_MED_gc; /*Interrupt 0 high lvl*/
     558:	e9 ee       	ldi	r30, 0xE9	; 233
     55a:	f6 e0       	ldi	r31, 0x06	; 6
     55c:	82 e0       	ldi	r24, 0x02	; 2
     55e:	80 83       	st	Z, r24
	PORTJ_INTCTRL = PORT_INT0LVL_MED_gc;
     560:	e9 e0       	ldi	r30, 0x09	; 9
     562:	f7 e0       	ldi	r31, 0x07	; 7
     564:	82 e0       	ldi	r24, 0x02	; 2
     566:	80 83       	st	Z, r24

	PMIC.CTRL = PMIC_HILVLEN_bm | PMIC_MEDLVLEN_bm | PMIC_LOLVLEN_bm; /*Enable in PMIC register all types of interrupt*/
     568:	e0 ea       	ldi	r30, 0xA0	; 160
     56a:	f0 e0       	ldi	r31, 0x00	; 0
     56c:	87 e0       	ldi	r24, 0x07	; 7
     56e:	82 83       	std	Z+2, r24	; 0x02
}
     570:	cf 91       	pop	r28
     572:	df 91       	pop	r29
     574:	08 95       	ret

00000576 <UsartInit>:

void UsartInit(void)
{
     576:	0f 93       	push	r16
     578:	1f 93       	push	r17
     57a:	df 93       	push	r29
     57c:	cf 93       	push	r28
     57e:	cd b7       	in	r28, 0x3d	; 61
     580:	de b7       	in	r29, 0x3e	; 62
	PORTC.OUTSET = PIN7_bm; /*Enable corresponding pins as digital ports*/
     582:	e0 e4       	ldi	r30, 0x40	; 64
     584:	f6 e0       	ldi	r31, 0x06	; 6
     586:	80 e8       	ldi	r24, 0x80	; 128
     588:	85 83       	std	Z+5, r24	; 0x05
	PORTC.DIRSET = PIN7_bm;
     58a:	e0 e4       	ldi	r30, 0x40	; 64
     58c:	f6 e0       	ldi	r31, 0x06	; 6
     58e:	80 e8       	ldi	r24, 0x80	; 128
     590:	81 83       	std	Z+1, r24	; 0x01
	USARTC1.CTRLA = USART_RXCINTLVL_MED_gc; /*RX interrupt set as medium lvl*/
     592:	e0 eb       	ldi	r30, 0xB0	; 176
     594:	f8 e0       	ldi	r31, 0x08	; 8
     596:	80 e2       	ldi	r24, 0x20	; 32
     598:	83 83       	std	Z+3, r24	; 0x03
	USARTC1.CTRLB = USART_TXEN_bm | USART_RXEN_bm; /*Enable RX and TX*/
     59a:	e0 eb       	ldi	r30, 0xB0	; 176
     59c:	f8 e0       	ldi	r31, 0x08	; 8
     59e:	88 e1       	ldi	r24, 0x18	; 24
     5a0:	84 83       	std	Z+4, r24	; 0x04
	USARTC1.CTRLC = USART_CHSIZE_8BIT_gc; /*8 - bit transmission*/
     5a2:	e0 eb       	ldi	r30, 0xB0	; 176
     5a4:	f8 e0       	ldi	r31, 0x08	; 8
     5a6:	83 e0       	ldi	r24, 0x03	; 3
     5a8:	85 83       	std	Z+5, r24	; 0x05
	usart_set_baudrate(&USARTC1, 9600, 32000000); /* Selecting USART, baud and Fosc*/
     5aa:	80 eb       	ldi	r24, 0xB0	; 176
     5ac:	98 e0       	ldi	r25, 0x08	; 8
     5ae:	40 e8       	ldi	r20, 0x80	; 128
     5b0:	55 e2       	ldi	r21, 0x25	; 37
     5b2:	60 e0       	ldi	r22, 0x00	; 0
     5b4:	70 e0       	ldi	r23, 0x00	; 0
     5b6:	00 e0       	ldi	r16, 0x00	; 0
     5b8:	18 e4       	ldi	r17, 0x48	; 72
     5ba:	28 ee       	ldi	r18, 0xE8	; 232
     5bc:	31 e0       	ldi	r19, 0x01	; 1
     5be:	0e 94 cb 1d 	call	0x3b96	; 0x3b96 <usart_set_baudrate>
}
     5c2:	cf 91       	pop	r28
     5c4:	df 91       	pop	r29
     5c6:	1f 91       	pop	r17
     5c8:	0f 91       	pop	r16
     5ca:	08 95       	ret

000005cc <AdcConfig>:

void AdcConfig(void)
{
     5cc:	0f 93       	push	r16
     5ce:	1f 93       	push	r17
     5d0:	df 93       	push	r29
     5d2:	cf 93       	push	r28
     5d4:	cd b7       	in	r28, 0x3d	; 61
     5d6:	de b7       	in	r29, 0x3e	; 62
	ADCA.CALL = ReadCalibrationByte( offsetof(NVM_PROD_SIGNATURES_t, ADCACAL0) ); /*Calibration bits*/
     5d8:	00 e0       	ldi	r16, 0x00	; 0
     5da:	12 e0       	ldi	r17, 0x02	; 2
     5dc:	80 e2       	ldi	r24, 0x20	; 32
     5de:	0e 94 3b 01 	call	0x276	; 0x276 <ReadCalibrationByte>
     5e2:	f8 01       	movw	r30, r16
     5e4:	84 87       	std	Z+12, r24	; 0x0c
	ADCA.CALH = ReadCalibrationByte( offsetof(NVM_PROD_SIGNATURES_t, ADCACAL1) );
     5e6:	00 e0       	ldi	r16, 0x00	; 0
     5e8:	12 e0       	ldi	r17, 0x02	; 2
     5ea:	81 e2       	ldi	r24, 0x21	; 33
     5ec:	0e 94 3b 01 	call	0x276	; 0x276 <ReadCalibrationByte>
     5f0:	f8 01       	movw	r30, r16
     5f2:	85 87       	std	Z+13, r24	; 0x0d
	ADCA.CTRLA = ADC_ENABLE_bm;	 /* enable adc*/
     5f4:	e0 e0       	ldi	r30, 0x00	; 0
     5f6:	f2 e0       	ldi	r31, 0x02	; 2
     5f8:	81 e0       	ldi	r24, 0x01	; 1
     5fa:	80 83       	st	Z, r24
	ADCA.CTRLB = ADC_RESOLUTION_12BIT_gc | 96 ;	 /* 12 bit conversion */
     5fc:	e0 e0       	ldi	r30, 0x00	; 0
     5fe:	f2 e0       	ldi	r31, 0x02	; 2
     600:	80 e6       	ldi	r24, 0x60	; 96
     602:	81 83       	std	Z+1, r24	; 0x01
	ADCA.REFCTRL = ADC_REFSEL_VCC_gc;	 /* internal 1V bandgap reference */
     604:	e0 e0       	ldi	r30, 0x00	; 0
     606:	f2 e0       	ldi	r31, 0x02	; 2
     608:	80 e1       	ldi	r24, 0x10	; 16
     60a:	82 83       	std	Z+2, r24	; 0x02
	ADCA.PRESCALER = ADC_PRESCALER_DIV128_gc;	 /* peripheral clk/128 (32MHz/128=250kHz) */
     60c:	e0 e0       	ldi	r30, 0x00	; 0
     60e:	f2 e0       	ldi	r31, 0x02	; 2
     610:	85 e0       	ldi	r24, 0x05	; 5
     612:	84 83       	std	Z+4, r24	; 0x04
	ADCA.CH0.CTRL = ADC_CH_INPUTMODE_SINGLEENDED_gc;	 /* single ended mode*/
     614:	e0 e0       	ldi	r30, 0x00	; 0
     616:	f2 e0       	ldi	r31, 0x02	; 2
     618:	81 e0       	ldi	r24, 0x01	; 1
     61a:	80 a3       	std	Z+32, r24	; 0x20

}
     61c:	cf 91       	pop	r28
     61e:	df 91       	pop	r29
     620:	1f 91       	pop	r17
     622:	0f 91       	pop	r16
     624:	08 95       	ret

00000626 <ButtonState>:
//extern ZmiennePid Pid[2];
uint8_t Pidindex;
uint8_t iindex;

void ButtonState(void)
{
     626:	0f 93       	push	r16
     628:	1f 93       	push	r17
     62a:	df 93       	push	r29
     62c:	cf 93       	push	r28
     62e:	cd b7       	in	r28, 0x3d	; 61
     630:	de b7       	in	r29, 0x3e	; 62
     632:	cc 58       	subi	r28, 0x8C	; 140
     634:	d0 40       	sbci	r29, 0x00	; 0
     636:	cd bf       	out	0x3d, r28	; 61
     638:	de bf       	out	0x3e, r29	; 62
	static uint8_t Menulvl[3];
	if (ButtonWork == 0)
     63a:	80 91 30 21 	lds	r24, 0x2130
     63e:	88 23       	and	r24, r24
     640:	09 f0       	breq	.+2      	; 0x644 <ButtonState+0x1e>
     642:	7d c4       	rjmp	.+2298   	; 0xf3e <ButtonState+0x918>
	{
	if (ButtonUP) /*Button ->*/
     644:	e0 ea       	ldi	r30, 0xA0	; 160
     646:	f6 e0       	ldi	r31, 0x06	; 6
     648:	80 85       	ldd	r24, Z+8	; 0x08
     64a:	88 23       	and	r24, r24
     64c:	0c f4       	brge	.+2      	; 0x650 <ButtonState+0x2a>
     64e:	4d c2       	rjmp	.+1178   	; 0xaea <ButtonState+0x4c4>
     650:	fe 01       	movw	r30, r28
     652:	e7 57       	subi	r30, 0x77	; 119
     654:	ff 4f       	sbci	r31, 0xFF	; 255
     656:	80 e0       	ldi	r24, 0x00	; 0
     658:	90 e0       	ldi	r25, 0x00	; 0
     65a:	a0 ea       	ldi	r26, 0xA0	; 160
     65c:	b2 e4       	ldi	r27, 0x42	; 66
     65e:	80 83       	st	Z, r24
     660:	91 83       	std	Z+1, r25	; 0x01
     662:	a2 83       	std	Z+2, r26	; 0x02
     664:	b3 83       	std	Z+3, r27	; 0x03
 */
void
_delay_ms(double __ms)
{
	uint16_t __ticks;
	double __tmp = ((F_CPU) / 4e3) * __ms;
     666:	8e 01       	movw	r16, r28
     668:	0b 57       	subi	r16, 0x7B	; 123
     66a:	1f 4f       	sbci	r17, 0xFF	; 255
     66c:	fe 01       	movw	r30, r28
     66e:	e7 57       	subi	r30, 0x77	; 119
     670:	ff 4f       	sbci	r31, 0xFF	; 255
     672:	60 81       	ld	r22, Z
     674:	71 81       	ldd	r23, Z+1	; 0x01
     676:	82 81       	ldd	r24, Z+2	; 0x02
     678:	93 81       	ldd	r25, Z+3	; 0x03
     67a:	20 e0       	ldi	r18, 0x00	; 0
     67c:	30 e0       	ldi	r19, 0x00	; 0
     67e:	4a ef       	ldi	r20, 0xFA	; 250
     680:	55 e4       	ldi	r21, 0x45	; 69
     682:	0e 94 b6 22 	call	0x456c	; 0x456c <__mulsf3>
     686:	dc 01       	movw	r26, r24
     688:	cb 01       	movw	r24, r22
     68a:	f8 01       	movw	r30, r16
     68c:	80 83       	st	Z, r24
     68e:	91 83       	std	Z+1, r25	; 0x01
     690:	a2 83       	std	Z+2, r26	; 0x02
     692:	b3 83       	std	Z+3, r27	; 0x03
	if (__tmp < 1.0)
     694:	fe 01       	movw	r30, r28
     696:	eb 57       	subi	r30, 0x7B	; 123
     698:	ff 4f       	sbci	r31, 0xFF	; 255
     69a:	60 81       	ld	r22, Z
     69c:	71 81       	ldd	r23, Z+1	; 0x01
     69e:	82 81       	ldd	r24, Z+2	; 0x02
     6a0:	93 81       	ldd	r25, Z+3	; 0x03
     6a2:	20 e0       	ldi	r18, 0x00	; 0
     6a4:	30 e0       	ldi	r19, 0x00	; 0
     6a6:	40 e8       	ldi	r20, 0x80	; 128
     6a8:	5f e3       	ldi	r21, 0x3F	; 63
     6aa:	0e 94 bc 24 	call	0x4978	; 0x4978 <__ltsf2>
     6ae:	88 23       	and	r24, r24
     6b0:	44 f4       	brge	.+16     	; 0x6c2 <ButtonState+0x9c>
		__ticks = 1;
     6b2:	fe 01       	movw	r30, r28
     6b4:	ed 57       	subi	r30, 0x7D	; 125
     6b6:	ff 4f       	sbci	r31, 0xFF	; 255
     6b8:	81 e0       	ldi	r24, 0x01	; 1
     6ba:	90 e0       	ldi	r25, 0x00	; 0
     6bc:	80 83       	st	Z, r24
     6be:	91 83       	std	Z+1, r25	; 0x01
     6c0:	64 c0       	rjmp	.+200    	; 0x78a <ButtonState+0x164>
	else if (__tmp > 65535)
     6c2:	fe 01       	movw	r30, r28
     6c4:	eb 57       	subi	r30, 0x7B	; 123
     6c6:	ff 4f       	sbci	r31, 0xFF	; 255
     6c8:	60 81       	ld	r22, Z
     6ca:	71 81       	ldd	r23, Z+1	; 0x01
     6cc:	82 81       	ldd	r24, Z+2	; 0x02
     6ce:	93 81       	ldd	r25, Z+3	; 0x03
     6d0:	20 e0       	ldi	r18, 0x00	; 0
     6d2:	3f ef       	ldi	r19, 0xFF	; 255
     6d4:	4f e7       	ldi	r20, 0x7F	; 127
     6d6:	57 e4       	ldi	r21, 0x47	; 71
     6d8:	0e 94 5c 24 	call	0x48b8	; 0x48b8 <__gtsf2>
     6dc:	18 16       	cp	r1, r24
     6de:	0c f0       	brlt	.+2      	; 0x6e2 <ButtonState+0xbc>
     6e0:	43 c0       	rjmp	.+134    	; 0x768 <ButtonState+0x142>
	{
		//	__ticks = requested delay in 1/10 ms
		__ticks = (uint16_t) (__ms * 10.0);
     6e2:	fe 01       	movw	r30, r28
     6e4:	e7 57       	subi	r30, 0x77	; 119
     6e6:	ff 4f       	sbci	r31, 0xFF	; 255
     6e8:	60 81       	ld	r22, Z
     6ea:	71 81       	ldd	r23, Z+1	; 0x01
     6ec:	82 81       	ldd	r24, Z+2	; 0x02
     6ee:	93 81       	ldd	r25, Z+3	; 0x03
     6f0:	20 e0       	ldi	r18, 0x00	; 0
     6f2:	30 e0       	ldi	r19, 0x00	; 0
     6f4:	40 e2       	ldi	r20, 0x20	; 32
     6f6:	51 e4       	ldi	r21, 0x41	; 65
     6f8:	0e 94 b6 22 	call	0x456c	; 0x456c <__mulsf3>
     6fc:	dc 01       	movw	r26, r24
     6fe:	cb 01       	movw	r24, r22
     700:	8e 01       	movw	r16, r28
     702:	0d 57       	subi	r16, 0x7D	; 125
     704:	1f 4f       	sbci	r17, 0xFF	; 255
     706:	bc 01       	movw	r22, r24
     708:	cd 01       	movw	r24, r26
     70a:	0e 94 e0 20 	call	0x41c0	; 0x41c0 <__fixunssfsi>
     70e:	dc 01       	movw	r26, r24
     710:	cb 01       	movw	r24, r22
     712:	f8 01       	movw	r30, r16
     714:	80 83       	st	Z, r24
     716:	91 83       	std	Z+1, r25	; 0x01
     718:	1f c0       	rjmp	.+62     	; 0x758 <ButtonState+0x132>
     71a:	fe 01       	movw	r30, r28
     71c:	ef 57       	subi	r30, 0x7F	; 127
     71e:	ff 4f       	sbci	r31, 0xFF	; 255
     720:	80 e2       	ldi	r24, 0x20	; 32
     722:	93 e0       	ldi	r25, 0x03	; 3
     724:	80 83       	st	Z, r24
     726:	91 83       	std	Z+1, r25	; 0x01
    milliseconds can be achieved.
 */
void
_delay_loop_2(uint16_t __count)
{
	__asm__ volatile (
     728:	fe 01       	movw	r30, r28
     72a:	ef 57       	subi	r30, 0x7F	; 127
     72c:	ff 4f       	sbci	r31, 0xFF	; 255
     72e:	80 81       	ld	r24, Z
     730:	91 81       	ldd	r25, Z+1	; 0x01
     732:	01 97       	sbiw	r24, 0x01	; 1
     734:	f1 f7       	brne	.-4      	; 0x732 <ButtonState+0x10c>
     736:	fe 01       	movw	r30, r28
     738:	ef 57       	subi	r30, 0x7F	; 127
     73a:	ff 4f       	sbci	r31, 0xFF	; 255
     73c:	80 83       	st	Z, r24
     73e:	91 83       	std	Z+1, r25	; 0x01
		while(__ticks)
		{
			// wait 1/10 ms
			_delay_loop_2(((F_CPU) / 4e3) / 10);
			__ticks --;
     740:	de 01       	movw	r26, r28
     742:	ad 57       	subi	r26, 0x7D	; 125
     744:	bf 4f       	sbci	r27, 0xFF	; 255
     746:	fe 01       	movw	r30, r28
     748:	ed 57       	subi	r30, 0x7D	; 125
     74a:	ff 4f       	sbci	r31, 0xFF	; 255
     74c:	80 81       	ld	r24, Z
     74e:	91 81       	ldd	r25, Z+1	; 0x01
     750:	01 97       	sbiw	r24, 0x01	; 1
     752:	8d 93       	st	X+, r24
     754:	9c 93       	st	X, r25
     756:	11 97       	sbiw	r26, 0x01	; 1
		__ticks = 1;
	else if (__tmp > 65535)
	{
		//	__ticks = requested delay in 1/10 ms
		__ticks = (uint16_t) (__ms * 10.0);
		while(__ticks)
     758:	fe 01       	movw	r30, r28
     75a:	ed 57       	subi	r30, 0x7D	; 125
     75c:	ff 4f       	sbci	r31, 0xFF	; 255
     75e:	80 81       	ld	r24, Z
     760:	91 81       	ldd	r25, Z+1	; 0x01
     762:	00 97       	sbiw	r24, 0x00	; 0
     764:	d1 f6       	brne	.-76     	; 0x71a <ButtonState+0xf4>
     766:	28 c0       	rjmp	.+80     	; 0x7b8 <ButtonState+0x192>
			__ticks --;
		}
		return;
	}
	else
		__ticks = (uint16_t)__tmp;
     768:	8e 01       	movw	r16, r28
     76a:	0d 57       	subi	r16, 0x7D	; 125
     76c:	1f 4f       	sbci	r17, 0xFF	; 255
     76e:	fe 01       	movw	r30, r28
     770:	eb 57       	subi	r30, 0x7B	; 123
     772:	ff 4f       	sbci	r31, 0xFF	; 255
     774:	60 81       	ld	r22, Z
     776:	71 81       	ldd	r23, Z+1	; 0x01
     778:	82 81       	ldd	r24, Z+2	; 0x02
     77a:	93 81       	ldd	r25, Z+3	; 0x03
     77c:	0e 94 e0 20 	call	0x41c0	; 0x41c0 <__fixunssfsi>
     780:	dc 01       	movw	r26, r24
     782:	cb 01       	movw	r24, r22
     784:	f8 01       	movw	r30, r16
     786:	80 83       	st	Z, r24
     788:	91 83       	std	Z+1, r25	; 0x01
     78a:	de 01       	movw	r26, r28
     78c:	a1 58       	subi	r26, 0x81	; 129
     78e:	bf 4f       	sbci	r27, 0xFF	; 255
     790:	fe 01       	movw	r30, r28
     792:	ed 57       	subi	r30, 0x7D	; 125
     794:	ff 4f       	sbci	r31, 0xFF	; 255
     796:	80 81       	ld	r24, Z
     798:	91 81       	ldd	r25, Z+1	; 0x01
     79a:	8d 93       	st	X+, r24
     79c:	9c 93       	st	X, r25
     79e:	11 97       	sbiw	r26, 0x01	; 1
     7a0:	fe 01       	movw	r30, r28
     7a2:	e1 58       	subi	r30, 0x81	; 129
     7a4:	ff 4f       	sbci	r31, 0xFF	; 255
     7a6:	80 81       	ld	r24, Z
     7a8:	91 81       	ldd	r25, Z+1	; 0x01
     7aa:	01 97       	sbiw	r24, 0x01	; 1
     7ac:	f1 f7       	brne	.-4      	; 0x7aa <ButtonState+0x184>
     7ae:	fe 01       	movw	r30, r28
     7b0:	e1 58       	subi	r30, 0x81	; 129
     7b2:	ff 4f       	sbci	r31, 0xFF	; 255
     7b4:	80 83       	st	Z, r24
     7b6:	91 83       	std	Z+1, r25	; 0x01
	{
		_delay_ms(80);
		if (ButtonUP)
     7b8:	e0 ea       	ldi	r30, 0xA0	; 160
     7ba:	f6 e0       	ldi	r31, 0x06	; 6
     7bc:	80 85       	ldd	r24, Z+8	; 0x08
     7be:	88 23       	and	r24, r24
     7c0:	0c f4       	brge	.+2      	; 0x7c4 <ButtonState+0x19e>
     7c2:	bd c3       	rjmp	.+1914   	; 0xf3e <ButtonState+0x918>
		{
			if ( Menulvl[0] == 1 ) /*Main menu*/
     7c4:	80 91 31 21 	lds	r24, 0x2131
     7c8:	81 30       	cpi	r24, 0x01	; 1
     7ca:	09 f0       	breq	.+2      	; 0x7ce <ButtonState+0x1a8>
     7cc:	c5 c0       	rjmp	.+394    	; 0x958 <ButtonState+0x332>
			{
				Menulvl[1]++;
     7ce:	80 91 32 21 	lds	r24, 0x2132
     7d2:	8f 5f       	subi	r24, 0xFF	; 255
     7d4:	80 93 32 21 	sts	0x2132, r24
				if (Menulvl[1] == 8) Menulvl[1]=7;
     7d8:	80 91 32 21 	lds	r24, 0x2132
     7dc:	88 30       	cpi	r24, 0x08	; 8
     7de:	19 f4       	brne	.+6      	; 0x7e6 <ButtonState+0x1c0>
     7e0:	87 e0       	ldi	r24, 0x07	; 7
     7e2:	80 93 32 21 	sts	0x2132, r24
				LCDDisplay(Menulvl);
     7e6:	81 e3       	ldi	r24, 0x31	; 49
     7e8:	91 e2       	ldi	r25, 0x21	; 33
     7ea:	0e 94 c5 09 	call	0x138a	; 0x138a <LCDDisplay>
     7ee:	fe 01       	movw	r30, r28
     7f0:	e5 58       	subi	r30, 0x85	; 133
     7f2:	ff 4f       	sbci	r31, 0xFF	; 255
     7f4:	80 e0       	ldi	r24, 0x00	; 0
     7f6:	90 e0       	ldi	r25, 0x00	; 0
     7f8:	a8 e4       	ldi	r26, 0x48	; 72
     7fa:	b3 e4       	ldi	r27, 0x43	; 67
     7fc:	80 83       	st	Z, r24
     7fe:	91 83       	std	Z+1, r25	; 0x01
     800:	a2 83       	std	Z+2, r26	; 0x02
     802:	b3 83       	std	Z+3, r27	; 0x03
 */
void
_delay_ms(double __ms)
{
	uint16_t __ticks;
	double __tmp = ((F_CPU) / 4e3) * __ms;
     804:	8e 01       	movw	r16, r28
     806:	09 58       	subi	r16, 0x89	; 137
     808:	1f 4f       	sbci	r17, 0xFF	; 255
     80a:	fe 01       	movw	r30, r28
     80c:	e5 58       	subi	r30, 0x85	; 133
     80e:	ff 4f       	sbci	r31, 0xFF	; 255
     810:	60 81       	ld	r22, Z
     812:	71 81       	ldd	r23, Z+1	; 0x01
     814:	82 81       	ldd	r24, Z+2	; 0x02
     816:	93 81       	ldd	r25, Z+3	; 0x03
     818:	20 e0       	ldi	r18, 0x00	; 0
     81a:	30 e0       	ldi	r19, 0x00	; 0
     81c:	4a ef       	ldi	r20, 0xFA	; 250
     81e:	55 e4       	ldi	r21, 0x45	; 69
     820:	0e 94 b6 22 	call	0x456c	; 0x456c <__mulsf3>
     824:	dc 01       	movw	r26, r24
     826:	cb 01       	movw	r24, r22
     828:	f8 01       	movw	r30, r16
     82a:	80 83       	st	Z, r24
     82c:	91 83       	std	Z+1, r25	; 0x01
     82e:	a2 83       	std	Z+2, r26	; 0x02
     830:	b3 83       	std	Z+3, r27	; 0x03
	if (__tmp < 1.0)
     832:	fe 01       	movw	r30, r28
     834:	e9 58       	subi	r30, 0x89	; 137
     836:	ff 4f       	sbci	r31, 0xFF	; 255
     838:	60 81       	ld	r22, Z
     83a:	71 81       	ldd	r23, Z+1	; 0x01
     83c:	82 81       	ldd	r24, Z+2	; 0x02
     83e:	93 81       	ldd	r25, Z+3	; 0x03
     840:	20 e0       	ldi	r18, 0x00	; 0
     842:	30 e0       	ldi	r19, 0x00	; 0
     844:	40 e8       	ldi	r20, 0x80	; 128
     846:	5f e3       	ldi	r21, 0x3F	; 63
     848:	0e 94 bc 24 	call	0x4978	; 0x4978 <__ltsf2>
     84c:	88 23       	and	r24, r24
     84e:	44 f4       	brge	.+16     	; 0x860 <ButtonState+0x23a>
		__ticks = 1;
     850:	fe 01       	movw	r30, r28
     852:	eb 58       	subi	r30, 0x8B	; 139
     854:	ff 4f       	sbci	r31, 0xFF	; 255
     856:	81 e0       	ldi	r24, 0x01	; 1
     858:	90 e0       	ldi	r25, 0x00	; 0
     85a:	80 83       	st	Z, r24
     85c:	91 83       	std	Z+1, r25	; 0x01
     85e:	64 c0       	rjmp	.+200    	; 0x928 <ButtonState+0x302>
	else if (__tmp > 65535)
     860:	fe 01       	movw	r30, r28
     862:	e9 58       	subi	r30, 0x89	; 137
     864:	ff 4f       	sbci	r31, 0xFF	; 255
     866:	60 81       	ld	r22, Z
     868:	71 81       	ldd	r23, Z+1	; 0x01
     86a:	82 81       	ldd	r24, Z+2	; 0x02
     86c:	93 81       	ldd	r25, Z+3	; 0x03
     86e:	20 e0       	ldi	r18, 0x00	; 0
     870:	3f ef       	ldi	r19, 0xFF	; 255
     872:	4f e7       	ldi	r20, 0x7F	; 127
     874:	57 e4       	ldi	r21, 0x47	; 71
     876:	0e 94 5c 24 	call	0x48b8	; 0x48b8 <__gtsf2>
     87a:	18 16       	cp	r1, r24
     87c:	0c f0       	brlt	.+2      	; 0x880 <ButtonState+0x25a>
     87e:	43 c0       	rjmp	.+134    	; 0x906 <ButtonState+0x2e0>
	{
		//	__ticks = requested delay in 1/10 ms
		__ticks = (uint16_t) (__ms * 10.0);
     880:	fe 01       	movw	r30, r28
     882:	e5 58       	subi	r30, 0x85	; 133
     884:	ff 4f       	sbci	r31, 0xFF	; 255
     886:	60 81       	ld	r22, Z
     888:	71 81       	ldd	r23, Z+1	; 0x01
     88a:	82 81       	ldd	r24, Z+2	; 0x02
     88c:	93 81       	ldd	r25, Z+3	; 0x03
     88e:	20 e0       	ldi	r18, 0x00	; 0
     890:	30 e0       	ldi	r19, 0x00	; 0
     892:	40 e2       	ldi	r20, 0x20	; 32
     894:	51 e4       	ldi	r21, 0x41	; 65
     896:	0e 94 b6 22 	call	0x456c	; 0x456c <__mulsf3>
     89a:	dc 01       	movw	r26, r24
     89c:	cb 01       	movw	r24, r22
     89e:	8e 01       	movw	r16, r28
     8a0:	0b 58       	subi	r16, 0x8B	; 139
     8a2:	1f 4f       	sbci	r17, 0xFF	; 255
     8a4:	bc 01       	movw	r22, r24
     8a6:	cd 01       	movw	r24, r26
     8a8:	0e 94 e0 20 	call	0x41c0	; 0x41c0 <__fixunssfsi>
     8ac:	dc 01       	movw	r26, r24
     8ae:	cb 01       	movw	r24, r22
     8b0:	f8 01       	movw	r30, r16
     8b2:	80 83       	st	Z, r24
     8b4:	91 83       	std	Z+1, r25	; 0x01
     8b6:	1f c0       	rjmp	.+62     	; 0x8f6 <ButtonState+0x2d0>
     8b8:	fe 01       	movw	r30, r28
     8ba:	ed 58       	subi	r30, 0x8D	; 141
     8bc:	ff 4f       	sbci	r31, 0xFF	; 255
     8be:	80 e2       	ldi	r24, 0x20	; 32
     8c0:	93 e0       	ldi	r25, 0x03	; 3
     8c2:	80 83       	st	Z, r24
     8c4:	91 83       	std	Z+1, r25	; 0x01
     8c6:	fe 01       	movw	r30, r28
     8c8:	ed 58       	subi	r30, 0x8D	; 141
     8ca:	ff 4f       	sbci	r31, 0xFF	; 255
     8cc:	80 81       	ld	r24, Z
     8ce:	91 81       	ldd	r25, Z+1	; 0x01
     8d0:	01 97       	sbiw	r24, 0x01	; 1
     8d2:	f1 f7       	brne	.-4      	; 0x8d0 <ButtonState+0x2aa>
     8d4:	fe 01       	movw	r30, r28
     8d6:	ed 58       	subi	r30, 0x8D	; 141
     8d8:	ff 4f       	sbci	r31, 0xFF	; 255
     8da:	80 83       	st	Z, r24
     8dc:	91 83       	std	Z+1, r25	; 0x01
		while(__ticks)
		{
			// wait 1/10 ms
			_delay_loop_2(((F_CPU) / 4e3) / 10);
			__ticks --;
     8de:	de 01       	movw	r26, r28
     8e0:	ab 58       	subi	r26, 0x8B	; 139
     8e2:	bf 4f       	sbci	r27, 0xFF	; 255
     8e4:	fe 01       	movw	r30, r28
     8e6:	eb 58       	subi	r30, 0x8B	; 139
     8e8:	ff 4f       	sbci	r31, 0xFF	; 255
     8ea:	80 81       	ld	r24, Z
     8ec:	91 81       	ldd	r25, Z+1	; 0x01
     8ee:	01 97       	sbiw	r24, 0x01	; 1
     8f0:	8d 93       	st	X+, r24
     8f2:	9c 93       	st	X, r25
     8f4:	11 97       	sbiw	r26, 0x01	; 1
		__ticks = 1;
	else if (__tmp > 65535)
	{
		//	__ticks = requested delay in 1/10 ms
		__ticks = (uint16_t) (__ms * 10.0);
		while(__ticks)
     8f6:	fe 01       	movw	r30, r28
     8f8:	eb 58       	subi	r30, 0x8B	; 139
     8fa:	ff 4f       	sbci	r31, 0xFF	; 255
     8fc:	80 81       	ld	r24, Z
     8fe:	91 81       	ldd	r25, Z+1	; 0x01
     900:	00 97       	sbiw	r24, 0x00	; 0
     902:	d1 f6       	brne	.-76     	; 0x8b8 <ButtonState+0x292>
     904:	1c c3       	rjmp	.+1592   	; 0xf3e <ButtonState+0x918>
			__ticks --;
		}
		return;
	}
	else
		__ticks = (uint16_t)__tmp;
     906:	8e 01       	movw	r16, r28
     908:	0b 58       	subi	r16, 0x8B	; 139
     90a:	1f 4f       	sbci	r17, 0xFF	; 255
     90c:	fe 01       	movw	r30, r28
     90e:	e9 58       	subi	r30, 0x89	; 137
     910:	ff 4f       	sbci	r31, 0xFF	; 255
     912:	60 81       	ld	r22, Z
     914:	71 81       	ldd	r23, Z+1	; 0x01
     916:	82 81       	ldd	r24, Z+2	; 0x02
     918:	93 81       	ldd	r25, Z+3	; 0x03
     91a:	0e 94 e0 20 	call	0x41c0	; 0x41c0 <__fixunssfsi>
     91e:	dc 01       	movw	r26, r24
     920:	cb 01       	movw	r24, r22
     922:	f8 01       	movw	r30, r16
     924:	80 83       	st	Z, r24
     926:	91 83       	std	Z+1, r25	; 0x01
     928:	de 01       	movw	r26, r28
     92a:	af 58       	subi	r26, 0x8F	; 143
     92c:	bf 4f       	sbci	r27, 0xFF	; 255
     92e:	fe 01       	movw	r30, r28
     930:	eb 58       	subi	r30, 0x8B	; 139
     932:	ff 4f       	sbci	r31, 0xFF	; 255
     934:	80 81       	ld	r24, Z
     936:	91 81       	ldd	r25, Z+1	; 0x01
     938:	8d 93       	st	X+, r24
     93a:	9c 93       	st	X, r25
     93c:	11 97       	sbiw	r26, 0x01	; 1
     93e:	fe 01       	movw	r30, r28
     940:	ef 58       	subi	r30, 0x8F	; 143
     942:	ff 4f       	sbci	r31, 0xFF	; 255
     944:	80 81       	ld	r24, Z
     946:	91 81       	ldd	r25, Z+1	; 0x01
     948:	01 97       	sbiw	r24, 0x01	; 1
     94a:	f1 f7       	brne	.-4      	; 0x948 <ButtonState+0x322>
     94c:	fe 01       	movw	r30, r28
     94e:	ef 58       	subi	r30, 0x8F	; 143
     950:	ff 4f       	sbci	r31, 0xFF	; 255
     952:	80 83       	st	Z, r24
     954:	91 83       	std	Z+1, r25	; 0x01
     956:	f3 c2       	rjmp	.+1510   	; 0xf3e <ButtonState+0x918>
				_delay_ms(200);
			}

			else if (Menulvl[0] == 2 ) /*1st level*/
     958:	80 91 31 21 	lds	r24, 0x2131
     95c:	82 30       	cpi	r24, 0x02	; 2
     95e:	09 f0       	breq	.+2      	; 0x962 <ButtonState+0x33c>
     960:	ee c2       	rjmp	.+1500   	; 0xf3e <ButtonState+0x918>
			{
				Menulvl[2]++;
     962:	80 91 33 21 	lds	r24, 0x2133
     966:	8f 5f       	subi	r24, 0xFF	; 255
     968:	80 93 33 21 	sts	0x2133, r24
				if (Menulvl[2] == 2) Menulvl[2] = 0;
     96c:	80 91 33 21 	lds	r24, 0x2133
     970:	82 30       	cpi	r24, 0x02	; 2
     972:	11 f4       	brne	.+4      	; 0x978 <ButtonState+0x352>
     974:	10 92 33 21 	sts	0x2133, r1
				LCDDisplay(Menulvl);
     978:	81 e3       	ldi	r24, 0x31	; 49
     97a:	91 e2       	ldi	r25, 0x21	; 33
     97c:	0e 94 c5 09 	call	0x138a	; 0x138a <LCDDisplay>
     980:	fe 01       	movw	r30, r28
     982:	e3 59       	subi	r30, 0x93	; 147
     984:	ff 4f       	sbci	r31, 0xFF	; 255
     986:	80 e0       	ldi	r24, 0x00	; 0
     988:	90 e0       	ldi	r25, 0x00	; 0
     98a:	a8 e4       	ldi	r26, 0x48	; 72
     98c:	b3 e4       	ldi	r27, 0x43	; 67
     98e:	80 83       	st	Z, r24
     990:	91 83       	std	Z+1, r25	; 0x01
     992:	a2 83       	std	Z+2, r26	; 0x02
     994:	b3 83       	std	Z+3, r27	; 0x03
 */
void
_delay_ms(double __ms)
{
	uint16_t __ticks;
	double __tmp = ((F_CPU) / 4e3) * __ms;
     996:	8e 01       	movw	r16, r28
     998:	07 59       	subi	r16, 0x97	; 151
     99a:	1f 4f       	sbci	r17, 0xFF	; 255
     99c:	fe 01       	movw	r30, r28
     99e:	e3 59       	subi	r30, 0x93	; 147
     9a0:	ff 4f       	sbci	r31, 0xFF	; 255
     9a2:	60 81       	ld	r22, Z
     9a4:	71 81       	ldd	r23, Z+1	; 0x01
     9a6:	82 81       	ldd	r24, Z+2	; 0x02
     9a8:	93 81       	ldd	r25, Z+3	; 0x03
     9aa:	20 e0       	ldi	r18, 0x00	; 0
     9ac:	30 e0       	ldi	r19, 0x00	; 0
     9ae:	4a ef       	ldi	r20, 0xFA	; 250
     9b0:	55 e4       	ldi	r21, 0x45	; 69
     9b2:	0e 94 b6 22 	call	0x456c	; 0x456c <__mulsf3>
     9b6:	dc 01       	movw	r26, r24
     9b8:	cb 01       	movw	r24, r22
     9ba:	f8 01       	movw	r30, r16
     9bc:	80 83       	st	Z, r24
     9be:	91 83       	std	Z+1, r25	; 0x01
     9c0:	a2 83       	std	Z+2, r26	; 0x02
     9c2:	b3 83       	std	Z+3, r27	; 0x03
	if (__tmp < 1.0)
     9c4:	fe 01       	movw	r30, r28
     9c6:	e7 59       	subi	r30, 0x97	; 151
     9c8:	ff 4f       	sbci	r31, 0xFF	; 255
     9ca:	60 81       	ld	r22, Z
     9cc:	71 81       	ldd	r23, Z+1	; 0x01
     9ce:	82 81       	ldd	r24, Z+2	; 0x02
     9d0:	93 81       	ldd	r25, Z+3	; 0x03
     9d2:	20 e0       	ldi	r18, 0x00	; 0
     9d4:	30 e0       	ldi	r19, 0x00	; 0
     9d6:	40 e8       	ldi	r20, 0x80	; 128
     9d8:	5f e3       	ldi	r21, 0x3F	; 63
     9da:	0e 94 bc 24 	call	0x4978	; 0x4978 <__ltsf2>
     9de:	88 23       	and	r24, r24
     9e0:	44 f4       	brge	.+16     	; 0x9f2 <ButtonState+0x3cc>
		__ticks = 1;
     9e2:	fe 01       	movw	r30, r28
     9e4:	e9 59       	subi	r30, 0x99	; 153
     9e6:	ff 4f       	sbci	r31, 0xFF	; 255
     9e8:	81 e0       	ldi	r24, 0x01	; 1
     9ea:	90 e0       	ldi	r25, 0x00	; 0
     9ec:	80 83       	st	Z, r24
     9ee:	91 83       	std	Z+1, r25	; 0x01
     9f0:	64 c0       	rjmp	.+200    	; 0xaba <ButtonState+0x494>
	else if (__tmp > 65535)
     9f2:	fe 01       	movw	r30, r28
     9f4:	e7 59       	subi	r30, 0x97	; 151
     9f6:	ff 4f       	sbci	r31, 0xFF	; 255
     9f8:	60 81       	ld	r22, Z
     9fa:	71 81       	ldd	r23, Z+1	; 0x01
     9fc:	82 81       	ldd	r24, Z+2	; 0x02
     9fe:	93 81       	ldd	r25, Z+3	; 0x03
     a00:	20 e0       	ldi	r18, 0x00	; 0
     a02:	3f ef       	ldi	r19, 0xFF	; 255
     a04:	4f e7       	ldi	r20, 0x7F	; 127
     a06:	57 e4       	ldi	r21, 0x47	; 71
     a08:	0e 94 5c 24 	call	0x48b8	; 0x48b8 <__gtsf2>
     a0c:	18 16       	cp	r1, r24
     a0e:	0c f0       	brlt	.+2      	; 0xa12 <ButtonState+0x3ec>
     a10:	43 c0       	rjmp	.+134    	; 0xa98 <ButtonState+0x472>
	{
		//	__ticks = requested delay in 1/10 ms
		__ticks = (uint16_t) (__ms * 10.0);
     a12:	fe 01       	movw	r30, r28
     a14:	e3 59       	subi	r30, 0x93	; 147
     a16:	ff 4f       	sbci	r31, 0xFF	; 255
     a18:	60 81       	ld	r22, Z
     a1a:	71 81       	ldd	r23, Z+1	; 0x01
     a1c:	82 81       	ldd	r24, Z+2	; 0x02
     a1e:	93 81       	ldd	r25, Z+3	; 0x03
     a20:	20 e0       	ldi	r18, 0x00	; 0
     a22:	30 e0       	ldi	r19, 0x00	; 0
     a24:	40 e2       	ldi	r20, 0x20	; 32
     a26:	51 e4       	ldi	r21, 0x41	; 65
     a28:	0e 94 b6 22 	call	0x456c	; 0x456c <__mulsf3>
     a2c:	dc 01       	movw	r26, r24
     a2e:	cb 01       	movw	r24, r22
     a30:	8e 01       	movw	r16, r28
     a32:	09 59       	subi	r16, 0x99	; 153
     a34:	1f 4f       	sbci	r17, 0xFF	; 255
     a36:	bc 01       	movw	r22, r24
     a38:	cd 01       	movw	r24, r26
     a3a:	0e 94 e0 20 	call	0x41c0	; 0x41c0 <__fixunssfsi>
     a3e:	dc 01       	movw	r26, r24
     a40:	cb 01       	movw	r24, r22
     a42:	f8 01       	movw	r30, r16
     a44:	80 83       	st	Z, r24
     a46:	91 83       	std	Z+1, r25	; 0x01
     a48:	1f c0       	rjmp	.+62     	; 0xa88 <ButtonState+0x462>
     a4a:	fe 01       	movw	r30, r28
     a4c:	eb 59       	subi	r30, 0x9B	; 155
     a4e:	ff 4f       	sbci	r31, 0xFF	; 255
     a50:	80 e2       	ldi	r24, 0x20	; 32
     a52:	93 e0       	ldi	r25, 0x03	; 3
     a54:	80 83       	st	Z, r24
     a56:	91 83       	std	Z+1, r25	; 0x01
     a58:	fe 01       	movw	r30, r28
     a5a:	eb 59       	subi	r30, 0x9B	; 155
     a5c:	ff 4f       	sbci	r31, 0xFF	; 255
     a5e:	80 81       	ld	r24, Z
     a60:	91 81       	ldd	r25, Z+1	; 0x01
     a62:	01 97       	sbiw	r24, 0x01	; 1
     a64:	f1 f7       	brne	.-4      	; 0xa62 <ButtonState+0x43c>
     a66:	fe 01       	movw	r30, r28
     a68:	eb 59       	subi	r30, 0x9B	; 155
     a6a:	ff 4f       	sbci	r31, 0xFF	; 255
     a6c:	80 83       	st	Z, r24
     a6e:	91 83       	std	Z+1, r25	; 0x01
		while(__ticks)
		{
			// wait 1/10 ms
			_delay_loop_2(((F_CPU) / 4e3) / 10);
			__ticks --;
     a70:	de 01       	movw	r26, r28
     a72:	a9 59       	subi	r26, 0x99	; 153
     a74:	bf 4f       	sbci	r27, 0xFF	; 255
     a76:	fe 01       	movw	r30, r28
     a78:	e9 59       	subi	r30, 0x99	; 153
     a7a:	ff 4f       	sbci	r31, 0xFF	; 255
     a7c:	80 81       	ld	r24, Z
     a7e:	91 81       	ldd	r25, Z+1	; 0x01
     a80:	01 97       	sbiw	r24, 0x01	; 1
     a82:	8d 93       	st	X+, r24
     a84:	9c 93       	st	X, r25
     a86:	11 97       	sbiw	r26, 0x01	; 1
		__ticks = 1;
	else if (__tmp > 65535)
	{
		//	__ticks = requested delay in 1/10 ms
		__ticks = (uint16_t) (__ms * 10.0);
		while(__ticks)
     a88:	fe 01       	movw	r30, r28
     a8a:	e9 59       	subi	r30, 0x99	; 153
     a8c:	ff 4f       	sbci	r31, 0xFF	; 255
     a8e:	80 81       	ld	r24, Z
     a90:	91 81       	ldd	r25, Z+1	; 0x01
     a92:	00 97       	sbiw	r24, 0x00	; 0
     a94:	d1 f6       	brne	.-76     	; 0xa4a <ButtonState+0x424>
     a96:	53 c2       	rjmp	.+1190   	; 0xf3e <ButtonState+0x918>
			__ticks --;
		}
		return;
	}
	else
		__ticks = (uint16_t)__tmp;
     a98:	8e 01       	movw	r16, r28
     a9a:	09 59       	subi	r16, 0x99	; 153
     a9c:	1f 4f       	sbci	r17, 0xFF	; 255
     a9e:	fe 01       	movw	r30, r28
     aa0:	e7 59       	subi	r30, 0x97	; 151
     aa2:	ff 4f       	sbci	r31, 0xFF	; 255
     aa4:	60 81       	ld	r22, Z
     aa6:	71 81       	ldd	r23, Z+1	; 0x01
     aa8:	82 81       	ldd	r24, Z+2	; 0x02
     aaa:	93 81       	ldd	r25, Z+3	; 0x03
     aac:	0e 94 e0 20 	call	0x41c0	; 0x41c0 <__fixunssfsi>
     ab0:	dc 01       	movw	r26, r24
     ab2:	cb 01       	movw	r24, r22
     ab4:	f8 01       	movw	r30, r16
     ab6:	80 83       	st	Z, r24
     ab8:	91 83       	std	Z+1, r25	; 0x01
     aba:	de 01       	movw	r26, r28
     abc:	ad 59       	subi	r26, 0x9D	; 157
     abe:	bf 4f       	sbci	r27, 0xFF	; 255
     ac0:	fe 01       	movw	r30, r28
     ac2:	e9 59       	subi	r30, 0x99	; 153
     ac4:	ff 4f       	sbci	r31, 0xFF	; 255
     ac6:	80 81       	ld	r24, Z
     ac8:	91 81       	ldd	r25, Z+1	; 0x01
     aca:	8d 93       	st	X+, r24
     acc:	9c 93       	st	X, r25
     ace:	11 97       	sbiw	r26, 0x01	; 1
     ad0:	fe 01       	movw	r30, r28
     ad2:	ed 59       	subi	r30, 0x9D	; 157
     ad4:	ff 4f       	sbci	r31, 0xFF	; 255
     ad6:	80 81       	ld	r24, Z
     ad8:	91 81       	ldd	r25, Z+1	; 0x01
     ada:	01 97       	sbiw	r24, 0x01	; 1
     adc:	f1 f7       	brne	.-4      	; 0xada <ButtonState+0x4b4>
     ade:	fe 01       	movw	r30, r28
     ae0:	ed 59       	subi	r30, 0x9D	; 157
     ae2:	ff 4f       	sbci	r31, 0xFF	; 255
     ae4:	80 83       	st	Z, r24
     ae6:	91 83       	std	Z+1, r25	; 0x01
     ae8:	2a c2       	rjmp	.+1108   	; 0xf3e <ButtonState+0x918>
			}

		}
	}

	else if (ButtonDOWN) /*Button <-*/
     aea:	e0 ea       	ldi	r30, 0xA0	; 160
     aec:	f6 e0       	ldi	r31, 0x06	; 6
     aee:	80 85       	ldd	r24, Z+8	; 0x08
     af0:	88 2f       	mov	r24, r24
     af2:	90 e0       	ldi	r25, 0x00	; 0
     af4:	80 74       	andi	r24, 0x40	; 64
     af6:	90 70       	andi	r25, 0x00	; 0
     af8:	00 97       	sbiw	r24, 0x00	; 0
     afa:	09 f0       	breq	.+2      	; 0xafe <ButtonState+0x4d8>
     afc:	20 c2       	rjmp	.+1088   	; 0xf3e <ButtonState+0x918>
     afe:	fe 01       	movw	r30, r28
     b00:	e1 5a       	subi	r30, 0xA1	; 161
     b02:	ff 4f       	sbci	r31, 0xFF	; 255
     b04:	80 e0       	ldi	r24, 0x00	; 0
     b06:	90 e0       	ldi	r25, 0x00	; 0
     b08:	a0 ea       	ldi	r26, 0xA0	; 160
     b0a:	b2 e4       	ldi	r27, 0x42	; 66
     b0c:	80 83       	st	Z, r24
     b0e:	91 83       	std	Z+1, r25	; 0x01
     b10:	a2 83       	std	Z+2, r26	; 0x02
     b12:	b3 83       	std	Z+3, r27	; 0x03
 */
void
_delay_ms(double __ms)
{
	uint16_t __ticks;
	double __tmp = ((F_CPU) / 4e3) * __ms;
     b14:	8e 01       	movw	r16, r28
     b16:	05 5a       	subi	r16, 0xA5	; 165
     b18:	1f 4f       	sbci	r17, 0xFF	; 255
     b1a:	fe 01       	movw	r30, r28
     b1c:	e1 5a       	subi	r30, 0xA1	; 161
     b1e:	ff 4f       	sbci	r31, 0xFF	; 255
     b20:	60 81       	ld	r22, Z
     b22:	71 81       	ldd	r23, Z+1	; 0x01
     b24:	82 81       	ldd	r24, Z+2	; 0x02
     b26:	93 81       	ldd	r25, Z+3	; 0x03
     b28:	20 e0       	ldi	r18, 0x00	; 0
     b2a:	30 e0       	ldi	r19, 0x00	; 0
     b2c:	4a ef       	ldi	r20, 0xFA	; 250
     b2e:	55 e4       	ldi	r21, 0x45	; 69
     b30:	0e 94 b6 22 	call	0x456c	; 0x456c <__mulsf3>
     b34:	dc 01       	movw	r26, r24
     b36:	cb 01       	movw	r24, r22
     b38:	f8 01       	movw	r30, r16
     b3a:	80 83       	st	Z, r24
     b3c:	91 83       	std	Z+1, r25	; 0x01
     b3e:	a2 83       	std	Z+2, r26	; 0x02
     b40:	b3 83       	std	Z+3, r27	; 0x03
	if (__tmp < 1.0)
     b42:	fe 01       	movw	r30, r28
     b44:	e5 5a       	subi	r30, 0xA5	; 165
     b46:	ff 4f       	sbci	r31, 0xFF	; 255
     b48:	60 81       	ld	r22, Z
     b4a:	71 81       	ldd	r23, Z+1	; 0x01
     b4c:	82 81       	ldd	r24, Z+2	; 0x02
     b4e:	93 81       	ldd	r25, Z+3	; 0x03
     b50:	20 e0       	ldi	r18, 0x00	; 0
     b52:	30 e0       	ldi	r19, 0x00	; 0
     b54:	40 e8       	ldi	r20, 0x80	; 128
     b56:	5f e3       	ldi	r21, 0x3F	; 63
     b58:	0e 94 bc 24 	call	0x4978	; 0x4978 <__ltsf2>
     b5c:	88 23       	and	r24, r24
     b5e:	44 f4       	brge	.+16     	; 0xb70 <ButtonState+0x54a>
		__ticks = 1;
     b60:	fe 01       	movw	r30, r28
     b62:	e7 5a       	subi	r30, 0xA7	; 167
     b64:	ff 4f       	sbci	r31, 0xFF	; 255
     b66:	81 e0       	ldi	r24, 0x01	; 1
     b68:	90 e0       	ldi	r25, 0x00	; 0
     b6a:	80 83       	st	Z, r24
     b6c:	91 83       	std	Z+1, r25	; 0x01
     b6e:	64 c0       	rjmp	.+200    	; 0xc38 <ButtonState+0x612>
	else if (__tmp > 65535)
     b70:	fe 01       	movw	r30, r28
     b72:	e5 5a       	subi	r30, 0xA5	; 165
     b74:	ff 4f       	sbci	r31, 0xFF	; 255
     b76:	60 81       	ld	r22, Z
     b78:	71 81       	ldd	r23, Z+1	; 0x01
     b7a:	82 81       	ldd	r24, Z+2	; 0x02
     b7c:	93 81       	ldd	r25, Z+3	; 0x03
     b7e:	20 e0       	ldi	r18, 0x00	; 0
     b80:	3f ef       	ldi	r19, 0xFF	; 255
     b82:	4f e7       	ldi	r20, 0x7F	; 127
     b84:	57 e4       	ldi	r21, 0x47	; 71
     b86:	0e 94 5c 24 	call	0x48b8	; 0x48b8 <__gtsf2>
     b8a:	18 16       	cp	r1, r24
     b8c:	0c f0       	brlt	.+2      	; 0xb90 <ButtonState+0x56a>
     b8e:	43 c0       	rjmp	.+134    	; 0xc16 <ButtonState+0x5f0>
	{
		//	__ticks = requested delay in 1/10 ms
		__ticks = (uint16_t) (__ms * 10.0);
     b90:	fe 01       	movw	r30, r28
     b92:	e1 5a       	subi	r30, 0xA1	; 161
     b94:	ff 4f       	sbci	r31, 0xFF	; 255
     b96:	60 81       	ld	r22, Z
     b98:	71 81       	ldd	r23, Z+1	; 0x01
     b9a:	82 81       	ldd	r24, Z+2	; 0x02
     b9c:	93 81       	ldd	r25, Z+3	; 0x03
     b9e:	20 e0       	ldi	r18, 0x00	; 0
     ba0:	30 e0       	ldi	r19, 0x00	; 0
     ba2:	40 e2       	ldi	r20, 0x20	; 32
     ba4:	51 e4       	ldi	r21, 0x41	; 65
     ba6:	0e 94 b6 22 	call	0x456c	; 0x456c <__mulsf3>
     baa:	dc 01       	movw	r26, r24
     bac:	cb 01       	movw	r24, r22
     bae:	8e 01       	movw	r16, r28
     bb0:	07 5a       	subi	r16, 0xA7	; 167
     bb2:	1f 4f       	sbci	r17, 0xFF	; 255
     bb4:	bc 01       	movw	r22, r24
     bb6:	cd 01       	movw	r24, r26
     bb8:	0e 94 e0 20 	call	0x41c0	; 0x41c0 <__fixunssfsi>
     bbc:	dc 01       	movw	r26, r24
     bbe:	cb 01       	movw	r24, r22
     bc0:	f8 01       	movw	r30, r16
     bc2:	80 83       	st	Z, r24
     bc4:	91 83       	std	Z+1, r25	; 0x01
     bc6:	1f c0       	rjmp	.+62     	; 0xc06 <ButtonState+0x5e0>
     bc8:	fe 01       	movw	r30, r28
     bca:	e9 5a       	subi	r30, 0xA9	; 169
     bcc:	ff 4f       	sbci	r31, 0xFF	; 255
     bce:	80 e2       	ldi	r24, 0x20	; 32
     bd0:	93 e0       	ldi	r25, 0x03	; 3
     bd2:	80 83       	st	Z, r24
     bd4:	91 83       	std	Z+1, r25	; 0x01
     bd6:	fe 01       	movw	r30, r28
     bd8:	e9 5a       	subi	r30, 0xA9	; 169
     bda:	ff 4f       	sbci	r31, 0xFF	; 255
     bdc:	80 81       	ld	r24, Z
     bde:	91 81       	ldd	r25, Z+1	; 0x01
     be0:	01 97       	sbiw	r24, 0x01	; 1
     be2:	f1 f7       	brne	.-4      	; 0xbe0 <ButtonState+0x5ba>
     be4:	fe 01       	movw	r30, r28
     be6:	e9 5a       	subi	r30, 0xA9	; 169
     be8:	ff 4f       	sbci	r31, 0xFF	; 255
     bea:	80 83       	st	Z, r24
     bec:	91 83       	std	Z+1, r25	; 0x01
		while(__ticks)
		{
			// wait 1/10 ms
			_delay_loop_2(((F_CPU) / 4e3) / 10);
			__ticks --;
     bee:	de 01       	movw	r26, r28
     bf0:	a7 5a       	subi	r26, 0xA7	; 167
     bf2:	bf 4f       	sbci	r27, 0xFF	; 255
     bf4:	fe 01       	movw	r30, r28
     bf6:	e7 5a       	subi	r30, 0xA7	; 167
     bf8:	ff 4f       	sbci	r31, 0xFF	; 255
     bfa:	80 81       	ld	r24, Z
     bfc:	91 81       	ldd	r25, Z+1	; 0x01
     bfe:	01 97       	sbiw	r24, 0x01	; 1
     c00:	8d 93       	st	X+, r24
     c02:	9c 93       	st	X, r25
     c04:	11 97       	sbiw	r26, 0x01	; 1
		__ticks = 1;
	else if (__tmp > 65535)
	{
		//	__ticks = requested delay in 1/10 ms
		__ticks = (uint16_t) (__ms * 10.0);
		while(__ticks)
     c06:	fe 01       	movw	r30, r28
     c08:	e7 5a       	subi	r30, 0xA7	; 167
     c0a:	ff 4f       	sbci	r31, 0xFF	; 255
     c0c:	80 81       	ld	r24, Z
     c0e:	91 81       	ldd	r25, Z+1	; 0x01
     c10:	00 97       	sbiw	r24, 0x00	; 0
     c12:	d1 f6       	brne	.-76     	; 0xbc8 <ButtonState+0x5a2>
     c14:	28 c0       	rjmp	.+80     	; 0xc66 <ButtonState+0x640>
			__ticks --;
		}
		return;
	}
	else
		__ticks = (uint16_t)__tmp;
     c16:	8e 01       	movw	r16, r28
     c18:	07 5a       	subi	r16, 0xA7	; 167
     c1a:	1f 4f       	sbci	r17, 0xFF	; 255
     c1c:	fe 01       	movw	r30, r28
     c1e:	e5 5a       	subi	r30, 0xA5	; 165
     c20:	ff 4f       	sbci	r31, 0xFF	; 255
     c22:	60 81       	ld	r22, Z
     c24:	71 81       	ldd	r23, Z+1	; 0x01
     c26:	82 81       	ldd	r24, Z+2	; 0x02
     c28:	93 81       	ldd	r25, Z+3	; 0x03
     c2a:	0e 94 e0 20 	call	0x41c0	; 0x41c0 <__fixunssfsi>
     c2e:	dc 01       	movw	r26, r24
     c30:	cb 01       	movw	r24, r22
     c32:	f8 01       	movw	r30, r16
     c34:	80 83       	st	Z, r24
     c36:	91 83       	std	Z+1, r25	; 0x01
     c38:	de 01       	movw	r26, r28
     c3a:	ab 5a       	subi	r26, 0xAB	; 171
     c3c:	bf 4f       	sbci	r27, 0xFF	; 255
     c3e:	fe 01       	movw	r30, r28
     c40:	e7 5a       	subi	r30, 0xA7	; 167
     c42:	ff 4f       	sbci	r31, 0xFF	; 255
     c44:	80 81       	ld	r24, Z
     c46:	91 81       	ldd	r25, Z+1	; 0x01
     c48:	8d 93       	st	X+, r24
     c4a:	9c 93       	st	X, r25
     c4c:	11 97       	sbiw	r26, 0x01	; 1
     c4e:	fe 01       	movw	r30, r28
     c50:	eb 5a       	subi	r30, 0xAB	; 171
     c52:	ff 4f       	sbci	r31, 0xFF	; 255
     c54:	80 81       	ld	r24, Z
     c56:	91 81       	ldd	r25, Z+1	; 0x01
     c58:	01 97       	sbiw	r24, 0x01	; 1
     c5a:	f1 f7       	brne	.-4      	; 0xc58 <ButtonState+0x632>
     c5c:	fe 01       	movw	r30, r28
     c5e:	eb 5a       	subi	r30, 0xAB	; 171
     c60:	ff 4f       	sbci	r31, 0xFF	; 255
     c62:	80 83       	st	Z, r24
     c64:	91 83       	std	Z+1, r25	; 0x01
	{
		_delay_ms(80);
		if (ButtonDOWN)
     c66:	e0 ea       	ldi	r30, 0xA0	; 160
     c68:	f6 e0       	ldi	r31, 0x06	; 6
     c6a:	80 85       	ldd	r24, Z+8	; 0x08
     c6c:	88 2f       	mov	r24, r24
     c6e:	90 e0       	ldi	r25, 0x00	; 0
     c70:	80 74       	andi	r24, 0x40	; 64
     c72:	90 70       	andi	r25, 0x00	; 0
     c74:	00 97       	sbiw	r24, 0x00	; 0
     c76:	09 f0       	breq	.+2      	; 0xc7a <ButtonState+0x654>
     c78:	62 c1       	rjmp	.+708    	; 0xf3e <ButtonState+0x918>
		{
			if (Menulvl[0] == 1)	/*Main menu*/
     c7a:	80 91 31 21 	lds	r24, 0x2131
     c7e:	81 30       	cpi	r24, 0x01	; 1
     c80:	09 f0       	breq	.+2      	; 0xc84 <ButtonState+0x65e>
     c82:	c3 c0       	rjmp	.+390    	; 0xe0a <ButtonState+0x7e4>
			{
				Menulvl[1]--;
     c84:	80 91 32 21 	lds	r24, 0x2132
     c88:	81 50       	subi	r24, 0x01	; 1
     c8a:	80 93 32 21 	sts	0x2132, r24
				if (Menulvl[1] == 255) Menulvl[1]=0;
     c8e:	80 91 32 21 	lds	r24, 0x2132
     c92:	8f 3f       	cpi	r24, 0xFF	; 255
     c94:	11 f4       	brne	.+4      	; 0xc9a <ButtonState+0x674>
     c96:	10 92 32 21 	sts	0x2132, r1
				LCDDisplay(Menulvl);
     c9a:	81 e3       	ldi	r24, 0x31	; 49
     c9c:	91 e2       	ldi	r25, 0x21	; 33
     c9e:	0e 94 c5 09 	call	0x138a	; 0x138a <LCDDisplay>
     ca2:	fe 01       	movw	r30, r28
     ca4:	ef 5a       	subi	r30, 0xAF	; 175
     ca6:	ff 4f       	sbci	r31, 0xFF	; 255
     ca8:	80 e0       	ldi	r24, 0x00	; 0
     caa:	90 e0       	ldi	r25, 0x00	; 0
     cac:	a8 e4       	ldi	r26, 0x48	; 72
     cae:	b3 e4       	ldi	r27, 0x43	; 67
     cb0:	80 83       	st	Z, r24
     cb2:	91 83       	std	Z+1, r25	; 0x01
     cb4:	a2 83       	std	Z+2, r26	; 0x02
     cb6:	b3 83       	std	Z+3, r27	; 0x03
 */
void
_delay_ms(double __ms)
{
	uint16_t __ticks;
	double __tmp = ((F_CPU) / 4e3) * __ms;
     cb8:	8e 01       	movw	r16, r28
     cba:	03 5b       	subi	r16, 0xB3	; 179
     cbc:	1f 4f       	sbci	r17, 0xFF	; 255
     cbe:	fe 01       	movw	r30, r28
     cc0:	ef 5a       	subi	r30, 0xAF	; 175
     cc2:	ff 4f       	sbci	r31, 0xFF	; 255
     cc4:	60 81       	ld	r22, Z
     cc6:	71 81       	ldd	r23, Z+1	; 0x01
     cc8:	82 81       	ldd	r24, Z+2	; 0x02
     cca:	93 81       	ldd	r25, Z+3	; 0x03
     ccc:	20 e0       	ldi	r18, 0x00	; 0
     cce:	30 e0       	ldi	r19, 0x00	; 0
     cd0:	4a ef       	ldi	r20, 0xFA	; 250
     cd2:	55 e4       	ldi	r21, 0x45	; 69
     cd4:	0e 94 b6 22 	call	0x456c	; 0x456c <__mulsf3>
     cd8:	dc 01       	movw	r26, r24
     cda:	cb 01       	movw	r24, r22
     cdc:	f8 01       	movw	r30, r16
     cde:	80 83       	st	Z, r24
     ce0:	91 83       	std	Z+1, r25	; 0x01
     ce2:	a2 83       	std	Z+2, r26	; 0x02
     ce4:	b3 83       	std	Z+3, r27	; 0x03
	if (__tmp < 1.0)
     ce6:	fe 01       	movw	r30, r28
     ce8:	e3 5b       	subi	r30, 0xB3	; 179
     cea:	ff 4f       	sbci	r31, 0xFF	; 255
     cec:	60 81       	ld	r22, Z
     cee:	71 81       	ldd	r23, Z+1	; 0x01
     cf0:	82 81       	ldd	r24, Z+2	; 0x02
     cf2:	93 81       	ldd	r25, Z+3	; 0x03
     cf4:	20 e0       	ldi	r18, 0x00	; 0
     cf6:	30 e0       	ldi	r19, 0x00	; 0
     cf8:	40 e8       	ldi	r20, 0x80	; 128
     cfa:	5f e3       	ldi	r21, 0x3F	; 63
     cfc:	0e 94 bc 24 	call	0x4978	; 0x4978 <__ltsf2>
     d00:	88 23       	and	r24, r24
     d02:	44 f4       	brge	.+16     	; 0xd14 <ButtonState+0x6ee>
		__ticks = 1;
     d04:	fe 01       	movw	r30, r28
     d06:	e5 5b       	subi	r30, 0xB5	; 181
     d08:	ff 4f       	sbci	r31, 0xFF	; 255
     d0a:	81 e0       	ldi	r24, 0x01	; 1
     d0c:	90 e0       	ldi	r25, 0x00	; 0
     d0e:	80 83       	st	Z, r24
     d10:	91 83       	std	Z+1, r25	; 0x01
     d12:	64 c0       	rjmp	.+200    	; 0xddc <ButtonState+0x7b6>
	else if (__tmp > 65535)
     d14:	fe 01       	movw	r30, r28
     d16:	e3 5b       	subi	r30, 0xB3	; 179
     d18:	ff 4f       	sbci	r31, 0xFF	; 255
     d1a:	60 81       	ld	r22, Z
     d1c:	71 81       	ldd	r23, Z+1	; 0x01
     d1e:	82 81       	ldd	r24, Z+2	; 0x02
     d20:	93 81       	ldd	r25, Z+3	; 0x03
     d22:	20 e0       	ldi	r18, 0x00	; 0
     d24:	3f ef       	ldi	r19, 0xFF	; 255
     d26:	4f e7       	ldi	r20, 0x7F	; 127
     d28:	57 e4       	ldi	r21, 0x47	; 71
     d2a:	0e 94 5c 24 	call	0x48b8	; 0x48b8 <__gtsf2>
     d2e:	18 16       	cp	r1, r24
     d30:	0c f0       	brlt	.+2      	; 0xd34 <ButtonState+0x70e>
     d32:	43 c0       	rjmp	.+134    	; 0xdba <ButtonState+0x794>
	{
		//	__ticks = requested delay in 1/10 ms
		__ticks = (uint16_t) (__ms * 10.0);
     d34:	fe 01       	movw	r30, r28
     d36:	ef 5a       	subi	r30, 0xAF	; 175
     d38:	ff 4f       	sbci	r31, 0xFF	; 255
     d3a:	60 81       	ld	r22, Z
     d3c:	71 81       	ldd	r23, Z+1	; 0x01
     d3e:	82 81       	ldd	r24, Z+2	; 0x02
     d40:	93 81       	ldd	r25, Z+3	; 0x03
     d42:	20 e0       	ldi	r18, 0x00	; 0
     d44:	30 e0       	ldi	r19, 0x00	; 0
     d46:	40 e2       	ldi	r20, 0x20	; 32
     d48:	51 e4       	ldi	r21, 0x41	; 65
     d4a:	0e 94 b6 22 	call	0x456c	; 0x456c <__mulsf3>
     d4e:	dc 01       	movw	r26, r24
     d50:	cb 01       	movw	r24, r22
     d52:	8e 01       	movw	r16, r28
     d54:	05 5b       	subi	r16, 0xB5	; 181
     d56:	1f 4f       	sbci	r17, 0xFF	; 255
     d58:	bc 01       	movw	r22, r24
     d5a:	cd 01       	movw	r24, r26
     d5c:	0e 94 e0 20 	call	0x41c0	; 0x41c0 <__fixunssfsi>
     d60:	dc 01       	movw	r26, r24
     d62:	cb 01       	movw	r24, r22
     d64:	f8 01       	movw	r30, r16
     d66:	80 83       	st	Z, r24
     d68:	91 83       	std	Z+1, r25	; 0x01
     d6a:	1f c0       	rjmp	.+62     	; 0xdaa <ButtonState+0x784>
     d6c:	fe 01       	movw	r30, r28
     d6e:	e7 5b       	subi	r30, 0xB7	; 183
     d70:	ff 4f       	sbci	r31, 0xFF	; 255
     d72:	80 e2       	ldi	r24, 0x20	; 32
     d74:	93 e0       	ldi	r25, 0x03	; 3
     d76:	80 83       	st	Z, r24
     d78:	91 83       	std	Z+1, r25	; 0x01
     d7a:	fe 01       	movw	r30, r28
     d7c:	e7 5b       	subi	r30, 0xB7	; 183
     d7e:	ff 4f       	sbci	r31, 0xFF	; 255
     d80:	80 81       	ld	r24, Z
     d82:	91 81       	ldd	r25, Z+1	; 0x01
     d84:	01 97       	sbiw	r24, 0x01	; 1
     d86:	f1 f7       	brne	.-4      	; 0xd84 <ButtonState+0x75e>
     d88:	fe 01       	movw	r30, r28
     d8a:	e7 5b       	subi	r30, 0xB7	; 183
     d8c:	ff 4f       	sbci	r31, 0xFF	; 255
     d8e:	80 83       	st	Z, r24
     d90:	91 83       	std	Z+1, r25	; 0x01
		while(__ticks)
		{
			// wait 1/10 ms
			_delay_loop_2(((F_CPU) / 4e3) / 10);
			__ticks --;
     d92:	de 01       	movw	r26, r28
     d94:	a5 5b       	subi	r26, 0xB5	; 181
     d96:	bf 4f       	sbci	r27, 0xFF	; 255
     d98:	fe 01       	movw	r30, r28
     d9a:	e5 5b       	subi	r30, 0xB5	; 181
     d9c:	ff 4f       	sbci	r31, 0xFF	; 255
     d9e:	80 81       	ld	r24, Z
     da0:	91 81       	ldd	r25, Z+1	; 0x01
     da2:	01 97       	sbiw	r24, 0x01	; 1
     da4:	8d 93       	st	X+, r24
     da6:	9c 93       	st	X, r25
     da8:	11 97       	sbiw	r26, 0x01	; 1
		__ticks = 1;
	else if (__tmp > 65535)
	{
		//	__ticks = requested delay in 1/10 ms
		__ticks = (uint16_t) (__ms * 10.0);
		while(__ticks)
     daa:	fe 01       	movw	r30, r28
     dac:	e5 5b       	subi	r30, 0xB5	; 181
     dae:	ff 4f       	sbci	r31, 0xFF	; 255
     db0:	80 81       	ld	r24, Z
     db2:	91 81       	ldd	r25, Z+1	; 0x01
     db4:	00 97       	sbiw	r24, 0x00	; 0
     db6:	d1 f6       	brne	.-76     	; 0xd6c <ButtonState+0x746>
     db8:	28 c0       	rjmp	.+80     	; 0xe0a <ButtonState+0x7e4>
			__ticks --;
		}
		return;
	}
	else
		__ticks = (uint16_t)__tmp;
     dba:	8e 01       	movw	r16, r28
     dbc:	05 5b       	subi	r16, 0xB5	; 181
     dbe:	1f 4f       	sbci	r17, 0xFF	; 255
     dc0:	fe 01       	movw	r30, r28
     dc2:	e3 5b       	subi	r30, 0xB3	; 179
     dc4:	ff 4f       	sbci	r31, 0xFF	; 255
     dc6:	60 81       	ld	r22, Z
     dc8:	71 81       	ldd	r23, Z+1	; 0x01
     dca:	82 81       	ldd	r24, Z+2	; 0x02
     dcc:	93 81       	ldd	r25, Z+3	; 0x03
     dce:	0e 94 e0 20 	call	0x41c0	; 0x41c0 <__fixunssfsi>
     dd2:	dc 01       	movw	r26, r24
     dd4:	cb 01       	movw	r24, r22
     dd6:	f8 01       	movw	r30, r16
     dd8:	80 83       	st	Z, r24
     dda:	91 83       	std	Z+1, r25	; 0x01
     ddc:	de 01       	movw	r26, r28
     dde:	a9 5b       	subi	r26, 0xB9	; 185
     de0:	bf 4f       	sbci	r27, 0xFF	; 255
     de2:	fe 01       	movw	r30, r28
     de4:	e5 5b       	subi	r30, 0xB5	; 181
     de6:	ff 4f       	sbci	r31, 0xFF	; 255
     de8:	80 81       	ld	r24, Z
     dea:	91 81       	ldd	r25, Z+1	; 0x01
     dec:	8d 93       	st	X+, r24
     dee:	9c 93       	st	X, r25
     df0:	11 97       	sbiw	r26, 0x01	; 1
     df2:	fe 01       	movw	r30, r28
     df4:	e9 5b       	subi	r30, 0xB9	; 185
     df6:	ff 4f       	sbci	r31, 0xFF	; 255
     df8:	80 81       	ld	r24, Z
     dfa:	91 81       	ldd	r25, Z+1	; 0x01
     dfc:	01 97       	sbiw	r24, 0x01	; 1
     dfe:	f1 f7       	brne	.-4      	; 0xdfc <ButtonState+0x7d6>
     e00:	fe 01       	movw	r30, r28
     e02:	e9 5b       	subi	r30, 0xB9	; 185
     e04:	ff 4f       	sbci	r31, 0xFF	; 255
     e06:	80 83       	st	Z, r24
     e08:	91 83       	std	Z+1, r25	; 0x01
				_delay_ms(200);
			}
			if (Menulvl[0] == 2) /*1st level*/
     e0a:	80 91 31 21 	lds	r24, 0x2131
     e0e:	82 30       	cpi	r24, 0x02	; 2
     e10:	09 f0       	breq	.+2      	; 0xe14 <ButtonState+0x7ee>
     e12:	95 c0       	rjmp	.+298    	; 0xf3e <ButtonState+0x918>
			{
				Menulvl[2]--;
     e14:	80 91 33 21 	lds	r24, 0x2133
     e18:	81 50       	subi	r24, 0x01	; 1
     e1a:	80 93 33 21 	sts	0x2133, r24
				if (Menulvl[2] == 255) Menulvl[2] = 1;
     e1e:	80 91 33 21 	lds	r24, 0x2133
     e22:	8f 3f       	cpi	r24, 0xFF	; 255
     e24:	19 f4       	brne	.+6      	; 0xe2c <ButtonState+0x806>
     e26:	81 e0       	ldi	r24, 0x01	; 1
     e28:	80 93 33 21 	sts	0x2133, r24
				LCDDisplay(Menulvl);
     e2c:	81 e3       	ldi	r24, 0x31	; 49
     e2e:	91 e2       	ldi	r25, 0x21	; 33
     e30:	0e 94 c5 09 	call	0x138a	; 0x138a <LCDDisplay>
     e34:	fe 01       	movw	r30, r28
     e36:	ed 5b       	subi	r30, 0xBD	; 189
     e38:	ff 4f       	sbci	r31, 0xFF	; 255
     e3a:	80 e0       	ldi	r24, 0x00	; 0
     e3c:	90 e0       	ldi	r25, 0x00	; 0
     e3e:	a8 e4       	ldi	r26, 0x48	; 72
     e40:	b3 e4       	ldi	r27, 0x43	; 67
     e42:	80 83       	st	Z, r24
     e44:	91 83       	std	Z+1, r25	; 0x01
     e46:	a2 83       	std	Z+2, r26	; 0x02
     e48:	b3 83       	std	Z+3, r27	; 0x03
 */
void
_delay_ms(double __ms)
{
	uint16_t __ticks;
	double __tmp = ((F_CPU) / 4e3) * __ms;
     e4a:	8e 01       	movw	r16, r28
     e4c:	01 5c       	subi	r16, 0xC1	; 193
     e4e:	1f 4f       	sbci	r17, 0xFF	; 255
     e50:	fe 01       	movw	r30, r28
     e52:	ed 5b       	subi	r30, 0xBD	; 189
     e54:	ff 4f       	sbci	r31, 0xFF	; 255
     e56:	60 81       	ld	r22, Z
     e58:	71 81       	ldd	r23, Z+1	; 0x01
     e5a:	82 81       	ldd	r24, Z+2	; 0x02
     e5c:	93 81       	ldd	r25, Z+3	; 0x03
     e5e:	20 e0       	ldi	r18, 0x00	; 0
     e60:	30 e0       	ldi	r19, 0x00	; 0
     e62:	4a ef       	ldi	r20, 0xFA	; 250
     e64:	55 e4       	ldi	r21, 0x45	; 69
     e66:	0e 94 b6 22 	call	0x456c	; 0x456c <__mulsf3>
     e6a:	dc 01       	movw	r26, r24
     e6c:	cb 01       	movw	r24, r22
     e6e:	f8 01       	movw	r30, r16
     e70:	80 83       	st	Z, r24
     e72:	91 83       	std	Z+1, r25	; 0x01
     e74:	a2 83       	std	Z+2, r26	; 0x02
     e76:	b3 83       	std	Z+3, r27	; 0x03
	if (__tmp < 1.0)
     e78:	fe 01       	movw	r30, r28
     e7a:	ff 96       	adiw	r30, 0x3f	; 63
     e7c:	60 81       	ld	r22, Z
     e7e:	71 81       	ldd	r23, Z+1	; 0x01
     e80:	82 81       	ldd	r24, Z+2	; 0x02
     e82:	93 81       	ldd	r25, Z+3	; 0x03
     e84:	20 e0       	ldi	r18, 0x00	; 0
     e86:	30 e0       	ldi	r19, 0x00	; 0
     e88:	40 e8       	ldi	r20, 0x80	; 128
     e8a:	5f e3       	ldi	r21, 0x3F	; 63
     e8c:	0e 94 bc 24 	call	0x4978	; 0x4978 <__ltsf2>
     e90:	88 23       	and	r24, r24
     e92:	2c f4       	brge	.+10     	; 0xe9e <ButtonState+0x878>
		__ticks = 1;
     e94:	81 e0       	ldi	r24, 0x01	; 1
     e96:	90 e0       	ldi	r25, 0x00	; 0
     e98:	8d af       	std	Y+61, r24	; 0x3d
     e9a:	9e af       	std	Y+62, r25	; 0x3e
     e9c:	46 c0       	rjmp	.+140    	; 0xf2a <ButtonState+0x904>
	else if (__tmp > 65535)
     e9e:	fe 01       	movw	r30, r28
     ea0:	ff 96       	adiw	r30, 0x3f	; 63
     ea2:	60 81       	ld	r22, Z
     ea4:	71 81       	ldd	r23, Z+1	; 0x01
     ea6:	82 81       	ldd	r24, Z+2	; 0x02
     ea8:	93 81       	ldd	r25, Z+3	; 0x03
     eaa:	20 e0       	ldi	r18, 0x00	; 0
     eac:	3f ef       	ldi	r19, 0xFF	; 255
     eae:	4f e7       	ldi	r20, 0x7F	; 127
     eb0:	57 e4       	ldi	r21, 0x47	; 71
     eb2:	0e 94 5c 24 	call	0x48b8	; 0x48b8 <__gtsf2>
     eb6:	18 16       	cp	r1, r24
     eb8:	64 f5       	brge	.+88     	; 0xf12 <ButtonState+0x8ec>
	{
		//	__ticks = requested delay in 1/10 ms
		__ticks = (uint16_t) (__ms * 10.0);
     eba:	fe 01       	movw	r30, r28
     ebc:	ed 5b       	subi	r30, 0xBD	; 189
     ebe:	ff 4f       	sbci	r31, 0xFF	; 255
     ec0:	60 81       	ld	r22, Z
     ec2:	71 81       	ldd	r23, Z+1	; 0x01
     ec4:	82 81       	ldd	r24, Z+2	; 0x02
     ec6:	93 81       	ldd	r25, Z+3	; 0x03
     ec8:	20 e0       	ldi	r18, 0x00	; 0
     eca:	30 e0       	ldi	r19, 0x00	; 0
     ecc:	40 e2       	ldi	r20, 0x20	; 32
     ece:	51 e4       	ldi	r21, 0x41	; 65
     ed0:	0e 94 b6 22 	call	0x456c	; 0x456c <__mulsf3>
     ed4:	dc 01       	movw	r26, r24
     ed6:	cb 01       	movw	r24, r22
     ed8:	bc 01       	movw	r22, r24
     eda:	cd 01       	movw	r24, r26
     edc:	0e 94 e0 20 	call	0x41c0	; 0x41c0 <__fixunssfsi>
     ee0:	dc 01       	movw	r26, r24
     ee2:	cb 01       	movw	r24, r22
     ee4:	8d af       	std	Y+61, r24	; 0x3d
     ee6:	9e af       	std	Y+62, r25	; 0x3e
     ee8:	0f c0       	rjmp	.+30     	; 0xf08 <ButtonState+0x8e2>
     eea:	80 e2       	ldi	r24, 0x20	; 32
     eec:	93 e0       	ldi	r25, 0x03	; 3
     eee:	8b af       	std	Y+59, r24	; 0x3b
     ef0:	9c af       	std	Y+60, r25	; 0x3c
     ef2:	8b ad       	ldd	r24, Y+59	; 0x3b
     ef4:	9c ad       	ldd	r25, Y+60	; 0x3c
     ef6:	01 97       	sbiw	r24, 0x01	; 1
     ef8:	f1 f7       	brne	.-4      	; 0xef6 <ButtonState+0x8d0>
     efa:	8b af       	std	Y+59, r24	; 0x3b
     efc:	9c af       	std	Y+60, r25	; 0x3c
		while(__ticks)
		{
			// wait 1/10 ms
			_delay_loop_2(((F_CPU) / 4e3) / 10);
			__ticks --;
     efe:	8d ad       	ldd	r24, Y+61	; 0x3d
     f00:	9e ad       	ldd	r25, Y+62	; 0x3e
     f02:	01 97       	sbiw	r24, 0x01	; 1
     f04:	8d af       	std	Y+61, r24	; 0x3d
     f06:	9e af       	std	Y+62, r25	; 0x3e
		__ticks = 1;
	else if (__tmp > 65535)
	{
		//	__ticks = requested delay in 1/10 ms
		__ticks = (uint16_t) (__ms * 10.0);
		while(__ticks)
     f08:	8d ad       	ldd	r24, Y+61	; 0x3d
     f0a:	9e ad       	ldd	r25, Y+62	; 0x3e
     f0c:	00 97       	sbiw	r24, 0x00	; 0
     f0e:	69 f7       	brne	.-38     	; 0xeea <ButtonState+0x8c4>
     f10:	16 c0       	rjmp	.+44     	; 0xf3e <ButtonState+0x918>
			__ticks --;
		}
		return;
	}
	else
		__ticks = (uint16_t)__tmp;
     f12:	fe 01       	movw	r30, r28
     f14:	ff 96       	adiw	r30, 0x3f	; 63
     f16:	60 81       	ld	r22, Z
     f18:	71 81       	ldd	r23, Z+1	; 0x01
     f1a:	82 81       	ldd	r24, Z+2	; 0x02
     f1c:	93 81       	ldd	r25, Z+3	; 0x03
     f1e:	0e 94 e0 20 	call	0x41c0	; 0x41c0 <__fixunssfsi>
     f22:	dc 01       	movw	r26, r24
     f24:	cb 01       	movw	r24, r22
     f26:	8d af       	std	Y+61, r24	; 0x3d
     f28:	9e af       	std	Y+62, r25	; 0x3e
     f2a:	8d ad       	ldd	r24, Y+61	; 0x3d
     f2c:	9e ad       	ldd	r25, Y+62	; 0x3e
     f2e:	89 af       	std	Y+57, r24	; 0x39
     f30:	9a af       	std	Y+58, r25	; 0x3a
     f32:	89 ad       	ldd	r24, Y+57	; 0x39
     f34:	9a ad       	ldd	r25, Y+58	; 0x3a
     f36:	01 97       	sbiw	r24, 0x01	; 1
     f38:	f1 f7       	brne	.-4      	; 0xf36 <ButtonState+0x910>
     f3a:	89 af       	std	Y+57, r24	; 0x39
     f3c:	9a af       	std	Y+58, r25	; 0x3a
			}
		}
	}
	}

	if (ButtonOK) /*Button OK*/
     f3e:	e0 e2       	ldi	r30, 0x20	; 32
     f40:	f7 e0       	ldi	r31, 0x07	; 7
     f42:	80 85       	ldd	r24, Z+8	; 0x08
     f44:	88 23       	and	r24, r24
     f46:	0c f4       	brge	.+2      	; 0xf4a <ButtonState+0x924>
     f48:	fa c0       	rjmp	.+500    	; 0x113e <ButtonState+0xb18>
     f4a:	80 e0       	ldi	r24, 0x00	; 0
     f4c:	90 e0       	ldi	r25, 0x00	; 0
     f4e:	a0 ea       	ldi	r26, 0xA0	; 160
     f50:	b2 e4       	ldi	r27, 0x42	; 66
     f52:	8d ab       	std	Y+53, r24	; 0x35
     f54:	9e ab       	std	Y+54, r25	; 0x36
     f56:	af ab       	std	Y+55, r26	; 0x37
     f58:	b8 af       	std	Y+56, r27	; 0x38
 */
void
_delay_ms(double __ms)
{
	uint16_t __ticks;
	double __tmp = ((F_CPU) / 4e3) * __ms;
     f5a:	6d a9       	ldd	r22, Y+53	; 0x35
     f5c:	7e a9       	ldd	r23, Y+54	; 0x36
     f5e:	8f a9       	ldd	r24, Y+55	; 0x37
     f60:	98 ad       	ldd	r25, Y+56	; 0x38
     f62:	20 e0       	ldi	r18, 0x00	; 0
     f64:	30 e0       	ldi	r19, 0x00	; 0
     f66:	4a ef       	ldi	r20, 0xFA	; 250
     f68:	55 e4       	ldi	r21, 0x45	; 69
     f6a:	0e 94 b6 22 	call	0x456c	; 0x456c <__mulsf3>
     f6e:	dc 01       	movw	r26, r24
     f70:	cb 01       	movw	r24, r22
     f72:	89 ab       	std	Y+49, r24	; 0x31
     f74:	9a ab       	std	Y+50, r25	; 0x32
     f76:	ab ab       	std	Y+51, r26	; 0x33
     f78:	bc ab       	std	Y+52, r27	; 0x34
	if (__tmp < 1.0)
     f7a:	69 a9       	ldd	r22, Y+49	; 0x31
     f7c:	7a a9       	ldd	r23, Y+50	; 0x32
     f7e:	8b a9       	ldd	r24, Y+51	; 0x33
     f80:	9c a9       	ldd	r25, Y+52	; 0x34
     f82:	20 e0       	ldi	r18, 0x00	; 0
     f84:	30 e0       	ldi	r19, 0x00	; 0
     f86:	40 e8       	ldi	r20, 0x80	; 128
     f88:	5f e3       	ldi	r21, 0x3F	; 63
     f8a:	0e 94 bc 24 	call	0x4978	; 0x4978 <__ltsf2>
     f8e:	88 23       	and	r24, r24
     f90:	2c f4       	brge	.+10     	; 0xf9c <ButtonState+0x976>
		__ticks = 1;
     f92:	81 e0       	ldi	r24, 0x01	; 1
     f94:	90 e0       	ldi	r25, 0x00	; 0
     f96:	8f a7       	std	Y+47, r24	; 0x2f
     f98:	98 ab       	std	Y+48, r25	; 0x30
     f9a:	3f c0       	rjmp	.+126    	; 0x101a <ButtonState+0x9f4>
	else if (__tmp > 65535)
     f9c:	69 a9       	ldd	r22, Y+49	; 0x31
     f9e:	7a a9       	ldd	r23, Y+50	; 0x32
     fa0:	8b a9       	ldd	r24, Y+51	; 0x33
     fa2:	9c a9       	ldd	r25, Y+52	; 0x34
     fa4:	20 e0       	ldi	r18, 0x00	; 0
     fa6:	3f ef       	ldi	r19, 0xFF	; 255
     fa8:	4f e7       	ldi	r20, 0x7F	; 127
     faa:	57 e4       	ldi	r21, 0x47	; 71
     fac:	0e 94 5c 24 	call	0x48b8	; 0x48b8 <__gtsf2>
     fb0:	18 16       	cp	r1, r24
     fb2:	4c f5       	brge	.+82     	; 0x1006 <ButtonState+0x9e0>
	{
		//	__ticks = requested delay in 1/10 ms
		__ticks = (uint16_t) (__ms * 10.0);
     fb4:	6d a9       	ldd	r22, Y+53	; 0x35
     fb6:	7e a9       	ldd	r23, Y+54	; 0x36
     fb8:	8f a9       	ldd	r24, Y+55	; 0x37
     fba:	98 ad       	ldd	r25, Y+56	; 0x38
     fbc:	20 e0       	ldi	r18, 0x00	; 0
     fbe:	30 e0       	ldi	r19, 0x00	; 0
     fc0:	40 e2       	ldi	r20, 0x20	; 32
     fc2:	51 e4       	ldi	r21, 0x41	; 65
     fc4:	0e 94 b6 22 	call	0x456c	; 0x456c <__mulsf3>
     fc8:	dc 01       	movw	r26, r24
     fca:	cb 01       	movw	r24, r22
     fcc:	bc 01       	movw	r22, r24
     fce:	cd 01       	movw	r24, r26
     fd0:	0e 94 e0 20 	call	0x41c0	; 0x41c0 <__fixunssfsi>
     fd4:	dc 01       	movw	r26, r24
     fd6:	cb 01       	movw	r24, r22
     fd8:	8f a7       	std	Y+47, r24	; 0x2f
     fda:	98 ab       	std	Y+48, r25	; 0x30
     fdc:	0f c0       	rjmp	.+30     	; 0xffc <ButtonState+0x9d6>
     fde:	80 e2       	ldi	r24, 0x20	; 32
     fe0:	93 e0       	ldi	r25, 0x03	; 3
     fe2:	8d a7       	std	Y+45, r24	; 0x2d
     fe4:	9e a7       	std	Y+46, r25	; 0x2e
     fe6:	8d a5       	ldd	r24, Y+45	; 0x2d
     fe8:	9e a5       	ldd	r25, Y+46	; 0x2e
     fea:	01 97       	sbiw	r24, 0x01	; 1
     fec:	f1 f7       	brne	.-4      	; 0xfea <ButtonState+0x9c4>
     fee:	8d a7       	std	Y+45, r24	; 0x2d
     ff0:	9e a7       	std	Y+46, r25	; 0x2e
		while(__ticks)
		{
			// wait 1/10 ms
			_delay_loop_2(((F_CPU) / 4e3) / 10);
			__ticks --;
     ff2:	8f a5       	ldd	r24, Y+47	; 0x2f
     ff4:	98 a9       	ldd	r25, Y+48	; 0x30
     ff6:	01 97       	sbiw	r24, 0x01	; 1
     ff8:	8f a7       	std	Y+47, r24	; 0x2f
     ffa:	98 ab       	std	Y+48, r25	; 0x30
		__ticks = 1;
	else if (__tmp > 65535)
	{
		//	__ticks = requested delay in 1/10 ms
		__ticks = (uint16_t) (__ms * 10.0);
		while(__ticks)
     ffc:	8f a5       	ldd	r24, Y+47	; 0x2f
     ffe:	98 a9       	ldd	r25, Y+48	; 0x30
    1000:	00 97       	sbiw	r24, 0x00	; 0
    1002:	69 f7       	brne	.-38     	; 0xfde <ButtonState+0x9b8>
    1004:	14 c0       	rjmp	.+40     	; 0x102e <ButtonState+0xa08>
			__ticks --;
		}
		return;
	}
	else
		__ticks = (uint16_t)__tmp;
    1006:	69 a9       	ldd	r22, Y+49	; 0x31
    1008:	7a a9       	ldd	r23, Y+50	; 0x32
    100a:	8b a9       	ldd	r24, Y+51	; 0x33
    100c:	9c a9       	ldd	r25, Y+52	; 0x34
    100e:	0e 94 e0 20 	call	0x41c0	; 0x41c0 <__fixunssfsi>
    1012:	dc 01       	movw	r26, r24
    1014:	cb 01       	movw	r24, r22
    1016:	8f a7       	std	Y+47, r24	; 0x2f
    1018:	98 ab       	std	Y+48, r25	; 0x30
    101a:	8f a5       	ldd	r24, Y+47	; 0x2f
    101c:	98 a9       	ldd	r25, Y+48	; 0x30
    101e:	8b a7       	std	Y+43, r24	; 0x2b
    1020:	9c a7       	std	Y+44, r25	; 0x2c
    1022:	8b a5       	ldd	r24, Y+43	; 0x2b
    1024:	9c a5       	ldd	r25, Y+44	; 0x2c
    1026:	01 97       	sbiw	r24, 0x01	; 1
    1028:	f1 f7       	brne	.-4      	; 0x1026 <ButtonState+0xa00>
    102a:	8b a7       	std	Y+43, r24	; 0x2b
    102c:	9c a7       	std	Y+44, r25	; 0x2c
	{
		_delay_ms(80);
		if (ButtonOK)
    102e:	e0 e2       	ldi	r30, 0x20	; 32
    1030:	f7 e0       	ldi	r31, 0x07	; 7
    1032:	80 85       	ldd	r24, Z+8	; 0x08
    1034:	88 23       	and	r24, r24
    1036:	0c f4       	brge	.+2      	; 0x103a <ButtonState+0xa14>
    1038:	82 c0       	rjmp	.+260    	; 0x113e <ButtonState+0xb18>
		{
			Menulvl[0]++;
    103a:	80 91 31 21 	lds	r24, 0x2131
    103e:	8f 5f       	subi	r24, 0xFF	; 255
    1040:	80 93 31 21 	sts	0x2131, r24
			if (Menulvl[0] == 4) Menulvl[0] = 1;
    1044:	80 91 31 21 	lds	r24, 0x2131
    1048:	84 30       	cpi	r24, 0x04	; 4
    104a:	19 f4       	brne	.+6      	; 0x1052 <ButtonState+0xa2c>
    104c:	81 e0       	ldi	r24, 0x01	; 1
    104e:	80 93 31 21 	sts	0x2131, r24
			{
			LCDDisplay(Menulvl);
    1052:	81 e3       	ldi	r24, 0x31	; 49
    1054:	91 e2       	ldi	r25, 0x21	; 33
    1056:	0e 94 c5 09 	call	0x138a	; 0x138a <LCDDisplay>
    105a:	80 e0       	ldi	r24, 0x00	; 0
    105c:	90 e0       	ldi	r25, 0x00	; 0
    105e:	a8 e4       	ldi	r26, 0x48	; 72
    1060:	b3 e4       	ldi	r27, 0x43	; 67
    1062:	8f a3       	std	Y+39, r24	; 0x27
    1064:	98 a7       	std	Y+40, r25	; 0x28
    1066:	a9 a7       	std	Y+41, r26	; 0x29
    1068:	ba a7       	std	Y+42, r27	; 0x2a
 */
void
_delay_ms(double __ms)
{
	uint16_t __ticks;
	double __tmp = ((F_CPU) / 4e3) * __ms;
    106a:	6f a1       	ldd	r22, Y+39	; 0x27
    106c:	78 a5       	ldd	r23, Y+40	; 0x28
    106e:	89 a5       	ldd	r24, Y+41	; 0x29
    1070:	9a a5       	ldd	r25, Y+42	; 0x2a
    1072:	20 e0       	ldi	r18, 0x00	; 0
    1074:	30 e0       	ldi	r19, 0x00	; 0
    1076:	4a ef       	ldi	r20, 0xFA	; 250
    1078:	55 e4       	ldi	r21, 0x45	; 69
    107a:	0e 94 b6 22 	call	0x456c	; 0x456c <__mulsf3>
    107e:	dc 01       	movw	r26, r24
    1080:	cb 01       	movw	r24, r22
    1082:	8b a3       	std	Y+35, r24	; 0x23
    1084:	9c a3       	std	Y+36, r25	; 0x24
    1086:	ad a3       	std	Y+37, r26	; 0x25
    1088:	be a3       	std	Y+38, r27	; 0x26
	if (__tmp < 1.0)
    108a:	6b a1       	ldd	r22, Y+35	; 0x23
    108c:	7c a1       	ldd	r23, Y+36	; 0x24
    108e:	8d a1       	ldd	r24, Y+37	; 0x25
    1090:	9e a1       	ldd	r25, Y+38	; 0x26
    1092:	20 e0       	ldi	r18, 0x00	; 0
    1094:	30 e0       	ldi	r19, 0x00	; 0
    1096:	40 e8       	ldi	r20, 0x80	; 128
    1098:	5f e3       	ldi	r21, 0x3F	; 63
    109a:	0e 94 bc 24 	call	0x4978	; 0x4978 <__ltsf2>
    109e:	88 23       	and	r24, r24
    10a0:	2c f4       	brge	.+10     	; 0x10ac <ButtonState+0xa86>
		__ticks = 1;
    10a2:	81 e0       	ldi	r24, 0x01	; 1
    10a4:	90 e0       	ldi	r25, 0x00	; 0
    10a6:	89 a3       	std	Y+33, r24	; 0x21
    10a8:	9a a3       	std	Y+34, r25	; 0x22
    10aa:	3f c0       	rjmp	.+126    	; 0x112a <ButtonState+0xb04>
	else if (__tmp > 65535)
    10ac:	6b a1       	ldd	r22, Y+35	; 0x23
    10ae:	7c a1       	ldd	r23, Y+36	; 0x24
    10b0:	8d a1       	ldd	r24, Y+37	; 0x25
    10b2:	9e a1       	ldd	r25, Y+38	; 0x26
    10b4:	20 e0       	ldi	r18, 0x00	; 0
    10b6:	3f ef       	ldi	r19, 0xFF	; 255
    10b8:	4f e7       	ldi	r20, 0x7F	; 127
    10ba:	57 e4       	ldi	r21, 0x47	; 71
    10bc:	0e 94 5c 24 	call	0x48b8	; 0x48b8 <__gtsf2>
    10c0:	18 16       	cp	r1, r24
    10c2:	4c f5       	brge	.+82     	; 0x1116 <ButtonState+0xaf0>
	{
		//	__ticks = requested delay in 1/10 ms
		__ticks = (uint16_t) (__ms * 10.0);
    10c4:	6f a1       	ldd	r22, Y+39	; 0x27
    10c6:	78 a5       	ldd	r23, Y+40	; 0x28
    10c8:	89 a5       	ldd	r24, Y+41	; 0x29
    10ca:	9a a5       	ldd	r25, Y+42	; 0x2a
    10cc:	20 e0       	ldi	r18, 0x00	; 0
    10ce:	30 e0       	ldi	r19, 0x00	; 0
    10d0:	40 e2       	ldi	r20, 0x20	; 32
    10d2:	51 e4       	ldi	r21, 0x41	; 65
    10d4:	0e 94 b6 22 	call	0x456c	; 0x456c <__mulsf3>
    10d8:	dc 01       	movw	r26, r24
    10da:	cb 01       	movw	r24, r22
    10dc:	bc 01       	movw	r22, r24
    10de:	cd 01       	movw	r24, r26
    10e0:	0e 94 e0 20 	call	0x41c0	; 0x41c0 <__fixunssfsi>
    10e4:	dc 01       	movw	r26, r24
    10e6:	cb 01       	movw	r24, r22
    10e8:	89 a3       	std	Y+33, r24	; 0x21
    10ea:	9a a3       	std	Y+34, r25	; 0x22
    10ec:	0f c0       	rjmp	.+30     	; 0x110c <ButtonState+0xae6>
    10ee:	80 e2       	ldi	r24, 0x20	; 32
    10f0:	93 e0       	ldi	r25, 0x03	; 3
    10f2:	8f 8f       	std	Y+31, r24	; 0x1f
    10f4:	98 a3       	std	Y+32, r25	; 0x20
    10f6:	8f 8d       	ldd	r24, Y+31	; 0x1f
    10f8:	98 a1       	ldd	r25, Y+32	; 0x20
    10fa:	01 97       	sbiw	r24, 0x01	; 1
    10fc:	f1 f7       	brne	.-4      	; 0x10fa <ButtonState+0xad4>
    10fe:	8f 8f       	std	Y+31, r24	; 0x1f
    1100:	98 a3       	std	Y+32, r25	; 0x20
		while(__ticks)
		{
			// wait 1/10 ms
			_delay_loop_2(((F_CPU) / 4e3) / 10);
			__ticks --;
    1102:	89 a1       	ldd	r24, Y+33	; 0x21
    1104:	9a a1       	ldd	r25, Y+34	; 0x22
    1106:	01 97       	sbiw	r24, 0x01	; 1
    1108:	89 a3       	std	Y+33, r24	; 0x21
    110a:	9a a3       	std	Y+34, r25	; 0x22
		__ticks = 1;
	else if (__tmp > 65535)
	{
		//	__ticks = requested delay in 1/10 ms
		__ticks = (uint16_t) (__ms * 10.0);
		while(__ticks)
    110c:	89 a1       	ldd	r24, Y+33	; 0x21
    110e:	9a a1       	ldd	r25, Y+34	; 0x22
    1110:	00 97       	sbiw	r24, 0x00	; 0
    1112:	69 f7       	brne	.-38     	; 0x10ee <ButtonState+0xac8>
    1114:	14 c0       	rjmp	.+40     	; 0x113e <ButtonState+0xb18>
			__ticks --;
		}
		return;
	}
	else
		__ticks = (uint16_t)__tmp;
    1116:	6b a1       	ldd	r22, Y+35	; 0x23
    1118:	7c a1       	ldd	r23, Y+36	; 0x24
    111a:	8d a1       	ldd	r24, Y+37	; 0x25
    111c:	9e a1       	ldd	r25, Y+38	; 0x26
    111e:	0e 94 e0 20 	call	0x41c0	; 0x41c0 <__fixunssfsi>
    1122:	dc 01       	movw	r26, r24
    1124:	cb 01       	movw	r24, r22
    1126:	89 a3       	std	Y+33, r24	; 0x21
    1128:	9a a3       	std	Y+34, r25	; 0x22
    112a:	89 a1       	ldd	r24, Y+33	; 0x21
    112c:	9a a1       	ldd	r25, Y+34	; 0x22
    112e:	8d 8f       	std	Y+29, r24	; 0x1d
    1130:	9e 8f       	std	Y+30, r25	; 0x1e
    1132:	8d 8d       	ldd	r24, Y+29	; 0x1d
    1134:	9e 8d       	ldd	r25, Y+30	; 0x1e
    1136:	01 97       	sbiw	r24, 0x01	; 1
    1138:	f1 f7       	brne	.-4      	; 0x1136 <ButtonState+0xb10>
    113a:	8d 8f       	std	Y+29, r24	; 0x1d
    113c:	9e 8f       	std	Y+30, r25	; 0x1e
			}
			_delay_ms(200);
		}
	}
	if (ButtonESC) /*Button ESC*/
    113e:	e0 e2       	ldi	r30, 0x20	; 32
    1140:	f7 e0       	ldi	r31, 0x07	; 7
    1142:	80 85       	ldd	r24, Z+8	; 0x08
    1144:	88 2f       	mov	r24, r24
    1146:	90 e0       	ldi	r25, 0x00	; 0
    1148:	80 74       	andi	r24, 0x40	; 64
    114a:	90 70       	andi	r25, 0x00	; 0
    114c:	00 97       	sbiw	r24, 0x00	; 0
    114e:	09 f0       	breq	.+2      	; 0x1152 <ButtonState+0xb2c>
    1150:	fe c0       	rjmp	.+508    	; 0x134e <ButtonState+0xd28>
    1152:	80 e0       	ldi	r24, 0x00	; 0
    1154:	90 e0       	ldi	r25, 0x00	; 0
    1156:	a0 ea       	ldi	r26, 0xA0	; 160
    1158:	b2 e4       	ldi	r27, 0x42	; 66
    115a:	89 8f       	std	Y+25, r24	; 0x19
    115c:	9a 8f       	std	Y+26, r25	; 0x1a
    115e:	ab 8f       	std	Y+27, r26	; 0x1b
    1160:	bc 8f       	std	Y+28, r27	; 0x1c
 */
void
_delay_ms(double __ms)
{
	uint16_t __ticks;
	double __tmp = ((F_CPU) / 4e3) * __ms;
    1162:	69 8d       	ldd	r22, Y+25	; 0x19
    1164:	7a 8d       	ldd	r23, Y+26	; 0x1a
    1166:	8b 8d       	ldd	r24, Y+27	; 0x1b
    1168:	9c 8d       	ldd	r25, Y+28	; 0x1c
    116a:	20 e0       	ldi	r18, 0x00	; 0
    116c:	30 e0       	ldi	r19, 0x00	; 0
    116e:	4a ef       	ldi	r20, 0xFA	; 250
    1170:	55 e4       	ldi	r21, 0x45	; 69
    1172:	0e 94 b6 22 	call	0x456c	; 0x456c <__mulsf3>
    1176:	dc 01       	movw	r26, r24
    1178:	cb 01       	movw	r24, r22
    117a:	8d 8b       	std	Y+21, r24	; 0x15
    117c:	9e 8b       	std	Y+22, r25	; 0x16
    117e:	af 8b       	std	Y+23, r26	; 0x17
    1180:	b8 8f       	std	Y+24, r27	; 0x18
	if (__tmp < 1.0)
    1182:	6d 89       	ldd	r22, Y+21	; 0x15
    1184:	7e 89       	ldd	r23, Y+22	; 0x16
    1186:	8f 89       	ldd	r24, Y+23	; 0x17
    1188:	98 8d       	ldd	r25, Y+24	; 0x18
    118a:	20 e0       	ldi	r18, 0x00	; 0
    118c:	30 e0       	ldi	r19, 0x00	; 0
    118e:	40 e8       	ldi	r20, 0x80	; 128
    1190:	5f e3       	ldi	r21, 0x3F	; 63
    1192:	0e 94 bc 24 	call	0x4978	; 0x4978 <__ltsf2>
    1196:	88 23       	and	r24, r24
    1198:	2c f4       	brge	.+10     	; 0x11a4 <ButtonState+0xb7e>
		__ticks = 1;
    119a:	81 e0       	ldi	r24, 0x01	; 1
    119c:	90 e0       	ldi	r25, 0x00	; 0
    119e:	8b 8b       	std	Y+19, r24	; 0x13
    11a0:	9c 8b       	std	Y+20, r25	; 0x14
    11a2:	3f c0       	rjmp	.+126    	; 0x1222 <ButtonState+0xbfc>
	else if (__tmp > 65535)
    11a4:	6d 89       	ldd	r22, Y+21	; 0x15
    11a6:	7e 89       	ldd	r23, Y+22	; 0x16
    11a8:	8f 89       	ldd	r24, Y+23	; 0x17
    11aa:	98 8d       	ldd	r25, Y+24	; 0x18
    11ac:	20 e0       	ldi	r18, 0x00	; 0
    11ae:	3f ef       	ldi	r19, 0xFF	; 255
    11b0:	4f e7       	ldi	r20, 0x7F	; 127
    11b2:	57 e4       	ldi	r21, 0x47	; 71
    11b4:	0e 94 5c 24 	call	0x48b8	; 0x48b8 <__gtsf2>
    11b8:	18 16       	cp	r1, r24
    11ba:	4c f5       	brge	.+82     	; 0x120e <ButtonState+0xbe8>
	{
		//	__ticks = requested delay in 1/10 ms
		__ticks = (uint16_t) (__ms * 10.0);
    11bc:	69 8d       	ldd	r22, Y+25	; 0x19
    11be:	7a 8d       	ldd	r23, Y+26	; 0x1a
    11c0:	8b 8d       	ldd	r24, Y+27	; 0x1b
    11c2:	9c 8d       	ldd	r25, Y+28	; 0x1c
    11c4:	20 e0       	ldi	r18, 0x00	; 0
    11c6:	30 e0       	ldi	r19, 0x00	; 0
    11c8:	40 e2       	ldi	r20, 0x20	; 32
    11ca:	51 e4       	ldi	r21, 0x41	; 65
    11cc:	0e 94 b6 22 	call	0x456c	; 0x456c <__mulsf3>
    11d0:	dc 01       	movw	r26, r24
    11d2:	cb 01       	movw	r24, r22
    11d4:	bc 01       	movw	r22, r24
    11d6:	cd 01       	movw	r24, r26
    11d8:	0e 94 e0 20 	call	0x41c0	; 0x41c0 <__fixunssfsi>
    11dc:	dc 01       	movw	r26, r24
    11de:	cb 01       	movw	r24, r22
    11e0:	8b 8b       	std	Y+19, r24	; 0x13
    11e2:	9c 8b       	std	Y+20, r25	; 0x14
    11e4:	0f c0       	rjmp	.+30     	; 0x1204 <ButtonState+0xbde>
    11e6:	80 e2       	ldi	r24, 0x20	; 32
    11e8:	93 e0       	ldi	r25, 0x03	; 3
    11ea:	89 8b       	std	Y+17, r24	; 0x11
    11ec:	9a 8b       	std	Y+18, r25	; 0x12
    11ee:	89 89       	ldd	r24, Y+17	; 0x11
    11f0:	9a 89       	ldd	r25, Y+18	; 0x12
    11f2:	01 97       	sbiw	r24, 0x01	; 1
    11f4:	f1 f7       	brne	.-4      	; 0x11f2 <ButtonState+0xbcc>
    11f6:	89 8b       	std	Y+17, r24	; 0x11
    11f8:	9a 8b       	std	Y+18, r25	; 0x12
		while(__ticks)
		{
			// wait 1/10 ms
			_delay_loop_2(((F_CPU) / 4e3) / 10);
			__ticks --;
    11fa:	8b 89       	ldd	r24, Y+19	; 0x13
    11fc:	9c 89       	ldd	r25, Y+20	; 0x14
    11fe:	01 97       	sbiw	r24, 0x01	; 1
    1200:	8b 8b       	std	Y+19, r24	; 0x13
    1202:	9c 8b       	std	Y+20, r25	; 0x14
		__ticks = 1;
	else if (__tmp > 65535)
	{
		//	__ticks = requested delay in 1/10 ms
		__ticks = (uint16_t) (__ms * 10.0);
		while(__ticks)
    1204:	8b 89       	ldd	r24, Y+19	; 0x13
    1206:	9c 89       	ldd	r25, Y+20	; 0x14
    1208:	00 97       	sbiw	r24, 0x00	; 0
    120a:	69 f7       	brne	.-38     	; 0x11e6 <ButtonState+0xbc0>
    120c:	14 c0       	rjmp	.+40     	; 0x1236 <ButtonState+0xc10>
			__ticks --;
		}
		return;
	}
	else
		__ticks = (uint16_t)__tmp;
    120e:	6d 89       	ldd	r22, Y+21	; 0x15
    1210:	7e 89       	ldd	r23, Y+22	; 0x16
    1212:	8f 89       	ldd	r24, Y+23	; 0x17
    1214:	98 8d       	ldd	r25, Y+24	; 0x18
    1216:	0e 94 e0 20 	call	0x41c0	; 0x41c0 <__fixunssfsi>
    121a:	dc 01       	movw	r26, r24
    121c:	cb 01       	movw	r24, r22
    121e:	8b 8b       	std	Y+19, r24	; 0x13
    1220:	9c 8b       	std	Y+20, r25	; 0x14
    1222:	8b 89       	ldd	r24, Y+19	; 0x13
    1224:	9c 89       	ldd	r25, Y+20	; 0x14
    1226:	8f 87       	std	Y+15, r24	; 0x0f
    1228:	98 8b       	std	Y+16, r25	; 0x10
    122a:	8f 85       	ldd	r24, Y+15	; 0x0f
    122c:	98 89       	ldd	r25, Y+16	; 0x10
    122e:	01 97       	sbiw	r24, 0x01	; 1
    1230:	f1 f7       	brne	.-4      	; 0x122e <ButtonState+0xc08>
    1232:	8f 87       	std	Y+15, r24	; 0x0f
    1234:	98 8b       	std	Y+16, r25	; 0x10
	{
		_delay_ms(80);
		if (ButtonESC)
    1236:	e0 e2       	ldi	r30, 0x20	; 32
    1238:	f7 e0       	ldi	r31, 0x07	; 7
    123a:	80 85       	ldd	r24, Z+8	; 0x08
    123c:	88 2f       	mov	r24, r24
    123e:	90 e0       	ldi	r25, 0x00	; 0
    1240:	80 74       	andi	r24, 0x40	; 64
    1242:	90 70       	andi	r25, 0x00	; 0
    1244:	00 97       	sbiw	r24, 0x00	; 0
    1246:	09 f0       	breq	.+2      	; 0x124a <ButtonState+0xc24>
    1248:	82 c0       	rjmp	.+260    	; 0x134e <ButtonState+0xd28>
		{
			Menulvl[0]--;
    124a:	80 91 31 21 	lds	r24, 0x2131
    124e:	81 50       	subi	r24, 0x01	; 1
    1250:	80 93 31 21 	sts	0x2131, r24
			if (Menulvl[0] == 255) Menulvl[0] = 1;
    1254:	80 91 31 21 	lds	r24, 0x2131
    1258:	8f 3f       	cpi	r24, 0xFF	; 255
    125a:	19 f4       	brne	.+6      	; 0x1262 <ButtonState+0xc3c>
    125c:	81 e0       	ldi	r24, 0x01	; 1
    125e:	80 93 31 21 	sts	0x2131, r24
			LCDDisplay(Menulvl);
    1262:	81 e3       	ldi	r24, 0x31	; 49
    1264:	91 e2       	ldi	r25, 0x21	; 33
    1266:	0e 94 c5 09 	call	0x138a	; 0x138a <LCDDisplay>
    126a:	80 e0       	ldi	r24, 0x00	; 0
    126c:	90 e0       	ldi	r25, 0x00	; 0
    126e:	a8 e4       	ldi	r26, 0x48	; 72
    1270:	b3 e4       	ldi	r27, 0x43	; 67
    1272:	8b 87       	std	Y+11, r24	; 0x0b
    1274:	9c 87       	std	Y+12, r25	; 0x0c
    1276:	ad 87       	std	Y+13, r26	; 0x0d
    1278:	be 87       	std	Y+14, r27	; 0x0e
 */
void
_delay_ms(double __ms)
{
	uint16_t __ticks;
	double __tmp = ((F_CPU) / 4e3) * __ms;
    127a:	6b 85       	ldd	r22, Y+11	; 0x0b
    127c:	7c 85       	ldd	r23, Y+12	; 0x0c
    127e:	8d 85       	ldd	r24, Y+13	; 0x0d
    1280:	9e 85       	ldd	r25, Y+14	; 0x0e
    1282:	20 e0       	ldi	r18, 0x00	; 0
    1284:	30 e0       	ldi	r19, 0x00	; 0
    1286:	4a ef       	ldi	r20, 0xFA	; 250
    1288:	55 e4       	ldi	r21, 0x45	; 69
    128a:	0e 94 b6 22 	call	0x456c	; 0x456c <__mulsf3>
    128e:	dc 01       	movw	r26, r24
    1290:	cb 01       	movw	r24, r22
    1292:	8f 83       	std	Y+7, r24	; 0x07
    1294:	98 87       	std	Y+8, r25	; 0x08
    1296:	a9 87       	std	Y+9, r26	; 0x09
    1298:	ba 87       	std	Y+10, r27	; 0x0a
	if (__tmp < 1.0)
    129a:	6f 81       	ldd	r22, Y+7	; 0x07
    129c:	78 85       	ldd	r23, Y+8	; 0x08
    129e:	89 85       	ldd	r24, Y+9	; 0x09
    12a0:	9a 85       	ldd	r25, Y+10	; 0x0a
    12a2:	20 e0       	ldi	r18, 0x00	; 0
    12a4:	30 e0       	ldi	r19, 0x00	; 0
    12a6:	40 e8       	ldi	r20, 0x80	; 128
    12a8:	5f e3       	ldi	r21, 0x3F	; 63
    12aa:	0e 94 bc 24 	call	0x4978	; 0x4978 <__ltsf2>
    12ae:	88 23       	and	r24, r24
    12b0:	2c f4       	brge	.+10     	; 0x12bc <ButtonState+0xc96>
		__ticks = 1;
    12b2:	81 e0       	ldi	r24, 0x01	; 1
    12b4:	90 e0       	ldi	r25, 0x00	; 0
    12b6:	8d 83       	std	Y+5, r24	; 0x05
    12b8:	9e 83       	std	Y+6, r25	; 0x06
    12ba:	3f c0       	rjmp	.+126    	; 0x133a <ButtonState+0xd14>
	else if (__tmp > 65535)
    12bc:	6f 81       	ldd	r22, Y+7	; 0x07
    12be:	78 85       	ldd	r23, Y+8	; 0x08
    12c0:	89 85       	ldd	r24, Y+9	; 0x09
    12c2:	9a 85       	ldd	r25, Y+10	; 0x0a
    12c4:	20 e0       	ldi	r18, 0x00	; 0
    12c6:	3f ef       	ldi	r19, 0xFF	; 255
    12c8:	4f e7       	ldi	r20, 0x7F	; 127
    12ca:	57 e4       	ldi	r21, 0x47	; 71
    12cc:	0e 94 5c 24 	call	0x48b8	; 0x48b8 <__gtsf2>
    12d0:	18 16       	cp	r1, r24
    12d2:	4c f5       	brge	.+82     	; 0x1326 <ButtonState+0xd00>
	{
		//	__ticks = requested delay in 1/10 ms
		__ticks = (uint16_t) (__ms * 10.0);
    12d4:	6b 85       	ldd	r22, Y+11	; 0x0b
    12d6:	7c 85       	ldd	r23, Y+12	; 0x0c
    12d8:	8d 85       	ldd	r24, Y+13	; 0x0d
    12da:	9e 85       	ldd	r25, Y+14	; 0x0e
    12dc:	20 e0       	ldi	r18, 0x00	; 0
    12de:	30 e0       	ldi	r19, 0x00	; 0
    12e0:	40 e2       	ldi	r20, 0x20	; 32
    12e2:	51 e4       	ldi	r21, 0x41	; 65
    12e4:	0e 94 b6 22 	call	0x456c	; 0x456c <__mulsf3>
    12e8:	dc 01       	movw	r26, r24
    12ea:	cb 01       	movw	r24, r22
    12ec:	bc 01       	movw	r22, r24
    12ee:	cd 01       	movw	r24, r26
    12f0:	0e 94 e0 20 	call	0x41c0	; 0x41c0 <__fixunssfsi>
    12f4:	dc 01       	movw	r26, r24
    12f6:	cb 01       	movw	r24, r22
    12f8:	8d 83       	std	Y+5, r24	; 0x05
    12fa:	9e 83       	std	Y+6, r25	; 0x06
    12fc:	0f c0       	rjmp	.+30     	; 0x131c <ButtonState+0xcf6>
    12fe:	80 e2       	ldi	r24, 0x20	; 32
    1300:	93 e0       	ldi	r25, 0x03	; 3
    1302:	8b 83       	std	Y+3, r24	; 0x03
    1304:	9c 83       	std	Y+4, r25	; 0x04
    1306:	8b 81       	ldd	r24, Y+3	; 0x03
    1308:	9c 81       	ldd	r25, Y+4	; 0x04
    130a:	01 97       	sbiw	r24, 0x01	; 1
    130c:	f1 f7       	brne	.-4      	; 0x130a <ButtonState+0xce4>
    130e:	8b 83       	std	Y+3, r24	; 0x03
    1310:	9c 83       	std	Y+4, r25	; 0x04
		while(__ticks)
		{
			// wait 1/10 ms
			_delay_loop_2(((F_CPU) / 4e3) / 10);
			__ticks --;
    1312:	8d 81       	ldd	r24, Y+5	; 0x05
    1314:	9e 81       	ldd	r25, Y+6	; 0x06
    1316:	01 97       	sbiw	r24, 0x01	; 1
    1318:	8d 83       	std	Y+5, r24	; 0x05
    131a:	9e 83       	std	Y+6, r25	; 0x06
		__ticks = 1;
	else if (__tmp > 65535)
	{
		//	__ticks = requested delay in 1/10 ms
		__ticks = (uint16_t) (__ms * 10.0);
		while(__ticks)
    131c:	8d 81       	ldd	r24, Y+5	; 0x05
    131e:	9e 81       	ldd	r25, Y+6	; 0x06
    1320:	00 97       	sbiw	r24, 0x00	; 0
    1322:	69 f7       	brne	.-38     	; 0x12fe <ButtonState+0xcd8>
    1324:	14 c0       	rjmp	.+40     	; 0x134e <ButtonState+0xd28>
			__ticks --;
		}
		return;
	}
	else
		__ticks = (uint16_t)__tmp;
    1326:	6f 81       	ldd	r22, Y+7	; 0x07
    1328:	78 85       	ldd	r23, Y+8	; 0x08
    132a:	89 85       	ldd	r24, Y+9	; 0x09
    132c:	9a 85       	ldd	r25, Y+10	; 0x0a
    132e:	0e 94 e0 20 	call	0x41c0	; 0x41c0 <__fixunssfsi>
    1332:	dc 01       	movw	r26, r24
    1334:	cb 01       	movw	r24, r22
    1336:	8d 83       	std	Y+5, r24	; 0x05
    1338:	9e 83       	std	Y+6, r25	; 0x06
    133a:	8d 81       	ldd	r24, Y+5	; 0x05
    133c:	9e 81       	ldd	r25, Y+6	; 0x06
    133e:	89 83       	std	Y+1, r24	; 0x01
    1340:	9a 83       	std	Y+2, r25	; 0x02
    1342:	89 81       	ldd	r24, Y+1	; 0x01
    1344:	9a 81       	ldd	r25, Y+2	; 0x02
    1346:	01 97       	sbiw	r24, 0x01	; 1
    1348:	f1 f7       	brne	.-4      	; 0x1346 <ButtonState+0xd20>
    134a:	89 83       	std	Y+1, r24	; 0x01
    134c:	9a 83       	std	Y+2, r25	; 0x02
	}
	if (Menulvl[0] == 0 )
	{

	}
}
    134e:	c4 57       	subi	r28, 0x74	; 116
    1350:	df 4f       	sbci	r29, 0xFF	; 255
    1352:	cd bf       	out	0x3d, r28	; 61
    1354:	de bf       	out	0x3e, r29	; 62
    1356:	cf 91       	pop	r28
    1358:	df 91       	pop	r29
    135a:	1f 91       	pop	r17
    135c:	0f 91       	pop	r16
    135e:	08 95       	ret

00001360 <LCDWelcomeTxt>:

void LCDWelcomeTxt(void)
{
    1360:	df 93       	push	r29
    1362:	cf 93       	push	r28
    1364:	cd b7       	in	r28, 0x3d	; 61
    1366:	de b7       	in	r29, 0x3e	; 62
		LcdClear();
    1368:	0e 94 07 19 	call	0x320e	; 0x320e <LcdClear>
		LcdWrite("     Witaj!");
    136c:	80 e0       	ldi	r24, 0x00	; 0
    136e:	90 e2       	ldi	r25, 0x20	; 32
    1370:	0e 94 a6 18 	call	0x314c	; 0x314c <LcdWrite>
		LcdGoto(2,1);
    1374:	82 e0       	ldi	r24, 0x02	; 2
    1376:	61 e0       	ldi	r22, 0x01	; 1
    1378:	0e 94 e8 18 	call	0x31d0	; 0x31d0 <LcdGoto>
		LcdWrite(" Menu - OK");
    137c:	8c e0       	ldi	r24, 0x0C	; 12
    137e:	90 e2       	ldi	r25, 0x20	; 32
    1380:	0e 94 a6 18 	call	0x314c	; 0x314c <LcdWrite>
}
    1384:	cf 91       	pop	r28
    1386:	df 91       	pop	r29
    1388:	08 95       	ret

0000138a <LCDDisplay>:

void LCDDisplay(uint8_t Menu[])
{
    138a:	df 93       	push	r29
    138c:	cf 93       	push	r28
    138e:	cd b7       	in	r28, 0x3d	; 61
    1390:	de b7       	in	r29, 0x3e	; 62
    1392:	27 97       	sbiw	r28, 0x07	; 7
    1394:	cd bf       	out	0x3d, r28	; 61
    1396:	de bf       	out	0x3e, r29	; 62
    1398:	8a 83       	std	Y+2, r24	; 0x02
    139a:	9b 83       	std	Y+3, r25	; 0x03
	int8_t Stayhere = 0;
    139c:	19 82       	std	Y+1, r1	; 0x01

	if (Menu[0] == 1)
    139e:	ea 81       	ldd	r30, Y+2	; 0x02
    13a0:	fb 81       	ldd	r31, Y+3	; 0x03
    13a2:	80 81       	ld	r24, Z
    13a4:	81 30       	cpi	r24, 0x01	; 1
    13a6:	09 f0       	breq	.+2      	; 0x13aa <LCDDisplay+0x20>
    13a8:	6f c0       	rjmp	.+222    	; 0x1488 <LCDDisplay+0xfe>
	{
		switch (Menu[1])
    13aa:	8a 81       	ldd	r24, Y+2	; 0x02
    13ac:	9b 81       	ldd	r25, Y+3	; 0x03
    13ae:	fc 01       	movw	r30, r24
    13b0:	31 96       	adiw	r30, 0x01	; 1
    13b2:	80 81       	ld	r24, Z
    13b4:	28 2f       	mov	r18, r24
    13b6:	30 e0       	ldi	r19, 0x00	; 0
    13b8:	2e 83       	std	Y+6, r18	; 0x06
    13ba:	3f 83       	std	Y+7, r19	; 0x07
    13bc:	8e 81       	ldd	r24, Y+6	; 0x06
    13be:	9f 81       	ldd	r25, Y+7	; 0x07
    13c0:	83 30       	cpi	r24, 0x03	; 3
    13c2:	91 05       	cpc	r25, r1
    13c4:	09 f4       	brne	.+2      	; 0x13c8 <LCDDisplay+0x3e>
    13c6:	3e c0       	rjmp	.+124    	; 0x1444 <LCDDisplay+0xba>
    13c8:	2e 81       	ldd	r18, Y+6	; 0x06
    13ca:	3f 81       	ldd	r19, Y+7	; 0x07
    13cc:	24 30       	cpi	r18, 0x04	; 4
    13ce:	31 05       	cpc	r19, r1
    13d0:	7c f4       	brge	.+30     	; 0x13f0 <LCDDisplay+0x66>
    13d2:	8e 81       	ldd	r24, Y+6	; 0x06
    13d4:	9f 81       	ldd	r25, Y+7	; 0x07
    13d6:	81 30       	cpi	r24, 0x01	; 1
    13d8:	91 05       	cpc	r25, r1
    13da:	31 f1       	breq	.+76     	; 0x1428 <LCDDisplay+0x9e>
    13dc:	2e 81       	ldd	r18, Y+6	; 0x06
    13de:	3f 81       	ldd	r19, Y+7	; 0x07
    13e0:	22 30       	cpi	r18, 0x02	; 2
    13e2:	31 05       	cpc	r19, r1
    13e4:	44 f5       	brge	.+80     	; 0x1436 <LCDDisplay+0xac>
    13e6:	8e 81       	ldd	r24, Y+6	; 0x06
    13e8:	9f 81       	ldd	r25, Y+7	; 0x07
    13ea:	00 97       	sbiw	r24, 0x00	; 0
    13ec:	b1 f0       	breq	.+44     	; 0x141a <LCDDisplay+0x90>
    13ee:	4c c0       	rjmp	.+152    	; 0x1488 <LCDDisplay+0xfe>
    13f0:	2e 81       	ldd	r18, Y+6	; 0x06
    13f2:	3f 81       	ldd	r19, Y+7	; 0x07
    13f4:	25 30       	cpi	r18, 0x05	; 5
    13f6:	31 05       	cpc	r19, r1
    13f8:	99 f1       	breq	.+102    	; 0x1460 <LCDDisplay+0xd6>
    13fa:	8e 81       	ldd	r24, Y+6	; 0x06
    13fc:	9f 81       	ldd	r25, Y+7	; 0x07
    13fe:	85 30       	cpi	r24, 0x05	; 5
    1400:	91 05       	cpc	r25, r1
    1402:	3c f1       	brlt	.+78     	; 0x1452 <LCDDisplay+0xc8>
    1404:	2e 81       	ldd	r18, Y+6	; 0x06
    1406:	3f 81       	ldd	r19, Y+7	; 0x07
    1408:	26 30       	cpi	r18, 0x06	; 6
    140a:	31 05       	cpc	r19, r1
    140c:	81 f1       	breq	.+96     	; 0x146e <LCDDisplay+0xe4>
    140e:	8e 81       	ldd	r24, Y+6	; 0x06
    1410:	9f 81       	ldd	r25, Y+7	; 0x07
    1412:	87 30       	cpi	r24, 0x07	; 7
    1414:	91 05       	cpc	r25, r1
    1416:	91 f1       	breq	.+100    	; 0x147c <LCDDisplay+0xf2>
    1418:	37 c0       	rjmp	.+110    	; 0x1488 <LCDDisplay+0xfe>
		{
		case 0: LcdClear();
    141a:	0e 94 07 19 	call	0x320e	; 0x320e <LcdClear>
				LcdWrite("  Sterowanie PC");
    141e:	87 e1       	ldi	r24, 0x17	; 23
    1420:	90 e2       	ldi	r25, 0x20	; 32
    1422:	0e 94 a6 18 	call	0x314c	; 0x314c <LcdWrite>
    1426:	30 c0       	rjmp	.+96     	; 0x1488 <LCDDisplay+0xfe>
				break;
		case 1: LcdClear();
    1428:	0e 94 07 19 	call	0x320e	; 0x320e <LcdClear>
				LcdWrite("  Wybrano os 1");
    142c:	87 e2       	ldi	r24, 0x27	; 39
    142e:	90 e2       	ldi	r25, 0x20	; 32
    1430:	0e 94 a6 18 	call	0x314c	; 0x314c <LcdWrite>
    1434:	29 c0       	rjmp	.+82     	; 0x1488 <LCDDisplay+0xfe>
				break;
		case 2: LcdClear();
    1436:	0e 94 07 19 	call	0x320e	; 0x320e <LcdClear>
				LcdWrite("  Wybrano os 2");
    143a:	86 e3       	ldi	r24, 0x36	; 54
    143c:	90 e2       	ldi	r25, 0x20	; 32
    143e:	0e 94 a6 18 	call	0x314c	; 0x314c <LcdWrite>
    1442:	22 c0       	rjmp	.+68     	; 0x1488 <LCDDisplay+0xfe>
				break;
		case 3: LcdClear();
    1444:	0e 94 07 19 	call	0x320e	; 0x320e <LcdClear>
				LcdWrite("  Wybrano os 3");
    1448:	85 e4       	ldi	r24, 0x45	; 69
    144a:	90 e2       	ldi	r25, 0x20	; 32
    144c:	0e 94 a6 18 	call	0x314c	; 0x314c <LcdWrite>
    1450:	1b c0       	rjmp	.+54     	; 0x1488 <LCDDisplay+0xfe>
				break;
		case 4: LcdClear();
    1452:	0e 94 07 19 	call	0x320e	; 0x320e <LcdClear>
				LcdWrite("  Wybrano os 4");
    1456:	84 e5       	ldi	r24, 0x54	; 84
    1458:	90 e2       	ldi	r25, 0x20	; 32
    145a:	0e 94 a6 18 	call	0x314c	; 0x314c <LcdWrite>
    145e:	14 c0       	rjmp	.+40     	; 0x1488 <LCDDisplay+0xfe>
				break;
		case 5: LcdClear();
    1460:	0e 94 07 19 	call	0x320e	; 0x320e <LcdClear>
				LcdWrite("  Wybrano os 5");
    1464:	83 e6       	ldi	r24, 0x63	; 99
    1466:	90 e2       	ldi	r25, 0x20	; 32
    1468:	0e 94 a6 18 	call	0x314c	; 0x314c <LcdWrite>
    146c:	0d c0       	rjmp	.+26     	; 0x1488 <LCDDisplay+0xfe>
				break;
		case 6: LcdClear();
    146e:	0e 94 07 19 	call	0x320e	; 0x320e <LcdClear>
				LcdWrite("  Wybrano os 6");
    1472:	82 e7       	ldi	r24, 0x72	; 114
    1474:	90 e2       	ldi	r25, 0x20	; 32
    1476:	0e 94 a6 18 	call	0x314c	; 0x314c <LcdWrite>
    147a:	06 c0       	rjmp	.+12     	; 0x1488 <LCDDisplay+0xfe>
				break;
		case 7: LcdClear();
    147c:	0e 94 07 19 	call	0x320e	; 0x320e <LcdClear>
				LcdWrite("    Chwytak");
    1480:	81 e8       	ldi	r24, 0x81	; 129
    1482:	90 e2       	ldi	r25, 0x20	; 32
    1484:	0e 94 a6 18 	call	0x314c	; 0x314c <LcdWrite>
				break;
		}
	}
	if (Menu[0] == 2 && Menu[1] == 0)
    1488:	ea 81       	ldd	r30, Y+2	; 0x02
    148a:	fb 81       	ldd	r31, Y+3	; 0x03
    148c:	80 81       	ld	r24, Z
    148e:	82 30       	cpi	r24, 0x02	; 2
    1490:	61 f5       	brne	.+88     	; 0x14ea <LCDDisplay+0x160>
    1492:	8a 81       	ldd	r24, Y+2	; 0x02
    1494:	9b 81       	ldd	r25, Y+3	; 0x03
    1496:	fc 01       	movw	r30, r24
    1498:	31 96       	adiw	r30, 0x01	; 1
    149a:	80 81       	ld	r24, Z
    149c:	88 23       	and	r24, r24
    149e:	29 f5       	brne	.+74     	; 0x14ea <LCDDisplay+0x160>
	{
		LcdClear();
    14a0:	0e 94 07 19 	call	0x320e	; 0x320e <LcdClear>
		LcdWrite(" Polaczono z PC");
    14a4:	8d e8       	ldi	r24, 0x8D	; 141
    14a6:	90 e2       	ldi	r25, 0x20	; 32
    14a8:	0e 94 a6 18 	call	0x314c	; 0x314c <LcdWrite>
		Stayhere = 1;
    14ac:	81 e0       	ldi	r24, 0x01	; 1
    14ae:	89 83       	std	Y+1, r24	; 0x01
    14b0:	19 c0       	rjmp	.+50     	; 0x14e4 <LCDDisplay+0x15a>
		while(Stayhere)
		{
			ExecuteCommand();
    14b2:	0e 94 65 15 	call	0x2aca	; 0x2aca <ExecuteCommand>
			//}
			//PID(Pidindex);
			//_delay_ms(1);
			//Pidindex++;

			if (ButtonESC)
    14b6:	e0 e2       	ldi	r30, 0x20	; 32
    14b8:	f7 e0       	ldi	r31, 0x07	; 7
    14ba:	80 85       	ldd	r24, Z+8	; 0x08
    14bc:	88 2f       	mov	r24, r24
    14be:	90 e0       	ldi	r25, 0x00	; 0
    14c0:	80 74       	andi	r24, 0x40	; 64
    14c2:	90 70       	andi	r25, 0x00	; 0
    14c4:	00 97       	sbiw	r24, 0x00	; 0
    14c6:	71 f4       	brne	.+28     	; 0x14e4 <LCDDisplay+0x15a>
			{
				Stayhere = 0;
    14c8:	19 82       	std	Y+1, r1	; 0x01
				LcdClear();
    14ca:	0e 94 07 19 	call	0x320e	; 0x320e <LcdClear>
				LcdWrite("  Sterowanie PC");
    14ce:	87 e1       	ldi	r24, 0x17	; 23
    14d0:	90 e2       	ldi	r25, 0x20	; 32
    14d2:	0e 94 a6 18 	call	0x314c	; 0x314c <LcdWrite>
				Menu[0]--;
    14d6:	ea 81       	ldd	r30, Y+2	; 0x02
    14d8:	fb 81       	ldd	r31, Y+3	; 0x03
    14da:	80 81       	ld	r24, Z
    14dc:	81 50       	subi	r24, 0x01	; 1
    14de:	ea 81       	ldd	r30, Y+2	; 0x02
    14e0:	fb 81       	ldd	r31, Y+3	; 0x03
    14e2:	80 83       	st	Z, r24
	if (Menu[0] == 2 && Menu[1] == 0)
	{
		LcdClear();
		LcdWrite(" Polaczono z PC");
		Stayhere = 1;
		while(Stayhere)
    14e4:	89 81       	ldd	r24, Y+1	; 0x01
    14e6:	88 23       	and	r24, r24
    14e8:	21 f7       	brne	.-56     	; 0x14b2 <LCDDisplay+0x128>
			}

		}
	}

	if (Menu[0] == 2 && Menu[1] >= 1 && Menu[1] <=6)
    14ea:	ea 81       	ldd	r30, Y+2	; 0x02
    14ec:	fb 81       	ldd	r31, Y+3	; 0x03
    14ee:	80 81       	ld	r24, Z
    14f0:	82 30       	cpi	r24, 0x02	; 2
    14f2:	71 f5       	brne	.+92     	; 0x1550 <LCDDisplay+0x1c6>
    14f4:	8a 81       	ldd	r24, Y+2	; 0x02
    14f6:	9b 81       	ldd	r25, Y+3	; 0x03
    14f8:	fc 01       	movw	r30, r24
    14fa:	31 96       	adiw	r30, 0x01	; 1
    14fc:	80 81       	ld	r24, Z
    14fe:	88 23       	and	r24, r24
    1500:	39 f1       	breq	.+78     	; 0x1550 <LCDDisplay+0x1c6>
    1502:	8a 81       	ldd	r24, Y+2	; 0x02
    1504:	9b 81       	ldd	r25, Y+3	; 0x03
    1506:	fc 01       	movw	r30, r24
    1508:	31 96       	adiw	r30, 0x01	; 1
    150a:	80 81       	ld	r24, Z
    150c:	87 30       	cpi	r24, 0x07	; 7
    150e:	00 f5       	brcc	.+64     	; 0x1550 <LCDDisplay+0x1c6>
	{
		switch (Menu[2])
    1510:	8a 81       	ldd	r24, Y+2	; 0x02
    1512:	9b 81       	ldd	r25, Y+3	; 0x03
    1514:	fc 01       	movw	r30, r24
    1516:	32 96       	adiw	r30, 0x02	; 2
    1518:	80 81       	ld	r24, Z
    151a:	28 2f       	mov	r18, r24
    151c:	30 e0       	ldi	r19, 0x00	; 0
    151e:	2c 83       	std	Y+4, r18	; 0x04
    1520:	3d 83       	std	Y+5, r19	; 0x05
    1522:	8c 81       	ldd	r24, Y+4	; 0x04
    1524:	9d 81       	ldd	r25, Y+5	; 0x05
    1526:	00 97       	sbiw	r24, 0x00	; 0
    1528:	31 f0       	breq	.+12     	; 0x1536 <LCDDisplay+0x1ac>
    152a:	2c 81       	ldd	r18, Y+4	; 0x04
    152c:	3d 81       	ldd	r19, Y+5	; 0x05
    152e:	21 30       	cpi	r18, 0x01	; 1
    1530:	31 05       	cpc	r19, r1
    1532:	41 f0       	breq	.+16     	; 0x1544 <LCDDisplay+0x1ba>
    1534:	0d c0       	rjmp	.+26     	; 0x1550 <LCDDisplay+0x1c6>
		{
		case 0: LcdClear();
    1536:	0e 94 07 19 	call	0x320e	; 0x320e <LcdClear>
				LcdWrite("    Ruch osi");
    153a:	8d e9       	ldi	r24, 0x9D	; 157
    153c:	90 e2       	ldi	r25, 0x20	; 32
    153e:	0e 94 a6 18 	call	0x314c	; 0x314c <LcdWrite>
    1542:	06 c0       	rjmp	.+12     	; 0x1550 <LCDDisplay+0x1c6>
				break;
		case 1: LcdClear();
    1544:	0e 94 07 19 	call	0x320e	; 0x320e <LcdClear>
				LcdWrite("    Predkosc");
    1548:	8a ea       	ldi	r24, 0xAA	; 170
    154a:	90 e2       	ldi	r25, 0x20	; 32
    154c:	0e 94 a6 18 	call	0x314c	; 0x314c <LcdWrite>
				break;
		}

	}
	if (Menu[0] == 2 && Menu[1] == 7)
    1550:	ea 81       	ldd	r30, Y+2	; 0x02
    1552:	fb 81       	ldd	r31, Y+3	; 0x03
    1554:	80 81       	ld	r24, Z
    1556:	82 30       	cpi	r24, 0x02	; 2
    1558:	f1 f4       	brne	.+60     	; 0x1596 <LCDDisplay+0x20c>
    155a:	8a 81       	ldd	r24, Y+2	; 0x02
    155c:	9b 81       	ldd	r25, Y+3	; 0x03
    155e:	fc 01       	movw	r30, r24
    1560:	31 96       	adiw	r30, 0x01	; 1
    1562:	80 81       	ld	r24, Z
    1564:	87 30       	cpi	r24, 0x07	; 7
    1566:	b9 f4       	brne	.+46     	; 0x1596 <LCDDisplay+0x20c>
		switch (Menu[2])
    1568:	8a 81       	ldd	r24, Y+2	; 0x02
    156a:	9b 81       	ldd	r25, Y+3	; 0x03
    156c:	fc 01       	movw	r30, r24
    156e:	32 96       	adiw	r30, 0x02	; 2
    1570:	80 81       	ld	r24, Z
    1572:	88 2f       	mov	r24, r24
    1574:	90 e0       	ldi	r25, 0x00	; 0
    1576:	00 97       	sbiw	r24, 0x00	; 0
    1578:	71 f4       	brne	.+28     	; 0x1596 <LCDDisplay+0x20c>
		{
		case 0: LcdClear();
    157a:	0e 94 07 19 	call	0x320e	; 0x320e <LcdClear>
				LcdWrite("   Sterowanie");
    157e:	87 eb       	ldi	r24, 0xB7	; 183
    1580:	90 e2       	ldi	r25, 0x20	; 32
    1582:	0e 94 a6 18 	call	0x314c	; 0x314c <LcdWrite>
				LcdGoto(0,1);
    1586:	80 e0       	ldi	r24, 0x00	; 0
    1588:	61 e0       	ldi	r22, 0x01	; 1
    158a:	0e 94 e8 18 	call	0x31d0	; 0x31d0 <LcdGoto>
				LcdWrite("   Chwytakiem");
    158e:	85 ec       	ldi	r24, 0xC5	; 197
    1590:	90 e2       	ldi	r25, 0x20	; 32
    1592:	0e 94 a6 18 	call	0x314c	; 0x314c <LcdWrite>
		}


	if (Menu[0] ==3 && Menu[1] >=1 && Menu[1] <=6 && Menu[2] == 1)
    1596:	ea 81       	ldd	r30, Y+2	; 0x02
    1598:	fb 81       	ldd	r31, Y+3	; 0x03
    159a:	80 81       	ld	r24, Z
    159c:	83 30       	cpi	r24, 0x03	; 3
    159e:	01 f5       	brne	.+64     	; 0x15e0 <LCDDisplay+0x256>
    15a0:	8a 81       	ldd	r24, Y+2	; 0x02
    15a2:	9b 81       	ldd	r25, Y+3	; 0x03
    15a4:	fc 01       	movw	r30, r24
    15a6:	31 96       	adiw	r30, 0x01	; 1
    15a8:	80 81       	ld	r24, Z
    15aa:	88 23       	and	r24, r24
    15ac:	c9 f0       	breq	.+50     	; 0x15e0 <LCDDisplay+0x256>
    15ae:	8a 81       	ldd	r24, Y+2	; 0x02
    15b0:	9b 81       	ldd	r25, Y+3	; 0x03
    15b2:	fc 01       	movw	r30, r24
    15b4:	31 96       	adiw	r30, 0x01	; 1
    15b6:	80 81       	ld	r24, Z
    15b8:	87 30       	cpi	r24, 0x07	; 7
    15ba:	90 f4       	brcc	.+36     	; 0x15e0 <LCDDisplay+0x256>
    15bc:	8a 81       	ldd	r24, Y+2	; 0x02
    15be:	9b 81       	ldd	r25, Y+3	; 0x03
    15c0:	fc 01       	movw	r30, r24
    15c2:	32 96       	adiw	r30, 0x02	; 2
    15c4:	80 81       	ld	r24, Z
    15c6:	81 30       	cpi	r24, 0x01	; 1
    15c8:	59 f4       	brne	.+22     	; 0x15e0 <LCDDisplay+0x256>
	{
		Stayhere = 1;
    15ca:	81 e0       	ldi	r24, 0x01	; 1
    15cc:	89 83       	std	Y+1, r24	; 0x01
    15ce:	03 c0       	rjmp	.+6      	; 0x15d6 <LCDDisplay+0x24c>
		while(Stayhere)
		{
	ButtonWork = 1;
    15d0:	81 e0       	ldi	r24, 0x01	; 1
    15d2:	80 93 30 21 	sts	0x2130, r24


	if (Menu[0] ==3 && Menu[1] >=1 && Menu[1] <=6 && Menu[2] == 1)
	{
		Stayhere = 1;
		while(Stayhere)
    15d6:	89 81       	ldd	r24, Y+1	; 0x01
    15d8:	88 23       	and	r24, r24
    15da:	d1 f7       	brne	.-12     	; 0x15d0 <LCDDisplay+0x246>
					Menu[0]--;
					LcdClear();
					LcdWrite("    Predkosc");
					} */
		}
		ButtonWork = 0;
    15dc:	10 92 30 21 	sts	0x2130, r1
	}

	if (Menu[0] ==3 && Menu[1] >=1 && Menu[1] <=7 && Menu[2] == 0)
    15e0:	ea 81       	ldd	r30, Y+2	; 0x02
    15e2:	fb 81       	ldd	r31, Y+3	; 0x03
    15e4:	80 81       	ld	r24, Z
    15e6:	83 30       	cpi	r24, 0x03	; 3
    15e8:	09 f0       	breq	.+2      	; 0x15ec <LCDDisplay+0x262>
    15ea:	97 c1       	rjmp	.+814    	; 0x191a <LCDDisplay+0x590>
    15ec:	8a 81       	ldd	r24, Y+2	; 0x02
    15ee:	9b 81       	ldd	r25, Y+3	; 0x03
    15f0:	fc 01       	movw	r30, r24
    15f2:	31 96       	adiw	r30, 0x01	; 1
    15f4:	80 81       	ld	r24, Z
    15f6:	88 23       	and	r24, r24
    15f8:	09 f4       	brne	.+2      	; 0x15fc <LCDDisplay+0x272>
    15fa:	8f c1       	rjmp	.+798    	; 0x191a <LCDDisplay+0x590>
    15fc:	8a 81       	ldd	r24, Y+2	; 0x02
    15fe:	9b 81       	ldd	r25, Y+3	; 0x03
    1600:	fc 01       	movw	r30, r24
    1602:	31 96       	adiw	r30, 0x01	; 1
    1604:	80 81       	ld	r24, Z
    1606:	88 30       	cpi	r24, 0x08	; 8
    1608:	08 f0       	brcs	.+2      	; 0x160c <LCDDisplay+0x282>
    160a:	87 c1       	rjmp	.+782    	; 0x191a <LCDDisplay+0x590>
    160c:	8a 81       	ldd	r24, Y+2	; 0x02
    160e:	9b 81       	ldd	r25, Y+3	; 0x03
    1610:	fc 01       	movw	r30, r24
    1612:	32 96       	adiw	r30, 0x02	; 2
    1614:	80 81       	ld	r24, Z
    1616:	88 23       	and	r24, r24
    1618:	09 f0       	breq	.+2      	; 0x161c <LCDDisplay+0x292>
    161a:	7f c1       	rjmp	.+766    	; 0x191a <LCDDisplay+0x590>
	{
		Stayhere = 1;
    161c:	81 e0       	ldi	r24, 0x01	; 1
    161e:	89 83       	std	Y+1, r24	; 0x01
		LcdClear();
    1620:	0e 94 07 19 	call	0x320e	; 0x320e <LcdClear>
		LcdWrite("     Ruszaj");
    1624:	83 ed       	ldi	r24, 0xD3	; 211
    1626:	90 e2       	ldi	r25, 0x20	; 32
    1628:	0e 94 a6 18 	call	0x314c	; 0x314c <LcdWrite>
    162c:	6a c1       	rjmp	.+724    	; 0x1902 <LCDDisplay+0x578>
		while(Stayhere)
		{
			ButtonWork = 1;
    162e:	81 e0       	ldi	r24, 0x01	; 1
    1630:	80 93 30 21 	sts	0x2130, r24
			if (Menu[1] == 1)
    1634:	8a 81       	ldd	r24, Y+2	; 0x02
    1636:	9b 81       	ldd	r25, Y+3	; 0x03
    1638:	fc 01       	movw	r30, r24
    163a:	31 96       	adiw	r30, 0x01	; 1
    163c:	80 81       	ld	r24, Z
    163e:	81 30       	cpi	r24, 0x01	; 1
    1640:	59 f5       	brne	.+86     	; 0x1698 <LCDDisplay+0x30e>
			{
				if (ButtonUP)  Onlinecontrol(0,1);
    1642:	e0 ea       	ldi	r30, 0xA0	; 160
    1644:	f6 e0       	ldi	r31, 0x06	; 6
    1646:	80 85       	ldd	r24, Z+8	; 0x08
    1648:	88 23       	and	r24, r24
    164a:	24 f0       	brlt	.+8      	; 0x1654 <LCDDisplay+0x2ca>
    164c:	80 e0       	ldi	r24, 0x00	; 0
    164e:	61 e0       	ldi	r22, 0x01	; 1
    1650:	0e 94 8f 14 	call	0x291e	; 0x291e <Onlinecontrol>
				if (ButtonDOWN) Onlinecontrol(0,2);
    1654:	e0 ea       	ldi	r30, 0xA0	; 160
    1656:	f6 e0       	ldi	r31, 0x06	; 6
    1658:	80 85       	ldd	r24, Z+8	; 0x08
    165a:	88 2f       	mov	r24, r24
    165c:	90 e0       	ldi	r25, 0x00	; 0
    165e:	80 74       	andi	r24, 0x40	; 64
    1660:	90 70       	andi	r25, 0x00	; 0
    1662:	00 97       	sbiw	r24, 0x00	; 0
    1664:	21 f4       	brne	.+8      	; 0x166e <LCDDisplay+0x2e4>
    1666:	80 e0       	ldi	r24, 0x00	; 0
    1668:	62 e0       	ldi	r22, 0x02	; 2
    166a:	0e 94 8f 14 	call	0x291e	; 0x291e <Onlinecontrol>
				if (!ButtonUP && !ButtonDOWN) Onlinecontrol(0,3);
    166e:	e0 ea       	ldi	r30, 0xA0	; 160
    1670:	f6 e0       	ldi	r31, 0x06	; 6
    1672:	80 85       	ldd	r24, Z+8	; 0x08
    1674:	88 23       	and	r24, r24
    1676:	0c f0       	brlt	.+2      	; 0x167a <LCDDisplay+0x2f0>
    1678:	36 c1       	rjmp	.+620    	; 0x18e6 <LCDDisplay+0x55c>
    167a:	e0 ea       	ldi	r30, 0xA0	; 160
    167c:	f6 e0       	ldi	r31, 0x06	; 6
    167e:	80 85       	ldd	r24, Z+8	; 0x08
    1680:	88 2f       	mov	r24, r24
    1682:	90 e0       	ldi	r25, 0x00	; 0
    1684:	80 74       	andi	r24, 0x40	; 64
    1686:	90 70       	andi	r25, 0x00	; 0
    1688:	00 97       	sbiw	r24, 0x00	; 0
    168a:	09 f4       	brne	.+2      	; 0x168e <LCDDisplay+0x304>
    168c:	2c c1       	rjmp	.+600    	; 0x18e6 <LCDDisplay+0x55c>
    168e:	80 e0       	ldi	r24, 0x00	; 0
    1690:	63 e0       	ldi	r22, 0x03	; 3
    1692:	0e 94 8f 14 	call	0x291e	; 0x291e <Onlinecontrol>
    1696:	27 c1       	rjmp	.+590    	; 0x18e6 <LCDDisplay+0x55c>
			}
			else if (Menu[1] == 2)
    1698:	8a 81       	ldd	r24, Y+2	; 0x02
    169a:	9b 81       	ldd	r25, Y+3	; 0x03
    169c:	fc 01       	movw	r30, r24
    169e:	31 96       	adiw	r30, 0x01	; 1
    16a0:	80 81       	ld	r24, Z
    16a2:	82 30       	cpi	r24, 0x02	; 2
    16a4:	59 f5       	brne	.+86     	; 0x16fc <LCDDisplay+0x372>
			{
				if (ButtonUP) Onlinecontrol(1,1);
    16a6:	e0 ea       	ldi	r30, 0xA0	; 160
    16a8:	f6 e0       	ldi	r31, 0x06	; 6
    16aa:	80 85       	ldd	r24, Z+8	; 0x08
    16ac:	88 23       	and	r24, r24
    16ae:	24 f0       	brlt	.+8      	; 0x16b8 <LCDDisplay+0x32e>
    16b0:	81 e0       	ldi	r24, 0x01	; 1
    16b2:	61 e0       	ldi	r22, 0x01	; 1
    16b4:	0e 94 8f 14 	call	0x291e	; 0x291e <Onlinecontrol>
				if (ButtonDOWN) Onlinecontrol(1,2);
    16b8:	e0 ea       	ldi	r30, 0xA0	; 160
    16ba:	f6 e0       	ldi	r31, 0x06	; 6
    16bc:	80 85       	ldd	r24, Z+8	; 0x08
    16be:	88 2f       	mov	r24, r24
    16c0:	90 e0       	ldi	r25, 0x00	; 0
    16c2:	80 74       	andi	r24, 0x40	; 64
    16c4:	90 70       	andi	r25, 0x00	; 0
    16c6:	00 97       	sbiw	r24, 0x00	; 0
    16c8:	21 f4       	brne	.+8      	; 0x16d2 <LCDDisplay+0x348>
    16ca:	81 e0       	ldi	r24, 0x01	; 1
    16cc:	62 e0       	ldi	r22, 0x02	; 2
    16ce:	0e 94 8f 14 	call	0x291e	; 0x291e <Onlinecontrol>
				if (!ButtonUP && !ButtonDOWN) Onlinecontrol(1,3);
    16d2:	e0 ea       	ldi	r30, 0xA0	; 160
    16d4:	f6 e0       	ldi	r31, 0x06	; 6
    16d6:	80 85       	ldd	r24, Z+8	; 0x08
    16d8:	88 23       	and	r24, r24
    16da:	0c f0       	brlt	.+2      	; 0x16de <LCDDisplay+0x354>
    16dc:	04 c1       	rjmp	.+520    	; 0x18e6 <LCDDisplay+0x55c>
    16de:	e0 ea       	ldi	r30, 0xA0	; 160
    16e0:	f6 e0       	ldi	r31, 0x06	; 6
    16e2:	80 85       	ldd	r24, Z+8	; 0x08
    16e4:	88 2f       	mov	r24, r24
    16e6:	90 e0       	ldi	r25, 0x00	; 0
    16e8:	80 74       	andi	r24, 0x40	; 64
    16ea:	90 70       	andi	r25, 0x00	; 0
    16ec:	00 97       	sbiw	r24, 0x00	; 0
    16ee:	09 f4       	brne	.+2      	; 0x16f2 <LCDDisplay+0x368>
    16f0:	fa c0       	rjmp	.+500    	; 0x18e6 <LCDDisplay+0x55c>
    16f2:	81 e0       	ldi	r24, 0x01	; 1
    16f4:	63 e0       	ldi	r22, 0x03	; 3
    16f6:	0e 94 8f 14 	call	0x291e	; 0x291e <Onlinecontrol>
    16fa:	f5 c0       	rjmp	.+490    	; 0x18e6 <LCDDisplay+0x55c>
			}
			else if (Menu[1] == 3)
    16fc:	8a 81       	ldd	r24, Y+2	; 0x02
    16fe:	9b 81       	ldd	r25, Y+3	; 0x03
    1700:	fc 01       	movw	r30, r24
    1702:	31 96       	adiw	r30, 0x01	; 1
    1704:	80 81       	ld	r24, Z
    1706:	83 30       	cpi	r24, 0x03	; 3
    1708:	59 f5       	brne	.+86     	; 0x1760 <LCDDisplay+0x3d6>
			{
				if (ButtonUP) Onlinecontrol(2,1);
    170a:	e0 ea       	ldi	r30, 0xA0	; 160
    170c:	f6 e0       	ldi	r31, 0x06	; 6
    170e:	80 85       	ldd	r24, Z+8	; 0x08
    1710:	88 23       	and	r24, r24
    1712:	24 f0       	brlt	.+8      	; 0x171c <LCDDisplay+0x392>
    1714:	82 e0       	ldi	r24, 0x02	; 2
    1716:	61 e0       	ldi	r22, 0x01	; 1
    1718:	0e 94 8f 14 	call	0x291e	; 0x291e <Onlinecontrol>
				if (ButtonDOWN) Onlinecontrol(2,2);
    171c:	e0 ea       	ldi	r30, 0xA0	; 160
    171e:	f6 e0       	ldi	r31, 0x06	; 6
    1720:	80 85       	ldd	r24, Z+8	; 0x08
    1722:	88 2f       	mov	r24, r24
    1724:	90 e0       	ldi	r25, 0x00	; 0
    1726:	80 74       	andi	r24, 0x40	; 64
    1728:	90 70       	andi	r25, 0x00	; 0
    172a:	00 97       	sbiw	r24, 0x00	; 0
    172c:	21 f4       	brne	.+8      	; 0x1736 <LCDDisplay+0x3ac>
    172e:	82 e0       	ldi	r24, 0x02	; 2
    1730:	62 e0       	ldi	r22, 0x02	; 2
    1732:	0e 94 8f 14 	call	0x291e	; 0x291e <Onlinecontrol>
				if (!ButtonUP && !ButtonDOWN) Onlinecontrol(2,3);
    1736:	e0 ea       	ldi	r30, 0xA0	; 160
    1738:	f6 e0       	ldi	r31, 0x06	; 6
    173a:	80 85       	ldd	r24, Z+8	; 0x08
    173c:	88 23       	and	r24, r24
    173e:	0c f0       	brlt	.+2      	; 0x1742 <LCDDisplay+0x3b8>
    1740:	d2 c0       	rjmp	.+420    	; 0x18e6 <LCDDisplay+0x55c>
    1742:	e0 ea       	ldi	r30, 0xA0	; 160
    1744:	f6 e0       	ldi	r31, 0x06	; 6
    1746:	80 85       	ldd	r24, Z+8	; 0x08
    1748:	88 2f       	mov	r24, r24
    174a:	90 e0       	ldi	r25, 0x00	; 0
    174c:	80 74       	andi	r24, 0x40	; 64
    174e:	90 70       	andi	r25, 0x00	; 0
    1750:	00 97       	sbiw	r24, 0x00	; 0
    1752:	09 f4       	brne	.+2      	; 0x1756 <LCDDisplay+0x3cc>
    1754:	c8 c0       	rjmp	.+400    	; 0x18e6 <LCDDisplay+0x55c>
    1756:	82 e0       	ldi	r24, 0x02	; 2
    1758:	63 e0       	ldi	r22, 0x03	; 3
    175a:	0e 94 8f 14 	call	0x291e	; 0x291e <Onlinecontrol>
    175e:	c3 c0       	rjmp	.+390    	; 0x18e6 <LCDDisplay+0x55c>
			}
			else if (Menu[1] == 4)
    1760:	8a 81       	ldd	r24, Y+2	; 0x02
    1762:	9b 81       	ldd	r25, Y+3	; 0x03
    1764:	fc 01       	movw	r30, r24
    1766:	31 96       	adiw	r30, 0x01	; 1
    1768:	80 81       	ld	r24, Z
    176a:	84 30       	cpi	r24, 0x04	; 4
    176c:	59 f5       	brne	.+86     	; 0x17c4 <LCDDisplay+0x43a>
			{
				if (ButtonUP) Onlinecontrol(3,1);
    176e:	e0 ea       	ldi	r30, 0xA0	; 160
    1770:	f6 e0       	ldi	r31, 0x06	; 6
    1772:	80 85       	ldd	r24, Z+8	; 0x08
    1774:	88 23       	and	r24, r24
    1776:	24 f0       	brlt	.+8      	; 0x1780 <LCDDisplay+0x3f6>
    1778:	83 e0       	ldi	r24, 0x03	; 3
    177a:	61 e0       	ldi	r22, 0x01	; 1
    177c:	0e 94 8f 14 	call	0x291e	; 0x291e <Onlinecontrol>
				if (ButtonDOWN) Onlinecontrol(3,2);
    1780:	e0 ea       	ldi	r30, 0xA0	; 160
    1782:	f6 e0       	ldi	r31, 0x06	; 6
    1784:	80 85       	ldd	r24, Z+8	; 0x08
    1786:	88 2f       	mov	r24, r24
    1788:	90 e0       	ldi	r25, 0x00	; 0
    178a:	80 74       	andi	r24, 0x40	; 64
    178c:	90 70       	andi	r25, 0x00	; 0
    178e:	00 97       	sbiw	r24, 0x00	; 0
    1790:	21 f4       	brne	.+8      	; 0x179a <LCDDisplay+0x410>
    1792:	83 e0       	ldi	r24, 0x03	; 3
    1794:	62 e0       	ldi	r22, 0x02	; 2
    1796:	0e 94 8f 14 	call	0x291e	; 0x291e <Onlinecontrol>
				if (!ButtonUP && !ButtonDOWN) Onlinecontrol(3,3);
    179a:	e0 ea       	ldi	r30, 0xA0	; 160
    179c:	f6 e0       	ldi	r31, 0x06	; 6
    179e:	80 85       	ldd	r24, Z+8	; 0x08
    17a0:	88 23       	and	r24, r24
    17a2:	0c f0       	brlt	.+2      	; 0x17a6 <LCDDisplay+0x41c>
    17a4:	a0 c0       	rjmp	.+320    	; 0x18e6 <LCDDisplay+0x55c>
    17a6:	e0 ea       	ldi	r30, 0xA0	; 160
    17a8:	f6 e0       	ldi	r31, 0x06	; 6
    17aa:	80 85       	ldd	r24, Z+8	; 0x08
    17ac:	88 2f       	mov	r24, r24
    17ae:	90 e0       	ldi	r25, 0x00	; 0
    17b0:	80 74       	andi	r24, 0x40	; 64
    17b2:	90 70       	andi	r25, 0x00	; 0
    17b4:	00 97       	sbiw	r24, 0x00	; 0
    17b6:	09 f4       	brne	.+2      	; 0x17ba <LCDDisplay+0x430>
    17b8:	96 c0       	rjmp	.+300    	; 0x18e6 <LCDDisplay+0x55c>
    17ba:	83 e0       	ldi	r24, 0x03	; 3
    17bc:	63 e0       	ldi	r22, 0x03	; 3
    17be:	0e 94 8f 14 	call	0x291e	; 0x291e <Onlinecontrol>
    17c2:	91 c0       	rjmp	.+290    	; 0x18e6 <LCDDisplay+0x55c>
			}
			else if (Menu[1] == 5)
    17c4:	8a 81       	ldd	r24, Y+2	; 0x02
    17c6:	9b 81       	ldd	r25, Y+3	; 0x03
    17c8:	fc 01       	movw	r30, r24
    17ca:	31 96       	adiw	r30, 0x01	; 1
    17cc:	80 81       	ld	r24, Z
    17ce:	85 30       	cpi	r24, 0x05	; 5
    17d0:	59 f5       	brne	.+86     	; 0x1828 <LCDDisplay+0x49e>
			{
				if (ButtonUP) Onlinecontrol(4,1);
    17d2:	e0 ea       	ldi	r30, 0xA0	; 160
    17d4:	f6 e0       	ldi	r31, 0x06	; 6
    17d6:	80 85       	ldd	r24, Z+8	; 0x08
    17d8:	88 23       	and	r24, r24
    17da:	24 f0       	brlt	.+8      	; 0x17e4 <LCDDisplay+0x45a>
    17dc:	84 e0       	ldi	r24, 0x04	; 4
    17de:	61 e0       	ldi	r22, 0x01	; 1
    17e0:	0e 94 8f 14 	call	0x291e	; 0x291e <Onlinecontrol>
				if (ButtonDOWN) Onlinecontrol(4,2);
    17e4:	e0 ea       	ldi	r30, 0xA0	; 160
    17e6:	f6 e0       	ldi	r31, 0x06	; 6
    17e8:	80 85       	ldd	r24, Z+8	; 0x08
    17ea:	88 2f       	mov	r24, r24
    17ec:	90 e0       	ldi	r25, 0x00	; 0
    17ee:	80 74       	andi	r24, 0x40	; 64
    17f0:	90 70       	andi	r25, 0x00	; 0
    17f2:	00 97       	sbiw	r24, 0x00	; 0
    17f4:	21 f4       	brne	.+8      	; 0x17fe <LCDDisplay+0x474>
    17f6:	84 e0       	ldi	r24, 0x04	; 4
    17f8:	62 e0       	ldi	r22, 0x02	; 2
    17fa:	0e 94 8f 14 	call	0x291e	; 0x291e <Onlinecontrol>
				if (!ButtonUP && !ButtonDOWN) Onlinecontrol(4,3);
    17fe:	e0 ea       	ldi	r30, 0xA0	; 160
    1800:	f6 e0       	ldi	r31, 0x06	; 6
    1802:	80 85       	ldd	r24, Z+8	; 0x08
    1804:	88 23       	and	r24, r24
    1806:	0c f0       	brlt	.+2      	; 0x180a <LCDDisplay+0x480>
    1808:	6e c0       	rjmp	.+220    	; 0x18e6 <LCDDisplay+0x55c>
    180a:	e0 ea       	ldi	r30, 0xA0	; 160
    180c:	f6 e0       	ldi	r31, 0x06	; 6
    180e:	80 85       	ldd	r24, Z+8	; 0x08
    1810:	88 2f       	mov	r24, r24
    1812:	90 e0       	ldi	r25, 0x00	; 0
    1814:	80 74       	andi	r24, 0x40	; 64
    1816:	90 70       	andi	r25, 0x00	; 0
    1818:	00 97       	sbiw	r24, 0x00	; 0
    181a:	09 f4       	brne	.+2      	; 0x181e <LCDDisplay+0x494>
    181c:	64 c0       	rjmp	.+200    	; 0x18e6 <LCDDisplay+0x55c>
    181e:	84 e0       	ldi	r24, 0x04	; 4
    1820:	63 e0       	ldi	r22, 0x03	; 3
    1822:	0e 94 8f 14 	call	0x291e	; 0x291e <Onlinecontrol>
    1826:	5f c0       	rjmp	.+190    	; 0x18e6 <LCDDisplay+0x55c>
			}
			else if (Menu[1] == 6)
    1828:	8a 81       	ldd	r24, Y+2	; 0x02
    182a:	9b 81       	ldd	r25, Y+3	; 0x03
    182c:	fc 01       	movw	r30, r24
    182e:	31 96       	adiw	r30, 0x01	; 1
    1830:	80 81       	ld	r24, Z
    1832:	86 30       	cpi	r24, 0x06	; 6
    1834:	49 f5       	brne	.+82     	; 0x1888 <LCDDisplay+0x4fe>
			{
				if (ButtonUP) Onlinecontrol(5,1);
    1836:	e0 ea       	ldi	r30, 0xA0	; 160
    1838:	f6 e0       	ldi	r31, 0x06	; 6
    183a:	80 85       	ldd	r24, Z+8	; 0x08
    183c:	88 23       	and	r24, r24
    183e:	24 f0       	brlt	.+8      	; 0x1848 <LCDDisplay+0x4be>
    1840:	85 e0       	ldi	r24, 0x05	; 5
    1842:	61 e0       	ldi	r22, 0x01	; 1
    1844:	0e 94 8f 14 	call	0x291e	; 0x291e <Onlinecontrol>
				if (ButtonDOWN) Onlinecontrol(5,2);
    1848:	e0 ea       	ldi	r30, 0xA0	; 160
    184a:	f6 e0       	ldi	r31, 0x06	; 6
    184c:	80 85       	ldd	r24, Z+8	; 0x08
    184e:	88 2f       	mov	r24, r24
    1850:	90 e0       	ldi	r25, 0x00	; 0
    1852:	80 74       	andi	r24, 0x40	; 64
    1854:	90 70       	andi	r25, 0x00	; 0
    1856:	00 97       	sbiw	r24, 0x00	; 0
    1858:	21 f4       	brne	.+8      	; 0x1862 <LCDDisplay+0x4d8>
    185a:	85 e0       	ldi	r24, 0x05	; 5
    185c:	62 e0       	ldi	r22, 0x02	; 2
    185e:	0e 94 8f 14 	call	0x291e	; 0x291e <Onlinecontrol>
				if (!ButtonUP && !ButtonDOWN) Onlinecontrol(5,3);
    1862:	e0 ea       	ldi	r30, 0xA0	; 160
    1864:	f6 e0       	ldi	r31, 0x06	; 6
    1866:	80 85       	ldd	r24, Z+8	; 0x08
    1868:	88 23       	and	r24, r24
    186a:	ec f5       	brge	.+122    	; 0x18e6 <LCDDisplay+0x55c>
    186c:	e0 ea       	ldi	r30, 0xA0	; 160
    186e:	f6 e0       	ldi	r31, 0x06	; 6
    1870:	80 85       	ldd	r24, Z+8	; 0x08
    1872:	88 2f       	mov	r24, r24
    1874:	90 e0       	ldi	r25, 0x00	; 0
    1876:	80 74       	andi	r24, 0x40	; 64
    1878:	90 70       	andi	r25, 0x00	; 0
    187a:	00 97       	sbiw	r24, 0x00	; 0
    187c:	a1 f1       	breq	.+104    	; 0x18e6 <LCDDisplay+0x55c>
    187e:	85 e0       	ldi	r24, 0x05	; 5
    1880:	63 e0       	ldi	r22, 0x03	; 3
    1882:	0e 94 8f 14 	call	0x291e	; 0x291e <Onlinecontrol>
    1886:	2f c0       	rjmp	.+94     	; 0x18e6 <LCDDisplay+0x55c>
			}
			else if (Menu[1] == 7)
    1888:	8a 81       	ldd	r24, Y+2	; 0x02
    188a:	9b 81       	ldd	r25, Y+3	; 0x03
    188c:	fc 01       	movw	r30, r24
    188e:	31 96       	adiw	r30, 0x01	; 1
    1890:	80 81       	ld	r24, Z
    1892:	87 30       	cpi	r24, 0x07	; 7
    1894:	41 f5       	brne	.+80     	; 0x18e6 <LCDDisplay+0x55c>
			{
				if (ButtonUP) Onlinecontrol(6,1);
    1896:	e0 ea       	ldi	r30, 0xA0	; 160
    1898:	f6 e0       	ldi	r31, 0x06	; 6
    189a:	80 85       	ldd	r24, Z+8	; 0x08
    189c:	88 23       	and	r24, r24
    189e:	24 f0       	brlt	.+8      	; 0x18a8 <LCDDisplay+0x51e>
    18a0:	86 e0       	ldi	r24, 0x06	; 6
    18a2:	61 e0       	ldi	r22, 0x01	; 1
    18a4:	0e 94 8f 14 	call	0x291e	; 0x291e <Onlinecontrol>
				if (ButtonDOWN) Onlinecontrol(6,2);
    18a8:	e0 ea       	ldi	r30, 0xA0	; 160
    18aa:	f6 e0       	ldi	r31, 0x06	; 6
    18ac:	80 85       	ldd	r24, Z+8	; 0x08
    18ae:	88 2f       	mov	r24, r24
    18b0:	90 e0       	ldi	r25, 0x00	; 0
    18b2:	80 74       	andi	r24, 0x40	; 64
    18b4:	90 70       	andi	r25, 0x00	; 0
    18b6:	00 97       	sbiw	r24, 0x00	; 0
    18b8:	21 f4       	brne	.+8      	; 0x18c2 <LCDDisplay+0x538>
    18ba:	86 e0       	ldi	r24, 0x06	; 6
    18bc:	62 e0       	ldi	r22, 0x02	; 2
    18be:	0e 94 8f 14 	call	0x291e	; 0x291e <Onlinecontrol>
				if (!ButtonUP && !ButtonDOWN) Onlinecontrol(6,3);
    18c2:	e0 ea       	ldi	r30, 0xA0	; 160
    18c4:	f6 e0       	ldi	r31, 0x06	; 6
    18c6:	80 85       	ldd	r24, Z+8	; 0x08
    18c8:	88 23       	and	r24, r24
    18ca:	6c f4       	brge	.+26     	; 0x18e6 <LCDDisplay+0x55c>
    18cc:	e0 ea       	ldi	r30, 0xA0	; 160
    18ce:	f6 e0       	ldi	r31, 0x06	; 6
    18d0:	80 85       	ldd	r24, Z+8	; 0x08
    18d2:	88 2f       	mov	r24, r24
    18d4:	90 e0       	ldi	r25, 0x00	; 0
    18d6:	80 74       	andi	r24, 0x40	; 64
    18d8:	90 70       	andi	r25, 0x00	; 0
    18da:	00 97       	sbiw	r24, 0x00	; 0
    18dc:	21 f0       	breq	.+8      	; 0x18e6 <LCDDisplay+0x55c>
    18de:	86 e0       	ldi	r24, 0x06	; 6
    18e0:	63 e0       	ldi	r22, 0x03	; 3
    18e2:	0e 94 8f 14 	call	0x291e	; 0x291e <Onlinecontrol>
			}
			if (ButtonESC)
    18e6:	e0 e2       	ldi	r30, 0x20	; 32
    18e8:	f7 e0       	ldi	r31, 0x07	; 7
    18ea:	80 85       	ldd	r24, Z+8	; 0x08
    18ec:	88 2f       	mov	r24, r24
    18ee:	90 e0       	ldi	r25, 0x00	; 0
    18f0:	80 74       	andi	r24, 0x40	; 64
    18f2:	90 70       	andi	r25, 0x00	; 0
    18f4:	00 97       	sbiw	r24, 0x00	; 0
    18f6:	29 f4       	brne	.+10     	; 0x1902 <LCDDisplay+0x578>
			{
				Stayhere = 0;
    18f8:	19 82       	std	Y+1, r1	; 0x01
				Menu[0] = 2;
    18fa:	ea 81       	ldd	r30, Y+2	; 0x02
    18fc:	fb 81       	ldd	r31, Y+3	; 0x03
    18fe:	82 e0       	ldi	r24, 0x02	; 2
    1900:	80 83       	st	Z, r24
	if (Menu[0] ==3 && Menu[1] >=1 && Menu[1] <=7 && Menu[2] == 0)
	{
		Stayhere = 1;
		LcdClear();
		LcdWrite("     Ruszaj");
		while(Stayhere)
    1902:	89 81       	ldd	r24, Y+1	; 0x01
    1904:	88 23       	and	r24, r24
    1906:	09 f0       	breq	.+2      	; 0x190a <LCDDisplay+0x580>
    1908:	92 ce       	rjmp	.-732    	; 0x162e <LCDDisplay+0x2a4>
			{
				Stayhere = 0;
				Menu[0] = 2;
			}
		}
		ButtonWork = 0;
    190a:	10 92 30 21 	sts	0x2130, r1
		LcdClear();
    190e:	0e 94 07 19 	call	0x320e	; 0x320e <LcdClear>
		LcdWrite("    Ruch osi");
    1912:	8d e9       	ldi	r24, 0x9D	; 157
    1914:	90 e2       	ldi	r25, 0x20	; 32
    1916:	0e 94 a6 18 	call	0x314c	; 0x314c <LcdWrite>
	}
}
    191a:	27 96       	adiw	r28, 0x07	; 7
    191c:	cd bf       	out	0x3d, r28	; 61
    191e:	de bf       	out	0x3e, r29	; 62
    1920:	cf 91       	pop	r28
    1922:	df 91       	pop	r29
    1924:	08 95       	ret

00001926 <ABS>:
int32_t ActPoz2, Error2, PozRef2 = 1750, AbsError2, Maxerror2 = 350, DeadBand2 = 0, Pterm2, Kp2 = 95, Ki2 = 5, Errori2, MaxErrori2 = 562, Iterm2,
			Errord2,LastError2, MaxErrord2 = 300, Dterm2, Kd2 = 100, Cv2, AbsCv2, MaxCv2 = 600, Saturated2, Direction2, LastDirection2, PositionBuffor2;
int8_t Enable2, OnlineSpeed2;

int16_t ABS(int16_t value)
{
    1926:	df 93       	push	r29
    1928:	cf 93       	push	r28
    192a:	00 d0       	rcall	.+0      	; 0x192c <ABS+0x6>
    192c:	0f 92       	push	r0
    192e:	cd b7       	in	r28, 0x3d	; 61
    1930:	de b7       	in	r29, 0x3e	; 62
    1932:	89 83       	std	Y+1, r24	; 0x01
    1934:	9a 83       	std	Y+2, r25	; 0x02
	if (value < 0)
    1936:	89 81       	ldd	r24, Y+1	; 0x01
    1938:	9a 81       	ldd	r25, Y+2	; 0x02
    193a:	99 23       	and	r25, r25
    193c:	4c f4       	brge	.+18     	; 0x1950 <ABS+0x2a>
	{ return -value; }
    193e:	89 81       	ldd	r24, Y+1	; 0x01
    1940:	9a 81       	ldd	r25, Y+2	; 0x02
    1942:	22 27       	eor	r18, r18
    1944:	33 27       	eor	r19, r19
    1946:	28 1b       	sub	r18, r24
    1948:	39 0b       	sbc	r19, r25
    194a:	2b 83       	std	Y+3, r18	; 0x03
    194c:	3c 83       	std	Y+4, r19	; 0x04
    194e:	04 c0       	rjmp	.+8      	; 0x1958 <ABS+0x32>
	else
	{ return value;	}
    1950:	89 81       	ldd	r24, Y+1	; 0x01
    1952:	9a 81       	ldd	r25, Y+2	; 0x02
    1954:	8b 83       	std	Y+3, r24	; 0x03
    1956:	9c 83       	std	Y+4, r25	; 0x04
    1958:	8b 81       	ldd	r24, Y+3	; 0x03
    195a:	9c 81       	ldd	r25, Y+4	; 0x04
}
    195c:	24 96       	adiw	r28, 0x04	; 4
    195e:	cd bf       	out	0x3d, r28	; 61
    1960:	de bf       	out	0x3e, r29	; 62
    1962:	cf 91       	pop	r28
    1964:	df 91       	pop	r29
    1966:	08 95       	ret

00001968 <PID1>:

void PID1(void)
{
    1968:	ef 92       	push	r14
    196a:	ff 92       	push	r15
    196c:	0f 93       	push	r16
    196e:	1f 93       	push	r17
    1970:	df 93       	push	r29
    1972:	cf 93       	push	r28
    1974:	cd b7       	in	r28, 0x3d	; 61
    1976:	de b7       	in	r29, 0x3e	; 62

	if (Zezwolenie1 == 1)
    1978:	80 91 df 20 	lds	r24, 0x20DF
    197c:	81 30       	cpi	r24, 0x01	; 1
    197e:	09 f0       	breq	.+2      	; 0x1982 <PID1+0x1a>
    1980:	dc c3       	rjmp	.+1976   	; 0x213a <PID1+0x7d2>
			{
		ActPoz1 = C;
    1982:	80 91 25 21 	lds	r24, 0x2125
    1986:	90 91 26 21 	lds	r25, 0x2126
    198a:	cc 01       	movw	r24, r24
    198c:	a0 e0       	ldi	r26, 0x00	; 0
    198e:	b0 e0       	ldi	r27, 0x00	; 0
    1990:	80 93 85 21 	sts	0x2185, r24
    1994:	90 93 86 21 	sts	0x2186, r25
    1998:	a0 93 87 21 	sts	0x2187, r26
    199c:	b0 93 88 21 	sts	0x2188, r27
	if (index == 5)
	{
		Pid[index].ActPoz = F;
	} */

	Error1 = PozRef1 - ActPoz1;
    19a0:	20 91 e1 20 	lds	r18, 0x20E1
    19a4:	30 91 e2 20 	lds	r19, 0x20E2
    19a8:	40 91 e3 20 	lds	r20, 0x20E3
    19ac:	50 91 e4 20 	lds	r21, 0x20E4
    19b0:	80 91 85 21 	lds	r24, 0x2185
    19b4:	90 91 86 21 	lds	r25, 0x2186
    19b8:	a0 91 87 21 	lds	r26, 0x2187
    19bc:	b0 91 88 21 	lds	r27, 0x2188
    19c0:	79 01       	movw	r14, r18
    19c2:	8a 01       	movw	r16, r20
    19c4:	e8 1a       	sub	r14, r24
    19c6:	f9 0a       	sbc	r15, r25
    19c8:	0a 0b       	sbc	r16, r26
    19ca:	1b 0b       	sbc	r17, r27
    19cc:	d8 01       	movw	r26, r16
    19ce:	c7 01       	movw	r24, r14
    19d0:	80 93 60 21 	sts	0x2160, r24
    19d4:	90 93 61 21 	sts	0x2161, r25
    19d8:	a0 93 62 21 	sts	0x2162, r26
    19dc:	b0 93 63 21 	sts	0x2163, r27
	AbsError1 = ABS(Error1);
    19e0:	80 91 60 21 	lds	r24, 0x2160
    19e4:	90 91 61 21 	lds	r25, 0x2161
    19e8:	a0 91 62 21 	lds	r26, 0x2162
    19ec:	b0 91 63 21 	lds	r27, 0x2163
    19f0:	0e 94 93 0c 	call	0x1926	; 0x1926 <ABS>
    19f4:	aa 27       	eor	r26, r26
    19f6:	97 fd       	sbrc	r25, 7
    19f8:	a0 95       	com	r26
    19fa:	ba 2f       	mov	r27, r26
    19fc:	80 93 89 21 	sts	0x2189, r24
    1a00:	90 93 8a 21 	sts	0x218A, r25
    1a04:	a0 93 8b 21 	sts	0x218B, r26
    1a08:	b0 93 8c 21 	sts	0x218C, r27

		/********************************************
		 **Setup maximum error of proportional part**
		 ********************************************/

		if (Error1 > Maxerror1)
    1a0c:	20 91 60 21 	lds	r18, 0x2160
    1a10:	30 91 61 21 	lds	r19, 0x2161
    1a14:	40 91 62 21 	lds	r20, 0x2162
    1a18:	50 91 63 21 	lds	r21, 0x2163
    1a1c:	80 91 e5 20 	lds	r24, 0x20E5
    1a20:	90 91 e6 20 	lds	r25, 0x20E6
    1a24:	a0 91 e7 20 	lds	r26, 0x20E7
    1a28:	b0 91 e8 20 	lds	r27, 0x20E8
    1a2c:	82 17       	cp	r24, r18
    1a2e:	93 07       	cpc	r25, r19
    1a30:	a4 07       	cpc	r26, r20
    1a32:	b5 07       	cpc	r27, r21
    1a34:	6c f4       	brge	.+26     	; 0x1a50 <PID1+0xe8>
		{
			Error1 = 350;
    1a36:	8e e5       	ldi	r24, 0x5E	; 94
    1a38:	91 e0       	ldi	r25, 0x01	; 1
    1a3a:	a0 e0       	ldi	r26, 0x00	; 0
    1a3c:	b0 e0       	ldi	r27, 0x00	; 0
    1a3e:	80 93 60 21 	sts	0x2160, r24
    1a42:	90 93 61 21 	sts	0x2161, r25
    1a46:	a0 93 62 21 	sts	0x2162, r26
    1a4a:	b0 93 63 21 	sts	0x2163, r27
    1a4e:	28 c0       	rjmp	.+80     	; 0x1aa0 <PID1+0x138>

		}
		else if (Error1 < -(Maxerror1))
    1a50:	80 91 e5 20 	lds	r24, 0x20E5
    1a54:	90 91 e6 20 	lds	r25, 0x20E6
    1a58:	a0 91 e7 20 	lds	r26, 0x20E7
    1a5c:	b0 91 e8 20 	lds	r27, 0x20E8
    1a60:	22 27       	eor	r18, r18
    1a62:	33 27       	eor	r19, r19
    1a64:	a9 01       	movw	r20, r18
    1a66:	28 1b       	sub	r18, r24
    1a68:	39 0b       	sbc	r19, r25
    1a6a:	4a 0b       	sbc	r20, r26
    1a6c:	5b 0b       	sbc	r21, r27
    1a6e:	80 91 60 21 	lds	r24, 0x2160
    1a72:	90 91 61 21 	lds	r25, 0x2161
    1a76:	a0 91 62 21 	lds	r26, 0x2162
    1a7a:	b0 91 63 21 	lds	r27, 0x2163
    1a7e:	82 17       	cp	r24, r18
    1a80:	93 07       	cpc	r25, r19
    1a82:	a4 07       	cpc	r26, r20
    1a84:	b5 07       	cpc	r27, r21
    1a86:	64 f4       	brge	.+24     	; 0x1aa0 <PID1+0x138>
		{
			Error1 = -350;
    1a88:	82 ea       	ldi	r24, 0xA2	; 162
    1a8a:	9e ef       	ldi	r25, 0xFE	; 254
    1a8c:	af ef       	ldi	r26, 0xFF	; 255
    1a8e:	bf ef       	ldi	r27, 0xFF	; 255
    1a90:	80 93 60 21 	sts	0x2160, r24
    1a94:	90 93 61 21 	sts	0x2161, r25
    1a98:	a0 93 62 21 	sts	0x2162, r26
    1a9c:	b0 93 63 21 	sts	0x2163, r27

		/*******************************************
		**Setup deadband (optional, initially = 0)**
		********************************************/

		if (Error1 > DeadBand1)
    1aa0:	20 91 60 21 	lds	r18, 0x2160
    1aa4:	30 91 61 21 	lds	r19, 0x2161
    1aa8:	40 91 62 21 	lds	r20, 0x2162
    1aac:	50 91 63 21 	lds	r21, 0x2163
    1ab0:	80 91 34 21 	lds	r24, 0x2134
    1ab4:	90 91 35 21 	lds	r25, 0x2135
    1ab8:	a0 91 36 21 	lds	r26, 0x2136
    1abc:	b0 91 37 21 	lds	r27, 0x2137
    1ac0:	82 17       	cp	r24, r18
    1ac2:	93 07       	cpc	r25, r19
    1ac4:	a4 07       	cpc	r26, r20
    1ac6:	b5 07       	cpc	r27, r21
    1ac8:	ec f4       	brge	.+58     	; 0x1b04 <PID1+0x19c>
			Error1 = Error1 - DeadBand1;
    1aca:	80 91 60 21 	lds	r24, 0x2160
    1ace:	90 91 61 21 	lds	r25, 0x2161
    1ad2:	a0 91 62 21 	lds	r26, 0x2162
    1ad6:	b0 91 63 21 	lds	r27, 0x2163
    1ada:	20 91 34 21 	lds	r18, 0x2134
    1ade:	30 91 35 21 	lds	r19, 0x2135
    1ae2:	40 91 36 21 	lds	r20, 0x2136
    1ae6:	50 91 37 21 	lds	r21, 0x2137
    1aea:	82 1b       	sub	r24, r18
    1aec:	93 0b       	sbc	r25, r19
    1aee:	a4 0b       	sbc	r26, r20
    1af0:	b5 0b       	sbc	r27, r21
    1af2:	80 93 60 21 	sts	0x2160, r24
    1af6:	90 93 61 21 	sts	0x2161, r25
    1afa:	a0 93 62 21 	sts	0x2162, r26
    1afe:	b0 93 63 21 	sts	0x2163, r27
    1b02:	3a c0       	rjmp	.+116    	; 0x1b78 <PID1+0x210>
		else if (Error1 < DeadBand1)
    1b04:	20 91 60 21 	lds	r18, 0x2160
    1b08:	30 91 61 21 	lds	r19, 0x2161
    1b0c:	40 91 62 21 	lds	r20, 0x2162
    1b10:	50 91 63 21 	lds	r21, 0x2163
    1b14:	80 91 34 21 	lds	r24, 0x2134
    1b18:	90 91 35 21 	lds	r25, 0x2135
    1b1c:	a0 91 36 21 	lds	r26, 0x2136
    1b20:	b0 91 37 21 	lds	r27, 0x2137
    1b24:	28 17       	cp	r18, r24
    1b26:	39 07       	cpc	r19, r25
    1b28:	4a 07       	cpc	r20, r26
    1b2a:	5b 07       	cpc	r21, r27
    1b2c:	ec f4       	brge	.+58     	; 0x1b68 <PID1+0x200>
			Error1 = Error1 + DeadBand1;
    1b2e:	80 91 60 21 	lds	r24, 0x2160
    1b32:	90 91 61 21 	lds	r25, 0x2161
    1b36:	a0 91 62 21 	lds	r26, 0x2162
    1b3a:	b0 91 63 21 	lds	r27, 0x2163
    1b3e:	20 91 34 21 	lds	r18, 0x2134
    1b42:	30 91 35 21 	lds	r19, 0x2135
    1b46:	40 91 36 21 	lds	r20, 0x2136
    1b4a:	50 91 37 21 	lds	r21, 0x2137
    1b4e:	82 0f       	add	r24, r18
    1b50:	93 1f       	adc	r25, r19
    1b52:	a4 1f       	adc	r26, r20
    1b54:	b5 1f       	adc	r27, r21
    1b56:	80 93 60 21 	sts	0x2160, r24
    1b5a:	90 93 61 21 	sts	0x2161, r25
    1b5e:	a0 93 62 21 	sts	0x2162, r26
    1b62:	b0 93 63 21 	sts	0x2163, r27
    1b66:	08 c0       	rjmp	.+16     	; 0x1b78 <PID1+0x210>
		else
			Error1 = 0;
    1b68:	10 92 60 21 	sts	0x2160, r1
    1b6c:	10 92 61 21 	sts	0x2161, r1
    1b70:	10 92 62 21 	sts	0x2162, r1
    1b74:	10 92 63 21 	sts	0x2163, r1

		Pterm1 = Error1 * Kp1; /*Calculation of proportional part*/
    1b78:	80 91 60 21 	lds	r24, 0x2160
    1b7c:	90 91 61 21 	lds	r25, 0x2161
    1b80:	a0 91 62 21 	lds	r26, 0x2162
    1b84:	b0 91 63 21 	lds	r27, 0x2163
    1b88:	20 91 e9 20 	lds	r18, 0x20E9
    1b8c:	30 91 ea 20 	lds	r19, 0x20EA
    1b90:	40 91 eb 20 	lds	r20, 0x20EB
    1b94:	50 91 ec 20 	lds	r21, 0x20EC
    1b98:	bc 01       	movw	r22, r24
    1b9a:	cd 01       	movw	r24, r26
    1b9c:	0e 94 e6 26 	call	0x4dcc	; 0x4dcc <__mulsi3>
    1ba0:	dc 01       	movw	r26, r24
    1ba2:	cb 01       	movw	r24, r22
    1ba4:	80 93 bc 21 	sts	0x21BC, r24
    1ba8:	90 93 bd 21 	sts	0x21BD, r25
    1bac:	a0 93 be 21 	sts	0x21BE, r26
    1bb0:	b0 93 bf 21 	sts	0x21BF, r27


		if (Ki1 > 0 && Enable1 != 0) /*Enable integral calculation if PID on*/
    1bb4:	80 91 ed 20 	lds	r24, 0x20ED
    1bb8:	90 91 ee 20 	lds	r25, 0x20EE
    1bbc:	a0 91 ef 20 	lds	r26, 0x20EF
    1bc0:	b0 91 f0 20 	lds	r27, 0x20F0
    1bc4:	18 16       	cp	r1, r24
    1bc6:	19 06       	cpc	r1, r25
    1bc8:	1a 06       	cpc	r1, r26
    1bca:	1b 06       	cpc	r1, r27
    1bcc:	0c f0       	brlt	.+2      	; 0x1bd0 <PID1+0x268>
    1bce:	94 c0       	rjmp	.+296    	; 0x1cf8 <PID1+0x390>
    1bd0:	80 91 64 21 	lds	r24, 0x2164
    1bd4:	88 23       	and	r24, r24
    1bd6:	09 f4       	brne	.+2      	; 0x1bda <PID1+0x272>
    1bd8:	8f c0       	rjmp	.+286    	; 0x1cf8 <PID1+0x390>
		{
			if (Saturated1 == 0) /*If Output is on max power, stop calculating integral part*/
    1bda:	80 91 ab 21 	lds	r24, 0x21AB
    1bde:	90 91 ac 21 	lds	r25, 0x21AC
    1be2:	a0 91 ad 21 	lds	r26, 0x21AD
    1be6:	b0 91 ae 21 	lds	r27, 0x21AE
    1bea:	00 97       	sbiw	r24, 0x00	; 0
    1bec:	a1 05       	cpc	r26, r1
    1bee:	b1 05       	cpc	r27, r1
    1bf0:	e1 f4       	brne	.+56     	; 0x1c2a <PID1+0x2c2>
			{
				Errori1 += Error1;
    1bf2:	80 91 8e 21 	lds	r24, 0x218E
    1bf6:	90 91 8f 21 	lds	r25, 0x218F
    1bfa:	a0 91 90 21 	lds	r26, 0x2190
    1bfe:	b0 91 91 21 	lds	r27, 0x2191
    1c02:	20 91 60 21 	lds	r18, 0x2160
    1c06:	30 91 61 21 	lds	r19, 0x2161
    1c0a:	40 91 62 21 	lds	r20, 0x2162
    1c0e:	50 91 63 21 	lds	r21, 0x2163
    1c12:	82 0f       	add	r24, r18
    1c14:	93 1f       	adc	r25, r19
    1c16:	a4 1f       	adc	r26, r20
    1c18:	b5 1f       	adc	r27, r21
    1c1a:	80 93 8e 21 	sts	0x218E, r24
    1c1e:	90 93 8f 21 	sts	0x218F, r25
    1c22:	a0 93 90 21 	sts	0x2190, r26
    1c26:	b0 93 91 21 	sts	0x2191, r27
			}
			if (MaxErrori1 != 0)
    1c2a:	80 91 f1 20 	lds	r24, 0x20F1
    1c2e:	90 91 f2 20 	lds	r25, 0x20F2
    1c32:	a0 91 f3 20 	lds	r26, 0x20F3
    1c36:	b0 91 f4 20 	lds	r27, 0x20F4
    1c3a:	00 97       	sbiw	r24, 0x00	; 0
    1c3c:	a1 05       	cpc	r26, r1
    1c3e:	b1 05       	cpc	r27, r1
    1c40:	09 f4       	brne	.+2      	; 0x1c44 <PID1+0x2dc>
    1c42:	62 c0       	rjmp	.+196    	; 0x1d08 <PID1+0x3a0>
			{
				if (Errori1 > MaxErrori1)
    1c44:	20 91 8e 21 	lds	r18, 0x218E
    1c48:	30 91 8f 21 	lds	r19, 0x218F
    1c4c:	40 91 90 21 	lds	r20, 0x2190
    1c50:	50 91 91 21 	lds	r21, 0x2191
    1c54:	80 91 f1 20 	lds	r24, 0x20F1
    1c58:	90 91 f2 20 	lds	r25, 0x20F2
    1c5c:	a0 91 f3 20 	lds	r26, 0x20F3
    1c60:	b0 91 f4 20 	lds	r27, 0x20F4
    1c64:	82 17       	cp	r24, r18
    1c66:	93 07       	cpc	r25, r19
    1c68:	a4 07       	cpc	r26, r20
    1c6a:	b5 07       	cpc	r27, r21
    1c6c:	8c f4       	brge	.+34     	; 0x1c90 <PID1+0x328>
				{
					Errori1 = MaxErrori1;
    1c6e:	80 91 f1 20 	lds	r24, 0x20F1
    1c72:	90 91 f2 20 	lds	r25, 0x20F2
    1c76:	a0 91 f3 20 	lds	r26, 0x20F3
    1c7a:	b0 91 f4 20 	lds	r27, 0x20F4
    1c7e:	80 93 8e 21 	sts	0x218E, r24
    1c82:	90 93 8f 21 	sts	0x218F, r25
    1c86:	a0 93 90 21 	sts	0x2190, r26
    1c8a:	b0 93 91 21 	sts	0x2191, r27
    1c8e:	3c c0       	rjmp	.+120    	; 0x1d08 <PID1+0x3a0>
				}
				else if (Errori1 < -MaxErrori1)
    1c90:	80 91 f1 20 	lds	r24, 0x20F1
    1c94:	90 91 f2 20 	lds	r25, 0x20F2
    1c98:	a0 91 f3 20 	lds	r26, 0x20F3
    1c9c:	b0 91 f4 20 	lds	r27, 0x20F4
    1ca0:	22 27       	eor	r18, r18
    1ca2:	33 27       	eor	r19, r19
    1ca4:	a9 01       	movw	r20, r18
    1ca6:	28 1b       	sub	r18, r24
    1ca8:	39 0b       	sbc	r19, r25
    1caa:	4a 0b       	sbc	r20, r26
    1cac:	5b 0b       	sbc	r21, r27
    1cae:	80 91 8e 21 	lds	r24, 0x218E
    1cb2:	90 91 8f 21 	lds	r25, 0x218F
    1cb6:	a0 91 90 21 	lds	r26, 0x2190
    1cba:	b0 91 91 21 	lds	r27, 0x2191
    1cbe:	82 17       	cp	r24, r18
    1cc0:	93 07       	cpc	r25, r19
    1cc2:	a4 07       	cpc	r26, r20
    1cc4:	b5 07       	cpc	r27, r21
    1cc6:	04 f5       	brge	.+64     	; 0x1d08 <PID1+0x3a0>
				{
					Errori1 = -MaxErrori1;
    1cc8:	80 91 f1 20 	lds	r24, 0x20F1
    1ccc:	90 91 f2 20 	lds	r25, 0x20F2
    1cd0:	a0 91 f3 20 	lds	r26, 0x20F3
    1cd4:	b0 91 f4 20 	lds	r27, 0x20F4
    1cd8:	b0 95       	com	r27
    1cda:	a0 95       	com	r26
    1cdc:	90 95       	com	r25
    1cde:	81 95       	neg	r24
    1ce0:	9f 4f       	sbci	r25, 0xFF	; 255
    1ce2:	af 4f       	sbci	r26, 0xFF	; 255
    1ce4:	bf 4f       	sbci	r27, 0xFF	; 255
    1ce6:	80 93 8e 21 	sts	0x218E, r24
    1cea:	90 93 8f 21 	sts	0x218F, r25
    1cee:	a0 93 90 21 	sts	0x2190, r26
    1cf2:	b0 93 91 21 	sts	0x2191, r27
    1cf6:	08 c0       	rjmp	.+16     	; 0x1d08 <PID1+0x3a0>
				}
			}
		}
		else
		{
			Errori1 = 0;
    1cf8:	10 92 8e 21 	sts	0x218E, r1
    1cfc:	10 92 8f 21 	sts	0x218F, r1
    1d00:	10 92 90 21 	sts	0x2190, r1
    1d04:	10 92 91 21 	sts	0x2191, r1
		}
		Iterm1 = Errori1 * Ki1; /*integral part equation*/
    1d08:	80 91 8e 21 	lds	r24, 0x218E
    1d0c:	90 91 8f 21 	lds	r25, 0x218F
    1d10:	a0 91 90 21 	lds	r26, 0x2190
    1d14:	b0 91 91 21 	lds	r27, 0x2191
    1d18:	20 91 ed 20 	lds	r18, 0x20ED
    1d1c:	30 91 ee 20 	lds	r19, 0x20EE
    1d20:	40 91 ef 20 	lds	r20, 0x20EF
    1d24:	50 91 f0 20 	lds	r21, 0x20F0
    1d28:	bc 01       	movw	r22, r24
    1d2a:	cd 01       	movw	r24, r26
    1d2c:	0e 94 e6 26 	call	0x4dcc	; 0x4dcc <__mulsi3>
    1d30:	dc 01       	movw	r26, r24
    1d32:	cb 01       	movw	r24, r22
    1d34:	80 93 92 21 	sts	0x2192, r24
    1d38:	90 93 93 21 	sts	0x2193, r25
    1d3c:	a0 93 94 21 	sts	0x2194, r26
    1d40:	b0 93 95 21 	sts	0x2195, r27


		Errord1 = Error1 - LastError1;
    1d44:	20 91 60 21 	lds	r18, 0x2160
    1d48:	30 91 61 21 	lds	r19, 0x2161
    1d4c:	40 91 62 21 	lds	r20, 0x2162
    1d50:	50 91 63 21 	lds	r21, 0x2163
    1d54:	80 91 81 21 	lds	r24, 0x2181
    1d58:	90 91 82 21 	lds	r25, 0x2182
    1d5c:	a0 91 83 21 	lds	r26, 0x2183
    1d60:	b0 91 84 21 	lds	r27, 0x2184
    1d64:	79 01       	movw	r14, r18
    1d66:	8a 01       	movw	r16, r20
    1d68:	e8 1a       	sub	r14, r24
    1d6a:	f9 0a       	sbc	r15, r25
    1d6c:	0a 0b       	sbc	r16, r26
    1d6e:	1b 0b       	sbc	r17, r27
    1d70:	d8 01       	movw	r26, r16
    1d72:	c7 01       	movw	r24, r14
    1d74:	80 93 5c 21 	sts	0x215C, r24
    1d78:	90 93 5d 21 	sts	0x215D, r25
    1d7c:	a0 93 5e 21 	sts	0x215E, r26
    1d80:	b0 93 5f 21 	sts	0x215F, r27
		LastError1 = Error1;
    1d84:	80 91 60 21 	lds	r24, 0x2160
    1d88:	90 91 61 21 	lds	r25, 0x2161
    1d8c:	a0 91 62 21 	lds	r26, 0x2162
    1d90:	b0 91 63 21 	lds	r27, 0x2163
    1d94:	80 93 81 21 	sts	0x2181, r24
    1d98:	90 93 82 21 	sts	0x2182, r25
    1d9c:	a0 93 83 21 	sts	0x2183, r26
    1da0:	b0 93 84 21 	sts	0x2184, r27

		if (MaxErrord1 != 0)
    1da4:	80 91 f5 20 	lds	r24, 0x20F5
    1da8:	90 91 f6 20 	lds	r25, 0x20F6
    1dac:	a0 91 f7 20 	lds	r26, 0x20F7
    1db0:	b0 91 f8 20 	lds	r27, 0x20F8
    1db4:	00 97       	sbiw	r24, 0x00	; 0
    1db6:	a1 05       	cpc	r26, r1
    1db8:	b1 05       	cpc	r27, r1
    1dba:	09 f4       	brne	.+2      	; 0x1dbe <PID1+0x456>
    1dbc:	59 c0       	rjmp	.+178    	; 0x1e70 <PID1+0x508>
		{
			if (Errord1 > MaxErrord1)
    1dbe:	20 91 5c 21 	lds	r18, 0x215C
    1dc2:	30 91 5d 21 	lds	r19, 0x215D
    1dc6:	40 91 5e 21 	lds	r20, 0x215E
    1dca:	50 91 5f 21 	lds	r21, 0x215F
    1dce:	80 91 f5 20 	lds	r24, 0x20F5
    1dd2:	90 91 f6 20 	lds	r25, 0x20F6
    1dd6:	a0 91 f7 20 	lds	r26, 0x20F7
    1dda:	b0 91 f8 20 	lds	r27, 0x20F8
    1dde:	82 17       	cp	r24, r18
    1de0:	93 07       	cpc	r25, r19
    1de2:	a4 07       	cpc	r26, r20
    1de4:	b5 07       	cpc	r27, r21
    1de6:	8c f4       	brge	.+34     	; 0x1e0a <PID1+0x4a2>
			{
				Errord1 = MaxErrord1;
    1de8:	80 91 f5 20 	lds	r24, 0x20F5
    1dec:	90 91 f6 20 	lds	r25, 0x20F6
    1df0:	a0 91 f7 20 	lds	r26, 0x20F7
    1df4:	b0 91 f8 20 	lds	r27, 0x20F8
    1df8:	80 93 5c 21 	sts	0x215C, r24
    1dfc:	90 93 5d 21 	sts	0x215D, r25
    1e00:	a0 93 5e 21 	sts	0x215E, r26
    1e04:	b0 93 5f 21 	sts	0x215F, r27
    1e08:	33 c0       	rjmp	.+102    	; 0x1e70 <PID1+0x508>
			}
			else if (Errord1 < -MaxErrord1)
    1e0a:	80 91 f5 20 	lds	r24, 0x20F5
    1e0e:	90 91 f6 20 	lds	r25, 0x20F6
    1e12:	a0 91 f7 20 	lds	r26, 0x20F7
    1e16:	b0 91 f8 20 	lds	r27, 0x20F8
    1e1a:	22 27       	eor	r18, r18
    1e1c:	33 27       	eor	r19, r19
    1e1e:	a9 01       	movw	r20, r18
    1e20:	28 1b       	sub	r18, r24
    1e22:	39 0b       	sbc	r19, r25
    1e24:	4a 0b       	sbc	r20, r26
    1e26:	5b 0b       	sbc	r21, r27
    1e28:	80 91 5c 21 	lds	r24, 0x215C
    1e2c:	90 91 5d 21 	lds	r25, 0x215D
    1e30:	a0 91 5e 21 	lds	r26, 0x215E
    1e34:	b0 91 5f 21 	lds	r27, 0x215F
    1e38:	82 17       	cp	r24, r18
    1e3a:	93 07       	cpc	r25, r19
    1e3c:	a4 07       	cpc	r26, r20
    1e3e:	b5 07       	cpc	r27, r21
    1e40:	bc f4       	brge	.+46     	; 0x1e70 <PID1+0x508>
			{
				Errord1 = -MaxErrord1;
    1e42:	80 91 f5 20 	lds	r24, 0x20F5
    1e46:	90 91 f6 20 	lds	r25, 0x20F6
    1e4a:	a0 91 f7 20 	lds	r26, 0x20F7
    1e4e:	b0 91 f8 20 	lds	r27, 0x20F8
    1e52:	b0 95       	com	r27
    1e54:	a0 95       	com	r26
    1e56:	90 95       	com	r25
    1e58:	81 95       	neg	r24
    1e5a:	9f 4f       	sbci	r25, 0xFF	; 255
    1e5c:	af 4f       	sbci	r26, 0xFF	; 255
    1e5e:	bf 4f       	sbci	r27, 0xFF	; 255
    1e60:	80 93 5c 21 	sts	0x215C, r24
    1e64:	90 93 5d 21 	sts	0x215D, r25
    1e68:	a0 93 5e 21 	sts	0x215E, r26
    1e6c:	b0 93 5f 21 	sts	0x215F, r27
			}
		}
		Dterm1 = Errord1 * Kd1;
    1e70:	80 91 5c 21 	lds	r24, 0x215C
    1e74:	90 91 5d 21 	lds	r25, 0x215D
    1e78:	a0 91 5e 21 	lds	r26, 0x215E
    1e7c:	b0 91 5f 21 	lds	r27, 0x215F
    1e80:	20 91 f9 20 	lds	r18, 0x20F9
    1e84:	30 91 fa 20 	lds	r19, 0x20FA
    1e88:	40 91 fb 20 	lds	r20, 0x20FB
    1e8c:	50 91 fc 20 	lds	r21, 0x20FC
    1e90:	bc 01       	movw	r22, r24
    1e92:	cd 01       	movw	r24, r26
    1e94:	0e 94 e6 26 	call	0x4dcc	; 0x4dcc <__mulsi3>
    1e98:	dc 01       	movw	r26, r24
    1e9a:	cb 01       	movw	r24, r22
    1e9c:	80 93 50 21 	sts	0x2150, r24
    1ea0:	90 93 51 21 	sts	0x2151, r25
    1ea4:	a0 93 52 21 	sts	0x2152, r26
    1ea8:	b0 93 53 21 	sts	0x2153, r27

		Cv1 = Pterm1 + Iterm1 ; /*Answer of PID regulator*/
    1eac:	20 91 bc 21 	lds	r18, 0x21BC
    1eb0:	30 91 bd 21 	lds	r19, 0x21BD
    1eb4:	40 91 be 21 	lds	r20, 0x21BE
    1eb8:	50 91 bf 21 	lds	r21, 0x21BF
    1ebc:	80 91 92 21 	lds	r24, 0x2192
    1ec0:	90 91 93 21 	lds	r25, 0x2193
    1ec4:	a0 91 94 21 	lds	r26, 0x2194
    1ec8:	b0 91 95 21 	lds	r27, 0x2195
    1ecc:	82 0f       	add	r24, r18
    1ece:	93 1f       	adc	r25, r19
    1ed0:	a4 1f       	adc	r26, r20
    1ed2:	b5 1f       	adc	r27, r21
    1ed4:	80 93 9a 21 	sts	0x219A, r24
    1ed8:	90 93 9b 21 	sts	0x219B, r25
    1edc:	a0 93 9c 21 	sts	0x219C, r26
    1ee0:	b0 93 9d 21 	sts	0x219D, r27
		Cv1 += Dterm1;
    1ee4:	20 91 9a 21 	lds	r18, 0x219A
    1ee8:	30 91 9b 21 	lds	r19, 0x219B
    1eec:	40 91 9c 21 	lds	r20, 0x219C
    1ef0:	50 91 9d 21 	lds	r21, 0x219D
    1ef4:	80 91 50 21 	lds	r24, 0x2150
    1ef8:	90 91 51 21 	lds	r25, 0x2151
    1efc:	a0 91 52 21 	lds	r26, 0x2152
    1f00:	b0 91 53 21 	lds	r27, 0x2153
    1f04:	82 0f       	add	r24, r18
    1f06:	93 1f       	adc	r25, r19
    1f08:	a4 1f       	adc	r26, r20
    1f0a:	b5 1f       	adc	r27, r21
    1f0c:	80 93 9a 21 	sts	0x219A, r24
    1f10:	90 93 9b 21 	sts	0x219B, r25
    1f14:	a0 93 9c 21 	sts	0x219C, r26
    1f18:	b0 93 9d 21 	sts	0x219D, r27


		if (Cv1 > MaxCv1) /*Maximum for Answer*/
    1f1c:	20 91 9a 21 	lds	r18, 0x219A
    1f20:	30 91 9b 21 	lds	r19, 0x219B
    1f24:	40 91 9c 21 	lds	r20, 0x219C
    1f28:	50 91 9d 21 	lds	r21, 0x219D
    1f2c:	80 91 fd 20 	lds	r24, 0x20FD
    1f30:	90 91 fe 20 	lds	r25, 0x20FE
    1f34:	a0 91 ff 20 	lds	r26, 0x20FF
    1f38:	b0 91 00 21 	lds	r27, 0x2100
    1f3c:	82 17       	cp	r24, r18
    1f3e:	93 07       	cpc	r25, r19
    1f40:	a4 07       	cpc	r26, r20
    1f42:	b5 07       	cpc	r27, r21
    1f44:	ec f4       	brge	.+58     	; 0x1f80 <PID1+0x618>
		{
			Cv1 = MaxCv1;
    1f46:	80 91 fd 20 	lds	r24, 0x20FD
    1f4a:	90 91 fe 20 	lds	r25, 0x20FE
    1f4e:	a0 91 ff 20 	lds	r26, 0x20FF
    1f52:	b0 91 00 21 	lds	r27, 0x2100
    1f56:	80 93 9a 21 	sts	0x219A, r24
    1f5a:	90 93 9b 21 	sts	0x219B, r25
    1f5e:	a0 93 9c 21 	sts	0x219C, r26
    1f62:	b0 93 9d 21 	sts	0x219D, r27
			Saturated1 = 1;
    1f66:	81 e0       	ldi	r24, 0x01	; 1
    1f68:	90 e0       	ldi	r25, 0x00	; 0
    1f6a:	a0 e0       	ldi	r26, 0x00	; 0
    1f6c:	b0 e0       	ldi	r27, 0x00	; 0
    1f6e:	80 93 ab 21 	sts	0x21AB, r24
    1f72:	90 93 ac 21 	sts	0x21AC, r25
    1f76:	a0 93 ad 21 	sts	0x21AD, r26
    1f7a:	b0 93 ae 21 	sts	0x21AE, r27
    1f7e:	48 c0       	rjmp	.+144    	; 0x2010 <PID1+0x6a8>
		}
		else if (Cv1 < -MaxCv1)
    1f80:	80 91 fd 20 	lds	r24, 0x20FD
    1f84:	90 91 fe 20 	lds	r25, 0x20FE
    1f88:	a0 91 ff 20 	lds	r26, 0x20FF
    1f8c:	b0 91 00 21 	lds	r27, 0x2100
    1f90:	22 27       	eor	r18, r18
    1f92:	33 27       	eor	r19, r19
    1f94:	a9 01       	movw	r20, r18
    1f96:	28 1b       	sub	r18, r24
    1f98:	39 0b       	sbc	r19, r25
    1f9a:	4a 0b       	sbc	r20, r26
    1f9c:	5b 0b       	sbc	r21, r27
    1f9e:	80 91 9a 21 	lds	r24, 0x219A
    1fa2:	90 91 9b 21 	lds	r25, 0x219B
    1fa6:	a0 91 9c 21 	lds	r26, 0x219C
    1faa:	b0 91 9d 21 	lds	r27, 0x219D
    1fae:	82 17       	cp	r24, r18
    1fb0:	93 07       	cpc	r25, r19
    1fb2:	a4 07       	cpc	r26, r20
    1fb4:	b5 07       	cpc	r27, r21
    1fb6:	24 f5       	brge	.+72     	; 0x2000 <PID1+0x698>
		{
			Cv1 = -MaxCv1;
    1fb8:	80 91 fd 20 	lds	r24, 0x20FD
    1fbc:	90 91 fe 20 	lds	r25, 0x20FE
    1fc0:	a0 91 ff 20 	lds	r26, 0x20FF
    1fc4:	b0 91 00 21 	lds	r27, 0x2100
    1fc8:	b0 95       	com	r27
    1fca:	a0 95       	com	r26
    1fcc:	90 95       	com	r25
    1fce:	81 95       	neg	r24
    1fd0:	9f 4f       	sbci	r25, 0xFF	; 255
    1fd2:	af 4f       	sbci	r26, 0xFF	; 255
    1fd4:	bf 4f       	sbci	r27, 0xFF	; 255
    1fd6:	80 93 9a 21 	sts	0x219A, r24
    1fda:	90 93 9b 21 	sts	0x219B, r25
    1fde:	a0 93 9c 21 	sts	0x219C, r26
    1fe2:	b0 93 9d 21 	sts	0x219D, r27
			Saturated1 = 1;
    1fe6:	81 e0       	ldi	r24, 0x01	; 1
    1fe8:	90 e0       	ldi	r25, 0x00	; 0
    1fea:	a0 e0       	ldi	r26, 0x00	; 0
    1fec:	b0 e0       	ldi	r27, 0x00	; 0
    1fee:	80 93 ab 21 	sts	0x21AB, r24
    1ff2:	90 93 ac 21 	sts	0x21AC, r25
    1ff6:	a0 93 ad 21 	sts	0x21AD, r26
    1ffa:	b0 93 ae 21 	sts	0x21AE, r27
    1ffe:	08 c0       	rjmp	.+16     	; 0x2010 <PID1+0x6a8>
		}
		else
		{
			Saturated1 = 0;
    2000:	10 92 ab 21 	sts	0x21AB, r1
    2004:	10 92 ac 21 	sts	0x21AC, r1
    2008:	10 92 ad 21 	sts	0x21AD, r1
    200c:	10 92 ae 21 	sts	0x21AE, r1
	//	if (index == 0)
	//	{



			if (Cv1 >= 0)
    2010:	80 91 9a 21 	lds	r24, 0x219A
    2014:	90 91 9b 21 	lds	r25, 0x219B
    2018:	a0 91 9c 21 	lds	r26, 0x219C
    201c:	b0 91 9d 21 	lds	r27, 0x219D
    2020:	bb 23       	and	r27, r27
    2022:	ac f0       	brlt	.+42     	; 0x204e <PID1+0x6e6>
			{
				Direction1 = 1;
    2024:	81 e0       	ldi	r24, 0x01	; 1
    2026:	90 e0       	ldi	r25, 0x00	; 0
    2028:	a0 e0       	ldi	r26, 0x00	; 0
    202a:	b0 e0       	ldi	r27, 0x00	; 0
    202c:	80 93 71 21 	sts	0x2171, r24
    2030:	90 93 72 21 	sts	0x2172, r25
    2034:	a0 93 73 21 	sts	0x2173, r26
    2038:	b0 93 74 21 	sts	0x2174, r27
				M3Left;
    203c:	e0 e6       	ldi	r30, 0x60	; 96
    203e:	f6 e0       	ldi	r31, 0x06	; 6
    2040:	80 e1       	ldi	r24, 0x10	; 16
    2042:	86 83       	std	Z+6, r24	; 0x06
    2044:	e0 e6       	ldi	r30, 0x60	; 96
    2046:	f6 e0       	ldi	r31, 0x06	; 6
    2048:	80 e2       	ldi	r24, 0x20	; 32
    204a:	85 83       	std	Z+5, r24	; 0x05
    204c:	10 c0       	rjmp	.+32     	; 0x206e <PID1+0x706>
				//			PORTD_OUT |= 1;
		//USART_send_int(&USARTC1,333);
			}
			else
			{
				Direction1 = 0;
    204e:	10 92 71 21 	sts	0x2171, r1
    2052:	10 92 72 21 	sts	0x2172, r1
    2056:	10 92 73 21 	sts	0x2173, r1
    205a:	10 92 74 21 	sts	0x2174, r1
				M3Right;
    205e:	e0 e6       	ldi	r30, 0x60	; 96
    2060:	f6 e0       	ldi	r31, 0x06	; 6
    2062:	80 e2       	ldi	r24, 0x20	; 32
    2064:	86 83       	std	Z+6, r24	; 0x06
    2066:	e0 e6       	ldi	r30, 0x60	; 96
    2068:	f6 e0       	ldi	r31, 0x06	; 6
    206a:	80 e1       	ldi	r24, 0x10	; 16
    206c:	85 83       	std	Z+5, r24	; 0x05
				//PORTD_OUT &= ~1;
				//			PORTD_OUT |= 2;
				//USART_send_int(&USARTC1,Pid[0].PozRef);
			}
			if (AbsError1 <= DeadBand1)
    206e:	20 91 89 21 	lds	r18, 0x2189
    2072:	30 91 8a 21 	lds	r19, 0x218A
    2076:	40 91 8b 21 	lds	r20, 0x218B
    207a:	50 91 8c 21 	lds	r21, 0x218C
    207e:	80 91 34 21 	lds	r24, 0x2134
    2082:	90 91 35 21 	lds	r25, 0x2135
    2086:	a0 91 36 21 	lds	r26, 0x2136
    208a:	b0 91 37 21 	lds	r27, 0x2137
    208e:	82 17       	cp	r24, r18
    2090:	93 07       	cpc	r25, r19
    2092:	a4 07       	cpc	r26, r20
    2094:	b5 07       	cpc	r27, r21
    2096:	44 f0       	brlt	.+16     	; 0x20a8 <PID1+0x740>
			{
					//		PORTD_OUT |= 3;
			//	USART_send_int(&USARTC1,444);
				M3Stop;
    2098:	e0 e6       	ldi	r30, 0x60	; 96
    209a:	f6 e0       	ldi	r31, 0x06	; 6
    209c:	80 e1       	ldi	r24, 0x10	; 16
    209e:	85 83       	std	Z+5, r24	; 0x05
    20a0:	e0 e6       	ldi	r30, 0x60	; 96
    20a2:	f6 e0       	ldi	r31, 0x06	; 6
    20a4:	80 e2       	ldi	r24, 0x20	; 32
    20a6:	85 83       	std	Z+5, r24	; 0x05

			}
			if (Direction1 == LastDirection1)
    20a8:	20 91 71 21 	lds	r18, 0x2171
    20ac:	30 91 72 21 	lds	r19, 0x2172
    20b0:	40 91 73 21 	lds	r20, 0x2173
    20b4:	50 91 74 21 	lds	r21, 0x2174
    20b8:	80 91 96 21 	lds	r24, 0x2196
    20bc:	90 91 97 21 	lds	r25, 0x2197
    20c0:	a0 91 98 21 	lds	r26, 0x2198
    20c4:	b0 91 99 21 	lds	r27, 0x2199
    20c8:	28 17       	cp	r18, r24
    20ca:	39 07       	cpc	r19, r25
    20cc:	4a 07       	cpc	r20, r26
    20ce:	5b 07       	cpc	r21, r27
    20d0:	01 f5       	brne	.+64     	; 0x2112 <PID1+0x7aa>
			{
				TCE0.CCCBUF =ABS(Cv1);
    20d2:	00 e0       	ldi	r16, 0x00	; 0
    20d4:	1a e0       	ldi	r17, 0x0A	; 10
    20d6:	80 91 9a 21 	lds	r24, 0x219A
    20da:	90 91 9b 21 	lds	r25, 0x219B
    20de:	a0 91 9c 21 	lds	r26, 0x219C
    20e2:	b0 91 9d 21 	lds	r27, 0x219D
    20e6:	0e 94 93 0c 	call	0x1926	; 0x1926 <ABS>
    20ea:	f8 01       	movw	r30, r16
    20ec:	84 af       	std	Z+60, r24	; 0x3c
    20ee:	95 af       	std	Z+61, r25	; 0x3d
				USART_send_int(&USARTC1,ABS(Cv1));
    20f0:	80 91 9a 21 	lds	r24, 0x219A
    20f4:	90 91 9b 21 	lds	r25, 0x219B
    20f8:	a0 91 9c 21 	lds	r26, 0x219C
    20fc:	b0 91 9d 21 	lds	r27, 0x219D
    2100:	0e 94 93 0c 	call	0x1926	; 0x1926 <ABS>
    2104:	9c 01       	movw	r18, r24
    2106:	80 eb       	ldi	r24, 0xB0	; 176
    2108:	98 e0       	ldi	r25, 0x08	; 8
    210a:	b9 01       	movw	r22, r18
    210c:	0e 94 4d 20 	call	0x409a	; 0x409a <USART_send_int>
    2110:	04 c0       	rjmp	.+8      	; 0x211a <PID1+0x7b2>

			}
			else
			{
				TCE0.CCCBUF = 0;
    2112:	e0 e0       	ldi	r30, 0x00	; 0
    2114:	fa e0       	ldi	r31, 0x0A	; 10
    2116:	14 ae       	std	Z+60, r1	; 0x3c
    2118:	15 ae       	std	Z+61, r1	; 0x3d
			}
			LastDirection1 = Direction1;
    211a:	80 91 71 21 	lds	r24, 0x2171
    211e:	90 91 72 21 	lds	r25, 0x2172
    2122:	a0 91 73 21 	lds	r26, 0x2173
    2126:	b0 91 74 21 	lds	r27, 0x2174
    212a:	80 93 96 21 	sts	0x2196, r24
    212e:	90 93 97 21 	sts	0x2197, r25
    2132:	a0 93 98 21 	sts	0x2198, r26
    2136:	b0 93 99 21 	sts	0x2199, r27
				{
					TCF0.CCB = 0;
				}
				Pid[index].LastDirection = Pid[index].Direction;
			} */
}
    213a:	cf 91       	pop	r28
    213c:	df 91       	pop	r29
    213e:	1f 91       	pop	r17
    2140:	0f 91       	pop	r16
    2142:	ff 90       	pop	r15
    2144:	ef 90       	pop	r14
    2146:	08 95       	ret

00002148 <PID2>:

void PID2(void)
{
    2148:	ef 92       	push	r14
    214a:	ff 92       	push	r15
    214c:	0f 93       	push	r16
    214e:	1f 93       	push	r17
    2150:	df 93       	push	r29
    2152:	cf 93       	push	r28
    2154:	cd b7       	in	r28, 0x3d	; 61
    2156:	de b7       	in	r29, 0x3e	; 62

	if (Zezwolenie2 == 1)
    2158:	80 91 e0 20 	lds	r24, 0x20E0
    215c:	81 30       	cpi	r24, 0x01	; 1
    215e:	09 f0       	breq	.+2      	; 0x2162 <PID2+0x1a>
    2160:	d7 c3       	rjmp	.+1966   	; 0x2910 <PID2+0x7c8>
			{
		ActPoz2 = B;
    2162:	80 91 23 21 	lds	r24, 0x2123
    2166:	90 91 24 21 	lds	r25, 0x2124
    216a:	cc 01       	movw	r24, r24
    216c:	a0 e0       	ldi	r26, 0x00	; 0
    216e:	b0 e0       	ldi	r27, 0x00	; 0
    2170:	80 93 69 21 	sts	0x2169, r24
    2174:	90 93 6a 21 	sts	0x216A, r25
    2178:	a0 93 6b 21 	sts	0x216B, r26
    217c:	b0 93 6c 21 	sts	0x216C, r27
	if (index == 5)
	{
		Pid[index].ActPoz = F;
	} */

	Error2 = PozRef2 - ActPoz2;
    2180:	20 91 01 21 	lds	r18, 0x2101
    2184:	30 91 02 21 	lds	r19, 0x2102
    2188:	40 91 03 21 	lds	r20, 0x2103
    218c:	50 91 04 21 	lds	r21, 0x2104
    2190:	80 91 69 21 	lds	r24, 0x2169
    2194:	90 91 6a 21 	lds	r25, 0x216A
    2198:	a0 91 6b 21 	lds	r26, 0x216B
    219c:	b0 91 6c 21 	lds	r27, 0x216C
    21a0:	79 01       	movw	r14, r18
    21a2:	8a 01       	movw	r16, r20
    21a4:	e8 1a       	sub	r14, r24
    21a6:	f9 0a       	sbc	r15, r25
    21a8:	0a 0b       	sbc	r16, r26
    21aa:	1b 0b       	sbc	r17, r27
    21ac:	d8 01       	movw	r26, r16
    21ae:	c7 01       	movw	r24, r14
    21b0:	80 93 b8 21 	sts	0x21B8, r24
    21b4:	90 93 b9 21 	sts	0x21B9, r25
    21b8:	a0 93 ba 21 	sts	0x21BA, r26
    21bc:	b0 93 bb 21 	sts	0x21BB, r27
	AbsError2 = ABS(Error2);
    21c0:	80 91 b8 21 	lds	r24, 0x21B8
    21c4:	90 91 b9 21 	lds	r25, 0x21B9
    21c8:	a0 91 ba 21 	lds	r26, 0x21BA
    21cc:	b0 91 bb 21 	lds	r27, 0x21BB
    21d0:	0e 94 93 0c 	call	0x1926	; 0x1926 <ABS>
    21d4:	aa 27       	eor	r26, r26
    21d6:	97 fd       	sbrc	r25, 7
    21d8:	a0 95       	com	r26
    21da:	ba 2f       	mov	r27, r26
    21dc:	80 93 75 21 	sts	0x2175, r24
    21e0:	90 93 76 21 	sts	0x2176, r25
    21e4:	a0 93 77 21 	sts	0x2177, r26
    21e8:	b0 93 78 21 	sts	0x2178, r27

		/********************************************
		 **Setup maximum error of proportional part**
		 ********************************************/

		if (Error2 > Maxerror2)
    21ec:	20 91 b8 21 	lds	r18, 0x21B8
    21f0:	30 91 b9 21 	lds	r19, 0x21B9
    21f4:	40 91 ba 21 	lds	r20, 0x21BA
    21f8:	50 91 bb 21 	lds	r21, 0x21BB
    21fc:	80 91 05 21 	lds	r24, 0x2105
    2200:	90 91 06 21 	lds	r25, 0x2106
    2204:	a0 91 07 21 	lds	r26, 0x2107
    2208:	b0 91 08 21 	lds	r27, 0x2108
    220c:	82 17       	cp	r24, r18
    220e:	93 07       	cpc	r25, r19
    2210:	a4 07       	cpc	r26, r20
    2212:	b5 07       	cpc	r27, r21
    2214:	6c f4       	brge	.+26     	; 0x2230 <PID2+0xe8>
		{
			Error2 = 350;
    2216:	8e e5       	ldi	r24, 0x5E	; 94
    2218:	91 e0       	ldi	r25, 0x01	; 1
    221a:	a0 e0       	ldi	r26, 0x00	; 0
    221c:	b0 e0       	ldi	r27, 0x00	; 0
    221e:	80 93 b8 21 	sts	0x21B8, r24
    2222:	90 93 b9 21 	sts	0x21B9, r25
    2226:	a0 93 ba 21 	sts	0x21BA, r26
    222a:	b0 93 bb 21 	sts	0x21BB, r27
    222e:	28 c0       	rjmp	.+80     	; 0x2280 <PID2+0x138>

		}
		else if (Error2 < -(Maxerror2))
    2230:	80 91 05 21 	lds	r24, 0x2105
    2234:	90 91 06 21 	lds	r25, 0x2106
    2238:	a0 91 07 21 	lds	r26, 0x2107
    223c:	b0 91 08 21 	lds	r27, 0x2108
    2240:	22 27       	eor	r18, r18
    2242:	33 27       	eor	r19, r19
    2244:	a9 01       	movw	r20, r18
    2246:	28 1b       	sub	r18, r24
    2248:	39 0b       	sbc	r19, r25
    224a:	4a 0b       	sbc	r20, r26
    224c:	5b 0b       	sbc	r21, r27
    224e:	80 91 b8 21 	lds	r24, 0x21B8
    2252:	90 91 b9 21 	lds	r25, 0x21B9
    2256:	a0 91 ba 21 	lds	r26, 0x21BA
    225a:	b0 91 bb 21 	lds	r27, 0x21BB
    225e:	82 17       	cp	r24, r18
    2260:	93 07       	cpc	r25, r19
    2262:	a4 07       	cpc	r26, r20
    2264:	b5 07       	cpc	r27, r21
    2266:	64 f4       	brge	.+24     	; 0x2280 <PID2+0x138>
		{
			Error2 = -350;
    2268:	82 ea       	ldi	r24, 0xA2	; 162
    226a:	9e ef       	ldi	r25, 0xFE	; 254
    226c:	af ef       	ldi	r26, 0xFF	; 255
    226e:	bf ef       	ldi	r27, 0xFF	; 255
    2270:	80 93 b8 21 	sts	0x21B8, r24
    2274:	90 93 b9 21 	sts	0x21B9, r25
    2278:	a0 93 ba 21 	sts	0x21BA, r26
    227c:	b0 93 bb 21 	sts	0x21BB, r27

		/*******************************************
		**Setup deadband (optional, initially = 0)**
		********************************************/

		if (Error2 > DeadBand2)
    2280:	20 91 b8 21 	lds	r18, 0x21B8
    2284:	30 91 b9 21 	lds	r19, 0x21B9
    2288:	40 91 ba 21 	lds	r20, 0x21BA
    228c:	50 91 bb 21 	lds	r21, 0x21BB
    2290:	80 91 38 21 	lds	r24, 0x2138
    2294:	90 91 39 21 	lds	r25, 0x2139
    2298:	a0 91 3a 21 	lds	r26, 0x213A
    229c:	b0 91 3b 21 	lds	r27, 0x213B
    22a0:	82 17       	cp	r24, r18
    22a2:	93 07       	cpc	r25, r19
    22a4:	a4 07       	cpc	r26, r20
    22a6:	b5 07       	cpc	r27, r21
    22a8:	ec f4       	brge	.+58     	; 0x22e4 <PID2+0x19c>
			Error2 = Error2 - DeadBand2;
    22aa:	80 91 b8 21 	lds	r24, 0x21B8
    22ae:	90 91 b9 21 	lds	r25, 0x21B9
    22b2:	a0 91 ba 21 	lds	r26, 0x21BA
    22b6:	b0 91 bb 21 	lds	r27, 0x21BB
    22ba:	20 91 38 21 	lds	r18, 0x2138
    22be:	30 91 39 21 	lds	r19, 0x2139
    22c2:	40 91 3a 21 	lds	r20, 0x213A
    22c6:	50 91 3b 21 	lds	r21, 0x213B
    22ca:	82 1b       	sub	r24, r18
    22cc:	93 0b       	sbc	r25, r19
    22ce:	a4 0b       	sbc	r26, r20
    22d0:	b5 0b       	sbc	r27, r21
    22d2:	80 93 b8 21 	sts	0x21B8, r24
    22d6:	90 93 b9 21 	sts	0x21B9, r25
    22da:	a0 93 ba 21 	sts	0x21BA, r26
    22de:	b0 93 bb 21 	sts	0x21BB, r27
    22e2:	3a c0       	rjmp	.+116    	; 0x2358 <PID2+0x210>
		else if (Error2 < DeadBand2)
    22e4:	20 91 b8 21 	lds	r18, 0x21B8
    22e8:	30 91 b9 21 	lds	r19, 0x21B9
    22ec:	40 91 ba 21 	lds	r20, 0x21BA
    22f0:	50 91 bb 21 	lds	r21, 0x21BB
    22f4:	80 91 38 21 	lds	r24, 0x2138
    22f8:	90 91 39 21 	lds	r25, 0x2139
    22fc:	a0 91 3a 21 	lds	r26, 0x213A
    2300:	b0 91 3b 21 	lds	r27, 0x213B
    2304:	28 17       	cp	r18, r24
    2306:	39 07       	cpc	r19, r25
    2308:	4a 07       	cpc	r20, r26
    230a:	5b 07       	cpc	r21, r27
    230c:	ec f4       	brge	.+58     	; 0x2348 <PID2+0x200>
			Error2 = Error2 + DeadBand2;
    230e:	80 91 b8 21 	lds	r24, 0x21B8
    2312:	90 91 b9 21 	lds	r25, 0x21B9
    2316:	a0 91 ba 21 	lds	r26, 0x21BA
    231a:	b0 91 bb 21 	lds	r27, 0x21BB
    231e:	20 91 38 21 	lds	r18, 0x2138
    2322:	30 91 39 21 	lds	r19, 0x2139
    2326:	40 91 3a 21 	lds	r20, 0x213A
    232a:	50 91 3b 21 	lds	r21, 0x213B
    232e:	82 0f       	add	r24, r18
    2330:	93 1f       	adc	r25, r19
    2332:	a4 1f       	adc	r26, r20
    2334:	b5 1f       	adc	r27, r21
    2336:	80 93 b8 21 	sts	0x21B8, r24
    233a:	90 93 b9 21 	sts	0x21B9, r25
    233e:	a0 93 ba 21 	sts	0x21BA, r26
    2342:	b0 93 bb 21 	sts	0x21BB, r27
    2346:	08 c0       	rjmp	.+16     	; 0x2358 <PID2+0x210>
		else
			Error2 = 0;
    2348:	10 92 b8 21 	sts	0x21B8, r1
    234c:	10 92 b9 21 	sts	0x21B9, r1
    2350:	10 92 ba 21 	sts	0x21BA, r1
    2354:	10 92 bb 21 	sts	0x21BB, r1

		Pterm2 = Error2 * Kp2; /*Calculation of proportional part*/
    2358:	80 91 b8 21 	lds	r24, 0x21B8
    235c:	90 91 b9 21 	lds	r25, 0x21B9
    2360:	a0 91 ba 21 	lds	r26, 0x21BA
    2364:	b0 91 bb 21 	lds	r27, 0x21BB
    2368:	20 91 09 21 	lds	r18, 0x2109
    236c:	30 91 0a 21 	lds	r19, 0x210A
    2370:	40 91 0b 21 	lds	r20, 0x210B
    2374:	50 91 0c 21 	lds	r21, 0x210C
    2378:	bc 01       	movw	r22, r24
    237a:	cd 01       	movw	r24, r26
    237c:	0e 94 e6 26 	call	0x4dcc	; 0x4dcc <__mulsi3>
    2380:	dc 01       	movw	r26, r24
    2382:	cb 01       	movw	r24, r22
    2384:	80 93 af 21 	sts	0x21AF, r24
    2388:	90 93 b0 21 	sts	0x21B0, r25
    238c:	a0 93 b1 21 	sts	0x21B1, r26
    2390:	b0 93 b2 21 	sts	0x21B2, r27


		if (Ki2 > 0 && Enable2 != 0) /*Enable integral calculation if PID on*/
    2394:	80 91 0d 21 	lds	r24, 0x210D
    2398:	90 91 0e 21 	lds	r25, 0x210E
    239c:	a0 91 0f 21 	lds	r26, 0x210F
    23a0:	b0 91 10 21 	lds	r27, 0x2110
    23a4:	18 16       	cp	r1, r24
    23a6:	19 06       	cpc	r1, r25
    23a8:	1a 06       	cpc	r1, r26
    23aa:	1b 06       	cpc	r1, r27
    23ac:	0c f0       	brlt	.+2      	; 0x23b0 <PID2+0x268>
    23ae:	94 c0       	rjmp	.+296    	; 0x24d8 <PID2+0x390>
    23b0:	80 91 aa 21 	lds	r24, 0x21AA
    23b4:	88 23       	and	r24, r24
    23b6:	09 f4       	brne	.+2      	; 0x23ba <PID2+0x272>
    23b8:	8f c0       	rjmp	.+286    	; 0x24d8 <PID2+0x390>
		{
			if (Saturated2 == 0) /*If Output is on max power, stop calculating integral part*/
    23ba:	80 91 65 21 	lds	r24, 0x2165
    23be:	90 91 66 21 	lds	r25, 0x2166
    23c2:	a0 91 67 21 	lds	r26, 0x2167
    23c6:	b0 91 68 21 	lds	r27, 0x2168
    23ca:	00 97       	sbiw	r24, 0x00	; 0
    23cc:	a1 05       	cpc	r26, r1
    23ce:	b1 05       	cpc	r27, r1
    23d0:	e1 f4       	brne	.+56     	; 0x240a <PID2+0x2c2>
			{
				Errori2 += Error2;
    23d2:	80 91 79 21 	lds	r24, 0x2179
    23d6:	90 91 7a 21 	lds	r25, 0x217A
    23da:	a0 91 7b 21 	lds	r26, 0x217B
    23de:	b0 91 7c 21 	lds	r27, 0x217C
    23e2:	20 91 b8 21 	lds	r18, 0x21B8
    23e6:	30 91 b9 21 	lds	r19, 0x21B9
    23ea:	40 91 ba 21 	lds	r20, 0x21BA
    23ee:	50 91 bb 21 	lds	r21, 0x21BB
    23f2:	82 0f       	add	r24, r18
    23f4:	93 1f       	adc	r25, r19
    23f6:	a4 1f       	adc	r26, r20
    23f8:	b5 1f       	adc	r27, r21
    23fa:	80 93 79 21 	sts	0x2179, r24
    23fe:	90 93 7a 21 	sts	0x217A, r25
    2402:	a0 93 7b 21 	sts	0x217B, r26
    2406:	b0 93 7c 21 	sts	0x217C, r27
			}
			if (MaxErrori2 != 0)
    240a:	80 91 11 21 	lds	r24, 0x2111
    240e:	90 91 12 21 	lds	r25, 0x2112
    2412:	a0 91 13 21 	lds	r26, 0x2113
    2416:	b0 91 14 21 	lds	r27, 0x2114
    241a:	00 97       	sbiw	r24, 0x00	; 0
    241c:	a1 05       	cpc	r26, r1
    241e:	b1 05       	cpc	r27, r1
    2420:	09 f4       	brne	.+2      	; 0x2424 <PID2+0x2dc>
    2422:	62 c0       	rjmp	.+196    	; 0x24e8 <PID2+0x3a0>
			{
				if (Errori2 > MaxErrori2)
    2424:	20 91 79 21 	lds	r18, 0x2179
    2428:	30 91 7a 21 	lds	r19, 0x217A
    242c:	40 91 7b 21 	lds	r20, 0x217B
    2430:	50 91 7c 21 	lds	r21, 0x217C
    2434:	80 91 11 21 	lds	r24, 0x2111
    2438:	90 91 12 21 	lds	r25, 0x2112
    243c:	a0 91 13 21 	lds	r26, 0x2113
    2440:	b0 91 14 21 	lds	r27, 0x2114
    2444:	82 17       	cp	r24, r18
    2446:	93 07       	cpc	r25, r19
    2448:	a4 07       	cpc	r26, r20
    244a:	b5 07       	cpc	r27, r21
    244c:	8c f4       	brge	.+34     	; 0x2470 <PID2+0x328>
				{
					Errori2 = MaxErrori2;
    244e:	80 91 11 21 	lds	r24, 0x2111
    2452:	90 91 12 21 	lds	r25, 0x2112
    2456:	a0 91 13 21 	lds	r26, 0x2113
    245a:	b0 91 14 21 	lds	r27, 0x2114
    245e:	80 93 79 21 	sts	0x2179, r24
    2462:	90 93 7a 21 	sts	0x217A, r25
    2466:	a0 93 7b 21 	sts	0x217B, r26
    246a:	b0 93 7c 21 	sts	0x217C, r27
    246e:	3c c0       	rjmp	.+120    	; 0x24e8 <PID2+0x3a0>
				}
				else if (Errori2 < -MaxErrori2)
    2470:	80 91 11 21 	lds	r24, 0x2111
    2474:	90 91 12 21 	lds	r25, 0x2112
    2478:	a0 91 13 21 	lds	r26, 0x2113
    247c:	b0 91 14 21 	lds	r27, 0x2114
    2480:	22 27       	eor	r18, r18
    2482:	33 27       	eor	r19, r19
    2484:	a9 01       	movw	r20, r18
    2486:	28 1b       	sub	r18, r24
    2488:	39 0b       	sbc	r19, r25
    248a:	4a 0b       	sbc	r20, r26
    248c:	5b 0b       	sbc	r21, r27
    248e:	80 91 79 21 	lds	r24, 0x2179
    2492:	90 91 7a 21 	lds	r25, 0x217A
    2496:	a0 91 7b 21 	lds	r26, 0x217B
    249a:	b0 91 7c 21 	lds	r27, 0x217C
    249e:	82 17       	cp	r24, r18
    24a0:	93 07       	cpc	r25, r19
    24a2:	a4 07       	cpc	r26, r20
    24a4:	b5 07       	cpc	r27, r21
    24a6:	04 f5       	brge	.+64     	; 0x24e8 <PID2+0x3a0>
				{
					Errori2 = -MaxErrori2;
    24a8:	80 91 11 21 	lds	r24, 0x2111
    24ac:	90 91 12 21 	lds	r25, 0x2112
    24b0:	a0 91 13 21 	lds	r26, 0x2113
    24b4:	b0 91 14 21 	lds	r27, 0x2114
    24b8:	b0 95       	com	r27
    24ba:	a0 95       	com	r26
    24bc:	90 95       	com	r25
    24be:	81 95       	neg	r24
    24c0:	9f 4f       	sbci	r25, 0xFF	; 255
    24c2:	af 4f       	sbci	r26, 0xFF	; 255
    24c4:	bf 4f       	sbci	r27, 0xFF	; 255
    24c6:	80 93 79 21 	sts	0x2179, r24
    24ca:	90 93 7a 21 	sts	0x217A, r25
    24ce:	a0 93 7b 21 	sts	0x217B, r26
    24d2:	b0 93 7c 21 	sts	0x217C, r27
    24d6:	08 c0       	rjmp	.+16     	; 0x24e8 <PID2+0x3a0>
				}
			}
		}
		else
		{
			Errori2 = 0;
    24d8:	10 92 79 21 	sts	0x2179, r1
    24dc:	10 92 7a 21 	sts	0x217A, r1
    24e0:	10 92 7b 21 	sts	0x217B, r1
    24e4:	10 92 7c 21 	sts	0x217C, r1
		}
		Iterm2 = Errori2 * Ki2; /*integral part equation*/
    24e8:	80 91 79 21 	lds	r24, 0x2179
    24ec:	90 91 7a 21 	lds	r25, 0x217A
    24f0:	a0 91 7b 21 	lds	r26, 0x217B
    24f4:	b0 91 7c 21 	lds	r27, 0x217C
    24f8:	20 91 0d 21 	lds	r18, 0x210D
    24fc:	30 91 0e 21 	lds	r19, 0x210E
    2500:	40 91 0f 21 	lds	r20, 0x210F
    2504:	50 91 10 21 	lds	r21, 0x2110
    2508:	bc 01       	movw	r22, r24
    250a:	cd 01       	movw	r24, r26
    250c:	0e 94 e6 26 	call	0x4dcc	; 0x4dcc <__mulsi3>
    2510:	dc 01       	movw	r26, r24
    2512:	cb 01       	movw	r24, r22
    2514:	80 93 6d 21 	sts	0x216D, r24
    2518:	90 93 6e 21 	sts	0x216E, r25
    251c:	a0 93 6f 21 	sts	0x216F, r26
    2520:	b0 93 70 21 	sts	0x2170, r27


		Errord2 = Error2 - LastError2;
    2524:	20 91 b8 21 	lds	r18, 0x21B8
    2528:	30 91 b9 21 	lds	r19, 0x21B9
    252c:	40 91 ba 21 	lds	r20, 0x21BA
    2530:	50 91 bb 21 	lds	r21, 0x21BB
    2534:	80 91 54 21 	lds	r24, 0x2154
    2538:	90 91 55 21 	lds	r25, 0x2155
    253c:	a0 91 56 21 	lds	r26, 0x2156
    2540:	b0 91 57 21 	lds	r27, 0x2157
    2544:	79 01       	movw	r14, r18
    2546:	8a 01       	movw	r16, r20
    2548:	e8 1a       	sub	r14, r24
    254a:	f9 0a       	sbc	r15, r25
    254c:	0a 0b       	sbc	r16, r26
    254e:	1b 0b       	sbc	r17, r27
    2550:	d8 01       	movw	r26, r16
    2552:	c7 01       	movw	r24, r14
    2554:	80 93 9e 21 	sts	0x219E, r24
    2558:	90 93 9f 21 	sts	0x219F, r25
    255c:	a0 93 a0 21 	sts	0x21A0, r26
    2560:	b0 93 a1 21 	sts	0x21A1, r27
		LastError2 = Error2;
    2564:	80 91 b8 21 	lds	r24, 0x21B8
    2568:	90 91 b9 21 	lds	r25, 0x21B9
    256c:	a0 91 ba 21 	lds	r26, 0x21BA
    2570:	b0 91 bb 21 	lds	r27, 0x21BB
    2574:	80 93 54 21 	sts	0x2154, r24
    2578:	90 93 55 21 	sts	0x2155, r25
    257c:	a0 93 56 21 	sts	0x2156, r26
    2580:	b0 93 57 21 	sts	0x2157, r27

		if (MaxErrord2 != 0)
    2584:	80 91 15 21 	lds	r24, 0x2115
    2588:	90 91 16 21 	lds	r25, 0x2116
    258c:	a0 91 17 21 	lds	r26, 0x2117
    2590:	b0 91 18 21 	lds	r27, 0x2118
    2594:	00 97       	sbiw	r24, 0x00	; 0
    2596:	a1 05       	cpc	r26, r1
    2598:	b1 05       	cpc	r27, r1
    259a:	09 f4       	brne	.+2      	; 0x259e <PID2+0x456>
    259c:	59 c0       	rjmp	.+178    	; 0x2650 <PID2+0x508>
		{
			if (Errord2 > MaxErrord2)
    259e:	20 91 9e 21 	lds	r18, 0x219E
    25a2:	30 91 9f 21 	lds	r19, 0x219F
    25a6:	40 91 a0 21 	lds	r20, 0x21A0
    25aa:	50 91 a1 21 	lds	r21, 0x21A1
    25ae:	80 91 15 21 	lds	r24, 0x2115
    25b2:	90 91 16 21 	lds	r25, 0x2116
    25b6:	a0 91 17 21 	lds	r26, 0x2117
    25ba:	b0 91 18 21 	lds	r27, 0x2118
    25be:	82 17       	cp	r24, r18
    25c0:	93 07       	cpc	r25, r19
    25c2:	a4 07       	cpc	r26, r20
    25c4:	b5 07       	cpc	r27, r21
    25c6:	8c f4       	brge	.+34     	; 0x25ea <PID2+0x4a2>
			{
				Errord2 = MaxErrord2;
    25c8:	80 91 15 21 	lds	r24, 0x2115
    25cc:	90 91 16 21 	lds	r25, 0x2116
    25d0:	a0 91 17 21 	lds	r26, 0x2117
    25d4:	b0 91 18 21 	lds	r27, 0x2118
    25d8:	80 93 9e 21 	sts	0x219E, r24
    25dc:	90 93 9f 21 	sts	0x219F, r25
    25e0:	a0 93 a0 21 	sts	0x21A0, r26
    25e4:	b0 93 a1 21 	sts	0x21A1, r27
    25e8:	33 c0       	rjmp	.+102    	; 0x2650 <PID2+0x508>
			}
			else if (Errord2 < -MaxErrord2)
    25ea:	80 91 15 21 	lds	r24, 0x2115
    25ee:	90 91 16 21 	lds	r25, 0x2116
    25f2:	a0 91 17 21 	lds	r26, 0x2117
    25f6:	b0 91 18 21 	lds	r27, 0x2118
    25fa:	22 27       	eor	r18, r18
    25fc:	33 27       	eor	r19, r19
    25fe:	a9 01       	movw	r20, r18
    2600:	28 1b       	sub	r18, r24
    2602:	39 0b       	sbc	r19, r25
    2604:	4a 0b       	sbc	r20, r26
    2606:	5b 0b       	sbc	r21, r27
    2608:	80 91 9e 21 	lds	r24, 0x219E
    260c:	90 91 9f 21 	lds	r25, 0x219F
    2610:	a0 91 a0 21 	lds	r26, 0x21A0
    2614:	b0 91 a1 21 	lds	r27, 0x21A1
    2618:	82 17       	cp	r24, r18
    261a:	93 07       	cpc	r25, r19
    261c:	a4 07       	cpc	r26, r20
    261e:	b5 07       	cpc	r27, r21
    2620:	bc f4       	brge	.+46     	; 0x2650 <PID2+0x508>
			{
				Errord2 = -MaxErrord2;
    2622:	80 91 15 21 	lds	r24, 0x2115
    2626:	90 91 16 21 	lds	r25, 0x2116
    262a:	a0 91 17 21 	lds	r26, 0x2117
    262e:	b0 91 18 21 	lds	r27, 0x2118
    2632:	b0 95       	com	r27
    2634:	a0 95       	com	r26
    2636:	90 95       	com	r25
    2638:	81 95       	neg	r24
    263a:	9f 4f       	sbci	r25, 0xFF	; 255
    263c:	af 4f       	sbci	r26, 0xFF	; 255
    263e:	bf 4f       	sbci	r27, 0xFF	; 255
    2640:	80 93 9e 21 	sts	0x219E, r24
    2644:	90 93 9f 21 	sts	0x219F, r25
    2648:	a0 93 a0 21 	sts	0x21A0, r26
    264c:	b0 93 a1 21 	sts	0x21A1, r27
			}
		}
		Dterm2 = Errord2 * Kd2;
    2650:	80 91 9e 21 	lds	r24, 0x219E
    2654:	90 91 9f 21 	lds	r25, 0x219F
    2658:	a0 91 a0 21 	lds	r26, 0x21A0
    265c:	b0 91 a1 21 	lds	r27, 0x21A1
    2660:	20 91 19 21 	lds	r18, 0x2119
    2664:	30 91 1a 21 	lds	r19, 0x211A
    2668:	40 91 1b 21 	lds	r20, 0x211B
    266c:	50 91 1c 21 	lds	r21, 0x211C
    2670:	bc 01       	movw	r22, r24
    2672:	cd 01       	movw	r24, r26
    2674:	0e 94 e6 26 	call	0x4dcc	; 0x4dcc <__mulsi3>
    2678:	dc 01       	movw	r26, r24
    267a:	cb 01       	movw	r24, r22
    267c:	80 93 c8 21 	sts	0x21C8, r24
    2680:	90 93 c9 21 	sts	0x21C9, r25
    2684:	a0 93 ca 21 	sts	0x21CA, r26
    2688:	b0 93 cb 21 	sts	0x21CB, r27

		Cv2 = Pterm2 + Iterm2 ; /*Answer of PID regulator*/
    268c:	20 91 af 21 	lds	r18, 0x21AF
    2690:	30 91 b0 21 	lds	r19, 0x21B0
    2694:	40 91 b1 21 	lds	r20, 0x21B1
    2698:	50 91 b2 21 	lds	r21, 0x21B2
    269c:	80 91 6d 21 	lds	r24, 0x216D
    26a0:	90 91 6e 21 	lds	r25, 0x216E
    26a4:	a0 91 6f 21 	lds	r26, 0x216F
    26a8:	b0 91 70 21 	lds	r27, 0x2170
    26ac:	82 0f       	add	r24, r18
    26ae:	93 1f       	adc	r25, r19
    26b0:	a4 1f       	adc	r26, r20
    26b2:	b5 1f       	adc	r27, r21
    26b4:	80 93 b4 21 	sts	0x21B4, r24
    26b8:	90 93 b5 21 	sts	0x21B5, r25
    26bc:	a0 93 b6 21 	sts	0x21B6, r26
    26c0:	b0 93 b7 21 	sts	0x21B7, r27
		Cv2 += Dterm2;
    26c4:	20 91 b4 21 	lds	r18, 0x21B4
    26c8:	30 91 b5 21 	lds	r19, 0x21B5
    26cc:	40 91 b6 21 	lds	r20, 0x21B6
    26d0:	50 91 b7 21 	lds	r21, 0x21B7
    26d4:	80 91 c8 21 	lds	r24, 0x21C8
    26d8:	90 91 c9 21 	lds	r25, 0x21C9
    26dc:	a0 91 ca 21 	lds	r26, 0x21CA
    26e0:	b0 91 cb 21 	lds	r27, 0x21CB
    26e4:	82 0f       	add	r24, r18
    26e6:	93 1f       	adc	r25, r19
    26e8:	a4 1f       	adc	r26, r20
    26ea:	b5 1f       	adc	r27, r21
    26ec:	80 93 b4 21 	sts	0x21B4, r24
    26f0:	90 93 b5 21 	sts	0x21B5, r25
    26f4:	a0 93 b6 21 	sts	0x21B6, r26
    26f8:	b0 93 b7 21 	sts	0x21B7, r27


		if (Cv2 > MaxCv2) /*Maximum for Answer*/
    26fc:	20 91 b4 21 	lds	r18, 0x21B4
    2700:	30 91 b5 21 	lds	r19, 0x21B5
    2704:	40 91 b6 21 	lds	r20, 0x21B6
    2708:	50 91 b7 21 	lds	r21, 0x21B7
    270c:	80 91 1d 21 	lds	r24, 0x211D
    2710:	90 91 1e 21 	lds	r25, 0x211E
    2714:	a0 91 1f 21 	lds	r26, 0x211F
    2718:	b0 91 20 21 	lds	r27, 0x2120
    271c:	82 17       	cp	r24, r18
    271e:	93 07       	cpc	r25, r19
    2720:	a4 07       	cpc	r26, r20
    2722:	b5 07       	cpc	r27, r21
    2724:	ec f4       	brge	.+58     	; 0x2760 <PID2+0x618>
		{
			Cv2 = MaxCv2;
    2726:	80 91 1d 21 	lds	r24, 0x211D
    272a:	90 91 1e 21 	lds	r25, 0x211E
    272e:	a0 91 1f 21 	lds	r26, 0x211F
    2732:	b0 91 20 21 	lds	r27, 0x2120
    2736:	80 93 b4 21 	sts	0x21B4, r24
    273a:	90 93 b5 21 	sts	0x21B5, r25
    273e:	a0 93 b6 21 	sts	0x21B6, r26
    2742:	b0 93 b7 21 	sts	0x21B7, r27
			Saturated2 = 2;
    2746:	82 e0       	ldi	r24, 0x02	; 2
    2748:	90 e0       	ldi	r25, 0x00	; 0
    274a:	a0 e0       	ldi	r26, 0x00	; 0
    274c:	b0 e0       	ldi	r27, 0x00	; 0
    274e:	80 93 65 21 	sts	0x2165, r24
    2752:	90 93 66 21 	sts	0x2166, r25
    2756:	a0 93 67 21 	sts	0x2167, r26
    275a:	b0 93 68 21 	sts	0x2168, r27
    275e:	48 c0       	rjmp	.+144    	; 0x27f0 <PID2+0x6a8>
		}
		else if (Cv2 < -MaxCv2)
    2760:	80 91 1d 21 	lds	r24, 0x211D
    2764:	90 91 1e 21 	lds	r25, 0x211E
    2768:	a0 91 1f 21 	lds	r26, 0x211F
    276c:	b0 91 20 21 	lds	r27, 0x2120
    2770:	22 27       	eor	r18, r18
    2772:	33 27       	eor	r19, r19
    2774:	a9 01       	movw	r20, r18
    2776:	28 1b       	sub	r18, r24
    2778:	39 0b       	sbc	r19, r25
    277a:	4a 0b       	sbc	r20, r26
    277c:	5b 0b       	sbc	r21, r27
    277e:	80 91 b4 21 	lds	r24, 0x21B4
    2782:	90 91 b5 21 	lds	r25, 0x21B5
    2786:	a0 91 b6 21 	lds	r26, 0x21B6
    278a:	b0 91 b7 21 	lds	r27, 0x21B7
    278e:	82 17       	cp	r24, r18
    2790:	93 07       	cpc	r25, r19
    2792:	a4 07       	cpc	r26, r20
    2794:	b5 07       	cpc	r27, r21
    2796:	24 f5       	brge	.+72     	; 0x27e0 <PID2+0x698>
		{
			Cv2 = -MaxCv2;
    2798:	80 91 1d 21 	lds	r24, 0x211D
    279c:	90 91 1e 21 	lds	r25, 0x211E
    27a0:	a0 91 1f 21 	lds	r26, 0x211F
    27a4:	b0 91 20 21 	lds	r27, 0x2120
    27a8:	b0 95       	com	r27
    27aa:	a0 95       	com	r26
    27ac:	90 95       	com	r25
    27ae:	81 95       	neg	r24
    27b0:	9f 4f       	sbci	r25, 0xFF	; 255
    27b2:	af 4f       	sbci	r26, 0xFF	; 255
    27b4:	bf 4f       	sbci	r27, 0xFF	; 255
    27b6:	80 93 b4 21 	sts	0x21B4, r24
    27ba:	90 93 b5 21 	sts	0x21B5, r25
    27be:	a0 93 b6 21 	sts	0x21B6, r26
    27c2:	b0 93 b7 21 	sts	0x21B7, r27
			Saturated2 = 1;
    27c6:	81 e0       	ldi	r24, 0x01	; 1
    27c8:	90 e0       	ldi	r25, 0x00	; 0
    27ca:	a0 e0       	ldi	r26, 0x00	; 0
    27cc:	b0 e0       	ldi	r27, 0x00	; 0
    27ce:	80 93 65 21 	sts	0x2165, r24
    27d2:	90 93 66 21 	sts	0x2166, r25
    27d6:	a0 93 67 21 	sts	0x2167, r26
    27da:	b0 93 68 21 	sts	0x2168, r27
    27de:	08 c0       	rjmp	.+16     	; 0x27f0 <PID2+0x6a8>
		}
		else
		{
			Saturated2 = 0;
    27e0:	10 92 65 21 	sts	0x2165, r1
    27e4:	10 92 66 21 	sts	0x2166, r1
    27e8:	10 92 67 21 	sts	0x2167, r1
    27ec:	10 92 68 21 	sts	0x2168, r1
	//	if (index == 0)
	//	{



			if (Cv2 >= 0)
    27f0:	80 91 b4 21 	lds	r24, 0x21B4
    27f4:	90 91 b5 21 	lds	r25, 0x21B5
    27f8:	a0 91 b6 21 	lds	r26, 0x21B6
    27fc:	b0 91 b7 21 	lds	r27, 0x21B7
    2800:	bb 23       	and	r27, r27
    2802:	dc f0       	brlt	.+54     	; 0x283a <PID2+0x6f2>
			{
				Direction2 = 1;
    2804:	81 e0       	ldi	r24, 0x01	; 1
    2806:	90 e0       	ldi	r25, 0x00	; 0
    2808:	a0 e0       	ldi	r26, 0x00	; 0
    280a:	b0 e0       	ldi	r27, 0x00	; 0
    280c:	80 93 58 21 	sts	0x2158, r24
    2810:	90 93 59 21 	sts	0x2159, r25
    2814:	a0 93 5a 21 	sts	0x215A, r26
    2818:	b0 93 5b 21 	sts	0x215B, r27
				PORTD_OUT &= ~4;
    281c:	a4 e6       	ldi	r26, 0x64	; 100
    281e:	b6 e0       	ldi	r27, 0x06	; 6
    2820:	e4 e6       	ldi	r30, 0x64	; 100
    2822:	f6 e0       	ldi	r31, 0x06	; 6
    2824:	80 81       	ld	r24, Z
    2826:	8b 7f       	andi	r24, 0xFB	; 251
    2828:	8c 93       	st	X, r24
							PORTD_OUT |= 8;
    282a:	a4 e6       	ldi	r26, 0x64	; 100
    282c:	b6 e0       	ldi	r27, 0x06	; 6
    282e:	e4 e6       	ldi	r30, 0x64	; 100
    2830:	f6 e0       	ldi	r31, 0x06	; 6
    2832:	80 81       	ld	r24, Z
    2834:	88 60       	ori	r24, 0x08	; 8
    2836:	8c 93       	st	X, r24
    2838:	16 c0       	rjmp	.+44     	; 0x2866 <PID2+0x71e>
				//USART_send_int(&USARTC1,333);
			}
			else
			{
				Direction2 = 0;
    283a:	10 92 58 21 	sts	0x2158, r1
    283e:	10 92 59 21 	sts	0x2159, r1
    2842:	10 92 5a 21 	sts	0x215A, r1
    2846:	10 92 5b 21 	sts	0x215B, r1
				PORTD_OUT &= ~8;
    284a:	a4 e6       	ldi	r26, 0x64	; 100
    284c:	b6 e0       	ldi	r27, 0x06	; 6
    284e:	e4 e6       	ldi	r30, 0x64	; 100
    2850:	f6 e0       	ldi	r31, 0x06	; 6
    2852:	80 81       	ld	r24, Z
    2854:	87 7f       	andi	r24, 0xF7	; 247
    2856:	8c 93       	st	X, r24
					PORTD_OUT |= 4;
    2858:	a4 e6       	ldi	r26, 0x64	; 100
    285a:	b6 e0       	ldi	r27, 0x06	; 6
    285c:	e4 e6       	ldi	r30, 0x64	; 100
    285e:	f6 e0       	ldi	r31, 0x06	; 6
    2860:	80 81       	ld	r24, Z
    2862:	84 60       	ori	r24, 0x04	; 4
    2864:	8c 93       	st	X, r24
				//USART_send_int(&USARTC1,Pid[0].PozRef);
			}
			if (AbsError2 <= DeadBand2)
    2866:	20 91 75 21 	lds	r18, 0x2175
    286a:	30 91 76 21 	lds	r19, 0x2176
    286e:	40 91 77 21 	lds	r20, 0x2177
    2872:	50 91 78 21 	lds	r21, 0x2178
    2876:	80 91 38 21 	lds	r24, 0x2138
    287a:	90 91 39 21 	lds	r25, 0x2139
    287e:	a0 91 3a 21 	lds	r26, 0x213A
    2882:	b0 91 3b 21 	lds	r27, 0x213B
    2886:	82 17       	cp	r24, r18
    2888:	93 07       	cpc	r25, r19
    288a:	a4 07       	cpc	r26, r20
    288c:	b5 07       	cpc	r27, r21
    288e:	3c f0       	brlt	.+14     	; 0x289e <PID2+0x756>
			{
				PORTD_OUT |= 12;
    2890:	a4 e6       	ldi	r26, 0x64	; 100
    2892:	b6 e0       	ldi	r27, 0x06	; 6
    2894:	e4 e6       	ldi	r30, 0x64	; 100
    2896:	f6 e0       	ldi	r31, 0x06	; 6
    2898:	80 81       	ld	r24, Z
    289a:	8c 60       	ori	r24, 0x0C	; 12
    289c:	8c 93       	st	X, r24
			//	USART_send_int(&USARTC1,444);
			}
			if (Direction2 == LastDirection2)
    289e:	20 91 58 21 	lds	r18, 0x2158
    28a2:	30 91 59 21 	lds	r19, 0x2159
    28a6:	40 91 5a 21 	lds	r20, 0x215A
    28aa:	50 91 5b 21 	lds	r21, 0x215B
    28ae:	80 91 c4 21 	lds	r24, 0x21C4
    28b2:	90 91 c5 21 	lds	r25, 0x21C5
    28b6:	a0 91 c6 21 	lds	r26, 0x21C6
    28ba:	b0 91 c7 21 	lds	r27, 0x21C7
    28be:	28 17       	cp	r18, r24
    28c0:	39 07       	cpc	r19, r25
    28c2:	4a 07       	cpc	r20, r26
    28c4:	5b 07       	cpc	r21, r27
    28c6:	81 f4       	brne	.+32     	; 0x28e8 <PID2+0x7a0>
			{
				TCE0.CCBBUF =ABS(Cv2);
    28c8:	00 e0       	ldi	r16, 0x00	; 0
    28ca:	1a e0       	ldi	r17, 0x0A	; 10
    28cc:	80 91 b4 21 	lds	r24, 0x21B4
    28d0:	90 91 b5 21 	lds	r25, 0x21B5
    28d4:	a0 91 b6 21 	lds	r26, 0x21B6
    28d8:	b0 91 b7 21 	lds	r27, 0x21B7
    28dc:	0e 94 93 0c 	call	0x1926	; 0x1926 <ABS>
    28e0:	f8 01       	movw	r30, r16
    28e2:	82 af       	std	Z+58, r24	; 0x3a
    28e4:	93 af       	std	Z+59, r25	; 0x3b
    28e6:	04 c0       	rjmp	.+8      	; 0x28f0 <PID2+0x7a8>
				//USART_send_int(&USARTC1,ABS(Pid[0].Cv));

			}
			else
			{
				TCE0.CCBBUF = 0;
    28e8:	e0 e0       	ldi	r30, 0x00	; 0
    28ea:	fa e0       	ldi	r31, 0x0A	; 10
    28ec:	12 ae       	std	Z+58, r1	; 0x3a
    28ee:	13 ae       	std	Z+59, r1	; 0x3b
			}
			LastDirection2 = Direction2;
    28f0:	80 91 58 21 	lds	r24, 0x2158
    28f4:	90 91 59 21 	lds	r25, 0x2159
    28f8:	a0 91 5a 21 	lds	r26, 0x215A
    28fc:	b0 91 5b 21 	lds	r27, 0x215B
    2900:	80 93 c4 21 	sts	0x21C4, r24
    2904:	90 93 c5 21 	sts	0x21C5, r25
    2908:	a0 93 c6 21 	sts	0x21C6, r26
    290c:	b0 93 c7 21 	sts	0x21C7, r27
				{
					TCF0.CCB = 0;
				}
				Pid[index].LastDirection = Pid[index].Direction;
			} */
}
    2910:	cf 91       	pop	r28
    2912:	df 91       	pop	r29
    2914:	1f 91       	pop	r17
    2916:	0f 91       	pop	r16
    2918:	ff 90       	pop	r15
    291a:	ef 90       	pop	r14
    291c:	08 95       	ret

0000291e <Onlinecontrol>:
void Onlinecontrol (uint8_t index,uint8_t button)
{
    291e:	df 93       	push	r29
    2920:	cf 93       	push	r28
    2922:	0f 92       	push	r0
    2924:	0f 92       	push	r0
    2926:	cd b7       	in	r28, 0x3d	; 61
    2928:	de b7       	in	r29, 0x3e	; 62
    292a:	89 83       	std	Y+1, r24	; 0x01
    292c:	6a 83       	std	Y+2, r22	; 0x02
	if (index == 0)
    292e:	89 81       	ldd	r24, Y+1	; 0x01
    2930:	88 23       	and	r24, r24
    2932:	09 f0       	breq	.+2      	; 0x2936 <Onlinecontrol+0x18>
    2934:	54 c0       	rjmp	.+168    	; 0x29de <Onlinecontrol+0xc0>
	{
		if (button == 1)
    2936:	8a 81       	ldd	r24, Y+2	; 0x02
    2938:	81 30       	cpi	r24, 0x01	; 1
    293a:	a9 f4       	brne	.+42     	; 0x2966 <Onlinecontrol+0x48>
		{
			//Zezwolenie1 = 2;
			//TCE0.CCA = 1000;
			PORTD_OUT &= ~2;
    293c:	a4 e6       	ldi	r26, 0x64	; 100
    293e:	b6 e0       	ldi	r27, 0x06	; 6
    2940:	e4 e6       	ldi	r30, 0x64	; 100
    2942:	f6 e0       	ldi	r31, 0x06	; 6
    2944:	80 81       	ld	r24, Z
    2946:	8d 7f       	andi	r24, 0xFD	; 253
    2948:	8c 93       	st	X, r24
			PORTD_OUT |= 1;
    294a:	a4 e6       	ldi	r26, 0x64	; 100
    294c:	b6 e0       	ldi	r27, 0x06	; 6
    294e:	e4 e6       	ldi	r30, 0x64	; 100
    2950:	f6 e0       	ldi	r31, 0x06	; 6
    2952:	80 81       	ld	r24, Z
    2954:	81 60       	ori	r24, 0x01	; 1
    2956:	8c 93       	st	X, r24
			USART_send_int(&USARTC1,444);
    2958:	80 eb       	ldi	r24, 0xB0	; 176
    295a:	98 e0       	ldi	r25, 0x08	; 8
    295c:	6c eb       	ldi	r22, 0xBC	; 188
    295e:	71 e0       	ldi	r23, 0x01	; 1
    2960:	0e 94 4d 20 	call	0x409a	; 0x409a <USART_send_int>
    2964:	80 c0       	rjmp	.+256    	; 0x2a66 <Onlinecontrol+0x148>
			//Pid[0].PozRef = A + Pid[0].OnlineSpeed;
			//Pid[0].PositionBuffor = A;
		}
		else if (button == 2)
    2966:	8a 81       	ldd	r24, Y+2	; 0x02
    2968:	82 30       	cpi	r24, 0x02	; 2
    296a:	a9 f4       	brne	.+42     	; 0x2996 <Onlinecontrol+0x78>
		{
			//Zezwolenie1 = 2;
			//TCE0.CCA = 1000;
			PORTD_OUT &= ~1;
    296c:	a4 e6       	ldi	r26, 0x64	; 100
    296e:	b6 e0       	ldi	r27, 0x06	; 6
    2970:	e4 e6       	ldi	r30, 0x64	; 100
    2972:	f6 e0       	ldi	r31, 0x06	; 6
    2974:	80 81       	ld	r24, Z
    2976:	8e 7f       	andi	r24, 0xFE	; 254
    2978:	8c 93       	st	X, r24
						PORTD_OUT |= 2;
    297a:	a4 e6       	ldi	r26, 0x64	; 100
    297c:	b6 e0       	ldi	r27, 0x06	; 6
    297e:	e4 e6       	ldi	r30, 0x64	; 100
    2980:	f6 e0       	ldi	r31, 0x06	; 6
    2982:	80 81       	ld	r24, Z
    2984:	82 60       	ori	r24, 0x02	; 2
    2986:	8c 93       	st	X, r24
			USART_send_int(&USARTC1,555);
    2988:	80 eb       	ldi	r24, 0xB0	; 176
    298a:	98 e0       	ldi	r25, 0x08	; 8
    298c:	6b e2       	ldi	r22, 0x2B	; 43
    298e:	72 e0       	ldi	r23, 0x02	; 2
    2990:	0e 94 4d 20 	call	0x409a	; 0x409a <USART_send_int>
    2994:	68 c0       	rjmp	.+208    	; 0x2a66 <Onlinecontrol+0x148>
			//Pid[0].PozRef = A - Pid[0].OnlineSpeed;
			//Pid[0].PositionBuffor = A;
		}
		else if (button == 3)
    2996:	8a 81       	ldd	r24, Y+2	; 0x02
    2998:	83 30       	cpi	r24, 0x03	; 3
    299a:	09 f0       	breq	.+2      	; 0x299e <Onlinecontrol+0x80>
    299c:	64 c0       	rjmp	.+200    	; 0x2a66 <Onlinecontrol+0x148>
		{
			PozRef1 = A;
    299e:	80 91 21 21 	lds	r24, 0x2121
    29a2:	90 91 22 21 	lds	r25, 0x2122
    29a6:	cc 01       	movw	r24, r24
    29a8:	a0 e0       	ldi	r26, 0x00	; 0
    29aa:	b0 e0       	ldi	r27, 0x00	; 0
    29ac:	80 93 e1 20 	sts	0x20E1, r24
    29b0:	90 93 e2 20 	sts	0x20E2, r25
    29b4:	a0 93 e3 20 	sts	0x20E3, r26
    29b8:	b0 93 e4 20 	sts	0x20E4, r27
			//Pid[0].PozRef = Pid[0].ActPoz = Pid[0].PositionBuffor = A;

						PORTD_OUT |= 3;
    29bc:	a4 e6       	ldi	r26, 0x64	; 100
    29be:	b6 e0       	ldi	r27, 0x06	; 6
    29c0:	e4 e6       	ldi	r30, 0x64	; 100
    29c2:	f6 e0       	ldi	r31, 0x06	; 6
    29c4:	80 81       	ld	r24, Z
    29c6:	83 60       	ori	r24, 0x03	; 3
    29c8:	8c 93       	st	X, r24
			USART_send_int(&USARTC1,333);
    29ca:	80 eb       	ldi	r24, 0xB0	; 176
    29cc:	98 e0       	ldi	r25, 0x08	; 8
    29ce:	6d e4       	ldi	r22, 0x4D	; 77
    29d0:	71 e0       	ldi	r23, 0x01	; 1
    29d2:	0e 94 4d 20 	call	0x409a	; 0x409a <USART_send_int>
			Zezwolenie1 = 1;
    29d6:	81 e0       	ldi	r24, 0x01	; 1
    29d8:	80 93 df 20 	sts	0x20DF, r24
    29dc:	44 c0       	rjmp	.+136    	; 0x2a66 <Onlinecontrol+0x148>
		}
	}
	else if (index == 1)
    29de:	89 81       	ldd	r24, Y+1	; 0x01
    29e0:	81 30       	cpi	r24, 0x01	; 1
    29e2:	09 f0       	breq	.+2      	; 0x29e6 <Onlinecontrol+0xc8>
    29e4:	40 c0       	rjmp	.+128    	; 0x2a66 <Onlinecontrol+0x148>
		{
			if (button == 1)
    29e6:	8a 81       	ldd	r24, Y+2	; 0x02
    29e8:	81 30       	cpi	r24, 0x01	; 1
    29ea:	79 f4       	brne	.+30     	; 0x2a0a <Onlinecontrol+0xec>
			{
			//	Zezwolenie2 = 2;
				//TCE0.CCB = 1000;
				PORTD_OUT &= ~8;
    29ec:	a4 e6       	ldi	r26, 0x64	; 100
    29ee:	b6 e0       	ldi	r27, 0x06	; 6
    29f0:	e4 e6       	ldi	r30, 0x64	; 100
    29f2:	f6 e0       	ldi	r31, 0x06	; 6
    29f4:	80 81       	ld	r24, Z
    29f6:	87 7f       	andi	r24, 0xF7	; 247
    29f8:	8c 93       	st	X, r24
				PORTD_OUT |= 4;
    29fa:	a4 e6       	ldi	r26, 0x64	; 100
    29fc:	b6 e0       	ldi	r27, 0x06	; 6
    29fe:	e4 e6       	ldi	r30, 0x64	; 100
    2a00:	f6 e0       	ldi	r31, 0x06	; 6
    2a02:	80 81       	ld	r24, Z
    2a04:	84 60       	ori	r24, 0x04	; 4
    2a06:	8c 93       	st	X, r24
    2a08:	2e c0       	rjmp	.+92     	; 0x2a66 <Onlinecontrol+0x148>
				//Pid[1].PozRef = B + Pid[1].OnlineSpeed;
				//Pid[1].PositionBuffor = Pid[1].ActPoz;
			}
			else if (button == 2)
    2a0a:	8a 81       	ldd	r24, Y+2	; 0x02
    2a0c:	82 30       	cpi	r24, 0x02	; 2
    2a0e:	79 f4       	brne	.+30     	; 0x2a2e <Onlinecontrol+0x110>
			{
				//Zezwolenie2 = 2;
				//TCE0.CCB = 1000;
				PORTD_OUT &= ~4;
    2a10:	a4 e6       	ldi	r26, 0x64	; 100
    2a12:	b6 e0       	ldi	r27, 0x06	; 6
    2a14:	e4 e6       	ldi	r30, 0x64	; 100
    2a16:	f6 e0       	ldi	r31, 0x06	; 6
    2a18:	80 81       	ld	r24, Z
    2a1a:	8b 7f       	andi	r24, 0xFB	; 251
    2a1c:	8c 93       	st	X, r24
				PORTD_OUT |= 8;
    2a1e:	a4 e6       	ldi	r26, 0x64	; 100
    2a20:	b6 e0       	ldi	r27, 0x06	; 6
    2a22:	e4 e6       	ldi	r30, 0x64	; 100
    2a24:	f6 e0       	ldi	r31, 0x06	; 6
    2a26:	80 81       	ld	r24, Z
    2a28:	88 60       	ori	r24, 0x08	; 8
    2a2a:	8c 93       	st	X, r24
    2a2c:	1c c0       	rjmp	.+56     	; 0x2a66 <Onlinecontrol+0x148>
				//Pid[1].PozRef = B - Pid[1].OnlineSpeed;
				//Pid[1].PositionBuffor = Pid[1].ActPoz;
			}
			else if (button == 3)
    2a2e:	8a 81       	ldd	r24, Y+2	; 0x02
    2a30:	83 30       	cpi	r24, 0x03	; 3
    2a32:	c9 f4       	brne	.+50     	; 0x2a66 <Onlinecontrol+0x148>
			{
				PozRef2 = B;// Pid[1].PositionBuffor;
    2a34:	80 91 23 21 	lds	r24, 0x2123
    2a38:	90 91 24 21 	lds	r25, 0x2124
    2a3c:	cc 01       	movw	r24, r24
    2a3e:	a0 e0       	ldi	r26, 0x00	; 0
    2a40:	b0 e0       	ldi	r27, 0x00	; 0
    2a42:	80 93 01 21 	sts	0x2101, r24
    2a46:	90 93 02 21 	sts	0x2102, r25
    2a4a:	a0 93 03 21 	sts	0x2103, r26
    2a4e:	b0 93 04 21 	sts	0x2104, r27
				//Pid[1].PozRef = Pid[1].ActPoz = Pid[1].PositionBuffor = B;
				PORTD_OUT |= 12;
    2a52:	a4 e6       	ldi	r26, 0x64	; 100
    2a54:	b6 e0       	ldi	r27, 0x06	; 6
    2a56:	e4 e6       	ldi	r30, 0x64	; 100
    2a58:	f6 e0       	ldi	r31, 0x06	; 6
    2a5a:	80 81       	ld	r24, Z
    2a5c:	8c 60       	ori	r24, 0x0C	; 12
    2a5e:	8c 93       	st	X, r24
				Zezwolenie2 = 1;
    2a60:	81 e0       	ldi	r24, 0x01	; 1
    2a62:	80 93 e0 20 	sts	0x20E0, r24
		else if (button == 3)
		{
			M7Stop;
		}
	}*/
}
    2a66:	0f 90       	pop	r0
    2a68:	0f 90       	pop	r0
    2a6a:	cf 91       	pop	r28
    2a6c:	df 91       	pop	r29
    2a6e:	08 95       	ret

00002a70 <GetCommand>:
extern volatile uint16_t A,B,C,D,E,F;
extern PozRef1;
extern PozRef2;

uint16_t GetCommand(void)
{
    2a70:	df 93       	push	r29
    2a72:	cf 93       	push	r28
    2a74:	0f 92       	push	r0
    2a76:	0f 92       	push	r0
    2a78:	cd b7       	in	r28, 0x3d	; 61
    2a7a:	de b7       	in	r29, 0x3e	; 62
	static uint8_t indeks;
	if (indeks != buf_index)
    2a7c:	90 91 3c 21 	lds	r25, 0x213C
    2a80:	80 91 3f 21 	lds	r24, 0x213F
    2a84:	98 17       	cp	r25, r24
    2a86:	c1 f0       	breq	.+48     	; 0x2ab8 <GetCommand+0x48>
	{
		if (indeks == 40) indeks = 0;
    2a88:	80 91 3c 21 	lds	r24, 0x213C
    2a8c:	88 32       	cpi	r24, 0x28	; 40
    2a8e:	11 f4       	brne	.+4      	; 0x2a94 <GetCommand+0x24>
    2a90:	10 92 3c 21 	sts	0x213C, r1
		return usart_buffer[indeks++];
    2a94:	20 91 3c 21 	lds	r18, 0x213C
    2a98:	82 2f       	mov	r24, r18
    2a9a:	90 e0       	ldi	r25, 0x00	; 0
    2a9c:	88 0f       	add	r24, r24
    2a9e:	99 1f       	adc	r25, r25
    2aa0:	fc 01       	movw	r30, r24
    2aa2:	e4 53       	subi	r30, 0x34	; 52
    2aa4:	fe 4d       	sbci	r31, 0xDE	; 222
    2aa6:	80 81       	ld	r24, Z
    2aa8:	91 81       	ldd	r25, Z+1	; 0x01
    2aaa:	89 83       	std	Y+1, r24	; 0x01
    2aac:	9a 83       	std	Y+2, r25	; 0x02
    2aae:	82 2f       	mov	r24, r18
    2ab0:	8f 5f       	subi	r24, 0xFF	; 255
    2ab2:	80 93 3c 21 	sts	0x213C, r24
    2ab6:	02 c0       	rjmp	.+4      	; 0x2abc <GetCommand+0x4c>
	}
	return 0;
    2ab8:	19 82       	std	Y+1, r1	; 0x01
    2aba:	1a 82       	std	Y+2, r1	; 0x02
    2abc:	89 81       	ldd	r24, Y+1	; 0x01
    2abe:	9a 81       	ldd	r25, Y+2	; 0x02
}
    2ac0:	0f 90       	pop	r0
    2ac2:	0f 90       	pop	r0
    2ac4:	cf 91       	pop	r28
    2ac6:	df 91       	pop	r29
    2ac8:	08 95       	ret

00002aca <ExecuteCommand>:

void ExecuteCommand(void)
{
    2aca:	df 93       	push	r29
    2acc:	cf 93       	push	r28
    2ace:	cd b7       	in	r28, 0x3d	; 61
    2ad0:	de b7       	in	r29, 0x3e	; 62
    2ad2:	62 97       	sbiw	r28, 0x12	; 18
    2ad4:	cd bf       	out	0x3d, r28	; 61
    2ad6:	de bf       	out	0x3e, r29	; 62
	uint8_t i = 0, index = 0, kp = 0, ki = 0, kd = 0, PIDfinish = 0;
    2ad8:	1a 8a       	std	Y+18, r1	; 0x12
    2ada:	19 8a       	std	Y+17, r1	; 0x11
    2adc:	18 8a       	std	Y+16, r1	; 0x10
    2ade:	1f 86       	std	Y+15, r1	; 0x0f
    2ae0:	1e 86       	std	Y+14, r1	; 0x0e
    2ae2:	1d 86       	std	Y+13, r1	; 0x0d
	uint16_t maxerror = 0, maxerrori = 0 , maxerrord = 0, maxcv = 0, Deadband = 0, Data;
    2ae4:	1b 86       	std	Y+11, r1	; 0x0b
    2ae6:	1c 86       	std	Y+12, r1	; 0x0c
    2ae8:	19 86       	std	Y+9, r1	; 0x09
    2aea:	1a 86       	std	Y+10, r1	; 0x0a
    2aec:	1f 82       	std	Y+7, r1	; 0x07
    2aee:	18 86       	std	Y+8, r1	; 0x08
    2af0:	1d 82       	std	Y+5, r1	; 0x05
    2af2:	1e 82       	std	Y+6, r1	; 0x06
    2af4:	1b 82       	std	Y+3, r1	; 0x03
    2af6:	1c 82       	std	Y+4, r1	; 0x04
	uint16_t static Command;

	Data = GetCommand();
    2af8:	0e 94 38 15 	call	0x2a70	; 0x2a70 <GetCommand>
    2afc:	89 83       	std	Y+1, r24	; 0x01
    2afe:	9a 83       	std	Y+2, r25	; 0x02


	if (Data != 0)
    2b00:	89 81       	ldd	r24, Y+1	; 0x01
    2b02:	9a 81       	ldd	r25, Y+2	; 0x02
    2b04:	00 97       	sbiw	r24, 0x00	; 0
    2b06:	31 f0       	breq	.+12     	; 0x2b14 <ExecuteCommand+0x4a>
	{
		Command = Data;
    2b08:	89 81       	ldd	r24, Y+1	; 0x01
    2b0a:	9a 81       	ldd	r25, Y+2	; 0x02
    2b0c:	80 93 3d 21 	sts	0x213D, r24
    2b10:	90 93 3e 21 	sts	0x213E, r25
	//	LcdClear();
		//LcdDec(Command);
	}
	if (Command == 50001) /*Axis 1*/
    2b14:	80 91 3d 21 	lds	r24, 0x213D
    2b18:	90 91 3e 21 	lds	r25, 0x213E
    2b1c:	23 ec       	ldi	r18, 0xC3	; 195
    2b1e:	81 35       	cpi	r24, 0x51	; 81
    2b20:	92 07       	cpc	r25, r18
    2b22:	f9 f4       	brne	.+62     	; 0x2b62 <ExecuteCommand+0x98>
			{

			//Onlinecontrol(0,2);
		//	M3Left;
			USART_send_int(&USARTC1,10);
    2b24:	80 eb       	ldi	r24, 0xB0	; 176
    2b26:	98 e0       	ldi	r25, 0x08	; 8
    2b28:	6a e0       	ldi	r22, 0x0A	; 10
    2b2a:	70 e0       	ldi	r23, 0x00	; 0
    2b2c:	0e 94 4d 20 	call	0x409a	; 0x409a <USART_send_int>
			USART_send_int(&USARTC1,PORTD.OUT);
    2b30:	e0 e6       	ldi	r30, 0x60	; 96
    2b32:	f6 e0       	ldi	r31, 0x06	; 6
    2b34:	84 81       	ldd	r24, Z+4	; 0x04
    2b36:	28 2f       	mov	r18, r24
    2b38:	30 e0       	ldi	r19, 0x00	; 0
    2b3a:	80 eb       	ldi	r24, 0xB0	; 176
    2b3c:	98 e0       	ldi	r25, 0x08	; 8
    2b3e:	b9 01       	movw	r22, r18
    2b40:	0e 94 4d 20 	call	0x409a	; 0x409a <USART_send_int>
			PozRef1 += 20;
    2b44:	80 91 e1 20 	lds	r24, 0x20E1
    2b48:	90 91 e2 20 	lds	r25, 0x20E2
    2b4c:	44 96       	adiw	r24, 0x14	; 20
    2b4e:	80 93 e1 20 	sts	0x20E1, r24
    2b52:	90 93 e2 20 	sts	0x20E2, r25
			Command = 0;
    2b56:	10 92 3d 21 	sts	0x213D, r1
    2b5a:	10 92 3e 21 	sts	0x213E, r1
			Data = 0;
    2b5e:	19 82       	std	Y+1, r1	; 0x01
    2b60:	1a 82       	std	Y+2, r1	; 0x02
			}
	if (Command == 50002)
    2b62:	80 91 3d 21 	lds	r24, 0x213D
    2b66:	90 91 3e 21 	lds	r25, 0x213E
    2b6a:	23 ec       	ldi	r18, 0xC3	; 195
    2b6c:	82 35       	cpi	r24, 0x52	; 82
    2b6e:	92 07       	cpc	r25, r18
    2b70:	b1 f4       	brne	.+44     	; 0x2b9e <ExecuteCommand+0xd4>
			{
			//Onlinecontrol(0,3);
		//	M3Stop;
			Command = 0;
    2b72:	10 92 3d 21 	sts	0x213D, r1
    2b76:	10 92 3e 21 	sts	0x213E, r1
			Data = 0;
    2b7a:	19 82       	std	Y+1, r1	; 0x01
    2b7c:	1a 82       	std	Y+2, r1	; 0x02
			USART_send_int(&USARTC1,11);
    2b7e:	80 eb       	ldi	r24, 0xB0	; 176
    2b80:	98 e0       	ldi	r25, 0x08	; 8
    2b82:	6b e0       	ldi	r22, 0x0B	; 11
    2b84:	70 e0       	ldi	r23, 0x00	; 0
    2b86:	0e 94 4d 20 	call	0x409a	; 0x409a <USART_send_int>
			USART_send_int(&USARTC1,PORTD.OUT);
    2b8a:	e0 e6       	ldi	r30, 0x60	; 96
    2b8c:	f6 e0       	ldi	r31, 0x06	; 6
    2b8e:	84 81       	ldd	r24, Z+4	; 0x04
    2b90:	28 2f       	mov	r18, r24
    2b92:	30 e0       	ldi	r19, 0x00	; 0
    2b94:	80 eb       	ldi	r24, 0xB0	; 176
    2b96:	98 e0       	ldi	r25, 0x08	; 8
    2b98:	b9 01       	movw	r22, r18
    2b9a:	0e 94 4d 20 	call	0x409a	; 0x409a <USART_send_int>
			}
	if (Command == 50003)
    2b9e:	80 91 3d 21 	lds	r24, 0x213D
    2ba2:	90 91 3e 21 	lds	r25, 0x213E
    2ba6:	23 ec       	ldi	r18, 0xC3	; 195
    2ba8:	83 35       	cpi	r24, 0x53	; 83
    2baa:	92 07       	cpc	r25, r18
    2bac:	f9 f4       	brne	.+62     	; 0x2bec <ExecuteCommand+0x122>
			{
			//Onlinecontrol(0,1);
			USART_send_int(&USARTC1,12);
    2bae:	80 eb       	ldi	r24, 0xB0	; 176
    2bb0:	98 e0       	ldi	r25, 0x08	; 8
    2bb2:	6c e0       	ldi	r22, 0x0C	; 12
    2bb4:	70 e0       	ldi	r23, 0x00	; 0
    2bb6:	0e 94 4d 20 	call	0x409a	; 0x409a <USART_send_int>
			USART_send_int(&USARTC1,PORTD.OUT);
    2bba:	e0 e6       	ldi	r30, 0x60	; 96
    2bbc:	f6 e0       	ldi	r31, 0x06	; 6
    2bbe:	84 81       	ldd	r24, Z+4	; 0x04
    2bc0:	28 2f       	mov	r18, r24
    2bc2:	30 e0       	ldi	r19, 0x00	; 0
    2bc4:	80 eb       	ldi	r24, 0xB0	; 176
    2bc6:	98 e0       	ldi	r25, 0x08	; 8
    2bc8:	b9 01       	movw	r22, r18
    2bca:	0e 94 4d 20 	call	0x409a	; 0x409a <USART_send_int>
			Command = 0;
    2bce:	10 92 3d 21 	sts	0x213D, r1
    2bd2:	10 92 3e 21 	sts	0x213E, r1
		//	M3Right;
			PozRef1 -= 20;
    2bd6:	80 91 e1 20 	lds	r24, 0x20E1
    2bda:	90 91 e2 20 	lds	r25, 0x20E2
    2bde:	44 97       	sbiw	r24, 0x14	; 20
    2be0:	80 93 e1 20 	sts	0x20E1, r24
    2be4:	90 93 e2 20 	sts	0x20E2, r25
			Data = 0;
    2be8:	19 82       	std	Y+1, r1	; 0x01
    2bea:	1a 82       	std	Y+2, r1	; 0x02

			}
	if (Command == 7001) /*Axis 2*/
    2bec:	80 91 3d 21 	lds	r24, 0x213D
    2bf0:	90 91 3e 21 	lds	r25, 0x213E
    2bf4:	2b e1       	ldi	r18, 0x1B	; 27
    2bf6:	89 35       	cpi	r24, 0x59	; 89
    2bf8:	92 07       	cpc	r25, r18
    2bfa:	f1 f4       	brne	.+60     	; 0x2c38 <ExecuteCommand+0x16e>
			{
			//Onlinecontrol(1,1);
			USART_send_int(&USARTC1,13);
    2bfc:	80 eb       	ldi	r24, 0xB0	; 176
    2bfe:	98 e0       	ldi	r25, 0x08	; 8
    2c00:	6d e0       	ldi	r22, 0x0D	; 13
    2c02:	70 e0       	ldi	r23, 0x00	; 0
    2c04:	0e 94 4d 20 	call	0x409a	; 0x409a <USART_send_int>
			USART_send_int(&USARTC1,PORTD.OUT);
    2c08:	e0 e6       	ldi	r30, 0x60	; 96
    2c0a:	f6 e0       	ldi	r31, 0x06	; 6
    2c0c:	84 81       	ldd	r24, Z+4	; 0x04
    2c0e:	28 2f       	mov	r18, r24
    2c10:	30 e0       	ldi	r19, 0x00	; 0
    2c12:	80 eb       	ldi	r24, 0xB0	; 176
    2c14:	98 e0       	ldi	r25, 0x08	; 8
    2c16:	b9 01       	movw	r22, r18
    2c18:	0e 94 4d 20 	call	0x409a	; 0x409a <USART_send_int>
			//PozRef2 -= 100;
			M2Left;
    2c1c:	e0 e6       	ldi	r30, 0x60	; 96
    2c1e:	f6 e0       	ldi	r31, 0x06	; 6
    2c20:	84 e0       	ldi	r24, 0x04	; 4
    2c22:	86 83       	std	Z+6, r24	; 0x06
    2c24:	e0 e6       	ldi	r30, 0x60	; 96
    2c26:	f6 e0       	ldi	r31, 0x06	; 6
    2c28:	88 e0       	ldi	r24, 0x08	; 8
    2c2a:	85 83       	std	Z+5, r24	; 0x05
			Command = 0;
    2c2c:	10 92 3d 21 	sts	0x213D, r1
    2c30:	10 92 3e 21 	sts	0x213E, r1
			Data = 0;
    2c34:	19 82       	std	Y+1, r1	; 0x01
    2c36:	1a 82       	std	Y+2, r1	; 0x02
			}
	if (Command == 7002)
    2c38:	80 91 3d 21 	lds	r24, 0x213D
    2c3c:	90 91 3e 21 	lds	r25, 0x213E
    2c40:	2b e1       	ldi	r18, 0x1B	; 27
    2c42:	8a 35       	cpi	r24, 0x5A	; 90
    2c44:	92 07       	cpc	r25, r18
    2c46:	f1 f4       	brne	.+60     	; 0x2c84 <ExecuteCommand+0x1ba>
			{
			//Onlinecontrol(1,3);
			Command = 0;
    2c48:	10 92 3d 21 	sts	0x213D, r1
    2c4c:	10 92 3e 21 	sts	0x213E, r1
			Data = 0;
    2c50:	19 82       	std	Y+1, r1	; 0x01
    2c52:	1a 82       	std	Y+2, r1	; 0x02
			M2Stop;
    2c54:	e0 e6       	ldi	r30, 0x60	; 96
    2c56:	f6 e0       	ldi	r31, 0x06	; 6
    2c58:	88 e0       	ldi	r24, 0x08	; 8
    2c5a:	85 83       	std	Z+5, r24	; 0x05
    2c5c:	e0 e6       	ldi	r30, 0x60	; 96
    2c5e:	f6 e0       	ldi	r31, 0x06	; 6
    2c60:	84 e0       	ldi	r24, 0x04	; 4
    2c62:	85 83       	std	Z+5, r24	; 0x05
			USART_send_int(&USARTC1,14);
    2c64:	80 eb       	ldi	r24, 0xB0	; 176
    2c66:	98 e0       	ldi	r25, 0x08	; 8
    2c68:	6e e0       	ldi	r22, 0x0E	; 14
    2c6a:	70 e0       	ldi	r23, 0x00	; 0
    2c6c:	0e 94 4d 20 	call	0x409a	; 0x409a <USART_send_int>
			USART_send_int(&USARTC1,PORTD.OUT);
    2c70:	e0 e6       	ldi	r30, 0x60	; 96
    2c72:	f6 e0       	ldi	r31, 0x06	; 6
    2c74:	84 81       	ldd	r24, Z+4	; 0x04
    2c76:	28 2f       	mov	r18, r24
    2c78:	30 e0       	ldi	r19, 0x00	; 0
    2c7a:	80 eb       	ldi	r24, 0xB0	; 176
    2c7c:	98 e0       	ldi	r25, 0x08	; 8
    2c7e:	b9 01       	movw	r22, r18
    2c80:	0e 94 4d 20 	call	0x409a	; 0x409a <USART_send_int>
			}
	if (Command == 7003)
    2c84:	80 91 3d 21 	lds	r24, 0x213D
    2c88:	90 91 3e 21 	lds	r25, 0x213E
    2c8c:	2b e1       	ldi	r18, 0x1B	; 27
    2c8e:	8b 35       	cpi	r24, 0x5B	; 91
    2c90:	92 07       	cpc	r25, r18
    2c92:	f1 f4       	brne	.+60     	; 0x2cd0 <ExecuteCommand+0x206>
			{
			//Onlinecontrol(1,2);
			//USART_send_int(&USARTC1,Pid[0].PozRef);
			USART_send_int(&USARTC1,15);
    2c94:	80 eb       	ldi	r24, 0xB0	; 176
    2c96:	98 e0       	ldi	r25, 0x08	; 8
    2c98:	6f e0       	ldi	r22, 0x0F	; 15
    2c9a:	70 e0       	ldi	r23, 0x00	; 0
    2c9c:	0e 94 4d 20 	call	0x409a	; 0x409a <USART_send_int>
			USART_send_int(&USARTC1,PORTD.OUT);
    2ca0:	e0 e6       	ldi	r30, 0x60	; 96
    2ca2:	f6 e0       	ldi	r31, 0x06	; 6
    2ca4:	84 81       	ldd	r24, Z+4	; 0x04
    2ca6:	28 2f       	mov	r18, r24
    2ca8:	30 e0       	ldi	r19, 0x00	; 0
    2caa:	80 eb       	ldi	r24, 0xB0	; 176
    2cac:	98 e0       	ldi	r25, 0x08	; 8
    2cae:	b9 01       	movw	r22, r18
    2cb0:	0e 94 4d 20 	call	0x409a	; 0x409a <USART_send_int>
			//PozRef2 += 100;
			M2Right;
    2cb4:	e0 e6       	ldi	r30, 0x60	; 96
    2cb6:	f6 e0       	ldi	r31, 0x06	; 6
    2cb8:	88 e0       	ldi	r24, 0x08	; 8
    2cba:	86 83       	std	Z+6, r24	; 0x06
    2cbc:	e0 e6       	ldi	r30, 0x60	; 96
    2cbe:	f6 e0       	ldi	r31, 0x06	; 6
    2cc0:	84 e0       	ldi	r24, 0x04	; 4
    2cc2:	85 83       	std	Z+5, r24	; 0x05
			Command = 0;
    2cc4:	10 92 3d 21 	sts	0x213D, r1
    2cc8:	10 92 3e 21 	sts	0x213E, r1
			Data = 0;
    2ccc:	19 82       	std	Y+1, r1	; 0x01
    2cce:	1a 82       	std	Y+2, r1	; 0x02
			}
	if (Command == 14001) /*Axis 3*/
    2cd0:	80 91 3d 21 	lds	r24, 0x213D
    2cd4:	90 91 3e 21 	lds	r25, 0x213E
    2cd8:	26 e3       	ldi	r18, 0x36	; 54
    2cda:	81 3b       	cpi	r24, 0xB1	; 177
    2cdc:	92 07       	cpc	r25, r18
    2cde:	29 f4       	brne	.+10     	; 0x2cea <ExecuteCommand+0x220>
			{
			Onlinecontrol(2,1);
    2ce0:	82 e0       	ldi	r24, 0x02	; 2
    2ce2:	61 e0       	ldi	r22, 0x01	; 1
    2ce4:	0e 94 8f 14 	call	0x291e	; 0x291e <Onlinecontrol>
    2ce8:	19 c0       	rjmp	.+50     	; 0x2d1c <ExecuteCommand+0x252>
			}
	else if (Command == 14002)
    2cea:	80 91 3d 21 	lds	r24, 0x213D
    2cee:	90 91 3e 21 	lds	r25, 0x213E
    2cf2:	26 e3       	ldi	r18, 0x36	; 54
    2cf4:	82 3b       	cpi	r24, 0xB2	; 178
    2cf6:	92 07       	cpc	r25, r18
    2cf8:	29 f4       	brne	.+10     	; 0x2d04 <ExecuteCommand+0x23a>
			{
			Onlinecontrol(2,3);
    2cfa:	82 e0       	ldi	r24, 0x02	; 2
    2cfc:	63 e0       	ldi	r22, 0x03	; 3
    2cfe:	0e 94 8f 14 	call	0x291e	; 0x291e <Onlinecontrol>
    2d02:	0c c0       	rjmp	.+24     	; 0x2d1c <ExecuteCommand+0x252>
			}
	else if (Command == 14003)
    2d04:	80 91 3d 21 	lds	r24, 0x213D
    2d08:	90 91 3e 21 	lds	r25, 0x213E
    2d0c:	26 e3       	ldi	r18, 0x36	; 54
    2d0e:	83 3b       	cpi	r24, 0xB3	; 179
    2d10:	92 07       	cpc	r25, r18
    2d12:	21 f4       	brne	.+8      	; 0x2d1c <ExecuteCommand+0x252>
			{
			Onlinecontrol(2,2);
    2d14:	82 e0       	ldi	r24, 0x02	; 2
    2d16:	62 e0       	ldi	r22, 0x02	; 2
    2d18:	0e 94 8f 14 	call	0x291e	; 0x291e <Onlinecontrol>
			}
	if (Command == 21001) /*Axis 4*/
    2d1c:	80 91 3d 21 	lds	r24, 0x213D
    2d20:	90 91 3e 21 	lds	r25, 0x213E
    2d24:	22 e5       	ldi	r18, 0x52	; 82
    2d26:	89 30       	cpi	r24, 0x09	; 9
    2d28:	92 07       	cpc	r25, r18
    2d2a:	21 f4       	brne	.+8      	; 0x2d34 <ExecuteCommand+0x26a>
			{
			Onlinecontrol(3,1);
    2d2c:	83 e0       	ldi	r24, 0x03	; 3
    2d2e:	61 e0       	ldi	r22, 0x01	; 1
    2d30:	0e 94 8f 14 	call	0x291e	; 0x291e <Onlinecontrol>
			}
	if (Command == 21002)
    2d34:	80 91 3d 21 	lds	r24, 0x213D
    2d38:	90 91 3e 21 	lds	r25, 0x213E
    2d3c:	22 e5       	ldi	r18, 0x52	; 82
    2d3e:	8a 30       	cpi	r24, 0x0A	; 10
    2d40:	92 07       	cpc	r25, r18
    2d42:	21 f4       	brne	.+8      	; 0x2d4c <ExecuteCommand+0x282>
			{
			Onlinecontrol(3,3);
    2d44:	83 e0       	ldi	r24, 0x03	; 3
    2d46:	63 e0       	ldi	r22, 0x03	; 3
    2d48:	0e 94 8f 14 	call	0x291e	; 0x291e <Onlinecontrol>
			}
	if (Command == 21003)
    2d4c:	80 91 3d 21 	lds	r24, 0x213D
    2d50:	90 91 3e 21 	lds	r25, 0x213E
    2d54:	22 e5       	ldi	r18, 0x52	; 82
    2d56:	8b 30       	cpi	r24, 0x0B	; 11
    2d58:	92 07       	cpc	r25, r18
    2d5a:	21 f4       	brne	.+8      	; 0x2d64 <ExecuteCommand+0x29a>
			{
			Onlinecontrol(3,2);
    2d5c:	83 e0       	ldi	r24, 0x03	; 3
    2d5e:	62 e0       	ldi	r22, 0x02	; 2
    2d60:	0e 94 8f 14 	call	0x291e	; 0x291e <Onlinecontrol>
			}
	if (Command == 28001) /*Axis 5*/
    2d64:	80 91 3d 21 	lds	r24, 0x213D
    2d68:	90 91 3e 21 	lds	r25, 0x213E
    2d6c:	2d e6       	ldi	r18, 0x6D	; 109
    2d6e:	81 36       	cpi	r24, 0x61	; 97
    2d70:	92 07       	cpc	r25, r18
    2d72:	21 f4       	brne	.+8      	; 0x2d7c <ExecuteCommand+0x2b2>
			{
			Onlinecontrol(4,1);
    2d74:	84 e0       	ldi	r24, 0x04	; 4
    2d76:	61 e0       	ldi	r22, 0x01	; 1
    2d78:	0e 94 8f 14 	call	0x291e	; 0x291e <Onlinecontrol>
			}
	if (Command == 28002)
    2d7c:	80 91 3d 21 	lds	r24, 0x213D
    2d80:	90 91 3e 21 	lds	r25, 0x213E
    2d84:	2d e6       	ldi	r18, 0x6D	; 109
    2d86:	82 36       	cpi	r24, 0x62	; 98
    2d88:	92 07       	cpc	r25, r18
    2d8a:	21 f4       	brne	.+8      	; 0x2d94 <ExecuteCommand+0x2ca>
			{
			Onlinecontrol(4,3);
    2d8c:	84 e0       	ldi	r24, 0x04	; 4
    2d8e:	63 e0       	ldi	r22, 0x03	; 3
    2d90:	0e 94 8f 14 	call	0x291e	; 0x291e <Onlinecontrol>
			}
	if (Command == 28003)
    2d94:	80 91 3d 21 	lds	r24, 0x213D
    2d98:	90 91 3e 21 	lds	r25, 0x213E
    2d9c:	2d e6       	ldi	r18, 0x6D	; 109
    2d9e:	83 36       	cpi	r24, 0x63	; 99
    2da0:	92 07       	cpc	r25, r18
    2da2:	21 f4       	brne	.+8      	; 0x2dac <ExecuteCommand+0x2e2>
			{
			Onlinecontrol(4,2);
    2da4:	84 e0       	ldi	r24, 0x04	; 4
    2da6:	62 e0       	ldi	r22, 0x02	; 2
    2da8:	0e 94 8f 14 	call	0x291e	; 0x291e <Onlinecontrol>
			}
	if (Command == 35001) /*Axis 6*/
    2dac:	80 91 3d 21 	lds	r24, 0x213D
    2db0:	90 91 3e 21 	lds	r25, 0x213E
    2db4:	28 e8       	ldi	r18, 0x88	; 136
    2db6:	89 3b       	cpi	r24, 0xB9	; 185
    2db8:	92 07       	cpc	r25, r18
    2dba:	21 f4       	brne	.+8      	; 0x2dc4 <ExecuteCommand+0x2fa>
			{
			Onlinecontrol(5,1);
    2dbc:	85 e0       	ldi	r24, 0x05	; 5
    2dbe:	61 e0       	ldi	r22, 0x01	; 1
    2dc0:	0e 94 8f 14 	call	0x291e	; 0x291e <Onlinecontrol>
			}
	if (Command == 35002)
    2dc4:	80 91 3d 21 	lds	r24, 0x213D
    2dc8:	90 91 3e 21 	lds	r25, 0x213E
    2dcc:	28 e8       	ldi	r18, 0x88	; 136
    2dce:	8a 3b       	cpi	r24, 0xBA	; 186
    2dd0:	92 07       	cpc	r25, r18
    2dd2:	21 f4       	brne	.+8      	; 0x2ddc <ExecuteCommand+0x312>
			{
			Onlinecontrol(5,3);
    2dd4:	85 e0       	ldi	r24, 0x05	; 5
    2dd6:	63 e0       	ldi	r22, 0x03	; 3
    2dd8:	0e 94 8f 14 	call	0x291e	; 0x291e <Onlinecontrol>
			}
	if (Command == 35003)
    2ddc:	80 91 3d 21 	lds	r24, 0x213D
    2de0:	90 91 3e 21 	lds	r25, 0x213E
    2de4:	28 e8       	ldi	r18, 0x88	; 136
    2de6:	8b 3b       	cpi	r24, 0xBB	; 187
    2de8:	92 07       	cpc	r25, r18
    2dea:	21 f4       	brne	.+8      	; 0x2df4 <ExecuteCommand+0x32a>
			{
			Onlinecontrol(5,2);
    2dec:	85 e0       	ldi	r24, 0x05	; 5
    2dee:	62 e0       	ldi	r22, 0x02	; 2
    2df0:	0e 94 8f 14 	call	0x291e	; 0x291e <Onlinecontrol>
			}
	if (Command == 48001) /*Griper*/
    2df4:	80 91 3d 21 	lds	r24, 0x213D
    2df8:	90 91 3e 21 	lds	r25, 0x213E
    2dfc:	2b eb       	ldi	r18, 0xBB	; 187
    2dfe:	81 38       	cpi	r24, 0x81	; 129
    2e00:	92 07       	cpc	r25, r18
    2e02:	21 f4       	brne	.+8      	; 0x2e0c <ExecuteCommand+0x342>
			{
			Onlinecontrol(6,1);
    2e04:	86 e0       	ldi	r24, 0x06	; 6
    2e06:	61 e0       	ldi	r22, 0x01	; 1
    2e08:	0e 94 8f 14 	call	0x291e	; 0x291e <Onlinecontrol>
			}
	if (Command == 48002)
    2e0c:	80 91 3d 21 	lds	r24, 0x213D
    2e10:	90 91 3e 21 	lds	r25, 0x213E
    2e14:	2b eb       	ldi	r18, 0xBB	; 187
    2e16:	82 38       	cpi	r24, 0x82	; 130
    2e18:	92 07       	cpc	r25, r18
    2e1a:	21 f4       	brne	.+8      	; 0x2e24 <ExecuteCommand+0x35a>
			{
			Onlinecontrol(6,2);
    2e1c:	86 e0       	ldi	r24, 0x06	; 6
    2e1e:	62 e0       	ldi	r22, 0x02	; 2
    2e20:	0e 94 8f 14 	call	0x291e	; 0x291e <Onlinecontrol>
			}
	if (Command == 48003)
    2e24:	80 91 3d 21 	lds	r24, 0x213D
    2e28:	90 91 3e 21 	lds	r25, 0x213E
    2e2c:	2b eb       	ldi	r18, 0xBB	; 187
    2e2e:	83 38       	cpi	r24, 0x83	; 131
    2e30:	92 07       	cpc	r25, r18
    2e32:	21 f4       	brne	.+8      	; 0x2e3c <ExecuteCommand+0x372>
			{
			Onlinecontrol(6,3);
    2e34:	86 e0       	ldi	r24, 0x06	; 6
    2e36:	63 e0       	ldi	r22, 0x03	; 3
    2e38:	0e 94 8f 14 	call	0x291e	; 0x291e <Onlinecontrol>
			}
	if (Command > 3 && Command < 7000) /*Position setup*/
    2e3c:	80 91 3d 21 	lds	r24, 0x213D
    2e40:	90 91 3e 21 	lds	r25, 0x213E
    2e44:	84 30       	cpi	r24, 0x04	; 4
    2e46:	91 05       	cpc	r25, r1
    2e48:	80 f0       	brcs	.+32     	; 0x2e6a <ExecuteCommand+0x3a0>
    2e4a:	80 91 3d 21 	lds	r24, 0x213D
    2e4e:	90 91 3e 21 	lds	r25, 0x213E
    2e52:	2b e1       	ldi	r18, 0x1B	; 27
    2e54:	88 35       	cpi	r24, 0x58	; 88
    2e56:	92 07       	cpc	r25, r18
    2e58:	40 f4       	brcc	.+16     	; 0x2e6a <ExecuteCommand+0x3a0>
			{
			PozRef1 = Command;
    2e5a:	80 91 3d 21 	lds	r24, 0x213D
    2e5e:	90 91 3e 21 	lds	r25, 0x213E
    2e62:	80 93 e1 20 	sts	0x20E1, r24
    2e66:	90 93 e2 20 	sts	0x20E2, r25
			}
	if (Command > 7003 && Command < 14000 )
    2e6a:	80 91 3d 21 	lds	r24, 0x213D
    2e6e:	90 91 3e 21 	lds	r25, 0x213E
    2e72:	2b e1       	ldi	r18, 0x1B	; 27
    2e74:	8c 35       	cpi	r24, 0x5C	; 92
    2e76:	92 07       	cpc	r25, r18
    2e78:	90 f0       	brcs	.+36     	; 0x2e9e <ExecuteCommand+0x3d4>
    2e7a:	80 91 3d 21 	lds	r24, 0x213D
    2e7e:	90 91 3e 21 	lds	r25, 0x213E
    2e82:	26 e3       	ldi	r18, 0x36	; 54
    2e84:	80 3b       	cpi	r24, 0xB0	; 176
    2e86:	92 07       	cpc	r25, r18
    2e88:	50 f4       	brcc	.+20     	; 0x2e9e <ExecuteCommand+0x3d4>
			{
			PozRef2 = Command - 7000;
    2e8a:	80 91 3d 21 	lds	r24, 0x213D
    2e8e:	90 91 3e 21 	lds	r25, 0x213E
    2e92:	88 55       	subi	r24, 0x58	; 88
    2e94:	9b 41       	sbci	r25, 0x1B	; 27
    2e96:	80 93 01 21 	sts	0x2101, r24
    2e9a:	90 93 02 21 	sts	0x2102, r25
					//	PIDParameters(index, kp, ki, kd, maxerror, maxerrori , maxerrord, maxcv, Deadband);
					}
				}while (PIDfinish == 1); */
		//	}}
//	Data = 0;
}
    2e9e:	62 96       	adiw	r28, 0x12	; 18
    2ea0:	cd bf       	out	0x3d, r28	; 61
    2ea2:	de bf       	out	0x3e, r29	; 62
    2ea4:	cf 91       	pop	r28
    2ea6:	df 91       	pop	r29
    2ea8:	08 95       	ret

00002eaa <_lcd_OutNibble>:
//-------------------------------------------------------------------------------------------------

#include "hd44780.h"
#include <avr/pgmspace.h>

void _lcd_OutNibble(unsigned char nibbleToWrite) {
    2eaa:	df 93       	push	r29
    2eac:	cf 93       	push	r28
    2eae:	0f 92       	push	r0
    2eb0:	cd b7       	in	r28, 0x3d	; 61
    2eb2:	de b7       	in	r29, 0x3e	; 62
    2eb4:	89 83       	std	Y+1, r24	; 0x01
	if(nibbleToWrite & 0b00000001)
    2eb6:	89 81       	ldd	r24, Y+1	; 0x01
    2eb8:	88 2f       	mov	r24, r24
    2eba:	90 e0       	ldi	r25, 0x00	; 0
    2ebc:	81 70       	andi	r24, 0x01	; 1
    2ebe:	90 70       	andi	r25, 0x00	; 0
    2ec0:	88 23       	and	r24, r24
    2ec2:	29 f0       	breq	.+10     	; 0x2ece <_lcd_OutNibble+0x24>
		LCD_PORT.OUTSET = LCD_D4_bm;
    2ec4:	e0 e2       	ldi	r30, 0x20	; 32
    2ec6:	f7 e0       	ldi	r31, 0x07	; 7
    2ec8:	88 e0       	ldi	r24, 0x08	; 8
    2eca:	85 83       	std	Z+5, r24	; 0x05
    2ecc:	04 c0       	rjmp	.+8      	; 0x2ed6 <_lcd_OutNibble+0x2c>
	else
		LCD_PORT.OUTCLR = LCD_D4_bm;
    2ece:	e0 e2       	ldi	r30, 0x20	; 32
    2ed0:	f7 e0       	ldi	r31, 0x07	; 7
    2ed2:	88 e0       	ldi	r24, 0x08	; 8
    2ed4:	86 83       	std	Z+6, r24	; 0x06

	if(nibbleToWrite & 0b00000010)
    2ed6:	89 81       	ldd	r24, Y+1	; 0x01
    2ed8:	88 2f       	mov	r24, r24
    2eda:	90 e0       	ldi	r25, 0x00	; 0
    2edc:	82 70       	andi	r24, 0x02	; 2
    2ede:	90 70       	andi	r25, 0x00	; 0
    2ee0:	00 97       	sbiw	r24, 0x00	; 0
    2ee2:	29 f0       	breq	.+10     	; 0x2eee <_lcd_OutNibble+0x44>
		LCD_PORT.OUTSET = LCD_D5_bm;
    2ee4:	e0 e2       	ldi	r30, 0x20	; 32
    2ee6:	f7 e0       	ldi	r31, 0x07	; 7
    2ee8:	84 e0       	ldi	r24, 0x04	; 4
    2eea:	85 83       	std	Z+5, r24	; 0x05
    2eec:	04 c0       	rjmp	.+8      	; 0x2ef6 <_lcd_OutNibble+0x4c>
	else
		LCD_PORT.OUTCLR = LCD_D5_bm;
    2eee:	e0 e2       	ldi	r30, 0x20	; 32
    2ef0:	f7 e0       	ldi	r31, 0x07	; 7
    2ef2:	84 e0       	ldi	r24, 0x04	; 4
    2ef4:	86 83       	std	Z+6, r24	; 0x06

	if(nibbleToWrite & 0b00000100)
    2ef6:	89 81       	ldd	r24, Y+1	; 0x01
    2ef8:	88 2f       	mov	r24, r24
    2efa:	90 e0       	ldi	r25, 0x00	; 0
    2efc:	84 70       	andi	r24, 0x04	; 4
    2efe:	90 70       	andi	r25, 0x00	; 0
    2f00:	00 97       	sbiw	r24, 0x00	; 0
    2f02:	29 f0       	breq	.+10     	; 0x2f0e <_lcd_OutNibble+0x64>
		LCD_PORT.OUTSET = LCD_D6_bm;
    2f04:	e0 e2       	ldi	r30, 0x20	; 32
    2f06:	f7 e0       	ldi	r31, 0x07	; 7
    2f08:	82 e0       	ldi	r24, 0x02	; 2
    2f0a:	85 83       	std	Z+5, r24	; 0x05
    2f0c:	04 c0       	rjmp	.+8      	; 0x2f16 <_lcd_OutNibble+0x6c>
	else
		LCD_PORT.OUTCLR = LCD_D6_bm;
    2f0e:	e0 e2       	ldi	r30, 0x20	; 32
    2f10:	f7 e0       	ldi	r31, 0x07	; 7
    2f12:	82 e0       	ldi	r24, 0x02	; 2
    2f14:	86 83       	std	Z+6, r24	; 0x06

	if(nibbleToWrite & 0b00001000)
    2f16:	89 81       	ldd	r24, Y+1	; 0x01
    2f18:	88 2f       	mov	r24, r24
    2f1a:	90 e0       	ldi	r25, 0x00	; 0
    2f1c:	88 70       	andi	r24, 0x08	; 8
    2f1e:	90 70       	andi	r25, 0x00	; 0
    2f20:	00 97       	sbiw	r24, 0x00	; 0
    2f22:	29 f0       	breq	.+10     	; 0x2f2e <_lcd_OutNibble+0x84>
		LCD_PORT.OUTSET = LCD_D7_bm;
    2f24:	e0 e2       	ldi	r30, 0x20	; 32
    2f26:	f7 e0       	ldi	r31, 0x07	; 7
    2f28:	81 e0       	ldi	r24, 0x01	; 1
    2f2a:	85 83       	std	Z+5, r24	; 0x05
    2f2c:	04 c0       	rjmp	.+8      	; 0x2f36 <_lcd_OutNibble+0x8c>
	else
		LCD_PORT.OUTCLR = LCD_D7_bm;
    2f2e:	e0 e2       	ldi	r30, 0x20	; 32
    2f30:	f7 e0       	ldi	r31, 0x07	; 7
    2f32:	81 e0       	ldi	r24, 0x01	; 1
    2f34:	86 83       	std	Z+6, r24	; 0x06
}
    2f36:	0f 90       	pop	r0
    2f38:	cf 91       	pop	r28
    2f3a:	df 91       	pop	r29
    2f3c:	08 95       	ret

00002f3e <_lcd_Write>:

void _lcd_Write(unsigned char dataToWrite) {
    2f3e:	df 93       	push	r29
    2f40:	cf 93       	push	r28
    2f42:	cd b7       	in	r28, 0x3d	; 61
    2f44:	de b7       	in	r29, 0x3e	; 62
    2f46:	69 97       	sbiw	r28, 0x19	; 25
    2f48:	cd bf       	out	0x3d, r28	; 61
    2f4a:	de bf       	out	0x3e, r29	; 62
    2f4c:	89 8f       	std	Y+25, r24	; 0x19
	LCD_PORT.OUTSET = LCD_E_bm;
    2f4e:	e0 e2       	ldi	r30, 0x20	; 32
    2f50:	f7 e0       	ldi	r31, 0x07	; 7
    2f52:	80 e1       	ldi	r24, 0x10	; 16
    2f54:	85 83       	std	Z+5, r24	; 0x05
	_lcd_OutNibble(dataToWrite >> 4);
    2f56:	89 8d       	ldd	r24, Y+25	; 0x19
    2f58:	82 95       	swap	r24
    2f5a:	8f 70       	andi	r24, 0x0F	; 15
    2f5c:	0e 94 55 17 	call	0x2eaa	; 0x2eaa <_lcd_OutNibble>
	LCD_PORT.OUTCLR = LCD_E_bm;
    2f60:	e0 e2       	ldi	r30, 0x20	; 32
    2f62:	f7 e0       	ldi	r31, 0x07	; 7
    2f64:	80 e1       	ldi	r24, 0x10	; 16
    2f66:	86 83       	std	Z+6, r24	; 0x06
 	asm volatile("nop");
    2f68:	00 00       	nop
	LCD_PORT.OUTSET = LCD_E_bm;
    2f6a:	e0 e2       	ldi	r30, 0x20	; 32
    2f6c:	f7 e0       	ldi	r31, 0x07	; 7
    2f6e:	80 e1       	ldi	r24, 0x10	; 16
    2f70:	85 83       	std	Z+5, r24	; 0x05
	_lcd_OutNibble(dataToWrite);
    2f72:	89 8d       	ldd	r24, Y+25	; 0x19
    2f74:	0e 94 55 17 	call	0x2eaa	; 0x2eaa <_lcd_OutNibble>
	LCD_PORT.OUTCLR = LCD_E_bm;
    2f78:	e0 e2       	ldi	r30, 0x20	; 32
    2f7a:	f7 e0       	ldi	r31, 0x07	; 7
    2f7c:	80 e1       	ldi	r24, 0x10	; 16
    2f7e:	86 83       	std	Z+6, r24	; 0x06
    2f80:	80 e0       	ldi	r24, 0x00	; 0
    2f82:	90 e0       	ldi	r25, 0x00	; 0
    2f84:	a8 e4       	ldi	r26, 0x48	; 72
    2f86:	b2 e4       	ldi	r27, 0x42	; 66
    2f88:	8d 8b       	std	Y+21, r24	; 0x15
    2f8a:	9e 8b       	std	Y+22, r25	; 0x16
    2f8c:	af 8b       	std	Y+23, r26	; 0x17
    2f8e:	b8 8f       	std	Y+24, r27	; 0x18
 */
void
_delay_us(double __us)
{
	uint8_t __ticks;
	double __tmp = ((F_CPU) / 3e6) * __us;
    2f90:	6d 89       	ldd	r22, Y+21	; 0x15
    2f92:	7e 89       	ldd	r23, Y+22	; 0x16
    2f94:	8f 89       	ldd	r24, Y+23	; 0x17
    2f96:	98 8d       	ldd	r25, Y+24	; 0x18
    2f98:	2b ea       	ldi	r18, 0xAB	; 171
    2f9a:	3a ea       	ldi	r19, 0xAA	; 170
    2f9c:	4a e2       	ldi	r20, 0x2A	; 42
    2f9e:	51 e4       	ldi	r21, 0x41	; 65
    2fa0:	0e 94 b6 22 	call	0x456c	; 0x456c <__mulsf3>
    2fa4:	dc 01       	movw	r26, r24
    2fa6:	cb 01       	movw	r24, r22
    2fa8:	89 8b       	std	Y+17, r24	; 0x11
    2faa:	9a 8b       	std	Y+18, r25	; 0x12
    2fac:	ab 8b       	std	Y+19, r26	; 0x13
    2fae:	bc 8b       	std	Y+20, r27	; 0x14
	if (__tmp < 1.0)
    2fb0:	69 89       	ldd	r22, Y+17	; 0x11
    2fb2:	7a 89       	ldd	r23, Y+18	; 0x12
    2fb4:	8b 89       	ldd	r24, Y+19	; 0x13
    2fb6:	9c 89       	ldd	r25, Y+20	; 0x14
    2fb8:	20 e0       	ldi	r18, 0x00	; 0
    2fba:	30 e0       	ldi	r19, 0x00	; 0
    2fbc:	40 e8       	ldi	r20, 0x80	; 128
    2fbe:	5f e3       	ldi	r21, 0x3F	; 63
    2fc0:	0e 94 bc 24 	call	0x4978	; 0x4978 <__ltsf2>
    2fc4:	88 23       	and	r24, r24
    2fc6:	1c f4       	brge	.+6      	; 0x2fce <_lcd_Write+0x90>
		__ticks = 1;
    2fc8:	81 e0       	ldi	r24, 0x01	; 1
    2fca:	88 8b       	std	Y+16, r24	; 0x10
    2fcc:	91 c0       	rjmp	.+290    	; 0x30f0 <_lcd_Write+0x1b2>
	else if (__tmp > 255)
    2fce:	69 89       	ldd	r22, Y+17	; 0x11
    2fd0:	7a 89       	ldd	r23, Y+18	; 0x12
    2fd2:	8b 89       	ldd	r24, Y+19	; 0x13
    2fd4:	9c 89       	ldd	r25, Y+20	; 0x14
    2fd6:	20 e0       	ldi	r18, 0x00	; 0
    2fd8:	30 e0       	ldi	r19, 0x00	; 0
    2fda:	4f e7       	ldi	r20, 0x7F	; 127
    2fdc:	53 e4       	ldi	r21, 0x43	; 67
    2fde:	0e 94 5c 24 	call	0x48b8	; 0x48b8 <__gtsf2>
    2fe2:	18 16       	cp	r1, r24
    2fe4:	0c f0       	brlt	.+2      	; 0x2fe8 <_lcd_Write+0xaa>
    2fe6:	7b c0       	rjmp	.+246    	; 0x30de <_lcd_Write+0x1a0>
	{
		_delay_ms(__us / 1000.0);
    2fe8:	6d 89       	ldd	r22, Y+21	; 0x15
    2fea:	7e 89       	ldd	r23, Y+22	; 0x16
    2fec:	8f 89       	ldd	r24, Y+23	; 0x17
    2fee:	98 8d       	ldd	r25, Y+24	; 0x18
    2ff0:	20 e0       	ldi	r18, 0x00	; 0
    2ff2:	30 e0       	ldi	r19, 0x00	; 0
    2ff4:	4a e7       	ldi	r20, 0x7A	; 122
    2ff6:	54 e4       	ldi	r21, 0x44	; 68
    2ff8:	0e 94 b0 23 	call	0x4760	; 0x4760 <__divsf3>
    2ffc:	dc 01       	movw	r26, r24
    2ffe:	cb 01       	movw	r24, r22
    3000:	8c 87       	std	Y+12, r24	; 0x0c
    3002:	9d 87       	std	Y+13, r25	; 0x0d
    3004:	ae 87       	std	Y+14, r26	; 0x0e
    3006:	bf 87       	std	Y+15, r27	; 0x0f
 */
void
_delay_ms(double __ms)
{
	uint16_t __ticks;
	double __tmp = ((F_CPU) / 4e3) * __ms;
    3008:	6c 85       	ldd	r22, Y+12	; 0x0c
    300a:	7d 85       	ldd	r23, Y+13	; 0x0d
    300c:	8e 85       	ldd	r24, Y+14	; 0x0e
    300e:	9f 85       	ldd	r25, Y+15	; 0x0f
    3010:	20 e0       	ldi	r18, 0x00	; 0
    3012:	30 e0       	ldi	r19, 0x00	; 0
    3014:	4a ef       	ldi	r20, 0xFA	; 250
    3016:	55 e4       	ldi	r21, 0x45	; 69
    3018:	0e 94 b6 22 	call	0x456c	; 0x456c <__mulsf3>
    301c:	dc 01       	movw	r26, r24
    301e:	cb 01       	movw	r24, r22
    3020:	88 87       	std	Y+8, r24	; 0x08
    3022:	99 87       	std	Y+9, r25	; 0x09
    3024:	aa 87       	std	Y+10, r26	; 0x0a
    3026:	bb 87       	std	Y+11, r27	; 0x0b
	if (__tmp < 1.0)
    3028:	68 85       	ldd	r22, Y+8	; 0x08
    302a:	79 85       	ldd	r23, Y+9	; 0x09
    302c:	8a 85       	ldd	r24, Y+10	; 0x0a
    302e:	9b 85       	ldd	r25, Y+11	; 0x0b
    3030:	20 e0       	ldi	r18, 0x00	; 0
    3032:	30 e0       	ldi	r19, 0x00	; 0
    3034:	40 e8       	ldi	r20, 0x80	; 128
    3036:	5f e3       	ldi	r21, 0x3F	; 63
    3038:	0e 94 bc 24 	call	0x4978	; 0x4978 <__ltsf2>
    303c:	88 23       	and	r24, r24
    303e:	2c f4       	brge	.+10     	; 0x304a <_lcd_Write+0x10c>
		__ticks = 1;
    3040:	81 e0       	ldi	r24, 0x01	; 1
    3042:	90 e0       	ldi	r25, 0x00	; 0
    3044:	8e 83       	std	Y+6, r24	; 0x06
    3046:	9f 83       	std	Y+7, r25	; 0x07
    3048:	3f c0       	rjmp	.+126    	; 0x30c8 <_lcd_Write+0x18a>
	else if (__tmp > 65535)
    304a:	68 85       	ldd	r22, Y+8	; 0x08
    304c:	79 85       	ldd	r23, Y+9	; 0x09
    304e:	8a 85       	ldd	r24, Y+10	; 0x0a
    3050:	9b 85       	ldd	r25, Y+11	; 0x0b
    3052:	20 e0       	ldi	r18, 0x00	; 0
    3054:	3f ef       	ldi	r19, 0xFF	; 255
    3056:	4f e7       	ldi	r20, 0x7F	; 127
    3058:	57 e4       	ldi	r21, 0x47	; 71
    305a:	0e 94 5c 24 	call	0x48b8	; 0x48b8 <__gtsf2>
    305e:	18 16       	cp	r1, r24
    3060:	4c f5       	brge	.+82     	; 0x30b4 <_lcd_Write+0x176>
	{
		//	__ticks = requested delay in 1/10 ms
		__ticks = (uint16_t) (__ms * 10.0);
    3062:	6c 85       	ldd	r22, Y+12	; 0x0c
    3064:	7d 85       	ldd	r23, Y+13	; 0x0d
    3066:	8e 85       	ldd	r24, Y+14	; 0x0e
    3068:	9f 85       	ldd	r25, Y+15	; 0x0f
    306a:	20 e0       	ldi	r18, 0x00	; 0
    306c:	30 e0       	ldi	r19, 0x00	; 0
    306e:	40 e2       	ldi	r20, 0x20	; 32
    3070:	51 e4       	ldi	r21, 0x41	; 65
    3072:	0e 94 b6 22 	call	0x456c	; 0x456c <__mulsf3>
    3076:	dc 01       	movw	r26, r24
    3078:	cb 01       	movw	r24, r22
    307a:	bc 01       	movw	r22, r24
    307c:	cd 01       	movw	r24, r26
    307e:	0e 94 e0 20 	call	0x41c0	; 0x41c0 <__fixunssfsi>
    3082:	dc 01       	movw	r26, r24
    3084:	cb 01       	movw	r24, r22
    3086:	8e 83       	std	Y+6, r24	; 0x06
    3088:	9f 83       	std	Y+7, r25	; 0x07
    308a:	0f c0       	rjmp	.+30     	; 0x30aa <_lcd_Write+0x16c>
    308c:	80 e2       	ldi	r24, 0x20	; 32
    308e:	93 e0       	ldi	r25, 0x03	; 3
    3090:	8c 83       	std	Y+4, r24	; 0x04
    3092:	9d 83       	std	Y+5, r25	; 0x05
    3094:	8c 81       	ldd	r24, Y+4	; 0x04
    3096:	9d 81       	ldd	r25, Y+5	; 0x05
    3098:	01 97       	sbiw	r24, 0x01	; 1
    309a:	f1 f7       	brne	.-4      	; 0x3098 <_lcd_Write+0x15a>
    309c:	8c 83       	std	Y+4, r24	; 0x04
    309e:	9d 83       	std	Y+5, r25	; 0x05
		while(__ticks)
		{
			// wait 1/10 ms
			_delay_loop_2(((F_CPU) / 4e3) / 10);
			__ticks --;
    30a0:	8e 81       	ldd	r24, Y+6	; 0x06
    30a2:	9f 81       	ldd	r25, Y+7	; 0x07
    30a4:	01 97       	sbiw	r24, 0x01	; 1
    30a6:	8e 83       	std	Y+6, r24	; 0x06
    30a8:	9f 83       	std	Y+7, r25	; 0x07
		__ticks = 1;
	else if (__tmp > 65535)
	{
		//	__ticks = requested delay in 1/10 ms
		__ticks = (uint16_t) (__ms * 10.0);
		while(__ticks)
    30aa:	8e 81       	ldd	r24, Y+6	; 0x06
    30ac:	9f 81       	ldd	r25, Y+7	; 0x07
    30ae:	00 97       	sbiw	r24, 0x00	; 0
    30b0:	69 f7       	brne	.-38     	; 0x308c <_lcd_Write+0x14e>
    30b2:	24 c0       	rjmp	.+72     	; 0x30fc <_lcd_Write+0x1be>
			__ticks --;
		}
		return;
	}
	else
		__ticks = (uint16_t)__tmp;
    30b4:	68 85       	ldd	r22, Y+8	; 0x08
    30b6:	79 85       	ldd	r23, Y+9	; 0x09
    30b8:	8a 85       	ldd	r24, Y+10	; 0x0a
    30ba:	9b 85       	ldd	r25, Y+11	; 0x0b
    30bc:	0e 94 e0 20 	call	0x41c0	; 0x41c0 <__fixunssfsi>
    30c0:	dc 01       	movw	r26, r24
    30c2:	cb 01       	movw	r24, r22
    30c4:	8e 83       	std	Y+6, r24	; 0x06
    30c6:	9f 83       	std	Y+7, r25	; 0x07
    30c8:	8e 81       	ldd	r24, Y+6	; 0x06
    30ca:	9f 81       	ldd	r25, Y+7	; 0x07
    30cc:	8a 83       	std	Y+2, r24	; 0x02
    30ce:	9b 83       	std	Y+3, r25	; 0x03
    30d0:	8a 81       	ldd	r24, Y+2	; 0x02
    30d2:	9b 81       	ldd	r25, Y+3	; 0x03
    30d4:	01 97       	sbiw	r24, 0x01	; 1
    30d6:	f1 f7       	brne	.-4      	; 0x30d4 <_lcd_Write+0x196>
    30d8:	8a 83       	std	Y+2, r24	; 0x02
    30da:	9b 83       	std	Y+3, r25	; 0x03
    30dc:	0f c0       	rjmp	.+30     	; 0x30fc <_lcd_Write+0x1be>
	{
		_delay_ms(__us / 1000.0);
		return;
	}
	else
		__ticks = (uint8_t)__tmp;
    30de:	69 89       	ldd	r22, Y+17	; 0x11
    30e0:	7a 89       	ldd	r23, Y+18	; 0x12
    30e2:	8b 89       	ldd	r24, Y+19	; 0x13
    30e4:	9c 89       	ldd	r25, Y+20	; 0x14
    30e6:	0e 94 e0 20 	call	0x41c0	; 0x41c0 <__fixunssfsi>
    30ea:	dc 01       	movw	r26, r24
    30ec:	cb 01       	movw	r24, r22
    30ee:	88 8b       	std	Y+16, r24	; 0x10
    30f0:	88 89       	ldd	r24, Y+16	; 0x10
    30f2:	89 83       	std	Y+1, r24	; 0x01
    can be achieved.
*/
void
_delay_loop_1(uint8_t __count)
{
	__asm__ volatile (
    30f4:	89 81       	ldd	r24, Y+1	; 0x01
    30f6:	8a 95       	dec	r24
    30f8:	f1 f7       	brne	.-4      	; 0x30f6 <_lcd_Write+0x1b8>
    30fa:	89 83       	std	Y+1, r24	; 0x01
	_delay_us(50);
}
    30fc:	69 96       	adiw	r28, 0x19	; 25
    30fe:	cd bf       	out	0x3d, r28	; 61
    3100:	de bf       	out	0x3e, r29	; 62
    3102:	cf 91       	pop	r28
    3104:	df 91       	pop	r29
    3106:	08 95       	ret

00003108 <LcdCommand>:

void LcdCommand(unsigned char commandToWrite) {
    3108:	df 93       	push	r29
    310a:	cf 93       	push	r28
    310c:	0f 92       	push	r0
    310e:	cd b7       	in	r28, 0x3d	; 61
    3110:	de b7       	in	r29, 0x3e	; 62
    3112:	89 83       	std	Y+1, r24	; 0x01
	LCD_PORT.OUTCLR = LCD_RS_bm;
    3114:	e0 e2       	ldi	r30, 0x20	; 32
    3116:	f7 e0       	ldi	r31, 0x07	; 7
    3118:	80 e2       	ldi	r24, 0x20	; 32
    311a:	86 83       	std	Z+6, r24	; 0x06
	_lcd_Write(commandToWrite);
    311c:	89 81       	ldd	r24, Y+1	; 0x01
    311e:	0e 94 9f 17 	call	0x2f3e	; 0x2f3e <_lcd_Write>
}
    3122:	0f 90       	pop	r0
    3124:	cf 91       	pop	r28
    3126:	df 91       	pop	r29
    3128:	08 95       	ret

0000312a <LcdData>:

void LcdData(unsigned char dataToWrite) {
    312a:	df 93       	push	r29
    312c:	cf 93       	push	r28
    312e:	0f 92       	push	r0
    3130:	cd b7       	in	r28, 0x3d	; 61
    3132:	de b7       	in	r29, 0x3e	; 62
    3134:	89 83       	std	Y+1, r24	; 0x01
	LCD_PORT.OUTSET = LCD_RS_bm;
    3136:	e0 e2       	ldi	r30, 0x20	; 32
    3138:	f7 e0       	ldi	r31, 0x07	; 7
    313a:	80 e2       	ldi	r24, 0x20	; 32
    313c:	85 83       	std	Z+5, r24	; 0x05
	_lcd_Write(dataToWrite);
    313e:	89 81       	ldd	r24, Y+1	; 0x01
    3140:	0e 94 9f 17 	call	0x2f3e	; 0x2f3e <_lcd_Write>
}
    3144:	0f 90       	pop	r0
    3146:	cf 91       	pop	r28
    3148:	df 91       	pop	r29
    314a:	08 95       	ret

0000314c <LcdWrite>:

void LcdWrite(char * text) {
    314c:	df 93       	push	r29
    314e:	cf 93       	push	r28
    3150:	0f 92       	push	r0
    3152:	0f 92       	push	r0
    3154:	cd b7       	in	r28, 0x3d	; 61
    3156:	de b7       	in	r29, 0x3e	; 62
    3158:	89 83       	std	Y+1, r24	; 0x01
    315a:	9a 83       	std	Y+2, r25	; 0x02
    315c:	0b c0       	rjmp	.+22     	; 0x3174 <LcdWrite+0x28>
	while(*text) LcdData(*text++);
    315e:	e9 81       	ldd	r30, Y+1	; 0x01
    3160:	fa 81       	ldd	r31, Y+2	; 0x02
    3162:	20 81       	ld	r18, Z
    3164:	89 81       	ldd	r24, Y+1	; 0x01
    3166:	9a 81       	ldd	r25, Y+2	; 0x02
    3168:	01 96       	adiw	r24, 0x01	; 1
    316a:	89 83       	std	Y+1, r24	; 0x01
    316c:	9a 83       	std	Y+2, r25	; 0x02
    316e:	82 2f       	mov	r24, r18
    3170:	0e 94 95 18 	call	0x312a	; 0x312a <LcdData>
    3174:	e9 81       	ldd	r30, Y+1	; 0x01
    3176:	fa 81       	ldd	r31, Y+2	; 0x02
    3178:	80 81       	ld	r24, Z
    317a:	88 23       	and	r24, r24
    317c:	81 f7       	brne	.-32     	; 0x315e <LcdWrite+0x12>
}
    317e:	0f 90       	pop	r0
    3180:	0f 90       	pop	r0
    3182:	cf 91       	pop	r28
    3184:	df 91       	pop	r29
    3186:	08 95       	ret

00003188 <LcdWriteProgmem>:

void LcdWriteProgmem(const char * data) {
    3188:	df 93       	push	r29
    318a:	cf 93       	push	r28
    318c:	00 d0       	rcall	.+0      	; 0x318e <LcdWriteProgmem+0x6>
    318e:	00 d0       	rcall	.+0      	; 0x3190 <LcdWriteProgmem+0x8>
    3190:	cd b7       	in	r28, 0x3d	; 61
    3192:	de b7       	in	r29, 0x3e	; 62
    3194:	8d 83       	std	Y+5, r24	; 0x05
    3196:	9e 83       	std	Y+6, r25	; 0x06
    3198:	03 c0       	rjmp	.+6      	; 0x31a0 <LcdWriteProgmem+0x18>
	char bufor;
	while ((bufor = (char)pgm_read_byte(data++))) LcdData(bufor);
    319a:	8c 81       	ldd	r24, Y+4	; 0x04
    319c:	0e 94 95 18 	call	0x312a	; 0x312a <LcdData>
    31a0:	8d 81       	ldd	r24, Y+5	; 0x05
    31a2:	9e 81       	ldd	r25, Y+6	; 0x06
    31a4:	8a 83       	std	Y+2, r24	; 0x02
    31a6:	9b 83       	std	Y+3, r25	; 0x03
    31a8:	8d 81       	ldd	r24, Y+5	; 0x05
    31aa:	9e 81       	ldd	r25, Y+6	; 0x06
    31ac:	01 96       	adiw	r24, 0x01	; 1
    31ae:	8d 83       	std	Y+5, r24	; 0x05
    31b0:	9e 83       	std	Y+6, r25	; 0x06
    31b2:	ea 81       	ldd	r30, Y+2	; 0x02
    31b4:	fb 81       	ldd	r31, Y+3	; 0x03
    31b6:	84 91       	lpm	r24, Z+
    31b8:	89 83       	std	Y+1, r24	; 0x01
    31ba:	89 81       	ldd	r24, Y+1	; 0x01
    31bc:	8c 83       	std	Y+4, r24	; 0x04
    31be:	8c 81       	ldd	r24, Y+4	; 0x04
    31c0:	88 23       	and	r24, r24
    31c2:	59 f7       	brne	.-42     	; 0x319a <LcdWriteProgmem+0x12>
}
    31c4:	26 96       	adiw	r28, 0x06	; 6
    31c6:	cd bf       	out	0x3d, r28	; 61
    31c8:	de bf       	out	0x3e, r29	; 62
    31ca:	cf 91       	pop	r28
    31cc:	df 91       	pop	r29
    31ce:	08 95       	ret

000031d0 <LcdGoto>:

void LcdGoto(unsigned char x, unsigned char y) {
    31d0:	df 93       	push	r29
    31d2:	cf 93       	push	r28
    31d4:	0f 92       	push	r0
    31d6:	0f 92       	push	r0
    31d8:	cd b7       	in	r28, 0x3d	; 61
    31da:	de b7       	in	r29, 0x3e	; 62
    31dc:	89 83       	std	Y+1, r24	; 0x01
    31de:	6a 83       	std	Y+2, r22	; 0x02
	LcdCommand(HD44780_DDRAM_SET | (x + (0x40 * y)));
    31e0:	8a 81       	ldd	r24, Y+2	; 0x02
    31e2:	88 2f       	mov	r24, r24
    31e4:	90 e0       	ldi	r25, 0x00	; 0
    31e6:	00 24       	eor	r0, r0
    31e8:	96 95       	lsr	r25
    31ea:	87 95       	ror	r24
    31ec:	07 94       	ror	r0
    31ee:	96 95       	lsr	r25
    31f0:	87 95       	ror	r24
    31f2:	07 94       	ror	r0
    31f4:	98 2f       	mov	r25, r24
    31f6:	80 2d       	mov	r24, r0
    31f8:	98 2f       	mov	r25, r24
    31fa:	89 81       	ldd	r24, Y+1	; 0x01
    31fc:	89 0f       	add	r24, r25
    31fe:	80 68       	ori	r24, 0x80	; 128
    3200:	0e 94 84 18 	call	0x3108	; 0x3108 <LcdCommand>
}
    3204:	0f 90       	pop	r0
    3206:	0f 90       	pop	r0
    3208:	cf 91       	pop	r28
    320a:	df 91       	pop	r29
    320c:	08 95       	ret

0000320e <LcdClear>:

void LcdClear(void) {
    320e:	df 93       	push	r29
    3210:	cf 93       	push	r28
    3212:	cd b7       	in	r28, 0x3d	; 61
    3214:	de b7       	in	r29, 0x3e	; 62
    3216:	2e 97       	sbiw	r28, 0x0e	; 14
    3218:	cd bf       	out	0x3d, r28	; 61
    321a:	de bf       	out	0x3e, r29	; 62
	LcdCommand(HD44780_CLEAR);
    321c:	81 e0       	ldi	r24, 0x01	; 1
    321e:	0e 94 84 18 	call	0x3108	; 0x3108 <LcdCommand>
    3222:	80 e0       	ldi	r24, 0x00	; 0
    3224:	90 e0       	ldi	r25, 0x00	; 0
    3226:	a0 e0       	ldi	r26, 0x00	; 0
    3228:	b0 e4       	ldi	r27, 0x40	; 64
    322a:	8b 87       	std	Y+11, r24	; 0x0b
    322c:	9c 87       	std	Y+12, r25	; 0x0c
    322e:	ad 87       	std	Y+13, r26	; 0x0d
    3230:	be 87       	std	Y+14, r27	; 0x0e
 */
void
_delay_ms(double __ms)
{
	uint16_t __ticks;
	double __tmp = ((F_CPU) / 4e3) * __ms;
    3232:	6b 85       	ldd	r22, Y+11	; 0x0b
    3234:	7c 85       	ldd	r23, Y+12	; 0x0c
    3236:	8d 85       	ldd	r24, Y+13	; 0x0d
    3238:	9e 85       	ldd	r25, Y+14	; 0x0e
    323a:	20 e0       	ldi	r18, 0x00	; 0
    323c:	30 e0       	ldi	r19, 0x00	; 0
    323e:	4a ef       	ldi	r20, 0xFA	; 250
    3240:	55 e4       	ldi	r21, 0x45	; 69
    3242:	0e 94 b6 22 	call	0x456c	; 0x456c <__mulsf3>
    3246:	dc 01       	movw	r26, r24
    3248:	cb 01       	movw	r24, r22
    324a:	8f 83       	std	Y+7, r24	; 0x07
    324c:	98 87       	std	Y+8, r25	; 0x08
    324e:	a9 87       	std	Y+9, r26	; 0x09
    3250:	ba 87       	std	Y+10, r27	; 0x0a
	if (__tmp < 1.0)
    3252:	6f 81       	ldd	r22, Y+7	; 0x07
    3254:	78 85       	ldd	r23, Y+8	; 0x08
    3256:	89 85       	ldd	r24, Y+9	; 0x09
    3258:	9a 85       	ldd	r25, Y+10	; 0x0a
    325a:	20 e0       	ldi	r18, 0x00	; 0
    325c:	30 e0       	ldi	r19, 0x00	; 0
    325e:	40 e8       	ldi	r20, 0x80	; 128
    3260:	5f e3       	ldi	r21, 0x3F	; 63
    3262:	0e 94 bc 24 	call	0x4978	; 0x4978 <__ltsf2>
    3266:	88 23       	and	r24, r24
    3268:	2c f4       	brge	.+10     	; 0x3274 <LcdClear+0x66>
		__ticks = 1;
    326a:	81 e0       	ldi	r24, 0x01	; 1
    326c:	90 e0       	ldi	r25, 0x00	; 0
    326e:	8d 83       	std	Y+5, r24	; 0x05
    3270:	9e 83       	std	Y+6, r25	; 0x06
    3272:	3f c0       	rjmp	.+126    	; 0x32f2 <LcdClear+0xe4>
	else if (__tmp > 65535)
    3274:	6f 81       	ldd	r22, Y+7	; 0x07
    3276:	78 85       	ldd	r23, Y+8	; 0x08
    3278:	89 85       	ldd	r24, Y+9	; 0x09
    327a:	9a 85       	ldd	r25, Y+10	; 0x0a
    327c:	20 e0       	ldi	r18, 0x00	; 0
    327e:	3f ef       	ldi	r19, 0xFF	; 255
    3280:	4f e7       	ldi	r20, 0x7F	; 127
    3282:	57 e4       	ldi	r21, 0x47	; 71
    3284:	0e 94 5c 24 	call	0x48b8	; 0x48b8 <__gtsf2>
    3288:	18 16       	cp	r1, r24
    328a:	4c f5       	brge	.+82     	; 0x32de <LcdClear+0xd0>
	{
		//	__ticks = requested delay in 1/10 ms
		__ticks = (uint16_t) (__ms * 10.0);
    328c:	6b 85       	ldd	r22, Y+11	; 0x0b
    328e:	7c 85       	ldd	r23, Y+12	; 0x0c
    3290:	8d 85       	ldd	r24, Y+13	; 0x0d
    3292:	9e 85       	ldd	r25, Y+14	; 0x0e
    3294:	20 e0       	ldi	r18, 0x00	; 0
    3296:	30 e0       	ldi	r19, 0x00	; 0
    3298:	40 e2       	ldi	r20, 0x20	; 32
    329a:	51 e4       	ldi	r21, 0x41	; 65
    329c:	0e 94 b6 22 	call	0x456c	; 0x456c <__mulsf3>
    32a0:	dc 01       	movw	r26, r24
    32a2:	cb 01       	movw	r24, r22
    32a4:	bc 01       	movw	r22, r24
    32a6:	cd 01       	movw	r24, r26
    32a8:	0e 94 e0 20 	call	0x41c0	; 0x41c0 <__fixunssfsi>
    32ac:	dc 01       	movw	r26, r24
    32ae:	cb 01       	movw	r24, r22
    32b0:	8d 83       	std	Y+5, r24	; 0x05
    32b2:	9e 83       	std	Y+6, r25	; 0x06
    32b4:	0f c0       	rjmp	.+30     	; 0x32d4 <LcdClear+0xc6>
    32b6:	80 e2       	ldi	r24, 0x20	; 32
    32b8:	93 e0       	ldi	r25, 0x03	; 3
    32ba:	8b 83       	std	Y+3, r24	; 0x03
    32bc:	9c 83       	std	Y+4, r25	; 0x04
    milliseconds can be achieved.
 */
void
_delay_loop_2(uint16_t __count)
{
	__asm__ volatile (
    32be:	8b 81       	ldd	r24, Y+3	; 0x03
    32c0:	9c 81       	ldd	r25, Y+4	; 0x04
    32c2:	01 97       	sbiw	r24, 0x01	; 1
    32c4:	f1 f7       	brne	.-4      	; 0x32c2 <LcdClear+0xb4>
    32c6:	8b 83       	std	Y+3, r24	; 0x03
    32c8:	9c 83       	std	Y+4, r25	; 0x04
		while(__ticks)
		{
			// wait 1/10 ms
			_delay_loop_2(((F_CPU) / 4e3) / 10);
			__ticks --;
    32ca:	8d 81       	ldd	r24, Y+5	; 0x05
    32cc:	9e 81       	ldd	r25, Y+6	; 0x06
    32ce:	01 97       	sbiw	r24, 0x01	; 1
    32d0:	8d 83       	std	Y+5, r24	; 0x05
    32d2:	9e 83       	std	Y+6, r25	; 0x06
		__ticks = 1;
	else if (__tmp > 65535)
	{
		//	__ticks = requested delay in 1/10 ms
		__ticks = (uint16_t) (__ms * 10.0);
		while(__ticks)
    32d4:	8d 81       	ldd	r24, Y+5	; 0x05
    32d6:	9e 81       	ldd	r25, Y+6	; 0x06
    32d8:	00 97       	sbiw	r24, 0x00	; 0
    32da:	69 f7       	brne	.-38     	; 0x32b6 <LcdClear+0xa8>
    32dc:	14 c0       	rjmp	.+40     	; 0x3306 <LcdClear+0xf8>
			__ticks --;
		}
		return;
	}
	else
		__ticks = (uint16_t)__tmp;
    32de:	6f 81       	ldd	r22, Y+7	; 0x07
    32e0:	78 85       	ldd	r23, Y+8	; 0x08
    32e2:	89 85       	ldd	r24, Y+9	; 0x09
    32e4:	9a 85       	ldd	r25, Y+10	; 0x0a
    32e6:	0e 94 e0 20 	call	0x41c0	; 0x41c0 <__fixunssfsi>
    32ea:	dc 01       	movw	r26, r24
    32ec:	cb 01       	movw	r24, r22
    32ee:	8d 83       	std	Y+5, r24	; 0x05
    32f0:	9e 83       	std	Y+6, r25	; 0x06
    32f2:	8d 81       	ldd	r24, Y+5	; 0x05
    32f4:	9e 81       	ldd	r25, Y+6	; 0x06
    32f6:	89 83       	std	Y+1, r24	; 0x01
    32f8:	9a 83       	std	Y+2, r25	; 0x02
    32fa:	89 81       	ldd	r24, Y+1	; 0x01
    32fc:	9a 81       	ldd	r25, Y+2	; 0x02
    32fe:	01 97       	sbiw	r24, 0x01	; 1
    3300:	f1 f7       	brne	.-4      	; 0x32fe <LcdClear+0xf0>
    3302:	89 83       	std	Y+1, r24	; 0x01
    3304:	9a 83       	std	Y+2, r25	; 0x02
	_delay_ms(2);
}
    3306:	2e 96       	adiw	r28, 0x0e	; 14
    3308:	cd bf       	out	0x3d, r28	; 61
    330a:	de bf       	out	0x3e, r29	; 62
    330c:	cf 91       	pop	r28
    330e:	df 91       	pop	r29
    3310:	08 95       	ret

00003312 <LcdInit>:

void LcdInit(void) {
    3312:	df 93       	push	r29
    3314:	cf 93       	push	r28
    3316:	cd b7       	in	r28, 0x3d	; 61
    3318:	de b7       	in	r29, 0x3e	; 62
    331a:	e9 97       	sbiw	r28, 0x39	; 57
    331c:	cd bf       	out	0x3d, r28	; 61
    331e:	de bf       	out	0x3e, r29	; 62
	LCD_PORT.DIRSET	=	LCD_D4_bm|
    3320:	e0 e2       	ldi	r30, 0x20	; 32
    3322:	f7 e0       	ldi	r31, 0x07	; 7
    3324:	8f e3       	ldi	r24, 0x3F	; 63
    3326:	81 83       	std	Z+1, r24	; 0x01
    3328:	80 e0       	ldi	r24, 0x00	; 0
    332a:	90 e0       	ldi	r25, 0x00	; 0
    332c:	a0 ea       	ldi	r26, 0xA0	; 160
    332e:	b0 e4       	ldi	r27, 0x40	; 64
    3330:	8d ab       	std	Y+53, r24	; 0x35
    3332:	9e ab       	std	Y+54, r25	; 0x36
    3334:	af ab       	std	Y+55, r26	; 0x37
    3336:	b8 af       	std	Y+56, r27	; 0x38
 */
void
_delay_ms(double __ms)
{
	uint16_t __ticks;
	double __tmp = ((F_CPU) / 4e3) * __ms;
    3338:	6d a9       	ldd	r22, Y+53	; 0x35
    333a:	7e a9       	ldd	r23, Y+54	; 0x36
    333c:	8f a9       	ldd	r24, Y+55	; 0x37
    333e:	98 ad       	ldd	r25, Y+56	; 0x38
    3340:	20 e0       	ldi	r18, 0x00	; 0
    3342:	30 e0       	ldi	r19, 0x00	; 0
    3344:	4a ef       	ldi	r20, 0xFA	; 250
    3346:	55 e4       	ldi	r21, 0x45	; 69
    3348:	0e 94 b6 22 	call	0x456c	; 0x456c <__mulsf3>
    334c:	dc 01       	movw	r26, r24
    334e:	cb 01       	movw	r24, r22
    3350:	89 ab       	std	Y+49, r24	; 0x31
    3352:	9a ab       	std	Y+50, r25	; 0x32
    3354:	ab ab       	std	Y+51, r26	; 0x33
    3356:	bc ab       	std	Y+52, r27	; 0x34
	if (__tmp < 1.0)
    3358:	69 a9       	ldd	r22, Y+49	; 0x31
    335a:	7a a9       	ldd	r23, Y+50	; 0x32
    335c:	8b a9       	ldd	r24, Y+51	; 0x33
    335e:	9c a9       	ldd	r25, Y+52	; 0x34
    3360:	20 e0       	ldi	r18, 0x00	; 0
    3362:	30 e0       	ldi	r19, 0x00	; 0
    3364:	40 e8       	ldi	r20, 0x80	; 128
    3366:	5f e3       	ldi	r21, 0x3F	; 63
    3368:	0e 94 bc 24 	call	0x4978	; 0x4978 <__ltsf2>
    336c:	88 23       	and	r24, r24
    336e:	2c f4       	brge	.+10     	; 0x337a <LcdInit+0x68>
		__ticks = 1;
    3370:	81 e0       	ldi	r24, 0x01	; 1
    3372:	90 e0       	ldi	r25, 0x00	; 0
    3374:	8f a7       	std	Y+47, r24	; 0x2f
    3376:	98 ab       	std	Y+48, r25	; 0x30
    3378:	3f c0       	rjmp	.+126    	; 0x33f8 <LcdInit+0xe6>
	else if (__tmp > 65535)
    337a:	69 a9       	ldd	r22, Y+49	; 0x31
    337c:	7a a9       	ldd	r23, Y+50	; 0x32
    337e:	8b a9       	ldd	r24, Y+51	; 0x33
    3380:	9c a9       	ldd	r25, Y+52	; 0x34
    3382:	20 e0       	ldi	r18, 0x00	; 0
    3384:	3f ef       	ldi	r19, 0xFF	; 255
    3386:	4f e7       	ldi	r20, 0x7F	; 127
    3388:	57 e4       	ldi	r21, 0x47	; 71
    338a:	0e 94 5c 24 	call	0x48b8	; 0x48b8 <__gtsf2>
    338e:	18 16       	cp	r1, r24
    3390:	4c f5       	brge	.+82     	; 0x33e4 <LcdInit+0xd2>
	{
		//	__ticks = requested delay in 1/10 ms
		__ticks = (uint16_t) (__ms * 10.0);
    3392:	6d a9       	ldd	r22, Y+53	; 0x35
    3394:	7e a9       	ldd	r23, Y+54	; 0x36
    3396:	8f a9       	ldd	r24, Y+55	; 0x37
    3398:	98 ad       	ldd	r25, Y+56	; 0x38
    339a:	20 e0       	ldi	r18, 0x00	; 0
    339c:	30 e0       	ldi	r19, 0x00	; 0
    339e:	40 e2       	ldi	r20, 0x20	; 32
    33a0:	51 e4       	ldi	r21, 0x41	; 65
    33a2:	0e 94 b6 22 	call	0x456c	; 0x456c <__mulsf3>
    33a6:	dc 01       	movw	r26, r24
    33a8:	cb 01       	movw	r24, r22
    33aa:	bc 01       	movw	r22, r24
    33ac:	cd 01       	movw	r24, r26
    33ae:	0e 94 e0 20 	call	0x41c0	; 0x41c0 <__fixunssfsi>
    33b2:	dc 01       	movw	r26, r24
    33b4:	cb 01       	movw	r24, r22
    33b6:	8f a7       	std	Y+47, r24	; 0x2f
    33b8:	98 ab       	std	Y+48, r25	; 0x30
    33ba:	0f c0       	rjmp	.+30     	; 0x33da <LcdInit+0xc8>
    33bc:	80 e2       	ldi	r24, 0x20	; 32
    33be:	93 e0       	ldi	r25, 0x03	; 3
    33c0:	8d a7       	std	Y+45, r24	; 0x2d
    33c2:	9e a7       	std	Y+46, r25	; 0x2e
    33c4:	8d a5       	ldd	r24, Y+45	; 0x2d
    33c6:	9e a5       	ldd	r25, Y+46	; 0x2e
    33c8:	01 97       	sbiw	r24, 0x01	; 1
    33ca:	f1 f7       	brne	.-4      	; 0x33c8 <LcdInit+0xb6>
    33cc:	8d a7       	std	Y+45, r24	; 0x2d
    33ce:	9e a7       	std	Y+46, r25	; 0x2e
		while(__ticks)
		{
			// wait 1/10 ms
			_delay_loop_2(((F_CPU) / 4e3) / 10);
			__ticks --;
    33d0:	8f a5       	ldd	r24, Y+47	; 0x2f
    33d2:	98 a9       	ldd	r25, Y+48	; 0x30
    33d4:	01 97       	sbiw	r24, 0x01	; 1
    33d6:	8f a7       	std	Y+47, r24	; 0x2f
    33d8:	98 ab       	std	Y+48, r25	; 0x30
		__ticks = 1;
	else if (__tmp > 65535)
	{
		//	__ticks = requested delay in 1/10 ms
		__ticks = (uint16_t) (__ms * 10.0);
		while(__ticks)
    33da:	8f a5       	ldd	r24, Y+47	; 0x2f
    33dc:	98 a9       	ldd	r25, Y+48	; 0x30
    33de:	00 97       	sbiw	r24, 0x00	; 0
    33e0:	69 f7       	brne	.-38     	; 0x33bc <LcdInit+0xaa>
    33e2:	14 c0       	rjmp	.+40     	; 0x340c <LcdInit+0xfa>
			__ticks --;
		}
		return;
	}
	else
		__ticks = (uint16_t)__tmp;
    33e4:	69 a9       	ldd	r22, Y+49	; 0x31
    33e6:	7a a9       	ldd	r23, Y+50	; 0x32
    33e8:	8b a9       	ldd	r24, Y+51	; 0x33
    33ea:	9c a9       	ldd	r25, Y+52	; 0x34
    33ec:	0e 94 e0 20 	call	0x41c0	; 0x41c0 <__fixunssfsi>
    33f0:	dc 01       	movw	r26, r24
    33f2:	cb 01       	movw	r24, r22
    33f4:	8f a7       	std	Y+47, r24	; 0x2f
    33f6:	98 ab       	std	Y+48, r25	; 0x30
    33f8:	8f a5       	ldd	r24, Y+47	; 0x2f
    33fa:	98 a9       	ldd	r25, Y+48	; 0x30
    33fc:	8b a7       	std	Y+43, r24	; 0x2b
    33fe:	9c a7       	std	Y+44, r25	; 0x2c
    3400:	8b a5       	ldd	r24, Y+43	; 0x2b
    3402:	9c a5       	ldd	r25, Y+44	; 0x2c
    3404:	01 97       	sbiw	r24, 0x01	; 1
    3406:	f1 f7       	brne	.-4      	; 0x3404 <LcdInit+0xf2>
    3408:	8b a7       	std	Y+43, r24	; 0x2b
    340a:	9c a7       	std	Y+44, r25	; 0x2c
						LCD_D6_bm|
						LCD_D7_bm|
						LCD_RS_bm|
						LCD_E_bm;
	_delay_ms(5); // oczekiwanie na ustalibizowanie si napiecia zasilajacego
	LCD_PORT.OUTCLR = LCD_RS_bm | LCD_E_bm;
    340c:	e0 e2       	ldi	r30, 0x20	; 32
    340e:	f7 e0       	ldi	r31, 0x07	; 7
    3410:	80 e3       	ldi	r24, 0x30	; 48
    3412:	86 83       	std	Z+6, r24	; 0x06

	for(uint8_t i = 0; i < 3; i++) { // trzykrotne powtrzenie bloku instrukcji
    3414:	19 ae       	std	Y+57, r1	; 0x39
    3416:	80 c0       	rjmp	.+256    	; 0x3518 <LcdInit+0x206>
		LCD_PORT.OUTSET = LCD_E_bm;
    3418:	e0 e2       	ldi	r30, 0x20	; 32
    341a:	f7 e0       	ldi	r31, 0x07	; 7
    341c:	80 e1       	ldi	r24, 0x10	; 16
    341e:	85 83       	std	Z+5, r24	; 0x05
		_lcd_OutNibble(0x03); // tryb 8-bitowy
    3420:	83 e0       	ldi	r24, 0x03	; 3
    3422:	0e 94 55 17 	call	0x2eaa	; 0x2eaa <_lcd_OutNibble>
		LCD_PORT.OUTCLR = LCD_E_bm;
    3426:	e0 e2       	ldi	r30, 0x20	; 32
    3428:	f7 e0       	ldi	r31, 0x07	; 7
    342a:	80 e1       	ldi	r24, 0x10	; 16
    342c:	86 83       	std	Z+6, r24	; 0x06
    342e:	80 e0       	ldi	r24, 0x00	; 0
    3430:	90 e0       	ldi	r25, 0x00	; 0
    3432:	a0 ea       	ldi	r26, 0xA0	; 160
    3434:	b0 e4       	ldi	r27, 0x40	; 64
    3436:	8f a3       	std	Y+39, r24	; 0x27
    3438:	98 a7       	std	Y+40, r25	; 0x28
    343a:	a9 a7       	std	Y+41, r26	; 0x29
    343c:	ba a7       	std	Y+42, r27	; 0x2a
 */
void
_delay_ms(double __ms)
{
	uint16_t __ticks;
	double __tmp = ((F_CPU) / 4e3) * __ms;
    343e:	6f a1       	ldd	r22, Y+39	; 0x27
    3440:	78 a5       	ldd	r23, Y+40	; 0x28
    3442:	89 a5       	ldd	r24, Y+41	; 0x29
    3444:	9a a5       	ldd	r25, Y+42	; 0x2a
    3446:	20 e0       	ldi	r18, 0x00	; 0
    3448:	30 e0       	ldi	r19, 0x00	; 0
    344a:	4a ef       	ldi	r20, 0xFA	; 250
    344c:	55 e4       	ldi	r21, 0x45	; 69
    344e:	0e 94 b6 22 	call	0x456c	; 0x456c <__mulsf3>
    3452:	dc 01       	movw	r26, r24
    3454:	cb 01       	movw	r24, r22
    3456:	8b a3       	std	Y+35, r24	; 0x23
    3458:	9c a3       	std	Y+36, r25	; 0x24
    345a:	ad a3       	std	Y+37, r26	; 0x25
    345c:	be a3       	std	Y+38, r27	; 0x26
	if (__tmp < 1.0)
    345e:	6b a1       	ldd	r22, Y+35	; 0x23
    3460:	7c a1       	ldd	r23, Y+36	; 0x24
    3462:	8d a1       	ldd	r24, Y+37	; 0x25
    3464:	9e a1       	ldd	r25, Y+38	; 0x26
    3466:	20 e0       	ldi	r18, 0x00	; 0
    3468:	30 e0       	ldi	r19, 0x00	; 0
    346a:	40 e8       	ldi	r20, 0x80	; 128
    346c:	5f e3       	ldi	r21, 0x3F	; 63
    346e:	0e 94 bc 24 	call	0x4978	; 0x4978 <__ltsf2>
    3472:	88 23       	and	r24, r24
    3474:	2c f4       	brge	.+10     	; 0x3480 <LcdInit+0x16e>
		__ticks = 1;
    3476:	81 e0       	ldi	r24, 0x01	; 1
    3478:	90 e0       	ldi	r25, 0x00	; 0
    347a:	89 a3       	std	Y+33, r24	; 0x21
    347c:	9a a3       	std	Y+34, r25	; 0x22
    347e:	3f c0       	rjmp	.+126    	; 0x34fe <LcdInit+0x1ec>
	else if (__tmp > 65535)
    3480:	6b a1       	ldd	r22, Y+35	; 0x23
    3482:	7c a1       	ldd	r23, Y+36	; 0x24
    3484:	8d a1       	ldd	r24, Y+37	; 0x25
    3486:	9e a1       	ldd	r25, Y+38	; 0x26
    3488:	20 e0       	ldi	r18, 0x00	; 0
    348a:	3f ef       	ldi	r19, 0xFF	; 255
    348c:	4f e7       	ldi	r20, 0x7F	; 127
    348e:	57 e4       	ldi	r21, 0x47	; 71
    3490:	0e 94 5c 24 	call	0x48b8	; 0x48b8 <__gtsf2>
    3494:	18 16       	cp	r1, r24
    3496:	4c f5       	brge	.+82     	; 0x34ea <LcdInit+0x1d8>
	{
		//	__ticks = requested delay in 1/10 ms
		__ticks = (uint16_t) (__ms * 10.0);
    3498:	6f a1       	ldd	r22, Y+39	; 0x27
    349a:	78 a5       	ldd	r23, Y+40	; 0x28
    349c:	89 a5       	ldd	r24, Y+41	; 0x29
    349e:	9a a5       	ldd	r25, Y+42	; 0x2a
    34a0:	20 e0       	ldi	r18, 0x00	; 0
    34a2:	30 e0       	ldi	r19, 0x00	; 0
    34a4:	40 e2       	ldi	r20, 0x20	; 32
    34a6:	51 e4       	ldi	r21, 0x41	; 65
    34a8:	0e 94 b6 22 	call	0x456c	; 0x456c <__mulsf3>
    34ac:	dc 01       	movw	r26, r24
    34ae:	cb 01       	movw	r24, r22
    34b0:	bc 01       	movw	r22, r24
    34b2:	cd 01       	movw	r24, r26
    34b4:	0e 94 e0 20 	call	0x41c0	; 0x41c0 <__fixunssfsi>
    34b8:	dc 01       	movw	r26, r24
    34ba:	cb 01       	movw	r24, r22
    34bc:	89 a3       	std	Y+33, r24	; 0x21
    34be:	9a a3       	std	Y+34, r25	; 0x22
    34c0:	0f c0       	rjmp	.+30     	; 0x34e0 <LcdInit+0x1ce>
    34c2:	80 e2       	ldi	r24, 0x20	; 32
    34c4:	93 e0       	ldi	r25, 0x03	; 3
    34c6:	8f 8f       	std	Y+31, r24	; 0x1f
    34c8:	98 a3       	std	Y+32, r25	; 0x20
    34ca:	8f 8d       	ldd	r24, Y+31	; 0x1f
    34cc:	98 a1       	ldd	r25, Y+32	; 0x20
    34ce:	01 97       	sbiw	r24, 0x01	; 1
    34d0:	f1 f7       	brne	.-4      	; 0x34ce <LcdInit+0x1bc>
    34d2:	8f 8f       	std	Y+31, r24	; 0x1f
    34d4:	98 a3       	std	Y+32, r25	; 0x20
		while(__ticks)
		{
			// wait 1/10 ms
			_delay_loop_2(((F_CPU) / 4e3) / 10);
			__ticks --;
    34d6:	89 a1       	ldd	r24, Y+33	; 0x21
    34d8:	9a a1       	ldd	r25, Y+34	; 0x22
    34da:	01 97       	sbiw	r24, 0x01	; 1
    34dc:	89 a3       	std	Y+33, r24	; 0x21
    34de:	9a a3       	std	Y+34, r25	; 0x22
		__ticks = 1;
	else if (__tmp > 65535)
	{
		//	__ticks = requested delay in 1/10 ms
		__ticks = (uint16_t) (__ms * 10.0);
		while(__ticks)
    34e0:	89 a1       	ldd	r24, Y+33	; 0x21
    34e2:	9a a1       	ldd	r25, Y+34	; 0x22
    34e4:	00 97       	sbiw	r24, 0x00	; 0
    34e6:	69 f7       	brne	.-38     	; 0x34c2 <LcdInit+0x1b0>
    34e8:	14 c0       	rjmp	.+40     	; 0x3512 <LcdInit+0x200>
			__ticks --;
		}
		return;
	}
	else
		__ticks = (uint16_t)__tmp;
    34ea:	6b a1       	ldd	r22, Y+35	; 0x23
    34ec:	7c a1       	ldd	r23, Y+36	; 0x24
    34ee:	8d a1       	ldd	r24, Y+37	; 0x25
    34f0:	9e a1       	ldd	r25, Y+38	; 0x26
    34f2:	0e 94 e0 20 	call	0x41c0	; 0x41c0 <__fixunssfsi>
    34f6:	dc 01       	movw	r26, r24
    34f8:	cb 01       	movw	r24, r22
    34fa:	89 a3       	std	Y+33, r24	; 0x21
    34fc:	9a a3       	std	Y+34, r25	; 0x22
    34fe:	89 a1       	ldd	r24, Y+33	; 0x21
    3500:	9a a1       	ldd	r25, Y+34	; 0x22
    3502:	8d 8f       	std	Y+29, r24	; 0x1d
    3504:	9e 8f       	std	Y+30, r25	; 0x1e
    3506:	8d 8d       	ldd	r24, Y+29	; 0x1d
    3508:	9e 8d       	ldd	r25, Y+30	; 0x1e
    350a:	01 97       	sbiw	r24, 0x01	; 1
    350c:	f1 f7       	brne	.-4      	; 0x350a <LcdInit+0x1f8>
    350e:	8d 8f       	std	Y+29, r24	; 0x1d
    3510:	9e 8f       	std	Y+30, r25	; 0x1e
						LCD_RS_bm|
						LCD_E_bm;
	_delay_ms(5); // oczekiwanie na ustalibizowanie si napiecia zasilajacego
	LCD_PORT.OUTCLR = LCD_RS_bm | LCD_E_bm;

	for(uint8_t i = 0; i < 3; i++) { // trzykrotne powtrzenie bloku instrukcji
    3512:	89 ad       	ldd	r24, Y+57	; 0x39
    3514:	8f 5f       	subi	r24, 0xFF	; 255
    3516:	89 af       	std	Y+57, r24	; 0x39
    3518:	89 ad       	ldd	r24, Y+57	; 0x39
    351a:	83 30       	cpi	r24, 0x03	; 3
    351c:	08 f4       	brcc	.+2      	; 0x3520 <LcdInit+0x20e>
    351e:	7c cf       	rjmp	.-264    	; 0x3418 <LcdInit+0x106>
		_lcd_OutNibble(0x03); // tryb 8-bitowy
		LCD_PORT.OUTCLR = LCD_E_bm;
		_delay_ms(5); // czekaj 5ms
	}

	LCD_PORT.OUTSET = LCD_E_bm;
    3520:	e0 e2       	ldi	r30, 0x20	; 32
    3522:	f7 e0       	ldi	r31, 0x07	; 7
    3524:	80 e1       	ldi	r24, 0x10	; 16
    3526:	85 83       	std	Z+5, r24	; 0x05
	_lcd_OutNibble(0x02); // tryb 4-bitowy
    3528:	82 e0       	ldi	r24, 0x02	; 2
    352a:	0e 94 55 17 	call	0x2eaa	; 0x2eaa <_lcd_OutNibble>
	LCD_PORT.OUTCLR = LCD_E_bm;
    352e:	e0 e2       	ldi	r30, 0x20	; 32
    3530:	f7 e0       	ldi	r31, 0x07	; 7
    3532:	80 e1       	ldi	r24, 0x10	; 16
    3534:	86 83       	std	Z+6, r24	; 0x06
    3536:	80 e0       	ldi	r24, 0x00	; 0
    3538:	90 e0       	ldi	r25, 0x00	; 0
    353a:	a0 e8       	ldi	r26, 0x80	; 128
    353c:	bf e3       	ldi	r27, 0x3F	; 63
    353e:	89 8f       	std	Y+25, r24	; 0x19
    3540:	9a 8f       	std	Y+26, r25	; 0x1a
    3542:	ab 8f       	std	Y+27, r26	; 0x1b
    3544:	bc 8f       	std	Y+28, r27	; 0x1c
 */
void
_delay_ms(double __ms)
{
	uint16_t __ticks;
	double __tmp = ((F_CPU) / 4e3) * __ms;
    3546:	69 8d       	ldd	r22, Y+25	; 0x19
    3548:	7a 8d       	ldd	r23, Y+26	; 0x1a
    354a:	8b 8d       	ldd	r24, Y+27	; 0x1b
    354c:	9c 8d       	ldd	r25, Y+28	; 0x1c
    354e:	20 e0       	ldi	r18, 0x00	; 0
    3550:	30 e0       	ldi	r19, 0x00	; 0
    3552:	4a ef       	ldi	r20, 0xFA	; 250
    3554:	55 e4       	ldi	r21, 0x45	; 69
    3556:	0e 94 b6 22 	call	0x456c	; 0x456c <__mulsf3>
    355a:	dc 01       	movw	r26, r24
    355c:	cb 01       	movw	r24, r22
    355e:	8d 8b       	std	Y+21, r24	; 0x15
    3560:	9e 8b       	std	Y+22, r25	; 0x16
    3562:	af 8b       	std	Y+23, r26	; 0x17
    3564:	b8 8f       	std	Y+24, r27	; 0x18
	if (__tmp < 1.0)
    3566:	6d 89       	ldd	r22, Y+21	; 0x15
    3568:	7e 89       	ldd	r23, Y+22	; 0x16
    356a:	8f 89       	ldd	r24, Y+23	; 0x17
    356c:	98 8d       	ldd	r25, Y+24	; 0x18
    356e:	20 e0       	ldi	r18, 0x00	; 0
    3570:	30 e0       	ldi	r19, 0x00	; 0
    3572:	40 e8       	ldi	r20, 0x80	; 128
    3574:	5f e3       	ldi	r21, 0x3F	; 63
    3576:	0e 94 bc 24 	call	0x4978	; 0x4978 <__ltsf2>
    357a:	88 23       	and	r24, r24
    357c:	2c f4       	brge	.+10     	; 0x3588 <LcdInit+0x276>
		__ticks = 1;
    357e:	81 e0       	ldi	r24, 0x01	; 1
    3580:	90 e0       	ldi	r25, 0x00	; 0
    3582:	8b 8b       	std	Y+19, r24	; 0x13
    3584:	9c 8b       	std	Y+20, r25	; 0x14
    3586:	3f c0       	rjmp	.+126    	; 0x3606 <LcdInit+0x2f4>
	else if (__tmp > 65535)
    3588:	6d 89       	ldd	r22, Y+21	; 0x15
    358a:	7e 89       	ldd	r23, Y+22	; 0x16
    358c:	8f 89       	ldd	r24, Y+23	; 0x17
    358e:	98 8d       	ldd	r25, Y+24	; 0x18
    3590:	20 e0       	ldi	r18, 0x00	; 0
    3592:	3f ef       	ldi	r19, 0xFF	; 255
    3594:	4f e7       	ldi	r20, 0x7F	; 127
    3596:	57 e4       	ldi	r21, 0x47	; 71
    3598:	0e 94 5c 24 	call	0x48b8	; 0x48b8 <__gtsf2>
    359c:	18 16       	cp	r1, r24
    359e:	4c f5       	brge	.+82     	; 0x35f2 <LcdInit+0x2e0>
	{
		//	__ticks = requested delay in 1/10 ms
		__ticks = (uint16_t) (__ms * 10.0);
    35a0:	69 8d       	ldd	r22, Y+25	; 0x19
    35a2:	7a 8d       	ldd	r23, Y+26	; 0x1a
    35a4:	8b 8d       	ldd	r24, Y+27	; 0x1b
    35a6:	9c 8d       	ldd	r25, Y+28	; 0x1c
    35a8:	20 e0       	ldi	r18, 0x00	; 0
    35aa:	30 e0       	ldi	r19, 0x00	; 0
    35ac:	40 e2       	ldi	r20, 0x20	; 32
    35ae:	51 e4       	ldi	r21, 0x41	; 65
    35b0:	0e 94 b6 22 	call	0x456c	; 0x456c <__mulsf3>
    35b4:	dc 01       	movw	r26, r24
    35b6:	cb 01       	movw	r24, r22
    35b8:	bc 01       	movw	r22, r24
    35ba:	cd 01       	movw	r24, r26
    35bc:	0e 94 e0 20 	call	0x41c0	; 0x41c0 <__fixunssfsi>
    35c0:	dc 01       	movw	r26, r24
    35c2:	cb 01       	movw	r24, r22
    35c4:	8b 8b       	std	Y+19, r24	; 0x13
    35c6:	9c 8b       	std	Y+20, r25	; 0x14
    35c8:	0f c0       	rjmp	.+30     	; 0x35e8 <LcdInit+0x2d6>
    35ca:	80 e2       	ldi	r24, 0x20	; 32
    35cc:	93 e0       	ldi	r25, 0x03	; 3
    35ce:	89 8b       	std	Y+17, r24	; 0x11
    35d0:	9a 8b       	std	Y+18, r25	; 0x12
    35d2:	89 89       	ldd	r24, Y+17	; 0x11
    35d4:	9a 89       	ldd	r25, Y+18	; 0x12
    35d6:	01 97       	sbiw	r24, 0x01	; 1
    35d8:	f1 f7       	brne	.-4      	; 0x35d6 <LcdInit+0x2c4>
    35da:	89 8b       	std	Y+17, r24	; 0x11
    35dc:	9a 8b       	std	Y+18, r25	; 0x12
		while(__ticks)
		{
			// wait 1/10 ms
			_delay_loop_2(((F_CPU) / 4e3) / 10);
			__ticks --;
    35de:	8b 89       	ldd	r24, Y+19	; 0x13
    35e0:	9c 89       	ldd	r25, Y+20	; 0x14
    35e2:	01 97       	sbiw	r24, 0x01	; 1
    35e4:	8b 8b       	std	Y+19, r24	; 0x13
    35e6:	9c 8b       	std	Y+20, r25	; 0x14
		__ticks = 1;
	else if (__tmp > 65535)
	{
		//	__ticks = requested delay in 1/10 ms
		__ticks = (uint16_t) (__ms * 10.0);
		while(__ticks)
    35e8:	8b 89       	ldd	r24, Y+19	; 0x13
    35ea:	9c 89       	ldd	r25, Y+20	; 0x14
    35ec:	00 97       	sbiw	r24, 0x00	; 0
    35ee:	69 f7       	brne	.-38     	; 0x35ca <LcdInit+0x2b8>
    35f0:	14 c0       	rjmp	.+40     	; 0x361a <LcdInit+0x308>
			__ticks --;
		}
		return;
	}
	else
		__ticks = (uint16_t)__tmp;
    35f2:	6d 89       	ldd	r22, Y+21	; 0x15
    35f4:	7e 89       	ldd	r23, Y+22	; 0x16
    35f6:	8f 89       	ldd	r24, Y+23	; 0x17
    35f8:	98 8d       	ldd	r25, Y+24	; 0x18
    35fa:	0e 94 e0 20 	call	0x41c0	; 0x41c0 <__fixunssfsi>
    35fe:	dc 01       	movw	r26, r24
    3600:	cb 01       	movw	r24, r22
    3602:	8b 8b       	std	Y+19, r24	; 0x13
    3604:	9c 8b       	std	Y+20, r25	; 0x14
    3606:	8b 89       	ldd	r24, Y+19	; 0x13
    3608:	9c 89       	ldd	r25, Y+20	; 0x14
    360a:	8f 87       	std	Y+15, r24	; 0x0f
    360c:	98 8b       	std	Y+16, r25	; 0x10
    360e:	8f 85       	ldd	r24, Y+15	; 0x0f
    3610:	98 89       	ldd	r25, Y+16	; 0x10
    3612:	01 97       	sbiw	r24, 0x01	; 1
    3614:	f1 f7       	brne	.-4      	; 0x3612 <LcdInit+0x300>
    3616:	8f 87       	std	Y+15, r24	; 0x0f
    3618:	98 8b       	std	Y+16, r25	; 0x10

	_delay_ms(1); // czekaj 1ms 
	LcdCommand(HD44780_FUNCTION_SET | HD44780_FONT5x7 | HD44780_TWO_LINE | HD44780_4_BIT); // interfejs 4-bity, 2-linie, znak 5x7
    361a:	88 e2       	ldi	r24, 0x28	; 40
    361c:	0e 94 84 18 	call	0x3108	; 0x3108 <LcdCommand>
	LcdCommand(HD44780_DISPLAY_ONOFF | HD44780_DISPLAY_OFF); // wyczenie wyswietlacza
    3620:	88 e0       	ldi	r24, 0x08	; 8
    3622:	0e 94 84 18 	call	0x3108	; 0x3108 <LcdCommand>
	LcdCommand(HD44780_CLEAR); // czyszczenie zawartosi pamieci DDRAM
    3626:	81 e0       	ldi	r24, 0x01	; 1
    3628:	0e 94 84 18 	call	0x3108	; 0x3108 <LcdCommand>
    362c:	80 e0       	ldi	r24, 0x00	; 0
    362e:	90 e0       	ldi	r25, 0x00	; 0
    3630:	a0 e0       	ldi	r26, 0x00	; 0
    3632:	b0 e4       	ldi	r27, 0x40	; 64
    3634:	8b 87       	std	Y+11, r24	; 0x0b
    3636:	9c 87       	std	Y+12, r25	; 0x0c
    3638:	ad 87       	std	Y+13, r26	; 0x0d
    363a:	be 87       	std	Y+14, r27	; 0x0e
 */
void
_delay_ms(double __ms)
{
	uint16_t __ticks;
	double __tmp = ((F_CPU) / 4e3) * __ms;
    363c:	6b 85       	ldd	r22, Y+11	; 0x0b
    363e:	7c 85       	ldd	r23, Y+12	; 0x0c
    3640:	8d 85       	ldd	r24, Y+13	; 0x0d
    3642:	9e 85       	ldd	r25, Y+14	; 0x0e
    3644:	20 e0       	ldi	r18, 0x00	; 0
    3646:	30 e0       	ldi	r19, 0x00	; 0
    3648:	4a ef       	ldi	r20, 0xFA	; 250
    364a:	55 e4       	ldi	r21, 0x45	; 69
    364c:	0e 94 b6 22 	call	0x456c	; 0x456c <__mulsf3>
    3650:	dc 01       	movw	r26, r24
    3652:	cb 01       	movw	r24, r22
    3654:	8f 83       	std	Y+7, r24	; 0x07
    3656:	98 87       	std	Y+8, r25	; 0x08
    3658:	a9 87       	std	Y+9, r26	; 0x09
    365a:	ba 87       	std	Y+10, r27	; 0x0a
	if (__tmp < 1.0)
    365c:	6f 81       	ldd	r22, Y+7	; 0x07
    365e:	78 85       	ldd	r23, Y+8	; 0x08
    3660:	89 85       	ldd	r24, Y+9	; 0x09
    3662:	9a 85       	ldd	r25, Y+10	; 0x0a
    3664:	20 e0       	ldi	r18, 0x00	; 0
    3666:	30 e0       	ldi	r19, 0x00	; 0
    3668:	40 e8       	ldi	r20, 0x80	; 128
    366a:	5f e3       	ldi	r21, 0x3F	; 63
    366c:	0e 94 bc 24 	call	0x4978	; 0x4978 <__ltsf2>
    3670:	88 23       	and	r24, r24
    3672:	2c f4       	brge	.+10     	; 0x367e <LcdInit+0x36c>
		__ticks = 1;
    3674:	81 e0       	ldi	r24, 0x01	; 1
    3676:	90 e0       	ldi	r25, 0x00	; 0
    3678:	8d 83       	std	Y+5, r24	; 0x05
    367a:	9e 83       	std	Y+6, r25	; 0x06
    367c:	3f c0       	rjmp	.+126    	; 0x36fc <LcdInit+0x3ea>
	else if (__tmp > 65535)
    367e:	6f 81       	ldd	r22, Y+7	; 0x07
    3680:	78 85       	ldd	r23, Y+8	; 0x08
    3682:	89 85       	ldd	r24, Y+9	; 0x09
    3684:	9a 85       	ldd	r25, Y+10	; 0x0a
    3686:	20 e0       	ldi	r18, 0x00	; 0
    3688:	3f ef       	ldi	r19, 0xFF	; 255
    368a:	4f e7       	ldi	r20, 0x7F	; 127
    368c:	57 e4       	ldi	r21, 0x47	; 71
    368e:	0e 94 5c 24 	call	0x48b8	; 0x48b8 <__gtsf2>
    3692:	18 16       	cp	r1, r24
    3694:	4c f5       	brge	.+82     	; 0x36e8 <LcdInit+0x3d6>
	{
		//	__ticks = requested delay in 1/10 ms
		__ticks = (uint16_t) (__ms * 10.0);
    3696:	6b 85       	ldd	r22, Y+11	; 0x0b
    3698:	7c 85       	ldd	r23, Y+12	; 0x0c
    369a:	8d 85       	ldd	r24, Y+13	; 0x0d
    369c:	9e 85       	ldd	r25, Y+14	; 0x0e
    369e:	20 e0       	ldi	r18, 0x00	; 0
    36a0:	30 e0       	ldi	r19, 0x00	; 0
    36a2:	40 e2       	ldi	r20, 0x20	; 32
    36a4:	51 e4       	ldi	r21, 0x41	; 65
    36a6:	0e 94 b6 22 	call	0x456c	; 0x456c <__mulsf3>
    36aa:	dc 01       	movw	r26, r24
    36ac:	cb 01       	movw	r24, r22
    36ae:	bc 01       	movw	r22, r24
    36b0:	cd 01       	movw	r24, r26
    36b2:	0e 94 e0 20 	call	0x41c0	; 0x41c0 <__fixunssfsi>
    36b6:	dc 01       	movw	r26, r24
    36b8:	cb 01       	movw	r24, r22
    36ba:	8d 83       	std	Y+5, r24	; 0x05
    36bc:	9e 83       	std	Y+6, r25	; 0x06
    36be:	0f c0       	rjmp	.+30     	; 0x36de <LcdInit+0x3cc>
    36c0:	80 e2       	ldi	r24, 0x20	; 32
    36c2:	93 e0       	ldi	r25, 0x03	; 3
    36c4:	8b 83       	std	Y+3, r24	; 0x03
    36c6:	9c 83       	std	Y+4, r25	; 0x04
    36c8:	8b 81       	ldd	r24, Y+3	; 0x03
    36ca:	9c 81       	ldd	r25, Y+4	; 0x04
    36cc:	01 97       	sbiw	r24, 0x01	; 1
    36ce:	f1 f7       	brne	.-4      	; 0x36cc <LcdInit+0x3ba>
    36d0:	8b 83       	std	Y+3, r24	; 0x03
    36d2:	9c 83       	std	Y+4, r25	; 0x04
		while(__ticks)
		{
			// wait 1/10 ms
			_delay_loop_2(((F_CPU) / 4e3) / 10);
			__ticks --;
    36d4:	8d 81       	ldd	r24, Y+5	; 0x05
    36d6:	9e 81       	ldd	r25, Y+6	; 0x06
    36d8:	01 97       	sbiw	r24, 0x01	; 1
    36da:	8d 83       	std	Y+5, r24	; 0x05
    36dc:	9e 83       	std	Y+6, r25	; 0x06
		__ticks = 1;
	else if (__tmp > 65535)
	{
		//	__ticks = requested delay in 1/10 ms
		__ticks = (uint16_t) (__ms * 10.0);
		while(__ticks)
    36de:	8d 81       	ldd	r24, Y+5	; 0x05
    36e0:	9e 81       	ldd	r25, Y+6	; 0x06
    36e2:	00 97       	sbiw	r24, 0x00	; 0
    36e4:	69 f7       	brne	.-38     	; 0x36c0 <LcdInit+0x3ae>
    36e6:	14 c0       	rjmp	.+40     	; 0x3710 <LcdInit+0x3fe>
			__ticks --;
		}
		return;
	}
	else
		__ticks = (uint16_t)__tmp;
    36e8:	6f 81       	ldd	r22, Y+7	; 0x07
    36ea:	78 85       	ldd	r23, Y+8	; 0x08
    36ec:	89 85       	ldd	r24, Y+9	; 0x09
    36ee:	9a 85       	ldd	r25, Y+10	; 0x0a
    36f0:	0e 94 e0 20 	call	0x41c0	; 0x41c0 <__fixunssfsi>
    36f4:	dc 01       	movw	r26, r24
    36f6:	cb 01       	movw	r24, r22
    36f8:	8d 83       	std	Y+5, r24	; 0x05
    36fa:	9e 83       	std	Y+6, r25	; 0x06
    36fc:	8d 81       	ldd	r24, Y+5	; 0x05
    36fe:	9e 81       	ldd	r25, Y+6	; 0x06
    3700:	89 83       	std	Y+1, r24	; 0x01
    3702:	9a 83       	std	Y+2, r25	; 0x02
    3704:	89 81       	ldd	r24, Y+1	; 0x01
    3706:	9a 81       	ldd	r25, Y+2	; 0x02
    3708:	01 97       	sbiw	r24, 0x01	; 1
    370a:	f1 f7       	brne	.-4      	; 0x3708 <LcdInit+0x3f6>
    370c:	89 83       	std	Y+1, r24	; 0x01
    370e:	9a 83       	std	Y+2, r25	; 0x02
	_delay_ms(2);
	LcdCommand(HD44780_ENTRY_MODE | HD44780_EM_SHIFT_CURSOR | HD44780_EM_INCREMENT);// inkrementaja adresu i przesuwanie kursora
    3710:	86 e0       	ldi	r24, 0x06	; 6
    3712:	0e 94 84 18 	call	0x3108	; 0x3108 <LcdCommand>
	LcdCommand(HD44780_DISPLAY_ONOFF | HD44780_DISPLAY_ON | HD44780_CURSOR_OFF | HD44780_CURSOR_NOBLINK); // wcz lcd, bez kursora i mrugania
    3716:	8c e0       	ldi	r24, 0x0C	; 12
    3718:	0e 94 84 18 	call	0x3108	; 0x3108 <LcdCommand>
}
    371c:	e9 96       	adiw	r28, 0x39	; 57
    371e:	cd bf       	out	0x3d, r28	; 61
    3720:	de bf       	out	0x3e, r29	; 62
    3722:	cf 91       	pop	r28
    3724:	df 91       	pop	r29
    3726:	08 95       	ret

00003728 <LcdDec>:

void LcdDec(uint32_t liczba) {
    3728:	0f 93       	push	r16
    372a:	1f 93       	push	r17
    372c:	df 93       	push	r29
    372e:	cf 93       	push	r28
    3730:	cd b7       	in	r28, 0x3d	; 61
    3732:	de b7       	in	r29, 0x3e	; 62
    3734:	2f 97       	sbiw	r28, 0x0f	; 15
    3736:	cd bf       	out	0x3d, r28	; 61
    3738:	de bf       	out	0x3e, r29	; 62
    373a:	6c 87       	std	Y+12, r22	; 0x0c
    373c:	7d 87       	std	Y+13, r23	; 0x0d
    373e:	8e 87       	std	Y+14, r24	; 0x0e
    3740:	9f 87       	std	Y+15, r25	; 0x0f
	if(liczba==0) {
    3742:	8c 85       	ldd	r24, Y+12	; 0x0c
    3744:	9d 85       	ldd	r25, Y+13	; 0x0d
    3746:	ae 85       	ldd	r26, Y+14	; 0x0e
    3748:	bf 85       	ldd	r27, Y+15	; 0x0f
    374a:	00 97       	sbiw	r24, 0x00	; 0
    374c:	a1 05       	cpc	r26, r1
    374e:	b1 05       	cpc	r27, r1
    3750:	21 f4       	brne	.+8      	; 0x375a <LcdDec+0x32>
		LcdData('0');
    3752:	80 e3       	ldi	r24, 0x30	; 48
    3754:	0e 94 95 18 	call	0x312a	; 0x312a <LcdData>
    3758:	51 c0       	rjmp	.+162    	; 0x37fc <LcdDec+0xd4>
		return;
	}
	
	uint8_t cyfra[10] ; 
	int8_t i=0;
    375a:	19 82       	std	Y+1, r1	; 0x01
    375c:	2f c0       	rjmp	.+94     	; 0x37bc <LcdDec+0x94>
	
	while(liczba) {
		cyfra[i] = (uint8_t)(liczba%10);
    375e:	89 81       	ldd	r24, Y+1	; 0x01
    3760:	08 2f       	mov	r16, r24
    3762:	11 27       	eor	r17, r17
    3764:	07 fd       	sbrc	r16, 7
    3766:	10 95       	com	r17
    3768:	8c 85       	ldd	r24, Y+12	; 0x0c
    376a:	9d 85       	ldd	r25, Y+13	; 0x0d
    376c:	ae 85       	ldd	r26, Y+14	; 0x0e
    376e:	bf 85       	ldd	r27, Y+15	; 0x0f
    3770:	2a e0       	ldi	r18, 0x0A	; 10
    3772:	30 e0       	ldi	r19, 0x00	; 0
    3774:	40 e0       	ldi	r20, 0x00	; 0
    3776:	50 e0       	ldi	r21, 0x00	; 0
    3778:	bc 01       	movw	r22, r24
    377a:	cd 01       	movw	r24, r26
    377c:	0e 94 05 27 	call	0x4e0a	; 0x4e0a <__udivmodsi4>
    3780:	dc 01       	movw	r26, r24
    3782:	cb 01       	movw	r24, r22
    3784:	28 2f       	mov	r18, r24
    3786:	ce 01       	movw	r24, r28
    3788:	02 96       	adiw	r24, 0x02	; 2
    378a:	fc 01       	movw	r30, r24
    378c:	e0 0f       	add	r30, r16
    378e:	f1 1f       	adc	r31, r17
    3790:	20 83       	st	Z, r18
		liczba = liczba / 10;
    3792:	8c 85       	ldd	r24, Y+12	; 0x0c
    3794:	9d 85       	ldd	r25, Y+13	; 0x0d
    3796:	ae 85       	ldd	r26, Y+14	; 0x0e
    3798:	bf 85       	ldd	r27, Y+15	; 0x0f
    379a:	2a e0       	ldi	r18, 0x0A	; 10
    379c:	30 e0       	ldi	r19, 0x00	; 0
    379e:	40 e0       	ldi	r20, 0x00	; 0
    37a0:	50 e0       	ldi	r21, 0x00	; 0
    37a2:	bc 01       	movw	r22, r24
    37a4:	cd 01       	movw	r24, r26
    37a6:	0e 94 05 27 	call	0x4e0a	; 0x4e0a <__udivmodsi4>
    37aa:	da 01       	movw	r26, r20
    37ac:	c9 01       	movw	r24, r18
    37ae:	8c 87       	std	Y+12, r24	; 0x0c
    37b0:	9d 87       	std	Y+13, r25	; 0x0d
    37b2:	ae 87       	std	Y+14, r26	; 0x0e
    37b4:	bf 87       	std	Y+15, r27	; 0x0f
		++i;
    37b6:	89 81       	ldd	r24, Y+1	; 0x01
    37b8:	8f 5f       	subi	r24, 0xFF	; 255
    37ba:	89 83       	std	Y+1, r24	; 0x01
	}
	
	uint8_t cyfra[10] ; 
	int8_t i=0;
	
	while(liczba) {
    37bc:	8c 85       	ldd	r24, Y+12	; 0x0c
    37be:	9d 85       	ldd	r25, Y+13	; 0x0d
    37c0:	ae 85       	ldd	r26, Y+14	; 0x0e
    37c2:	bf 85       	ldd	r27, Y+15	; 0x0f
    37c4:	00 97       	sbiw	r24, 0x00	; 0
    37c6:	a1 05       	cpc	r26, r1
    37c8:	b1 05       	cpc	r27, r1
    37ca:	49 f6       	brne	.-110    	; 0x375e <LcdDec+0x36>
		cyfra[i] = (uint8_t)(liczba%10);
		liczba = liczba / 10;
		++i;
	}
	--i;
    37cc:	89 81       	ldd	r24, Y+1	; 0x01
    37ce:	81 50       	subi	r24, 0x01	; 1
    37d0:	89 83       	std	Y+1, r24	; 0x01
    37d2:	11 c0       	rjmp	.+34     	; 0x37f6 <LcdDec+0xce>

	for(;i>=0;--i) {
		LcdData(cyfra[i]+48);
    37d4:	89 81       	ldd	r24, Y+1	; 0x01
    37d6:	28 2f       	mov	r18, r24
    37d8:	33 27       	eor	r19, r19
    37da:	27 fd       	sbrc	r18, 7
    37dc:	30 95       	com	r19
    37de:	ce 01       	movw	r24, r28
    37e0:	02 96       	adiw	r24, 0x02	; 2
    37e2:	fc 01       	movw	r30, r24
    37e4:	e2 0f       	add	r30, r18
    37e6:	f3 1f       	adc	r31, r19
    37e8:	80 81       	ld	r24, Z
    37ea:	80 5d       	subi	r24, 0xD0	; 208
    37ec:	0e 94 95 18 	call	0x312a	; 0x312a <LcdData>
		liczba = liczba / 10;
		++i;
	}
	--i;

	for(;i>=0;--i) {
    37f0:	89 81       	ldd	r24, Y+1	; 0x01
    37f2:	81 50       	subi	r24, 0x01	; 1
    37f4:	89 83       	std	Y+1, r24	; 0x01
    37f6:	89 81       	ldd	r24, Y+1	; 0x01
    37f8:	88 23       	and	r24, r24
    37fa:	64 f7       	brge	.-40     	; 0x37d4 <LcdDec+0xac>
		LcdData(cyfra[i]+48);
	}  

}
    37fc:	2f 96       	adiw	r28, 0x0f	; 15
    37fe:	cd bf       	out	0x3d, r28	; 61
    3800:	de bf       	out	0x3e, r29	; 62
    3802:	cf 91       	pop	r28
    3804:	df 91       	pop	r29
    3806:	1f 91       	pop	r17
    3808:	0f 91       	pop	r16
    380a:	08 95       	ret

0000380c <__vector_96>:
extern uint16_t AdcResult[7];
volatile uint16_t A = 3500,B = 1750,C = 3500 ,D ,E,F ;
volatile uint8_t Pidindex, ADCindex , test;

ISR(PORTH_INT0_vect)
{
    380c:	1f 92       	push	r1
    380e:	0f 92       	push	r0
    3810:	0f b6       	in	r0, 0x3f	; 63
    3812:	0f 92       	push	r0
    3814:	00 90 38 00 	lds	r0, 0x0038
    3818:	0f 92       	push	r0
    381a:	00 90 3b 00 	lds	r0, 0x003B
    381e:	0f 92       	push	r0
    3820:	11 24       	eor	r1, r1
    3822:	10 92 38 00 	sts	0x0038, r1
    3826:	10 92 3b 00 	sts	0x003B, r1
    382a:	8f 93       	push	r24
    382c:	9f 93       	push	r25
    382e:	ef 93       	push	r30
    3830:	ff 93       	push	r31
    3832:	df 93       	push	r29
    3834:	cf 93       	push	r28
    3836:	cd b7       	in	r28, 0x3d	; 61
    3838:	de b7       	in	r29, 0x3e	; 62

	if (PORTH_IN & PIN1_bm)
    383a:	e8 ee       	ldi	r30, 0xE8	; 232
    383c:	f6 e0       	ldi	r31, 0x06	; 6
    383e:	80 81       	ld	r24, Z
    3840:	88 2f       	mov	r24, r24
    3842:	90 e0       	ldi	r25, 0x00	; 0
    3844:	82 70       	andi	r24, 0x02	; 2
    3846:	90 70       	andi	r25, 0x00	; 0
    3848:	00 97       	sbiw	r24, 0x00	; 0
    384a:	e9 f0       	breq	.+58     	; 0x3886 <__vector_96+0x7a>
	{

		if (PORTH_IN & PIN3_bm ) {	A++;}
    384c:	e8 ee       	ldi	r30, 0xE8	; 232
    384e:	f6 e0       	ldi	r31, 0x06	; 6
    3850:	80 81       	ld	r24, Z
    3852:	88 2f       	mov	r24, r24
    3854:	90 e0       	ldi	r25, 0x00	; 0
    3856:	88 70       	andi	r24, 0x08	; 8
    3858:	90 70       	andi	r25, 0x00	; 0
    385a:	00 97       	sbiw	r24, 0x00	; 0
    385c:	51 f0       	breq	.+20     	; 0x3872 <__vector_96+0x66>
    385e:	80 91 21 21 	lds	r24, 0x2121
    3862:	90 91 22 21 	lds	r25, 0x2122
    3866:	01 96       	adiw	r24, 0x01	; 1
    3868:	80 93 21 21 	sts	0x2121, r24
    386c:	90 93 22 21 	sts	0x2122, r25
    3870:	55 c0       	rjmp	.+170    	; 0x391c <__vector_96+0x110>
		else 	{ 	A--;	}
    3872:	80 91 21 21 	lds	r24, 0x2121
    3876:	90 91 22 21 	lds	r25, 0x2122
    387a:	01 97       	sbiw	r24, 0x01	; 1
    387c:	80 93 21 21 	sts	0x2121, r24
    3880:	90 93 22 21 	sts	0x2122, r25
    3884:	4b c0       	rjmp	.+150    	; 0x391c <__vector_96+0x110>
	}
	else if (PORTH_IN & PIN5_bm)
    3886:	e8 ee       	ldi	r30, 0xE8	; 232
    3888:	f6 e0       	ldi	r31, 0x06	; 6
    388a:	80 81       	ld	r24, Z
    388c:	88 2f       	mov	r24, r24
    388e:	90 e0       	ldi	r25, 0x00	; 0
    3890:	80 72       	andi	r24, 0x20	; 32
    3892:	90 70       	andi	r25, 0x00	; 0
    3894:	00 97       	sbiw	r24, 0x00	; 0
    3896:	e9 f0       	breq	.+58     	; 0x38d2 <__vector_96+0xc6>
	{
		if (PORTH_IN & PIN4_bm)	{	B--;}
    3898:	e8 ee       	ldi	r30, 0xE8	; 232
    389a:	f6 e0       	ldi	r31, 0x06	; 6
    389c:	80 81       	ld	r24, Z
    389e:	88 2f       	mov	r24, r24
    38a0:	90 e0       	ldi	r25, 0x00	; 0
    38a2:	80 71       	andi	r24, 0x10	; 16
    38a4:	90 70       	andi	r25, 0x00	; 0
    38a6:	00 97       	sbiw	r24, 0x00	; 0
    38a8:	51 f0       	breq	.+20     	; 0x38be <__vector_96+0xb2>
    38aa:	80 91 23 21 	lds	r24, 0x2123
    38ae:	90 91 24 21 	lds	r25, 0x2124
    38b2:	01 97       	sbiw	r24, 0x01	; 1
    38b4:	80 93 23 21 	sts	0x2123, r24
    38b8:	90 93 24 21 	sts	0x2124, r25
    38bc:	2f c0       	rjmp	.+94     	; 0x391c <__vector_96+0x110>
		else	{	B++;}
    38be:	80 91 23 21 	lds	r24, 0x2123
    38c2:	90 91 24 21 	lds	r25, 0x2124
    38c6:	01 96       	adiw	r24, 0x01	; 1
    38c8:	80 93 23 21 	sts	0x2123, r24
    38cc:	90 93 24 21 	sts	0x2124, r25
    38d0:	25 c0       	rjmp	.+74     	; 0x391c <__vector_96+0x110>
	}


	else if(PORTH_IN & PIN2_bm)
    38d2:	e8 ee       	ldi	r30, 0xE8	; 232
    38d4:	f6 e0       	ldi	r31, 0x06	; 6
    38d6:	80 81       	ld	r24, Z
    38d8:	88 2f       	mov	r24, r24
    38da:	90 e0       	ldi	r25, 0x00	; 0
    38dc:	84 70       	andi	r24, 0x04	; 4
    38de:	90 70       	andi	r25, 0x00	; 0
    38e0:	00 97       	sbiw	r24, 0x00	; 0
    38e2:	e1 f0       	breq	.+56     	; 0x391c <__vector_96+0x110>
	{
		if (PORTH_IN & PIN0_bm)	{	C++;}
    38e4:	e8 ee       	ldi	r30, 0xE8	; 232
    38e6:	f6 e0       	ldi	r31, 0x06	; 6
    38e8:	80 81       	ld	r24, Z
    38ea:	88 2f       	mov	r24, r24
    38ec:	90 e0       	ldi	r25, 0x00	; 0
    38ee:	81 70       	andi	r24, 0x01	; 1
    38f0:	90 70       	andi	r25, 0x00	; 0
    38f2:	88 23       	and	r24, r24
    38f4:	51 f0       	breq	.+20     	; 0x390a <__vector_96+0xfe>
    38f6:	80 91 25 21 	lds	r24, 0x2125
    38fa:	90 91 26 21 	lds	r25, 0x2126
    38fe:	01 96       	adiw	r24, 0x01	; 1
    3900:	80 93 25 21 	sts	0x2125, r24
    3904:	90 93 26 21 	sts	0x2126, r25
    3908:	09 c0       	rjmp	.+18     	; 0x391c <__vector_96+0x110>
		else	{	C--; }
    390a:	80 91 25 21 	lds	r24, 0x2125
    390e:	90 91 26 21 	lds	r25, 0x2126
    3912:	01 97       	sbiw	r24, 0x01	; 1
    3914:	80 93 25 21 	sts	0x2125, r24
    3918:	90 93 26 21 	sts	0x2126, r25
	}

}
    391c:	cf 91       	pop	r28
    391e:	df 91       	pop	r29
    3920:	ff 91       	pop	r31
    3922:	ef 91       	pop	r30
    3924:	9f 91       	pop	r25
    3926:	8f 91       	pop	r24
    3928:	0f 90       	pop	r0
    392a:	00 92 3b 00 	sts	0x003B, r0
    392e:	0f 90       	pop	r0
    3930:	00 92 38 00 	sts	0x0038, r0
    3934:	0f 90       	pop	r0
    3936:	0f be       	out	0x3f, r0	; 63
    3938:	0f 90       	pop	r0
    393a:	1f 90       	pop	r1
    393c:	18 95       	reti

0000393e <__vector_20>:
	}

} */

ISR (TCC1_OVF_vect)
{
    393e:	1f 92       	push	r1
    3940:	0f 92       	push	r0
    3942:	0f b6       	in	r0, 0x3f	; 63
    3944:	0f 92       	push	r0
    3946:	00 90 38 00 	lds	r0, 0x0038
    394a:	0f 92       	push	r0
    394c:	00 90 39 00 	lds	r0, 0x0039
    3950:	0f 92       	push	r0
    3952:	00 90 3b 00 	lds	r0, 0x003B
    3956:	0f 92       	push	r0
    3958:	11 24       	eor	r1, r1
    395a:	10 92 38 00 	sts	0x0038, r1
    395e:	10 92 39 00 	sts	0x0039, r1
    3962:	10 92 3b 00 	sts	0x003B, r1
    3966:	2f 93       	push	r18
    3968:	3f 93       	push	r19
    396a:	4f 93       	push	r20
    396c:	5f 93       	push	r21
    396e:	6f 93       	push	r22
    3970:	7f 93       	push	r23
    3972:	8f 93       	push	r24
    3974:	9f 93       	push	r25
    3976:	af 93       	push	r26
    3978:	bf 93       	push	r27
    397a:	ef 93       	push	r30
    397c:	ff 93       	push	r31
    397e:	df 93       	push	r29
    3980:	cf 93       	push	r28
    3982:	cd b7       	in	r28, 0x3d	; 61
    3984:	de b7       	in	r29, 0x3e	; 62
	TCC1.CNT = 65035  ; /*0,05s65235*/
    3986:	e0 e4       	ldi	r30, 0x40	; 64
    3988:	f8 e0       	ldi	r31, 0x08	; 8
    398a:	8b e0       	ldi	r24, 0x0B	; 11
    398c:	9e ef       	ldi	r25, 0xFE	; 254
    398e:	80 a3       	std	Z+32, r24	; 0x20
    3990:	91 a3       	std	Z+33, r25	; 0x21

	if (Pidindex == 3)
    3992:	80 91 4f 21 	lds	r24, 0x214F
    3996:	83 30       	cpi	r24, 0x03	; 3
    3998:	11 f4       	brne	.+4      	; 0x399e <__vector_20+0x60>
	{
		Pidindex = 0;
    399a:	10 92 4f 21 	sts	0x214F, r1
	}
	PID1();
    399e:	0e 94 b4 0c 	call	0x1968	; 0x1968 <PID1>
	PID2();
    39a2:	0e 94 a4 10 	call	0x2148	; 0x2148 <PID2>
	//PID(Pidindex);
	//Pidindex++;


}
    39a6:	cf 91       	pop	r28
    39a8:	df 91       	pop	r29
    39aa:	ff 91       	pop	r31
    39ac:	ef 91       	pop	r30
    39ae:	bf 91       	pop	r27
    39b0:	af 91       	pop	r26
    39b2:	9f 91       	pop	r25
    39b4:	8f 91       	pop	r24
    39b6:	7f 91       	pop	r23
    39b8:	6f 91       	pop	r22
    39ba:	5f 91       	pop	r21
    39bc:	4f 91       	pop	r20
    39be:	3f 91       	pop	r19
    39c0:	2f 91       	pop	r18
    39c2:	0f 90       	pop	r0
    39c4:	00 92 3b 00 	sts	0x003B, r0
    39c8:	0f 90       	pop	r0
    39ca:	00 92 39 00 	sts	0x0039, r0
    39ce:	0f 90       	pop	r0
    39d0:	00 92 38 00 	sts	0x0038, r0
    39d4:	0f 90       	pop	r0
    39d6:	0f be       	out	0x3f, r0	; 63
    39d8:	0f 90       	pop	r0
    39da:	1f 90       	pop	r1
    39dc:	18 95       	reti

000039de <__vector_28>:
	//LcdClear();
	//LcdDec(AdcResult[2]);
//}

ISR (USARTC1_RXC_vect)
{
    39de:	1f 92       	push	r1
    39e0:	0f 92       	push	r0
    39e2:	0f b6       	in	r0, 0x3f	; 63
    39e4:	0f 92       	push	r0
    39e6:	00 90 38 00 	lds	r0, 0x0038
    39ea:	0f 92       	push	r0
    39ec:	00 90 39 00 	lds	r0, 0x0039
    39f0:	0f 92       	push	r0
    39f2:	00 90 3b 00 	lds	r0, 0x003B
    39f6:	0f 92       	push	r0
    39f8:	11 24       	eor	r1, r1
    39fa:	10 92 38 00 	sts	0x0038, r1
    39fe:	10 92 39 00 	sts	0x0039, r1
    3a02:	10 92 3b 00 	sts	0x003B, r1
    3a06:	2f 93       	push	r18
    3a08:	3f 93       	push	r19
    3a0a:	4f 93       	push	r20
    3a0c:	5f 93       	push	r21
    3a0e:	6f 93       	push	r22
    3a10:	7f 93       	push	r23
    3a12:	8f 93       	push	r24
    3a14:	9f 93       	push	r25
    3a16:	af 93       	push	r26
    3a18:	bf 93       	push	r27
    3a1a:	ef 93       	push	r30
    3a1c:	ff 93       	push	r31
    3a1e:	df 93       	push	r29
    3a20:	cf 93       	push	r28
    3a22:	cd b7       	in	r28, 0x3d	; 61
    3a24:	de b7       	in	r29, 0x3e	; 62
	USART_MergingData();
    3a26:	0e 94 76 20 	call	0x40ec	; 0x40ec <USART_MergingData>
}
    3a2a:	cf 91       	pop	r28
    3a2c:	df 91       	pop	r29
    3a2e:	ff 91       	pop	r31
    3a30:	ef 91       	pop	r30
    3a32:	bf 91       	pop	r27
    3a34:	af 91       	pop	r26
    3a36:	9f 91       	pop	r25
    3a38:	8f 91       	pop	r24
    3a3a:	7f 91       	pop	r23
    3a3c:	6f 91       	pop	r22
    3a3e:	5f 91       	pop	r21
    3a40:	4f 91       	pop	r20
    3a42:	3f 91       	pop	r19
    3a44:	2f 91       	pop	r18
    3a46:	0f 90       	pop	r0
    3a48:	00 92 3b 00 	sts	0x003B, r0
    3a4c:	0f 90       	pop	r0
    3a4e:	00 92 39 00 	sts	0x0039, r0
    3a52:	0f 90       	pop	r0
    3a54:	00 92 38 00 	sts	0x0038, r0
    3a58:	0f 90       	pop	r0
    3a5a:	0f be       	out	0x3f, r0	; 63
    3a5c:	0f 90       	pop	r0
    3a5e:	1f 90       	pop	r1
    3a60:	18 95       	reti

00003a62 <main>:
#include "usart.h"
#include "PcComands.h"
#include "Adc.h"

int main(void)
{
    3a62:	df 93       	push	r29
    3a64:	cf 93       	push	r28
    3a66:	cd b7       	in	r28, 0x3d	; 61
    3a68:	de b7       	in	r29, 0x3e	; 62
    3a6a:	2e 97       	sbiw	r28, 0x0e	; 14
    3a6c:	cd bf       	out	0x3d, r28	; 61
    3a6e:	de bf       	out	0x3e, r29	; 62
	PortConfing();
    3a70:	0e 94 35 02 	call	0x46a	; 0x46a <PortConfing>
		LcdInit();
    3a74:	0e 94 89 19 	call	0x3312	; 0x3312 <LcdInit>
		LCDWelcomeTxt();
    3a78:	0e 94 b0 09 	call	0x1360	; 0x1360 <LCDWelcomeTxt>
	while(1)
	{
	if (ButtonOK)
    3a7c:	e0 e2       	ldi	r30, 0x20	; 32
    3a7e:	f7 e0       	ldi	r31, 0x07	; 7
    3a80:	80 85       	ldd	r24, Z+8	; 0x08
    3a82:	88 23       	and	r24, r24
    3a84:	dc f3       	brlt	.-10     	; 0x3a7c <main+0x1a>
	{
		PortConfing();
    3a86:	0e 94 35 02 	call	0x46a	; 0x46a <PortConfing>
		setClockTo32MHz();
    3a8a:	0e 94 e9 01 	call	0x3d2	; 0x3d2 <setClockTo32MHz>
		UsartInit();
    3a8e:	0e 94 bb 02 	call	0x576	; 0x576 <UsartInit>

		InterruptConfing();
    3a92:	0e 94 88 02 	call	0x510	; 0x510 <InterruptConfing>
		//AdcConfig();
		//PIDDefParameters();
		sei();
    3a96:	78 94       	sei
		LcdInit();
    3a98:	0e 94 89 19 	call	0x3312	; 0x3312 <LcdInit>
		TimerConfing();
    3a9c:	0e 94 09 02 	call	0x412	; 0x412 <TimerConfing>

			while(1)
			{
				ButtonState();
    3aa0:	0e 94 13 03 	call	0x626	; 0x626 <ButtonState>
			USART_send_int(&USARTC1,54);
    3aa4:	80 eb       	ldi	r24, 0xB0	; 176
    3aa6:	98 e0       	ldi	r25, 0x08	; 8
    3aa8:	66 e3       	ldi	r22, 0x36	; 54
    3aaa:	70 e0       	ldi	r23, 0x00	; 0
    3aac:	0e 94 4d 20 	call	0x409a	; 0x409a <USART_send_int>
    3ab0:	80 e0       	ldi	r24, 0x00	; 0
    3ab2:	90 e0       	ldi	r25, 0x00	; 0
    3ab4:	a0 e2       	ldi	r26, 0x20	; 32
    3ab6:	b1 e4       	ldi	r27, 0x41	; 65
    3ab8:	8b 87       	std	Y+11, r24	; 0x0b
    3aba:	9c 87       	std	Y+12, r25	; 0x0c
    3abc:	ad 87       	std	Y+13, r26	; 0x0d
    3abe:	be 87       	std	Y+14, r27	; 0x0e
 */
void
_delay_ms(double __ms)
{
	uint16_t __ticks;
	double __tmp = ((F_CPU) / 4e3) * __ms;
    3ac0:	6b 85       	ldd	r22, Y+11	; 0x0b
    3ac2:	7c 85       	ldd	r23, Y+12	; 0x0c
    3ac4:	8d 85       	ldd	r24, Y+13	; 0x0d
    3ac6:	9e 85       	ldd	r25, Y+14	; 0x0e
    3ac8:	20 e0       	ldi	r18, 0x00	; 0
    3aca:	30 e0       	ldi	r19, 0x00	; 0
    3acc:	4a ef       	ldi	r20, 0xFA	; 250
    3ace:	55 e4       	ldi	r21, 0x45	; 69
    3ad0:	0e 94 b6 22 	call	0x456c	; 0x456c <__mulsf3>
    3ad4:	dc 01       	movw	r26, r24
    3ad6:	cb 01       	movw	r24, r22
    3ad8:	8f 83       	std	Y+7, r24	; 0x07
    3ada:	98 87       	std	Y+8, r25	; 0x08
    3adc:	a9 87       	std	Y+9, r26	; 0x09
    3ade:	ba 87       	std	Y+10, r27	; 0x0a
	if (__tmp < 1.0)
    3ae0:	6f 81       	ldd	r22, Y+7	; 0x07
    3ae2:	78 85       	ldd	r23, Y+8	; 0x08
    3ae4:	89 85       	ldd	r24, Y+9	; 0x09
    3ae6:	9a 85       	ldd	r25, Y+10	; 0x0a
    3ae8:	20 e0       	ldi	r18, 0x00	; 0
    3aea:	30 e0       	ldi	r19, 0x00	; 0
    3aec:	40 e8       	ldi	r20, 0x80	; 128
    3aee:	5f e3       	ldi	r21, 0x3F	; 63
    3af0:	0e 94 bc 24 	call	0x4978	; 0x4978 <__ltsf2>
    3af4:	88 23       	and	r24, r24
    3af6:	2c f4       	brge	.+10     	; 0x3b02 <main+0xa0>
		__ticks = 1;
    3af8:	81 e0       	ldi	r24, 0x01	; 1
    3afa:	90 e0       	ldi	r25, 0x00	; 0
    3afc:	8d 83       	std	Y+5, r24	; 0x05
    3afe:	9e 83       	std	Y+6, r25	; 0x06
    3b00:	3f c0       	rjmp	.+126    	; 0x3b80 <main+0x11e>
	else if (__tmp > 65535)
    3b02:	6f 81       	ldd	r22, Y+7	; 0x07
    3b04:	78 85       	ldd	r23, Y+8	; 0x08
    3b06:	89 85       	ldd	r24, Y+9	; 0x09
    3b08:	9a 85       	ldd	r25, Y+10	; 0x0a
    3b0a:	20 e0       	ldi	r18, 0x00	; 0
    3b0c:	3f ef       	ldi	r19, 0xFF	; 255
    3b0e:	4f e7       	ldi	r20, 0x7F	; 127
    3b10:	57 e4       	ldi	r21, 0x47	; 71
    3b12:	0e 94 5c 24 	call	0x48b8	; 0x48b8 <__gtsf2>
    3b16:	18 16       	cp	r1, r24
    3b18:	4c f5       	brge	.+82     	; 0x3b6c <main+0x10a>
	{
		//	__ticks = requested delay in 1/10 ms
		__ticks = (uint16_t) (__ms * 10.0);
    3b1a:	6b 85       	ldd	r22, Y+11	; 0x0b
    3b1c:	7c 85       	ldd	r23, Y+12	; 0x0c
    3b1e:	8d 85       	ldd	r24, Y+13	; 0x0d
    3b20:	9e 85       	ldd	r25, Y+14	; 0x0e
    3b22:	20 e0       	ldi	r18, 0x00	; 0
    3b24:	30 e0       	ldi	r19, 0x00	; 0
    3b26:	40 e2       	ldi	r20, 0x20	; 32
    3b28:	51 e4       	ldi	r21, 0x41	; 65
    3b2a:	0e 94 b6 22 	call	0x456c	; 0x456c <__mulsf3>
    3b2e:	dc 01       	movw	r26, r24
    3b30:	cb 01       	movw	r24, r22
    3b32:	bc 01       	movw	r22, r24
    3b34:	cd 01       	movw	r24, r26
    3b36:	0e 94 e0 20 	call	0x41c0	; 0x41c0 <__fixunssfsi>
    3b3a:	dc 01       	movw	r26, r24
    3b3c:	cb 01       	movw	r24, r22
    3b3e:	8d 83       	std	Y+5, r24	; 0x05
    3b40:	9e 83       	std	Y+6, r25	; 0x06
    3b42:	0f c0       	rjmp	.+30     	; 0x3b62 <main+0x100>
    3b44:	80 e2       	ldi	r24, 0x20	; 32
    3b46:	93 e0       	ldi	r25, 0x03	; 3
    3b48:	8b 83       	std	Y+3, r24	; 0x03
    3b4a:	9c 83       	std	Y+4, r25	; 0x04
    3b4c:	8b 81       	ldd	r24, Y+3	; 0x03
    3b4e:	9c 81       	ldd	r25, Y+4	; 0x04
    3b50:	01 97       	sbiw	r24, 0x01	; 1
    3b52:	f1 f7       	brne	.-4      	; 0x3b50 <main+0xee>
    3b54:	8b 83       	std	Y+3, r24	; 0x03
    3b56:	9c 83       	std	Y+4, r25	; 0x04
		while(__ticks)
		{
			// wait 1/10 ms
			_delay_loop_2(((F_CPU) / 4e3) / 10);
			__ticks --;
    3b58:	8d 81       	ldd	r24, Y+5	; 0x05
    3b5a:	9e 81       	ldd	r25, Y+6	; 0x06
    3b5c:	01 97       	sbiw	r24, 0x01	; 1
    3b5e:	8d 83       	std	Y+5, r24	; 0x05
    3b60:	9e 83       	std	Y+6, r25	; 0x06
		__ticks = 1;
	else if (__tmp > 65535)
	{
		//	__ticks = requested delay in 1/10 ms
		__ticks = (uint16_t) (__ms * 10.0);
		while(__ticks)
    3b62:	8d 81       	ldd	r24, Y+5	; 0x05
    3b64:	9e 81       	ldd	r25, Y+6	; 0x06
    3b66:	00 97       	sbiw	r24, 0x00	; 0
    3b68:	69 f7       	brne	.-38     	; 0x3b44 <main+0xe2>
    3b6a:	9a cf       	rjmp	.-204    	; 0x3aa0 <main+0x3e>
			__ticks --;
		}
		return;
	}
	else
		__ticks = (uint16_t)__tmp;
    3b6c:	6f 81       	ldd	r22, Y+7	; 0x07
    3b6e:	78 85       	ldd	r23, Y+8	; 0x08
    3b70:	89 85       	ldd	r24, Y+9	; 0x09
    3b72:	9a 85       	ldd	r25, Y+10	; 0x0a
    3b74:	0e 94 e0 20 	call	0x41c0	; 0x41c0 <__fixunssfsi>
    3b78:	dc 01       	movw	r26, r24
    3b7a:	cb 01       	movw	r24, r22
    3b7c:	8d 83       	std	Y+5, r24	; 0x05
    3b7e:	9e 83       	std	Y+6, r25	; 0x06
    3b80:	8d 81       	ldd	r24, Y+5	; 0x05
    3b82:	9e 81       	ldd	r25, Y+6	; 0x06
    3b84:	89 83       	std	Y+1, r24	; 0x01
    3b86:	9a 83       	std	Y+2, r25	; 0x02
    3b88:	89 81       	ldd	r24, Y+1	; 0x01
    3b8a:	9a 81       	ldd	r25, Y+2	; 0x02
    3b8c:	01 97       	sbiw	r24, 0x01	; 1
    3b8e:	f1 f7       	brne	.-4      	; 0x3b8c <main+0x12a>
    3b90:	89 83       	std	Y+1, r24	; 0x01
    3b92:	9a 83       	std	Y+2, r25	; 0x02
    3b94:	85 cf       	rjmp	.-246    	; 0x3aa0 <main+0x3e>

00003b96 <usart_set_baudrate>:
 uint16_t usart_data;
 extern uint16_t usart_buffer[40];
 uint8_t buf_index =0;

bool usart_set_baudrate(USART_t * const usart, uint32_t baud, uint32_t cpu_hz)
{
    3b96:	ef 92       	push	r14
    3b98:	ff 92       	push	r15
    3b9a:	0f 93       	push	r16
    3b9c:	1f 93       	push	r17
    3b9e:	df 93       	push	r29
    3ba0:	cf 93       	push	r28
    3ba2:	cd b7       	in	r28, 0x3d	; 61
    3ba4:	de b7       	in	r29, 0x3e	; 62
    3ba6:	a0 97       	sbiw	r28, 0x20	; 32
    3ba8:	cd bf       	out	0x3d, r28	; 61
    3baa:	de bf       	out	0x3e, r29	; 62
    3bac:	8e 8b       	std	Y+22, r24	; 0x16
    3bae:	9f 8b       	std	Y+23, r25	; 0x17
    3bb0:	48 8f       	std	Y+24, r20	; 0x18
    3bb2:	59 8f       	std	Y+25, r21	; 0x19
    3bb4:	6a 8f       	std	Y+26, r22	; 0x1a
    3bb6:	7b 8f       	std	Y+27, r23	; 0x1b
    3bb8:	0c 8f       	std	Y+28, r16	; 0x1c
    3bba:	1d 8f       	std	Y+29, r17	; 0x1d
    3bbc:	2e 8f       	std	Y+30, r18	; 0x1e
    3bbe:	3f 8f       	std	Y+31, r19	; 0x1f

	/*
	 * Check if the hardware supports the given baud rate
	 */
	/* 8 = (2^0) * 8 * (2^0) = (2^BSCALE_MIN) * 8 * (BSEL_MIN) */
	max_rate = cpu_hz / 8;
    3bc0:	8c 8d       	ldd	r24, Y+28	; 0x1c
    3bc2:	9d 8d       	ldd	r25, Y+29	; 0x1d
    3bc4:	ae 8d       	ldd	r26, Y+30	; 0x1e
    3bc6:	bf 8d       	ldd	r27, Y+31	; 0x1f
    3bc8:	68 94       	set
    3bca:	12 f8       	bld	r1, 2
    3bcc:	b6 95       	lsr	r27
    3bce:	a7 95       	ror	r26
    3bd0:	97 95       	ror	r25
    3bd2:	87 95       	ror	r24
    3bd4:	16 94       	lsr	r1
    3bd6:	d1 f7       	brne	.-12     	; 0x3bcc <usart_set_baudrate+0x36>
    3bd8:	89 83       	std	Y+1, r24	; 0x01
    3bda:	9a 83       	std	Y+2, r25	; 0x02
    3bdc:	ab 83       	std	Y+3, r26	; 0x03
    3bde:	bc 83       	std	Y+4, r27	; 0x04
	/* 4194304 = (2^7) * 8 * (2^12) = (2^BSCALE_MAX) * 8 * (BSEL_MAX+1) */
	min_rate = cpu_hz / 4194304;
    3be0:	8c 8d       	ldd	r24, Y+28	; 0x1c
    3be2:	9d 8d       	ldd	r25, Y+29	; 0x1d
    3be4:	ae 8d       	ldd	r26, Y+30	; 0x1e
    3be6:	bf 8d       	ldd	r27, Y+31	; 0x1f
    3be8:	07 2e       	mov	r0, r23
    3bea:	76 e1       	ldi	r23, 0x16	; 22
    3bec:	b6 95       	lsr	r27
    3bee:	a7 95       	ror	r26
    3bf0:	97 95       	ror	r25
    3bf2:	87 95       	ror	r24
    3bf4:	7a 95       	dec	r23
    3bf6:	d1 f7       	brne	.-12     	; 0x3bec <usart_set_baudrate+0x56>
    3bf8:	70 2d       	mov	r23, r0
    3bfa:	8d 83       	std	Y+5, r24	; 0x05
    3bfc:	9e 83       	std	Y+6, r25	; 0x06
    3bfe:	af 83       	std	Y+7, r26	; 0x07
    3c00:	b8 87       	std	Y+8, r27	; 0x08

	if (!((usart)->CTRLB & USART_CLK2X_bm)) {
    3c02:	ee 89       	ldd	r30, Y+22	; 0x16
    3c04:	ff 89       	ldd	r31, Y+23	; 0x17
    3c06:	84 81       	ldd	r24, Z+4	; 0x04
    3c08:	88 2f       	mov	r24, r24
    3c0a:	90 e0       	ldi	r25, 0x00	; 0
    3c0c:	84 70       	andi	r24, 0x04	; 4
    3c0e:	90 70       	andi	r25, 0x00	; 0
    3c10:	00 97       	sbiw	r24, 0x00	; 0
    3c12:	c1 f4       	brne	.+48     	; 0x3c44 <usart_set_baudrate+0xae>
		max_rate /= 2;
    3c14:	89 81       	ldd	r24, Y+1	; 0x01
    3c16:	9a 81       	ldd	r25, Y+2	; 0x02
    3c18:	ab 81       	ldd	r26, Y+3	; 0x03
    3c1a:	bc 81       	ldd	r27, Y+4	; 0x04
    3c1c:	b6 95       	lsr	r27
    3c1e:	a7 95       	ror	r26
    3c20:	97 95       	ror	r25
    3c22:	87 95       	ror	r24
    3c24:	89 83       	std	Y+1, r24	; 0x01
    3c26:	9a 83       	std	Y+2, r25	; 0x02
    3c28:	ab 83       	std	Y+3, r26	; 0x03
    3c2a:	bc 83       	std	Y+4, r27	; 0x04
		min_rate /= 2;
    3c2c:	8d 81       	ldd	r24, Y+5	; 0x05
    3c2e:	9e 81       	ldd	r25, Y+6	; 0x06
    3c30:	af 81       	ldd	r26, Y+7	; 0x07
    3c32:	b8 85       	ldd	r27, Y+8	; 0x08
    3c34:	b6 95       	lsr	r27
    3c36:	a7 95       	ror	r26
    3c38:	97 95       	ror	r25
    3c3a:	87 95       	ror	r24
    3c3c:	8d 83       	std	Y+5, r24	; 0x05
    3c3e:	9e 83       	std	Y+6, r25	; 0x06
    3c40:	af 83       	std	Y+7, r26	; 0x07
    3c42:	b8 87       	std	Y+8, r27	; 0x08
	}

	if ((baud > max_rate) || (baud < min_rate)) {
    3c44:	28 8d       	ldd	r18, Y+24	; 0x18
    3c46:	39 8d       	ldd	r19, Y+25	; 0x19
    3c48:	4a 8d       	ldd	r20, Y+26	; 0x1a
    3c4a:	5b 8d       	ldd	r21, Y+27	; 0x1b
    3c4c:	89 81       	ldd	r24, Y+1	; 0x01
    3c4e:	9a 81       	ldd	r25, Y+2	; 0x02
    3c50:	ab 81       	ldd	r26, Y+3	; 0x03
    3c52:	bc 81       	ldd	r27, Y+4	; 0x04
    3c54:	82 17       	cp	r24, r18
    3c56:	93 07       	cpc	r25, r19
    3c58:	a4 07       	cpc	r26, r20
    3c5a:	b5 07       	cpc	r27, r21
    3c5c:	68 f0       	brcs	.+26     	; 0x3c78 <usart_set_baudrate+0xe2>
    3c5e:	28 8d       	ldd	r18, Y+24	; 0x18
    3c60:	39 8d       	ldd	r19, Y+25	; 0x19
    3c62:	4a 8d       	ldd	r20, Y+26	; 0x1a
    3c64:	5b 8d       	ldd	r21, Y+27	; 0x1b
    3c66:	8d 81       	ldd	r24, Y+5	; 0x05
    3c68:	9e 81       	ldd	r25, Y+6	; 0x06
    3c6a:	af 81       	ldd	r26, Y+7	; 0x07
    3c6c:	b8 85       	ldd	r27, Y+8	; 0x08
    3c6e:	28 17       	cp	r18, r24
    3c70:	39 07       	cpc	r19, r25
    3c72:	4a 07       	cpc	r20, r26
    3c74:	5b 07       	cpc	r21, r27
    3c76:	10 f4       	brcc	.+4      	; 0x3c7c <usart_set_baudrate+0xe6>
		return false;
    3c78:	18 a2       	std	Y+32, r1	; 0x20
    3c7a:	3e c1       	rjmp	.+636    	; 0x3ef8 <usart_set_baudrate+0x362>
	}

	/* Check if double speed is enabled. */
	if (!((usart)->CTRLB & USART_CLK2X_bm)) {
    3c7c:	ee 89       	ldd	r30, Y+22	; 0x16
    3c7e:	ff 89       	ldd	r31, Y+23	; 0x17
    3c80:	84 81       	ldd	r24, Z+4	; 0x04
    3c82:	88 2f       	mov	r24, r24
    3c84:	90 e0       	ldi	r25, 0x00	; 0
    3c86:	84 70       	andi	r24, 0x04	; 4
    3c88:	90 70       	andi	r25, 0x00	; 0
    3c8a:	00 97       	sbiw	r24, 0x00	; 0
    3c8c:	61 f4       	brne	.+24     	; 0x3ca6 <usart_set_baudrate+0x110>
		baud *= 2;
    3c8e:	88 8d       	ldd	r24, Y+24	; 0x18
    3c90:	99 8d       	ldd	r25, Y+25	; 0x19
    3c92:	aa 8d       	ldd	r26, Y+26	; 0x1a
    3c94:	bb 8d       	ldd	r27, Y+27	; 0x1b
    3c96:	88 0f       	add	r24, r24
    3c98:	99 1f       	adc	r25, r25
    3c9a:	aa 1f       	adc	r26, r26
    3c9c:	bb 1f       	adc	r27, r27
    3c9e:	88 8f       	std	Y+24, r24	; 0x18
    3ca0:	99 8f       	std	Y+25, r25	; 0x19
    3ca2:	aa 8f       	std	Y+26, r26	; 0x1a
    3ca4:	bb 8f       	std	Y+27, r27	; 0x1b
	}

	/* Find the lowest possible exponent. */
	limit = 0xfffU >> 4;
    3ca6:	8f ef       	ldi	r24, 0xFF	; 255
    3ca8:	90 e0       	ldi	r25, 0x00	; 0
    3caa:	a0 e0       	ldi	r26, 0x00	; 0
    3cac:	b0 e0       	ldi	r27, 0x00	; 0
    3cae:	8d 87       	std	Y+13, r24	; 0x0d
    3cb0:	9e 87       	std	Y+14, r25	; 0x0e
    3cb2:	af 87       	std	Y+15, r26	; 0x0f
    3cb4:	b8 8b       	std	Y+16, r27	; 0x10
	ratio = cpu_hz / baud;
    3cb6:	8c 8d       	ldd	r24, Y+28	; 0x1c
    3cb8:	9d 8d       	ldd	r25, Y+29	; 0x1d
    3cba:	ae 8d       	ldd	r26, Y+30	; 0x1e
    3cbc:	bf 8d       	ldd	r27, Y+31	; 0x1f
    3cbe:	28 8d       	ldd	r18, Y+24	; 0x18
    3cc0:	39 8d       	ldd	r19, Y+25	; 0x19
    3cc2:	4a 8d       	ldd	r20, Y+26	; 0x1a
    3cc4:	5b 8d       	ldd	r21, Y+27	; 0x1b
    3cc6:	bc 01       	movw	r22, r24
    3cc8:	cd 01       	movw	r24, r26
    3cca:	0e 94 05 27 	call	0x4e0a	; 0x4e0a <__udivmodsi4>
    3cce:	da 01       	movw	r26, r20
    3cd0:	c9 01       	movw	r24, r18
    3cd2:	89 87       	std	Y+9, r24	; 0x09
    3cd4:	9a 87       	std	Y+10, r25	; 0x0a
    3cd6:	ab 87       	std	Y+11, r26	; 0x0b
    3cd8:	bc 87       	std	Y+12, r27	; 0x0c

	for (exp = -7; exp < 7; exp++) {
    3cda:	89 ef       	ldi	r24, 0xF9	; 249
    3cdc:	8d 8b       	std	Y+21, r24	; 0x15
    3cde:	28 c0       	rjmp	.+80     	; 0x3d30 <usart_set_baudrate+0x19a>
		if (ratio < limit) {
    3ce0:	29 85       	ldd	r18, Y+9	; 0x09
    3ce2:	3a 85       	ldd	r19, Y+10	; 0x0a
    3ce4:	4b 85       	ldd	r20, Y+11	; 0x0b
    3ce6:	5c 85       	ldd	r21, Y+12	; 0x0c
    3ce8:	8d 85       	ldd	r24, Y+13	; 0x0d
    3cea:	9e 85       	ldd	r25, Y+14	; 0x0e
    3cec:	af 85       	ldd	r26, Y+15	; 0x0f
    3cee:	b8 89       	ldd	r27, Y+16	; 0x10
    3cf0:	28 17       	cp	r18, r24
    3cf2:	39 07       	cpc	r19, r25
    3cf4:	4a 07       	cpc	r20, r26
    3cf6:	5b 07       	cpc	r21, r27
    3cf8:	f0 f0       	brcs	.+60     	; 0x3d36 <usart_set_baudrate+0x1a0>
			break;
		}

		limit <<= 1;
    3cfa:	8d 85       	ldd	r24, Y+13	; 0x0d
    3cfc:	9e 85       	ldd	r25, Y+14	; 0x0e
    3cfe:	af 85       	ldd	r26, Y+15	; 0x0f
    3d00:	b8 89       	ldd	r27, Y+16	; 0x10
    3d02:	88 0f       	add	r24, r24
    3d04:	99 1f       	adc	r25, r25
    3d06:	aa 1f       	adc	r26, r26
    3d08:	bb 1f       	adc	r27, r27
    3d0a:	8d 87       	std	Y+13, r24	; 0x0d
    3d0c:	9e 87       	std	Y+14, r25	; 0x0e
    3d0e:	af 87       	std	Y+15, r26	; 0x0f
    3d10:	b8 8b       	std	Y+16, r27	; 0x10

		if (exp < -3) {
    3d12:	8d 89       	ldd	r24, Y+21	; 0x15
    3d14:	8d 3f       	cpi	r24, 0xFD	; 253
    3d16:	4c f4       	brge	.+18     	; 0x3d2a <usart_set_baudrate+0x194>
			limit |= 1;
    3d18:	8d 85       	ldd	r24, Y+13	; 0x0d
    3d1a:	9e 85       	ldd	r25, Y+14	; 0x0e
    3d1c:	af 85       	ldd	r26, Y+15	; 0x0f
    3d1e:	b8 89       	ldd	r27, Y+16	; 0x10
    3d20:	81 60       	ori	r24, 0x01	; 1
    3d22:	8d 87       	std	Y+13, r24	; 0x0d
    3d24:	9e 87       	std	Y+14, r25	; 0x0e
    3d26:	af 87       	std	Y+15, r26	; 0x0f
    3d28:	b8 8b       	std	Y+16, r27	; 0x10

	/* Find the lowest possible exponent. */
	limit = 0xfffU >> 4;
	ratio = cpu_hz / baud;

	for (exp = -7; exp < 7; exp++) {
    3d2a:	8d 89       	ldd	r24, Y+21	; 0x15
    3d2c:	8f 5f       	subi	r24, 0xFF	; 255
    3d2e:	8d 8b       	std	Y+21, r24	; 0x15
    3d30:	8d 89       	ldd	r24, Y+21	; 0x15
    3d32:	87 30       	cpi	r24, 0x07	; 7
    3d34:	ac f2       	brlt	.-86     	; 0x3ce0 <usart_set_baudrate+0x14a>
	 * point.
	 *
	 * The formula for calculating BSEL is slightly different when exp is
	 * negative than it is when exp is positive.
	 */
	if (exp < 0) {
    3d36:	8d 89       	ldd	r24, Y+21	; 0x15
    3d38:	88 23       	and	r24, r24
    3d3a:	0c f0       	brlt	.+2      	; 0x3d3e <usart_set_baudrate+0x1a8>
    3d3c:	8d c0       	rjmp	.+282    	; 0x3e58 <usart_set_baudrate+0x2c2>
		/* We are supposed to subtract 1, then apply BSCALE. We want to
		 * apply BSCALE first, so we need to turn everything inside the
		 * parenthesis into a single fractional expression.
		 */
		cpu_hz -= 8 * baud;
    3d3e:	88 8d       	ldd	r24, Y+24	; 0x18
    3d40:	99 8d       	ldd	r25, Y+25	; 0x19
    3d42:	aa 8d       	ldd	r26, Y+26	; 0x1a
    3d44:	bb 8d       	ldd	r27, Y+27	; 0x1b
    3d46:	88 0f       	add	r24, r24
    3d48:	99 1f       	adc	r25, r25
    3d4a:	aa 1f       	adc	r26, r26
    3d4c:	bb 1f       	adc	r27, r27
    3d4e:	88 0f       	add	r24, r24
    3d50:	99 1f       	adc	r25, r25
    3d52:	aa 1f       	adc	r26, r26
    3d54:	bb 1f       	adc	r27, r27
    3d56:	88 0f       	add	r24, r24
    3d58:	99 1f       	adc	r25, r25
    3d5a:	aa 1f       	adc	r26, r26
    3d5c:	bb 1f       	adc	r27, r27
    3d5e:	9c 01       	movw	r18, r24
    3d60:	ad 01       	movw	r20, r26
    3d62:	8c 8d       	ldd	r24, Y+28	; 0x1c
    3d64:	9d 8d       	ldd	r25, Y+29	; 0x1d
    3d66:	ae 8d       	ldd	r26, Y+30	; 0x1e
    3d68:	bf 8d       	ldd	r27, Y+31	; 0x1f
    3d6a:	82 1b       	sub	r24, r18
    3d6c:	93 0b       	sbc	r25, r19
    3d6e:	a4 0b       	sbc	r26, r20
    3d70:	b5 0b       	sbc	r27, r21
    3d72:	8c 8f       	std	Y+28, r24	; 0x1c
    3d74:	9d 8f       	std	Y+29, r25	; 0x1d
    3d76:	ae 8f       	std	Y+30, r26	; 0x1e
    3d78:	bf 8f       	std	Y+31, r27	; 0x1f
		/* If we end up with a left-shift after taking the final
		 * divide-by-8 into account, do the shift before the divide.
		 * Otherwise, left-shift the denominator instead (effectively
		 * resulting in an overall right shift.)
		 */
		if (exp <= -3) {
    3d7a:	8d 89       	ldd	r24, Y+21	; 0x15
    3d7c:	8e 3f       	cpi	r24, 0xFE	; 254
    3d7e:	ac f5       	brge	.+106    	; 0x3dea <usart_set_baudrate+0x254>
			div = ((cpu_hz << (-exp - 3)) + baud / 2) / baud;
    3d80:	8d 89       	ldd	r24, Y+21	; 0x15
    3d82:	28 2f       	mov	r18, r24
    3d84:	33 27       	eor	r19, r19
    3d86:	27 fd       	sbrc	r18, 7
    3d88:	30 95       	com	r19
    3d8a:	8d ef       	ldi	r24, 0xFD	; 253
    3d8c:	9f ef       	ldi	r25, 0xFF	; 255
    3d8e:	7c 01       	movw	r14, r24
    3d90:	e2 1a       	sub	r14, r18
    3d92:	f3 0a       	sbc	r15, r19
    3d94:	97 01       	movw	r18, r14
    3d96:	8c 8d       	ldd	r24, Y+28	; 0x1c
    3d98:	9d 8d       	ldd	r25, Y+29	; 0x1d
    3d9a:	ae 8d       	ldd	r26, Y+30	; 0x1e
    3d9c:	bf 8d       	ldd	r27, Y+31	; 0x1f
    3d9e:	7c 01       	movw	r14, r24
    3da0:	8d 01       	movw	r16, r26
    3da2:	04 c0       	rjmp	.+8      	; 0x3dac <usart_set_baudrate+0x216>
    3da4:	ee 0c       	add	r14, r14
    3da6:	ff 1c       	adc	r15, r15
    3da8:	00 1f       	adc	r16, r16
    3daa:	11 1f       	adc	r17, r17
    3dac:	2a 95       	dec	r18
    3dae:	d2 f7       	brpl	.-12     	; 0x3da4 <usart_set_baudrate+0x20e>
    3db0:	a8 01       	movw	r20, r16
    3db2:	97 01       	movw	r18, r14
    3db4:	88 8d       	ldd	r24, Y+24	; 0x18
    3db6:	99 8d       	ldd	r25, Y+25	; 0x19
    3db8:	aa 8d       	ldd	r26, Y+26	; 0x1a
    3dba:	bb 8d       	ldd	r27, Y+27	; 0x1b
    3dbc:	b6 95       	lsr	r27
    3dbe:	a7 95       	ror	r26
    3dc0:	97 95       	ror	r25
    3dc2:	87 95       	ror	r24
    3dc4:	82 0f       	add	r24, r18
    3dc6:	93 1f       	adc	r25, r19
    3dc8:	a4 1f       	adc	r26, r20
    3dca:	b5 1f       	adc	r27, r21
    3dcc:	28 8d       	ldd	r18, Y+24	; 0x18
    3dce:	39 8d       	ldd	r19, Y+25	; 0x19
    3dd0:	4a 8d       	ldd	r20, Y+26	; 0x1a
    3dd2:	5b 8d       	ldd	r21, Y+27	; 0x1b
    3dd4:	bc 01       	movw	r22, r24
    3dd6:	cd 01       	movw	r24, r26
    3dd8:	0e 94 05 27 	call	0x4e0a	; 0x4e0a <__udivmodsi4>
    3ddc:	da 01       	movw	r26, r20
    3dde:	c9 01       	movw	r24, r18
    3de0:	89 8b       	std	Y+17, r24	; 0x11
    3de2:	9a 8b       	std	Y+18, r25	; 0x12
    3de4:	ab 8b       	std	Y+19, r26	; 0x13
    3de6:	bc 8b       	std	Y+20, r27	; 0x14
    3de8:	70 c0       	rjmp	.+224    	; 0x3eca <usart_set_baudrate+0x334>
		} else {
			baud <<= exp + 3;
    3dea:	8d 89       	ldd	r24, Y+21	; 0x15
    3dec:	99 27       	eor	r25, r25
    3dee:	87 fd       	sbrc	r24, 7
    3df0:	90 95       	com	r25
    3df2:	9c 01       	movw	r18, r24
    3df4:	2d 5f       	subi	r18, 0xFD	; 253
    3df6:	3f 4f       	sbci	r19, 0xFF	; 255
    3df8:	88 8d       	ldd	r24, Y+24	; 0x18
    3dfa:	99 8d       	ldd	r25, Y+25	; 0x19
    3dfc:	aa 8d       	ldd	r26, Y+26	; 0x1a
    3dfe:	bb 8d       	ldd	r27, Y+27	; 0x1b
    3e00:	04 c0       	rjmp	.+8      	; 0x3e0a <usart_set_baudrate+0x274>
    3e02:	88 0f       	add	r24, r24
    3e04:	99 1f       	adc	r25, r25
    3e06:	aa 1f       	adc	r26, r26
    3e08:	bb 1f       	adc	r27, r27
    3e0a:	2a 95       	dec	r18
    3e0c:	d2 f7       	brpl	.-12     	; 0x3e02 <usart_set_baudrate+0x26c>
    3e0e:	88 8f       	std	Y+24, r24	; 0x18
    3e10:	99 8f       	std	Y+25, r25	; 0x19
    3e12:	aa 8f       	std	Y+26, r26	; 0x1a
    3e14:	bb 8f       	std	Y+27, r27	; 0x1b
			div = (cpu_hz + baud / 2) / baud;
    3e16:	88 8d       	ldd	r24, Y+24	; 0x18
    3e18:	99 8d       	ldd	r25, Y+25	; 0x19
    3e1a:	aa 8d       	ldd	r26, Y+26	; 0x1a
    3e1c:	bb 8d       	ldd	r27, Y+27	; 0x1b
    3e1e:	9c 01       	movw	r18, r24
    3e20:	ad 01       	movw	r20, r26
    3e22:	56 95       	lsr	r21
    3e24:	47 95       	ror	r20
    3e26:	37 95       	ror	r19
    3e28:	27 95       	ror	r18
    3e2a:	8c 8d       	ldd	r24, Y+28	; 0x1c
    3e2c:	9d 8d       	ldd	r25, Y+29	; 0x1d
    3e2e:	ae 8d       	ldd	r26, Y+30	; 0x1e
    3e30:	bf 8d       	ldd	r27, Y+31	; 0x1f
    3e32:	82 0f       	add	r24, r18
    3e34:	93 1f       	adc	r25, r19
    3e36:	a4 1f       	adc	r26, r20
    3e38:	b5 1f       	adc	r27, r21
    3e3a:	28 8d       	ldd	r18, Y+24	; 0x18
    3e3c:	39 8d       	ldd	r19, Y+25	; 0x19
    3e3e:	4a 8d       	ldd	r20, Y+26	; 0x1a
    3e40:	5b 8d       	ldd	r21, Y+27	; 0x1b
    3e42:	bc 01       	movw	r22, r24
    3e44:	cd 01       	movw	r24, r26
    3e46:	0e 94 05 27 	call	0x4e0a	; 0x4e0a <__udivmodsi4>
    3e4a:	da 01       	movw	r26, r20
    3e4c:	c9 01       	movw	r24, r18
    3e4e:	89 8b       	std	Y+17, r24	; 0x11
    3e50:	9a 8b       	std	Y+18, r25	; 0x12
    3e52:	ab 8b       	std	Y+19, r26	; 0x13
    3e54:	bc 8b       	std	Y+20, r27	; 0x14
    3e56:	39 c0       	rjmp	.+114    	; 0x3eca <usart_set_baudrate+0x334>
		}
	} else {
		/* We will always do a right shift in this case, but we need to
		 * shift three extra positions because of the divide-by-8.
		 */
		baud <<= exp + 3;
    3e58:	8d 89       	ldd	r24, Y+21	; 0x15
    3e5a:	99 27       	eor	r25, r25
    3e5c:	87 fd       	sbrc	r24, 7
    3e5e:	90 95       	com	r25
    3e60:	9c 01       	movw	r18, r24
    3e62:	2d 5f       	subi	r18, 0xFD	; 253
    3e64:	3f 4f       	sbci	r19, 0xFF	; 255
    3e66:	88 8d       	ldd	r24, Y+24	; 0x18
    3e68:	99 8d       	ldd	r25, Y+25	; 0x19
    3e6a:	aa 8d       	ldd	r26, Y+26	; 0x1a
    3e6c:	bb 8d       	ldd	r27, Y+27	; 0x1b
    3e6e:	04 c0       	rjmp	.+8      	; 0x3e78 <usart_set_baudrate+0x2e2>
    3e70:	88 0f       	add	r24, r24
    3e72:	99 1f       	adc	r25, r25
    3e74:	aa 1f       	adc	r26, r26
    3e76:	bb 1f       	adc	r27, r27
    3e78:	2a 95       	dec	r18
    3e7a:	d2 f7       	brpl	.-12     	; 0x3e70 <usart_set_baudrate+0x2da>
    3e7c:	88 8f       	std	Y+24, r24	; 0x18
    3e7e:	99 8f       	std	Y+25, r25	; 0x19
    3e80:	aa 8f       	std	Y+26, r26	; 0x1a
    3e82:	bb 8f       	std	Y+27, r27	; 0x1b
		div = (cpu_hz + baud / 2) / baud - 1;
    3e84:	88 8d       	ldd	r24, Y+24	; 0x18
    3e86:	99 8d       	ldd	r25, Y+25	; 0x19
    3e88:	aa 8d       	ldd	r26, Y+26	; 0x1a
    3e8a:	bb 8d       	ldd	r27, Y+27	; 0x1b
    3e8c:	9c 01       	movw	r18, r24
    3e8e:	ad 01       	movw	r20, r26
    3e90:	56 95       	lsr	r21
    3e92:	47 95       	ror	r20
    3e94:	37 95       	ror	r19
    3e96:	27 95       	ror	r18
    3e98:	8c 8d       	ldd	r24, Y+28	; 0x1c
    3e9a:	9d 8d       	ldd	r25, Y+29	; 0x1d
    3e9c:	ae 8d       	ldd	r26, Y+30	; 0x1e
    3e9e:	bf 8d       	ldd	r27, Y+31	; 0x1f
    3ea0:	82 0f       	add	r24, r18
    3ea2:	93 1f       	adc	r25, r19
    3ea4:	a4 1f       	adc	r26, r20
    3ea6:	b5 1f       	adc	r27, r21
    3ea8:	28 8d       	ldd	r18, Y+24	; 0x18
    3eaa:	39 8d       	ldd	r19, Y+25	; 0x19
    3eac:	4a 8d       	ldd	r20, Y+26	; 0x1a
    3eae:	5b 8d       	ldd	r21, Y+27	; 0x1b
    3eb0:	bc 01       	movw	r22, r24
    3eb2:	cd 01       	movw	r24, r26
    3eb4:	0e 94 05 27 	call	0x4e0a	; 0x4e0a <__udivmodsi4>
    3eb8:	da 01       	movw	r26, r20
    3eba:	c9 01       	movw	r24, r18
    3ebc:	01 97       	sbiw	r24, 0x01	; 1
    3ebe:	a1 09       	sbc	r26, r1
    3ec0:	b1 09       	sbc	r27, r1
    3ec2:	89 8b       	std	Y+17, r24	; 0x11
    3ec4:	9a 8b       	std	Y+18, r25	; 0x12
    3ec6:	ab 8b       	std	Y+19, r26	; 0x13
    3ec8:	bc 8b       	std	Y+20, r27	; 0x14
	}

	(usart)->BAUDCTRLB = (uint8_t)(((div >> 8) & 0X0F) | (exp << 4));
    3eca:	89 89       	ldd	r24, Y+17	; 0x11
    3ecc:	9a 89       	ldd	r25, Y+18	; 0x12
    3ece:	ab 89       	ldd	r26, Y+19	; 0x13
    3ed0:	bc 89       	ldd	r27, Y+20	; 0x14
    3ed2:	89 2f       	mov	r24, r25
    3ed4:	9a 2f       	mov	r25, r26
    3ed6:	ab 2f       	mov	r26, r27
    3ed8:	bb 27       	eor	r27, r27
    3eda:	98 2f       	mov	r25, r24
    3edc:	9f 70       	andi	r25, 0x0F	; 15
    3ede:	8d 89       	ldd	r24, Y+21	; 0x15
    3ee0:	82 95       	swap	r24
    3ee2:	80 7f       	andi	r24, 0xF0	; 240
    3ee4:	89 2b       	or	r24, r25
    3ee6:	ee 89       	ldd	r30, Y+22	; 0x16
    3ee8:	ff 89       	ldd	r31, Y+23	; 0x17
    3eea:	87 83       	std	Z+7, r24	; 0x07
	(usart)->BAUDCTRLA = (uint8_t)div;
    3eec:	89 89       	ldd	r24, Y+17	; 0x11
    3eee:	ee 89       	ldd	r30, Y+22	; 0x16
    3ef0:	ff 89       	ldd	r31, Y+23	; 0x17
    3ef2:	86 83       	std	Z+6, r24	; 0x06

	return true;
    3ef4:	01 e0       	ldi	r16, 0x01	; 1
    3ef6:	08 a3       	std	Y+32, r16	; 0x20
    3ef8:	88 a1       	ldd	r24, Y+32	; 0x20
}
    3efa:	a0 96       	adiw	r28, 0x20	; 32
    3efc:	cd bf       	out	0x3d, r28	; 61
    3efe:	de bf       	out	0x3e, r29	; 62
    3f00:	cf 91       	pop	r28
    3f02:	df 91       	pop	r29
    3f04:	1f 91       	pop	r17
    3f06:	0f 91       	pop	r16
    3f08:	ff 90       	pop	r15
    3f0a:	ef 90       	pop	r14
    3f0c:	08 95       	ret

00003f0e <USART_putchar>:

void USART_putchar(USART_t * const usart, char ch)
{
    3f0e:	df 93       	push	r29
    3f10:	cf 93       	push	r28
    3f12:	00 d0       	rcall	.+0      	; 0x3f14 <USART_putchar+0x6>
    3f14:	cd b7       	in	r28, 0x3d	; 61
    3f16:	de b7       	in	r29, 0x3e	; 62
    3f18:	89 83       	std	Y+1, r24	; 0x01
    3f1a:	9a 83       	std	Y+2, r25	; 0x02
    3f1c:	6b 83       	std	Y+3, r22	; 0x03
	while(!(usart->STATUS & USART_DREIF_bm));
    3f1e:	e9 81       	ldd	r30, Y+1	; 0x01
    3f20:	fa 81       	ldd	r31, Y+2	; 0x02
    3f22:	81 81       	ldd	r24, Z+1	; 0x01
    3f24:	88 2f       	mov	r24, r24
    3f26:	90 e0       	ldi	r25, 0x00	; 0
    3f28:	80 72       	andi	r24, 0x20	; 32
    3f2a:	90 70       	andi	r25, 0x00	; 0
    3f2c:	00 97       	sbiw	r24, 0x00	; 0
    3f2e:	b9 f3       	breq	.-18     	; 0x3f1e <USART_putchar+0x10>
	usart->DATA=ch;
    3f30:	e9 81       	ldd	r30, Y+1	; 0x01
    3f32:	fa 81       	ldd	r31, Y+2	; 0x02
    3f34:	8b 81       	ldd	r24, Y+3	; 0x03
    3f36:	80 83       	st	Z, r24
}
    3f38:	23 96       	adiw	r28, 0x03	; 3
    3f3a:	cd bf       	out	0x3d, r28	; 61
    3f3c:	de bf       	out	0x3e, r29	; 62
    3f3e:	cf 91       	pop	r28
    3f40:	df 91       	pop	r29
    3f42:	08 95       	ret

00003f44 <USART_send>:

void USART_send(USART_t * const usart, const char *txt)
{
    3f44:	df 93       	push	r29
    3f46:	cf 93       	push	r28
    3f48:	00 d0       	rcall	.+0      	; 0x3f4a <USART_send+0x6>
    3f4a:	0f 92       	push	r0
    3f4c:	cd b7       	in	r28, 0x3d	; 61
    3f4e:	de b7       	in	r29, 0x3e	; 62
    3f50:	89 83       	std	Y+1, r24	; 0x01
    3f52:	9a 83       	std	Y+2, r25	; 0x02
    3f54:	6b 83       	std	Y+3, r22	; 0x03
    3f56:	7c 83       	std	Y+4, r23	; 0x04
    3f58:	0d c0       	rjmp	.+26     	; 0x3f74 <USART_send+0x30>
	while(*txt)
	{
		USART_putchar(usart, *txt);
    3f5a:	eb 81       	ldd	r30, Y+3	; 0x03
    3f5c:	fc 81       	ldd	r31, Y+4	; 0x04
    3f5e:	20 81       	ld	r18, Z
    3f60:	89 81       	ldd	r24, Y+1	; 0x01
    3f62:	9a 81       	ldd	r25, Y+2	; 0x02
    3f64:	62 2f       	mov	r22, r18
    3f66:	0e 94 87 1f 	call	0x3f0e	; 0x3f0e <USART_putchar>
		++txt;
    3f6a:	8b 81       	ldd	r24, Y+3	; 0x03
    3f6c:	9c 81       	ldd	r25, Y+4	; 0x04
    3f6e:	01 96       	adiw	r24, 0x01	; 1
    3f70:	8b 83       	std	Y+3, r24	; 0x03
    3f72:	9c 83       	std	Y+4, r25	; 0x04
	usart->DATA=ch;
}

void USART_send(USART_t * const usart, const char *txt)
{
	while(*txt)
    3f74:	eb 81       	ldd	r30, Y+3	; 0x03
    3f76:	fc 81       	ldd	r31, Y+4	; 0x04
    3f78:	80 81       	ld	r24, Z
    3f7a:	88 23       	and	r24, r24
    3f7c:	71 f7       	brne	.-36     	; 0x3f5a <USART_send+0x16>
	{
		USART_putchar(usart, *txt);
		++txt;
	}
}
    3f7e:	24 96       	adiw	r28, 0x04	; 4
    3f80:	cd bf       	out	0x3d, r28	; 61
    3f82:	de bf       	out	0x3e, r29	; 62
    3f84:	cf 91       	pop	r28
    3f86:	df 91       	pop	r29
    3f88:	08 95       	ret

00003f8a <USART_send_F>:

void USART_send_F(USART_t * const usart, const char *txt)
{
    3f8a:	df 93       	push	r29
    3f8c:	cf 93       	push	r28
    3f8e:	cd b7       	in	r28, 0x3d	; 61
    3f90:	de b7       	in	r29, 0x3e	; 62
    3f92:	28 97       	sbiw	r28, 0x08	; 8
    3f94:	cd bf       	out	0x3d, r28	; 61
    3f96:	de bf       	out	0x3e, r29	; 62
    3f98:	8d 83       	std	Y+5, r24	; 0x05
    3f9a:	9e 83       	std	Y+6, r25	; 0x06
    3f9c:	6f 83       	std	Y+7, r22	; 0x07
    3f9e:	78 87       	std	Y+8, r23	; 0x08
    3fa0:	0a c0       	rjmp	.+20     	; 0x3fb6 <USART_send_F+0x2c>
	char tmp;
	while((tmp=pgm_read_byte(txt)))
	{
		USART_putchar(usart, tmp);
    3fa2:	8d 81       	ldd	r24, Y+5	; 0x05
    3fa4:	9e 81       	ldd	r25, Y+6	; 0x06
    3fa6:	6c 81       	ldd	r22, Y+4	; 0x04
    3fa8:	0e 94 87 1f 	call	0x3f0e	; 0x3f0e <USART_putchar>
		++txt;
    3fac:	8f 81       	ldd	r24, Y+7	; 0x07
    3fae:	98 85       	ldd	r25, Y+8	; 0x08
    3fb0:	01 96       	adiw	r24, 0x01	; 1
    3fb2:	8f 83       	std	Y+7, r24	; 0x07
    3fb4:	98 87       	std	Y+8, r25	; 0x08
}

void USART_send_F(USART_t * const usart, const char *txt)
{
	char tmp;
	while((tmp=pgm_read_byte(txt)))
    3fb6:	8f 81       	ldd	r24, Y+7	; 0x07
    3fb8:	98 85       	ldd	r25, Y+8	; 0x08
    3fba:	8a 83       	std	Y+2, r24	; 0x02
    3fbc:	9b 83       	std	Y+3, r25	; 0x03
    3fbe:	ea 81       	ldd	r30, Y+2	; 0x02
    3fc0:	fb 81       	ldd	r31, Y+3	; 0x03
    3fc2:	84 91       	lpm	r24, Z+
    3fc4:	89 83       	std	Y+1, r24	; 0x01
    3fc6:	89 81       	ldd	r24, Y+1	; 0x01
    3fc8:	8c 83       	std	Y+4, r24	; 0x04
    3fca:	8c 81       	ldd	r24, Y+4	; 0x04
    3fcc:	88 23       	and	r24, r24
    3fce:	49 f7       	brne	.-46     	; 0x3fa2 <USART_send_F+0x18>
	{
		USART_putchar(usart, tmp);
		++txt;
	}
}
    3fd0:	28 96       	adiw	r28, 0x08	; 8
    3fd2:	cd bf       	out	0x3d, r28	; 61
    3fd4:	de bf       	out	0x3e, r29	; 62
    3fd6:	cf 91       	pop	r28
    3fd8:	df 91       	pop	r29
    3fda:	08 95       	ret

00003fdc <USART_send_block>:

void USART_send_block(USART_t * const usart, const uint8_t *block, uint8_t size)
{
    3fdc:	df 93       	push	r29
    3fde:	cf 93       	push	r28
    3fe0:	00 d0       	rcall	.+0      	; 0x3fe2 <USART_send_block+0x6>
    3fe2:	00 d0       	rcall	.+0      	; 0x3fe4 <USART_send_block+0x8>
    3fe4:	cd b7       	in	r28, 0x3d	; 61
    3fe6:	de b7       	in	r29, 0x3e	; 62
    3fe8:	89 83       	std	Y+1, r24	; 0x01
    3fea:	9a 83       	std	Y+2, r25	; 0x02
    3fec:	6b 83       	std	Y+3, r22	; 0x03
    3fee:	7c 83       	std	Y+4, r23	; 0x04
    3ff0:	4d 83       	std	Y+5, r20	; 0x05
    3ff2:	0d c0       	rjmp	.+26     	; 0x400e <__stack+0xf>
	while(size--)
	{
		USART_putchar(usart, *block);
    3ff4:	eb 81       	ldd	r30, Y+3	; 0x03
    3ff6:	fc 81       	ldd	r31, Y+4	; 0x04
    3ff8:	20 81       	ld	r18, Z
    3ffa:	89 81       	ldd	r24, Y+1	; 0x01
    3ffc:	9a 81       	ldd	r25, Y+2	; 0x02
    3ffe:	62 2f       	mov	r22, r18
    4000:	0e 94 87 1f 	call	0x3f0e	; 0x3f0e <USART_putchar>
		++block;
    4004:	8b 81       	ldd	r24, Y+3	; 0x03
    4006:	9c 81       	ldd	r25, Y+4	; 0x04
    4008:	01 96       	adiw	r24, 0x01	; 1
    400a:	8b 83       	std	Y+3, r24	; 0x03
    400c:	9c 83       	std	Y+4, r25	; 0x04
	}
}

void USART_send_block(USART_t * const usart, const uint8_t *block, uint8_t size)
{
	while(size--)
    400e:	8d 81       	ldd	r24, Y+5	; 0x05
    4010:	8e 83       	std	Y+6, r24	; 0x06
    4012:	8e 81       	ldd	r24, Y+6	; 0x06
    4014:	88 23       	and	r24, r24
    4016:	11 f0       	breq	.+4      	; 0x401c <__stack+0x1d>
    4018:	81 e0       	ldi	r24, 0x01	; 1
    401a:	8e 83       	std	Y+6, r24	; 0x06
    401c:	8e 81       	ldd	r24, Y+6	; 0x06
    401e:	9d 81       	ldd	r25, Y+5	; 0x05
    4020:	91 50       	subi	r25, 0x01	; 1
    4022:	9d 83       	std	Y+5, r25	; 0x05
    4024:	88 23       	and	r24, r24
    4026:	31 f7       	brne	.-52     	; 0x3ff4 <USART_send_block+0x18>
	{
		USART_putchar(usart, *block);
		++block;
	}
}
    4028:	26 96       	adiw	r28, 0x06	; 6
    402a:	cd bf       	out	0x3d, r28	; 61
    402c:	de bf       	out	0x3e, r29	; 62
    402e:	cf 91       	pop	r28
    4030:	df 91       	pop	r29
    4032:	08 95       	ret

00004034 <USART_send_block_F>:

void USART_send_block_F(USART_t * const usart, const uint8_t *block, uint8_t size)
{
    4034:	df 93       	push	r29
    4036:	cf 93       	push	r28
    4038:	cd b7       	in	r28, 0x3d	; 61
    403a:	de b7       	in	r29, 0x3e	; 62
    403c:	29 97       	sbiw	r28, 0x09	; 9
    403e:	cd bf       	out	0x3d, r28	; 61
    4040:	de bf       	out	0x3e, r29	; 62
    4042:	8c 83       	std	Y+4, r24	; 0x04
    4044:	9d 83       	std	Y+5, r25	; 0x05
    4046:	6e 83       	std	Y+6, r22	; 0x06
    4048:	7f 83       	std	Y+7, r23	; 0x07
    404a:	48 87       	std	Y+8, r20	; 0x08
    404c:	13 c0       	rjmp	.+38     	; 0x4074 <USART_send_block_F+0x40>
	while(size--)
	{
		USART_putchar(usart, pgm_read_byte(block));
    404e:	8e 81       	ldd	r24, Y+6	; 0x06
    4050:	9f 81       	ldd	r25, Y+7	; 0x07
    4052:	8a 83       	std	Y+2, r24	; 0x02
    4054:	9b 83       	std	Y+3, r25	; 0x03
    4056:	ea 81       	ldd	r30, Y+2	; 0x02
    4058:	fb 81       	ldd	r31, Y+3	; 0x03
    405a:	84 91       	lpm	r24, Z+
    405c:	89 83       	std	Y+1, r24	; 0x01
    405e:	29 81       	ldd	r18, Y+1	; 0x01
    4060:	8c 81       	ldd	r24, Y+4	; 0x04
    4062:	9d 81       	ldd	r25, Y+5	; 0x05
    4064:	62 2f       	mov	r22, r18
    4066:	0e 94 87 1f 	call	0x3f0e	; 0x3f0e <USART_putchar>
		++block;
    406a:	8e 81       	ldd	r24, Y+6	; 0x06
    406c:	9f 81       	ldd	r25, Y+7	; 0x07
    406e:	01 96       	adiw	r24, 0x01	; 1
    4070:	8e 83       	std	Y+6, r24	; 0x06
    4072:	9f 83       	std	Y+7, r25	; 0x07
	}
}

void USART_send_block_F(USART_t * const usart, const uint8_t *block, uint8_t size)
{
	while(size--)
    4074:	88 85       	ldd	r24, Y+8	; 0x08
    4076:	89 87       	std	Y+9, r24	; 0x09
    4078:	89 85       	ldd	r24, Y+9	; 0x09
    407a:	88 23       	and	r24, r24
    407c:	11 f0       	breq	.+4      	; 0x4082 <USART_send_block_F+0x4e>
    407e:	81 e0       	ldi	r24, 0x01	; 1
    4080:	89 87       	std	Y+9, r24	; 0x09
    4082:	89 85       	ldd	r24, Y+9	; 0x09
    4084:	98 85       	ldd	r25, Y+8	; 0x08
    4086:	91 50       	subi	r25, 0x01	; 1
    4088:	98 87       	std	Y+8, r25	; 0x08
    408a:	88 23       	and	r24, r24
    408c:	01 f7       	brne	.-64     	; 0x404e <USART_send_block_F+0x1a>
	{
		USART_putchar(usart, pgm_read_byte(block));
		++block;
	}
}
    408e:	29 96       	adiw	r28, 0x09	; 9
    4090:	cd bf       	out	0x3d, r28	; 61
    4092:	de bf       	out	0x3e, r29	; 62
    4094:	cf 91       	pop	r28
    4096:	df 91       	pop	r29
    4098:	08 95       	ret

0000409a <USART_send_int>:

void USART_send_int(USART_t* const usart, const uint16_t data)
{
    409a:	df 93       	push	r29
    409c:	cf 93       	push	r28
    409e:	00 d0       	rcall	.+0      	; 0x40a0 <USART_send_int+0x6>
    40a0:	0f 92       	push	r0
    40a2:	cd b7       	in	r28, 0x3d	; 61
    40a4:	de b7       	in	r29, 0x3e	; 62
    40a6:	89 83       	std	Y+1, r24	; 0x01
    40a8:	9a 83       	std	Y+2, r25	; 0x02
    40aa:	6b 83       	std	Y+3, r22	; 0x03
    40ac:	7c 83       	std	Y+4, r23	; 0x04
	USART_putchar(usart, (data));
    40ae:	2b 81       	ldd	r18, Y+3	; 0x03
    40b0:	89 81       	ldd	r24, Y+1	; 0x01
    40b2:	9a 81       	ldd	r25, Y+2	; 0x02
    40b4:	62 2f       	mov	r22, r18
    40b6:	0e 94 87 1f 	call	0x3f0e	; 0x3f0e <USART_putchar>
	while(!(usart->STATUS & USART_DREIF_bm));
    40ba:	e9 81       	ldd	r30, Y+1	; 0x01
    40bc:	fa 81       	ldd	r31, Y+2	; 0x02
    40be:	81 81       	ldd	r24, Z+1	; 0x01
    40c0:	88 2f       	mov	r24, r24
    40c2:	90 e0       	ldi	r25, 0x00	; 0
    40c4:	80 72       	andi	r24, 0x20	; 32
    40c6:	90 70       	andi	r25, 0x00	; 0
    40c8:	00 97       	sbiw	r24, 0x00	; 0
    40ca:	b9 f3       	breq	.-18     	; 0x40ba <USART_send_int+0x20>
	USART_putchar(usart, data>>8);
    40cc:	8b 81       	ldd	r24, Y+3	; 0x03
    40ce:	9c 81       	ldd	r25, Y+4	; 0x04
    40d0:	89 2f       	mov	r24, r25
    40d2:	99 27       	eor	r25, r25
    40d4:	28 2f       	mov	r18, r24
    40d6:	89 81       	ldd	r24, Y+1	; 0x01
    40d8:	9a 81       	ldd	r25, Y+2	; 0x02
    40da:	62 2f       	mov	r22, r18
    40dc:	0e 94 87 1f 	call	0x3f0e	; 0x3f0e <USART_putchar>
}
    40e0:	24 96       	adiw	r28, 0x04	; 4
    40e2:	cd bf       	out	0x3d, r28	; 61
    40e4:	de bf       	out	0x3e, r29	; 62
    40e6:	cf 91       	pop	r28
    40e8:	df 91       	pop	r29
    40ea:	08 95       	ret

000040ec <USART_MergingData>:

void USART_MergingData(void)
{
    40ec:	df 93       	push	r29
    40ee:	cf 93       	push	r28
    40f0:	cd b7       	in	r28, 0x3d	; 61
    40f2:	de b7       	in	r29, 0x3e	; 62

	if (usart_i == 2)
    40f4:	80 91 26 22 	lds	r24, 0x2226
    40f8:	82 30       	cpi	r24, 0x02	; 2
    40fa:	11 f4       	brne	.+4      	; 0x4100 <USART_MergingData+0x14>
	{
		usart_i = 0;
    40fc:	10 92 26 22 	sts	0x2226, r1
	}
	if ( usart_i == 0)
    4100:	80 91 26 22 	lds	r24, 0x2226
    4104:	88 23       	and	r24, r24
    4106:	51 f4       	brne	.+20     	; 0x411c <USART_MergingData+0x30>
	{
		usart_data = USARTC1.DATA;
    4108:	e0 eb       	ldi	r30, 0xB0	; 176
    410a:	f8 e0       	ldi	r31, 0x08	; 8
    410c:	80 81       	ld	r24, Z
    410e:	88 2f       	mov	r24, r24
    4110:	90 e0       	ldi	r25, 0x00	; 0
    4112:	80 93 24 22 	sts	0x2224, r24
    4116:	90 93 25 22 	sts	0x2225, r25
    411a:	30 c0       	rjmp	.+96     	; 0x417c <USART_MergingData+0x90>
	}
	else if (usart_i == 1)
    411c:	80 91 26 22 	lds	r24, 0x2226
    4120:	81 30       	cpi	r24, 0x01	; 1
    4122:	61 f5       	brne	.+88     	; 0x417c <USART_MergingData+0x90>
	{
		if (buf_index == 40) buf_index = 0;
    4124:	80 91 3f 21 	lds	r24, 0x213F
    4128:	88 32       	cpi	r24, 0x28	; 40
    412a:	11 f4       	brne	.+4      	; 0x4130 <USART_MergingData+0x44>
    412c:	10 92 3f 21 	sts	0x213F, r1
		usart_data += (USARTC1.DATA<<8);
    4130:	e0 eb       	ldi	r30, 0xB0	; 176
    4132:	f8 e0       	ldi	r31, 0x08	; 8
    4134:	80 81       	ld	r24, Z
    4136:	88 2f       	mov	r24, r24
    4138:	90 e0       	ldi	r25, 0x00	; 0
    413a:	98 2f       	mov	r25, r24
    413c:	88 27       	eor	r24, r24
    413e:	9c 01       	movw	r18, r24
    4140:	80 91 24 22 	lds	r24, 0x2224
    4144:	90 91 25 22 	lds	r25, 0x2225
    4148:	82 0f       	add	r24, r18
    414a:	93 1f       	adc	r25, r19
    414c:	80 93 24 22 	sts	0x2224, r24
    4150:	90 93 25 22 	sts	0x2225, r25
		usart_buffer[buf_index] = usart_data;
    4154:	80 91 3f 21 	lds	r24, 0x213F
    4158:	88 2f       	mov	r24, r24
    415a:	90 e0       	ldi	r25, 0x00	; 0
    415c:	20 91 24 22 	lds	r18, 0x2224
    4160:	30 91 25 22 	lds	r19, 0x2225
    4164:	88 0f       	add	r24, r24
    4166:	99 1f       	adc	r25, r25
    4168:	fc 01       	movw	r30, r24
    416a:	e4 53       	subi	r30, 0x34	; 52
    416c:	fe 4d       	sbci	r31, 0xDE	; 222
    416e:	20 83       	st	Z, r18
    4170:	31 83       	std	Z+1, r19	; 0x01
		buf_index ++;
    4172:	80 91 3f 21 	lds	r24, 0x213F
    4176:	8f 5f       	subi	r24, 0xFF	; 255
    4178:	80 93 3f 21 	sts	0x213F, r24

	}
	usart_i ++;
    417c:	80 91 26 22 	lds	r24, 0x2226
    4180:	8f 5f       	subi	r24, 0xFF	; 255
    4182:	80 93 26 22 	sts	0x2226, r24
}
    4186:	cf 91       	pop	r28
    4188:	df 91       	pop	r29
    418a:	08 95       	ret

0000418c <USART_MergedData>:

uint16_t USART_MergedData(void)
{
    418c:	df 93       	push	r29
    418e:	cf 93       	push	r28
    4190:	0f 92       	push	r0
    4192:	0f 92       	push	r0
    4194:	cd b7       	in	r28, 0x3d	; 61
    4196:	de b7       	in	r29, 0x3e	; 62
	if (usart_i==1)
    4198:	80 91 26 22 	lds	r24, 0x2226
    419c:	81 30       	cpi	r24, 0x01	; 1
    419e:	39 f4       	brne	.+14     	; 0x41ae <USART_MergedData+0x22>
	{
		return usart_data;
    41a0:	80 91 24 22 	lds	r24, 0x2224
    41a4:	90 91 25 22 	lds	r25, 0x2225
    41a8:	89 83       	std	Y+1, r24	; 0x01
    41aa:	9a 83       	std	Y+2, r25	; 0x02
    41ac:	02 c0       	rjmp	.+4      	; 0x41b2 <USART_MergedData+0x26>
	}
	return 0;
    41ae:	19 82       	std	Y+1, r1	; 0x01
    41b0:	1a 82       	std	Y+2, r1	; 0x02
    41b2:	89 81       	ldd	r24, Y+1	; 0x01
    41b4:	9a 81       	ldd	r25, Y+2	; 0x02
}
    41b6:	0f 90       	pop	r0
    41b8:	0f 90       	pop	r0
    41ba:	cf 91       	pop	r28
    41bc:	df 91       	pop	r29
    41be:	08 95       	ret

000041c0 <__fixunssfsi>:
    41c0:	ef 92       	push	r14
    41c2:	ff 92       	push	r15
    41c4:	0f 93       	push	r16
    41c6:	1f 93       	push	r17
    41c8:	7b 01       	movw	r14, r22
    41ca:	8c 01       	movw	r16, r24
    41cc:	20 e0       	ldi	r18, 0x00	; 0
    41ce:	30 e0       	ldi	r19, 0x00	; 0
    41d0:	40 e0       	ldi	r20, 0x00	; 0
    41d2:	5f e4       	ldi	r21, 0x4F	; 79
    41d4:	0e 94 8c 24 	call	0x4918	; 0x4918 <__gesf2>
    41d8:	88 23       	and	r24, r24
    41da:	8c f0       	brlt	.+34     	; 0x41fe <__fixunssfsi+0x3e>
    41dc:	c8 01       	movw	r24, r16
    41de:	b7 01       	movw	r22, r14
    41e0:	20 e0       	ldi	r18, 0x00	; 0
    41e2:	30 e0       	ldi	r19, 0x00	; 0
    41e4:	40 e0       	ldi	r20, 0x00	; 0
    41e6:	5f e4       	ldi	r21, 0x4F	; 79
    41e8:	0e 94 58 22 	call	0x44b0	; 0x44b0 <__subsf3>
    41ec:	0e 94 ec 24 	call	0x49d8	; 0x49d8 <__fixsfsi>
    41f0:	9b 01       	movw	r18, r22
    41f2:	ac 01       	movw	r20, r24
    41f4:	20 50       	subi	r18, 0x00	; 0
    41f6:	30 40       	sbci	r19, 0x00	; 0
    41f8:	40 40       	sbci	r20, 0x00	; 0
    41fa:	50 48       	sbci	r21, 0x80	; 128
    41fc:	06 c0       	rjmp	.+12     	; 0x420a <__fixunssfsi+0x4a>
    41fe:	c8 01       	movw	r24, r16
    4200:	b7 01       	movw	r22, r14
    4202:	0e 94 ec 24 	call	0x49d8	; 0x49d8 <__fixsfsi>
    4206:	9b 01       	movw	r18, r22
    4208:	ac 01       	movw	r20, r24
    420a:	b9 01       	movw	r22, r18
    420c:	ca 01       	movw	r24, r20
    420e:	1f 91       	pop	r17
    4210:	0f 91       	pop	r16
    4212:	ff 90       	pop	r15
    4214:	ef 90       	pop	r14
    4216:	08 95       	ret

00004218 <_fpadd_parts>:
    4218:	a0 e0       	ldi	r26, 0x00	; 0
    421a:	b0 e0       	ldi	r27, 0x00	; 0
    421c:	e2 e1       	ldi	r30, 0x12	; 18
    421e:	f1 e2       	ldi	r31, 0x21	; 33
    4220:	0c 94 27 27 	jmp	0x4e4e	; 0x4e4e <__prologue_saves__>
    4224:	dc 01       	movw	r26, r24
    4226:	2b 01       	movw	r4, r22
    4228:	fa 01       	movw	r30, r20
    422a:	9c 91       	ld	r25, X
    422c:	92 30       	cpi	r25, 0x02	; 2
    422e:	08 f4       	brcc	.+2      	; 0x4232 <_fpadd_parts+0x1a>
    4230:	39 c1       	rjmp	.+626    	; 0x44a4 <_fpadd_parts+0x28c>
    4232:	eb 01       	movw	r28, r22
    4234:	88 81       	ld	r24, Y
    4236:	82 30       	cpi	r24, 0x02	; 2
    4238:	08 f4       	brcc	.+2      	; 0x423c <_fpadd_parts+0x24>
    423a:	33 c1       	rjmp	.+614    	; 0x44a2 <_fpadd_parts+0x28a>
    423c:	94 30       	cpi	r25, 0x04	; 4
    423e:	69 f4       	brne	.+26     	; 0x425a <_fpadd_parts+0x42>
    4240:	84 30       	cpi	r24, 0x04	; 4
    4242:	09 f0       	breq	.+2      	; 0x4246 <_fpadd_parts+0x2e>
    4244:	2f c1       	rjmp	.+606    	; 0x44a4 <_fpadd_parts+0x28c>
    4246:	11 96       	adiw	r26, 0x01	; 1
    4248:	9c 91       	ld	r25, X
    424a:	11 97       	sbiw	r26, 0x01	; 1
    424c:	89 81       	ldd	r24, Y+1	; 0x01
    424e:	98 17       	cp	r25, r24
    4250:	09 f4       	brne	.+2      	; 0x4254 <_fpadd_parts+0x3c>
    4252:	28 c1       	rjmp	.+592    	; 0x44a4 <_fpadd_parts+0x28c>
    4254:	a7 e2       	ldi	r26, 0x27	; 39
    4256:	b1 e2       	ldi	r27, 0x21	; 33
    4258:	25 c1       	rjmp	.+586    	; 0x44a4 <_fpadd_parts+0x28c>
    425a:	84 30       	cpi	r24, 0x04	; 4
    425c:	09 f4       	brne	.+2      	; 0x4260 <_fpadd_parts+0x48>
    425e:	21 c1       	rjmp	.+578    	; 0x44a2 <_fpadd_parts+0x28a>
    4260:	82 30       	cpi	r24, 0x02	; 2
    4262:	a9 f4       	brne	.+42     	; 0x428e <_fpadd_parts+0x76>
    4264:	92 30       	cpi	r25, 0x02	; 2
    4266:	09 f0       	breq	.+2      	; 0x426a <_fpadd_parts+0x52>
    4268:	1d c1       	rjmp	.+570    	; 0x44a4 <_fpadd_parts+0x28c>
    426a:	9a 01       	movw	r18, r20
    426c:	ad 01       	movw	r20, r26
    426e:	88 e0       	ldi	r24, 0x08	; 8
    4270:	ea 01       	movw	r28, r20
    4272:	09 90       	ld	r0, Y+
    4274:	ae 01       	movw	r20, r28
    4276:	e9 01       	movw	r28, r18
    4278:	09 92       	st	Y+, r0
    427a:	9e 01       	movw	r18, r28
    427c:	81 50       	subi	r24, 0x01	; 1
    427e:	c1 f7       	brne	.-16     	; 0x4270 <_fpadd_parts+0x58>
    4280:	e2 01       	movw	r28, r4
    4282:	89 81       	ldd	r24, Y+1	; 0x01
    4284:	11 96       	adiw	r26, 0x01	; 1
    4286:	9c 91       	ld	r25, X
    4288:	89 23       	and	r24, r25
    428a:	81 83       	std	Z+1, r24	; 0x01
    428c:	08 c1       	rjmp	.+528    	; 0x449e <_fpadd_parts+0x286>
    428e:	92 30       	cpi	r25, 0x02	; 2
    4290:	09 f4       	brne	.+2      	; 0x4294 <_fpadd_parts+0x7c>
    4292:	07 c1       	rjmp	.+526    	; 0x44a2 <_fpadd_parts+0x28a>
    4294:	12 96       	adiw	r26, 0x02	; 2
    4296:	2d 90       	ld	r2, X+
    4298:	3c 90       	ld	r3, X
    429a:	13 97       	sbiw	r26, 0x03	; 3
    429c:	eb 01       	movw	r28, r22
    429e:	8a 81       	ldd	r24, Y+2	; 0x02
    42a0:	9b 81       	ldd	r25, Y+3	; 0x03
    42a2:	14 96       	adiw	r26, 0x04	; 4
    42a4:	ad 90       	ld	r10, X+
    42a6:	bd 90       	ld	r11, X+
    42a8:	cd 90       	ld	r12, X+
    42aa:	dc 90       	ld	r13, X
    42ac:	17 97       	sbiw	r26, 0x07	; 7
    42ae:	ec 80       	ldd	r14, Y+4	; 0x04
    42b0:	fd 80       	ldd	r15, Y+5	; 0x05
    42b2:	0e 81       	ldd	r16, Y+6	; 0x06
    42b4:	1f 81       	ldd	r17, Y+7	; 0x07
    42b6:	91 01       	movw	r18, r2
    42b8:	28 1b       	sub	r18, r24
    42ba:	39 0b       	sbc	r19, r25
    42bc:	b9 01       	movw	r22, r18
    42be:	37 ff       	sbrs	r19, 7
    42c0:	04 c0       	rjmp	.+8      	; 0x42ca <_fpadd_parts+0xb2>
    42c2:	66 27       	eor	r22, r22
    42c4:	77 27       	eor	r23, r23
    42c6:	62 1b       	sub	r22, r18
    42c8:	73 0b       	sbc	r23, r19
    42ca:	60 32       	cpi	r22, 0x20	; 32
    42cc:	71 05       	cpc	r23, r1
    42ce:	0c f0       	brlt	.+2      	; 0x42d2 <_fpadd_parts+0xba>
    42d0:	61 c0       	rjmp	.+194    	; 0x4394 <_fpadd_parts+0x17c>
    42d2:	12 16       	cp	r1, r18
    42d4:	13 06       	cpc	r1, r19
    42d6:	6c f5       	brge	.+90     	; 0x4332 <_fpadd_parts+0x11a>
    42d8:	37 01       	movw	r6, r14
    42da:	48 01       	movw	r8, r16
    42dc:	06 2e       	mov	r0, r22
    42de:	04 c0       	rjmp	.+8      	; 0x42e8 <_fpadd_parts+0xd0>
    42e0:	96 94       	lsr	r9
    42e2:	87 94       	ror	r8
    42e4:	77 94       	ror	r7
    42e6:	67 94       	ror	r6
    42e8:	0a 94       	dec	r0
    42ea:	d2 f7       	brpl	.-12     	; 0x42e0 <_fpadd_parts+0xc8>
    42ec:	21 e0       	ldi	r18, 0x01	; 1
    42ee:	30 e0       	ldi	r19, 0x00	; 0
    42f0:	40 e0       	ldi	r20, 0x00	; 0
    42f2:	50 e0       	ldi	r21, 0x00	; 0
    42f4:	04 c0       	rjmp	.+8      	; 0x42fe <_fpadd_parts+0xe6>
    42f6:	22 0f       	add	r18, r18
    42f8:	33 1f       	adc	r19, r19
    42fa:	44 1f       	adc	r20, r20
    42fc:	55 1f       	adc	r21, r21
    42fe:	6a 95       	dec	r22
    4300:	d2 f7       	brpl	.-12     	; 0x42f6 <_fpadd_parts+0xde>
    4302:	21 50       	subi	r18, 0x01	; 1
    4304:	30 40       	sbci	r19, 0x00	; 0
    4306:	40 40       	sbci	r20, 0x00	; 0
    4308:	50 40       	sbci	r21, 0x00	; 0
    430a:	2e 21       	and	r18, r14
    430c:	3f 21       	and	r19, r15
    430e:	40 23       	and	r20, r16
    4310:	51 23       	and	r21, r17
    4312:	21 15       	cp	r18, r1
    4314:	31 05       	cpc	r19, r1
    4316:	41 05       	cpc	r20, r1
    4318:	51 05       	cpc	r21, r1
    431a:	21 f0       	breq	.+8      	; 0x4324 <_fpadd_parts+0x10c>
    431c:	21 e0       	ldi	r18, 0x01	; 1
    431e:	30 e0       	ldi	r19, 0x00	; 0
    4320:	40 e0       	ldi	r20, 0x00	; 0
    4322:	50 e0       	ldi	r21, 0x00	; 0
    4324:	79 01       	movw	r14, r18
    4326:	8a 01       	movw	r16, r20
    4328:	e6 28       	or	r14, r6
    432a:	f7 28       	or	r15, r7
    432c:	08 29       	or	r16, r8
    432e:	19 29       	or	r17, r9
    4330:	3c c0       	rjmp	.+120    	; 0x43aa <_fpadd_parts+0x192>
    4332:	23 2b       	or	r18, r19
    4334:	d1 f1       	breq	.+116    	; 0x43aa <_fpadd_parts+0x192>
    4336:	26 0e       	add	r2, r22
    4338:	37 1e       	adc	r3, r23
    433a:	35 01       	movw	r6, r10
    433c:	46 01       	movw	r8, r12
    433e:	06 2e       	mov	r0, r22
    4340:	04 c0       	rjmp	.+8      	; 0x434a <_fpadd_parts+0x132>
    4342:	96 94       	lsr	r9
    4344:	87 94       	ror	r8
    4346:	77 94       	ror	r7
    4348:	67 94       	ror	r6
    434a:	0a 94       	dec	r0
    434c:	d2 f7       	brpl	.-12     	; 0x4342 <_fpadd_parts+0x12a>
    434e:	21 e0       	ldi	r18, 0x01	; 1
    4350:	30 e0       	ldi	r19, 0x00	; 0
    4352:	40 e0       	ldi	r20, 0x00	; 0
    4354:	50 e0       	ldi	r21, 0x00	; 0
    4356:	04 c0       	rjmp	.+8      	; 0x4360 <_fpadd_parts+0x148>
    4358:	22 0f       	add	r18, r18
    435a:	33 1f       	adc	r19, r19
    435c:	44 1f       	adc	r20, r20
    435e:	55 1f       	adc	r21, r21
    4360:	6a 95       	dec	r22
    4362:	d2 f7       	brpl	.-12     	; 0x4358 <_fpadd_parts+0x140>
    4364:	21 50       	subi	r18, 0x01	; 1
    4366:	30 40       	sbci	r19, 0x00	; 0
    4368:	40 40       	sbci	r20, 0x00	; 0
    436a:	50 40       	sbci	r21, 0x00	; 0
    436c:	2a 21       	and	r18, r10
    436e:	3b 21       	and	r19, r11
    4370:	4c 21       	and	r20, r12
    4372:	5d 21       	and	r21, r13
    4374:	21 15       	cp	r18, r1
    4376:	31 05       	cpc	r19, r1
    4378:	41 05       	cpc	r20, r1
    437a:	51 05       	cpc	r21, r1
    437c:	21 f0       	breq	.+8      	; 0x4386 <_fpadd_parts+0x16e>
    437e:	21 e0       	ldi	r18, 0x01	; 1
    4380:	30 e0       	ldi	r19, 0x00	; 0
    4382:	40 e0       	ldi	r20, 0x00	; 0
    4384:	50 e0       	ldi	r21, 0x00	; 0
    4386:	59 01       	movw	r10, r18
    4388:	6a 01       	movw	r12, r20
    438a:	a6 28       	or	r10, r6
    438c:	b7 28       	or	r11, r7
    438e:	c8 28       	or	r12, r8
    4390:	d9 28       	or	r13, r9
    4392:	0b c0       	rjmp	.+22     	; 0x43aa <_fpadd_parts+0x192>
    4394:	82 15       	cp	r24, r2
    4396:	93 05       	cpc	r25, r3
    4398:	2c f0       	brlt	.+10     	; 0x43a4 <_fpadd_parts+0x18c>
    439a:	1c 01       	movw	r2, r24
    439c:	aa 24       	eor	r10, r10
    439e:	bb 24       	eor	r11, r11
    43a0:	65 01       	movw	r12, r10
    43a2:	03 c0       	rjmp	.+6      	; 0x43aa <_fpadd_parts+0x192>
    43a4:	ee 24       	eor	r14, r14
    43a6:	ff 24       	eor	r15, r15
    43a8:	87 01       	movw	r16, r14
    43aa:	11 96       	adiw	r26, 0x01	; 1
    43ac:	9c 91       	ld	r25, X
    43ae:	d2 01       	movw	r26, r4
    43b0:	11 96       	adiw	r26, 0x01	; 1
    43b2:	8c 91       	ld	r24, X
    43b4:	98 17       	cp	r25, r24
    43b6:	09 f4       	brne	.+2      	; 0x43ba <_fpadd_parts+0x1a2>
    43b8:	45 c0       	rjmp	.+138    	; 0x4444 <_fpadd_parts+0x22c>
    43ba:	99 23       	and	r25, r25
    43bc:	39 f0       	breq	.+14     	; 0x43cc <_fpadd_parts+0x1b4>
    43be:	a8 01       	movw	r20, r16
    43c0:	97 01       	movw	r18, r14
    43c2:	2a 19       	sub	r18, r10
    43c4:	3b 09       	sbc	r19, r11
    43c6:	4c 09       	sbc	r20, r12
    43c8:	5d 09       	sbc	r21, r13
    43ca:	06 c0       	rjmp	.+12     	; 0x43d8 <_fpadd_parts+0x1c0>
    43cc:	a6 01       	movw	r20, r12
    43ce:	95 01       	movw	r18, r10
    43d0:	2e 19       	sub	r18, r14
    43d2:	3f 09       	sbc	r19, r15
    43d4:	40 0b       	sbc	r20, r16
    43d6:	51 0b       	sbc	r21, r17
    43d8:	57 fd       	sbrc	r21, 7
    43da:	08 c0       	rjmp	.+16     	; 0x43ec <_fpadd_parts+0x1d4>
    43dc:	11 82       	std	Z+1, r1	; 0x01
    43de:	22 82       	std	Z+2, r2	; 0x02
    43e0:	33 82       	std	Z+3, r3	; 0x03
    43e2:	24 83       	std	Z+4, r18	; 0x04
    43e4:	35 83       	std	Z+5, r19	; 0x05
    43e6:	46 83       	std	Z+6, r20	; 0x06
    43e8:	57 83       	std	Z+7, r21	; 0x07
    43ea:	1d c0       	rjmp	.+58     	; 0x4426 <_fpadd_parts+0x20e>
    43ec:	81 e0       	ldi	r24, 0x01	; 1
    43ee:	81 83       	std	Z+1, r24	; 0x01
    43f0:	22 82       	std	Z+2, r2	; 0x02
    43f2:	33 82       	std	Z+3, r3	; 0x03
    43f4:	88 27       	eor	r24, r24
    43f6:	99 27       	eor	r25, r25
    43f8:	dc 01       	movw	r26, r24
    43fa:	82 1b       	sub	r24, r18
    43fc:	93 0b       	sbc	r25, r19
    43fe:	a4 0b       	sbc	r26, r20
    4400:	b5 0b       	sbc	r27, r21
    4402:	84 83       	std	Z+4, r24	; 0x04
    4404:	95 83       	std	Z+5, r25	; 0x05
    4406:	a6 83       	std	Z+6, r26	; 0x06
    4408:	b7 83       	std	Z+7, r27	; 0x07
    440a:	0d c0       	rjmp	.+26     	; 0x4426 <_fpadd_parts+0x20e>
    440c:	22 0f       	add	r18, r18
    440e:	33 1f       	adc	r19, r19
    4410:	44 1f       	adc	r20, r20
    4412:	55 1f       	adc	r21, r21
    4414:	24 83       	std	Z+4, r18	; 0x04
    4416:	35 83       	std	Z+5, r19	; 0x05
    4418:	46 83       	std	Z+6, r20	; 0x06
    441a:	57 83       	std	Z+7, r21	; 0x07
    441c:	82 81       	ldd	r24, Z+2	; 0x02
    441e:	93 81       	ldd	r25, Z+3	; 0x03
    4420:	01 97       	sbiw	r24, 0x01	; 1
    4422:	82 83       	std	Z+2, r24	; 0x02
    4424:	93 83       	std	Z+3, r25	; 0x03
    4426:	24 81       	ldd	r18, Z+4	; 0x04
    4428:	35 81       	ldd	r19, Z+5	; 0x05
    442a:	46 81       	ldd	r20, Z+6	; 0x06
    442c:	57 81       	ldd	r21, Z+7	; 0x07
    442e:	da 01       	movw	r26, r20
    4430:	c9 01       	movw	r24, r18
    4432:	01 97       	sbiw	r24, 0x01	; 1
    4434:	a1 09       	sbc	r26, r1
    4436:	b1 09       	sbc	r27, r1
    4438:	8f 5f       	subi	r24, 0xFF	; 255
    443a:	9f 4f       	sbci	r25, 0xFF	; 255
    443c:	af 4f       	sbci	r26, 0xFF	; 255
    443e:	bf 43       	sbci	r27, 0x3F	; 63
    4440:	28 f3       	brcs	.-54     	; 0x440c <_fpadd_parts+0x1f4>
    4442:	0b c0       	rjmp	.+22     	; 0x445a <_fpadd_parts+0x242>
    4444:	91 83       	std	Z+1, r25	; 0x01
    4446:	22 82       	std	Z+2, r2	; 0x02
    4448:	33 82       	std	Z+3, r3	; 0x03
    444a:	ea 0c       	add	r14, r10
    444c:	fb 1c       	adc	r15, r11
    444e:	0c 1d       	adc	r16, r12
    4450:	1d 1d       	adc	r17, r13
    4452:	e4 82       	std	Z+4, r14	; 0x04
    4454:	f5 82       	std	Z+5, r15	; 0x05
    4456:	06 83       	std	Z+6, r16	; 0x06
    4458:	17 83       	std	Z+7, r17	; 0x07
    445a:	83 e0       	ldi	r24, 0x03	; 3
    445c:	80 83       	st	Z, r24
    445e:	24 81       	ldd	r18, Z+4	; 0x04
    4460:	35 81       	ldd	r19, Z+5	; 0x05
    4462:	46 81       	ldd	r20, Z+6	; 0x06
    4464:	57 81       	ldd	r21, Z+7	; 0x07
    4466:	57 ff       	sbrs	r21, 7
    4468:	1a c0       	rjmp	.+52     	; 0x449e <_fpadd_parts+0x286>
    446a:	c9 01       	movw	r24, r18
    446c:	aa 27       	eor	r26, r26
    446e:	97 fd       	sbrc	r25, 7
    4470:	a0 95       	com	r26
    4472:	ba 2f       	mov	r27, r26
    4474:	81 70       	andi	r24, 0x01	; 1
    4476:	90 70       	andi	r25, 0x00	; 0
    4478:	a0 70       	andi	r26, 0x00	; 0
    447a:	b0 70       	andi	r27, 0x00	; 0
    447c:	56 95       	lsr	r21
    447e:	47 95       	ror	r20
    4480:	37 95       	ror	r19
    4482:	27 95       	ror	r18
    4484:	82 2b       	or	r24, r18
    4486:	93 2b       	or	r25, r19
    4488:	a4 2b       	or	r26, r20
    448a:	b5 2b       	or	r27, r21
    448c:	84 83       	std	Z+4, r24	; 0x04
    448e:	95 83       	std	Z+5, r25	; 0x05
    4490:	a6 83       	std	Z+6, r26	; 0x06
    4492:	b7 83       	std	Z+7, r27	; 0x07
    4494:	82 81       	ldd	r24, Z+2	; 0x02
    4496:	93 81       	ldd	r25, Z+3	; 0x03
    4498:	01 96       	adiw	r24, 0x01	; 1
    449a:	82 83       	std	Z+2, r24	; 0x02
    449c:	93 83       	std	Z+3, r25	; 0x03
    449e:	df 01       	movw	r26, r30
    44a0:	01 c0       	rjmp	.+2      	; 0x44a4 <_fpadd_parts+0x28c>
    44a2:	d2 01       	movw	r26, r4
    44a4:	cd 01       	movw	r24, r26
    44a6:	cd b7       	in	r28, 0x3d	; 61
    44a8:	de b7       	in	r29, 0x3e	; 62
    44aa:	e2 e1       	ldi	r30, 0x12	; 18
    44ac:	0c 94 43 27 	jmp	0x4e86	; 0x4e86 <__epilogue_restores__>

000044b0 <__subsf3>:
    44b0:	a0 e2       	ldi	r26, 0x20	; 32
    44b2:	b0 e0       	ldi	r27, 0x00	; 0
    44b4:	ee e5       	ldi	r30, 0x5E	; 94
    44b6:	f2 e2       	ldi	r31, 0x22	; 34
    44b8:	0c 94 33 27 	jmp	0x4e66	; 0x4e66 <__prologue_saves__+0x18>
    44bc:	69 83       	std	Y+1, r22	; 0x01
    44be:	7a 83       	std	Y+2, r23	; 0x02
    44c0:	8b 83       	std	Y+3, r24	; 0x03
    44c2:	9c 83       	std	Y+4, r25	; 0x04
    44c4:	2d 83       	std	Y+5, r18	; 0x05
    44c6:	3e 83       	std	Y+6, r19	; 0x06
    44c8:	4f 83       	std	Y+7, r20	; 0x07
    44ca:	58 87       	std	Y+8, r21	; 0x08
    44cc:	e9 e0       	ldi	r30, 0x09	; 9
    44ce:	ee 2e       	mov	r14, r30
    44d0:	f1 2c       	mov	r15, r1
    44d2:	ec 0e       	add	r14, r28
    44d4:	fd 1e       	adc	r15, r29
    44d6:	ce 01       	movw	r24, r28
    44d8:	01 96       	adiw	r24, 0x01	; 1
    44da:	b7 01       	movw	r22, r14
    44dc:	0e 94 15 26 	call	0x4c2a	; 0x4c2a <__unpack_f>
    44e0:	8e 01       	movw	r16, r28
    44e2:	0f 5e       	subi	r16, 0xEF	; 239
    44e4:	1f 4f       	sbci	r17, 0xFF	; 255
    44e6:	ce 01       	movw	r24, r28
    44e8:	05 96       	adiw	r24, 0x05	; 5
    44ea:	b8 01       	movw	r22, r16
    44ec:	0e 94 15 26 	call	0x4c2a	; 0x4c2a <__unpack_f>
    44f0:	8a 89       	ldd	r24, Y+18	; 0x12
    44f2:	91 e0       	ldi	r25, 0x01	; 1
    44f4:	89 27       	eor	r24, r25
    44f6:	8a 8b       	std	Y+18, r24	; 0x12
    44f8:	c7 01       	movw	r24, r14
    44fa:	b8 01       	movw	r22, r16
    44fc:	ae 01       	movw	r20, r28
    44fe:	47 5e       	subi	r20, 0xE7	; 231
    4500:	5f 4f       	sbci	r21, 0xFF	; 255
    4502:	0e 94 0c 21 	call	0x4218	; 0x4218 <_fpadd_parts>
    4506:	0e 94 40 25 	call	0x4a80	; 0x4a80 <__pack_f>
    450a:	a0 96       	adiw	r28, 0x20	; 32
    450c:	e6 e0       	ldi	r30, 0x06	; 6
    450e:	0c 94 4f 27 	jmp	0x4e9e	; 0x4e9e <__epilogue_restores__+0x18>

00004512 <__addsf3>:
    4512:	a0 e2       	ldi	r26, 0x20	; 32
    4514:	b0 e0       	ldi	r27, 0x00	; 0
    4516:	ef e8       	ldi	r30, 0x8F	; 143
    4518:	f2 e2       	ldi	r31, 0x22	; 34
    451a:	0c 94 33 27 	jmp	0x4e66	; 0x4e66 <__prologue_saves__+0x18>
    451e:	69 83       	std	Y+1, r22	; 0x01
    4520:	7a 83       	std	Y+2, r23	; 0x02
    4522:	8b 83       	std	Y+3, r24	; 0x03
    4524:	9c 83       	std	Y+4, r25	; 0x04
    4526:	2d 83       	std	Y+5, r18	; 0x05
    4528:	3e 83       	std	Y+6, r19	; 0x06
    452a:	4f 83       	std	Y+7, r20	; 0x07
    452c:	58 87       	std	Y+8, r21	; 0x08
    452e:	f9 e0       	ldi	r31, 0x09	; 9
    4530:	ef 2e       	mov	r14, r31
    4532:	f1 2c       	mov	r15, r1
    4534:	ec 0e       	add	r14, r28
    4536:	fd 1e       	adc	r15, r29
    4538:	ce 01       	movw	r24, r28
    453a:	01 96       	adiw	r24, 0x01	; 1
    453c:	b7 01       	movw	r22, r14
    453e:	0e 94 15 26 	call	0x4c2a	; 0x4c2a <__unpack_f>
    4542:	8e 01       	movw	r16, r28
    4544:	0f 5e       	subi	r16, 0xEF	; 239
    4546:	1f 4f       	sbci	r17, 0xFF	; 255
    4548:	ce 01       	movw	r24, r28
    454a:	05 96       	adiw	r24, 0x05	; 5
    454c:	b8 01       	movw	r22, r16
    454e:	0e 94 15 26 	call	0x4c2a	; 0x4c2a <__unpack_f>
    4552:	c7 01       	movw	r24, r14
    4554:	b8 01       	movw	r22, r16
    4556:	ae 01       	movw	r20, r28
    4558:	47 5e       	subi	r20, 0xE7	; 231
    455a:	5f 4f       	sbci	r21, 0xFF	; 255
    455c:	0e 94 0c 21 	call	0x4218	; 0x4218 <_fpadd_parts>
    4560:	0e 94 40 25 	call	0x4a80	; 0x4a80 <__pack_f>
    4564:	a0 96       	adiw	r28, 0x20	; 32
    4566:	e6 e0       	ldi	r30, 0x06	; 6
    4568:	0c 94 4f 27 	jmp	0x4e9e	; 0x4e9e <__epilogue_restores__+0x18>

0000456c <__mulsf3>:
    456c:	a0 e2       	ldi	r26, 0x20	; 32
    456e:	b0 e0       	ldi	r27, 0x00	; 0
    4570:	ec eb       	ldi	r30, 0xBC	; 188
    4572:	f2 e2       	ldi	r31, 0x22	; 34
    4574:	0c 94 27 27 	jmp	0x4e4e	; 0x4e4e <__prologue_saves__>
    4578:	69 83       	std	Y+1, r22	; 0x01
    457a:	7a 83       	std	Y+2, r23	; 0x02
    457c:	8b 83       	std	Y+3, r24	; 0x03
    457e:	9c 83       	std	Y+4, r25	; 0x04
    4580:	2d 83       	std	Y+5, r18	; 0x05
    4582:	3e 83       	std	Y+6, r19	; 0x06
    4584:	4f 83       	std	Y+7, r20	; 0x07
    4586:	58 87       	std	Y+8, r21	; 0x08
    4588:	ce 01       	movw	r24, r28
    458a:	01 96       	adiw	r24, 0x01	; 1
    458c:	be 01       	movw	r22, r28
    458e:	67 5f       	subi	r22, 0xF7	; 247
    4590:	7f 4f       	sbci	r23, 0xFF	; 255
    4592:	0e 94 15 26 	call	0x4c2a	; 0x4c2a <__unpack_f>
    4596:	ce 01       	movw	r24, r28
    4598:	05 96       	adiw	r24, 0x05	; 5
    459a:	be 01       	movw	r22, r28
    459c:	6f 5e       	subi	r22, 0xEF	; 239
    459e:	7f 4f       	sbci	r23, 0xFF	; 255
    45a0:	0e 94 15 26 	call	0x4c2a	; 0x4c2a <__unpack_f>
    45a4:	99 85       	ldd	r25, Y+9	; 0x09
    45a6:	92 30       	cpi	r25, 0x02	; 2
    45a8:	88 f0       	brcs	.+34     	; 0x45cc <__mulsf3+0x60>
    45aa:	89 89       	ldd	r24, Y+17	; 0x11
    45ac:	82 30       	cpi	r24, 0x02	; 2
    45ae:	c8 f0       	brcs	.+50     	; 0x45e2 <__mulsf3+0x76>
    45b0:	94 30       	cpi	r25, 0x04	; 4
    45b2:	19 f4       	brne	.+6      	; 0x45ba <__mulsf3+0x4e>
    45b4:	82 30       	cpi	r24, 0x02	; 2
    45b6:	51 f4       	brne	.+20     	; 0x45cc <__mulsf3+0x60>
    45b8:	04 c0       	rjmp	.+8      	; 0x45c2 <__mulsf3+0x56>
    45ba:	84 30       	cpi	r24, 0x04	; 4
    45bc:	29 f4       	brne	.+10     	; 0x45c8 <__mulsf3+0x5c>
    45be:	92 30       	cpi	r25, 0x02	; 2
    45c0:	81 f4       	brne	.+32     	; 0x45e2 <__mulsf3+0x76>
    45c2:	87 e2       	ldi	r24, 0x27	; 39
    45c4:	91 e2       	ldi	r25, 0x21	; 33
    45c6:	c6 c0       	rjmp	.+396    	; 0x4754 <__mulsf3+0x1e8>
    45c8:	92 30       	cpi	r25, 0x02	; 2
    45ca:	49 f4       	brne	.+18     	; 0x45de <__mulsf3+0x72>
    45cc:	20 e0       	ldi	r18, 0x00	; 0
    45ce:	9a 85       	ldd	r25, Y+10	; 0x0a
    45d0:	8a 89       	ldd	r24, Y+18	; 0x12
    45d2:	98 13       	cpse	r25, r24
    45d4:	21 e0       	ldi	r18, 0x01	; 1
    45d6:	2a 87       	std	Y+10, r18	; 0x0a
    45d8:	ce 01       	movw	r24, r28
    45da:	09 96       	adiw	r24, 0x09	; 9
    45dc:	bb c0       	rjmp	.+374    	; 0x4754 <__mulsf3+0x1e8>
    45de:	82 30       	cpi	r24, 0x02	; 2
    45e0:	49 f4       	brne	.+18     	; 0x45f4 <__mulsf3+0x88>
    45e2:	20 e0       	ldi	r18, 0x00	; 0
    45e4:	9a 85       	ldd	r25, Y+10	; 0x0a
    45e6:	8a 89       	ldd	r24, Y+18	; 0x12
    45e8:	98 13       	cpse	r25, r24
    45ea:	21 e0       	ldi	r18, 0x01	; 1
    45ec:	2a 8b       	std	Y+18, r18	; 0x12
    45ee:	ce 01       	movw	r24, r28
    45f0:	41 96       	adiw	r24, 0x11	; 17
    45f2:	b0 c0       	rjmp	.+352    	; 0x4754 <__mulsf3+0x1e8>
    45f4:	2d 84       	ldd	r2, Y+13	; 0x0d
    45f6:	3e 84       	ldd	r3, Y+14	; 0x0e
    45f8:	4f 84       	ldd	r4, Y+15	; 0x0f
    45fa:	58 88       	ldd	r5, Y+16	; 0x10
    45fc:	6d 88       	ldd	r6, Y+21	; 0x15
    45fe:	7e 88       	ldd	r7, Y+22	; 0x16
    4600:	8f 88       	ldd	r8, Y+23	; 0x17
    4602:	98 8c       	ldd	r9, Y+24	; 0x18
    4604:	ee 24       	eor	r14, r14
    4606:	ff 24       	eor	r15, r15
    4608:	87 01       	movw	r16, r14
    460a:	aa 24       	eor	r10, r10
    460c:	bb 24       	eor	r11, r11
    460e:	65 01       	movw	r12, r10
    4610:	40 e0       	ldi	r20, 0x00	; 0
    4612:	50 e0       	ldi	r21, 0x00	; 0
    4614:	60 e0       	ldi	r22, 0x00	; 0
    4616:	70 e0       	ldi	r23, 0x00	; 0
    4618:	e0 e0       	ldi	r30, 0x00	; 0
    461a:	f0 e0       	ldi	r31, 0x00	; 0
    461c:	c1 01       	movw	r24, r2
    461e:	81 70       	andi	r24, 0x01	; 1
    4620:	90 70       	andi	r25, 0x00	; 0
    4622:	89 2b       	or	r24, r25
    4624:	e9 f0       	breq	.+58     	; 0x4660 <__mulsf3+0xf4>
    4626:	e6 0c       	add	r14, r6
    4628:	f7 1c       	adc	r15, r7
    462a:	08 1d       	adc	r16, r8
    462c:	19 1d       	adc	r17, r9
    462e:	9a 01       	movw	r18, r20
    4630:	ab 01       	movw	r20, r22
    4632:	2a 0d       	add	r18, r10
    4634:	3b 1d       	adc	r19, r11
    4636:	4c 1d       	adc	r20, r12
    4638:	5d 1d       	adc	r21, r13
    463a:	80 e0       	ldi	r24, 0x00	; 0
    463c:	90 e0       	ldi	r25, 0x00	; 0
    463e:	a0 e0       	ldi	r26, 0x00	; 0
    4640:	b0 e0       	ldi	r27, 0x00	; 0
    4642:	e6 14       	cp	r14, r6
    4644:	f7 04       	cpc	r15, r7
    4646:	08 05       	cpc	r16, r8
    4648:	19 05       	cpc	r17, r9
    464a:	20 f4       	brcc	.+8      	; 0x4654 <__mulsf3+0xe8>
    464c:	81 e0       	ldi	r24, 0x01	; 1
    464e:	90 e0       	ldi	r25, 0x00	; 0
    4650:	a0 e0       	ldi	r26, 0x00	; 0
    4652:	b0 e0       	ldi	r27, 0x00	; 0
    4654:	ba 01       	movw	r22, r20
    4656:	a9 01       	movw	r20, r18
    4658:	48 0f       	add	r20, r24
    465a:	59 1f       	adc	r21, r25
    465c:	6a 1f       	adc	r22, r26
    465e:	7b 1f       	adc	r23, r27
    4660:	aa 0c       	add	r10, r10
    4662:	bb 1c       	adc	r11, r11
    4664:	cc 1c       	adc	r12, r12
    4666:	dd 1c       	adc	r13, r13
    4668:	97 fe       	sbrs	r9, 7
    466a:	08 c0       	rjmp	.+16     	; 0x467c <__mulsf3+0x110>
    466c:	81 e0       	ldi	r24, 0x01	; 1
    466e:	90 e0       	ldi	r25, 0x00	; 0
    4670:	a0 e0       	ldi	r26, 0x00	; 0
    4672:	b0 e0       	ldi	r27, 0x00	; 0
    4674:	a8 2a       	or	r10, r24
    4676:	b9 2a       	or	r11, r25
    4678:	ca 2a       	or	r12, r26
    467a:	db 2a       	or	r13, r27
    467c:	31 96       	adiw	r30, 0x01	; 1
    467e:	e0 32       	cpi	r30, 0x20	; 32
    4680:	f1 05       	cpc	r31, r1
    4682:	49 f0       	breq	.+18     	; 0x4696 <__mulsf3+0x12a>
    4684:	66 0c       	add	r6, r6
    4686:	77 1c       	adc	r7, r7
    4688:	88 1c       	adc	r8, r8
    468a:	99 1c       	adc	r9, r9
    468c:	56 94       	lsr	r5
    468e:	47 94       	ror	r4
    4690:	37 94       	ror	r3
    4692:	27 94       	ror	r2
    4694:	c3 cf       	rjmp	.-122    	; 0x461c <__mulsf3+0xb0>
    4696:	fa 85       	ldd	r31, Y+10	; 0x0a
    4698:	ea 89       	ldd	r30, Y+18	; 0x12
    469a:	2b 89       	ldd	r18, Y+19	; 0x13
    469c:	3c 89       	ldd	r19, Y+20	; 0x14
    469e:	8b 85       	ldd	r24, Y+11	; 0x0b
    46a0:	9c 85       	ldd	r25, Y+12	; 0x0c
    46a2:	28 0f       	add	r18, r24
    46a4:	39 1f       	adc	r19, r25
    46a6:	2e 5f       	subi	r18, 0xFE	; 254
    46a8:	3f 4f       	sbci	r19, 0xFF	; 255
    46aa:	17 c0       	rjmp	.+46     	; 0x46da <__mulsf3+0x16e>
    46ac:	ca 01       	movw	r24, r20
    46ae:	81 70       	andi	r24, 0x01	; 1
    46b0:	90 70       	andi	r25, 0x00	; 0
    46b2:	89 2b       	or	r24, r25
    46b4:	61 f0       	breq	.+24     	; 0x46ce <__mulsf3+0x162>
    46b6:	16 95       	lsr	r17
    46b8:	07 95       	ror	r16
    46ba:	f7 94       	ror	r15
    46bc:	e7 94       	ror	r14
    46be:	80 e0       	ldi	r24, 0x00	; 0
    46c0:	90 e0       	ldi	r25, 0x00	; 0
    46c2:	a0 e0       	ldi	r26, 0x00	; 0
    46c4:	b0 e8       	ldi	r27, 0x80	; 128
    46c6:	e8 2a       	or	r14, r24
    46c8:	f9 2a       	or	r15, r25
    46ca:	0a 2b       	or	r16, r26
    46cc:	1b 2b       	or	r17, r27
    46ce:	76 95       	lsr	r23
    46d0:	67 95       	ror	r22
    46d2:	57 95       	ror	r21
    46d4:	47 95       	ror	r20
    46d6:	2f 5f       	subi	r18, 0xFF	; 255
    46d8:	3f 4f       	sbci	r19, 0xFF	; 255
    46da:	77 fd       	sbrc	r23, 7
    46dc:	e7 cf       	rjmp	.-50     	; 0x46ac <__mulsf3+0x140>
    46de:	0c c0       	rjmp	.+24     	; 0x46f8 <__mulsf3+0x18c>
    46e0:	44 0f       	add	r20, r20
    46e2:	55 1f       	adc	r21, r21
    46e4:	66 1f       	adc	r22, r22
    46e6:	77 1f       	adc	r23, r23
    46e8:	17 fd       	sbrc	r17, 7
    46ea:	41 60       	ori	r20, 0x01	; 1
    46ec:	ee 0c       	add	r14, r14
    46ee:	ff 1c       	adc	r15, r15
    46f0:	00 1f       	adc	r16, r16
    46f2:	11 1f       	adc	r17, r17
    46f4:	21 50       	subi	r18, 0x01	; 1
    46f6:	30 40       	sbci	r19, 0x00	; 0
    46f8:	40 30       	cpi	r20, 0x00	; 0
    46fa:	90 e0       	ldi	r25, 0x00	; 0
    46fc:	59 07       	cpc	r21, r25
    46fe:	90 e0       	ldi	r25, 0x00	; 0
    4700:	69 07       	cpc	r22, r25
    4702:	90 e4       	ldi	r25, 0x40	; 64
    4704:	79 07       	cpc	r23, r25
    4706:	60 f3       	brcs	.-40     	; 0x46e0 <__mulsf3+0x174>
    4708:	2b 8f       	std	Y+27, r18	; 0x1b
    470a:	3c 8f       	std	Y+28, r19	; 0x1c
    470c:	db 01       	movw	r26, r22
    470e:	ca 01       	movw	r24, r20
    4710:	8f 77       	andi	r24, 0x7F	; 127
    4712:	90 70       	andi	r25, 0x00	; 0
    4714:	a0 70       	andi	r26, 0x00	; 0
    4716:	b0 70       	andi	r27, 0x00	; 0
    4718:	80 34       	cpi	r24, 0x40	; 64
    471a:	91 05       	cpc	r25, r1
    471c:	a1 05       	cpc	r26, r1
    471e:	b1 05       	cpc	r27, r1
    4720:	61 f4       	brne	.+24     	; 0x473a <__mulsf3+0x1ce>
    4722:	47 fd       	sbrc	r20, 7
    4724:	0a c0       	rjmp	.+20     	; 0x473a <__mulsf3+0x1ce>
    4726:	e1 14       	cp	r14, r1
    4728:	f1 04       	cpc	r15, r1
    472a:	01 05       	cpc	r16, r1
    472c:	11 05       	cpc	r17, r1
    472e:	29 f0       	breq	.+10     	; 0x473a <__mulsf3+0x1ce>
    4730:	40 5c       	subi	r20, 0xC0	; 192
    4732:	5f 4f       	sbci	r21, 0xFF	; 255
    4734:	6f 4f       	sbci	r22, 0xFF	; 255
    4736:	7f 4f       	sbci	r23, 0xFF	; 255
    4738:	40 78       	andi	r20, 0x80	; 128
    473a:	1a 8e       	std	Y+26, r1	; 0x1a
    473c:	fe 17       	cp	r31, r30
    473e:	11 f0       	breq	.+4      	; 0x4744 <__mulsf3+0x1d8>
    4740:	81 e0       	ldi	r24, 0x01	; 1
    4742:	8a 8f       	std	Y+26, r24	; 0x1a
    4744:	4d 8f       	std	Y+29, r20	; 0x1d
    4746:	5e 8f       	std	Y+30, r21	; 0x1e
    4748:	6f 8f       	std	Y+31, r22	; 0x1f
    474a:	78 a3       	std	Y+32, r23	; 0x20
    474c:	83 e0       	ldi	r24, 0x03	; 3
    474e:	89 8f       	std	Y+25, r24	; 0x19
    4750:	ce 01       	movw	r24, r28
    4752:	49 96       	adiw	r24, 0x19	; 25
    4754:	0e 94 40 25 	call	0x4a80	; 0x4a80 <__pack_f>
    4758:	a0 96       	adiw	r28, 0x20	; 32
    475a:	e2 e1       	ldi	r30, 0x12	; 18
    475c:	0c 94 43 27 	jmp	0x4e86	; 0x4e86 <__epilogue_restores__>

00004760 <__divsf3>:
    4760:	a8 e1       	ldi	r26, 0x18	; 24
    4762:	b0 e0       	ldi	r27, 0x00	; 0
    4764:	e6 eb       	ldi	r30, 0xB6	; 182
    4766:	f3 e2       	ldi	r31, 0x23	; 35
    4768:	0c 94 2f 27 	jmp	0x4e5e	; 0x4e5e <__prologue_saves__+0x10>
    476c:	69 83       	std	Y+1, r22	; 0x01
    476e:	7a 83       	std	Y+2, r23	; 0x02
    4770:	8b 83       	std	Y+3, r24	; 0x03
    4772:	9c 83       	std	Y+4, r25	; 0x04
    4774:	2d 83       	std	Y+5, r18	; 0x05
    4776:	3e 83       	std	Y+6, r19	; 0x06
    4778:	4f 83       	std	Y+7, r20	; 0x07
    477a:	58 87       	std	Y+8, r21	; 0x08
    477c:	b9 e0       	ldi	r27, 0x09	; 9
    477e:	eb 2e       	mov	r14, r27
    4780:	f1 2c       	mov	r15, r1
    4782:	ec 0e       	add	r14, r28
    4784:	fd 1e       	adc	r15, r29
    4786:	ce 01       	movw	r24, r28
    4788:	01 96       	adiw	r24, 0x01	; 1
    478a:	b7 01       	movw	r22, r14
    478c:	0e 94 15 26 	call	0x4c2a	; 0x4c2a <__unpack_f>
    4790:	8e 01       	movw	r16, r28
    4792:	0f 5e       	subi	r16, 0xEF	; 239
    4794:	1f 4f       	sbci	r17, 0xFF	; 255
    4796:	ce 01       	movw	r24, r28
    4798:	05 96       	adiw	r24, 0x05	; 5
    479a:	b8 01       	movw	r22, r16
    479c:	0e 94 15 26 	call	0x4c2a	; 0x4c2a <__unpack_f>
    47a0:	29 85       	ldd	r18, Y+9	; 0x09
    47a2:	22 30       	cpi	r18, 0x02	; 2
    47a4:	08 f4       	brcc	.+2      	; 0x47a8 <__divsf3+0x48>
    47a6:	7e c0       	rjmp	.+252    	; 0x48a4 <__divsf3+0x144>
    47a8:	39 89       	ldd	r19, Y+17	; 0x11
    47aa:	32 30       	cpi	r19, 0x02	; 2
    47ac:	10 f4       	brcc	.+4      	; 0x47b2 <__divsf3+0x52>
    47ae:	b8 01       	movw	r22, r16
    47b0:	7c c0       	rjmp	.+248    	; 0x48aa <__divsf3+0x14a>
    47b2:	8a 85       	ldd	r24, Y+10	; 0x0a
    47b4:	9a 89       	ldd	r25, Y+18	; 0x12
    47b6:	89 27       	eor	r24, r25
    47b8:	8a 87       	std	Y+10, r24	; 0x0a
    47ba:	24 30       	cpi	r18, 0x04	; 4
    47bc:	11 f0       	breq	.+4      	; 0x47c2 <__divsf3+0x62>
    47be:	22 30       	cpi	r18, 0x02	; 2
    47c0:	31 f4       	brne	.+12     	; 0x47ce <__divsf3+0x6e>
    47c2:	23 17       	cp	r18, r19
    47c4:	09 f0       	breq	.+2      	; 0x47c8 <__divsf3+0x68>
    47c6:	6e c0       	rjmp	.+220    	; 0x48a4 <__divsf3+0x144>
    47c8:	67 e2       	ldi	r22, 0x27	; 39
    47ca:	71 e2       	ldi	r23, 0x21	; 33
    47cc:	6e c0       	rjmp	.+220    	; 0x48aa <__divsf3+0x14a>
    47ce:	34 30       	cpi	r19, 0x04	; 4
    47d0:	39 f4       	brne	.+14     	; 0x47e0 <__divsf3+0x80>
    47d2:	1d 86       	std	Y+13, r1	; 0x0d
    47d4:	1e 86       	std	Y+14, r1	; 0x0e
    47d6:	1f 86       	std	Y+15, r1	; 0x0f
    47d8:	18 8a       	std	Y+16, r1	; 0x10
    47da:	1b 86       	std	Y+11, r1	; 0x0b
    47dc:	1c 86       	std	Y+12, r1	; 0x0c
    47de:	04 c0       	rjmp	.+8      	; 0x47e8 <__divsf3+0x88>
    47e0:	32 30       	cpi	r19, 0x02	; 2
    47e2:	21 f4       	brne	.+8      	; 0x47ec <__divsf3+0x8c>
    47e4:	84 e0       	ldi	r24, 0x04	; 4
    47e6:	89 87       	std	Y+9, r24	; 0x09
    47e8:	b7 01       	movw	r22, r14
    47ea:	5f c0       	rjmp	.+190    	; 0x48aa <__divsf3+0x14a>
    47ec:	2b 85       	ldd	r18, Y+11	; 0x0b
    47ee:	3c 85       	ldd	r19, Y+12	; 0x0c
    47f0:	8b 89       	ldd	r24, Y+19	; 0x13
    47f2:	9c 89       	ldd	r25, Y+20	; 0x14
    47f4:	28 1b       	sub	r18, r24
    47f6:	39 0b       	sbc	r19, r25
    47f8:	2b 87       	std	Y+11, r18	; 0x0b
    47fa:	3c 87       	std	Y+12, r19	; 0x0c
    47fc:	ed 84       	ldd	r14, Y+13	; 0x0d
    47fe:	fe 84       	ldd	r15, Y+14	; 0x0e
    4800:	0f 85       	ldd	r16, Y+15	; 0x0f
    4802:	18 89       	ldd	r17, Y+16	; 0x10
    4804:	ad 88       	ldd	r10, Y+21	; 0x15
    4806:	be 88       	ldd	r11, Y+22	; 0x16
    4808:	cf 88       	ldd	r12, Y+23	; 0x17
    480a:	d8 8c       	ldd	r13, Y+24	; 0x18
    480c:	ea 14       	cp	r14, r10
    480e:	fb 04       	cpc	r15, r11
    4810:	0c 05       	cpc	r16, r12
    4812:	1d 05       	cpc	r17, r13
    4814:	40 f4       	brcc	.+16     	; 0x4826 <__divsf3+0xc6>
    4816:	ee 0c       	add	r14, r14
    4818:	ff 1c       	adc	r15, r15
    481a:	00 1f       	adc	r16, r16
    481c:	11 1f       	adc	r17, r17
    481e:	21 50       	subi	r18, 0x01	; 1
    4820:	30 40       	sbci	r19, 0x00	; 0
    4822:	2b 87       	std	Y+11, r18	; 0x0b
    4824:	3c 87       	std	Y+12, r19	; 0x0c
    4826:	20 e0       	ldi	r18, 0x00	; 0
    4828:	30 e0       	ldi	r19, 0x00	; 0
    482a:	40 e0       	ldi	r20, 0x00	; 0
    482c:	50 e0       	ldi	r21, 0x00	; 0
    482e:	80 e0       	ldi	r24, 0x00	; 0
    4830:	90 e0       	ldi	r25, 0x00	; 0
    4832:	a0 e0       	ldi	r26, 0x00	; 0
    4834:	b0 e4       	ldi	r27, 0x40	; 64
    4836:	60 e0       	ldi	r22, 0x00	; 0
    4838:	70 e0       	ldi	r23, 0x00	; 0
    483a:	ea 14       	cp	r14, r10
    483c:	fb 04       	cpc	r15, r11
    483e:	0c 05       	cpc	r16, r12
    4840:	1d 05       	cpc	r17, r13
    4842:	40 f0       	brcs	.+16     	; 0x4854 <__divsf3+0xf4>
    4844:	28 2b       	or	r18, r24
    4846:	39 2b       	or	r19, r25
    4848:	4a 2b       	or	r20, r26
    484a:	5b 2b       	or	r21, r27
    484c:	ea 18       	sub	r14, r10
    484e:	fb 08       	sbc	r15, r11
    4850:	0c 09       	sbc	r16, r12
    4852:	1d 09       	sbc	r17, r13
    4854:	b6 95       	lsr	r27
    4856:	a7 95       	ror	r26
    4858:	97 95       	ror	r25
    485a:	87 95       	ror	r24
    485c:	ee 0c       	add	r14, r14
    485e:	ff 1c       	adc	r15, r15
    4860:	00 1f       	adc	r16, r16
    4862:	11 1f       	adc	r17, r17
    4864:	6f 5f       	subi	r22, 0xFF	; 255
    4866:	7f 4f       	sbci	r23, 0xFF	; 255
    4868:	6f 31       	cpi	r22, 0x1F	; 31
    486a:	71 05       	cpc	r23, r1
    486c:	31 f7       	brne	.-52     	; 0x483a <__divsf3+0xda>
    486e:	da 01       	movw	r26, r20
    4870:	c9 01       	movw	r24, r18
    4872:	8f 77       	andi	r24, 0x7F	; 127
    4874:	90 70       	andi	r25, 0x00	; 0
    4876:	a0 70       	andi	r26, 0x00	; 0
    4878:	b0 70       	andi	r27, 0x00	; 0
    487a:	80 34       	cpi	r24, 0x40	; 64
    487c:	91 05       	cpc	r25, r1
    487e:	a1 05       	cpc	r26, r1
    4880:	b1 05       	cpc	r27, r1
    4882:	61 f4       	brne	.+24     	; 0x489c <__divsf3+0x13c>
    4884:	27 fd       	sbrc	r18, 7
    4886:	0a c0       	rjmp	.+20     	; 0x489c <__divsf3+0x13c>
    4888:	e1 14       	cp	r14, r1
    488a:	f1 04       	cpc	r15, r1
    488c:	01 05       	cpc	r16, r1
    488e:	11 05       	cpc	r17, r1
    4890:	29 f0       	breq	.+10     	; 0x489c <__divsf3+0x13c>
    4892:	20 5c       	subi	r18, 0xC0	; 192
    4894:	3f 4f       	sbci	r19, 0xFF	; 255
    4896:	4f 4f       	sbci	r20, 0xFF	; 255
    4898:	5f 4f       	sbci	r21, 0xFF	; 255
    489a:	20 78       	andi	r18, 0x80	; 128
    489c:	2d 87       	std	Y+13, r18	; 0x0d
    489e:	3e 87       	std	Y+14, r19	; 0x0e
    48a0:	4f 87       	std	Y+15, r20	; 0x0f
    48a2:	58 8b       	std	Y+16, r21	; 0x10
    48a4:	be 01       	movw	r22, r28
    48a6:	67 5f       	subi	r22, 0xF7	; 247
    48a8:	7f 4f       	sbci	r23, 0xFF	; 255
    48aa:	cb 01       	movw	r24, r22
    48ac:	0e 94 40 25 	call	0x4a80	; 0x4a80 <__pack_f>
    48b0:	68 96       	adiw	r28, 0x18	; 24
    48b2:	ea e0       	ldi	r30, 0x0A	; 10
    48b4:	0c 94 4b 27 	jmp	0x4e96	; 0x4e96 <__epilogue_restores__+0x10>

000048b8 <__gtsf2>:
    48b8:	a8 e1       	ldi	r26, 0x18	; 24
    48ba:	b0 e0       	ldi	r27, 0x00	; 0
    48bc:	e2 e6       	ldi	r30, 0x62	; 98
    48be:	f4 e2       	ldi	r31, 0x24	; 36
    48c0:	0c 94 33 27 	jmp	0x4e66	; 0x4e66 <__prologue_saves__+0x18>
    48c4:	69 83       	std	Y+1, r22	; 0x01
    48c6:	7a 83       	std	Y+2, r23	; 0x02
    48c8:	8b 83       	std	Y+3, r24	; 0x03
    48ca:	9c 83       	std	Y+4, r25	; 0x04
    48cc:	2d 83       	std	Y+5, r18	; 0x05
    48ce:	3e 83       	std	Y+6, r19	; 0x06
    48d0:	4f 83       	std	Y+7, r20	; 0x07
    48d2:	58 87       	std	Y+8, r21	; 0x08
    48d4:	89 e0       	ldi	r24, 0x09	; 9
    48d6:	e8 2e       	mov	r14, r24
    48d8:	f1 2c       	mov	r15, r1
    48da:	ec 0e       	add	r14, r28
    48dc:	fd 1e       	adc	r15, r29
    48de:	ce 01       	movw	r24, r28
    48e0:	01 96       	adiw	r24, 0x01	; 1
    48e2:	b7 01       	movw	r22, r14
    48e4:	0e 94 15 26 	call	0x4c2a	; 0x4c2a <__unpack_f>
    48e8:	8e 01       	movw	r16, r28
    48ea:	0f 5e       	subi	r16, 0xEF	; 239
    48ec:	1f 4f       	sbci	r17, 0xFF	; 255
    48ee:	ce 01       	movw	r24, r28
    48f0:	05 96       	adiw	r24, 0x05	; 5
    48f2:	b8 01       	movw	r22, r16
    48f4:	0e 94 15 26 	call	0x4c2a	; 0x4c2a <__unpack_f>
    48f8:	89 85       	ldd	r24, Y+9	; 0x09
    48fa:	82 30       	cpi	r24, 0x02	; 2
    48fc:	40 f0       	brcs	.+16     	; 0x490e <__gtsf2+0x56>
    48fe:	89 89       	ldd	r24, Y+17	; 0x11
    4900:	82 30       	cpi	r24, 0x02	; 2
    4902:	28 f0       	brcs	.+10     	; 0x490e <__gtsf2+0x56>
    4904:	c7 01       	movw	r24, r14
    4906:	b8 01       	movw	r22, r16
    4908:	0e 94 8d 26 	call	0x4d1a	; 0x4d1a <__fpcmp_parts_f>
    490c:	01 c0       	rjmp	.+2      	; 0x4910 <__gtsf2+0x58>
    490e:	8f ef       	ldi	r24, 0xFF	; 255
    4910:	68 96       	adiw	r28, 0x18	; 24
    4912:	e6 e0       	ldi	r30, 0x06	; 6
    4914:	0c 94 4f 27 	jmp	0x4e9e	; 0x4e9e <__epilogue_restores__+0x18>

00004918 <__gesf2>:
    4918:	a8 e1       	ldi	r26, 0x18	; 24
    491a:	b0 e0       	ldi	r27, 0x00	; 0
    491c:	e2 e9       	ldi	r30, 0x92	; 146
    491e:	f4 e2       	ldi	r31, 0x24	; 36
    4920:	0c 94 33 27 	jmp	0x4e66	; 0x4e66 <__prologue_saves__+0x18>
    4924:	69 83       	std	Y+1, r22	; 0x01
    4926:	7a 83       	std	Y+2, r23	; 0x02
    4928:	8b 83       	std	Y+3, r24	; 0x03
    492a:	9c 83       	std	Y+4, r25	; 0x04
    492c:	2d 83       	std	Y+5, r18	; 0x05
    492e:	3e 83       	std	Y+6, r19	; 0x06
    4930:	4f 83       	std	Y+7, r20	; 0x07
    4932:	58 87       	std	Y+8, r21	; 0x08
    4934:	89 e0       	ldi	r24, 0x09	; 9
    4936:	e8 2e       	mov	r14, r24
    4938:	f1 2c       	mov	r15, r1
    493a:	ec 0e       	add	r14, r28
    493c:	fd 1e       	adc	r15, r29
    493e:	ce 01       	movw	r24, r28
    4940:	01 96       	adiw	r24, 0x01	; 1
    4942:	b7 01       	movw	r22, r14
    4944:	0e 94 15 26 	call	0x4c2a	; 0x4c2a <__unpack_f>
    4948:	8e 01       	movw	r16, r28
    494a:	0f 5e       	subi	r16, 0xEF	; 239
    494c:	1f 4f       	sbci	r17, 0xFF	; 255
    494e:	ce 01       	movw	r24, r28
    4950:	05 96       	adiw	r24, 0x05	; 5
    4952:	b8 01       	movw	r22, r16
    4954:	0e 94 15 26 	call	0x4c2a	; 0x4c2a <__unpack_f>
    4958:	89 85       	ldd	r24, Y+9	; 0x09
    495a:	82 30       	cpi	r24, 0x02	; 2
    495c:	40 f0       	brcs	.+16     	; 0x496e <__gesf2+0x56>
    495e:	89 89       	ldd	r24, Y+17	; 0x11
    4960:	82 30       	cpi	r24, 0x02	; 2
    4962:	28 f0       	brcs	.+10     	; 0x496e <__gesf2+0x56>
    4964:	c7 01       	movw	r24, r14
    4966:	b8 01       	movw	r22, r16
    4968:	0e 94 8d 26 	call	0x4d1a	; 0x4d1a <__fpcmp_parts_f>
    496c:	01 c0       	rjmp	.+2      	; 0x4970 <__gesf2+0x58>
    496e:	8f ef       	ldi	r24, 0xFF	; 255
    4970:	68 96       	adiw	r28, 0x18	; 24
    4972:	e6 e0       	ldi	r30, 0x06	; 6
    4974:	0c 94 4f 27 	jmp	0x4e9e	; 0x4e9e <__epilogue_restores__+0x18>

00004978 <__ltsf2>:
    4978:	a8 e1       	ldi	r26, 0x18	; 24
    497a:	b0 e0       	ldi	r27, 0x00	; 0
    497c:	e2 ec       	ldi	r30, 0xC2	; 194
    497e:	f4 e2       	ldi	r31, 0x24	; 36
    4980:	0c 94 33 27 	jmp	0x4e66	; 0x4e66 <__prologue_saves__+0x18>
    4984:	69 83       	std	Y+1, r22	; 0x01
    4986:	7a 83       	std	Y+2, r23	; 0x02
    4988:	8b 83       	std	Y+3, r24	; 0x03
    498a:	9c 83       	std	Y+4, r25	; 0x04
    498c:	2d 83       	std	Y+5, r18	; 0x05
    498e:	3e 83       	std	Y+6, r19	; 0x06
    4990:	4f 83       	std	Y+7, r20	; 0x07
    4992:	58 87       	std	Y+8, r21	; 0x08
    4994:	89 e0       	ldi	r24, 0x09	; 9
    4996:	e8 2e       	mov	r14, r24
    4998:	f1 2c       	mov	r15, r1
    499a:	ec 0e       	add	r14, r28
    499c:	fd 1e       	adc	r15, r29
    499e:	ce 01       	movw	r24, r28
    49a0:	01 96       	adiw	r24, 0x01	; 1
    49a2:	b7 01       	movw	r22, r14
    49a4:	0e 94 15 26 	call	0x4c2a	; 0x4c2a <__unpack_f>
    49a8:	8e 01       	movw	r16, r28
    49aa:	0f 5e       	subi	r16, 0xEF	; 239
    49ac:	1f 4f       	sbci	r17, 0xFF	; 255
    49ae:	ce 01       	movw	r24, r28
    49b0:	05 96       	adiw	r24, 0x05	; 5
    49b2:	b8 01       	movw	r22, r16
    49b4:	0e 94 15 26 	call	0x4c2a	; 0x4c2a <__unpack_f>
    49b8:	89 85       	ldd	r24, Y+9	; 0x09
    49ba:	82 30       	cpi	r24, 0x02	; 2
    49bc:	40 f0       	brcs	.+16     	; 0x49ce <__ltsf2+0x56>
    49be:	89 89       	ldd	r24, Y+17	; 0x11
    49c0:	82 30       	cpi	r24, 0x02	; 2
    49c2:	28 f0       	brcs	.+10     	; 0x49ce <__ltsf2+0x56>
    49c4:	c7 01       	movw	r24, r14
    49c6:	b8 01       	movw	r22, r16
    49c8:	0e 94 8d 26 	call	0x4d1a	; 0x4d1a <__fpcmp_parts_f>
    49cc:	01 c0       	rjmp	.+2      	; 0x49d0 <__ltsf2+0x58>
    49ce:	81 e0       	ldi	r24, 0x01	; 1
    49d0:	68 96       	adiw	r28, 0x18	; 24
    49d2:	e6 e0       	ldi	r30, 0x06	; 6
    49d4:	0c 94 4f 27 	jmp	0x4e9e	; 0x4e9e <__epilogue_restores__+0x18>

000049d8 <__fixsfsi>:
    49d8:	ac e0       	ldi	r26, 0x0C	; 12
    49da:	b0 e0       	ldi	r27, 0x00	; 0
    49dc:	e2 ef       	ldi	r30, 0xF2	; 242
    49de:	f4 e2       	ldi	r31, 0x24	; 36
    49e0:	0c 94 37 27 	jmp	0x4e6e	; 0x4e6e <__prologue_saves__+0x20>
    49e4:	69 83       	std	Y+1, r22	; 0x01
    49e6:	7a 83       	std	Y+2, r23	; 0x02
    49e8:	8b 83       	std	Y+3, r24	; 0x03
    49ea:	9c 83       	std	Y+4, r25	; 0x04
    49ec:	ce 01       	movw	r24, r28
    49ee:	01 96       	adiw	r24, 0x01	; 1
    49f0:	be 01       	movw	r22, r28
    49f2:	6b 5f       	subi	r22, 0xFB	; 251
    49f4:	7f 4f       	sbci	r23, 0xFF	; 255
    49f6:	0e 94 15 26 	call	0x4c2a	; 0x4c2a <__unpack_f>
    49fa:	8d 81       	ldd	r24, Y+5	; 0x05
    49fc:	82 30       	cpi	r24, 0x02	; 2
    49fe:	61 f1       	breq	.+88     	; 0x4a58 <__fixsfsi+0x80>
    4a00:	82 30       	cpi	r24, 0x02	; 2
    4a02:	50 f1       	brcs	.+84     	; 0x4a58 <__fixsfsi+0x80>
    4a04:	84 30       	cpi	r24, 0x04	; 4
    4a06:	21 f4       	brne	.+8      	; 0x4a10 <__fixsfsi+0x38>
    4a08:	8e 81       	ldd	r24, Y+6	; 0x06
    4a0a:	88 23       	and	r24, r24
    4a0c:	51 f1       	breq	.+84     	; 0x4a62 <__fixsfsi+0x8a>
    4a0e:	2e c0       	rjmp	.+92     	; 0x4a6c <__fixsfsi+0x94>
    4a10:	2f 81       	ldd	r18, Y+7	; 0x07
    4a12:	38 85       	ldd	r19, Y+8	; 0x08
    4a14:	37 fd       	sbrc	r19, 7
    4a16:	20 c0       	rjmp	.+64     	; 0x4a58 <__fixsfsi+0x80>
    4a18:	6e 81       	ldd	r22, Y+6	; 0x06
    4a1a:	2f 31       	cpi	r18, 0x1F	; 31
    4a1c:	31 05       	cpc	r19, r1
    4a1e:	1c f0       	brlt	.+6      	; 0x4a26 <__fixsfsi+0x4e>
    4a20:	66 23       	and	r22, r22
    4a22:	f9 f0       	breq	.+62     	; 0x4a62 <__fixsfsi+0x8a>
    4a24:	23 c0       	rjmp	.+70     	; 0x4a6c <__fixsfsi+0x94>
    4a26:	8e e1       	ldi	r24, 0x1E	; 30
    4a28:	90 e0       	ldi	r25, 0x00	; 0
    4a2a:	82 1b       	sub	r24, r18
    4a2c:	93 0b       	sbc	r25, r19
    4a2e:	29 85       	ldd	r18, Y+9	; 0x09
    4a30:	3a 85       	ldd	r19, Y+10	; 0x0a
    4a32:	4b 85       	ldd	r20, Y+11	; 0x0b
    4a34:	5c 85       	ldd	r21, Y+12	; 0x0c
    4a36:	04 c0       	rjmp	.+8      	; 0x4a40 <__fixsfsi+0x68>
    4a38:	56 95       	lsr	r21
    4a3a:	47 95       	ror	r20
    4a3c:	37 95       	ror	r19
    4a3e:	27 95       	ror	r18
    4a40:	8a 95       	dec	r24
    4a42:	d2 f7       	brpl	.-12     	; 0x4a38 <__fixsfsi+0x60>
    4a44:	66 23       	and	r22, r22
    4a46:	b1 f0       	breq	.+44     	; 0x4a74 <__fixsfsi+0x9c>
    4a48:	50 95       	com	r21
    4a4a:	40 95       	com	r20
    4a4c:	30 95       	com	r19
    4a4e:	21 95       	neg	r18
    4a50:	3f 4f       	sbci	r19, 0xFF	; 255
    4a52:	4f 4f       	sbci	r20, 0xFF	; 255
    4a54:	5f 4f       	sbci	r21, 0xFF	; 255
    4a56:	0e c0       	rjmp	.+28     	; 0x4a74 <__fixsfsi+0x9c>
    4a58:	20 e0       	ldi	r18, 0x00	; 0
    4a5a:	30 e0       	ldi	r19, 0x00	; 0
    4a5c:	40 e0       	ldi	r20, 0x00	; 0
    4a5e:	50 e0       	ldi	r21, 0x00	; 0
    4a60:	09 c0       	rjmp	.+18     	; 0x4a74 <__fixsfsi+0x9c>
    4a62:	2f ef       	ldi	r18, 0xFF	; 255
    4a64:	3f ef       	ldi	r19, 0xFF	; 255
    4a66:	4f ef       	ldi	r20, 0xFF	; 255
    4a68:	5f e7       	ldi	r21, 0x7F	; 127
    4a6a:	04 c0       	rjmp	.+8      	; 0x4a74 <__fixsfsi+0x9c>
    4a6c:	20 e0       	ldi	r18, 0x00	; 0
    4a6e:	30 e0       	ldi	r19, 0x00	; 0
    4a70:	40 e0       	ldi	r20, 0x00	; 0
    4a72:	50 e8       	ldi	r21, 0x80	; 128
    4a74:	b9 01       	movw	r22, r18
    4a76:	ca 01       	movw	r24, r20
    4a78:	2c 96       	adiw	r28, 0x0c	; 12
    4a7a:	e2 e0       	ldi	r30, 0x02	; 2
    4a7c:	0c 94 53 27 	jmp	0x4ea6	; 0x4ea6 <__epilogue_restores__+0x20>

00004a80 <__pack_f>:
    4a80:	df 92       	push	r13
    4a82:	ef 92       	push	r14
    4a84:	ff 92       	push	r15
    4a86:	0f 93       	push	r16
    4a88:	1f 93       	push	r17
    4a8a:	fc 01       	movw	r30, r24
    4a8c:	e4 80       	ldd	r14, Z+4	; 0x04
    4a8e:	f5 80       	ldd	r15, Z+5	; 0x05
    4a90:	06 81       	ldd	r16, Z+6	; 0x06
    4a92:	17 81       	ldd	r17, Z+7	; 0x07
    4a94:	d1 80       	ldd	r13, Z+1	; 0x01
    4a96:	80 81       	ld	r24, Z
    4a98:	82 30       	cpi	r24, 0x02	; 2
    4a9a:	48 f4       	brcc	.+18     	; 0x4aae <__pack_f+0x2e>
    4a9c:	80 e0       	ldi	r24, 0x00	; 0
    4a9e:	90 e0       	ldi	r25, 0x00	; 0
    4aa0:	a0 e1       	ldi	r26, 0x10	; 16
    4aa2:	b0 e0       	ldi	r27, 0x00	; 0
    4aa4:	e8 2a       	or	r14, r24
    4aa6:	f9 2a       	or	r15, r25
    4aa8:	0a 2b       	or	r16, r26
    4aaa:	1b 2b       	or	r17, r27
    4aac:	a5 c0       	rjmp	.+330    	; 0x4bf8 <__pack_f+0x178>
    4aae:	84 30       	cpi	r24, 0x04	; 4
    4ab0:	09 f4       	brne	.+2      	; 0x4ab4 <__pack_f+0x34>
    4ab2:	9f c0       	rjmp	.+318    	; 0x4bf2 <__pack_f+0x172>
    4ab4:	82 30       	cpi	r24, 0x02	; 2
    4ab6:	21 f4       	brne	.+8      	; 0x4ac0 <__pack_f+0x40>
    4ab8:	ee 24       	eor	r14, r14
    4aba:	ff 24       	eor	r15, r15
    4abc:	87 01       	movw	r16, r14
    4abe:	05 c0       	rjmp	.+10     	; 0x4aca <__pack_f+0x4a>
    4ac0:	e1 14       	cp	r14, r1
    4ac2:	f1 04       	cpc	r15, r1
    4ac4:	01 05       	cpc	r16, r1
    4ac6:	11 05       	cpc	r17, r1
    4ac8:	19 f4       	brne	.+6      	; 0x4ad0 <__pack_f+0x50>
    4aca:	e0 e0       	ldi	r30, 0x00	; 0
    4acc:	f0 e0       	ldi	r31, 0x00	; 0
    4ace:	96 c0       	rjmp	.+300    	; 0x4bfc <__pack_f+0x17c>
    4ad0:	62 81       	ldd	r22, Z+2	; 0x02
    4ad2:	73 81       	ldd	r23, Z+3	; 0x03
    4ad4:	9f ef       	ldi	r25, 0xFF	; 255
    4ad6:	62 38       	cpi	r22, 0x82	; 130
    4ad8:	79 07       	cpc	r23, r25
    4ada:	0c f0       	brlt	.+2      	; 0x4ade <__pack_f+0x5e>
    4adc:	5b c0       	rjmp	.+182    	; 0x4b94 <__pack_f+0x114>
    4ade:	22 e8       	ldi	r18, 0x82	; 130
    4ae0:	3f ef       	ldi	r19, 0xFF	; 255
    4ae2:	26 1b       	sub	r18, r22
    4ae4:	37 0b       	sbc	r19, r23
    4ae6:	2a 31       	cpi	r18, 0x1A	; 26
    4ae8:	31 05       	cpc	r19, r1
    4aea:	2c f0       	brlt	.+10     	; 0x4af6 <__pack_f+0x76>
    4aec:	20 e0       	ldi	r18, 0x00	; 0
    4aee:	30 e0       	ldi	r19, 0x00	; 0
    4af0:	40 e0       	ldi	r20, 0x00	; 0
    4af2:	50 e0       	ldi	r21, 0x00	; 0
    4af4:	2a c0       	rjmp	.+84     	; 0x4b4a <__pack_f+0xca>
    4af6:	b8 01       	movw	r22, r16
    4af8:	a7 01       	movw	r20, r14
    4afa:	02 2e       	mov	r0, r18
    4afc:	04 c0       	rjmp	.+8      	; 0x4b06 <__pack_f+0x86>
    4afe:	76 95       	lsr	r23
    4b00:	67 95       	ror	r22
    4b02:	57 95       	ror	r21
    4b04:	47 95       	ror	r20
    4b06:	0a 94       	dec	r0
    4b08:	d2 f7       	brpl	.-12     	; 0x4afe <__pack_f+0x7e>
    4b0a:	81 e0       	ldi	r24, 0x01	; 1
    4b0c:	90 e0       	ldi	r25, 0x00	; 0
    4b0e:	a0 e0       	ldi	r26, 0x00	; 0
    4b10:	b0 e0       	ldi	r27, 0x00	; 0
    4b12:	04 c0       	rjmp	.+8      	; 0x4b1c <__pack_f+0x9c>
    4b14:	88 0f       	add	r24, r24
    4b16:	99 1f       	adc	r25, r25
    4b18:	aa 1f       	adc	r26, r26
    4b1a:	bb 1f       	adc	r27, r27
    4b1c:	2a 95       	dec	r18
    4b1e:	d2 f7       	brpl	.-12     	; 0x4b14 <__pack_f+0x94>
    4b20:	01 97       	sbiw	r24, 0x01	; 1
    4b22:	a1 09       	sbc	r26, r1
    4b24:	b1 09       	sbc	r27, r1
    4b26:	8e 21       	and	r24, r14
    4b28:	9f 21       	and	r25, r15
    4b2a:	a0 23       	and	r26, r16
    4b2c:	b1 23       	and	r27, r17
    4b2e:	00 97       	sbiw	r24, 0x00	; 0
    4b30:	a1 05       	cpc	r26, r1
    4b32:	b1 05       	cpc	r27, r1
    4b34:	21 f0       	breq	.+8      	; 0x4b3e <__pack_f+0xbe>
    4b36:	81 e0       	ldi	r24, 0x01	; 1
    4b38:	90 e0       	ldi	r25, 0x00	; 0
    4b3a:	a0 e0       	ldi	r26, 0x00	; 0
    4b3c:	b0 e0       	ldi	r27, 0x00	; 0
    4b3e:	9a 01       	movw	r18, r20
    4b40:	ab 01       	movw	r20, r22
    4b42:	28 2b       	or	r18, r24
    4b44:	39 2b       	or	r19, r25
    4b46:	4a 2b       	or	r20, r26
    4b48:	5b 2b       	or	r21, r27
    4b4a:	da 01       	movw	r26, r20
    4b4c:	c9 01       	movw	r24, r18
    4b4e:	8f 77       	andi	r24, 0x7F	; 127
    4b50:	90 70       	andi	r25, 0x00	; 0
    4b52:	a0 70       	andi	r26, 0x00	; 0
    4b54:	b0 70       	andi	r27, 0x00	; 0
    4b56:	80 34       	cpi	r24, 0x40	; 64
    4b58:	91 05       	cpc	r25, r1
    4b5a:	a1 05       	cpc	r26, r1
    4b5c:	b1 05       	cpc	r27, r1
    4b5e:	39 f4       	brne	.+14     	; 0x4b6e <__pack_f+0xee>
    4b60:	27 ff       	sbrs	r18, 7
    4b62:	09 c0       	rjmp	.+18     	; 0x4b76 <__pack_f+0xf6>
    4b64:	20 5c       	subi	r18, 0xC0	; 192
    4b66:	3f 4f       	sbci	r19, 0xFF	; 255
    4b68:	4f 4f       	sbci	r20, 0xFF	; 255
    4b6a:	5f 4f       	sbci	r21, 0xFF	; 255
    4b6c:	04 c0       	rjmp	.+8      	; 0x4b76 <__pack_f+0xf6>
    4b6e:	21 5c       	subi	r18, 0xC1	; 193
    4b70:	3f 4f       	sbci	r19, 0xFF	; 255
    4b72:	4f 4f       	sbci	r20, 0xFF	; 255
    4b74:	5f 4f       	sbci	r21, 0xFF	; 255
    4b76:	e0 e0       	ldi	r30, 0x00	; 0
    4b78:	f0 e0       	ldi	r31, 0x00	; 0
    4b7a:	20 30       	cpi	r18, 0x00	; 0
    4b7c:	a0 e0       	ldi	r26, 0x00	; 0
    4b7e:	3a 07       	cpc	r19, r26
    4b80:	a0 e0       	ldi	r26, 0x00	; 0
    4b82:	4a 07       	cpc	r20, r26
    4b84:	a0 e4       	ldi	r26, 0x40	; 64
    4b86:	5a 07       	cpc	r21, r26
    4b88:	10 f0       	brcs	.+4      	; 0x4b8e <__pack_f+0x10e>
    4b8a:	e1 e0       	ldi	r30, 0x01	; 1
    4b8c:	f0 e0       	ldi	r31, 0x00	; 0
    4b8e:	79 01       	movw	r14, r18
    4b90:	8a 01       	movw	r16, r20
    4b92:	27 c0       	rjmp	.+78     	; 0x4be2 <__pack_f+0x162>
    4b94:	60 38       	cpi	r22, 0x80	; 128
    4b96:	71 05       	cpc	r23, r1
    4b98:	64 f5       	brge	.+88     	; 0x4bf2 <__pack_f+0x172>
    4b9a:	fb 01       	movw	r30, r22
    4b9c:	e1 58       	subi	r30, 0x81	; 129
    4b9e:	ff 4f       	sbci	r31, 0xFF	; 255
    4ba0:	d8 01       	movw	r26, r16
    4ba2:	c7 01       	movw	r24, r14
    4ba4:	8f 77       	andi	r24, 0x7F	; 127
    4ba6:	90 70       	andi	r25, 0x00	; 0
    4ba8:	a0 70       	andi	r26, 0x00	; 0
    4baa:	b0 70       	andi	r27, 0x00	; 0
    4bac:	80 34       	cpi	r24, 0x40	; 64
    4bae:	91 05       	cpc	r25, r1
    4bb0:	a1 05       	cpc	r26, r1
    4bb2:	b1 05       	cpc	r27, r1
    4bb4:	39 f4       	brne	.+14     	; 0x4bc4 <__pack_f+0x144>
    4bb6:	e7 fe       	sbrs	r14, 7
    4bb8:	0d c0       	rjmp	.+26     	; 0x4bd4 <__pack_f+0x154>
    4bba:	80 e4       	ldi	r24, 0x40	; 64
    4bbc:	90 e0       	ldi	r25, 0x00	; 0
    4bbe:	a0 e0       	ldi	r26, 0x00	; 0
    4bc0:	b0 e0       	ldi	r27, 0x00	; 0
    4bc2:	04 c0       	rjmp	.+8      	; 0x4bcc <__pack_f+0x14c>
    4bc4:	8f e3       	ldi	r24, 0x3F	; 63
    4bc6:	90 e0       	ldi	r25, 0x00	; 0
    4bc8:	a0 e0       	ldi	r26, 0x00	; 0
    4bca:	b0 e0       	ldi	r27, 0x00	; 0
    4bcc:	e8 0e       	add	r14, r24
    4bce:	f9 1e       	adc	r15, r25
    4bd0:	0a 1f       	adc	r16, r26
    4bd2:	1b 1f       	adc	r17, r27
    4bd4:	17 ff       	sbrs	r17, 7
    4bd6:	05 c0       	rjmp	.+10     	; 0x4be2 <__pack_f+0x162>
    4bd8:	16 95       	lsr	r17
    4bda:	07 95       	ror	r16
    4bdc:	f7 94       	ror	r15
    4bde:	e7 94       	ror	r14
    4be0:	31 96       	adiw	r30, 0x01	; 1
    4be2:	87 e0       	ldi	r24, 0x07	; 7
    4be4:	16 95       	lsr	r17
    4be6:	07 95       	ror	r16
    4be8:	f7 94       	ror	r15
    4bea:	e7 94       	ror	r14
    4bec:	8a 95       	dec	r24
    4bee:	d1 f7       	brne	.-12     	; 0x4be4 <__pack_f+0x164>
    4bf0:	05 c0       	rjmp	.+10     	; 0x4bfc <__pack_f+0x17c>
    4bf2:	ee 24       	eor	r14, r14
    4bf4:	ff 24       	eor	r15, r15
    4bf6:	87 01       	movw	r16, r14
    4bf8:	ef ef       	ldi	r30, 0xFF	; 255
    4bfa:	f0 e0       	ldi	r31, 0x00	; 0
    4bfc:	6e 2f       	mov	r22, r30
    4bfe:	67 95       	ror	r22
    4c00:	66 27       	eor	r22, r22
    4c02:	67 95       	ror	r22
    4c04:	90 2f       	mov	r25, r16
    4c06:	9f 77       	andi	r25, 0x7F	; 127
    4c08:	d7 94       	ror	r13
    4c0a:	dd 24       	eor	r13, r13
    4c0c:	d7 94       	ror	r13
    4c0e:	8e 2f       	mov	r24, r30
    4c10:	86 95       	lsr	r24
    4c12:	49 2f       	mov	r20, r25
    4c14:	46 2b       	or	r20, r22
    4c16:	58 2f       	mov	r21, r24
    4c18:	5d 29       	or	r21, r13
    4c1a:	b7 01       	movw	r22, r14
    4c1c:	ca 01       	movw	r24, r20
    4c1e:	1f 91       	pop	r17
    4c20:	0f 91       	pop	r16
    4c22:	ff 90       	pop	r15
    4c24:	ef 90       	pop	r14
    4c26:	df 90       	pop	r13
    4c28:	08 95       	ret

00004c2a <__unpack_f>:
    4c2a:	fc 01       	movw	r30, r24
    4c2c:	db 01       	movw	r26, r22
    4c2e:	40 81       	ld	r20, Z
    4c30:	51 81       	ldd	r21, Z+1	; 0x01
    4c32:	22 81       	ldd	r18, Z+2	; 0x02
    4c34:	62 2f       	mov	r22, r18
    4c36:	6f 77       	andi	r22, 0x7F	; 127
    4c38:	70 e0       	ldi	r23, 0x00	; 0
    4c3a:	22 1f       	adc	r18, r18
    4c3c:	22 27       	eor	r18, r18
    4c3e:	22 1f       	adc	r18, r18
    4c40:	93 81       	ldd	r25, Z+3	; 0x03
    4c42:	89 2f       	mov	r24, r25
    4c44:	88 0f       	add	r24, r24
    4c46:	82 2b       	or	r24, r18
    4c48:	28 2f       	mov	r18, r24
    4c4a:	30 e0       	ldi	r19, 0x00	; 0
    4c4c:	99 1f       	adc	r25, r25
    4c4e:	99 27       	eor	r25, r25
    4c50:	99 1f       	adc	r25, r25
    4c52:	11 96       	adiw	r26, 0x01	; 1
    4c54:	9c 93       	st	X, r25
    4c56:	11 97       	sbiw	r26, 0x01	; 1
    4c58:	21 15       	cp	r18, r1
    4c5a:	31 05       	cpc	r19, r1
    4c5c:	a9 f5       	brne	.+106    	; 0x4cc8 <__unpack_f+0x9e>
    4c5e:	41 15       	cp	r20, r1
    4c60:	51 05       	cpc	r21, r1
    4c62:	61 05       	cpc	r22, r1
    4c64:	71 05       	cpc	r23, r1
    4c66:	11 f4       	brne	.+4      	; 0x4c6c <__unpack_f+0x42>
    4c68:	82 e0       	ldi	r24, 0x02	; 2
    4c6a:	37 c0       	rjmp	.+110    	; 0x4cda <__unpack_f+0xb0>
    4c6c:	82 e8       	ldi	r24, 0x82	; 130
    4c6e:	9f ef       	ldi	r25, 0xFF	; 255
    4c70:	12 96       	adiw	r26, 0x02	; 2
    4c72:	8d 93       	st	X+, r24
    4c74:	9c 93       	st	X, r25
    4c76:	13 97       	sbiw	r26, 0x03	; 3
    4c78:	9a 01       	movw	r18, r20
    4c7a:	ab 01       	movw	r20, r22
    4c7c:	67 e0       	ldi	r22, 0x07	; 7
    4c7e:	22 0f       	add	r18, r18
    4c80:	33 1f       	adc	r19, r19
    4c82:	44 1f       	adc	r20, r20
    4c84:	55 1f       	adc	r21, r21
    4c86:	6a 95       	dec	r22
    4c88:	d1 f7       	brne	.-12     	; 0x4c7e <__unpack_f+0x54>
    4c8a:	83 e0       	ldi	r24, 0x03	; 3
    4c8c:	8c 93       	st	X, r24
    4c8e:	0d c0       	rjmp	.+26     	; 0x4caa <__unpack_f+0x80>
    4c90:	22 0f       	add	r18, r18
    4c92:	33 1f       	adc	r19, r19
    4c94:	44 1f       	adc	r20, r20
    4c96:	55 1f       	adc	r21, r21
    4c98:	12 96       	adiw	r26, 0x02	; 2
    4c9a:	8d 91       	ld	r24, X+
    4c9c:	9c 91       	ld	r25, X
    4c9e:	13 97       	sbiw	r26, 0x03	; 3
    4ca0:	01 97       	sbiw	r24, 0x01	; 1
    4ca2:	12 96       	adiw	r26, 0x02	; 2
    4ca4:	8d 93       	st	X+, r24
    4ca6:	9c 93       	st	X, r25
    4ca8:	13 97       	sbiw	r26, 0x03	; 3
    4caa:	20 30       	cpi	r18, 0x00	; 0
    4cac:	80 e0       	ldi	r24, 0x00	; 0
    4cae:	38 07       	cpc	r19, r24
    4cb0:	80 e0       	ldi	r24, 0x00	; 0
    4cb2:	48 07       	cpc	r20, r24
    4cb4:	80 e4       	ldi	r24, 0x40	; 64
    4cb6:	58 07       	cpc	r21, r24
    4cb8:	58 f3       	brcs	.-42     	; 0x4c90 <__unpack_f+0x66>
    4cba:	14 96       	adiw	r26, 0x04	; 4
    4cbc:	2d 93       	st	X+, r18
    4cbe:	3d 93       	st	X+, r19
    4cc0:	4d 93       	st	X+, r20
    4cc2:	5c 93       	st	X, r21
    4cc4:	17 97       	sbiw	r26, 0x07	; 7
    4cc6:	08 95       	ret
    4cc8:	2f 3f       	cpi	r18, 0xFF	; 255
    4cca:	31 05       	cpc	r19, r1
    4ccc:	79 f4       	brne	.+30     	; 0x4cec <__unpack_f+0xc2>
    4cce:	41 15       	cp	r20, r1
    4cd0:	51 05       	cpc	r21, r1
    4cd2:	61 05       	cpc	r22, r1
    4cd4:	71 05       	cpc	r23, r1
    4cd6:	19 f4       	brne	.+6      	; 0x4cde <__unpack_f+0xb4>
    4cd8:	84 e0       	ldi	r24, 0x04	; 4
    4cda:	8c 93       	st	X, r24
    4cdc:	08 95       	ret
    4cde:	64 ff       	sbrs	r22, 4
    4ce0:	03 c0       	rjmp	.+6      	; 0x4ce8 <__unpack_f+0xbe>
    4ce2:	81 e0       	ldi	r24, 0x01	; 1
    4ce4:	8c 93       	st	X, r24
    4ce6:	12 c0       	rjmp	.+36     	; 0x4d0c <__unpack_f+0xe2>
    4ce8:	1c 92       	st	X, r1
    4cea:	10 c0       	rjmp	.+32     	; 0x4d0c <__unpack_f+0xe2>
    4cec:	2f 57       	subi	r18, 0x7F	; 127
    4cee:	30 40       	sbci	r19, 0x00	; 0
    4cf0:	12 96       	adiw	r26, 0x02	; 2
    4cf2:	2d 93       	st	X+, r18
    4cf4:	3c 93       	st	X, r19
    4cf6:	13 97       	sbiw	r26, 0x03	; 3
    4cf8:	83 e0       	ldi	r24, 0x03	; 3
    4cfa:	8c 93       	st	X, r24
    4cfc:	87 e0       	ldi	r24, 0x07	; 7
    4cfe:	44 0f       	add	r20, r20
    4d00:	55 1f       	adc	r21, r21
    4d02:	66 1f       	adc	r22, r22
    4d04:	77 1f       	adc	r23, r23
    4d06:	8a 95       	dec	r24
    4d08:	d1 f7       	brne	.-12     	; 0x4cfe <__unpack_f+0xd4>
    4d0a:	70 64       	ori	r23, 0x40	; 64
    4d0c:	14 96       	adiw	r26, 0x04	; 4
    4d0e:	4d 93       	st	X+, r20
    4d10:	5d 93       	st	X+, r21
    4d12:	6d 93       	st	X+, r22
    4d14:	7c 93       	st	X, r23
    4d16:	17 97       	sbiw	r26, 0x07	; 7
    4d18:	08 95       	ret

00004d1a <__fpcmp_parts_f>:
    4d1a:	1f 93       	push	r17
    4d1c:	dc 01       	movw	r26, r24
    4d1e:	fb 01       	movw	r30, r22
    4d20:	9c 91       	ld	r25, X
    4d22:	92 30       	cpi	r25, 0x02	; 2
    4d24:	08 f4       	brcc	.+2      	; 0x4d28 <__fpcmp_parts_f+0xe>
    4d26:	47 c0       	rjmp	.+142    	; 0x4db6 <__fpcmp_parts_f+0x9c>
    4d28:	80 81       	ld	r24, Z
    4d2a:	82 30       	cpi	r24, 0x02	; 2
    4d2c:	08 f4       	brcc	.+2      	; 0x4d30 <__fpcmp_parts_f+0x16>
    4d2e:	43 c0       	rjmp	.+134    	; 0x4db6 <__fpcmp_parts_f+0x9c>
    4d30:	94 30       	cpi	r25, 0x04	; 4
    4d32:	51 f4       	brne	.+20     	; 0x4d48 <__fpcmp_parts_f+0x2e>
    4d34:	11 96       	adiw	r26, 0x01	; 1
    4d36:	1c 91       	ld	r17, X
    4d38:	84 30       	cpi	r24, 0x04	; 4
    4d3a:	99 f5       	brne	.+102    	; 0x4da2 <__fpcmp_parts_f+0x88>
    4d3c:	81 81       	ldd	r24, Z+1	; 0x01
    4d3e:	68 2f       	mov	r22, r24
    4d40:	70 e0       	ldi	r23, 0x00	; 0
    4d42:	61 1b       	sub	r22, r17
    4d44:	71 09       	sbc	r23, r1
    4d46:	3f c0       	rjmp	.+126    	; 0x4dc6 <__fpcmp_parts_f+0xac>
    4d48:	84 30       	cpi	r24, 0x04	; 4
    4d4a:	21 f0       	breq	.+8      	; 0x4d54 <__fpcmp_parts_f+0x3a>
    4d4c:	92 30       	cpi	r25, 0x02	; 2
    4d4e:	31 f4       	brne	.+12     	; 0x4d5c <__fpcmp_parts_f+0x42>
    4d50:	82 30       	cpi	r24, 0x02	; 2
    4d52:	b9 f1       	breq	.+110    	; 0x4dc2 <__fpcmp_parts_f+0xa8>
    4d54:	81 81       	ldd	r24, Z+1	; 0x01
    4d56:	88 23       	and	r24, r24
    4d58:	89 f1       	breq	.+98     	; 0x4dbc <__fpcmp_parts_f+0xa2>
    4d5a:	2d c0       	rjmp	.+90     	; 0x4db6 <__fpcmp_parts_f+0x9c>
    4d5c:	11 96       	adiw	r26, 0x01	; 1
    4d5e:	1c 91       	ld	r17, X
    4d60:	11 97       	sbiw	r26, 0x01	; 1
    4d62:	82 30       	cpi	r24, 0x02	; 2
    4d64:	f1 f0       	breq	.+60     	; 0x4da2 <__fpcmp_parts_f+0x88>
    4d66:	81 81       	ldd	r24, Z+1	; 0x01
    4d68:	18 17       	cp	r17, r24
    4d6a:	d9 f4       	brne	.+54     	; 0x4da2 <__fpcmp_parts_f+0x88>
    4d6c:	12 96       	adiw	r26, 0x02	; 2
    4d6e:	2d 91       	ld	r18, X+
    4d70:	3c 91       	ld	r19, X
    4d72:	13 97       	sbiw	r26, 0x03	; 3
    4d74:	82 81       	ldd	r24, Z+2	; 0x02
    4d76:	93 81       	ldd	r25, Z+3	; 0x03
    4d78:	82 17       	cp	r24, r18
    4d7a:	93 07       	cpc	r25, r19
    4d7c:	94 f0       	brlt	.+36     	; 0x4da2 <__fpcmp_parts_f+0x88>
    4d7e:	28 17       	cp	r18, r24
    4d80:	39 07       	cpc	r19, r25
    4d82:	bc f0       	brlt	.+46     	; 0x4db2 <__fpcmp_parts_f+0x98>
    4d84:	14 96       	adiw	r26, 0x04	; 4
    4d86:	8d 91       	ld	r24, X+
    4d88:	9d 91       	ld	r25, X+
    4d8a:	0d 90       	ld	r0, X+
    4d8c:	bc 91       	ld	r27, X
    4d8e:	a0 2d       	mov	r26, r0
    4d90:	24 81       	ldd	r18, Z+4	; 0x04
    4d92:	35 81       	ldd	r19, Z+5	; 0x05
    4d94:	46 81       	ldd	r20, Z+6	; 0x06
    4d96:	57 81       	ldd	r21, Z+7	; 0x07
    4d98:	28 17       	cp	r18, r24
    4d9a:	39 07       	cpc	r19, r25
    4d9c:	4a 07       	cpc	r20, r26
    4d9e:	5b 07       	cpc	r21, r27
    4da0:	18 f4       	brcc	.+6      	; 0x4da8 <__fpcmp_parts_f+0x8e>
    4da2:	11 23       	and	r17, r17
    4da4:	41 f0       	breq	.+16     	; 0x4db6 <__fpcmp_parts_f+0x9c>
    4da6:	0a c0       	rjmp	.+20     	; 0x4dbc <__fpcmp_parts_f+0xa2>
    4da8:	82 17       	cp	r24, r18
    4daa:	93 07       	cpc	r25, r19
    4dac:	a4 07       	cpc	r26, r20
    4dae:	b5 07       	cpc	r27, r21
    4db0:	40 f4       	brcc	.+16     	; 0x4dc2 <__fpcmp_parts_f+0xa8>
    4db2:	11 23       	and	r17, r17
    4db4:	19 f0       	breq	.+6      	; 0x4dbc <__fpcmp_parts_f+0xa2>
    4db6:	61 e0       	ldi	r22, 0x01	; 1
    4db8:	70 e0       	ldi	r23, 0x00	; 0
    4dba:	05 c0       	rjmp	.+10     	; 0x4dc6 <__fpcmp_parts_f+0xac>
    4dbc:	6f ef       	ldi	r22, 0xFF	; 255
    4dbe:	7f ef       	ldi	r23, 0xFF	; 255
    4dc0:	02 c0       	rjmp	.+4      	; 0x4dc6 <__fpcmp_parts_f+0xac>
    4dc2:	60 e0       	ldi	r22, 0x00	; 0
    4dc4:	70 e0       	ldi	r23, 0x00	; 0
    4dc6:	cb 01       	movw	r24, r22
    4dc8:	1f 91       	pop	r17
    4dca:	08 95       	ret

00004dcc <__mulsi3>:
    4dcc:	62 9f       	mul	r22, r18
    4dce:	d0 01       	movw	r26, r0
    4dd0:	73 9f       	mul	r23, r19
    4dd2:	f0 01       	movw	r30, r0
    4dd4:	82 9f       	mul	r24, r18
    4dd6:	e0 0d       	add	r30, r0
    4dd8:	f1 1d       	adc	r31, r1
    4dda:	64 9f       	mul	r22, r20
    4ddc:	e0 0d       	add	r30, r0
    4dde:	f1 1d       	adc	r31, r1
    4de0:	92 9f       	mul	r25, r18
    4de2:	f0 0d       	add	r31, r0
    4de4:	83 9f       	mul	r24, r19
    4de6:	f0 0d       	add	r31, r0
    4de8:	74 9f       	mul	r23, r20
    4dea:	f0 0d       	add	r31, r0
    4dec:	65 9f       	mul	r22, r21
    4dee:	f0 0d       	add	r31, r0
    4df0:	99 27       	eor	r25, r25
    4df2:	72 9f       	mul	r23, r18
    4df4:	b0 0d       	add	r27, r0
    4df6:	e1 1d       	adc	r30, r1
    4df8:	f9 1f       	adc	r31, r25
    4dfa:	63 9f       	mul	r22, r19
    4dfc:	b0 0d       	add	r27, r0
    4dfe:	e1 1d       	adc	r30, r1
    4e00:	f9 1f       	adc	r31, r25
    4e02:	bd 01       	movw	r22, r26
    4e04:	cf 01       	movw	r24, r30
    4e06:	11 24       	eor	r1, r1
    4e08:	08 95       	ret

00004e0a <__udivmodsi4>:
    4e0a:	a1 e2       	ldi	r26, 0x21	; 33
    4e0c:	1a 2e       	mov	r1, r26
    4e0e:	aa 1b       	sub	r26, r26
    4e10:	bb 1b       	sub	r27, r27
    4e12:	fd 01       	movw	r30, r26
    4e14:	0d c0       	rjmp	.+26     	; 0x4e30 <__udivmodsi4_ep>

00004e16 <__udivmodsi4_loop>:
    4e16:	aa 1f       	adc	r26, r26
    4e18:	bb 1f       	adc	r27, r27
    4e1a:	ee 1f       	adc	r30, r30
    4e1c:	ff 1f       	adc	r31, r31
    4e1e:	a2 17       	cp	r26, r18
    4e20:	b3 07       	cpc	r27, r19
    4e22:	e4 07       	cpc	r30, r20
    4e24:	f5 07       	cpc	r31, r21
    4e26:	20 f0       	brcs	.+8      	; 0x4e30 <__udivmodsi4_ep>
    4e28:	a2 1b       	sub	r26, r18
    4e2a:	b3 0b       	sbc	r27, r19
    4e2c:	e4 0b       	sbc	r30, r20
    4e2e:	f5 0b       	sbc	r31, r21

00004e30 <__udivmodsi4_ep>:
    4e30:	66 1f       	adc	r22, r22
    4e32:	77 1f       	adc	r23, r23
    4e34:	88 1f       	adc	r24, r24
    4e36:	99 1f       	adc	r25, r25
    4e38:	1a 94       	dec	r1
    4e3a:	69 f7       	brne	.-38     	; 0x4e16 <__udivmodsi4_loop>
    4e3c:	60 95       	com	r22
    4e3e:	70 95       	com	r23
    4e40:	80 95       	com	r24
    4e42:	90 95       	com	r25
    4e44:	9b 01       	movw	r18, r22
    4e46:	ac 01       	movw	r20, r24
    4e48:	bd 01       	movw	r22, r26
    4e4a:	cf 01       	movw	r24, r30
    4e4c:	08 95       	ret

00004e4e <__prologue_saves__>:
    4e4e:	2f 92       	push	r2
    4e50:	3f 92       	push	r3
    4e52:	4f 92       	push	r4
    4e54:	5f 92       	push	r5
    4e56:	6f 92       	push	r6
    4e58:	7f 92       	push	r7
    4e5a:	8f 92       	push	r8
    4e5c:	9f 92       	push	r9
    4e5e:	af 92       	push	r10
    4e60:	bf 92       	push	r11
    4e62:	cf 92       	push	r12
    4e64:	df 92       	push	r13
    4e66:	ef 92       	push	r14
    4e68:	ff 92       	push	r15
    4e6a:	0f 93       	push	r16
    4e6c:	1f 93       	push	r17
    4e6e:	cf 93       	push	r28
    4e70:	df 93       	push	r29
    4e72:	cd b7       	in	r28, 0x3d	; 61
    4e74:	de b7       	in	r29, 0x3e	; 62
    4e76:	ca 1b       	sub	r28, r26
    4e78:	db 0b       	sbc	r29, r27
    4e7a:	0f b6       	in	r0, 0x3f	; 63
    4e7c:	f8 94       	cli
    4e7e:	de bf       	out	0x3e, r29	; 62
    4e80:	0f be       	out	0x3f, r0	; 63
    4e82:	cd bf       	out	0x3d, r28	; 61
    4e84:	19 94       	eijmp

00004e86 <__epilogue_restores__>:
    4e86:	2a 88       	ldd	r2, Y+18	; 0x12
    4e88:	39 88       	ldd	r3, Y+17	; 0x11
    4e8a:	48 88       	ldd	r4, Y+16	; 0x10
    4e8c:	5f 84       	ldd	r5, Y+15	; 0x0f
    4e8e:	6e 84       	ldd	r6, Y+14	; 0x0e
    4e90:	7d 84       	ldd	r7, Y+13	; 0x0d
    4e92:	8c 84       	ldd	r8, Y+12	; 0x0c
    4e94:	9b 84       	ldd	r9, Y+11	; 0x0b
    4e96:	aa 84       	ldd	r10, Y+10	; 0x0a
    4e98:	b9 84       	ldd	r11, Y+9	; 0x09
    4e9a:	c8 84       	ldd	r12, Y+8	; 0x08
    4e9c:	df 80       	ldd	r13, Y+7	; 0x07
    4e9e:	ee 80       	ldd	r14, Y+6	; 0x06
    4ea0:	fd 80       	ldd	r15, Y+5	; 0x05
    4ea2:	0c 81       	ldd	r16, Y+4	; 0x04
    4ea4:	1b 81       	ldd	r17, Y+3	; 0x03
    4ea6:	aa 81       	ldd	r26, Y+2	; 0x02
    4ea8:	b9 81       	ldd	r27, Y+1	; 0x01
    4eaa:	ce 0f       	add	r28, r30
    4eac:	d1 1d       	adc	r29, r1
    4eae:	0f b6       	in	r0, 0x3f	; 63
    4eb0:	f8 94       	cli
    4eb2:	de bf       	out	0x3e, r29	; 62
    4eb4:	0f be       	out	0x3f, r0	; 63
    4eb6:	cd bf       	out	0x3d, r28	; 61
    4eb8:	ed 01       	movw	r28, r26
    4eba:	08 95       	ret

00004ebc <_exit>:
    4ebc:	f8 94       	cli

00004ebe <__stop_program>:
    4ebe:	ff cf       	rjmp	.-2      	; 0x4ebe <__stop_program>
