Archive member included because of file (symbol)

c:/programs/winavr-20100110/bin/../lib/gcc/avr/4.3.3/avr5\libgcc.a(_mulsi3.o)
                              ymodem_funcs.o (__mulsi3)
c:/programs/winavr-20100110/bin/../lib/gcc/avr/4.3.3/avr5\libgcc.a(_udivmodqi4.o)
                              usart_funcs.o (__udivmodqi4)
c:/programs/winavr-20100110/bin/../lib/gcc/avr/4.3.3/avr5\libgcc.a(_udivmodhi4.o)
                              usart_funcs.o (__udivmodhi4)
c:/programs/winavr-20100110/bin/../lib/gcc/avr/4.3.3/avr5\libgcc.a(_udivmodsi4.o)
                              usart_funcs.o (__udivmodsi4)
c:/programs/winavr-20100110/bin/../lib/gcc/avr/4.3.3/avr5\libgcc.a(_exit.o)
                              c:/programs/winavr-20100110/bin/../lib/gcc/avr/4.3.3/../../../../avr/lib/avr5/crtm644.o (exit)
c:/programs/winavr-20100110/bin/../lib/gcc/avr/4.3.3/avr5\libgcc.a(_copy_data.o)
                              usart_funcs.o (__do_copy_data)
c:/programs/winavr-20100110/bin/../lib/gcc/avr/4.3.3/avr5\libgcc.a(_clear_bss.o)
                              usart_funcs.o (__do_clear_bss)
c:/programs/winavr-20100110/bin/../lib/gcc/avr/4.3.3/../../../../avr/lib/avr5\libc.a(strcpy_P.o)
                              M644_512KB_FLASH_PROTO.o (strcpy_P)
c:/programs/winavr-20100110/bin/../lib/gcc/avr/4.3.3/../../../../avr/lib/avr5\libc.a(eerd_byte_atmega644.o)
                              eeprom_stuff.o (__eerd_byte_m644)
c:/programs/winavr-20100110/bin/../lib/gcc/avr/4.3.3/../../../../avr/lib/avr5\libc.a(eerd_dword_atmega644.o)
                              eeprom_stuff.o (__eerd_dword_m644)
c:/programs/winavr-20100110/bin/../lib/gcc/avr/4.3.3/../../../../avr/lib/avr5\libc.a(eerd_word_atmega644.o)
                              eeprom_stuff.o (__eerd_word_m644)
c:/programs/winavr-20100110/bin/../lib/gcc/avr/4.3.3/../../../../avr/lib/avr5\libc.a(eeupd_byte_atmega644.o)
                              eeprom_stuff.o (__eeupd_byte_m644)
c:/programs/winavr-20100110/bin/../lib/gcc/avr/4.3.3/../../../../avr/lib/avr5\libc.a(eeupd_dword_atmega644.o)
                              eeprom_stuff.o (__eeupd_dword_m644)
c:/programs/winavr-20100110/bin/../lib/gcc/avr/4.3.3/../../../../avr/lib/avr5\libc.a(eeupd_word_atmega644.o)
                              eeprom_stuff.o (__eeupd_word_m644)
c:/programs/winavr-20100110/bin/../lib/gcc/avr/4.3.3/../../../../avr/lib/avr5\libc.a(eewr_byte_atmega644.o)
                              eeprom_stuff.o (__eewr_byte_m644)
c:/programs/winavr-20100110/bin/../lib/gcc/avr/4.3.3/../../../../avr/lib/avr5\libc.a(eewr_dword_atmega644.o)
                              eeprom_stuff.o (__eewr_dword_m644)
c:/programs/winavr-20100110/bin/../lib/gcc/avr/4.3.3/../../../../avr/lib/avr5\libc.a(eewr_word_atmega644.o)
                              eeprom_stuff.o (__eewr_word_m644)
c:/programs/winavr-20100110/bin/../lib/gcc/avr/4.3.3/../../../../avr/lib/avr5\libc.a(eerd_block_atmega644.o)
                              c:/programs/winavr-20100110/bin/../lib/gcc/avr/4.3.3/../../../../avr/lib/avr5\libc.a(eerd_dword_atmega644.o) (__eerd_blraw_m644)

Allocating common symbols
Common symbol       size              file

ymodemSentPackets   0x2               ymodem_funcs.o
RAMWriteErrorsAddrLast
                    0x2               terminal_menu.o
ymodemBuffer        0x405             ymodem_funcs.o
crcExternal         0x2               ymodem_funcs.o
crcbytes            0x2               ymodem_funcs.o
gbRomData           0x39              GameBoy_Info.o
RAMWriteErrorsAddrFirst
                    0x2               terminal_menu.o
ymodemReceivedPackets
                    0x2               ymodem_funcs.o
eepData             0x10              eeprom_stuff.o
RAMWriteErrors      0x2               terminal_menu.o
flashAddress        0x4               memory_latched.o
_rx_func            0x2               usart_funcs.o

Memory Configuration

Name             Origin             Length             Attributes
text             0x00000000         0x00020000         xr
data             0x00800060         0x0000ffa0         rw !x
eeprom           0x00810000         0x00010000         rw !x
fuse             0x00820000         0x00000400         rw !x
lock             0x00830000         0x00000400         rw !x
signature        0x00840000         0x00000400         rw !x
*default*        0x00000000         0xffffffff

Linker script and memory map

Address of section .data set to 0x800100
LOAD c:/programs/winavr-20100110/bin/../lib/gcc/avr/4.3.3/../../../../avr/lib/avr5/crtm644.o
Address of section .MBC1_16M_0000 set to 0x8000
Address of section .MBC1_16M_0010 set to 0x8040
Address of section .MBC1_16M_0100 set to 0x8080
Address of section .MBC1_16M_0110 set to 0x80c0
Address of section .MBC1_16M_1000 set to 0x8100
Address of section .MBC1_16M_1010 set to 0x8140
Address of section .MBC1_16M_1100 set to 0x8180
Address of section .MBC1_16M_1110 set to 0x81c0
Address of section .MBC1_16M_0001 set to 0x8020
Address of section .MBC1_16M_0011 set to 0x8060
Address of section .MBC1_16M_0101 set to 0x80a0
Address of section .MBC1_16M_0111 set to 0x80e0
Address of section .MBC1_16M_1001 set to 0x8120
Address of section .MBC1_16M_1011 set to 0x8160
Address of section .MBC1_16M_1101 set to 0x81a0
Address of section .MBC1_16M_1111 set to 0x81e0
Address of section .MBC1_4M_0000 set to 0x8200
Address of section .MBC1_4M_0010 set to 0x8240
Address of section .MBC1_4M_0100 set to 0x8280
Address of section .MBC1_4M_0110 set to 0x82c0
Address of section .MBC1_4M_1000 set to 0x8300
Address of section .MBC1_4M_1010 set to 0x8340
Address of section .MBC1_4M_1100 set to 0x8380
Address of section .MBC1_4M_1110 set to 0x83c0
Address of section .MBC1_4M_0001 set to 0x8220
Address of section .MBC1_4M_0011 set to 0x8260
Address of section .MBC1_4M_0101 set to 0x82a0
Address of section .MBC1_4M_0111 set to 0x82e0
Address of section .MBC1_4M_1001 set to 0x8320
Address of section .MBC1_4M_1011 set to 0x8360
Address of section .MBC1_4M_1101 set to 0x83a0
Address of section .MBC1_4M_1111 set to 0x83e0
Address of section .MBC5_0000 set to 0x8400
Address of section .MBC5_0010 set to 0x8440
Address of section .MBC5_0100 set to 0x8480
Address of section .MBC5_0110 set to 0x84c0
Address of section .MBC5_1000 set to 0x8500
Address of section .MBC5_1010 set to 0x8540
Address of section .MBC5_1100 set to 0x8580
Address of section .MBC5_1110 set to 0x85c0
Address of section .MBC5_0001 set to 0x8420
Address of section .MBC5_0011 set to 0x8460
Address of section .MBC5_0101 set to 0x84a0
Address of section .MBC5_0111 set to 0x84e0
Address of section .MBC5_1001 set to 0x8520
Address of section .MBC5_1011 set to 0x8560
Address of section .MBC5_1101 set to 0x85a0
Address of section .MBC5_1111 set to 0x85e0
Address of section .MBC_BASE set to 0x7e00
Address of section .MBC3_0000 set to 0x8600
Address of section .MBC3_0010 set to 0x8640
Address of section .MBC3_0100 set to 0x8680
Address of section .MBC3_0110 set to 0x86c0
Address of section .MBC3_1000 set to 0x8700
Address of section .MBC3_1010 set to 0x8740
Address of section .MBC3_1100 set to 0x8780
Address of section .MBC3_1110 set to 0x87c0
Address of section .MBC3_0001 set to 0x8620
Address of section .MBC3_0011 set to 0x8660
Address of section .MBC3_0101 set to 0x86a0
Address of section .MBC3_0111 set to 0x86e0
Address of section .MBC3_1001 set to 0x8720
Address of section .MBC3_1011 set to 0x8760
Address of section .MBC3_1101 set to 0x87a0
Address of section .MBC3_1111 set to 0x87e0
Address of section .MBC5_DSM_0000 set to 0x8800
Address of section .MBC5_DSM_0010 set to 0x8840
Address of section .MBC5_DSM_0100 set to 0x8880
Address of section .MBC5_DSM_0110 set to 0x88c0
Address of section .MBC5_DSM_1000 set to 0x8900
Address of section .MBC5_DSM_1010 set to 0x8940
Address of section .MBC5_DSM_1100 set to 0x8980
Address of section .MBC5_DSM_1110 set to 0x89c0
Address of section .MBC5_DSM_0001 set to 0x8820
Address of section .MBC5_DSM_0011 set to 0x8860
Address of section .MBC5_DSM_0101 set to 0x88a0
Address of section .MBC5_DSM_0111 set to 0x88e0
Address of section .MBC5_DSM_1001 set to 0x8920
Address of section .MBC5_DSM_1011 set to 0x8960
Address of section .MBC5_DSM_1101 set to 0x89a0
Address of section .MBC5_DSM_1111 set to 0x89e0
Address of section .MBC2_0000 set to 0x8a00
Address of section .MBC2_0100 set to 0x8a80
Address of section .MBC2_1000 set to 0x8b00
Address of section .MBC2_1100 set to 0x8b80
Address of section .MBC2_0001 set to 0x8a20
Address of section .MBC2_0101 set to 0x8aa0
Address of section .MBC2_1001 set to 0x8b20
Address of section .MBC2_1101 set to 0x8ba0
LOAD M644_512KB_FLASH_PROTO.o
LOAD usart_funcs.o
LOAD ymodem_funcs.o
LOAD memory_latched.o
LOAD terminal_menu.o
LOAD GameBoy_Info.o
LOAD eeprom_stuff.o
LOAD MBC_Modes_V5.o
LOAD c:/programs/winavr-20100110/bin/../lib/gcc/avr/4.3.3/avr5\libgcc.a
LOAD c:/programs/winavr-20100110/bin/../lib/gcc/avr/4.3.3/../../../../avr/lib/avr5\libc.a
LOAD c:/programs/winavr-20100110/bin/../lib/gcc/avr/4.3.3/avr5\libgcc.a

.hash
 *(.hash)

.dynsym
 *(.dynsym)

.dynstr
 *(.dynstr)

.gnu.version
 *(.gnu.version)

.gnu.version_d
 *(.gnu.version_d)

.gnu.version_r
 *(.gnu.version_r)

.rel.init
 *(.rel.init)

.rela.init
 *(.rela.init)

.rel.text
 *(.rel.text)
 *(.rel.text.*)
 *(.rel.gnu.linkonce.t*)

.rela.text
 *(.rela.text)
 *(.rela.text.*)
 *(.rela.gnu.linkonce.t*)

.rel.fini
 *(.rel.fini)

.rela.fini
 *(.rela.fini)

.rel.rodata
 *(.rel.rodata)
 *(.rel.rodata.*)
 *(.rel.gnu.linkonce.r*)

.rela.rodata
 *(.rela.rodata)
 *(.rela.rodata.*)
 *(.rela.gnu.linkonce.r*)

.rel.data
 *(.rel.data)
 *(.rel.data.*)
 *(.rel.gnu.linkonce.d*)

.rela.data
 *(.rela.data)
 *(.rela.data.*)
 *(.rela.gnu.linkonce.d*)

.rel.ctors
 *(.rel.ctors)

.rela.ctors
 *(.rela.ctors)

.rel.dtors
 *(.rel.dtors)

.rela.dtors
 *(.rela.dtors)

.rel.got
 *(.rel.got)

.rela.got
 *(.rela.got)

.rel.bss
 *(.rel.bss)

.rela.bss
 *(.rela.bss)

.rel.plt
 *(.rel.plt)

.rela.plt
 *(.rela.plt)

.text           0x00000000     0x43f0
 *(.vectors)
 .vectors       0x00000000       0x70 c:/programs/winavr-20100110/bin/../lib/gcc/avr/4.3.3/../../../../avr/lib/avr5/crtm644.o
                0x00000000                __vectors
                0x00000000                __vector_default
 *(.vectors)
 *(.progmem.gcc*)
 *(.progmem*)
 .progmem.data  0x00000070       0xc6 M644_512KB_FLASH_PROTO.o
 .progmem.data  0x00000136      0x800 terminal_menu.o
                0x00000136                commonReturn
                0x0000017c                commonEmpty
                0x00000162                commonAbort
 .progmem.data  0x00000936       0xf4 GameBoy_Info.o
 .progmem.data  0x00000a2a       0x36 eeprom_stuff.o
                0x00000a60                . = ALIGN (0x2)
                0x00000a60                __trampolines_start = .
 *(.trampolines)
 .trampolines   0x00000a60        0x0 linker stubs
 *(.trampolines*)
                0x00000a60                __trampolines_end = .
 *(.jumptables)
 *(.jumptables*)
 *(.lowtext)
 *(.lowtext*)
                0x00000a60                __ctors_start = .
 *(.ctors)
                0x00000a60                __ctors_end = .
                0x00000a60                __dtors_start = .
 *(.dtors)
                0x00000a60                __dtors_end = .
 SORT(*)(.ctors)
 SORT(*)(.dtors)
 *(.init0)
 .init0         0x00000a60        0x0 c:/programs/winavr-20100110/bin/../lib/gcc/avr/4.3.3/../../../../avr/lib/avr5/crtm644.o
                0x00000a60                __init
 *(.init0)
 *(.init1)
 *(.init1)
 *(.init2)
 .init2         0x00000a60        0xc c:/programs/winavr-20100110/bin/../lib/gcc/avr/4.3.3/../../../../avr/lib/avr5/crtm644.o
 *(.init2)
 *(.init3)
 *(.init3)
 *(.init4)
 .init4         0x00000a6c       0x16 c:/programs/winavr-20100110/bin/../lib/gcc/avr/4.3.3/avr5\libgcc.a(_copy_data.o)
                0x00000a6c                __do_copy_data
 .init4         0x00000a82       0x10 c:/programs/winavr-20100110/bin/../lib/gcc/avr/4.3.3/avr5\libgcc.a(_clear_bss.o)
                0x00000a82                __do_clear_bss
 *(.init4)
 *(.init5)
 *(.init5)
 *(.init6)
 *(.init6)
 *(.init7)
 *(.init7)
 *(.init8)
 *(.init8)
 *(.init9)
 .init9         0x00000a92        0x8 c:/programs/winavr-20100110/bin/../lib/gcc/avr/4.3.3/../../../../avr/lib/avr5/crtm644.o
 *(.init9)
 *(.text)
 .text          0x00000a9a        0x4 c:/programs/winavr-20100110/bin/../lib/gcc/avr/4.3.3/../../../../avr/lib/avr5/crtm644.o
                0x00000a9a                __vector_22
                0x00000a9a                __vector_1
                0x00000a9a                __vector_24
                0x00000a9a                __vector_12
                0x00000a9a                __bad_interrupt
                0x00000a9a                __vector_6
                0x00000a9a                __vector_3
                0x00000a9a                __vector_23
                0x00000a9a                __vector_25
                0x00000a9a                __vector_11
                0x00000a9a                __vector_13
                0x00000a9a                __vector_17
                0x00000a9a                __vector_19
                0x00000a9a                __vector_7
                0x00000a9a                __vector_27
                0x00000a9a                __vector_5
                0x00000a9a                __vector_4
                0x00000a9a                __vector_9
                0x00000a9a                __vector_2
                0x00000a9a                __vector_21
                0x00000a9a                __vector_15
                0x00000a9a                __vector_8
                0x00000a9a                __vector_26
                0x00000a9a                __vector_14
                0x00000a9a                __vector_10
                0x00000a9a                __vector_16
                0x00000a9a                __vector_18
 .text          0x00000a9e      0x14c M644_512KB_FLASH_PROTO.o
                0x00000a9e                main
 .text          0x00000bea      0xcde usart_funcs.o
                0x00000c9e                usart_transmit_int32
                0x00001158                usart_transmit_int
                0x00000dda                erase_screen_bottom
                0x00000f26                ht_set_display_attribute_mode
                0x00000d76                usart_rec_enable
                0x00000f8c                ht_print_screen
                0x00001670                draw_vertical_line
                0x00000fb8                usart_transmit_dec
                0x00000d82                save_cursor_pos
                0x00001078                usart_int_enable
                0x00000c72                usart_transmit_str_P
                0x00001090                usart_int_disable
                0x00000dae                restore_cursor_pos
                0x000010f2                nibble_to_hex
                0x0000113c                usart_clear_ht
                0x00000e06                erase_screen_top
                0x0000106c                usart_data_received
                0x00000bea                usart_init
                0x00000f60                ht_scroll_all
                0x0000120c                move_cursor
                0x00000e6c                erase_screen_startline
                0x00001022                usart_init_Xlarge
                0x00000c54                usart_transmit_str
                0x000013b2                cursor_goto
                0x00000d6c                usart_rec_disable
                0x00000c46                usart_receive
                0x000014c6                draw_horizontal_line
                0x00000ee0                ht_set_display_colour
                0x00000ea6                erase_screen_line
                0x000012a4                ht_scroll_limit
                0x000010a0                __vector_20
                0x00000e40                erase_screen_endline
                0x00000c36                usart_transmit
 .text          0x000018c8      0x896 ymodem_funcs.o
                0x000018c8                ymodem_send
                0x00001d5a                ymodem_receive
 .text          0x0000215e      0xa02 memory_latched.o
                0x0000288e                sst_read_softwareID
                0x0000223c                sram_read_byte
                0x00002238                sst_flash_sector_erase
                0x00002282                sram_write_byte
                0x000025fe                sst_flash_chip_erase
                0x00002192                sst_flash_read_byte
                0x0000215e                memory_init
                0x000021e2                sst_flash_write_sub_byte
                0x000022d4                sst_flash_write_byte
 .text          0x00002b60      0xec4 terminal_menu.o
                0x00002c34                flash_buff_send
                0x00002ca6                flash_buff_receive
                0x0000308e                flash_diagnostic
                0x00003960                enter_GB_mode
                0x000035c2                dump_ROM
                0x00002d96                wait_for_confirm_cancel
                0x00002bca                sram_buff_receive
                0x00003670                show_menu
                0x00002db2                flash_new_firmware
                0x00002d18                launch_mbc_mode
                0x00002f64                force_mbc_mode
                0x00002d84                wait_for_continue
                0x00003176                receive_ROM
                0x00002dca                show_ROM_info
                0x00002b60                sram_buff_send
                0x0000353e                dump_save
                0x000033de                receive_save
 .text          0x00003a24      0x6ac GameBoy_Info.o
                0x00003a24                get_GBROM_info
 .text          0x000040d0      0x186 eeprom_stuff.o
                0x00004104                compare_gbeepromdat
                0x00004196                read_gbeepromdat
                0x000040da                program_initial_gbeepromdat
                0x00004152                write_update_gbeepromdat
                0x000040d0                read_MBC_mode_only
 .text          0x00004256        0x0 MBC_Modes_V5.o
 .text          0x00004256        0x0 c:/programs/winavr-20100110/bin/../lib/gcc/avr/4.3.3/avr5\libgcc.a(_mulsi3.o)
 .text          0x00004256        0x0 c:/programs/winavr-20100110/bin/../lib/gcc/avr/4.3.3/avr5\libgcc.a(_udivmodqi4.o)
 .text          0x00004256        0x0 c:/programs/winavr-20100110/bin/../lib/gcc/avr/4.3.3/avr5\libgcc.a(_udivmodhi4.o)
 .text          0x00004256        0x0 c:/programs/winavr-20100110/bin/../lib/gcc/avr/4.3.3/avr5\libgcc.a(_udivmodsi4.o)
 .text          0x00004256        0x0 c:/programs/winavr-20100110/bin/../lib/gcc/avr/4.3.3/avr5\libgcc.a(_exit.o)
 .text          0x00004256        0x0 c:/programs/winavr-20100110/bin/../lib/gcc/avr/4.3.3/avr5\libgcc.a(_copy_data.o)
 .text          0x00004256        0x0 c:/programs/winavr-20100110/bin/../lib/gcc/avr/4.3.3/avr5\libgcc.a(_clear_bss.o)
 .text          0x00004256        0x0 c:/programs/winavr-20100110/bin/../lib/gcc/avr/4.3.3/../../../../avr/lib/avr5\libc.a(strcpy_P.o)
 .text          0x00004256        0x0 c:/programs/winavr-20100110/bin/../lib/gcc/avr/4.3.3/../../../../avr/lib/avr5\libc.a(eerd_byte_atmega644.o)
 .text          0x00004256        0x0 c:/programs/winavr-20100110/bin/../lib/gcc/avr/4.3.3/../../../../avr/lib/avr5\libc.a(eerd_dword_atmega644.o)
 .text          0x00004256        0x0 c:/programs/winavr-20100110/bin/../lib/gcc/avr/4.3.3/../../../../avr/lib/avr5\libc.a(eerd_word_atmega644.o)
 .text          0x00004256        0x0 c:/programs/winavr-20100110/bin/../lib/gcc/avr/4.3.3/../../../../avr/lib/avr5\libc.a(eeupd_byte_atmega644.o)
 .text          0x00004256        0x0 c:/programs/winavr-20100110/bin/../lib/gcc/avr/4.3.3/../../../../avr/lib/avr5\libc.a(eeupd_dword_atmega644.o)
 .text          0x00004256        0x0 c:/programs/winavr-20100110/bin/../lib/gcc/avr/4.3.3/../../../../avr/lib/avr5\libc.a(eeupd_word_atmega644.o)
 .text          0x00004256        0x0 c:/programs/winavr-20100110/bin/../lib/gcc/avr/4.3.3/../../../../avr/lib/avr5\libc.a(eewr_byte_atmega644.o)
 .text          0x00004256        0x0 c:/programs/winavr-20100110/bin/../lib/gcc/avr/4.3.3/../../../../avr/lib/avr5\libc.a(eewr_dword_atmega644.o)
 .text          0x00004256        0x0 c:/programs/winavr-20100110/bin/../lib/gcc/avr/4.3.3/../../../../avr/lib/avr5\libc.a(eewr_word_atmega644.o)
 .text          0x00004256        0x0 c:/programs/winavr-20100110/bin/../lib/gcc/avr/4.3.3/../../../../avr/lib/avr5\libc.a(eerd_block_atmega644.o)
                0x00004256                . = ALIGN (0x2)
 *(.text.*)
 .text.libgcc   0x00004256       0x3e c:/programs/winavr-20100110/bin/../lib/gcc/avr/4.3.3/avr5\libgcc.a(_mulsi3.o)
                0x00004256                __mulsi3
 .text.libgcc   0x00004294       0x18 c:/programs/winavr-20100110/bin/../lib/gcc/avr/4.3.3/avr5\libgcc.a(_udivmodqi4.o)
                0x00004294                __udivmodqi4
 .text.libgcc   0x000042ac       0x28 c:/programs/winavr-20100110/bin/../lib/gcc/avr/4.3.3/avr5\libgcc.a(_udivmodhi4.o)
                0x000042ac                __udivmodhi4
 .text.libgcc   0x000042d4       0x44 c:/programs/winavr-20100110/bin/../lib/gcc/avr/4.3.3/avr5\libgcc.a(_udivmodsi4.o)
                0x000042d4                __udivmodsi4
 .text.libgcc   0x00004318        0x0 c:/programs/winavr-20100110/bin/../lib/gcc/avr/4.3.3/avr5\libgcc.a(_exit.o)
 .text.libgcc   0x00004318        0x0 c:/programs/winavr-20100110/bin/../lib/gcc/avr/4.3.3/avr5\libgcc.a(_copy_data.o)
 .text.libgcc   0x00004318        0x0 c:/programs/winavr-20100110/bin/../lib/gcc/avr/4.3.3/avr5\libgcc.a(_clear_bss.o)
 .text.avr-libc
                0x00004318        0xe c:/programs/winavr-20100110/bin/../lib/gcc/avr/4.3.3/../../../../avr/lib/avr5\libc.a(strcpy_P.o)
                0x00004318                strcpy_P
 .text.avr-libc
                0x00004326       0x10 c:/programs/winavr-20100110/bin/../lib/gcc/avr/4.3.3/../../../../avr/lib/avr5\libc.a(eerd_byte_atmega644.o)
                0x00004326                __eerd_byte_m644
 .text.avr-libc
                0x00004336        0xc c:/programs/winavr-20100110/bin/../lib/gcc/avr/4.3.3/../../../../avr/lib/avr5\libc.a(eerd_dword_atmega644.o)
                0x00004336                __eerd_float_m644
                0x00004336                __eerd_dword_m644
 .text.avr-libc
                0x00004342        0xc c:/programs/winavr-20100110/bin/../lib/gcc/avr/4.3.3/../../../../avr/lib/avr5\libc.a(eerd_word_atmega644.o)
                0x00004342                __eerd_word_m644
 .text.avr-libc
                0x0000434e       0x24 c:/programs/winavr-20100110/bin/../lib/gcc/avr/4.3.3/../../../../avr/lib/avr5\libc.a(eeupd_byte_atmega644.o)
                0x0000434e                __eeupd_byte_m644
                0x00004350                __eeupd_r18_m644
 .text.avr-libc
                0x00004372       0x18 c:/programs/winavr-20100110/bin/../lib/gcc/avr/4.3.3/../../../../avr/lib/avr5\libc.a(eeupd_dword_atmega644.o)
                0x00004372                __eeupd_dword_m644
                0x00004372                __eeupd_float_m644
 .text.avr-libc
                0x0000438a        0xc c:/programs/winavr-20100110/bin/../lib/gcc/avr/4.3.3/../../../../avr/lib/avr5\libc.a(eeupd_word_atmega644.o)
                0x0000438a                __eeupd_word_m644
 .text.avr-libc
                0x00004396       0x1c c:/programs/winavr-20100110/bin/../lib/gcc/avr/4.3.3/../../../../avr/lib/avr5\libc.a(eewr_byte_atmega644.o)
                0x00004396                __eewr_byte_m644
                0x00004398                __eewr_r18_m644
 .text.avr-libc
                0x000043b2       0x10 c:/programs/winavr-20100110/bin/../lib/gcc/avr/4.3.3/../../../../avr/lib/avr5\libc.a(eewr_dword_atmega644.o)
                0x000043b2                __eewr_dword_m644
                0x000043b2                __eewr_float_m644
 .text.avr-libc
                0x000043c2        0xa c:/programs/winavr-20100110/bin/../lib/gcc/avr/4.3.3/../../../../avr/lib/avr5\libc.a(eewr_word_atmega644.o)
                0x000043c2                __eewr_word_m644
 .text.avr-libc
                0x000043cc       0x20 c:/programs/winavr-20100110/bin/../lib/gcc/avr/4.3.3/../../../../avr/lib/avr5\libc.a(eerd_block_atmega644.o)
                0x000043cc                __eerd_block_m644
                0x000043d0                __eerd_blraw_m644
                0x000043ec                . = ALIGN (0x2)
 *(.fini9)
 .fini9         0x000043ec        0x0 c:/programs/winavr-20100110/bin/../lib/gcc/avr/4.3.3/avr5\libgcc.a(_exit.o)
                0x000043ec                exit
                0x000043ec                _exit
 *(.fini9)
 *(.fini8)
 *(.fini8)
 *(.fini7)
 *(.fini7)
 *(.fini6)
 *(.fini6)
 *(.fini5)
 *(.fini5)
 *(.fini4)
 *(.fini4)
 *(.fini3)
 *(.fini3)
 *(.fini2)
 *(.fini2)
 *(.fini1)
 *(.fini1)
 *(.fini0)
 .fini0         0x000043ec        0x4 c:/programs/winavr-20100110/bin/../lib/gcc/avr/4.3.3/avr5\libgcc.a(_exit.o)
 *(.fini0)
                0x000043f0                _etext = .

.data           0x00800100       0x36 load address 0x000043f0
                0x00800100                PROVIDE (__data_start, .)
 *(.data)
 .data          0x00800100        0x0 c:/programs/winavr-20100110/bin/../lib/gcc/avr/4.3.3/../../../../avr/lib/avr5/crtm644.o
 .data          0x00800100        0x0 M644_512KB_FLASH_PROTO.o
 .data          0x00800100       0x15 usart_funcs.o
 .data          0x00800115        0x0 ymodem_funcs.o
 .data          0x00800115        0x0 memory_latched.o
 .data          0x00800115       0x20 terminal_menu.o
 .data          0x00800135        0x0 GameBoy_Info.o
 .data          0x00800135        0x0 eeprom_stuff.o
 .data          0x00800135        0x0 MBC_Modes_V5.o
 .data          0x00800135        0x0 c:/programs/winavr-20100110/bin/../lib/gcc/avr/4.3.3/avr5\libgcc.a(_mulsi3.o)
 .data          0x00800135        0x0 c:/programs/winavr-20100110/bin/../lib/gcc/avr/4.3.3/avr5\libgcc.a(_udivmodqi4.o)
 .data          0x00800135        0x0 c:/programs/winavr-20100110/bin/../lib/gcc/avr/4.3.3/avr5\libgcc.a(_udivmodhi4.o)
 .data          0x00800135        0x0 c:/programs/winavr-20100110/bin/../lib/gcc/avr/4.3.3/avr5\libgcc.a(_udivmodsi4.o)
 .data          0x00800135        0x0 c:/programs/winavr-20100110/bin/../lib/gcc/avr/4.3.3/avr5\libgcc.a(_exit.o)
 .data          0x00800135        0x0 c:/programs/winavr-20100110/bin/../lib/gcc/avr/4.3.3/avr5\libgcc.a(_copy_data.o)
 .data          0x00800135        0x0 c:/programs/winavr-20100110/bin/../lib/gcc/avr/4.3.3/avr5\libgcc.a(_clear_bss.o)
 .data          0x00800135        0x0 c:/programs/winavr-20100110/bin/../lib/gcc/avr/4.3.3/../../../../avr/lib/avr5\libc.a(strcpy_P.o)
 .data          0x00800135        0x0 c:/programs/winavr-20100110/bin/../lib/gcc/avr/4.3.3/../../../../avr/lib/avr5\libc.a(eerd_byte_atmega644.o)
 .data          0x00800135        0x0 c:/programs/winavr-20100110/bin/../lib/gcc/avr/4.3.3/../../../../avr/lib/avr5\libc.a(eerd_dword_atmega644.o)
 .data          0x00800135        0x0 c:/programs/winavr-20100110/bin/../lib/gcc/avr/4.3.3/../../../../avr/lib/avr5\libc.a(eerd_word_atmega644.o)
 .data          0x00800135        0x0 c:/programs/winavr-20100110/bin/../lib/gcc/avr/4.3.3/../../../../avr/lib/avr5\libc.a(eeupd_byte_atmega644.o)
 .data          0x00800135        0x0 c:/programs/winavr-20100110/bin/../lib/gcc/avr/4.3.3/../../../../avr/lib/avr5\libc.a(eeupd_dword_atmega644.o)
 .data          0x00800135        0x0 c:/programs/winavr-20100110/bin/../lib/gcc/avr/4.3.3/../../../../avr/lib/avr5\libc.a(eeupd_word_atmega644.o)
 .data          0x00800135        0x0 c:/programs/winavr-20100110/bin/../lib/gcc/avr/4.3.3/../../../../avr/lib/avr5\libc.a(eewr_byte_atmega644.o)
 .data          0x00800135        0x0 c:/programs/winavr-20100110/bin/../lib/gcc/avr/4.3.3/../../../../avr/lib/avr5\libc.a(eewr_dword_atmega644.o)
 .data          0x00800135        0x0 c:/programs/winavr-20100110/bin/../lib/gcc/avr/4.3.3/../../../../avr/lib/avr5\libc.a(eewr_word_atmega644.o)
 .data          0x00800135        0x0 c:/programs/winavr-20100110/bin/../lib/gcc/avr/4.3.3/../../../../avr/lib/avr5\libc.a(eerd_block_atmega644.o)
 *(.data*)
 *(.rodata)
 *(.rodata*)
 *(.gnu.linkonce.d*)
                0x00800136                . = ALIGN (0x2)
 *fill*         0x00800135        0x1 00
                0x00800136                _edata = .
                0x00800136                PROVIDE (__data_end, .)

.bss            0x00800136      0x46a
                0x00800136                PROVIDE (__bss_start, .)
 *(.bss)
 .bss           0x00800136        0x0 c:/programs/winavr-20100110/bin/../lib/gcc/avr/4.3.3/../../../../avr/lib/avr5/crtm644.o
 .bss           0x00800136        0x0 M644_512KB_FLASH_PROTO.o
 .bss           0x00800136        0x0 usart_funcs.o
 .bss           0x00800136        0x0 ymodem_funcs.o
 .bss           0x00800136        0x0 memory_latched.o
 .bss           0x00800136        0x8 terminal_menu.o
                0x00800136                fileSize
                0x0080013a                RAMaddress
 .bss           0x0080013e        0x0 GameBoy_Info.o
 .bss           0x0080013e        0x0 eeprom_stuff.o
 .bss           0x0080013e        0x0 MBC_Modes_V5.o
 .bss           0x0080013e        0x0 c:/programs/winavr-20100110/bin/../lib/gcc/avr/4.3.3/avr5\libgcc.a(_mulsi3.o)
 .bss           0x0080013e        0x0 c:/programs/winavr-20100110/bin/../lib/gcc/avr/4.3.3/avr5\libgcc.a(_udivmodqi4.o)
 .bss           0x0080013e        0x0 c:/programs/winavr-20100110/bin/../lib/gcc/avr/4.3.3/avr5\libgcc.a(_udivmodhi4.o)
 .bss           0x0080013e        0x0 c:/programs/winavr-20100110/bin/../lib/gcc/avr/4.3.3/avr5\libgcc.a(_udivmodsi4.o)
 .bss           0x0080013e        0x0 c:/programs/winavr-20100110/bin/../lib/gcc/avr/4.3.3/avr5\libgcc.a(_exit.o)
 .bss           0x0080013e        0x0 c:/programs/winavr-20100110/bin/../lib/gcc/avr/4.3.3/avr5\libgcc.a(_copy_data.o)
 .bss           0x0080013e        0x0 c:/programs/winavr-20100110/bin/../lib/gcc/avr/4.3.3/avr5\libgcc.a(_clear_bss.o)
 .bss           0x0080013e        0x0 c:/programs/winavr-20100110/bin/../lib/gcc/avr/4.3.3/../../../../avr/lib/avr5\libc.a(strcpy_P.o)
 .bss           0x0080013e        0x0 c:/programs/winavr-20100110/bin/../lib/gcc/avr/4.3.3/../../../../avr/lib/avr5\libc.a(eerd_byte_atmega644.o)
 .bss           0x0080013e        0x0 c:/programs/winavr-20100110/bin/../lib/gcc/avr/4.3.3/../../../../avr/lib/avr5\libc.a(eerd_dword_atmega644.o)
 .bss           0x0080013e        0x0 c:/programs/winavr-20100110/bin/../lib/gcc/avr/4.3.3/../../../../avr/lib/avr5\libc.a(eerd_word_atmega644.o)
 .bss           0x0080013e        0x0 c:/programs/winavr-20100110/bin/../lib/gcc/avr/4.3.3/../../../../avr/lib/avr5\libc.a(eeupd_byte_atmega644.o)
 .bss           0x0080013e        0x0 c:/programs/winavr-20100110/bin/../lib/gcc/avr/4.3.3/../../../../avr/lib/avr5\libc.a(eeupd_dword_atmega644.o)
 .bss           0x0080013e        0x0 c:/programs/winavr-20100110/bin/../lib/gcc/avr/4.3.3/../../../../avr/lib/avr5\libc.a(eeupd_word_atmega644.o)
 .bss           0x0080013e        0x0 c:/programs/winavr-20100110/bin/../lib/gcc/avr/4.3.3/../../../../avr/lib/avr5\libc.a(eewr_byte_atmega644.o)
 .bss           0x0080013e        0x0 c:/programs/winavr-20100110/bin/../lib/gcc/avr/4.3.3/../../../../avr/lib/avr5\libc.a(eewr_dword_atmega644.o)
 .bss           0x0080013e        0x0 c:/programs/winavr-20100110/bin/../lib/gcc/avr/4.3.3/../../../../avr/lib/avr5\libc.a(eewr_word_atmega644.o)
 .bss           0x0080013e        0x0 c:/programs/winavr-20100110/bin/../lib/gcc/avr/4.3.3/../../../../avr/lib/avr5\libc.a(eerd_block_atmega644.o)
 *(.bss*)
 *(COMMON)
 COMMON         0x0080013e        0x2 usart_funcs.o
                0x0080013e                _rx_func
 COMMON         0x00800140      0x40d ymodem_funcs.o
                0x00800140                ymodemSentPackets
                0x00800142                ymodemBuffer
                0x00800547                crcExternal
                0x00800549                crcbytes
                0x0080054b                ymodemReceivedPackets
 COMMON         0x0080054d        0x4 memory_latched.o
                0x0080054d                flashAddress
 COMMON         0x00800551        0x6 terminal_menu.o
                0x00800551                RAMWriteErrorsAddrLast
                0x00800553                RAMWriteErrorsAddrFirst
                0x00800555                RAMWriteErrors
 COMMON         0x00800557       0x39 GameBoy_Info.o
                0x00800557                gbRomData
 COMMON         0x00800590       0x10 eeprom_stuff.o
                0x00800590                eepData
                0x008005a0                PROVIDE (__bss_end, .)
                0x000043f0                __data_load_start = LOADADDR (.data)
                0x00004426                __data_load_end = (__data_load_start + SIZEOF (.data))

.noinit         0x008005a0        0x0
                0x008005a0                PROVIDE (__noinit_start, .)
 *(.noinit*)
                0x008005a0                PROVIDE (__noinit_end, .)
                0x008005a0                _end = .
                0x008005a0                PROVIDE (__heap_start, .)

.eeprom         0x00810000        0x0
 *(.eeprom*)
                0x00810000                __eeprom_end = .

.fuse
 *(.fuse)
 *(.lfuse)
 *(.hfuse)
 *(.efuse)

.lock
 *(.lock*)

.signature
 *(.signature*)

.stab
 *(.stab)

.stabstr
 *(.stabstr)

.stab.excl
 *(.stab.excl)

.stab.exclstr
 *(.stab.exclstr)

.stab.index
 *(.stab.index)

.stab.indexstr
 *(.stab.indexstr)

.comment
 *(.comment)

.debug
 *(.debug)

.line
 *(.line)

.debug_srcinfo
 *(.debug_srcinfo)

.debug_sfnames
 *(.debug_sfnames)

.debug_aranges  0x00000000      0x3c0
 *(.debug_aranges)
 .debug_aranges
                0x00000000       0x20 M644_512KB_FLASH_PROTO.o
 .debug_aranges
                0x00000020       0x20 usart_funcs.o
 .debug_aranges
                0x00000040       0x20 ymodem_funcs.o
 .debug_aranges
                0x00000060       0x20 memory_latched.o
 .debug_aranges
                0x00000080       0x20 terminal_menu.o
 .debug_aranges
                0x000000a0       0x20 GameBoy_Info.o
 .debug_aranges
                0x000000c0       0x20 eeprom_stuff.o
 .debug_aranges
                0x000000e0      0x2e0 MBC_Modes_V5.o

.debug_pubnames
                0x00000000      0x74f
 *(.debug_pubnames)
 .debug_pubnames
                0x00000000       0x1b M644_512KB_FLASH_PROTO.o
 .debug_pubnames
                0x0000001b      0x2eb usart_funcs.o
 .debug_pubnames
                0x00000306       0x93 ymodem_funcs.o
 .debug_pubnames
                0x00000399       0xf4 memory_latched.o
 .debug_pubnames
                0x0000048d      0x1f0 terminal_menu.o
 .debug_pubnames
                0x0000067d       0x33 GameBoy_Info.o
 .debug_pubnames
                0x000006b0       0x9f eeprom_stuff.o

.debug_info     0x00000000     0x4334
 *(.debug_info)
 .debug_info    0x00000000      0x314 M644_512KB_FLASH_PROTO.o
 .debug_info    0x00000314     0x1676 usart_funcs.o
 .debug_info    0x0000198a      0x698 ymodem_funcs.o
 .debug_info    0x00002022      0x73e memory_latched.o
 .debug_info    0x00002760     0x14c8 terminal_menu.o
 .debug_info    0x00003c28      0x448 GameBoy_Info.o
 .debug_info    0x00004070      0x25a eeprom_stuff.o
 .debug_info    0x000042ca       0x6a MBC_Modes_V5.o
 *(.gnu.linkonce.wi.*)

.debug_abbrev   0x00000000      0xd78
 *(.debug_abbrev)
 .debug_abbrev  0x00000000       0xd7 M644_512KB_FLASH_PROTO.o
 .debug_abbrev  0x000000d7      0x33b usart_funcs.o
 .debug_abbrev  0x00000412      0x22d ymodem_funcs.o
 .debug_abbrev  0x0000063f      0x227 memory_latched.o
 .debug_abbrev  0x00000866      0x30b terminal_menu.o
 .debug_abbrev  0x00000b71      0x10b GameBoy_Info.o
 .debug_abbrev  0x00000c7c       0xea eeprom_stuff.o
 .debug_abbrev  0x00000d66       0x12 MBC_Modes_V5.o

.debug_line     0x00000000     0x542e
 *(.debug_line)
 .debug_line    0x00000000      0x1f3 M644_512KB_FLASH_PROTO.o
 .debug_line    0x000001f3      0xf8a usart_funcs.o
 .debug_line    0x0000117d      0x75c ymodem_funcs.o
 .debug_line    0x000018d9     0x1d6f memory_latched.o
 .debug_line    0x00003648      0xfd8 terminal_menu.o
 .debug_line    0x00004620      0x474 GameBoy_Info.o
 .debug_line    0x00004a94      0x1fb eeprom_stuff.o
 .debug_line    0x00004c8f      0x79f MBC_Modes_V5.o

.debug_frame    0x00000000      0x4b0
 *(.debug_frame)
 .debug_frame   0x00000000       0x20 M644_512KB_FLASH_PROTO.o
 .debug_frame   0x00000020      0x220 usart_funcs.o
 .debug_frame   0x00000240       0x30 ymodem_funcs.o
 .debug_frame   0x00000270       0xa0 memory_latched.o
 .debug_frame   0x00000310      0x120 terminal_menu.o
 .debug_frame   0x00000430       0x20 GameBoy_Info.o
 .debug_frame   0x00000450       0x60 eeprom_stuff.o

.debug_str      0x00000000      0x985
 *(.debug_str)
 .debug_str     0x00000000      0x1a7 M644_512KB_FLASH_PROTO.o
                                0x1e5 (size before relaxing)
 .debug_str     0x000001a7      0x2d7 usart_funcs.o
                                0x3bd (size before relaxing)
 .debug_str     0x0000047e      0x197 ymodem_funcs.o
                                0x265 (size before relaxing)
 .debug_str     0x00000615      0x110 memory_latched.o
                                0x24e (size before relaxing)
 .debug_str     0x00000725      0x1a9 terminal_menu.o
                                0x3b2 (size before relaxing)
 .debug_str     0x000008ce       0x2b GameBoy_Info.o
                                0x1a0 (size before relaxing)
 .debug_str     0x000008f9       0x8c eeprom_stuff.o
                                0x199 (size before relaxing)

.debug_loc      0x00000000     0x199d
 *(.debug_loc)
 .debug_loc     0x00000000      0x747 usart_funcs.o
 .debug_loc     0x00000747      0x98f ymodem_funcs.o
 .debug_loc     0x000010d6      0x22b memory_latched.o
 .debug_loc     0x00001301      0x53e terminal_menu.o
 .debug_loc     0x0000183f       0x68 GameBoy_Info.o
 .debug_loc     0x000018a7       0xf6 eeprom_stuff.o

.debug_macinfo
 *(.debug_macinfo)
OUTPUT(M644_512KB_FLASH_PROTO.elf elf32-avr)
LOAD linker stubs

.MBC1_16M_0000  0x00008000        0x4
 .MBC1_16M_0000
                0x00008000        0x4 MBC_Modes_V5.o

.MBC1_16M_0010  0x00008040        0x4
 .MBC1_16M_0010
                0x00008040        0x4 MBC_Modes_V5.o

.MBC1_16M_0100  0x00008080        0x4
 .MBC1_16M_0100
                0x00008080        0x4 MBC_Modes_V5.o

.MBC1_16M_0110  0x000080c0        0x4
 .MBC1_16M_0110
                0x000080c0        0x4 MBC_Modes_V5.o

.MBC1_16M_1000  0x00008100        0x2
 .MBC1_16M_1000
                0x00008100        0x2 MBC_Modes_V5.o

.MBC1_16M_1010  0x00008140        0x2
 .MBC1_16M_1010
                0x00008140        0x2 MBC_Modes_V5.o

.MBC1_16M_1100  0x00008180        0x2
 .MBC1_16M_1100
                0x00008180        0x2 MBC_Modes_V5.o

.MBC1_16M_1110  0x000081c0        0x2
 .MBC1_16M_1110
                0x000081c0        0x2 MBC_Modes_V5.o

.MBC1_16M_0001  0x00008020       0x14
 .MBC1_16M_0001
                0x00008020       0x14 MBC_Modes_V5.o

.MBC1_16M_0011  0x00008060       0x14
 .MBC1_16M_0011
                0x00008060       0x14 MBC_Modes_V5.o

.MBC1_16M_0101  0x000080a0       0x10
 .MBC1_16M_0101
                0x000080a0       0x10 MBC_Modes_V5.o

.MBC1_16M_0111  0x000080e0        0xe
 .MBC1_16M_0111
                0x000080e0        0xe MBC_Modes_V5.o

.MBC1_16M_1001  0x00008120        0x2
 .MBC1_16M_1001
                0x00008120        0x2 MBC_Modes_V5.o

.MBC1_16M_1011  0x00008160        0x2
 .MBC1_16M_1011
                0x00008160        0x2 MBC_Modes_V5.o

.MBC1_16M_1101  0x000081a0        0x2
 .MBC1_16M_1101
                0x000081a0        0x2 MBC_Modes_V5.o

.MBC1_16M_1111  0x000081e0        0x2
 .MBC1_16M_1111
                0x000081e0        0x2 MBC_Modes_V5.o

.MBC1_4M_0000   0x00008200        0x4
 .MBC1_4M_0000  0x00008200        0x4 MBC_Modes_V5.o

.MBC1_4M_0010   0x00008240        0x4
 .MBC1_4M_0010  0x00008240        0x4 MBC_Modes_V5.o

.MBC1_4M_0100   0x00008280        0x4
 .MBC1_4M_0100  0x00008280        0x4 MBC_Modes_V5.o

.MBC1_4M_0110   0x000082c0        0x4
 .MBC1_4M_0110  0x000082c0        0x4 MBC_Modes_V5.o

.MBC1_4M_1000   0x00008300        0x2
 .MBC1_4M_1000  0x00008300        0x2 MBC_Modes_V5.o

.MBC1_4M_1010   0x00008340        0x2
 .MBC1_4M_1010  0x00008340        0x2 MBC_Modes_V5.o

.MBC1_4M_1100   0x00008380        0x2
 .MBC1_4M_1100  0x00008380        0x2 MBC_Modes_V5.o

.MBC1_4M_1110   0x000083c0        0x2
 .MBC1_4M_1110  0x000083c0        0x2 MBC_Modes_V5.o

.MBC1_4M_0001   0x00008220       0x14
 .MBC1_4M_0001  0x00008220       0x14 MBC_Modes_V5.o

.MBC1_4M_0011   0x00008260       0x14
 .MBC1_4M_0011  0x00008260       0x14 MBC_Modes_V5.o

.MBC1_4M_0101   0x000082a0        0xe
 .MBC1_4M_0101  0x000082a0        0xe MBC_Modes_V5.o

.MBC1_4M_0111   0x000082e0        0xc
 .MBC1_4M_0111  0x000082e0        0xc MBC_Modes_V5.o

.MBC1_4M_1001   0x00008320        0x2
 .MBC1_4M_1001  0x00008320        0x2 MBC_Modes_V5.o

.MBC1_4M_1011   0x00008360        0x2
 .MBC1_4M_1011  0x00008360        0x2 MBC_Modes_V5.o

.MBC1_4M_1101   0x000083a0        0x2
 .MBC1_4M_1101  0x000083a0        0x2 MBC_Modes_V5.o

.MBC1_4M_1111   0x000083e0        0x2
 .MBC1_4M_1111  0x000083e0        0x2 MBC_Modes_V5.o

.MBC5_0000      0x00008400        0x8
 .MBC5_0000     0x00008400        0x8 MBC_Modes_V5.o

.MBC5_0010      0x00008440        0x8
 .MBC5_0010     0x00008440        0x8 MBC_Modes_V5.o

.MBC5_0100      0x00008480        0x8
 .MBC5_0100     0x00008480        0x8 MBC_Modes_V5.o

.MBC5_0110      0x000084c0        0x8
 .MBC5_0110     0x000084c0        0x8 MBC_Modes_V5.o

.MBC5_1000      0x00008500        0x8
 .MBC5_1000     0x00008500        0x8 MBC_Modes_V5.o

.MBC5_1010      0x00008540        0x8
 .MBC5_1010     0x00008540        0x8 MBC_Modes_V5.o

.MBC5_1100      0x00008580        0x8
 .MBC5_1100     0x00008580        0x8 MBC_Modes_V5.o

.MBC5_1110      0x000085c0        0x8
 .MBC5_1110     0x000085c0        0x8 MBC_Modes_V5.o

.MBC5_0001      0x00008420       0x12
 .MBC5_0001     0x00008420       0x12 MBC_Modes_V5.o

.MBC5_0011      0x00008460        0xa
 .MBC5_0011     0x00008460        0xa MBC_Modes_V5.o

.MBC5_0101      0x000084a0        0xe
 .MBC5_0101     0x000084a0        0xe MBC_Modes_V5.o

.MBC5_0111      0x000084e0        0x2
 .MBC5_0111     0x000084e0        0x2 MBC_Modes_V5.o

.MBC5_1001      0x00008520        0x6
 .MBC5_1001     0x00008520        0x6 MBC_Modes_V5.o

.MBC5_1011      0x00008560        0x6
 .MBC5_1011     0x00008560        0x6 MBC_Modes_V5.o

.MBC5_1101      0x000085a0        0x6
 .MBC5_1101     0x000085a0        0x6 MBC_Modes_V5.o

.MBC5_1111      0x000085e0        0x2
 .MBC5_1111     0x000085e0        0x2 MBC_Modes_V5.o

.MBC_BASE       0x00007e00      0x104
 .MBC_BASE      0x00007e00      0x104 MBC_Modes_V5.o
                0x00007ee4                MBC_mode_MBC2
                0x00007e80                MBC_mode_MBC3
                0x00007e00                MBC_mode_MBC1_16M8k
                0x00007e28                MBC_mode_MBC1_4M32k
                0x00007e50                MBC_mode_MBC5

.MBC3_0000      0x00008600       0x14
 .MBC3_0000     0x00008600       0x14 MBC_Modes_V5.o

.MBC3_0010      0x00008640       0x14
 .MBC3_0010     0x00008640       0x14 MBC_Modes_V5.o

.MBC3_0100      0x00008680       0x14
 .MBC3_0100     0x00008680       0x14 MBC_Modes_V5.o

.MBC3_0110      0x000086c0       0x14
 .MBC3_0110     0x000086c0       0x14 MBC_Modes_V5.o

.MBC3_1000      0x00008700       0x1c
 .MBC3_1000     0x00008700       0x1c MBC_Modes_V5.o

.MBC3_1010      0x00008740       0x1a
 .MBC3_1010     0x00008740       0x1a MBC_Modes_V5.o

.MBC3_1100      0x00008780       0x1c
 .MBC3_1100     0x00008780       0x1c MBC_Modes_V5.o

.MBC3_1110      0x000087c0       0x1c
 .MBC3_1110     0x000087c0       0x1c MBC_Modes_V5.o

.MBC3_0001      0x00008620       0x14
 .MBC3_0001     0x00008620       0x14 MBC_Modes_V5.o

.MBC3_0011      0x00008660       0x14
 .MBC3_0011     0x00008660       0x14 MBC_Modes_V5.o

.MBC3_0101      0x000086a0       0x20
 .MBC3_0101     0x000086a0       0x20 MBC_Modes_V5.o

.MBC3_0111      0x000086e0       0x16
 .MBC3_0111     0x000086e0       0x16 MBC_Modes_V5.o

.MBC3_1001      0x00008720       0x1a
 .MBC3_1001     0x00008720       0x1a MBC_Modes_V5.o

.MBC3_1011      0x00008760       0x20
 .MBC3_1011     0x00008760       0x20 MBC_Modes_V5.o

.MBC3_1101      0x000087a0        0x6
 .MBC3_1101     0x000087a0        0x6 MBC_Modes_V5.o

.MBC3_1111      0x000087e0       0x1a
 .MBC3_1111     0x000087e0       0x1a MBC_Modes_V5.o

.MBC5_DSM_0000  0x00008800        0x6
 .MBC5_DSM_0000
                0x00008800        0x6 MBC_Modes_V5.o

.MBC5_DSM_0010  0x00008840        0x6
 .MBC5_DSM_0010
                0x00008840        0x6 MBC_Modes_V5.o

.MBC5_DSM_0100  0x00008880        0x6
 .MBC5_DSM_0100
                0x00008880        0x6 MBC_Modes_V5.o

.MBC5_DSM_0110  0x000088c0        0x6
 .MBC5_DSM_0110
                0x000088c0        0x6 MBC_Modes_V5.o

.MBC5_DSM_1000  0x00008900        0x6
 .MBC5_DSM_1000
                0x00008900        0x6 MBC_Modes_V5.o

.MBC5_DSM_1010  0x00008940        0xa
 .MBC5_DSM_1010
                0x00008940        0xa MBC_Modes_V5.o

.MBC5_DSM_1100  0x00008980        0x6
 .MBC5_DSM_1100
                0x00008980        0x6 MBC_Modes_V5.o

.MBC5_DSM_1110  0x000089c0        0x6
 .MBC5_DSM_1110
                0x000089c0        0x6 MBC_Modes_V5.o

.MBC5_DSM_0001  0x00008820        0x8
 .MBC5_DSM_0001
                0x00008820        0x8 MBC_Modes_V5.o

.MBC5_DSM_0011  0x00008860        0x6
 .MBC5_DSM_0011
                0x00008860        0x6 MBC_Modes_V5.o

.MBC5_DSM_0101  0x000088a0        0x8
 .MBC5_DSM_0101
                0x000088a0        0x8 MBC_Modes_V5.o

.MBC5_DSM_0111  0x000088e0        0x6
 .MBC5_DSM_0111
                0x000088e0        0x6 MBC_Modes_V5.o

.MBC5_DSM_1001  0x00008920        0x6
 .MBC5_DSM_1001
                0x00008920        0x6 MBC_Modes_V5.o

.MBC5_DSM_1011  0x00008960        0xa
 .MBC5_DSM_1011
                0x00008960        0xa MBC_Modes_V5.o

.MBC5_DSM_1101  0x000089a0        0x6
 .MBC5_DSM_1101
                0x000089a0        0x6 MBC_Modes_V5.o

.MBC5_DSM_1111  0x000089e0        0x6
 .MBC5_DSM_1111
                0x000089e0        0x6 MBC_Modes_V5.o

.MBC2_0000      0x00008a00        0x4
 .MBC2_0000     0x00008a00        0x4 MBC_Modes_V5.o

.MBC2_0100      0x00008a80        0x4
 .MBC2_0100     0x00008a80        0x4 MBC_Modes_V5.o

.MBC2_1000      0x00008b00        0x4
 .MBC2_1000     0x00008b00        0x4 MBC_Modes_V5.o

.MBC2_1100      0x00008b80        0x4
 .MBC2_1100     0x00008b80        0x4 MBC_Modes_V5.o

.MBC2_0001      0x00008a20       0x26
 .MBC2_0001     0x00008a20       0x26 MBC_Modes_V5.o

.MBC2_0101      0x00008aa0        0x2
 .MBC2_0101     0x00008aa0        0x2 MBC_Modes_V5.o

.MBC2_1001      0x00008b20       0x2a
 .MBC2_1001     0x00008b20       0x2a MBC_Modes_V5.o

.MBC2_1101      0x00008ba0        0x2
 .MBC2_1101     0x00008ba0        0x2 MBC_Modes_V5.o

.debug_ranges   0x00000000      0xb70
 .debug_ranges  0x00000000      0x3f0 usart_funcs.o
 .debug_ranges  0x000003f0       0xf0 ymodem_funcs.o
 .debug_ranges  0x000004e0       0x30 memory_latched.o
 .debug_ranges  0x00000510      0x388 terminal_menu.o
 .debug_ranges  0x00000898      0x2d8 MBC_Modes_V5.o
