
thermometer ds1621.elf:     file format elf32-avr

Sections:
Idx Name          Size      VMA       LMA       File off  Algn
  0 .data         00000008  00800100  0000032e  000003c2  2**0
                  CONTENTS, ALLOC, LOAD, DATA
  1 .text         0000032e  00000000  00000000  00000094  2**1
                  CONTENTS, ALLOC, LOAD, READONLY, CODE
  2 .bss          00000001  00800108  00800108  000003ca  2**0
                  ALLOC
  3 .stab         000006cc  00000000  00000000  000003cc  2**2
                  CONTENTS, READONLY, DEBUGGING
  4 .stabstr      00000085  00000000  00000000  00000a98  2**0
                  CONTENTS, READONLY, DEBUGGING

Disassembly of section .text:

00000000 <__vectors>:
   0:	0c 94 3e 00 	jmp	0x7c	; 0x7c <__ctors_end>
   4:	0c 94 5b 00 	jmp	0xb6	; 0xb6 <__bad_interrupt>
   8:	0c 94 5b 00 	jmp	0xb6	; 0xb6 <__bad_interrupt>
   c:	0c 94 5b 00 	jmp	0xb6	; 0xb6 <__bad_interrupt>
  10:	0c 94 5b 00 	jmp	0xb6	; 0xb6 <__bad_interrupt>
  14:	0c 94 5b 00 	jmp	0xb6	; 0xb6 <__bad_interrupt>
  18:	0c 94 5b 00 	jmp	0xb6	; 0xb6 <__bad_interrupt>
  1c:	0c 94 5b 00 	jmp	0xb6	; 0xb6 <__bad_interrupt>
  20:	0c 94 5b 00 	jmp	0xb6	; 0xb6 <__bad_interrupt>
  24:	0c 94 5b 00 	jmp	0xb6	; 0xb6 <__bad_interrupt>
  28:	0c 94 5b 00 	jmp	0xb6	; 0xb6 <__bad_interrupt>
  2c:	0c 94 5b 00 	jmp	0xb6	; 0xb6 <__bad_interrupt>
  30:	0c 94 5b 00 	jmp	0xb6	; 0xb6 <__bad_interrupt>
  34:	0c 94 5b 00 	jmp	0xb6	; 0xb6 <__bad_interrupt>
  38:	0c 94 5b 00 	jmp	0xb6	; 0xb6 <__bad_interrupt>
  3c:	0c 94 5b 00 	jmp	0xb6	; 0xb6 <__bad_interrupt>
  40:	0c 94 5b 00 	jmp	0xb6	; 0xb6 <__bad_interrupt>
  44:	0c 94 5b 00 	jmp	0xb6	; 0xb6 <__bad_interrupt>
  48:	0c 94 5b 00 	jmp	0xb6	; 0xb6 <__bad_interrupt>
  4c:	0c 94 5b 00 	jmp	0xb6	; 0xb6 <__bad_interrupt>
  50:	0c 94 5b 00 	jmp	0xb6	; 0xb6 <__bad_interrupt>
  54:	0c 94 5b 00 	jmp	0xb6	; 0xb6 <__bad_interrupt>
  58:	0c 94 5b 00 	jmp	0xb6	; 0xb6 <__bad_interrupt>
  5c:	0c 94 5b 00 	jmp	0xb6	; 0xb6 <__bad_interrupt>
  60:	0c 94 5b 00 	jmp	0xb6	; 0xb6 <__bad_interrupt>
  64:	0c 94 5b 00 	jmp	0xb6	; 0xb6 <__bad_interrupt>
  68:	0c 94 5b 00 	jmp	0xb6	; 0xb6 <__bad_interrupt>
  6c:	0c 94 5b 00 	jmp	0xb6	; 0xb6 <__bad_interrupt>
  70:	0c 94 5b 00 	jmp	0xb6	; 0xb6 <__bad_interrupt>
  74:	0c 94 5b 00 	jmp	0xb6	; 0xb6 <__bad_interrupt>
  78:	0c 94 5b 00 	jmp	0xb6	; 0xb6 <__bad_interrupt>

0000007c <__ctors_end>:
  7c:	11 24       	eor	r1, r1
  7e:	1f be       	out	0x3f, r1	; 63
  80:	cf ef       	ldi	r28, 0xFF	; 255
  82:	d0 e1       	ldi	r29, 0x10	; 16
  84:	de bf       	out	0x3e, r29	; 62
  86:	cd bf       	out	0x3d, r28	; 61

00000088 <__do_copy_data>:
  88:	11 e0       	ldi	r17, 0x01	; 1
  8a:	a0 e0       	ldi	r26, 0x00	; 0
  8c:	b1 e0       	ldi	r27, 0x01	; 1
  8e:	ee e2       	ldi	r30, 0x2E	; 46
  90:	f3 e0       	ldi	r31, 0x03	; 3
  92:	02 c0       	rjmp	.+4      	; 0x98 <__do_copy_data+0x10>
  94:	05 90       	lpm	r0, Z+
  96:	0d 92       	st	X+, r0
  98:	a8 30       	cpi	r26, 0x08	; 8
  9a:	b1 07       	cpc	r27, r17
  9c:	d9 f7       	brne	.-10     	; 0x94 <__do_copy_data+0xc>

0000009e <__do_clear_bss>:
  9e:	11 e0       	ldi	r17, 0x01	; 1
  a0:	a8 e0       	ldi	r26, 0x08	; 8
  a2:	b1 e0       	ldi	r27, 0x01	; 1
  a4:	01 c0       	rjmp	.+2      	; 0xa8 <.do_clear_bss_start>

000000a6 <.do_clear_bss_loop>:
  a6:	1d 92       	st	X+, r1

000000a8 <.do_clear_bss_start>:
  a8:	a9 30       	cpi	r26, 0x09	; 9
  aa:	b1 07       	cpc	r27, r17
  ac:	e1 f7       	brne	.-8      	; 0xa6 <.do_clear_bss_loop>
  ae:	0e 94 52 01 	call	0x2a4	; 0x2a4 <main>
  b2:	0c 94 95 01 	jmp	0x32a	; 0x32a <_exit>

000000b6 <__bad_interrupt>:
  b6:	0c 94 00 00 	jmp	0	; 0x0 <__vectors>

000000ba <init>:
  ba:	cf 93       	push	r28
  bc:	df 93       	push	r29
  be:	87 e0       	ldi	r24, 0x07	; 7
  c0:	81 b9       	out	0x01, r24	; 1
  c2:	82 b9       	out	0x02, r24	; 2
  c4:	8f ef       	ldi	r24, 0xFF	; 255
  c6:	84 b9       	out	0x04, r24	; 4
  c8:	85 b9       	out	0x05, r24	; 5
  ca:	83 e0       	ldi	r24, 0x03	; 3
  cc:	88 b9       	out	0x08, r24	; 8
  ce:	80 e2       	ldi	r24, 0x20	; 32
  d0:	80 93 b8 00 	sts	0x00B8, r24
  d4:	cc ee       	ldi	r28, 0xEC	; 236
  d6:	d0 e0       	ldi	r29, 0x00	; 0
  d8:	88 e3       	ldi	r24, 0x38	; 56
  da:	90 e0       	ldi	r25, 0x00	; 0
  dc:	fe 01       	movw	r30, r28
  de:	09 95       	icall
  e0:	8c e0       	ldi	r24, 0x0C	; 12
  e2:	90 e0       	ldi	r25, 0x00	; 0
  e4:	fe 01       	movw	r30, r28
  e6:	09 95       	icall
  e8:	81 e0       	ldi	r24, 0x01	; 1
  ea:	90 e0       	ldi	r25, 0x00	; 0
  ec:	fe 01       	movw	r30, r28
  ee:	09 95       	icall
  f0:	80 e8       	ldi	r24, 0x80	; 128
  f2:	90 e0       	ldi	r25, 0x00	; 0
  f4:	fe 01       	movw	r30, r28
  f6:	09 95       	icall
  f8:	df 91       	pop	r29
  fa:	cf 91       	pop	r28
  fc:	08 95       	ret

000000fe <ds1621_convert>:
  fe:	84 ea       	ldi	r24, 0xA4	; 164
 100:	80 93 bc 00 	sts	0x00BC, r24
 104:	80 91 bc 00 	lds	r24, 0x00BC
 108:	87 ff       	sbrs	r24, 7
 10a:	fc cf       	rjmp	.-8      	; 0x104 <ds1621_convert+0x6>
 10c:	80 e9       	ldi	r24, 0x90	; 144
 10e:	80 93 bb 00 	sts	0x00BB, r24
 112:	84 e8       	ldi	r24, 0x84	; 132
 114:	80 93 bc 00 	sts	0x00BC, r24
 118:	80 91 bc 00 	lds	r24, 0x00BC
 11c:	87 ff       	sbrs	r24, 7
 11e:	fc cf       	rjmp	.-8      	; 0x118 <ds1621_convert+0x1a>
 120:	8e ee       	ldi	r24, 0xEE	; 238
 122:	80 93 bb 00 	sts	0x00BB, r24
 126:	84 e8       	ldi	r24, 0x84	; 132
 128:	80 93 bc 00 	sts	0x00BC, r24
 12c:	80 91 bc 00 	lds	r24, 0x00BC
 130:	87 ff       	sbrs	r24, 7
 132:	fc cf       	rjmp	.-8      	; 0x12c <ds1621_convert+0x2e>
 134:	84 e9       	ldi	r24, 0x94	; 148
 136:	80 93 bc 00 	sts	0x00BC, r24
 13a:	08 95       	ret

0000013c <ds1621_readtemp>:
 13c:	84 ea       	ldi	r24, 0xA4	; 164
 13e:	80 93 bc 00 	sts	0x00BC, r24
 142:	80 91 bc 00 	lds	r24, 0x00BC
 146:	87 ff       	sbrs	r24, 7
 148:	fc cf       	rjmp	.-8      	; 0x142 <ds1621_readtemp+0x6>
 14a:	80 e9       	ldi	r24, 0x90	; 144
 14c:	80 93 bb 00 	sts	0x00BB, r24
 150:	84 e8       	ldi	r24, 0x84	; 132
 152:	80 93 bc 00 	sts	0x00BC, r24
 156:	80 91 bc 00 	lds	r24, 0x00BC
 15a:	87 ff       	sbrs	r24, 7
 15c:	fc cf       	rjmp	.-8      	; 0x156 <ds1621_readtemp+0x1a>
 15e:	8a ea       	ldi	r24, 0xAA	; 170
 160:	80 93 bb 00 	sts	0x00BB, r24
 164:	84 e8       	ldi	r24, 0x84	; 132
 166:	80 93 bc 00 	sts	0x00BC, r24
 16a:	80 91 bc 00 	lds	r24, 0x00BC
 16e:	87 ff       	sbrs	r24, 7
 170:	fc cf       	rjmp	.-8      	; 0x16a <ds1621_readtemp+0x2e>
 172:	84 ea       	ldi	r24, 0xA4	; 164
 174:	80 93 bc 00 	sts	0x00BC, r24
 178:	80 91 bc 00 	lds	r24, 0x00BC
 17c:	87 ff       	sbrs	r24, 7
 17e:	fc cf       	rjmp	.-8      	; 0x178 <ds1621_readtemp+0x3c>
 180:	81 e9       	ldi	r24, 0x91	; 145
 182:	80 93 bb 00 	sts	0x00BB, r24
 186:	84 e8       	ldi	r24, 0x84	; 132
 188:	80 93 bc 00 	sts	0x00BC, r24
 18c:	80 91 bc 00 	lds	r24, 0x00BC
 190:	87 ff       	sbrs	r24, 7
 192:	fc cf       	rjmp	.-8      	; 0x18c <ds1621_readtemp+0x50>
 194:	84 e8       	ldi	r24, 0x84	; 132
 196:	80 93 bc 00 	sts	0x00BC, r24
 19a:	80 91 bc 00 	lds	r24, 0x00BC
 19e:	87 ff       	sbrs	r24, 7
 1a0:	fc cf       	rjmp	.-8      	; 0x19a <ds1621_readtemp+0x5e>
 1a2:	80 91 bb 00 	lds	r24, 0x00BB
 1a6:	80 93 08 01 	sts	0x0108, r24
 1aa:	84 e9       	ldi	r24, 0x94	; 148
 1ac:	80 93 bc 00 	sts	0x00BC, r24
 1b0:	08 95       	ret

000001b2 <lcd_wait>:
 1b2:	14 b8       	out	0x04, r1	; 4
 1b4:	0c c0       	rjmp	.+24     	; 0x1ce <lcd_wait+0x1c>
 1b6:	82 b1       	in	r24, 0x02	; 2
 1b8:	86 60       	ori	r24, 0x06	; 6
 1ba:	82 b9       	out	0x02, r24	; 2
 1bc:	8f ec       	ldi	r24, 0xCF	; 207
 1be:	97 e0       	ldi	r25, 0x07	; 7
 1c0:	01 97       	sbiw	r24, 0x01	; 1
 1c2:	f1 f7       	brne	.-4      	; 0x1c0 <lcd_wait+0xe>
 1c4:	00 c0       	rjmp	.+0      	; 0x1c6 <lcd_wait+0x14>
 1c6:	00 00       	nop
 1c8:	82 b1       	in	r24, 0x02	; 2
 1ca:	86 70       	andi	r24, 0x06	; 6
 1cc:	82 b9       	out	0x02, r24	; 2
 1ce:	1f 99       	sbic	0x03, 7	; 3
 1d0:	f2 cf       	rjmp	.-28     	; 0x1b6 <lcd_wait+0x4>
 1d2:	8f ef       	ldi	r24, 0xFF	; 255
 1d4:	84 b9       	out	0x04, r24	; 4
 1d6:	08 95       	ret

000001d8 <lcd_command>:
 1d8:	1f 93       	push	r17
 1da:	18 2f       	mov	r17, r24
 1dc:	0e 94 d9 00 	call	0x1b2	; 0x1b2 <lcd_wait>
 1e0:	15 b9       	out	0x05, r17	; 5
 1e2:	82 b1       	in	r24, 0x02	; 2
 1e4:	88 7f       	andi	r24, 0xF8	; 248
 1e6:	82 b9       	out	0x02, r24	; 2
 1e8:	12 9a       	sbi	0x02, 2	; 2
 1ea:	8f ec       	ldi	r24, 0xCF	; 207
 1ec:	97 e0       	ldi	r25, 0x07	; 7
 1ee:	01 97       	sbiw	r24, 0x01	; 1
 1f0:	f1 f7       	brne	.-4      	; 0x1ee <lcd_command+0x16>
 1f2:	00 c0       	rjmp	.+0      	; 0x1f4 <lcd_command+0x1c>
 1f4:	00 00       	nop
 1f6:	12 98       	cbi	0x02, 2	; 2
 1f8:	1f 91       	pop	r17
 1fa:	08 95       	ret

000001fc <lcd_data>:
 1fc:	1f 93       	push	r17
 1fe:	18 2f       	mov	r17, r24
 200:	0e 94 d9 00 	call	0x1b2	; 0x1b2 <lcd_wait>
 204:	15 b9       	out	0x05, r17	; 5
 206:	82 b1       	in	r24, 0x02	; 2
 208:	89 7f       	andi	r24, 0xF9	; 249
 20a:	82 b9       	out	0x02, r24	; 2
 20c:	82 b1       	in	r24, 0x02	; 2
 20e:	85 60       	ori	r24, 0x05	; 5
 210:	82 b9       	out	0x02, r24	; 2
 212:	8f ec       	ldi	r24, 0xCF	; 207
 214:	97 e0       	ldi	r25, 0x07	; 7
 216:	01 97       	sbiw	r24, 0x01	; 1
 218:	f1 f7       	brne	.-4      	; 0x216 <lcd_data+0x1a>
 21a:	00 c0       	rjmp	.+0      	; 0x21c <lcd_data+0x20>
 21c:	00 00       	nop
 21e:	82 b1       	in	r24, 0x02	; 2
 220:	8a 7f       	andi	r24, 0xFA	; 250
 222:	82 b9       	out	0x02, r24	; 2
 224:	1f 91       	pop	r17
 226:	08 95       	ret

00000228 <display_temp>:
 228:	ef 92       	push	r14
 22a:	ff 92       	push	r15
 22c:	0f 93       	push	r16
 22e:	1f 93       	push	r17
 230:	20 91 08 01 	lds	r18, 0x0108
 234:	1a e0       	ldi	r17, 0x0A	; 10
 236:	82 2f       	mov	r24, r18
 238:	61 2f       	mov	r22, r17
 23a:	0e 94 89 01 	call	0x312	; 0x312 <__udivmodqi4>
 23e:	09 2f       	mov	r16, r25
 240:	2a 30       	cpi	r18, 0x0A	; 10
 242:	30 f4       	brcc	.+12     	; 0x250 <display_temp+0x28>
 244:	87 e8       	ldi	r24, 0x87	; 135
 246:	0e 94 ec 00 	call	0x1d8	; 0x1d8 <lcd_command>
 24a:	80 2f       	mov	r24, r16
 24c:	80 5d       	subi	r24, 0xD0	; 208
 24e:	1d c0       	rjmp	.+58     	; 0x28a <display_temp+0x62>
 250:	61 2f       	mov	r22, r17
 252:	0e 94 89 01 	call	0x312	; 0x312 <__udivmodqi4>
 256:	e8 2e       	mov	r14, r24
 258:	00 5d       	subi	r16, 0xD0	; 208
 25a:	80 e3       	ldi	r24, 0x30	; 48
 25c:	f8 2e       	mov	r15, r24
 25e:	f9 0e       	add	r15, r25
 260:	24 36       	cpi	r18, 0x64	; 100
 262:	20 f4       	brcc	.+8      	; 0x26c <display_temp+0x44>
 264:	86 e8       	ldi	r24, 0x86	; 134
 266:	0e 94 ec 00 	call	0x1d8	; 0x1d8 <lcd_command>
 26a:	0b c0       	rjmp	.+22     	; 0x282 <display_temp+0x5a>
 26c:	85 e8       	ldi	r24, 0x85	; 133
 26e:	0e 94 ec 00 	call	0x1d8	; 0x1d8 <lcd_command>
 272:	8e 2d       	mov	r24, r14
 274:	61 2f       	mov	r22, r17
 276:	0e 94 89 01 	call	0x312	; 0x312 <__udivmodqi4>
 27a:	89 2f       	mov	r24, r25
 27c:	80 5d       	subi	r24, 0xD0	; 208
 27e:	0e 94 fe 00 	call	0x1fc	; 0x1fc <lcd_data>
 282:	8f 2d       	mov	r24, r15
 284:	0e 94 fe 00 	call	0x1fc	; 0x1fc <lcd_data>
 288:	80 2f       	mov	r24, r16
 28a:	0e 94 fe 00 	call	0x1fc	; 0x1fc <lcd_data>
 28e:	8f ed       	ldi	r24, 0xDF	; 223
 290:	0e 94 fe 00 	call	0x1fc	; 0x1fc <lcd_data>
 294:	83 e4       	ldi	r24, 0x43	; 67
 296:	0e 94 fe 00 	call	0x1fc	; 0x1fc <lcd_data>
 29a:	1f 91       	pop	r17
 29c:	0f 91       	pop	r16
 29e:	ff 90       	pop	r15
 2a0:	ef 90       	pop	r14
 2a2:	08 95       	ret

000002a4 <main>:
 2a4:	ff 92       	push	r15
 2a6:	0f 93       	push	r16
 2a8:	1f 93       	push	r17
 2aa:	df 93       	push	r29
 2ac:	cf 93       	push	r28
 2ae:	cd b7       	in	r28, 0x3d	; 61
 2b0:	de b7       	in	r29, 0x3e	; 62
 2b2:	27 97       	sbiw	r28, 0x07	; 7
 2b4:	0f b6       	in	r0, 0x3f	; 63
 2b6:	f8 94       	cli
 2b8:	de bf       	out	0x3e, r29	; 62
 2ba:	0f be       	out	0x3f, r0	; 63
 2bc:	cd bf       	out	0x3d, r28	; 61
 2be:	0e 94 5d 00 	call	0xba	; 0xba <init>
 2c2:	de 01       	movw	r26, r28
 2c4:	11 96       	adiw	r26, 0x01	; 1
 2c6:	e0 e0       	ldi	r30, 0x00	; 0
 2c8:	f1 e0       	ldi	r31, 0x01	; 1
 2ca:	87 e0       	ldi	r24, 0x07	; 7
 2cc:	01 90       	ld	r0, Z+
 2ce:	0d 92       	st	X+, r0
 2d0:	81 50       	subi	r24, 0x01	; 1
 2d2:	e1 f7       	brne	.-8      	; 0x2cc <main+0x28>
 2d4:	ff 24       	eor	r15, r15
 2d6:	8e 01       	movw	r16, r28
 2d8:	0f 5f       	subi	r16, 0xFF	; 255
 2da:	1f 4f       	sbci	r17, 0xFF	; 255
 2dc:	04 c0       	rjmp	.+8      	; 0x2e6 <main+0x42>
 2de:	f3 94       	inc	r15
 2e0:	90 e0       	ldi	r25, 0x00	; 0
 2e2:	0e 94 fe 00 	call	0x1fc	; 0x1fc <lcd_data>
 2e6:	f8 01       	movw	r30, r16
 2e8:	ef 0d       	add	r30, r15
 2ea:	f1 1d       	adc	r31, r1
 2ec:	80 81       	ld	r24, Z
 2ee:	88 23       	and	r24, r24
 2f0:	b1 f7       	brne	.-20     	; 0x2de <main+0x3a>
 2f2:	0e 94 7f 00 	call	0xfe	; 0xfe <ds1621_convert>
 2f6:	8f ef       	ldi	r24, 0xFF	; 255
 2f8:	99 e6       	ldi	r25, 0x69	; 105
 2fa:	a8 e1       	ldi	r26, 0x18	; 24
 2fc:	81 50       	subi	r24, 0x01	; 1
 2fe:	90 40       	sbci	r25, 0x00	; 0
 300:	a0 40       	sbci	r26, 0x00	; 0
 302:	e1 f7       	brne	.-8      	; 0x2fc <main+0x58>
 304:	00 c0       	rjmp	.+0      	; 0x306 <main+0x62>
 306:	00 00       	nop
 308:	0e 94 9e 00 	call	0x13c	; 0x13c <ds1621_readtemp>
 30c:	0e 94 14 01 	call	0x228	; 0x228 <display_temp>
 310:	f0 cf       	rjmp	.-32     	; 0x2f2 <main+0x4e>

00000312 <__udivmodqi4>:
 312:	99 1b       	sub	r25, r25
 314:	79 e0       	ldi	r23, 0x09	; 9
 316:	04 c0       	rjmp	.+8      	; 0x320 <__udivmodqi4_ep>

00000318 <__udivmodqi4_loop>:
 318:	99 1f       	adc	r25, r25
 31a:	96 17       	cp	r25, r22
 31c:	08 f0       	brcs	.+2      	; 0x320 <__udivmodqi4_ep>
 31e:	96 1b       	sub	r25, r22

00000320 <__udivmodqi4_ep>:
 320:	88 1f       	adc	r24, r24
 322:	7a 95       	dec	r23
 324:	c9 f7       	brne	.-14     	; 0x318 <__udivmodqi4_loop>
 326:	80 95       	com	r24
 328:	08 95       	ret

0000032a <_exit>:
 32a:	f8 94       	cli

0000032c <__stop_program>:
 32c:	ff cf       	rjmp	.-2      	; 0x32c <__stop_program>
