Archive member included because of file (symbol)

d:/avr_development/winavr/bin/../lib/gcc/avr/4.3.2/avr4\libgcc.a(_exit.o)
                              d:/avr_development/winavr/bin/../lib/gcc/avr/4.3.2/../../../../avr/lib/avr4/crtm8.o (exit)
d:/avr_development/winavr/bin/../lib/gcc/avr/4.3.2/avr4\libgcc.a(_copy_data.o)
                              usbdrv.o (__do_copy_data)
d:/avr_development/winavr/bin/../lib/gcc/avr/4.3.2/avr4\libgcc.a(_clear_bss.o)
                              timer.o (__do_clear_bss)

Allocating common symbols
Common symbol       size              file

dataPaket           0x100             timer.o
IDProsesTransmisi   0x1               timer.o
statusPaketAkhir    0x1               timer.o
usbTxBuf            0xb               usbdrv.o
IDPaketOK           0x1               timer.o
deviceSignature     0x3               timer.o
IDPaket             0x1               timer.o
tungguKonfirmasi    0x1               timer.o
IDPerintah          0x1               timer.o
buffer_rx           0x100             timer.o
bufferPaketData     0x8a              timer.o
counter_buffer      0x1               timer.o
idx_buffer_terima   0x1               timer.o
selesaiTerima       0x1               timer.o
idx_buffer_paket    0x1               timer.o
alamat_EEPROM       0x2               debug.o
bufferKonfirmasi    0x4               timer.o
usbDeviceAddr       0x1               usbdrv.o
usbRxToken          0x1               usbdrv.o
usbInputBufOffset   0x1               usbdrv.o
jmlPaket            0x1               timer.o
statusPaketData     0x1               timer.o
statusKonfirmasi    0x1               timer.o
statusSisiPemrogram
                    0x1               timer.o
data                0x1               timer.o
IDPaketGagal        0x1               timer.o
dataLoad            0x80              timer.o
statusPaketPerintah
                    0x1               timer.o
idx_tulis_buffer    0x1               timer.o
statusPaketDiterima
                    0x1               timer.o
hasilCRC            0x2               timer.o
usbMsgPtr           0x2               usbdrv.o
indekKonfirmasi     0x1               timer.o
idx_baca_buffer     0x1               timer.o
usbRxLen            0x1               usbdrv.o
mulaiTerima         0x1               timer.o
usbNewDeviceAddr    0x1               usbdrv.o
idx_eep             0x2               debug.o
usbCurrentTok       0x1               usbdrv.o
counterTimeout      0x1               timer.o
usbConfiguration    0x1               usbdrv.o
usbRxBuf            0x16              usbdrv.o
status              0x1               timer.o

Memory Configuration

Name             Origin             Length             Attributes
text             0x00000000         0x00002000         xr
data             0x00800060         0x0000ffa0         rw !x
eeprom           0x00810000         0x00010000         rw !x
fuse             0x00820000         0x00000400         rw !x
lock             0x00830000         0x00000400         rw !x
signature        0x00840000         0x00000400         rw !x
*default*        0x00000000         0xffffffff

Linker script and memory map

LOAD d:/avr_development/winavr/bin/../lib/gcc/avr/4.3.2/../../../../avr/lib/avr4/crtm8.o
LOAD timer.o
LOAD usart.o
LOAD inframerah.o
LOAD crc.o
LOAD debug.o
LOAD usbdrv.o
LOAD usbdrvasm.o
LOAD main.o
LOAD d:/avr_development/winavr/bin/../lib/gcc/avr/4.3.2/avr4\libgcc.a
LOAD d:/avr_development/winavr/bin/../lib/gcc/avr/4.3.2/../../../../avr/lib/avr4\libc.a
LOAD d:/avr_development/winavr/bin/../lib/gcc/avr/4.3.2/avr4\libgcc.a

.hash
 *(.hash)

.dynsym
 *(.dynsym)

.dynstr
 *(.dynstr)

.gnu.version
 *(.gnu.version)

.gnu.version_d
 *(.gnu.version_d)

.gnu.version_r
 *(.gnu.version_r)

.rel.init
 *(.rel.init)

.rela.init
 *(.rela.init)

.rel.text
 *(.rel.text)
 *(.rel.text.*)
 *(.rel.gnu.linkonce.t*)

.rela.text
 *(.rela.text)
 *(.rela.text.*)
 *(.rela.gnu.linkonce.t*)

.rel.fini
 *(.rel.fini)

.rela.fini
 *(.rela.fini)

.rel.rodata
 *(.rel.rodata)
 *(.rel.rodata.*)
 *(.rel.gnu.linkonce.r*)

.rela.rodata
 *(.rela.rodata)
 *(.rela.rodata.*)
 *(.rela.gnu.linkonce.r*)

.rel.data
 *(.rel.data)
 *(.rel.data.*)
 *(.rel.gnu.linkonce.d*)

.rela.data
 *(.rela.data)
 *(.rela.data.*)
 *(.rela.gnu.linkonce.d*)

.rel.ctors
 *(.rel.ctors)

.rela.ctors
 *(.rela.ctors)

.rel.dtors
 *(.rel.dtors)

.rela.dtors
 *(.rela.dtors)

.rel.got
 *(.rel.got)

.rela.got
 *(.rela.got)

.rel.bss
 *(.rel.bss)

.rela.bss
 *(.rela.bss)

.rel.plt
 *(.rel.plt)

.rela.plt
 *(.rela.plt)

.text           0x00000000     0x1544
 *(.vectors)
 .vectors       0x00000000       0x26 d:/avr_development/winavr/bin/../lib/gcc/avr/4.3.2/../../../../avr/lib/avr4/crtm8.o
                0x00000000                __vectors
                0x00000000                __vector_default
 *(.vectors)
 *(.progmem.gcc*)
 *(.progmem*)
 .progmem.data  0x00000026       0x76 usbdrv.o
                0x00000078                usbDescriptorDevice
                0x00000026                usbDescriptorString0
                0x00000054                usbDescriptorStringSerialNumber
                0x0000008a                usbDescriptorConfiguration
                0x0000002a                usbDescriptorStringVendor
                0x0000003a                usbDescriptorStringDevice
                0x0000009c                . = ALIGN (0x2)
                0x0000009c                __trampolines_start = .
 *(.trampolines)
 .trampolines   0x0000009c        0x0 linker stubs
 *(.trampolines*)
                0x0000009c                __trampolines_end = .
 *(.jumptables)
 *(.jumptables*)
 *(.lowtext)
 *(.lowtext*)
                0x0000009c                __ctors_start = .
 *(.ctors)
                0x0000009c                __ctors_end = .
                0x0000009c                __dtors_start = .
 *(.dtors)
                0x0000009c                __dtors_end = .
 SORT(*)(.ctors)
 SORT(*)(.dtors)
 *(.init0)
 .init0         0x0000009c        0x0 d:/avr_development/winavr/bin/../lib/gcc/avr/4.3.2/../../../../avr/lib/avr4/crtm8.o
                0x0000009c                __init
 *(.init0)
 *(.init1)
 *(.init1)
 *(.init2)
 .init2         0x0000009c        0xc d:/avr_development/winavr/bin/../lib/gcc/avr/4.3.2/../../../../avr/lib/avr4/crtm8.o
 *(.init2)
 *(.init3)
 *(.init3)
 *(.init4)
 .init4         0x000000a8       0x16 d:/avr_development/winavr/bin/../lib/gcc/avr/4.3.2/avr4\libgcc.a(_copy_data.o)
                0x000000a8                __do_copy_data
 .init4         0x000000be       0x10 d:/avr_development/winavr/bin/../lib/gcc/avr/4.3.2/avr4\libgcc.a(_clear_bss.o)
                0x000000be                __do_clear_bss
 *(.init4)
 *(.init5)
 *(.init5)
 *(.init6)
 *(.init6)
 *(.init7)
 *(.init7)
 *(.init8)
 *(.init8)
 *(.init9)
 .init9         0x000000ce        0x4 d:/avr_development/winavr/bin/../lib/gcc/avr/4.3.2/../../../../avr/lib/avr4/crtm8.o
 *(.init9)
 *(.text)
 .text          0x000000d2        0x2 d:/avr_development/winavr/bin/../lib/gcc/avr/4.3.2/../../../../avr/lib/avr4/crtm8.o
                0x000000d2                __vector_12
                0x000000d2                __bad_interrupt
                0x000000d2                __vector_3
                0x000000d2                __vector_13
                0x000000d2                __vector_17
                0x000000d2                __vector_7
                0x000000d2                __vector_5
                0x000000d2                __vector_4
                0x000000d2                __vector_9
                0x000000d2                __vector_2
                0x000000d2                __vector_15
                0x000000d2                __vector_8
                0x000000d2                __vector_14
                0x000000d2                __vector_10
                0x000000d2                __vector_16
                0x000000d2                __vector_18
 .text          0x000000d4       0xd4 timer.o
                0x000000d4                inisialisasiSinyal38kHz
                0x0000010c                __vector_6
                0x00000106                matikanTimerTimeout
                0x000000e0                inisialisasiTimerTimeout
 .text          0x000001a8       0x78 usart.o
                0x00000218                kirimDataSerial
                0x000001a8                __vector_11
                0x00000204                inisialisasiUSART
 .text          0x00000220      0x962 inframerah.o
                0x00000578                kirimPaketAkhir
                0x0000054a                kirimKonfirmasiIdle
                0x0000040c                olahKonfirmasiPaketData
                0x000002cc                olahKonfirmasiPaketPerintah
                0x00000706                eksekusiTransmisi
                0x00000786                kirimPaketPerintah
                0x000008e0                terimaTransmisi
                0x000005ea                akhirTransmisi
                0x0000089c                awalTransmisi
                0x00000220                bacaDataSerial
                0x000002a6                ambilDataBaru
                0x0000024e                inisialisasiProtokol
                0x000004ec                kirimKonfirmasiGagal
                0x0000051c                kirimKonfirmasiOk
                0x000004bc                kirimKonfirmasiPaketOK
                0x00000626                kirimPaketData
                0x0000036a                olahKonfirmasiPaketAkhir
 .text          0x00000b82       0x54 crc.o
                0x00000b82                hitungCRC16
 .text          0x00000bd6       0x2c debug.o
                0x00000bd6                tulisEEPROM
 .text          0x00000c02      0x2d0 usbdrv.o
                0x00000c10                usbPoll
                0x00000c02                usbInit
 .text          0x00000ed2      0x2d0 usbdrvasm.o
                0x00000f04                __vector_1
                0x00000ed2                usbCrc16
                0x00000efc                usbCrc16Append
 .text          0x000011a2      0x39e main.o
                0x00001284                usbFunctionSetup
                0x000014c6                main
                0x00001498                enumerateUSB
                0x000014a6                inisialisasi
                0x000011a2                usbFunctionWrite
 .text          0x00001540        0x0 d:/avr_development/winavr/bin/../lib/gcc/avr/4.3.2/avr4\libgcc.a(_exit.o)
 .text          0x00001540        0x0 d:/avr_development/winavr/bin/../lib/gcc/avr/4.3.2/avr4\libgcc.a(_copy_data.o)
 .text          0x00001540        0x0 d:/avr_development/winavr/bin/../lib/gcc/avr/4.3.2/avr4\libgcc.a(_clear_bss.o)
                0x00001540                . = ALIGN (0x2)
 *(.text.*)
 .text.libgcc   0x00001540        0x0 d:/avr_development/winavr/bin/../lib/gcc/avr/4.3.2/avr4\libgcc.a(_exit.o)
 .text.libgcc   0x00001540        0x0 d:/avr_development/winavr/bin/../lib/gcc/avr/4.3.2/avr4\libgcc.a(_copy_data.o)
 .text.libgcc   0x00001540        0x0 d:/avr_development/winavr/bin/../lib/gcc/avr/4.3.2/avr4\libgcc.a(_clear_bss.o)
                0x00001540                . = ALIGN (0x2)
 *(.fini9)
 .fini9         0x00001540        0x0 d:/avr_development/winavr/bin/../lib/gcc/avr/4.3.2/avr4\libgcc.a(_exit.o)
                0x00001540                exit
                0x00001540                _exit
 *(.fini9)
 *(.fini8)
 *(.fini8)
 *(.fini7)
 *(.fini7)
 *(.fini6)
 *(.fini6)
 *(.fini5)
 *(.fini5)
 *(.fini4)
 *(.fini4)
 *(.fini3)
 *(.fini3)
 *(.fini2)
 *(.fini2)
 *(.fini1)
 *(.fini1)
 *(.fini0)
 .fini0         0x00001540        0x4 d:/avr_development/winavr/bin/../lib/gcc/avr/4.3.2/avr4\libgcc.a(_exit.o)
 *(.fini0)
                0x00001544                _etext = .

.data           0x00800060        0x2 load address 0x00001544
                0x00800060                PROVIDE (__data_start, .)
 *(.data)
 .data          0x00800060        0x0 d:/avr_development/winavr/bin/../lib/gcc/avr/4.3.2/../../../../avr/lib/avr4/crtm8.o
 .data          0x00800060        0x0 timer.o
 .data          0x00800060        0x0 usart.o
 .data          0x00800060        0x0 inframerah.o
 .data          0x00800060        0x0 crc.o
 .data          0x00800060        0x0 debug.o
 .data          0x00800060        0x2 usbdrv.o
                0x00800060                usbMsgLen
                0x00800061                usbTxLen
 .data          0x00800062        0x0 usbdrvasm.o
 .data          0x00800062        0x0 main.o
 .data          0x00800062        0x0 d:/avr_development/winavr/bin/../lib/gcc/avr/4.3.2/avr4\libgcc.a(_exit.o)
 .data          0x00800062        0x0 d:/avr_development/winavr/bin/../lib/gcc/avr/4.3.2/avr4\libgcc.a(_copy_data.o)
 .data          0x00800062        0x0 d:/avr_development/winavr/bin/../lib/gcc/avr/4.3.2/avr4\libgcc.a(_clear_bss.o)
 *(.data*)
 *(.rodata)
 *(.rodata*)
 *(.gnu.linkonce.d*)
                0x00800062                . = ALIGN (0x2)
                0x00800062                _edata = .
                0x00800062                PROVIDE (__data_end, .)

.bss            0x00800062      0x365
                0x00800062                PROVIDE (__bss_start, .)
 *(.bss)
 .bss           0x00800062        0x0 d:/avr_development/winavr/bin/../lib/gcc/avr/4.3.2/../../../../avr/lib/avr4/crtm8.o
 .bss           0x00800062        0x0 timer.o
 .bss           0x00800062        0x0 usart.o
 .bss           0x00800062        0x0 inframerah.o
 .bss           0x00800062        0x0 crc.o
 .bss           0x00800062        0x0 debug.o
 .bss           0x00800062        0x1 usbdrv.o
 .bss           0x00800063        0x0 usbdrvasm.o
 .bss           0x00800063        0xb main.o
 .bss           0x0080006e        0x0 d:/avr_development/winavr/bin/../lib/gcc/avr/4.3.2/avr4\libgcc.a(_exit.o)
 .bss           0x0080006e        0x0 d:/avr_development/winavr/bin/../lib/gcc/avr/4.3.2/avr4\libgcc.a(_copy_data.o)
 .bss           0x0080006e        0x0 d:/avr_development/winavr/bin/../lib/gcc/avr/4.3.2/avr4\libgcc.a(_clear_bss.o)
 *(.bss*)
 *(COMMON)
 COMMON         0x0080006e      0x32b timer.o
                0x0080006e                dataPaket
                0x0080016e                IDProsesTransmisi
                0x0080016f                statusPaketAkhir
                0x00800170                IDPaketOK
                0x00800171                deviceSignature
                0x00800174                IDPaket
                0x00800175                tungguKonfirmasi
                0x00800176                IDPerintah
                0x00800177                buffer_rx
                0x00800277                bufferPaketData
                0x00800301                counter_buffer
                0x00800302                idx_buffer_terima
                0x00800303                selesaiTerima
                0x00800304                idx_buffer_paket
                0x00800305                bufferKonfirmasi
                0x00800309                jmlPaket
                0x0080030a                statusPaketData
                0x0080030b                statusKonfirmasi
                0x0080030c                statusSisiPemrogram
                0x0080030d                data
                0x0080030e                IDPaketGagal
                0x0080030f                dataLoad
                0x0080038f                statusPaketPerintah
                0x00800390                idx_tulis_buffer
                0x00800391                statusPaketDiterima
                0x00800392                hasilCRC
                0x00800394                indekKonfirmasi
                0x00800395                idx_baca_buffer
                0x00800396                mulaiTerima
                0x00800397                counterTimeout
                0x00800398                status
 COMMON         0x00800399        0x4 debug.o
                0x00800399                alamat_EEPROM
                0x0080039b                idx_eep
 COMMON         0x0080039d       0x2a usbdrv.o
                0x0080039d                usbTxBuf
                0x008003a8                usbDeviceAddr
                0x008003a9                usbRxToken
                0x008003aa                usbInputBufOffset
                0x008003ab                usbMsgPtr
                0x008003ad                usbRxLen
                0x008003ae                usbNewDeviceAddr
                0x008003af                usbCurrentTok
                0x008003b0                usbConfiguration
                0x008003b1                usbRxBuf
                0x008003c7                PROVIDE (__bss_end, .)
                0x00001544                __data_load_start = LOADADDR (.data)
                0x00001546                __data_load_end = (__data_load_start + SIZEOF (.data))

.noinit         0x008003c7        0x0
                0x008003c7                PROVIDE (__noinit_start, .)
 *(.noinit*)
                0x008003c7                PROVIDE (__noinit_end, .)
                0x008003c7                _end = .
                0x008003c7                PROVIDE (__heap_start, .)

.eeprom         0x00810000        0x0
 *(.eeprom*)
                0x00810000                __eeprom_end = .

.fuse
 *(.fuse)
 *(.lfuse)
 *(.hfuse)
 *(.efuse)

.lock
 *(.lock*)

.signature
 *(.signature*)

.stab
 *(.stab)

.stabstr
 *(.stabstr)

.stab.excl
 *(.stab.excl)

.stab.exclstr
 *(.stab.exclstr)

.stab.index
 *(.stab.index)

.stab.indexstr
 *(.stab.indexstr)

.comment
 *(.comment)

.debug
 *(.debug)

.line
 *(.line)

.debug_srcinfo
 *(.debug_srcinfo)

.debug_sfnames
 *(.debug_sfnames)

.debug_aranges
 *(.debug_aranges)

.debug_pubnames
 *(.debug_pubnames)

.debug_info
 *(.debug_info)
 *(.gnu.linkonce.wi.*)

.debug_abbrev
 *(.debug_abbrev)

.debug_line
 *(.debug_line)

.debug_frame
 *(.debug_frame)

.debug_str
 *(.debug_str)

.debug_loc
 *(.debug_loc)

.debug_macinfo
 *(.debug_macinfo)
OUTPUT(avrirdownloader_pemrogram.elf elf32-avr)
LOAD linker stubs
