
avrirdownloader_pemrogram.elf:     file format elf32-avr

Sections:
Idx Name          Size      VMA       LMA       File off  Algn
  0 .text         00001544  00000000  00000000  00000094  2**1
                  CONTENTS, ALLOC, LOAD, READONLY, CODE
  1 .data         00000002  00800060  00001544  000015d8  2**0
                  CONTENTS, ALLOC, LOAD, DATA
  2 .bss          00000365  00800062  00800062  000015da  2**0
                  ALLOC

Disassembly of section .text:

00000000 <__vectors>:
       0:	4d c0       	rjmp	.+154    	; 0x9c <__ctors_end>
       2:	80 c7       	rjmp	.+3840   	; 0xf04 <__vector_1>
       4:	66 c0       	rjmp	.+204    	; 0xd2 <__bad_interrupt>
       6:	65 c0       	rjmp	.+202    	; 0xd2 <__bad_interrupt>
       8:	64 c0       	rjmp	.+200    	; 0xd2 <__bad_interrupt>
       a:	63 c0       	rjmp	.+198    	; 0xd2 <__bad_interrupt>
       c:	7f c0       	rjmp	.+254    	; 0x10c <__vector_6>
       e:	61 c0       	rjmp	.+194    	; 0xd2 <__bad_interrupt>
      10:	60 c0       	rjmp	.+192    	; 0xd2 <__bad_interrupt>
      12:	5f c0       	rjmp	.+190    	; 0xd2 <__bad_interrupt>
      14:	5e c0       	rjmp	.+188    	; 0xd2 <__bad_interrupt>
      16:	c8 c0       	rjmp	.+400    	; 0x1a8 <__vector_11>
      18:	5c c0       	rjmp	.+184    	; 0xd2 <__bad_interrupt>
      1a:	5b c0       	rjmp	.+182    	; 0xd2 <__bad_interrupt>
      1c:	5a c0       	rjmp	.+180    	; 0xd2 <__bad_interrupt>
      1e:	59 c0       	rjmp	.+178    	; 0xd2 <__bad_interrupt>
      20:	58 c0       	rjmp	.+176    	; 0xd2 <__bad_interrupt>
      22:	57 c0       	rjmp	.+174    	; 0xd2 <__bad_interrupt>
      24:	56 c0       	rjmp	.+172    	; 0xd2 <__bad_interrupt>

00000026 <usbDescriptorString0>:
      26:	04 03 09 04                                         ....

0000002a <usbDescriptorStringVendor>:
      2a:	10 03 55 00 42 00 55 00 34 00 30 00 30 00 31 00     ..U.B.U.4.0.0.1.

0000003a <usbDescriptorStringDevice>:
      3a:	1a 03 49 00 52 00 44 00 6f 00 77 00 6e 00 6c 00     ..I.R.D.o.w.n.l.
      4a:	6f 00 61 00 64 00 65 00 72 00                       o.a.d.e.r.

00000054 <usbDescriptorStringSerialNumber>:
      54:	24 03 49 00 4e 00 41 00 2d 00 54 00 45 00 55 00     $.I.N.A.-.T.E.U.
      64:	42 00 2d 00 38 00 38 00 2d 00 76 00 2e 00 30 00     B.-.8.8.-.v...0.
      74:	2e 00 31 00                                         ..1.

00000078 <usbDescriptorDevice>:
      78:	12 01 10 01 ff 00 00 08 c0 16 dc 05 00 01 01 02     ................
      88:	03 01                                               ..

0000008a <usbDescriptorConfiguration>:
      8a:	09 02 12 00 01 01 00 80 fa 09 04 00 00 00 00 00     ................
	...

0000009c <__ctors_end>:
      9c:	11 24       	eor	r1, r1
      9e:	1f be       	out	0x3f, r1	; 63
      a0:	cf e5       	ldi	r28, 0x5F	; 95
      a2:	d4 e0       	ldi	r29, 0x04	; 4
      a4:	de bf       	out	0x3e, r29	; 62
      a6:	cd bf       	out	0x3d, r28	; 61

000000a8 <__do_copy_data>:
      a8:	10 e0       	ldi	r17, 0x00	; 0
      aa:	a0 e6       	ldi	r26, 0x60	; 96
      ac:	b0 e0       	ldi	r27, 0x00	; 0
      ae:	e4 e4       	ldi	r30, 0x44	; 68
      b0:	f5 e1       	ldi	r31, 0x15	; 21
      b2:	02 c0       	rjmp	.+4      	; 0xb8 <.do_copy_data_start>

000000b4 <.do_copy_data_loop>:
      b4:	05 90       	lpm	r0, Z+
      b6:	0d 92       	st	X+, r0

000000b8 <.do_copy_data_start>:
      b8:	a2 36       	cpi	r26, 0x62	; 98
      ba:	b1 07       	cpc	r27, r17
      bc:	d9 f7       	brne	.-10     	; 0xb4 <.do_copy_data_loop>

000000be <__do_clear_bss>:
      be:	13 e0       	ldi	r17, 0x03	; 3
      c0:	a2 e6       	ldi	r26, 0x62	; 98
      c2:	b0 e0       	ldi	r27, 0x00	; 0
      c4:	01 c0       	rjmp	.+2      	; 0xc8 <.do_clear_bss_start>

000000c6 <.do_clear_bss_loop>:
      c6:	1d 92       	st	X+, r1

000000c8 <.do_clear_bss_start>:
      c8:	a7 3c       	cpi	r26, 0xC7	; 199
      ca:	b1 07       	cpc	r27, r17
      cc:	e1 f7       	brne	.-8      	; 0xc6 <.do_clear_bss_loop>
      ce:	fb d9       	rcall	.-3082   	; 0xfffff4c6 <__eeprom_end+0xff7ef4c6>
      d0:	37 ca       	rjmp	.-2962   	; 0xfffff540 <__eeprom_end+0xff7ef540>

000000d2 <__bad_interrupt>:
      d2:	96 cf       	rjmp	.-212    	; 0x0 <__vectors>

000000d4 <inisialisasiSinyal38kHz>:
      d4:	12 bc       	out	0x22, r1	; 34
      d6:	15 bc       	out	0x25, r1	; 37
      d8:	14 bc       	out	0x24, r1	; 36
      da:	8d e9       	ldi	r24, 0x9D	; 157
      dc:	83 bd       	out	0x23, r24	; 35
      de:	08 95       	ret

000000e0 <inisialisasiTimerTimeout>:
      e0:	1f bc       	out	0x2f, r1	; 47
      e2:	84 e0       	ldi	r24, 0x04	; 4
      e4:	8e bd       	out	0x2e, r24	; 46
      e6:	1d bc       	out	0x2d, r1	; 45
      e8:	1c bc       	out	0x2c, r1	; 44
      ea:	17 bc       	out	0x27, r1	; 39
      ec:	16 bc       	out	0x26, r1	; 38
      ee:	83 e0       	ldi	r24, 0x03	; 3
      f0:	8b bd       	out	0x2b, r24	; 43
      f2:	89 ea       	ldi	r24, 0xA9	; 169
      f4:	8a bd       	out	0x2a, r24	; 42
      f6:	19 bc       	out	0x29, r1	; 41
      f8:	18 bc       	out	0x28, r1	; 40
      fa:	80 e1       	ldi	r24, 0x10	; 16
      fc:	89 bf       	out	0x39, r24	; 57
      fe:	84 e4       	ldi	r24, 0x44	; 68
     100:	80 93 97 03 	sts	0x0397, r24
     104:	08 95       	ret

00000106 <matikanTimerTimeout>:
     106:	1e bc       	out	0x2e, r1	; 46
     108:	19 be       	out	0x39, r1	; 57
     10a:	08 95       	ret

0000010c <__vector_6>:
     10c:	1f 92       	push	r1
     10e:	0f 92       	push	r0
     110:	0f b6       	in	r0, 0x3f	; 63
     112:	0f 92       	push	r0
     114:	11 24       	eor	r1, r1
     116:	2f 93       	push	r18
     118:	3f 93       	push	r19
     11a:	4f 93       	push	r20
     11c:	5f 93       	push	r21
     11e:	6f 93       	push	r22
     120:	7f 93       	push	r23
     122:	8f 93       	push	r24
     124:	9f 93       	push	r25
     126:	af 93       	push	r26
     128:	bf 93       	push	r27
     12a:	ef 93       	push	r30
     12c:	ff 93       	push	r31
     12e:	1c bc       	out	0x2c, r1	; 44
     130:	1d bc       	out	0x2d, r1	; 45
     132:	80 91 97 03 	lds	r24, 0x0397
     136:	88 23       	and	r24, r24
     138:	29 f0       	breq	.+10     	; 0x144 <__vector_6+0x38>
     13a:	80 91 97 03 	lds	r24, 0x0397
     13e:	81 50       	subi	r24, 0x01	; 1
     140:	80 93 97 03 	sts	0x0397, r24
     144:	80 91 97 03 	lds	r24, 0x0397
     148:	88 23       	and	r24, r24
     14a:	99 f4       	brne	.+38     	; 0x172 <__vector_6+0x66>
     14c:	84 e4       	ldi	r24, 0x44	; 68
     14e:	80 93 97 03 	sts	0x0397, r24
     152:	80 91 91 03 	lds	r24, 0x0391
     156:	82 30       	cpi	r24, 0x02	; 2
     158:	e9 f0       	breq	.+58     	; 0x194 <__vector_6+0x88>
     15a:	80 91 91 03 	lds	r24, 0x0391
     15e:	81 30       	cpi	r24, 0x01	; 1
     160:	f9 f0       	breq	.+62     	; 0x1a0 <__vector_6+0x94>
     162:	80 91 91 03 	lds	r24, 0x0391
     166:	83 30       	cpi	r24, 0x03	; 3
     168:	e9 f0       	breq	.+58     	; 0x1a4 <__vector_6+0x98>
     16a:	80 91 91 03 	lds	r24, 0x0391
     16e:	84 30       	cpi	r24, 0x04	; 4
     170:	a9 f0       	breq	.+42     	; 0x19c <__vector_6+0x90>
     172:	ff 91       	pop	r31
     174:	ef 91       	pop	r30
     176:	bf 91       	pop	r27
     178:	af 91       	pop	r26
     17a:	9f 91       	pop	r25
     17c:	8f 91       	pop	r24
     17e:	7f 91       	pop	r23
     180:	6f 91       	pop	r22
     182:	5f 91       	pop	r21
     184:	4f 91       	pop	r20
     186:	3f 91       	pop	r19
     188:	2f 91       	pop	r18
     18a:	0f 90       	pop	r0
     18c:	0f be       	out	0x3f, r0	; 63
     18e:	0f 90       	pop	r0
     190:	1f 90       	pop	r1
     192:	18 95       	reti
     194:	10 92 02 03 	sts	0x0302, r1
     198:	a9 d1       	rcall	.+850    	; 0x4ec <kirimKonfirmasiGagal>
     19a:	eb cf       	rjmp	.-42     	; 0x172 <__vector_6+0x66>
     19c:	d6 d1       	rcall	.+940    	; 0x54a <kirimKonfirmasiIdle>
     19e:	e9 cf       	rjmp	.-46     	; 0x172 <__vector_6+0x66>
     1a0:	bd d1       	rcall	.+890    	; 0x51c <kirimKonfirmasiOk>
     1a2:	e7 cf       	rjmp	.-50     	; 0x172 <__vector_6+0x66>
     1a4:	8b d1       	rcall	.+790    	; 0x4bc <kirimKonfirmasiPaketOK>
     1a6:	e5 cf       	rjmp	.-54     	; 0x172 <__vector_6+0x66>

000001a8 <__vector_11>:
     1a8:	1f 92       	push	r1
     1aa:	0f 92       	push	r0
     1ac:	0f b6       	in	r0, 0x3f	; 63
     1ae:	0f 92       	push	r0
     1b0:	11 24       	eor	r1, r1
     1b2:	8f 93       	push	r24
     1b4:	ef 93       	push	r30
     1b6:	ff 93       	push	r31
     1b8:	8b b1       	in	r24, 0x0b	; 11
     1ba:	80 93 98 03 	sts	0x0398, r24
     1be:	8c b1       	in	r24, 0x0c	; 12
     1c0:	80 93 0d 03 	sts	0x030D, r24
     1c4:	a8 98       	cbi	0x15, 0	; 21
     1c6:	80 91 98 03 	lds	r24, 0x0398
     1ca:	88 71       	andi	r24, 0x18	; 24
     1cc:	91 f4       	brne	.+36     	; 0x1f2 <__vector_11+0x4a>
     1ce:	e0 91 90 03 	lds	r30, 0x0390
     1d2:	f0 e0       	ldi	r31, 0x00	; 0
     1d4:	80 91 0d 03 	lds	r24, 0x030D
     1d8:	e9 58       	subi	r30, 0x89	; 137
     1da:	fe 4f       	sbci	r31, 0xFE	; 254
     1dc:	80 83       	st	Z, r24
     1de:	80 91 90 03 	lds	r24, 0x0390
     1e2:	8f 5f       	subi	r24, 0xFF	; 255
     1e4:	80 93 90 03 	sts	0x0390, r24
     1e8:	80 91 01 03 	lds	r24, 0x0301
     1ec:	8f 5f       	subi	r24, 0xFF	; 255
     1ee:	80 93 01 03 	sts	0x0301, r24
     1f2:	a8 9a       	sbi	0x15, 0	; 21
     1f4:	ff 91       	pop	r31
     1f6:	ef 91       	pop	r30
     1f8:	8f 91       	pop	r24
     1fa:	0f 90       	pop	r0
     1fc:	0f be       	out	0x3f, r0	; 63
     1fe:	0f 90       	pop	r0
     200:	1f 90       	pop	r1
     202:	18 95       	reti

00000204 <inisialisasiUSART>:
     204:	1b b8       	out	0x0b, r1	; 11
     206:	88 e9       	ldi	r24, 0x98	; 152
     208:	8a b9       	out	0x0a, r24	; 10
     20a:	8e e8       	ldi	r24, 0x8E	; 142
     20c:	80 bd       	out	0x20, r24	; 32
     20e:	87 e3       	ldi	r24, 0x37	; 55
     210:	89 b9       	out	0x09, r24	; 9
     212:	81 e0       	ldi	r24, 0x01	; 1
     214:	80 bd       	out	0x20, r24	; 32
     216:	08 95       	ret

00000218 <kirimDataSerial>:
     218:	5d 9b       	sbis	0x0b, 5	; 11
     21a:	fe cf       	rjmp	.-4      	; 0x218 <kirimDataSerial>
     21c:	8c b9       	out	0x0c, r24	; 12
     21e:	08 95       	ret

00000220 <bacaDataSerial>:
     220:	80 91 01 03 	lds	r24, 0x0301
     224:	88 23       	and	r24, r24
     226:	e1 f3       	breq	.-8      	; 0x220 <bacaDataSerial>
     228:	e0 91 95 03 	lds	r30, 0x0395
     22c:	f0 e0       	ldi	r31, 0x00	; 0
     22e:	e9 58       	subi	r30, 0x89	; 137
     230:	fe 4f       	sbci	r31, 0xFE	; 254
     232:	80 81       	ld	r24, Z
     234:	90 91 95 03 	lds	r25, 0x0395
     238:	9f 5f       	subi	r25, 0xFF	; 255
     23a:	90 93 95 03 	sts	0x0395, r25
     23e:	f8 94       	cli
     240:	90 91 01 03 	lds	r25, 0x0301
     244:	91 50       	subi	r25, 0x01	; 1
     246:	90 93 01 03 	sts	0x0301, r25
     24a:	78 94       	sei
     24c:	08 95       	ret

0000024e <inisialisasiProtokol>:
     24e:	ee e6       	ldi	r30, 0x6E	; 110
     250:	f0 e0       	ldi	r31, 0x00	; 0
     252:	8f ef       	ldi	r24, 0xFF	; 255
     254:	81 93       	st	Z+, r24
     256:	91 e0       	ldi	r25, 0x01	; 1
     258:	ee 36       	cpi	r30, 0x6E	; 110
     25a:	f9 07       	cpc	r31, r25
     25c:	d9 f7       	brne	.-10     	; 0x254 <inisialisasiProtokol+0x6>
     25e:	10 92 90 03 	sts	0x0390, r1
     262:	10 92 95 03 	sts	0x0395, r1
     266:	10 92 01 03 	sts	0x0301, r1
     26a:	10 92 74 01 	sts	0x0174, r1
     26e:	10 92 6e 01 	sts	0x016E, r1
     272:	81 e0       	ldi	r24, 0x01	; 1
     274:	80 93 0e 03 	sts	0x030E, r24
     278:	10 92 94 03 	sts	0x0394, r1
     27c:	10 92 0b 03 	sts	0x030B, r1
     280:	10 92 75 01 	sts	0x0175, r1
     284:	80 93 8f 03 	sts	0x038F, r24
     288:	10 92 0a 03 	sts	0x030A, r1
     28c:	10 92 6f 01 	sts	0x016F, r1
     290:	10 92 96 03 	sts	0x0396, r1
     294:	10 92 03 03 	sts	0x0303, r1
     298:	84 e0       	ldi	r24, 0x04	; 4
     29a:	80 93 91 03 	sts	0x0391, r24
     29e:	80 e1       	ldi	r24, 0x10	; 16
     2a0:	80 93 0c 03 	sts	0x030C, r24
     2a4:	08 95       	ret

000002a6 <ambilDataBaru>:
     2a6:	81 50       	subi	r24, 0x01	; 1
     2a8:	a8 2f       	mov	r26, r24
     2aa:	b0 e0       	ldi	r27, 0x00	; 0
     2ac:	b6 95       	lsr	r27
     2ae:	ba 2f       	mov	r27, r26
     2b0:	aa 27       	eor	r26, r26
     2b2:	b7 95       	ror	r27
     2b4:	a7 95       	ror	r26
     2b6:	a2 59       	subi	r26, 0x92	; 146
     2b8:	bf 4f       	sbci	r27, 0xFF	; 255
     2ba:	ef e0       	ldi	r30, 0x0F	; 15
     2bc:	f3 e0       	ldi	r31, 0x03	; 3
     2be:	8d 91       	ld	r24, X+
     2c0:	81 93       	st	Z+, r24
     2c2:	83 e0       	ldi	r24, 0x03	; 3
     2c4:	ef 38       	cpi	r30, 0x8F	; 143
     2c6:	f8 07       	cpc	r31, r24
     2c8:	d1 f7       	brne	.-12     	; 0x2be <ambilDataBaru+0x18>
     2ca:	08 95       	ret

000002cc <olahKonfirmasiPaketPerintah>:
     2cc:	aa 98       	cbi	0x15, 2	; 21
     2ce:	70 91 6f 01 	lds	r23, 0x016F
     2d2:	60 91 0a 03 	lds	r22, 0x030A
     2d6:	50 91 8f 03 	lds	r21, 0x038F
     2da:	40 91 0b 03 	lds	r20, 0x030B
     2de:	90 91 94 03 	lds	r25, 0x0394
     2e2:	30 91 75 01 	lds	r19, 0x0175
     2e6:	33 23       	and	r19, r19
     2e8:	39 f1       	breq	.+78     	; 0x338 <olahKonfirmasiPaketPerintah+0x6c>
     2ea:	80 91 01 03 	lds	r24, 0x0301
     2ee:	88 23       	and	r24, r24
     2f0:	e1 f3       	breq	.-8      	; 0x2ea <olahKonfirmasiPaketPerintah+0x1e>
     2f2:	e0 91 95 03 	lds	r30, 0x0395
     2f6:	f0 e0       	ldi	r31, 0x00	; 0
     2f8:	e9 58       	subi	r30, 0x89	; 137
     2fa:	fe 4f       	sbci	r31, 0xFE	; 254
     2fc:	20 81       	ld	r18, Z
     2fe:	80 91 95 03 	lds	r24, 0x0395
     302:	8f 5f       	subi	r24, 0xFF	; 255
     304:	80 93 95 03 	sts	0x0395, r24
     308:	f8 94       	cli
     30a:	80 91 01 03 	lds	r24, 0x0301
     30e:	81 50       	subi	r24, 0x01	; 1
     310:	80 93 01 03 	sts	0x0301, r24
     314:	78 94       	sei
     316:	e9 2f       	mov	r30, r25
     318:	f0 e0       	ldi	r31, 0x00	; 0
     31a:	eb 5f       	subi	r30, 0xFB	; 251
     31c:	fc 4f       	sbci	r31, 0xFC	; 252
     31e:	20 83       	st	Z, r18
     320:	9f 5f       	subi	r25, 0xFF	; 255
     322:	91 30       	cpi	r25, 0x01	; 1
     324:	f1 f0       	breq	.+60     	; 0x362 <olahKonfirmasiPaketPerintah+0x96>
     326:	93 30       	cpi	r25, 0x03	; 3
     328:	e1 f0       	breq	.+56     	; 0x362 <olahKonfirmasiPaketPerintah+0x96>
     32a:	94 30       	cpi	r25, 0x04	; 4
     32c:	e1 f6       	brne	.-72     	; 0x2e6 <olahKonfirmasiPaketPerintah+0x1a>
     32e:	80 91 06 03 	lds	r24, 0x0306
     332:	8a 3a       	cpi	r24, 0xAA	; 170
     334:	79 f0       	breq	.+30     	; 0x354 <olahKonfirmasiPaketPerintah+0x88>
     336:	90 e0       	ldi	r25, 0x00	; 0
     338:	70 93 6f 01 	sts	0x016F, r23
     33c:	60 93 0a 03 	sts	0x030A, r22
     340:	50 93 8f 03 	sts	0x038F, r21
     344:	40 93 0b 03 	sts	0x030B, r20
     348:	90 93 94 03 	sts	0x0394, r25
     34c:	10 92 75 01 	sts	0x0175, r1
     350:	aa 9a       	sbi	0x15, 2	; 21
     352:	08 95       	ret
     354:	2a 3a       	cpi	r18, 0xAA	; 170
     356:	79 f7       	brne	.-34     	; 0x336 <olahKonfirmasiPaketPerintah+0x6a>
     358:	70 e0       	ldi	r23, 0x00	; 0
     35a:	61 e0       	ldi	r22, 0x01	; 1
     35c:	50 e0       	ldi	r21, 0x00	; 0
     35e:	41 e0       	ldi	r20, 0x01	; 1
     360:	ea cf       	rjmp	.-44     	; 0x336 <olahKonfirmasiPaketPerintah+0x6a>
     362:	2c 37       	cpi	r18, 0x7C	; 124
     364:	11 f3       	breq	.-60     	; 0x32a <olahKonfirmasiPaketPerintah+0x5e>
     366:	90 e0       	ldi	r25, 0x00	; 0
     368:	be cf       	rjmp	.-132    	; 0x2e6 <olahKonfirmasiPaketPerintah+0x1a>

0000036a <olahKonfirmasiPaketAkhir>:
     36a:	aa 98       	cbi	0x15, 2	; 21
     36c:	70 91 6f 01 	lds	r23, 0x016F
     370:	60 91 0a 03 	lds	r22, 0x030A
     374:	50 91 8f 03 	lds	r21, 0x038F
     378:	40 91 0b 03 	lds	r20, 0x030B
     37c:	90 91 94 03 	lds	r25, 0x0394
     380:	30 91 75 01 	lds	r19, 0x0175
     384:	33 23       	and	r19, r19
     386:	39 f1       	breq	.+78     	; 0x3d6 <olahKonfirmasiPaketAkhir+0x6c>
     388:	80 91 01 03 	lds	r24, 0x0301
     38c:	88 23       	and	r24, r24
     38e:	e1 f3       	breq	.-8      	; 0x388 <olahKonfirmasiPaketAkhir+0x1e>
     390:	e0 91 95 03 	lds	r30, 0x0395
     394:	f0 e0       	ldi	r31, 0x00	; 0
     396:	e9 58       	subi	r30, 0x89	; 137
     398:	fe 4f       	sbci	r31, 0xFE	; 254
     39a:	20 81       	ld	r18, Z
     39c:	80 91 95 03 	lds	r24, 0x0395
     3a0:	8f 5f       	subi	r24, 0xFF	; 255
     3a2:	80 93 95 03 	sts	0x0395, r24
     3a6:	f8 94       	cli
     3a8:	80 91 01 03 	lds	r24, 0x0301
     3ac:	81 50       	subi	r24, 0x01	; 1
     3ae:	80 93 01 03 	sts	0x0301, r24
     3b2:	78 94       	sei
     3b4:	e9 2f       	mov	r30, r25
     3b6:	f0 e0       	ldi	r31, 0x00	; 0
     3b8:	eb 5f       	subi	r30, 0xFB	; 251
     3ba:	fc 4f       	sbci	r31, 0xFC	; 252
     3bc:	20 83       	st	Z, r18
     3be:	9f 5f       	subi	r25, 0xFF	; 255
     3c0:	91 30       	cpi	r25, 0x01	; 1
     3c2:	01 f1       	breq	.+64     	; 0x404 <olahKonfirmasiPaketAkhir+0x9a>
     3c4:	93 30       	cpi	r25, 0x03	; 3
     3c6:	f1 f0       	breq	.+60     	; 0x404 <olahKonfirmasiPaketAkhir+0x9a>
     3c8:	94 30       	cpi	r25, 0x04	; 4
     3ca:	e1 f6       	brne	.-72     	; 0x384 <olahKonfirmasiPaketAkhir+0x1a>
     3cc:	80 91 06 03 	lds	r24, 0x0306
     3d0:	8a 30       	cpi	r24, 0x0A	; 10
     3d2:	79 f0       	breq	.+30     	; 0x3f2 <olahKonfirmasiPaketAkhir+0x88>
     3d4:	90 e0       	ldi	r25, 0x00	; 0
     3d6:	70 93 6f 01 	sts	0x016F, r23
     3da:	60 93 0a 03 	sts	0x030A, r22
     3de:	50 93 8f 03 	sts	0x038F, r21
     3e2:	40 93 0b 03 	sts	0x030B, r20
     3e6:	90 93 94 03 	sts	0x0394, r25
     3ea:	10 92 75 01 	sts	0x0175, r1
     3ee:	aa 9a       	sbi	0x15, 2	; 21
     3f0:	08 95       	ret
     3f2:	80 91 08 03 	lds	r24, 0x0308
     3f6:	8d 30       	cpi	r24, 0x0D	; 13
     3f8:	69 f7       	brne	.-38     	; 0x3d4 <olahKonfirmasiPaketAkhir+0x6a>
     3fa:	70 e0       	ldi	r23, 0x00	; 0
     3fc:	61 e0       	ldi	r22, 0x01	; 1
     3fe:	50 e0       	ldi	r21, 0x00	; 0
     400:	41 e0       	ldi	r20, 0x01	; 1
     402:	e8 cf       	rjmp	.-48     	; 0x3d4 <olahKonfirmasiPaketAkhir+0x6a>
     404:	2c 37       	cpi	r18, 0x7C	; 124
     406:	01 f3       	breq	.-64     	; 0x3c8 <olahKonfirmasiPaketAkhir+0x5e>
     408:	90 e0       	ldi	r25, 0x00	; 0
     40a:	bc cf       	rjmp	.-136    	; 0x384 <olahKonfirmasiPaketAkhir+0x1a>

0000040c <olahKonfirmasiPaketData>:
     40c:	ab 98       	cbi	0x15, 3	; 21
     40e:	a9 9a       	sbi	0x15, 1	; 21
     410:	60 91 74 01 	lds	r22, 0x0174
     414:	30 91 0e 03 	lds	r19, 0x030E
     418:	50 91 0b 03 	lds	r21, 0x030B
     41c:	90 91 94 03 	lds	r25, 0x0394
     420:	40 91 75 01 	lds	r20, 0x0175
     424:	44 23       	and	r20, r20
     426:	31 f1       	breq	.+76     	; 0x474 <__stack+0x15>
     428:	80 91 01 03 	lds	r24, 0x0301
     42c:	88 23       	and	r24, r24
     42e:	e1 f3       	breq	.-8      	; 0x428 <olahKonfirmasiPaketData+0x1c>
     430:	e0 91 95 03 	lds	r30, 0x0395
     434:	f0 e0       	ldi	r31, 0x00	; 0
     436:	e9 58       	subi	r30, 0x89	; 137
     438:	fe 4f       	sbci	r31, 0xFE	; 254
     43a:	20 81       	ld	r18, Z
     43c:	80 91 95 03 	lds	r24, 0x0395
     440:	8f 5f       	subi	r24, 0xFF	; 255
     442:	80 93 95 03 	sts	0x0395, r24
     446:	f8 94       	cli
     448:	80 91 01 03 	lds	r24, 0x0301
     44c:	81 50       	subi	r24, 0x01	; 1
     44e:	80 93 01 03 	sts	0x0301, r24
     452:	78 94       	sei
     454:	e9 2f       	mov	r30, r25
     456:	f0 e0       	ldi	r31, 0x00	; 0
     458:	eb 5f       	subi	r30, 0xFB	; 251
     45a:	fc 4f       	sbci	r31, 0xFC	; 252
     45c:	20 83       	st	Z, r18
     45e:	9f 5f       	subi	r25, 0xFF	; 255
     460:	91 30       	cpi	r25, 0x01	; 1
     462:	91 f0       	breq	.+36     	; 0x488 <__stack+0x29>
     464:	93 30       	cpi	r25, 0x03	; 3
     466:	81 f0       	breq	.+32     	; 0x488 <__stack+0x29>
     468:	94 30       	cpi	r25, 0x04	; 4
     46a:	a1 f0       	breq	.+40     	; 0x494 <__stack+0x35>
     46c:	23 2f       	mov	r18, r19
     46e:	32 2f       	mov	r19, r18
     470:	44 23       	and	r20, r20
     472:	d1 f6       	brne	.-76     	; 0x428 <olahKonfirmasiPaketData+0x1c>
     474:	30 93 0e 03 	sts	0x030E, r19
     478:	50 93 0b 03 	sts	0x030B, r21
     47c:	90 93 94 03 	sts	0x0394, r25
     480:	10 92 75 01 	sts	0x0175, r1
     484:	ab 9a       	sbi	0x15, 3	; 21
     486:	08 95       	ret
     488:	2c 37       	cpi	r18, 0x7C	; 124
     48a:	71 f3       	breq	.-36     	; 0x468 <__stack+0x9>
     48c:	23 2f       	mov	r18, r19
     48e:	90 e0       	ldi	r25, 0x00	; 0
     490:	32 2f       	mov	r19, r18
     492:	ee cf       	rjmp	.-36     	; 0x470 <__stack+0x11>
     494:	80 91 06 03 	lds	r24, 0x0306
     498:	8a 3a       	cpi	r24, 0xAA	; 170
     49a:	49 f0       	breq	.+18     	; 0x4ae <__stack+0x4f>
     49c:	85 35       	cpi	r24, 0x55	; 85
     49e:	11 f0       	breq	.+4      	; 0x4a4 <__stack+0x45>
     4a0:	a9 98       	cbi	0x15, 1	; 21
     4a2:	23 2f       	mov	r18, r19
     4a4:	50 e0       	ldi	r21, 0x00	; 0
     4a6:	90 e0       	ldi	r25, 0x00	; 0
     4a8:	40 e0       	ldi	r20, 0x00	; 0
     4aa:	32 2f       	mov	r19, r18
     4ac:	e1 cf       	rjmp	.-62     	; 0x470 <__stack+0x11>
     4ae:	80 91 08 03 	lds	r24, 0x0308
     4b2:	86 17       	cp	r24, r22
     4b4:	a9 f7       	brne	.-22     	; 0x4a0 <__stack+0x41>
     4b6:	23 2f       	mov	r18, r19
     4b8:	51 e0       	ldi	r21, 0x01	; 1
     4ba:	f5 cf       	rjmp	.-22     	; 0x4a6 <__stack+0x47>

000004bc <kirimKonfirmasiPaketOK>:
     4bc:	ab 98       	cbi	0x15, 3	; 21
     4be:	f8 94       	cli
     4c0:	80 e0       	ldi	r24, 0x00	; 0
     4c2:	aa de       	rcall	.-684    	; 0x218 <kirimDataSerial>
     4c4:	80 e0       	ldi	r24, 0x00	; 0
     4c6:	a8 de       	rcall	.-688    	; 0x218 <kirimDataSerial>
     4c8:	80 e0       	ldi	r24, 0x00	; 0
     4ca:	a6 de       	rcall	.-692    	; 0x218 <kirimDataSerial>
     4cc:	80 e0       	ldi	r24, 0x00	; 0
     4ce:	a4 de       	rcall	.-696    	; 0x218 <kirimDataSerial>
     4d0:	80 e0       	ldi	r24, 0x00	; 0
     4d2:	a2 de       	rcall	.-700    	; 0x218 <kirimDataSerial>
     4d4:	8c e7       	ldi	r24, 0x7C	; 124
     4d6:	a0 de       	rcall	.-704    	; 0x218 <kirimDataSerial>
     4d8:	8a ea       	ldi	r24, 0xAA	; 170
     4da:	9e de       	rcall	.-708    	; 0x218 <kirimDataSerial>
     4dc:	8c e7       	ldi	r24, 0x7C	; 124
     4de:	9c de       	rcall	.-712    	; 0x218 <kirimDataSerial>
     4e0:	80 91 70 01 	lds	r24, 0x0170
     4e4:	99 de       	rcall	.-718    	; 0x218 <kirimDataSerial>
     4e6:	78 94       	sei
     4e8:	ab 9a       	sbi	0x15, 3	; 21
     4ea:	08 95       	ret

000004ec <kirimKonfirmasiGagal>:
     4ec:	aa 98       	cbi	0x15, 2	; 21
     4ee:	f8 94       	cli
     4f0:	80 e0       	ldi	r24, 0x00	; 0
     4f2:	92 de       	rcall	.-732    	; 0x218 <kirimDataSerial>
     4f4:	80 e0       	ldi	r24, 0x00	; 0
     4f6:	90 de       	rcall	.-736    	; 0x218 <kirimDataSerial>
     4f8:	80 e0       	ldi	r24, 0x00	; 0
     4fa:	8e de       	rcall	.-740    	; 0x218 <kirimDataSerial>
     4fc:	80 e0       	ldi	r24, 0x00	; 0
     4fe:	8c de       	rcall	.-744    	; 0x218 <kirimDataSerial>
     500:	80 e0       	ldi	r24, 0x00	; 0
     502:	8a de       	rcall	.-748    	; 0x218 <kirimDataSerial>
     504:	8c e7       	ldi	r24, 0x7C	; 124
     506:	88 de       	rcall	.-752    	; 0x218 <kirimDataSerial>
     508:	85 e5       	ldi	r24, 0x55	; 85
     50a:	86 de       	rcall	.-756    	; 0x218 <kirimDataSerial>
     50c:	8c e7       	ldi	r24, 0x7C	; 124
     50e:	84 de       	rcall	.-760    	; 0x218 <kirimDataSerial>
     510:	80 91 74 01 	lds	r24, 0x0174
     514:	81 de       	rcall	.-766    	; 0x218 <kirimDataSerial>
     516:	78 94       	sei
     518:	aa 9a       	sbi	0x15, 2	; 21
     51a:	08 95       	ret

0000051c <kirimKonfirmasiOk>:
     51c:	ab 98       	cbi	0x15, 3	; 21
     51e:	f8 94       	cli
     520:	80 e0       	ldi	r24, 0x00	; 0
     522:	7a de       	rcall	.-780    	; 0x218 <kirimDataSerial>
     524:	80 e0       	ldi	r24, 0x00	; 0
     526:	78 de       	rcall	.-784    	; 0x218 <kirimDataSerial>
     528:	80 e0       	ldi	r24, 0x00	; 0
     52a:	76 de       	rcall	.-788    	; 0x218 <kirimDataSerial>
     52c:	80 e0       	ldi	r24, 0x00	; 0
     52e:	74 de       	rcall	.-792    	; 0x218 <kirimDataSerial>
     530:	80 e0       	ldi	r24, 0x00	; 0
     532:	72 de       	rcall	.-796    	; 0x218 <kirimDataSerial>
     534:	8c e7       	ldi	r24, 0x7C	; 124
     536:	70 de       	rcall	.-800    	; 0x218 <kirimDataSerial>
     538:	8a ea       	ldi	r24, 0xAA	; 170
     53a:	6e de       	rcall	.-804    	; 0x218 <kirimDataSerial>
     53c:	8c e7       	ldi	r24, 0x7C	; 124
     53e:	6c de       	rcall	.-808    	; 0x218 <kirimDataSerial>
     540:	8a ea       	ldi	r24, 0xAA	; 170
     542:	6a de       	rcall	.-812    	; 0x218 <kirimDataSerial>
     544:	78 94       	sei
     546:	ab 9a       	sbi	0x15, 3	; 21
     548:	08 95       	ret

0000054a <kirimKonfirmasiIdle>:
     54a:	aa 98       	cbi	0x15, 2	; 21
     54c:	f8 94       	cli
     54e:	80 e0       	ldi	r24, 0x00	; 0
     550:	63 de       	rcall	.-826    	; 0x218 <kirimDataSerial>
     552:	80 e0       	ldi	r24, 0x00	; 0
     554:	61 de       	rcall	.-830    	; 0x218 <kirimDataSerial>
     556:	80 e0       	ldi	r24, 0x00	; 0
     558:	5f de       	rcall	.-834    	; 0x218 <kirimDataSerial>
     55a:	80 e0       	ldi	r24, 0x00	; 0
     55c:	5d de       	rcall	.-838    	; 0x218 <kirimDataSerial>
     55e:	80 e0       	ldi	r24, 0x00	; 0
     560:	5b de       	rcall	.-842    	; 0x218 <kirimDataSerial>
     562:	8c e7       	ldi	r24, 0x7C	; 124
     564:	59 de       	rcall	.-846    	; 0x218 <kirimDataSerial>
     566:	8a e0       	ldi	r24, 0x0A	; 10
     568:	57 de       	rcall	.-850    	; 0x218 <kirimDataSerial>
     56a:	8c e7       	ldi	r24, 0x7C	; 124
     56c:	55 de       	rcall	.-854    	; 0x218 <kirimDataSerial>
     56e:	8d e0       	ldi	r24, 0x0D	; 13
     570:	53 de       	rcall	.-858    	; 0x218 <kirimDataSerial>
     572:	78 94       	sei
     574:	aa 9a       	sbi	0x15, 2	; 21
     576:	08 95       	ret

00000578 <kirimPaketAkhir>:
     578:	cf 93       	push	r28
     57a:	df 93       	push	r29
     57c:	f8 94       	cli
     57e:	8c e3       	ldi	r24, 0x3C	; 60
     580:	80 93 77 02 	sts	0x0277, r24
     584:	85 e4       	ldi	r24, 0x45	; 69
     586:	80 93 78 02 	sts	0x0278, r24
     58a:	8e e3       	ldi	r24, 0x3E	; 62
     58c:	80 93 79 02 	sts	0x0279, r24
     590:	8a e0       	ldi	r24, 0x0A	; 10
     592:	80 93 7a 02 	sts	0x027A, r24
     596:	9c e7       	ldi	r25, 0x7C	; 124
     598:	90 93 7b 02 	sts	0x027B, r25
     59c:	8d e0       	ldi	r24, 0x0D	; 13
     59e:	80 93 7c 02 	sts	0x027C, r24
     5a2:	90 93 7d 02 	sts	0x027D, r25
     5a6:	87 e7       	ldi	r24, 0x77	; 119
     5a8:	92 e0       	ldi	r25, 0x02	; 2
     5aa:	67 e0       	ldi	r22, 0x07	; 7
     5ac:	ea d2       	rcall	.+1492   	; 0xb82 <hitungCRC16>
     5ae:	80 93 92 03 	sts	0x0392, r24
     5b2:	90 93 93 03 	sts	0x0393, r25
     5b6:	80 93 7e 02 	sts	0x027E, r24
     5ba:	90 93 7f 02 	sts	0x027F, r25
     5be:	80 e0       	ldi	r24, 0x00	; 0
     5c0:	2b de       	rcall	.-938    	; 0x218 <kirimDataSerial>
     5c2:	80 e0       	ldi	r24, 0x00	; 0
     5c4:	29 de       	rcall	.-942    	; 0x218 <kirimDataSerial>
     5c6:	80 e0       	ldi	r24, 0x00	; 0
     5c8:	27 de       	rcall	.-946    	; 0x218 <kirimDataSerial>
     5ca:	80 e0       	ldi	r24, 0x00	; 0
     5cc:	25 de       	rcall	.-950    	; 0x218 <kirimDataSerial>
     5ce:	80 e0       	ldi	r24, 0x00	; 0
     5d0:	23 de       	rcall	.-954    	; 0x218 <kirimDataSerial>
     5d2:	c7 e7       	ldi	r28, 0x77	; 119
     5d4:	d2 e0       	ldi	r29, 0x02	; 2
     5d6:	89 91       	ld	r24, Y+
     5d8:	1f de       	rcall	.-962    	; 0x218 <kirimDataSerial>
     5da:	82 e0       	ldi	r24, 0x02	; 2
     5dc:	c0 38       	cpi	r28, 0x80	; 128
     5de:	d8 07       	cpc	r29, r24
     5e0:	d1 f7       	brne	.-12     	; 0x5d6 <kirimPaketAkhir+0x5e>
     5e2:	78 94       	sei
     5e4:	df 91       	pop	r29
     5e6:	cf 91       	pop	r28
     5e8:	08 95       	ret

000005ea <akhirTransmisi>:
     5ea:	1f 93       	push	r17
     5ec:	0b de       	rcall	.-1002   	; 0x204 <inisialisasiUSART>
     5ee:	57 98       	cbi	0x0a, 7	; 10
     5f0:	54 98       	cbi	0x0a, 4	; 10
     5f2:	10 92 90 03 	sts	0x0390, r1
     5f6:	10 92 95 03 	sts	0x0395, r1
     5fa:	10 92 01 03 	sts	0x0301, r1
     5fe:	80 91 6f 01 	lds	r24, 0x016F
     602:	88 23       	and	r24, r24
     604:	69 f0       	breq	.+26     	; 0x620 <akhirTransmisi+0x36>
     606:	11 e0       	ldi	r17, 0x01	; 1
     608:	b7 df       	rcall	.-146    	; 0x578 <kirimPaketAkhir>
     60a:	10 93 75 01 	sts	0x0175, r17
     60e:	54 9a       	sbi	0x0a, 4	; 10
     610:	57 9a       	sbi	0x0a, 7	; 10
     612:	ab de       	rcall	.-682    	; 0x36a <olahKonfirmasiPaketAkhir>
     614:	57 98       	cbi	0x0a, 7	; 10
     616:	54 98       	cbi	0x0a, 4	; 10
     618:	80 91 6f 01 	lds	r24, 0x016F
     61c:	88 23       	and	r24, r24
     61e:	a1 f7       	brne	.-24     	; 0x608 <akhirTransmisi+0x1e>
     620:	15 ba       	out	0x15, r1	; 21
     622:	1f 91       	pop	r17
     624:	08 95       	ret

00000626 <kirimPaketData>:
     626:	cf 93       	push	r28
     628:	df 93       	push	r29
     62a:	80 91 0b 03 	lds	r24, 0x030B
     62e:	88 23       	and	r24, r24
     630:	09 f0       	breq	.+2      	; 0x634 <kirimPaketData+0xe>
     632:	63 c0       	rjmp	.+198    	; 0x6fa <kirimPaketData+0xd4>
     634:	80 91 0e 03 	lds	r24, 0x030E
     638:	80 93 74 01 	sts	0x0174, r24
     63c:	38 2f       	mov	r19, r24
     63e:	23 2f       	mov	r18, r19
     640:	21 50       	subi	r18, 0x01	; 1
     642:	80 91 6e 01 	lds	r24, 0x016E
     646:	90 e0       	ldi	r25, 0x00	; 0
     648:	88 0f       	add	r24, r24
     64a:	99 1f       	adc	r25, r25
     64c:	28 1b       	sub	r18, r24
     64e:	a2 2f       	mov	r26, r18
     650:	b0 e0       	ldi	r27, 0x00	; 0
     652:	b6 95       	lsr	r27
     654:	ba 2f       	mov	r27, r26
     656:	aa 27       	eor	r26, r26
     658:	b7 95       	ror	r27
     65a:	a7 95       	ror	r26
     65c:	a2 59       	subi	r26, 0x92	; 146
     65e:	bf 4f       	sbci	r27, 0xFF	; 255
     660:	ef e0       	ldi	r30, 0x0F	; 15
     662:	f3 e0       	ldi	r31, 0x03	; 3
     664:	8d 91       	ld	r24, X+
     666:	81 93       	st	Z+, r24
     668:	83 e0       	ldi	r24, 0x03	; 3
     66a:	ef 38       	cpi	r30, 0x8F	; 143
     66c:	f8 07       	cpc	r31, r24
     66e:	d1 f7       	brne	.-12     	; 0x664 <kirimPaketData+0x3e>
     670:	8c e3       	ldi	r24, 0x3C	; 60
     672:	80 93 77 02 	sts	0x0277, r24
     676:	85 e4       	ldi	r24, 0x45	; 69
     678:	80 93 78 02 	sts	0x0278, r24
     67c:	8e e3       	ldi	r24, 0x3E	; 62
     67e:	80 93 79 02 	sts	0x0279, r24
     682:	80 91 76 01 	lds	r24, 0x0176
     686:	80 93 7a 02 	sts	0x027A, r24
     68a:	8c e7       	ldi	r24, 0x7C	; 124
     68c:	80 93 7b 02 	sts	0x027B, r24
     690:	30 93 7c 02 	sts	0x027C, r19
     694:	80 93 7d 02 	sts	0x027D, r24
     698:	90 e0       	ldi	r25, 0x00	; 0
     69a:	99 5f       	subi	r25, 0xF9	; 249
     69c:	e9 2f       	mov	r30, r25
     69e:	f0 e0       	ldi	r31, 0x00	; 0
     6a0:	97 50       	subi	r25, 0x07	; 7
     6a2:	e9 58       	subi	r30, 0x89	; 137
     6a4:	fd 4f       	sbci	r31, 0xFD	; 253
     6a6:	a9 2f       	mov	r26, r25
     6a8:	b0 e0       	ldi	r27, 0x00	; 0
     6aa:	a1 5f       	subi	r26, 0xF1	; 241
     6ac:	bc 4f       	sbci	r27, 0xFC	; 252
     6ae:	8c 91       	ld	r24, X
     6b0:	80 83       	st	Z, r24
     6b2:	9f 5f       	subi	r25, 0xFF	; 255
     6b4:	90 38       	cpi	r25, 0x80	; 128
     6b6:	89 f7       	brne	.-30     	; 0x69a <kirimPaketData+0x74>
     6b8:	87 e7       	ldi	r24, 0x77	; 119
     6ba:	92 e0       	ldi	r25, 0x02	; 2
     6bc:	67 e8       	ldi	r22, 0x87	; 135
     6be:	61 d2       	rcall	.+1218   	; 0xb82 <hitungCRC16>
     6c0:	80 93 92 03 	sts	0x0392, r24
     6c4:	90 93 93 03 	sts	0x0393, r25
     6c8:	80 93 fe 02 	sts	0x02FE, r24
     6cc:	90 93 ff 02 	sts	0x02FF, r25
     6d0:	80 e0       	ldi	r24, 0x00	; 0
     6d2:	a2 dd       	rcall	.-1212   	; 0x218 <kirimDataSerial>
     6d4:	80 e0       	ldi	r24, 0x00	; 0
     6d6:	a0 dd       	rcall	.-1216   	; 0x218 <kirimDataSerial>
     6d8:	80 e0       	ldi	r24, 0x00	; 0
     6da:	9e dd       	rcall	.-1220   	; 0x218 <kirimDataSerial>
     6dc:	80 e0       	ldi	r24, 0x00	; 0
     6de:	9c dd       	rcall	.-1224   	; 0x218 <kirimDataSerial>
     6e0:	80 e0       	ldi	r24, 0x00	; 0
     6e2:	9a dd       	rcall	.-1228   	; 0x218 <kirimDataSerial>
     6e4:	c7 e7       	ldi	r28, 0x77	; 119
     6e6:	d2 e0       	ldi	r29, 0x02	; 2
     6e8:	89 91       	ld	r24, Y+
     6ea:	96 dd       	rcall	.-1236   	; 0x218 <kirimDataSerial>
     6ec:	83 e0       	ldi	r24, 0x03	; 3
     6ee:	c0 30       	cpi	r28, 0x00	; 0
     6f0:	d8 07       	cpc	r29, r24
     6f2:	d1 f7       	brne	.-12     	; 0x6e8 <kirimPaketData+0xc2>
     6f4:	df 91       	pop	r29
     6f6:	cf 91       	pop	r28
     6f8:	08 95       	ret
     6fa:	30 91 74 01 	lds	r19, 0x0174
     6fe:	3f 5f       	subi	r19, 0xFF	; 255
     700:	30 93 74 01 	sts	0x0174, r19
     704:	9c cf       	rjmp	.-200    	; 0x63e <kirimPaketData+0x18>

00000706 <eksekusiTransmisi>:
     706:	0f 93       	push	r16
     708:	1f 93       	push	r17
     70a:	7c dd       	rcall	.-1288   	; 0x204 <inisialisasiUSART>
     70c:	57 98       	cbi	0x0a, 7	; 10
     70e:	54 98       	cbi	0x0a, 4	; 10
     710:	11 e0       	ldi	r17, 0x01	; 1
     712:	07 e0       	ldi	r16, 0x07	; 7
     714:	04 c0       	rjmp	.+8      	; 0x71e <eksekusiTransmisi+0x18>
     716:	80 91 09 03 	lds	r24, 0x0309
     71a:	48 17       	cp	r20, r24
     71c:	19 f1       	breq	.+70     	; 0x764 <eksekusiTransmisi+0x5e>
     71e:	80 91 0a 03 	lds	r24, 0x030A
     722:	88 23       	and	r24, r24
     724:	69 f1       	breq	.+90     	; 0x780 <eksekusiTransmisi+0x7a>
     726:	7f df       	rcall	.-258    	; 0x626 <kirimPaketData>
     728:	10 93 75 01 	sts	0x0175, r17
     72c:	54 9a       	sbi	0x0a, 4	; 10
     72e:	57 9a       	sbi	0x0a, 7	; 10
     730:	6d de       	rcall	.-806    	; 0x40c <olahKonfirmasiPaketData>
     732:	57 98       	cbi	0x0a, 7	; 10
     734:	54 98       	cbi	0x0a, 4	; 10
     736:	40 91 74 01 	lds	r20, 0x0174
     73a:	24 2f       	mov	r18, r20
     73c:	30 e0       	ldi	r19, 0x00	; 0
     73e:	80 91 6e 01 	lds	r24, 0x016E
     742:	90 e0       	ldi	r25, 0x00	; 0
     744:	01 96       	adiw	r24, 0x01	; 1
     746:	88 0f       	add	r24, r24
     748:	99 1f       	adc	r25, r25
     74a:	28 17       	cp	r18, r24
     74c:	39 07       	cpc	r19, r25
     74e:	19 f7       	brne	.-58     	; 0x716 <eksekusiTransmisi+0x10>
     750:	80 91 0b 03 	lds	r24, 0x030B
     754:	88 23       	and	r24, r24
     756:	f9 f2       	breq	.-66     	; 0x716 <eksekusiTransmisi+0x10>
     758:	10 92 0a 03 	sts	0x030A, r1
     75c:	80 91 09 03 	lds	r24, 0x0309
     760:	48 17       	cp	r20, r24
     762:	e9 f6       	brne	.-70     	; 0x71e <eksekusiTransmisi+0x18>
     764:	80 91 0b 03 	lds	r24, 0x030B
     768:	88 23       	and	r24, r24
     76a:	c9 f2       	breq	.-78     	; 0x71e <eksekusiTransmisi+0x18>
     76c:	10 92 0a 03 	sts	0x030A, r1
     770:	10 93 6f 01 	sts	0x016F, r17
     774:	00 93 0c 03 	sts	0x030C, r16
     778:	80 91 0a 03 	lds	r24, 0x030A
     77c:	88 23       	and	r24, r24
     77e:	99 f6       	brne	.-90     	; 0x726 <eksekusiTransmisi+0x20>
     780:	1f 91       	pop	r17
     782:	0f 91       	pop	r16
     784:	08 95       	ret

00000786 <kirimPaketPerintah>:
     786:	cf 93       	push	r28
     788:	df 93       	push	r29
     78a:	f8 94       	cli
     78c:	80 91 0c 03 	lds	r24, 0x030C
     790:	81 30       	cpi	r24, 0x01	; 1
     792:	39 f0       	breq	.+14     	; 0x7a2 <kirimPaketPerintah+0x1c>
     794:	82 30       	cpi	r24, 0x02	; 2
     796:	09 f4       	brne	.+2      	; 0x79a <kirimPaketPerintah+0x14>
     798:	41 c0       	rjmp	.+130    	; 0x81c <kirimPaketPerintah+0x96>
     79a:	78 94       	sei
     79c:	df 91       	pop	r29
     79e:	cf 91       	pop	r28
     7a0:	08 95       	ret
     7a2:	8c e3       	ldi	r24, 0x3C	; 60
     7a4:	80 93 77 02 	sts	0x0277, r24
     7a8:	85 e4       	ldi	r24, 0x45	; 69
     7aa:	80 93 78 02 	sts	0x0278, r24
     7ae:	8e e3       	ldi	r24, 0x3E	; 62
     7b0:	80 93 79 02 	sts	0x0279, r24
     7b4:	80 91 76 01 	lds	r24, 0x0176
     7b8:	80 93 7a 02 	sts	0x027A, r24
     7bc:	9c e7       	ldi	r25, 0x7C	; 124
     7be:	90 93 7b 02 	sts	0x027B, r25
     7c2:	8f ef       	ldi	r24, 0xFF	; 255
     7c4:	80 93 7c 02 	sts	0x027C, r24
     7c8:	80 93 7d 02 	sts	0x027D, r24
     7cc:	80 91 09 03 	lds	r24, 0x0309
     7d0:	80 93 7e 02 	sts	0x027E, r24
     7d4:	90 93 7f 02 	sts	0x027F, r25
     7d8:	87 e7       	ldi	r24, 0x77	; 119
     7da:	92 e0       	ldi	r25, 0x02	; 2
     7dc:	69 e0       	ldi	r22, 0x09	; 9
     7de:	d1 d1       	rcall	.+930    	; 0xb82 <hitungCRC16>
     7e0:	80 93 92 03 	sts	0x0392, r24
     7e4:	90 93 93 03 	sts	0x0393, r25
     7e8:	80 93 80 02 	sts	0x0280, r24
     7ec:	90 93 81 02 	sts	0x0281, r25
     7f0:	80 e0       	ldi	r24, 0x00	; 0
     7f2:	12 dd       	rcall	.-1500   	; 0x218 <kirimDataSerial>
     7f4:	80 e0       	ldi	r24, 0x00	; 0
     7f6:	10 dd       	rcall	.-1504   	; 0x218 <kirimDataSerial>
     7f8:	80 e0       	ldi	r24, 0x00	; 0
     7fa:	0e dd       	rcall	.-1508   	; 0x218 <kirimDataSerial>
     7fc:	80 e0       	ldi	r24, 0x00	; 0
     7fe:	0c dd       	rcall	.-1512   	; 0x218 <kirimDataSerial>
     800:	80 e0       	ldi	r24, 0x00	; 0
     802:	0a dd       	rcall	.-1516   	; 0x218 <kirimDataSerial>
     804:	c7 e7       	ldi	r28, 0x77	; 119
     806:	d2 e0       	ldi	r29, 0x02	; 2
     808:	89 91       	ld	r24, Y+
     80a:	06 dd       	rcall	.-1524   	; 0x218 <kirimDataSerial>
     80c:	82 e0       	ldi	r24, 0x02	; 2
     80e:	c2 38       	cpi	r28, 0x82	; 130
     810:	d8 07       	cpc	r29, r24
     812:	d1 f7       	brne	.-12     	; 0x808 <kirimPaketPerintah+0x82>
     814:	78 94       	sei
     816:	df 91       	pop	r29
     818:	cf 91       	pop	r28
     81a:	08 95       	ret
     81c:	8c e3       	ldi	r24, 0x3C	; 60
     81e:	80 93 77 02 	sts	0x0277, r24
     822:	85 e4       	ldi	r24, 0x45	; 69
     824:	80 93 78 02 	sts	0x0278, r24
     828:	8e e3       	ldi	r24, 0x3E	; 62
     82a:	80 93 79 02 	sts	0x0279, r24
     82e:	80 91 76 01 	lds	r24, 0x0176
     832:	80 93 7a 02 	sts	0x027A, r24
     836:	9c e7       	ldi	r25, 0x7C	; 124
     838:	90 93 7b 02 	sts	0x027B, r25
     83c:	80 91 71 01 	lds	r24, 0x0171
     840:	80 93 7c 02 	sts	0x027C, r24
     844:	80 91 72 01 	lds	r24, 0x0172
     848:	80 93 7d 02 	sts	0x027D, r24
     84c:	80 91 73 01 	lds	r24, 0x0173
     850:	80 93 7e 02 	sts	0x027E, r24
     854:	90 93 7f 02 	sts	0x027F, r25
     858:	87 e7       	ldi	r24, 0x77	; 119
     85a:	92 e0       	ldi	r25, 0x02	; 2
     85c:	69 e0       	ldi	r22, 0x09	; 9
     85e:	91 d1       	rcall	.+802    	; 0xb82 <hitungCRC16>
     860:	80 93 92 03 	sts	0x0392, r24
     864:	90 93 93 03 	sts	0x0393, r25
     868:	80 93 80 02 	sts	0x0280, r24
     86c:	90 93 81 02 	sts	0x0281, r25
     870:	80 e0       	ldi	r24, 0x00	; 0
     872:	d2 dc       	rcall	.-1628   	; 0x218 <kirimDataSerial>
     874:	80 e0       	ldi	r24, 0x00	; 0
     876:	d0 dc       	rcall	.-1632   	; 0x218 <kirimDataSerial>
     878:	80 e0       	ldi	r24, 0x00	; 0
     87a:	ce dc       	rcall	.-1636   	; 0x218 <kirimDataSerial>
     87c:	80 e0       	ldi	r24, 0x00	; 0
     87e:	cc dc       	rcall	.-1640   	; 0x218 <kirimDataSerial>
     880:	80 e0       	ldi	r24, 0x00	; 0
     882:	ca dc       	rcall	.-1644   	; 0x218 <kirimDataSerial>
     884:	c7 e7       	ldi	r28, 0x77	; 119
     886:	d2 e0       	ldi	r29, 0x02	; 2
     888:	89 91       	ld	r24, Y+
     88a:	c6 dc       	rcall	.-1652   	; 0x218 <kirimDataSerial>
     88c:	82 e0       	ldi	r24, 0x02	; 2
     88e:	c2 38       	cpi	r28, 0x82	; 130
     890:	d8 07       	cpc	r29, r24
     892:	d1 f7       	brne	.-12     	; 0x888 <kirimPaketPerintah+0x102>
     894:	78 94       	sei
     896:	df 91       	pop	r29
     898:	cf 91       	pop	r28
     89a:	08 95       	ret

0000089c <awalTransmisi>:
     89c:	1f 93       	push	r17
     89e:	b2 dc       	rcall	.-1692   	; 0x204 <inisialisasiUSART>
     8a0:	57 98       	cbi	0x0a, 7	; 10
     8a2:	54 98       	cbi	0x0a, 4	; 10
     8a4:	80 91 8f 03 	lds	r24, 0x038F
     8a8:	88 23       	and	r24, r24
     8aa:	69 f0       	breq	.+26     	; 0x8c6 <awalTransmisi+0x2a>
     8ac:	11 e0       	ldi	r17, 0x01	; 1
     8ae:	6b df       	rcall	.-298    	; 0x786 <kirimPaketPerintah>
     8b0:	10 93 75 01 	sts	0x0175, r17
     8b4:	54 9a       	sbi	0x0a, 4	; 10
     8b6:	57 9a       	sbi	0x0a, 7	; 10
     8b8:	09 dd       	rcall	.-1518   	; 0x2cc <olahKonfirmasiPaketPerintah>
     8ba:	57 98       	cbi	0x0a, 7	; 10
     8bc:	54 98       	cbi	0x0a, 4	; 10
     8be:	80 91 8f 03 	lds	r24, 0x038F
     8c2:	88 23       	and	r24, r24
     8c4:	a1 f7       	brne	.-24     	; 0x8ae <awalTransmisi+0x12>
     8c6:	80 91 0c 03 	lds	r24, 0x030C
     8ca:	82 30       	cpi	r24, 0x02	; 2
     8cc:	39 f4       	brne	.+14     	; 0x8dc <awalTransmisi+0x40>
     8ce:	10 92 96 03 	sts	0x0396, r1
     8d2:	10 92 03 03 	sts	0x0303, r1
     8d6:	84 e0       	ldi	r24, 0x04	; 4
     8d8:	80 93 91 03 	sts	0x0391, r24
     8dc:	1f 91       	pop	r17
     8de:	08 95       	ret

000008e0 <terimaTransmisi>:
     8e0:	bf 92       	push	r11
     8e2:	cf 92       	push	r12
     8e4:	df 92       	push	r13
     8e6:	ef 92       	push	r14
     8e8:	ff 92       	push	r15
     8ea:	0f 93       	push	r16
     8ec:	1f 93       	push	r17
     8ee:	10 92 02 03 	sts	0x0302, r1
     8f2:	10 92 04 03 	sts	0x0304, r1
     8f6:	80 e0       	ldi	r24, 0x00	; 0
     8f8:	9f ef       	ldi	r25, 0xFF	; 255
     8fa:	e8 2f       	mov	r30, r24
     8fc:	f0 e0       	ldi	r31, 0x00	; 0
     8fe:	e2 59       	subi	r30, 0x92	; 146
     900:	ff 4f       	sbci	r31, 0xFF	; 255
     902:	90 83       	st	Z, r25
     904:	8f 5f       	subi	r24, 0xFF	; 255
     906:	80 38       	cpi	r24, 0x80	; 128
     908:	c1 f7       	brne	.-16     	; 0x8fa <terimaTransmisi+0x1a>
     90a:	7c dc       	rcall	.-1800   	; 0x204 <inisialisasiUSART>
     90c:	e9 db       	rcall	.-2094   	; 0xe0 <inisialisasiTimerTimeout>
     90e:	20 91 0c 03 	lds	r18, 0x030C
     912:	02 e0       	ldi	r16, 0x02	; 2
     914:	f3 e0       	ldi	r31, 0x03	; 3
     916:	ff 2e       	mov	r15, r31
     918:	ed e0       	ldi	r30, 0x0D	; 13
     91a:	ee 2e       	mov	r14, r30
     91c:	dd 24       	eor	r13, r13
     91e:	d3 94       	inc	r13
     920:	7f e0       	ldi	r23, 0x0F	; 15
     922:	c7 2e       	mov	r12, r23
     924:	64 e4       	ldi	r22, 0x44	; 68
     926:	b6 2e       	mov	r11, r22
     928:	2c 30       	cpi	r18, 0x0C	; 12
     92a:	09 f0       	breq	.+2      	; 0x92e <terimaTransmisi+0x4e>
     92c:	a4 c0       	rjmp	.+328    	; 0xa76 <terimaTransmisi+0x196>
     92e:	80 91 01 03 	lds	r24, 0x0301
     932:	88 23       	and	r24, r24
     934:	e1 f3       	breq	.-8      	; 0x92e <terimaTransmisi+0x4e>
     936:	e0 91 95 03 	lds	r30, 0x0395
     93a:	f0 e0       	ldi	r31, 0x00	; 0
     93c:	e9 58       	subi	r30, 0x89	; 137
     93e:	fe 4f       	sbci	r31, 0xFE	; 254
     940:	90 81       	ld	r25, Z
     942:	80 91 95 03 	lds	r24, 0x0395
     946:	8f 5f       	subi	r24, 0xFF	; 255
     948:	80 93 95 03 	sts	0x0395, r24
     94c:	f8 94       	cli
     94e:	80 91 01 03 	lds	r24, 0x0301
     952:	81 50       	subi	r24, 0x01	; 1
     954:	80 93 01 03 	sts	0x0301, r24
     958:	78 94       	sei
     95a:	80 91 02 03 	lds	r24, 0x0302
     95e:	e8 2f       	mov	r30, r24
     960:	f0 e0       	ldi	r31, 0x00	; 0
     962:	e9 58       	subi	r30, 0x89	; 137
     964:	fd 4f       	sbci	r31, 0xFD	; 253
     966:	90 83       	st	Z, r25
     968:	8f 5f       	subi	r24, 0xFF	; 255
     96a:	80 93 02 03 	sts	0x0302, r24
     96e:	80 91 02 03 	lds	r24, 0x0302
     972:	81 30       	cpi	r24, 0x01	; 1
     974:	09 f4       	brne	.+2      	; 0x978 <terimaTransmisi+0x98>
     976:	77 c0       	rjmp	.+238    	; 0xa66 <terimaTransmisi+0x186>
     978:	80 91 02 03 	lds	r24, 0x0302
     97c:	82 30       	cpi	r24, 0x02	; 2
     97e:	09 f4       	brne	.+2      	; 0x982 <terimaTransmisi+0xa2>
     980:	85 c0       	rjmp	.+266    	; 0xa8c <terimaTransmisi+0x1ac>
     982:	80 91 02 03 	lds	r24, 0x0302
     986:	83 30       	cpi	r24, 0x03	; 3
     988:	09 f4       	brne	.+2      	; 0x98c <terimaTransmisi+0xac>
     98a:	87 c0       	rjmp	.+270    	; 0xa9a <terimaTransmisi+0x1ba>
     98c:	80 91 02 03 	lds	r24, 0x0302
     990:	85 30       	cpi	r24, 0x05	; 5
     992:	09 f4       	brne	.+2      	; 0x996 <terimaTransmisi+0xb6>
     994:	89 c0       	rjmp	.+274    	; 0xaa8 <terimaTransmisi+0x1c8>
     996:	80 91 02 03 	lds	r24, 0x0302
     99a:	87 30       	cpi	r24, 0x07	; 7
     99c:	09 f4       	brne	.+2      	; 0x9a0 <terimaTransmisi+0xc0>
     99e:	8b c0       	rjmp	.+278    	; 0xab6 <terimaTransmisi+0x1d6>
     9a0:	80 91 02 03 	lds	r24, 0x0302
     9a4:	81 30       	cpi	r24, 0x01	; 1
     9a6:	09 f4       	brne	.+2      	; 0x9aa <terimaTransmisi+0xca>
     9a8:	8d c0       	rjmp	.+282    	; 0xac4 <terimaTransmisi+0x1e4>
     9aa:	80 91 02 03 	lds	r24, 0x0302
     9ae:	89 30       	cpi	r24, 0x09	; 9
     9b0:	09 f4       	brne	.+2      	; 0x9b4 <terimaTransmisi+0xd4>
     9b2:	8b c0       	rjmp	.+278    	; 0xaca <terimaTransmisi+0x1ea>
     9b4:	80 91 02 03 	lds	r24, 0x0302
     9b8:	89 30       	cpi	r24, 0x09	; 9
     9ba:	09 f4       	brne	.+2      	; 0x9be <terimaTransmisi+0xde>
     9bc:	9e c0       	rjmp	.+316    	; 0xafa <terimaTransmisi+0x21a>
     9be:	80 91 02 03 	lds	r24, 0x0302
     9c2:	89 38       	cpi	r24, 0x89	; 137
     9c4:	09 f0       	breq	.+2      	; 0x9c8 <terimaTransmisi+0xe8>
     9c6:	b0 cf       	rjmp	.-160    	; 0x928 <terimaTransmisi+0x48>
     9c8:	80 91 96 03 	lds	r24, 0x0396
     9cc:	81 30       	cpi	r24, 0x01	; 1
     9ce:	09 f0       	breq	.+2      	; 0x9d2 <terimaTransmisi+0xf2>
     9d0:	ab cf       	rjmp	.-170    	; 0x928 <terimaTransmisi+0x48>
     9d2:	90 91 74 01 	lds	r25, 0x0174
     9d6:	80 91 09 03 	lds	r24, 0x0309
     9da:	89 17       	cp	r24, r25
     9dc:	08 f4       	brcc	.+2      	; 0x9e0 <terimaTransmisi+0x100>
     9de:	a4 cf       	rjmp	.-184    	; 0x928 <terimaTransmisi+0x48>
     9e0:	87 e7       	ldi	r24, 0x77	; 119
     9e2:	92 e0       	ldi	r25, 0x02	; 2
     9e4:	67 e8       	ldi	r22, 0x87	; 135
     9e6:	cd d0       	rcall	.+410    	; 0xb82 <hitungCRC16>
     9e8:	29 2f       	mov	r18, r25
     9ea:	90 91 fe 02 	lds	r25, 0x02FE
     9ee:	98 17       	cp	r25, r24
     9f0:	09 f0       	breq	.+2      	; 0x9f4 <terimaTransmisi+0x114>
     9f2:	ad c0       	rjmp	.+346    	; 0xb4e <terimaTransmisi+0x26e>
     9f4:	80 91 ff 02 	lds	r24, 0x02FF
     9f8:	82 17       	cp	r24, r18
     9fa:	09 f0       	breq	.+2      	; 0x9fe <terimaTransmisi+0x11e>
     9fc:	a8 c0       	rjmp	.+336    	; 0xb4e <terimaTransmisi+0x26e>
     9fe:	30 91 7c 02 	lds	r19, 0x027C
     a02:	80 91 74 01 	lds	r24, 0x0174
     a06:	38 17       	cp	r19, r24
     a08:	09 f0       	breq	.+2      	; 0xa0c <terimaTransmisi+0x12c>
     a0a:	a1 c0       	rjmp	.+322    	; 0xb4e <terimaTransmisi+0x26e>
     a0c:	30 93 70 01 	sts	0x0170, r19
     a10:	f0 92 91 03 	sts	0x0391, r15
     a14:	20 91 04 03 	lds	r18, 0x0304
     a18:	ae e7       	ldi	r26, 0x7E	; 126
     a1a:	b2 e0       	ldi	r27, 0x02	; 2
     a1c:	92 2f       	mov	r25, r18
     a1e:	e9 2f       	mov	r30, r25
     a20:	f0 e0       	ldi	r31, 0x00	; 0
     a22:	e2 59       	subi	r30, 0x92	; 146
     a24:	ff 4f       	sbci	r31, 0xFF	; 255
     a26:	8d 91       	ld	r24, X+
     a28:	80 83       	st	Z, r24
     a2a:	9f 5f       	subi	r25, 0xFF	; 255
     a2c:	82 e0       	ldi	r24, 0x02	; 2
     a2e:	ae 3f       	cpi	r26, 0xFE	; 254
     a30:	b8 07       	cpc	r27, r24
     a32:	a9 f7       	brne	.-22     	; 0xa1e <terimaTransmisi+0x13e>
     a34:	20 58       	subi	r18, 0x80	; 128
     a36:	20 93 04 03 	sts	0x0304, r18
     a3a:	3f 5f       	subi	r19, 0xFF	; 255
     a3c:	30 93 74 01 	sts	0x0174, r19
     a40:	3d dd       	rcall	.-1414   	; 0x4bc <kirimKonfirmasiPaketOK>
     a42:	e0 92 0c 03 	sts	0x030C, r14
     a46:	20 91 74 01 	lds	r18, 0x0174
     a4a:	30 e0       	ldi	r19, 0x00	; 0
     a4c:	80 91 09 03 	lds	r24, 0x0309
     a50:	90 e0       	ldi	r25, 0x00	; 0
     a52:	01 96       	adiw	r24, 0x01	; 1
     a54:	28 17       	cp	r18, r24
     a56:	39 07       	cpc	r19, r25
     a58:	09 f0       	breq	.+2      	; 0xa5c <terimaTransmisi+0x17c>
     a5a:	4a c0       	rjmp	.+148    	; 0xaf0 <terimaTransmisi+0x210>
     a5c:	10 92 96 03 	sts	0x0396, r1
     a60:	d0 92 03 03 	sts	0x0303, r13
     a64:	45 c0       	rjmp	.+138    	; 0xaf0 <terimaTransmisi+0x210>
     a66:	9c 33       	cpi	r25, 0x3C	; 60
     a68:	09 f4       	brne	.+2      	; 0xa6c <terimaTransmisi+0x18c>
     a6a:	86 cf       	rjmp	.-244    	; 0x978 <terimaTransmisi+0x98>
     a6c:	10 92 02 03 	sts	0x0302, r1
     a70:	2c 30       	cpi	r18, 0x0C	; 12
     a72:	09 f4       	brne	.+2      	; 0xa76 <terimaTransmisi+0x196>
     a74:	5c cf       	rjmp	.-328    	; 0x92e <terimaTransmisi+0x4e>
     a76:	47 db       	rcall	.-2418   	; 0x106 <matikanTimerTimeout>
     a78:	57 98       	cbi	0x0a, 7	; 10
     a7a:	54 98       	cbi	0x0a, 4	; 10
     a7c:	1f 91       	pop	r17
     a7e:	0f 91       	pop	r16
     a80:	ff 90       	pop	r15
     a82:	ef 90       	pop	r14
     a84:	df 90       	pop	r13
     a86:	cf 90       	pop	r12
     a88:	bf 90       	pop	r11
     a8a:	08 95       	ret
     a8c:	96 34       	cpi	r25, 0x46	; 70
     a8e:	71 f7       	brne	.-36     	; 0xa6c <terimaTransmisi+0x18c>
     a90:	80 91 02 03 	lds	r24, 0x0302
     a94:	83 30       	cpi	r24, 0x03	; 3
     a96:	09 f0       	breq	.+2      	; 0xa9a <terimaTransmisi+0x1ba>
     a98:	79 cf       	rjmp	.-270    	; 0x98c <terimaTransmisi+0xac>
     a9a:	9e 33       	cpi	r25, 0x3E	; 62
     a9c:	39 f7       	brne	.-50     	; 0xa6c <terimaTransmisi+0x18c>
     a9e:	80 91 02 03 	lds	r24, 0x0302
     aa2:	85 30       	cpi	r24, 0x05	; 5
     aa4:	09 f0       	breq	.+2      	; 0xaa8 <terimaTransmisi+0x1c8>
     aa6:	77 cf       	rjmp	.-274    	; 0x996 <terimaTransmisi+0xb6>
     aa8:	9c 37       	cpi	r25, 0x7C	; 124
     aaa:	01 f7       	brne	.-64     	; 0xa6c <terimaTransmisi+0x18c>
     aac:	80 91 02 03 	lds	r24, 0x0302
     ab0:	87 30       	cpi	r24, 0x07	; 7
     ab2:	09 f0       	breq	.+2      	; 0xab6 <terimaTransmisi+0x1d6>
     ab4:	75 cf       	rjmp	.-278    	; 0x9a0 <terimaTransmisi+0xc0>
     ab6:	9c 37       	cpi	r25, 0x7C	; 124
     ab8:	c9 f6       	brne	.-78     	; 0xa6c <terimaTransmisi+0x18c>
     aba:	80 91 02 03 	lds	r24, 0x0302
     abe:	81 30       	cpi	r24, 0x01	; 1
     ac0:	09 f0       	breq	.+2      	; 0xac4 <terimaTransmisi+0x1e4>
     ac2:	73 cf       	rjmp	.-282    	; 0x9aa <terimaTransmisi+0xca>
     ac4:	b0 92 97 03 	sts	0x0397, r11
     ac8:	2f cf       	rjmp	.-418    	; 0x928 <terimaTransmisi+0x48>
     aca:	80 91 96 03 	lds	r24, 0x0396
     ace:	88 23       	and	r24, r24
     ad0:	09 f0       	breq	.+2      	; 0xad4 <terimaTransmisi+0x1f4>
     ad2:	70 cf       	rjmp	.-288    	; 0x9b4 <terimaTransmisi+0xd4>
     ad4:	80 91 03 03 	lds	r24, 0x0303
     ad8:	88 23       	and	r24, r24
     ada:	09 f0       	breq	.+2      	; 0xade <terimaTransmisi+0x1fe>
     adc:	6b cf       	rjmp	.-298    	; 0x9b4 <terimaTransmisi+0xd4>
     ade:	87 e7       	ldi	r24, 0x77	; 119
     ae0:	92 e0       	ldi	r25, 0x02	; 2
     ae2:	67 e0       	ldi	r22, 0x07	; 7
     ae4:	4e d0       	rcall	.+156    	; 0xb82 <hitungCRC16>
     ae6:	29 2f       	mov	r18, r25
     ae8:	90 91 7e 02 	lds	r25, 0x027E
     aec:	98 17       	cp	r25, r24
     aee:	99 f1       	breq	.+102    	; 0xb56 <terimaTransmisi+0x276>
     af0:	10 92 02 03 	sts	0x0302, r1
     af4:	20 91 0c 03 	lds	r18, 0x030C
     af8:	17 cf       	rjmp	.-466    	; 0x928 <terimaTransmisi+0x48>
     afa:	10 91 03 03 	lds	r17, 0x0303
     afe:	11 30       	cpi	r17, 0x01	; 1
     b00:	09 f0       	breq	.+2      	; 0xb04 <terimaTransmisi+0x224>
     b02:	5d cf       	rjmp	.-326    	; 0x9be <terimaTransmisi+0xde>
     b04:	87 e7       	ldi	r24, 0x77	; 119
     b06:	92 e0       	ldi	r25, 0x02	; 2
     b08:	67 e0       	ldi	r22, 0x07	; 7
     b0a:	3b d0       	rcall	.+118    	; 0xb82 <hitungCRC16>
     b0c:	29 2f       	mov	r18, r25
     b0e:	90 91 7e 02 	lds	r25, 0x027E
     b12:	98 17       	cp	r25, r24
     b14:	69 f7       	brne	.-38     	; 0xaf0 <terimaTransmisi+0x210>
     b16:	80 91 7f 02 	lds	r24, 0x027F
     b1a:	82 17       	cp	r24, r18
     b1c:	49 f7       	brne	.-46     	; 0xaf0 <terimaTransmisi+0x210>
     b1e:	80 91 7a 02 	lds	r24, 0x027A
     b22:	8a 30       	cpi	r24, 0x0A	; 10
     b24:	a1 f4       	brne	.+40     	; 0xb4e <terimaTransmisi+0x26e>
     b26:	80 91 7c 02 	lds	r24, 0x027C
     b2a:	8d 30       	cpi	r24, 0x0D	; 13
     b2c:	81 f4       	brne	.+32     	; 0xb4e <terimaTransmisi+0x26e>
     b2e:	80 e0       	ldi	r24, 0x00	; 0
     b30:	73 db       	rcall	.-2330   	; 0x218 <kirimDataSerial>
     b32:	80 e0       	ldi	r24, 0x00	; 0
     b34:	71 db       	rcall	.-2334   	; 0x218 <kirimDataSerial>
     b36:	80 e0       	ldi	r24, 0x00	; 0
     b38:	6f db       	rcall	.-2338   	; 0x218 <kirimDataSerial>
     b3a:	80 e0       	ldi	r24, 0x00	; 0
     b3c:	6d db       	rcall	.-2342   	; 0x218 <kirimDataSerial>
     b3e:	80 e0       	ldi	r24, 0x00	; 0
     b40:	6b db       	rcall	.-2346   	; 0x218 <kirimDataSerial>
     b42:	10 93 91 03 	sts	0x0391, r17
     b46:	ea dc       	rcall	.-1580   	; 0x51c <kirimKonfirmasiOk>
     b48:	c0 92 0c 03 	sts	0x030C, r12
     b4c:	d1 cf       	rjmp	.-94     	; 0xaf0 <terimaTransmisi+0x210>
     b4e:	00 93 91 03 	sts	0x0391, r16
     b52:	cc dc       	rcall	.-1640   	; 0x4ec <kirimKonfirmasiGagal>
     b54:	cd cf       	rjmp	.-102    	; 0xaf0 <terimaTransmisi+0x210>
     b56:	80 91 7f 02 	lds	r24, 0x027F
     b5a:	82 17       	cp	r24, r18
     b5c:	49 f6       	brne	.-110    	; 0xaf0 <terimaTransmisi+0x210>
     b5e:	90 91 7a 02 	lds	r25, 0x027A
     b62:	80 91 76 01 	lds	r24, 0x0176
     b66:	98 17       	cp	r25, r24
     b68:	19 f6       	brne	.-122    	; 0xaf0 <terimaTransmisi+0x210>
     b6a:	d0 92 91 03 	sts	0x0391, r13
     b6e:	80 91 7c 02 	lds	r24, 0x027C
     b72:	80 93 09 03 	sts	0x0309, r24
     b76:	d0 92 96 03 	sts	0x0396, r13
     b7a:	d0 92 74 01 	sts	0x0174, r13
     b7e:	ce dc       	rcall	.-1636   	; 0x51c <kirimKonfirmasiOk>
     b80:	b7 cf       	rjmp	.-146    	; 0xaf0 <terimaTransmisi+0x210>

00000b82 <hitungCRC16>:
     b82:	a8 2f       	mov	r26, r24
     b84:	70 e0       	ldi	r23, 0x00	; 0
     b86:	61 15       	cp	r22, r1
     b88:	71 05       	cpc	r23, r1
     b8a:	11 f1       	breq	.+68     	; 0xbd0 <hitungCRC16+0x4e>
     b8c:	9c 01       	movw	r18, r24
     b8e:	f9 01       	movw	r30, r18
     b90:	20 e0       	ldi	r18, 0x00	; 0
     b92:	30 e0       	ldi	r19, 0x00	; 0
     b94:	41 e0       	ldi	r20, 0x01	; 1
     b96:	50 ea       	ldi	r21, 0xA0	; 160
     b98:	81 91       	ld	r24, Z+
     b9a:	90 e0       	ldi	r25, 0x00	; 0
     b9c:	28 27       	eor	r18, r24
     b9e:	39 27       	eor	r19, r25
     ba0:	80 e0       	ldi	r24, 0x00	; 0
     ba2:	07 c0       	rjmp	.+14     	; 0xbb2 <hitungCRC16+0x30>
     ba4:	36 95       	lsr	r19
     ba6:	27 95       	ror	r18
     ba8:	24 27       	eor	r18, r20
     baa:	35 27       	eor	r19, r21
     bac:	8f 5f       	subi	r24, 0xFF	; 255
     bae:	88 30       	cpi	r24, 0x08	; 8
     bb0:	39 f0       	breq	.+14     	; 0xbc0 <hitungCRC16+0x3e>
     bb2:	20 fd       	sbrc	r18, 0
     bb4:	f7 cf       	rjmp	.-18     	; 0xba4 <hitungCRC16+0x22>
     bb6:	36 95       	lsr	r19
     bb8:	27 95       	ror	r18
     bba:	8f 5f       	subi	r24, 0xFF	; 255
     bbc:	88 30       	cpi	r24, 0x08	; 8
     bbe:	c9 f7       	brne	.-14     	; 0xbb2 <hitungCRC16+0x30>
     bc0:	8e 2f       	mov	r24, r30
     bc2:	8a 1b       	sub	r24, r26
     bc4:	90 e0       	ldi	r25, 0x00	; 0
     bc6:	86 17       	cp	r24, r22
     bc8:	97 07       	cpc	r25, r23
     bca:	34 f3       	brlt	.-52     	; 0xb98 <hitungCRC16+0x16>
     bcc:	c9 01       	movw	r24, r18
     bce:	08 95       	ret
     bd0:	20 e0       	ldi	r18, 0x00	; 0
     bd2:	30 e0       	ldi	r19, 0x00	; 0
     bd4:	fb cf       	rjmp	.-10     	; 0xbcc <hitungCRC16+0x4a>

00000bd6 <tulisEEPROM>:
     bd6:	20 91 99 03 	lds	r18, 0x0399
     bda:	30 91 9a 03 	lds	r19, 0x039A
     bde:	92 e0       	ldi	r25, 0x02	; 2
     be0:	21 30       	cpi	r18, 0x01	; 1
     be2:	39 07       	cpc	r19, r25
     be4:	68 f4       	brcc	.+26     	; 0xc00 <tulisEEPROM+0x2a>
     be6:	e1 99       	sbic	0x1c, 1	; 28
     be8:	fe cf       	rjmp	.-4      	; 0xbe6 <tulisEEPROM+0x10>
     bea:	3f bb       	out	0x1f, r19	; 31
     bec:	2e bb       	out	0x1e, r18	; 30
     bee:	8d bb       	out	0x1d, r24	; 29
     bf0:	e2 9a       	sbi	0x1c, 2	; 28
     bf2:	e1 9a       	sbi	0x1c, 1	; 28
     bf4:	2f 5f       	subi	r18, 0xFF	; 255
     bf6:	3f 4f       	sbci	r19, 0xFF	; 255
     bf8:	30 93 9a 03 	sts	0x039A, r19
     bfc:	20 93 99 03 	sts	0x0399, r18
     c00:	08 95       	ret

00000c02 <usbInit>:
     c02:	85 b7       	in	r24, 0x35	; 53
     c04:	83 60       	ori	r24, 0x03	; 3
     c06:	85 bf       	out	0x35, r24	; 53
     c08:	8b b7       	in	r24, 0x3b	; 59
     c0a:	80 64       	ori	r24, 0x40	; 64
     c0c:	8b bf       	out	0x3b, r24	; 59
     c0e:	08 95       	ret

00000c10 <usbPoll>:
     c10:	0f 93       	push	r16
     c12:	1f 93       	push	r17
     c14:	cf 93       	push	r28
     c16:	df 93       	push	r29
     c18:	60 91 ad 03 	lds	r22, 0x03AD
     c1c:	16 16       	cp	r1, r22
     c1e:	2c f5       	brge	.+74     	; 0xc6a <usbPoll+0x5a>
     c20:	80 91 aa 03 	lds	r24, 0x03AA
     c24:	cc e0       	ldi	r28, 0x0C	; 12
     c26:	d0 e0       	ldi	r29, 0x00	; 0
     c28:	c8 1b       	sub	r28, r24
     c2a:	d1 09       	sbc	r29, r1
     c2c:	cf 54       	subi	r28, 0x4F	; 79
     c2e:	dc 4f       	sbci	r29, 0xFC	; 252
     c30:	63 50       	subi	r22, 0x03	; 3
     c32:	80 91 a9 03 	lds	r24, 0x03A9
     c36:	8d 32       	cpi	r24, 0x2D	; 45
     c38:	09 f4       	brne	.+2      	; 0xc3c <usbPoll+0x2c>
     c3a:	75 c0       	rjmp	.+234    	; 0xd26 <usbPoll+0x116>
     c3c:	80 91 62 00 	lds	r24, 0x0062
     c40:	87 fd       	sbrc	r24, 7
     c42:	0b c0       	rjmp	.+22     	; 0xc5a <usbPoll+0x4a>
     c44:	ce 01       	movw	r24, r28
     c46:	ad d2       	rcall	.+1370   	; 0x11a2 <usbFunctionWrite>
     c48:	8f 3f       	cpi	r24, 0xFF	; 255
     c4a:	09 f4       	brne	.+2      	; 0xc4e <usbPoll+0x3e>
     c4c:	ab c0       	rjmp	.+342    	; 0xda4 <usbPoll+0x194>
     c4e:	88 23       	and	r24, r24
     c50:	09 f4       	brne	.+2      	; 0xc54 <usbPoll+0x44>
     c52:	a5 c0       	rjmp	.+330    	; 0xd9e <usbPoll+0x18e>
     c54:	90 e0       	ldi	r25, 0x00	; 0
     c56:	80 e0       	ldi	r24, 0x00	; 0
     c58:	02 c0       	rjmp	.+4      	; 0xc5e <usbPoll+0x4e>
     c5a:	90 e8       	ldi	r25, 0x80	; 128
     c5c:	80 e0       	ldi	r24, 0x00	; 0
     c5e:	90 93 62 00 	sts	0x0062, r25
     c62:	80 93 60 00 	sts	0x0060, r24
     c66:	10 92 ad 03 	sts	0x03AD, r1
     c6a:	80 91 61 00 	lds	r24, 0x0061
     c6e:	84 ff       	sbrs	r24, 4
     c70:	40 c0       	rjmp	.+128    	; 0xcf2 <usbPoll+0xe2>
     c72:	80 91 60 00 	lds	r24, 0x0060
     c76:	8f 3f       	cpi	r24, 0xFF	; 255
     c78:	e1 f1       	breq	.+120    	; 0xcf2 <usbPoll+0xe2>
     c7a:	18 2f       	mov	r17, r24
     c7c:	89 30       	cpi	r24, 0x09	; 9
     c7e:	08 f0       	brcs	.+2      	; 0xc82 <usbPoll+0x72>
     c80:	49 c0       	rjmp	.+146    	; 0xd14 <usbPoll+0x104>
     c82:	81 1b       	sub	r24, r17
     c84:	80 93 60 00 	sts	0x0060, r24
     c88:	80 91 62 00 	lds	r24, 0x0062
     c8c:	80 fd       	sbrc	r24, 0
     c8e:	40 c0       	rjmp	.+128    	; 0xd10 <usbPoll+0x100>
     c90:	0b e4       	ldi	r16, 0x4B	; 75
     c92:	8f 5f       	subi	r24, 0xFF	; 255
     c94:	80 93 62 00 	sts	0x0062, r24
     c98:	60 91 ab 03 	lds	r22, 0x03AB
     c9c:	70 91 ac 03 	lds	r23, 0x03AC
     ca0:	86 fd       	sbrc	r24, 6
     ca2:	64 c0       	rjmp	.+200    	; 0xd6c <usbPoll+0x15c>
     ca4:	11 23       	and	r17, r17
     ca6:	09 f4       	brne	.+2      	; 0xcaa <usbPoll+0x9a>
     ca8:	83 c0       	rjmp	.+262    	; 0xdb0 <usbPoll+0x1a0>
     caa:	11 50       	subi	r17, 0x01	; 1
     cac:	db 01       	movw	r26, r22
     cae:	ee e9       	ldi	r30, 0x9E	; 158
     cb0:	f3 e0       	ldi	r31, 0x03	; 3
     cb2:	41 2f       	mov	r20, r17
     cb4:	50 e0       	ldi	r21, 0x00	; 0
     cb6:	1f 5f       	subi	r17, 0xFF	; 255
     cb8:	9a 01       	movw	r18, r20
     cba:	21 56       	subi	r18, 0x61	; 97
     cbc:	3c 4f       	sbci	r19, 0xFC	; 252
     cbe:	8d 91       	ld	r24, X+
     cc0:	81 93       	st	Z+, r24
     cc2:	e2 17       	cp	r30, r18
     cc4:	f3 07       	cpc	r31, r19
     cc6:	d9 f7       	brne	.-10     	; 0xcbe <usbPoll+0xae>
     cc8:	ca 01       	movw	r24, r20
     cca:	01 96       	adiw	r24, 0x01	; 1
     ccc:	86 0f       	add	r24, r22
     cce:	97 1f       	adc	r25, r23
     cd0:	90 93 ac 03 	sts	0x03AC, r25
     cd4:	80 93 ab 03 	sts	0x03AB, r24
     cd8:	8e e9       	ldi	r24, 0x9E	; 158
     cda:	93 e0       	ldi	r25, 0x03	; 3
     cdc:	61 2f       	mov	r22, r17
     cde:	0e d1       	rcall	.+540    	; 0xefc <usbCrc16Append>
     ce0:	91 2f       	mov	r25, r17
     ce2:	9c 5f       	subi	r25, 0xFC	; 252
     ce4:	18 30       	cpi	r17, 0x08	; 8
     ce6:	09 f0       	breq	.+2      	; 0xcea <usbPoll+0xda>
     ce8:	6d c0       	rjmp	.+218    	; 0xdc4 <usbPoll+0x1b4>
     cea:	00 93 9d 03 	sts	0x039D, r16
     cee:	90 93 61 00 	sts	0x0061, r25
     cf2:	9a e0       	ldi	r25, 0x0A	; 10
     cf4:	86 b3       	in	r24, 0x16	; 22
     cf6:	83 70       	andi	r24, 0x03	; 3
     cf8:	31 f4       	brne	.+12     	; 0xd06 <usbPoll+0xf6>
     cfa:	91 50       	subi	r25, 0x01	; 1
     cfc:	d9 f7       	brne	.-10     	; 0xcf4 <usbPoll+0xe4>
     cfe:	10 92 ae 03 	sts	0x03AE, r1
     d02:	10 92 a8 03 	sts	0x03A8, r1
     d06:	df 91       	pop	r29
     d08:	cf 91       	pop	r28
     d0a:	1f 91       	pop	r17
     d0c:	0f 91       	pop	r16
     d0e:	08 95       	ret
     d10:	03 ec       	ldi	r16, 0xC3	; 195
     d12:	bf cf       	rjmp	.-130    	; 0xc92 <usbPoll+0x82>
     d14:	18 e0       	ldi	r17, 0x08	; 8
     d16:	81 1b       	sub	r24, r17
     d18:	80 93 60 00 	sts	0x0060, r24
     d1c:	80 91 62 00 	lds	r24, 0x0062
     d20:	80 fd       	sbrc	r24, 0
     d22:	f6 cf       	rjmp	.-20     	; 0xd10 <usbPoll+0x100>
     d24:	b5 cf       	rjmp	.-150    	; 0xc90 <usbPoll+0x80>
     d26:	8a e5       	ldi	r24, 0x5A	; 90
     d28:	80 93 61 00 	sts	0x0061, r24
     d2c:	68 30       	cpi	r22, 0x08	; 8
     d2e:	09 f0       	breq	.+2      	; 0xd32 <usbPoll+0x122>
     d30:	94 cf       	rjmp	.-216    	; 0xc5a <usbPoll+0x4a>
     d32:	88 81       	ld	r24, Y
     d34:	80 76       	andi	r24, 0x60	; 96
     d36:	09 f0       	breq	.+2      	; 0xd3a <usbPoll+0x12a>
     d38:	49 c0       	rjmp	.+146    	; 0xdcc <usbPoll+0x1bc>
     d3a:	26 ea       	ldi	r18, 0xA6	; 166
     d3c:	33 e0       	ldi	r19, 0x03	; 3
     d3e:	10 92 a6 03 	sts	0x03A6, r1
     d42:	89 81       	ldd	r24, Y+1	; 0x01
     d44:	88 23       	and	r24, r24
     d46:	09 f0       	breq	.+2      	; 0xd4a <usbPoll+0x13a>
     d48:	4d c0       	rjmp	.+154    	; 0xde4 <usbPoll+0x1d4>
     d4a:	10 92 a7 03 	sts	0x03A7, r1
     d4e:	30 93 ac 03 	sts	0x03AC, r19
     d52:	20 93 ab 03 	sts	0x03AB, r18
     d56:	90 e8       	ldi	r25, 0x80	; 128
     d58:	22 e0       	ldi	r18, 0x02	; 2
     d5a:	8f 81       	ldd	r24, Y+7	; 0x07
     d5c:	88 23       	and	r24, r24
     d5e:	21 f4       	brne	.+8      	; 0xd68 <usbPoll+0x158>
     d60:	8e 81       	ldd	r24, Y+6	; 0x06
     d62:	82 17       	cp	r24, r18
     d64:	08 f4       	brcc	.+2      	; 0xd68 <usbPoll+0x158>
     d66:	7b cf       	rjmp	.-266    	; 0xc5e <usbPoll+0x4e>
     d68:	82 2f       	mov	r24, r18
     d6a:	79 cf       	rjmp	.-270    	; 0xc5e <usbPoll+0x4e>
     d6c:	11 23       	and	r17, r17
     d6e:	01 f1       	breq	.+64     	; 0xdb0 <usbPoll+0x1a0>
     d70:	11 50       	subi	r17, 0x01	; 1
     d72:	9b 01       	movw	r18, r22
     d74:	ce e9       	ldi	r28, 0x9E	; 158
     d76:	d3 e0       	ldi	r29, 0x03	; 3
     d78:	a1 2f       	mov	r26, r17
     d7a:	b0 e0       	ldi	r27, 0x00	; 0
     d7c:	1f 5f       	subi	r17, 0xFF	; 255
     d7e:	ad 01       	movw	r20, r26
     d80:	41 56       	subi	r20, 0x61	; 97
     d82:	5c 4f       	sbci	r21, 0xFC	; 252
     d84:	f9 01       	movw	r30, r18
     d86:	84 91       	lpm	r24, Z+
     d88:	89 93       	st	Y+, r24
     d8a:	2f 5f       	subi	r18, 0xFF	; 255
     d8c:	3f 4f       	sbci	r19, 0xFF	; 255
     d8e:	c4 17       	cp	r28, r20
     d90:	d5 07       	cpc	r29, r21
     d92:	c1 f7       	brne	.-16     	; 0xd84 <usbPoll+0x174>
     d94:	cd 01       	movw	r24, r26
     d96:	01 96       	adiw	r24, 0x01	; 1
     d98:	86 0f       	add	r24, r22
     d9a:	97 1f       	adc	r25, r23
     d9c:	99 cf       	rjmp	.-206    	; 0xcd0 <usbPoll+0xc0>
     d9e:	90 e0       	ldi	r25, 0x00	; 0
     da0:	8f ef       	ldi	r24, 0xFF	; 255
     da2:	5d cf       	rjmp	.-326    	; 0xc5e <usbPoll+0x4e>
     da4:	8e e1       	ldi	r24, 0x1E	; 30
     da6:	80 93 61 00 	sts	0x0061, r24
     daa:	90 e0       	ldi	r25, 0x00	; 0
     dac:	8f ef       	ldi	r24, 0xFF	; 255
     dae:	57 cf       	rjmp	.-338    	; 0xc5e <usbPoll+0x4e>
     db0:	70 93 ac 03 	sts	0x03AC, r23
     db4:	60 93 ab 03 	sts	0x03AB, r22
     db8:	8e e9       	ldi	r24, 0x9E	; 158
     dba:	93 e0       	ldi	r25, 0x03	; 3
     dbc:	61 2f       	mov	r22, r17
     dbe:	9e d0       	rcall	.+316    	; 0xefc <usbCrc16Append>
     dc0:	91 2f       	mov	r25, r17
     dc2:	9c 5f       	subi	r25, 0xFC	; 252
     dc4:	8f ef       	ldi	r24, 0xFF	; 255
     dc6:	80 93 60 00 	sts	0x0060, r24
     dca:	8f cf       	rjmp	.-226    	; 0xcea <usbPoll+0xda>
     dcc:	ce 01       	movw	r24, r28
     dce:	5a d2       	rcall	.+1204   	; 0x1284 <usbFunctionSetup>
     dd0:	28 2f       	mov	r18, r24
     dd2:	8f 3f       	cpi	r24, 0xFF	; 255
     dd4:	09 f0       	breq	.+2      	; 0xdd8 <usbPoll+0x1c8>
     dd6:	5a c0       	rjmp	.+180    	; 0xe8c <usbPoll+0x27c>
     dd8:	88 81       	ld	r24, Y
     dda:	87 fd       	sbrc	r24, 7
     ddc:	10 c0       	rjmp	.+32     	; 0xdfe <usbPoll+0x1ee>
     dde:	8f ef       	ldi	r24, 0xFF	; 255
     de0:	90 e0       	ldi	r25, 0x00	; 0
     de2:	3d cf       	rjmp	.-390    	; 0xc5e <usbPoll+0x4e>
     de4:	85 30       	cpi	r24, 0x05	; 5
     de6:	71 f0       	breq	.+28     	; 0xe04 <usbPoll+0x1f4>
     de8:	86 30       	cpi	r24, 0x06	; 6
     dea:	91 f0       	breq	.+36     	; 0xe10 <usbPoll+0x200>
     dec:	88 30       	cpi	r24, 0x08	; 8
     dee:	01 f1       	breq	.+64     	; 0xe30 <usbPoll+0x220>
     df0:	89 30       	cpi	r24, 0x09	; 9
     df2:	c1 f0       	breq	.+48     	; 0xe24 <usbPoll+0x214>
     df4:	8a 30       	cpi	r24, 0x0A	; 10
     df6:	89 f1       	breq	.+98     	; 0xe5a <usbPoll+0x24a>
     df8:	90 e8       	ldi	r25, 0x80	; 128
     dfa:	20 e0       	ldi	r18, 0x00	; 0
     dfc:	ae cf       	rjmp	.-164    	; 0xd5a <usbPoll+0x14a>
     dfe:	8e 81       	ldd	r24, Y+6	; 0x06
     e00:	90 e0       	ldi	r25, 0x00	; 0
     e02:	2d cf       	rjmp	.-422    	; 0xc5e <usbPoll+0x4e>
     e04:	8a 81       	ldd	r24, Y+2	; 0x02
     e06:	80 93 ae 03 	sts	0x03AE, r24
     e0a:	90 e8       	ldi	r25, 0x80	; 128
     e0c:	20 e0       	ldi	r18, 0x00	; 0
     e0e:	a5 cf       	rjmp	.-182    	; 0xd5a <usbPoll+0x14a>
     e10:	8b 81       	ldd	r24, Y+3	; 0x03
     e12:	81 30       	cpi	r24, 0x01	; 1
     e14:	91 f1       	breq	.+100    	; 0xe7a <usbPoll+0x26a>
     e16:	82 30       	cpi	r24, 0x02	; 2
     e18:	39 f1       	breq	.+78     	; 0xe68 <usbPoll+0x258>
     e1a:	83 30       	cpi	r24, 0x03	; 3
     e1c:	91 f0       	breq	.+36     	; 0xe42 <usbPoll+0x232>
     e1e:	90 ec       	ldi	r25, 0xC0	; 192
     e20:	20 e0       	ldi	r18, 0x00	; 0
     e22:	9b cf       	rjmp	.-202    	; 0xd5a <usbPoll+0x14a>
     e24:	8a 81       	ldd	r24, Y+2	; 0x02
     e26:	80 93 b0 03 	sts	0x03B0, r24
     e2a:	90 e8       	ldi	r25, 0x80	; 128
     e2c:	20 e0       	ldi	r18, 0x00	; 0
     e2e:	95 cf       	rjmp	.-214    	; 0xd5a <usbPoll+0x14a>
     e30:	80 eb       	ldi	r24, 0xB0	; 176
     e32:	93 e0       	ldi	r25, 0x03	; 3
     e34:	90 93 ac 03 	sts	0x03AC, r25
     e38:	80 93 ab 03 	sts	0x03AB, r24
     e3c:	90 e8       	ldi	r25, 0x80	; 128
     e3e:	21 e0       	ldi	r18, 0x01	; 1
     e40:	8c cf       	rjmp	.-232    	; 0xd5a <usbPoll+0x14a>
     e42:	8a 81       	ldd	r24, Y+2	; 0x02
     e44:	88 23       	and	r24, r24
     e46:	21 f5       	brne	.+72     	; 0xe90 <usbPoll+0x280>
     e48:	86 e2       	ldi	r24, 0x26	; 38
     e4a:	90 e0       	ldi	r25, 0x00	; 0
     e4c:	90 93 ac 03 	sts	0x03AC, r25
     e50:	80 93 ab 03 	sts	0x03AB, r24
     e54:	90 ec       	ldi	r25, 0xC0	; 192
     e56:	24 e0       	ldi	r18, 0x04	; 4
     e58:	80 cf       	rjmp	.-256    	; 0xd5a <usbPoll+0x14a>
     e5a:	30 93 ac 03 	sts	0x03AC, r19
     e5e:	20 93 ab 03 	sts	0x03AB, r18
     e62:	90 e8       	ldi	r25, 0x80	; 128
     e64:	21 e0       	ldi	r18, 0x01	; 1
     e66:	79 cf       	rjmp	.-270    	; 0xd5a <usbPoll+0x14a>
     e68:	8a e8       	ldi	r24, 0x8A	; 138
     e6a:	90 e0       	ldi	r25, 0x00	; 0
     e6c:	90 93 ac 03 	sts	0x03AC, r25
     e70:	80 93 ab 03 	sts	0x03AB, r24
     e74:	90 ec       	ldi	r25, 0xC0	; 192
     e76:	22 e1       	ldi	r18, 0x12	; 18
     e78:	70 cf       	rjmp	.-288    	; 0xd5a <usbPoll+0x14a>
     e7a:	88 e7       	ldi	r24, 0x78	; 120
     e7c:	90 e0       	ldi	r25, 0x00	; 0
     e7e:	90 93 ac 03 	sts	0x03AC, r25
     e82:	80 93 ab 03 	sts	0x03AB, r24
     e86:	90 ec       	ldi	r25, 0xC0	; 192
     e88:	22 e1       	ldi	r18, 0x12	; 18
     e8a:	67 cf       	rjmp	.-306    	; 0xd5a <usbPoll+0x14a>
     e8c:	90 e8       	ldi	r25, 0x80	; 128
     e8e:	65 cf       	rjmp	.-310    	; 0xd5a <usbPoll+0x14a>
     e90:	81 30       	cpi	r24, 0x01	; 1
     e92:	69 f0       	breq	.+26     	; 0xeae <usbPoll+0x29e>
     e94:	82 30       	cpi	r24, 0x02	; 2
     e96:	a1 f0       	breq	.+40     	; 0xec0 <usbPoll+0x2b0>
     e98:	83 30       	cpi	r24, 0x03	; 3
     e9a:	09 f6       	brne	.-126    	; 0xe1e <usbPoll+0x20e>
     e9c:	84 e5       	ldi	r24, 0x54	; 84
     e9e:	90 e0       	ldi	r25, 0x00	; 0
     ea0:	90 93 ac 03 	sts	0x03AC, r25
     ea4:	80 93 ab 03 	sts	0x03AB, r24
     ea8:	90 ec       	ldi	r25, 0xC0	; 192
     eaa:	24 e2       	ldi	r18, 0x24	; 36
     eac:	56 cf       	rjmp	.-340    	; 0xd5a <usbPoll+0x14a>
     eae:	8a e2       	ldi	r24, 0x2A	; 42
     eb0:	90 e0       	ldi	r25, 0x00	; 0
     eb2:	90 93 ac 03 	sts	0x03AC, r25
     eb6:	80 93 ab 03 	sts	0x03AB, r24
     eba:	90 ec       	ldi	r25, 0xC0	; 192
     ebc:	20 e1       	ldi	r18, 0x10	; 16
     ebe:	4d cf       	rjmp	.-358    	; 0xd5a <usbPoll+0x14a>
     ec0:	8a e3       	ldi	r24, 0x3A	; 58
     ec2:	90 e0       	ldi	r25, 0x00	; 0
     ec4:	90 93 ac 03 	sts	0x03AC, r25
     ec8:	80 93 ab 03 	sts	0x03AB, r24
     ecc:	90 ec       	ldi	r25, 0xC0	; 192
     ece:	2a e1       	ldi	r18, 0x1A	; 26
     ed0:	44 cf       	rjmp	.-376    	; 0xd5a <usbPoll+0x14a>

00000ed2 <usbCrc16>:
     ed2:	a8 2f       	mov	r26, r24
     ed4:	b9 2f       	mov	r27, r25
     ed6:	80 e0       	ldi	r24, 0x00	; 0
     ed8:	90 e0       	ldi	r25, 0x00	; 0
     eda:	41 e0       	ldi	r20, 0x01	; 1
     edc:	50 ea       	ldi	r21, 0xA0	; 160
     ede:	60 95       	com	r22

00000ee0 <crcByteLoop>:
     ee0:	6f 5f       	subi	r22, 0xFF	; 255
     ee2:	58 f4       	brcc	.+22     	; 0xefa <crcReady>
     ee4:	2d 91       	ld	r18, X+
     ee6:	38 ef       	ldi	r19, 0xF8	; 248
     ee8:	82 27       	eor	r24, r18

00000eea <crcBitLoop>:
     eea:	97 95       	ror	r25
     eec:	87 95       	ror	r24
     eee:	10 f0       	brcs	.+4      	; 0xef4 <crcNoXor>
     ef0:	84 27       	eor	r24, r20
     ef2:	95 27       	eor	r25, r21

00000ef4 <crcNoXor>:
     ef4:	3f 5f       	subi	r19, 0xFF	; 255
     ef6:	c8 f3       	brcs	.-14     	; 0xeea <crcBitLoop>
     ef8:	f3 cf       	rjmp	.-26     	; 0xee0 <crcByteLoop>

00000efa <crcReady>:
     efa:	08 95       	ret

00000efc <usbCrc16Append>:
     efc:	ea df       	rcall	.-44     	; 0xed2 <usbCrc16>
     efe:	8d 93       	st	X+, r24
     f00:	9d 93       	st	X+, r25
     f02:	08 95       	ret

00000f04 <__vector_1>:
     f04:	cf 93       	push	r28
     f06:	cf b7       	in	r28, 0x3f	; 63
     f08:	cf 93       	push	r28

00000f0a <waitForJ>:
     f0a:	b0 9b       	sbis	0x16, 0	; 22
     f0c:	fe cf       	rjmp	.-4      	; 0xf0a <waitForJ>

00000f0e <waitForK>:
     f0e:	b0 9b       	sbis	0x16, 0	; 22
     f10:	09 c0       	rjmp	.+18     	; 0xf24 <foundK>
     f12:	b0 9b       	sbis	0x16, 0	; 22
     f14:	07 c0       	rjmp	.+14     	; 0xf24 <foundK>
     f16:	b0 9b       	sbis	0x16, 0	; 22
     f18:	05 c0       	rjmp	.+10     	; 0xf24 <foundK>
     f1a:	b0 9b       	sbis	0x16, 0	; 22
     f1c:	03 c0       	rjmp	.+6      	; 0xf24 <foundK>
     f1e:	b0 9b       	sbis	0x16, 0	; 22
     f20:	01 c0       	rjmp	.+2      	; 0xf24 <foundK>
     f22:	a1 c0       	rjmp	.+322    	; 0x1066 <sofError>

00000f24 <foundK>:
     f24:	df 93       	push	r29
     f26:	c0 91 aa 03 	lds	r28, 0x03AA
     f2a:	dd 27       	eor	r29, r29
     f2c:	cf 54       	subi	r28, 0x4F	; 79
     f2e:	dc 4f       	sbci	r29, 0xFC	; 252
     f30:	b0 9b       	sbis	0x16, 0	; 22
     f32:	02 c0       	rjmp	.+4      	; 0xf38 <haveTwoBitsK>
     f34:	df 91       	pop	r29
     f36:	eb cf       	rjmp	.-42     	; 0xf0e <waitForK>

00000f38 <haveTwoBitsK>:
     f38:	2f 93       	push	r18
     f3a:	0f 93       	push	r16
     f3c:	1f 93       	push	r17
     f3e:	06 b3       	in	r16, 0x16	; 22
     f40:	2f ef       	ldi	r18, 0xFF	; 255
     f42:	00 fb       	bst	r16, 0
     f44:	20 f9       	bld	r18, 0
     f46:	4f 93       	push	r20
     f48:	3f 93       	push	r19
     f4a:	16 b3       	in	r17, 0x16	; 22
     f4c:	4f ef       	ldi	r20, 0xFF	; 255
     f4e:	01 27       	eor	r16, r17
     f50:	00 fb       	bst	r16, 0
     f52:	21 f9       	bld	r18, 1
     f54:	3b e0       	ldi	r19, 0x0B	; 11
     f56:	31 c0       	rjmp	.+98     	; 0xfba <rxbit2>

00000f58 <unstuff0>:
     f58:	4e 7f       	andi	r20, 0xFE	; 254
     f5a:	01 2f       	mov	r16, r17
     f5c:	16 b3       	in	r17, 0x16	; 22
     f5e:	21 60       	ori	r18, 0x01	; 1
     f60:	28 c0       	rjmp	.+80     	; 0xfb2 <didUnstuff0>

00000f62 <unstuff1>:
     f62:	10 2f       	mov	r17, r16
     f64:	4d 7f       	andi	r20, 0xFD	; 253
     f66:	22 60       	ori	r18, 0x02	; 2
     f68:	00 00       	nop
     f6a:	06 b3       	in	r16, 0x16	; 22
     f6c:	29 c0       	rjmp	.+82     	; 0xfc0 <didUnstuff1>

00000f6e <unstuff2>:
     f6e:	4b 7f       	andi	r20, 0xFB	; 251
     f70:	24 60       	ori	r18, 0x04	; 4
     f72:	01 2f       	mov	r16, r17
     f74:	00 00       	nop
     f76:	16 b3       	in	r17, 0x16	; 22
     f78:	2b c0       	rjmp	.+86     	; 0xfd0 <didUnstuff2>

00000f7a <unstuff3>:
     f7a:	16 b3       	in	r17, 0x16	; 22
     f7c:	47 7f       	andi	r20, 0xF7	; 247
     f7e:	28 60       	ori	r18, 0x08	; 8
     f80:	2a c0       	rjmp	.+84     	; 0xfd6 <didUnstuff3>

00000f82 <unstuff4>:
     f82:	4f 7e       	andi	r20, 0xEF	; 239
     f84:	06 b3       	in	r16, 0x16	; 22
     f86:	20 61       	ori	r18, 0x10	; 16
     f88:	2c c0       	rjmp	.+88     	; 0xfe2 <didUnstuff4>

00000f8a <unstuff5>:
     f8a:	4f 7d       	andi	r20, 0xDF	; 223
     f8c:	16 b3       	in	r17, 0x16	; 22
     f8e:	20 62       	ori	r18, 0x20	; 32
     f90:	2f c0       	rjmp	.+94     	; 0xff0 <didUnstuff5>

00000f92 <unstuff6>:
     f92:	4f 7b       	andi	r20, 0xBF	; 191
     f94:	06 b3       	in	r16, 0x16	; 22
     f96:	20 64       	ori	r18, 0x40	; 64
     f98:	32 c0       	rjmp	.+100    	; 0xffe <didUnstuff6>

00000f9a <rxLoop>:
     f9a:	42 27       	eor	r20, r18
     f9c:	06 b3       	in	r16, 0x16	; 22
     f9e:	49 93       	st	Y+, r20
     fa0:	4f ef       	ldi	r20, 0xFF	; 255
     fa2:	00 00       	nop
     fa4:	10 27       	eor	r17, r16
     fa6:	10 fb       	bst	r17, 0
     fa8:	20 f9       	bld	r18, 0
     faa:	16 b3       	in	r17, 0x16	; 22
     fac:	13 70       	andi	r17, 0x03	; 3
     fae:	c9 f1       	breq	.+114    	; 0x1022 <se0>
     fb0:	29 7f       	andi	r18, 0xF9	; 249

00000fb2 <didUnstuff0>:
     fb2:	91 f2       	breq	.-92     	; 0xf58 <unstuff0>
     fb4:	01 27       	eor	r16, r17
     fb6:	00 fb       	bst	r16, 0
     fb8:	21 f9       	bld	r18, 1

00000fba <rxbit2>:
     fba:	06 b3       	in	r16, 0x16	; 22
     fbc:	23 7f       	andi	r18, 0xF3	; 243
     fbe:	89 f2       	breq	.-94     	; 0xf62 <unstuff1>

00000fc0 <didUnstuff1>:
     fc0:	31 50       	subi	r19, 0x01	; 1
     fc2:	58 f1       	brcs	.+86     	; 0x101a <overflow>
     fc4:	10 27       	eor	r17, r16
     fc6:	10 fb       	bst	r17, 0
     fc8:	22 f9       	bld	r18, 2
     fca:	16 b3       	in	r17, 0x16	; 22
     fcc:	27 7e       	andi	r18, 0xE7	; 231
     fce:	79 f2       	breq	.-98     	; 0xf6e <unstuff2>

00000fd0 <didUnstuff2>:
     fd0:	01 27       	eor	r16, r17
     fd2:	00 fb       	bst	r16, 0
     fd4:	23 f9       	bld	r18, 3

00000fd6 <didUnstuff3>:
     fd6:	2f 7c       	andi	r18, 0xCF	; 207
     fd8:	81 f2       	breq	.-96     	; 0xf7a <unstuff3>
     fda:	06 b3       	in	r16, 0x16	; 22
     fdc:	10 27       	eor	r17, r16
     fde:	10 fb       	bst	r17, 0
     fe0:	24 f9       	bld	r18, 4

00000fe2 <didUnstuff4>:
     fe2:	2f 79       	andi	r18, 0x9F	; 159
     fe4:	71 f2       	breq	.-100    	; 0xf82 <unstuff4>
     fe6:	00 c0       	rjmp	.+0      	; 0xfe8 <didUnstuff4+0x6>
     fe8:	16 b3       	in	r17, 0x16	; 22
     fea:	01 27       	eor	r16, r17
     fec:	00 fb       	bst	r16, 0
     fee:	25 f9       	bld	r18, 5

00000ff0 <didUnstuff5>:
     ff0:	2f 73       	andi	r18, 0x3F	; 63
     ff2:	59 f2       	breq	.-106    	; 0xf8a <unstuff5>
     ff4:	00 c0       	rjmp	.+0      	; 0xff6 <didUnstuff5+0x6>
     ff6:	06 b3       	in	r16, 0x16	; 22
     ff8:	10 27       	eor	r17, r16
     ffa:	10 fb       	bst	r17, 0
     ffc:	26 f9       	bld	r18, 6

00000ffe <didUnstuff6>:
     ffe:	22 30       	cpi	r18, 0x02	; 2
    1000:	40 f2       	brcs	.-112    	; 0xf92 <unstuff6>
    1002:	00 c0       	rjmp	.+0      	; 0x1004 <didUnstuff6+0x6>
    1004:	16 b3       	in	r17, 0x16	; 22
    1006:	01 27       	eor	r16, r17
    1008:	00 fb       	bst	r16, 0
    100a:	27 f9       	bld	r18, 7

0000100c <didUnstuff7>:
    100c:	24 30       	cpi	r18, 0x04	; 4
    100e:	28 f6       	brcc	.-118    	; 0xf9a <rxLoop>

00001010 <unstuff7>:
    1010:	4f 77       	andi	r20, 0x7F	; 127
    1012:	20 68       	ori	r18, 0x80	; 128
    1014:	16 b3       	in	r17, 0x16	; 22
    1016:	00 00       	nop
    1018:	f9 cf       	rjmp	.-14     	; 0x100c <didUnstuff7>

0000101a <overflow>:
    101a:	10 e4       	ldi	r17, 0x40	; 64
    101c:	1a bf       	out	0x3a, r17	; 58

0000101e <ignorePacket>:
    101e:	00 27       	eor	r16, r16
    1020:	17 c0       	rjmp	.+46     	; 0x1050 <handleSetupOrOut>

00001022 <se0>:
    1022:	3b 50       	subi	r19, 0x0B	; 11
    1024:	31 95       	neg	r19
    1026:	c3 1b       	sub	r28, r19
    1028:	d0 40       	sbci	r29, 0x00	; 0
    102a:	10 e4       	ldi	r17, 0x40	; 64
    102c:	1a bf       	out	0x3a, r17	; 58
    102e:	08 81       	ld	r16, Y
    1030:	03 3c       	cpi	r16, 0xC3	; 195
    1032:	e9 f0       	breq	.+58     	; 0x106e <handleData>
    1034:	0b 34       	cpi	r16, 0x4B	; 75
    1036:	d9 f0       	breq	.+54     	; 0x106e <handleData>
    1038:	20 91 a8 03 	lds	r18, 0x03A8
    103c:	19 81       	ldd	r17, Y+1	; 0x01
    103e:	11 0f       	add	r17, r17
    1040:	12 13       	cpse	r17, r18
    1042:	ed cf       	rjmp	.-38     	; 0x101e <ignorePacket>
    1044:	09 36       	cpi	r16, 0x69	; 105
    1046:	41 f1       	breq	.+80     	; 0x1098 <handleIn>
    1048:	0d 32       	cpi	r16, 0x2D	; 45
    104a:	11 f0       	breq	.+4      	; 0x1050 <handleSetupOrOut>
    104c:	01 3e       	cpi	r16, 0xE1	; 225
    104e:	39 f7       	brne	.-50     	; 0x101e <ignorePacket>

00001050 <handleSetupOrOut>:
    1050:	00 93 af 03 	sts	0x03AF, r16

00001054 <doReturn>:
    1054:	3f 91       	pop	r19
    1056:	4f 91       	pop	r20
    1058:	1f 91       	pop	r17
    105a:	0f 91       	pop	r16
    105c:	2f 91       	pop	r18
    105e:	df 91       	pop	r29
    1060:	ca b7       	in	r28, 0x3a	; 58
    1062:	c6 fd       	sbrc	r28, 6
    1064:	52 cf       	rjmp	.-348    	; 0xf0a <waitForJ>

00001066 <sofError>:
    1066:	cf 91       	pop	r28
    1068:	cf bf       	out	0x3f, r28	; 63
    106a:	cf 91       	pop	r28
    106c:	18 95       	reti

0000106e <handleData>:
    106e:	00 91 af 03 	lds	r16, 0x03AF
    1072:	00 23       	and	r16, r16
    1074:	79 f3       	breq	.-34     	; 0x1054 <doReturn>
    1076:	10 91 ad 03 	lds	r17, 0x03AD
    107a:	11 23       	and	r17, r17
    107c:	49 f5       	brne	.+82     	; 0x10d0 <sendNakAndReti>
    107e:	34 30       	cpi	r19, 0x04	; 4
    1080:	4a f1       	brmi	.+82     	; 0x10d4 <sendAckAndReti>
    1082:	30 93 ad 03 	sts	0x03AD, r19
    1086:	00 93 a9 03 	sts	0x03A9, r16
    108a:	10 91 aa 03 	lds	r17, 0x03AA
    108e:	3b e0       	ldi	r19, 0x0B	; 11
    1090:	31 1b       	sub	r19, r17
    1092:	30 93 aa 03 	sts	0x03AA, r19
    1096:	1e c0       	rjmp	.+60     	; 0x10d4 <sendAckAndReti>

00001098 <handleIn>:
    1098:	00 91 ad 03 	lds	r16, 0x03AD
    109c:	01 30       	cpi	r16, 0x01	; 1
    109e:	c4 f4       	brge	.+48     	; 0x10d0 <sendNakAndReti>
    10a0:	0a e5       	ldi	r16, 0x5A	; 90
    10a2:	30 91 61 00 	lds	r19, 0x0061
    10a6:	34 fd       	sbrc	r19, 4
    10a8:	17 c0       	rjmp	.+46     	; 0x10d8 <sendCntAndReti>
    10aa:	00 93 61 00 	sts	0x0061, r16
    10ae:	cd e9       	ldi	r28, 0x9D	; 157
    10b0:	d3 e0       	ldi	r29, 0x03	; 3
    10b2:	16 c0       	rjmp	.+44     	; 0x10e0 <usbSendAndReti>

000010b4 <bitstuff0>:
    10b4:	05 27       	eor	r16, r21
    10b6:	10 e0       	ldi	r17, 0x00	; 0
    10b8:	08 bb       	out	0x18, r16	; 24
    10ba:	1f c0       	rjmp	.+62     	; 0x10fa <didStuff0>

000010bc <bitstuff1>:
    10bc:	05 27       	eor	r16, r21
    10be:	22 c0       	rjmp	.+68     	; 0x1104 <didStuff1>

000010c0 <bitstuff2>:
    10c0:	05 27       	eor	r16, r21
    10c2:	27 c0       	rjmp	.+78     	; 0x1112 <didStuff2>

000010c4 <bitstuff3>:
    10c4:	05 27       	eor	r16, r21
    10c6:	2c c0       	rjmp	.+88     	; 0x1120 <didStuff3>

000010c8 <bitstuff4>:
    10c8:	05 27       	eor	r16, r21
    10ca:	10 e0       	ldi	r17, 0x00	; 0
    10cc:	08 bb       	out	0x18, r16	; 24
    10ce:	33 c0       	rjmp	.+102    	; 0x1136 <didStuff4>

000010d0 <sendNakAndReti>:
    10d0:	4a e5       	ldi	r20, 0x5A	; 90
    10d2:	03 c0       	rjmp	.+6      	; 0x10da <usbSendX3>

000010d4 <sendAckAndReti>:
    10d4:	42 ed       	ldi	r20, 0xD2	; 210
    10d6:	01 c0       	rjmp	.+2      	; 0x10da <usbSendX3>

000010d8 <sendCntAndReti>:
    10d8:	43 2f       	mov	r20, r19

000010da <usbSendX3>:
    10da:	c4 e1       	ldi	r28, 0x14	; 20
    10dc:	d0 e0       	ldi	r29, 0x00	; 0
    10de:	32 e0       	ldi	r19, 0x02	; 2

000010e0 <usbSendAndReti>:
    10e0:	17 b3       	in	r17, 0x17	; 23
    10e2:	13 60       	ori	r17, 0x03	; 3
    10e4:	c0 9a       	sbi	0x18, 0	; 24
    10e6:	08 b3       	in	r16, 0x18	; 24
    10e8:	17 bb       	out	0x17, r17	; 23
    10ea:	5f 93       	push	r21
    10ec:	53 e0       	ldi	r21, 0x03	; 3
    10ee:	20 e8       	ldi	r18, 0x80	; 128

000010f0 <txLoop>:
    10f0:	20 ff       	sbrs	r18, 0
    10f2:	05 27       	eor	r16, r21
    10f4:	08 bb       	out	0x18, r16	; 24
    10f6:	27 95       	ror	r18
    10f8:	17 95       	ror	r17

000010fa <didStuff0>:
    10fa:	1c 3f       	cpi	r17, 0xFC	; 252
    10fc:	d8 f6       	brcc	.-74     	; 0x10b4 <bitstuff0>
    10fe:	20 ff       	sbrs	r18, 0
    1100:	05 27       	eor	r16, r21
    1102:	27 95       	ror	r18

00001104 <didStuff1>:
    1104:	08 bb       	out	0x18, r16	; 24
    1106:	17 95       	ror	r17
    1108:	1c 3f       	cpi	r17, 0xFC	; 252
    110a:	c0 f6       	brcc	.-80     	; 0x10bc <bitstuff1>
    110c:	20 ff       	sbrs	r18, 0
    110e:	05 27       	eor	r16, r21
    1110:	27 95       	ror	r18

00001112 <didStuff2>:
    1112:	17 95       	ror	r17
    1114:	08 bb       	out	0x18, r16	; 24
    1116:	1c 3f       	cpi	r17, 0xFC	; 252
    1118:	98 f6       	brcc	.-90     	; 0x10c0 <bitstuff2>
    111a:	20 ff       	sbrs	r18, 0
    111c:	05 27       	eor	r16, r21
    111e:	27 95       	ror	r18

00001120 <didStuff3>:
    1120:	17 95       	ror	r17
    1122:	1c 3f       	cpi	r17, 0xFC	; 252
    1124:	08 bb       	out	0x18, r16	; 24
    1126:	70 f6       	brcc	.-100    	; 0x10c4 <bitstuff3>
    1128:	00 c0       	rjmp	.+0      	; 0x112a <didStuff3+0xa>
    112a:	49 91       	ld	r20, Y+
    112c:	20 ff       	sbrs	r18, 0
    112e:	05 27       	eor	r16, r21
    1130:	08 bb       	out	0x18, r16	; 24
    1132:	27 95       	ror	r18
    1134:	17 95       	ror	r17

00001136 <didStuff4>:
    1136:	1c 3f       	cpi	r17, 0xFC	; 252
    1138:	38 f6       	brcc	.-114    	; 0x10c8 <bitstuff4>
    113a:	20 ff       	sbrs	r18, 0
    113c:	05 27       	eor	r16, r21
    113e:	27 95       	ror	r18

00001140 <didStuff5>:
    1140:	08 bb       	out	0x18, r16	; 24
    1142:	17 95       	ror	r17
    1144:	1c 3f       	cpi	r17, 0xFC	; 252
    1146:	38 f5       	brcc	.+78     	; 0x1196 <bitstuff5>
    1148:	20 ff       	sbrs	r18, 0
    114a:	05 27       	eor	r16, r21
    114c:	27 95       	ror	r18

0000114e <didStuff6>:
    114e:	17 95       	ror	r17
    1150:	08 bb       	out	0x18, r16	; 24
    1152:	1c 3f       	cpi	r17, 0xFC	; 252
    1154:	10 f5       	brcc	.+68     	; 0x119a <bitstuff6>
    1156:	20 ff       	sbrs	r18, 0
    1158:	05 27       	eor	r16, r21
    115a:	27 95       	ror	r18

0000115c <didStuff7>:
    115c:	17 95       	ror	r17
    115e:	1c 3f       	cpi	r17, 0xFC	; 252
    1160:	08 bb       	out	0x18, r16	; 24
    1162:	e8 f4       	brcc	.+58     	; 0x119e <bitstuff7>
    1164:	24 2f       	mov	r18, r20
    1166:	3a 95       	dec	r19
    1168:	19 f6       	brne	.-122    	; 0x10f0 <txLoop>
    116a:	0c 7f       	andi	r16, 0xFC	; 252
    116c:	5f 91       	pop	r21
    116e:	08 bb       	out	0x18, r16	; 24
    1170:	10 91 ae 03 	lds	r17, 0x03AE
    1174:	11 0f       	add	r17, r17
    1176:	c6 51       	subi	r28, 0x16	; 22
    1178:	d0 40       	sbci	r29, 0x00	; 0
    117a:	11 f0       	breq	.+4      	; 0x1180 <skipAddrAssign>
    117c:	10 93 a8 03 	sts	0x03A8, r17

00001180 <skipAddrAssign>:
    1180:	10 e4       	ldi	r17, 0x40	; 64
    1182:	1a bf       	out	0x3a, r17	; 58
    1184:	01 60       	ori	r16, 0x01	; 1
    1186:	17 b3       	in	r17, 0x17	; 23
    1188:	1c 7f       	andi	r17, 0xFC	; 252
    118a:	40 2f       	mov	r20, r16
    118c:	4c 7f       	andi	r20, 0xFC	; 252
    118e:	08 bb       	out	0x18, r16	; 24
    1190:	17 bb       	out	0x17, r17	; 23
    1192:	48 bb       	out	0x18, r20	; 24
    1194:	5f cf       	rjmp	.-322    	; 0x1054 <doReturn>

00001196 <bitstuff5>:
    1196:	05 27       	eor	r16, r21
    1198:	d3 cf       	rjmp	.-90     	; 0x1140 <didStuff5>

0000119a <bitstuff6>:
    119a:	05 27       	eor	r16, r21
    119c:	d8 cf       	rjmp	.-80     	; 0x114e <didStuff6>

0000119e <bitstuff7>:
    119e:	05 27       	eor	r16, r21
    11a0:	dd cf       	rjmp	.-70     	; 0x115c <didStuff7>

000011a2 <usbFunctionWrite>:
    11a2:	cf 93       	push	r28
    11a4:	df 93       	push	r29
    11a6:	ec 01       	movw	r28, r24
    11a8:	80 91 0c 03 	lds	r24, 0x030C
    11ac:	82 30       	cpi	r24, 0x02	; 2
    11ae:	09 f4       	brne	.+2      	; 0x11b2 <usbFunctionWrite+0x10>
    11b0:	3f c0       	rjmp	.+126    	; 0x1230 <usbFunctionWrite+0x8e>
    11b2:	80 91 6b 00 	lds	r24, 0x006B
    11b6:	86 17       	cp	r24, r22
    11b8:	c8 f1       	brcs	.+114    	; 0x122c <usbFunctionWrite+0x8a>
    11ba:	86 1b       	sub	r24, r22
    11bc:	80 93 6b 00 	sts	0x006B, r24
    11c0:	70 e0       	ldi	r23, 0x00	; 0
    11c2:	61 15       	cp	r22, r1
    11c4:	71 05       	cpc	r23, r1
    11c6:	e9 f0       	breq	.+58     	; 0x1202 <usbFunctionWrite+0x60>
    11c8:	40 91 6c 00 	lds	r20, 0x006C
    11cc:	50 91 6d 00 	lds	r21, 0x006D
    11d0:	20 e0       	ldi	r18, 0x00	; 0
    11d2:	30 e0       	ldi	r19, 0x00	; 0
    11d4:	4f 3f       	cpi	r20, 0xFF	; 255
    11d6:	51 05       	cpc	r21, r1
    11d8:	09 f0       	breq	.+2      	; 0x11dc <usbFunctionWrite+0x3a>
    11da:	50 f4       	brcc	.+20     	; 0x11f0 <usbFunctionWrite+0x4e>
    11dc:	fa 01       	movw	r30, r20
    11de:	e2 59       	subi	r30, 0x92	; 146
    11e0:	ff 4f       	sbci	r31, 0xFF	; 255
    11e2:	de 01       	movw	r26, r28
    11e4:	a2 0f       	add	r26, r18
    11e6:	b3 1f       	adc	r27, r19
    11e8:	8c 91       	ld	r24, X
    11ea:	80 83       	st	Z, r24
    11ec:	4f 5f       	subi	r20, 0xFF	; 255
    11ee:	5f 4f       	sbci	r21, 0xFF	; 255
    11f0:	2f 5f       	subi	r18, 0xFF	; 255
    11f2:	3f 4f       	sbci	r19, 0xFF	; 255
    11f4:	26 17       	cp	r18, r22
    11f6:	37 07       	cpc	r19, r23
    11f8:	68 f3       	brcs	.-38     	; 0x11d4 <usbFunctionWrite+0x32>
    11fa:	50 93 6d 00 	sts	0x006D, r21
    11fe:	40 93 6c 00 	sts	0x006C, r20
    1202:	80 91 6c 00 	lds	r24, 0x006C
    1206:	90 91 6d 00 	lds	r25, 0x006D
    120a:	8f 3f       	cpi	r24, 0xFF	; 255
    120c:	91 05       	cpc	r25, r1
    120e:	21 f0       	breq	.+8      	; 0x1218 <usbFunctionWrite+0x76>
    1210:	18 f0       	brcs	.+6      	; 0x1218 <usbFunctionWrite+0x76>
    1212:	8b e0       	ldi	r24, 0x0B	; 11
    1214:	80 93 0c 03 	sts	0x030C, r24
    1218:	90 e0       	ldi	r25, 0x00	; 0
    121a:	80 91 6b 00 	lds	r24, 0x006B
    121e:	88 23       	and	r24, r24
    1220:	09 f4       	brne	.+2      	; 0x1224 <usbFunctionWrite+0x82>
    1222:	91 e0       	ldi	r25, 0x01	; 1
    1224:	89 2f       	mov	r24, r25
    1226:	df 91       	pop	r29
    1228:	cf 91       	pop	r28
    122a:	08 95       	ret
    122c:	68 2f       	mov	r22, r24
    122e:	c5 cf       	rjmp	.-118    	; 0x11ba <usbFunctionWrite+0x18>
    1230:	80 91 6b 00 	lds	r24, 0x006B
    1234:	86 17       	cp	r24, r22
    1236:	20 f1       	brcs	.+72     	; 0x1280 <usbFunctionWrite+0xde>
    1238:	86 1b       	sub	r24, r22
    123a:	80 93 6b 00 	sts	0x006B, r24
    123e:	70 e0       	ldi	r23, 0x00	; 0
    1240:	61 15       	cp	r22, r1
    1242:	71 05       	cpc	r23, r1
    1244:	49 f3       	breq	.-46     	; 0x1218 <usbFunctionWrite+0x76>
    1246:	40 91 6c 00 	lds	r20, 0x006C
    124a:	50 91 6d 00 	lds	r21, 0x006D
    124e:	20 e0       	ldi	r18, 0x00	; 0
    1250:	30 e0       	ldi	r19, 0x00	; 0
    1252:	43 30       	cpi	r20, 0x03	; 3
    1254:	51 05       	cpc	r21, r1
    1256:	50 f4       	brcc	.+20     	; 0x126c <usbFunctionWrite+0xca>
    1258:	fa 01       	movw	r30, r20
    125a:	ef 58       	subi	r30, 0x8F	; 143
    125c:	fe 4f       	sbci	r31, 0xFE	; 254
    125e:	de 01       	movw	r26, r28
    1260:	a2 0f       	add	r26, r18
    1262:	b3 1f       	adc	r27, r19
    1264:	8c 91       	ld	r24, X
    1266:	80 83       	st	Z, r24
    1268:	4f 5f       	subi	r20, 0xFF	; 255
    126a:	5f 4f       	sbci	r21, 0xFF	; 255
    126c:	2f 5f       	subi	r18, 0xFF	; 255
    126e:	3f 4f       	sbci	r19, 0xFF	; 255
    1270:	26 17       	cp	r18, r22
    1272:	37 07       	cpc	r19, r23
    1274:	70 f3       	brcs	.-36     	; 0x1252 <usbFunctionWrite+0xb0>
    1276:	50 93 6d 00 	sts	0x006D, r21
    127a:	40 93 6c 00 	sts	0x006C, r20
    127e:	cc cf       	rjmp	.-104    	; 0x1218 <usbFunctionWrite+0x76>
    1280:	68 2f       	mov	r22, r24
    1282:	da cf       	rjmp	.-76     	; 0x1238 <usbFunctionWrite+0x96>

00001284 <usbFunctionSetup>:
    1284:	fc 01       	movw	r30, r24
    1286:	91 81       	ldd	r25, Z+1	; 0x01
    1288:	99 23       	and	r25, r25
    128a:	81 f4       	brne	.+32     	; 0x12ac <usbFunctionSetup+0x28>
    128c:	ab 98       	cbi	0x15, 3	; 21
    128e:	23 e6       	ldi	r18, 0x63	; 99
    1290:	30 e0       	ldi	r19, 0x00	; 0
    1292:	82 81       	ldd	r24, Z+2	; 0x02
    1294:	80 93 63 00 	sts	0x0063, r24
    1298:	83 81       	ldd	r24, Z+3	; 0x03
    129a:	80 93 64 00 	sts	0x0064, r24
    129e:	ab 9a       	sbi	0x15, 3	; 21
    12a0:	82 e0       	ldi	r24, 0x02	; 2
    12a2:	30 93 ac 03 	sts	0x03AC, r19
    12a6:	20 93 ab 03 	sts	0x03AB, r18
    12aa:	08 95       	ret
    12ac:	91 30       	cpi	r25, 0x01	; 1
    12ae:	31 f1       	breq	.+76     	; 0x12fc <usbFunctionSetup+0x78>
    12b0:	92 30       	cpi	r25, 0x02	; 2
    12b2:	09 f4       	brne	.+2      	; 0x12b6 <usbFunctionSetup+0x32>
    12b4:	47 c0       	rjmp	.+142    	; 0x1344 <usbFunctionSetup+0xc0>
    12b6:	93 30       	cpi	r25, 0x03	; 3
    12b8:	c1 f1       	breq	.+112    	; 0x132a <usbFunctionSetup+0xa6>
    12ba:	94 30       	cpi	r25, 0x04	; 4
    12bc:	09 f4       	brne	.+2      	; 0x12c0 <usbFunctionSetup+0x3c>
    12be:	62 c0       	rjmp	.+196    	; 0x1384 <usbFunctionSetup+0x100>
    12c0:	95 30       	cpi	r25, 0x05	; 5
    12c2:	09 f4       	brne	.+2      	; 0x12c6 <usbFunctionSetup+0x42>
    12c4:	86 c0       	rjmp	.+268    	; 0x13d2 <usbFunctionSetup+0x14e>
    12c6:	96 30       	cpi	r25, 0x06	; 6
    12c8:	09 f4       	brne	.+2      	; 0x12cc <usbFunctionSetup+0x48>
    12ca:	ba c0       	rjmp	.+372    	; 0x1440 <usbFunctionSetup+0x1bc>
    12cc:	97 30       	cpi	r25, 0x07	; 7
    12ce:	91 f5       	brne	.+100    	; 0x1334 <usbFunctionSetup+0xb0>
    12d0:	80 91 0c 03 	lds	r24, 0x030C
    12d4:	8a 30       	cpi	r24, 0x0A	; 10
    12d6:	09 f4       	brne	.+2      	; 0x12da <usbFunctionSetup+0x56>
    12d8:	ad c0       	rjmp	.+346    	; 0x1434 <usbFunctionSetup+0x1b0>
    12da:	8d 30       	cpi	r24, 0x0D	; 13
    12dc:	09 f4       	brne	.+2      	; 0x12e0 <usbFunctionSetup+0x5c>
    12de:	aa c0       	rjmp	.+340    	; 0x1434 <usbFunctionSetup+0x1b0>
    12e0:	8f 30       	cpi	r24, 0x0F	; 15
    12e2:	09 f4       	brne	.+2      	; 0x12e6 <usbFunctionSetup+0x62>
    12e4:	a7 c0       	rjmp	.+334    	; 0x1434 <usbFunctionSetup+0x1b0>
    12e6:	8e 30       	cpi	r24, 0x0E	; 14
    12e8:	29 f5       	brne	.+74     	; 0x1334 <usbFunctionSetup+0xb0>
    12ea:	23 e6       	ldi	r18, 0x63	; 99
    12ec:	30 e0       	ldi	r19, 0x00	; 0
    12ee:	80 93 63 00 	sts	0x0063, r24
    12f2:	8c e0       	ldi	r24, 0x0C	; 12
    12f4:	80 93 0c 03 	sts	0x030C, r24
    12f8:	81 e0       	ldi	r24, 0x01	; 1
    12fa:	d3 cf       	rjmp	.-90     	; 0x12a2 <usbFunctionSetup+0x1e>
    12fc:	80 91 0c 03 	lds	r24, 0x030C
    1300:	80 31       	cpi	r24, 0x10	; 16
    1302:	09 f4       	brne	.+2      	; 0x1306 <usbFunctionSetup+0x82>
    1304:	74 c0       	rjmp	.+232    	; 0x13ee <usbFunctionSetup+0x16a>
    1306:	10 92 6d 00 	sts	0x006D, r1
    130a:	10 92 6c 00 	sts	0x006C, r1
    130e:	23 e6       	ldi	r18, 0x63	; 99
    1310:	30 e0       	ldi	r19, 0x00	; 0
    1312:	83 e0       	ldi	r24, 0x03	; 3
    1314:	80 93 63 00 	sts	0x0063, r24
    1318:	8a e0       	ldi	r24, 0x0A	; 10
    131a:	80 93 0c 03 	sts	0x030C, r24
    131e:	81 e0       	ldi	r24, 0x01	; 1
    1320:	30 93 ac 03 	sts	0x03AC, r19
    1324:	20 93 ab 03 	sts	0x03AB, r18
    1328:	08 95       	ret
    132a:	80 91 0c 03 	lds	r24, 0x030C
    132e:	8a 30       	cpi	r24, 0x0A	; 10
    1330:	09 f4       	brne	.+2      	; 0x1334 <usbFunctionSetup+0xb0>
    1332:	6a c0       	rjmp	.+212    	; 0x1408 <usbFunctionSetup+0x184>
    1334:	80 e0       	ldi	r24, 0x00	; 0
    1336:	23 e6       	ldi	r18, 0x63	; 99
    1338:	30 e0       	ldi	r19, 0x00	; 0
    133a:	30 93 ac 03 	sts	0x03AC, r19
    133e:	20 93 ab 03 	sts	0x03AB, r18
    1342:	08 95       	ret
    1344:	80 91 0c 03 	lds	r24, 0x030C
    1348:	80 31       	cpi	r24, 0x10	; 16
    134a:	81 f4       	brne	.+32     	; 0x136c <usbFunctionSetup+0xe8>
    134c:	90 93 0c 03 	sts	0x030C, r25
    1350:	10 92 6d 00 	sts	0x006D, r1
    1354:	10 92 6c 00 	sts	0x006C, r1
    1358:	86 81       	ldd	r24, Z+6	; 0x06
    135a:	80 93 6b 00 	sts	0x006B, r24
    135e:	84 30       	cpi	r24, 0x04	; 4
    1360:	58 f1       	brcs	.+86     	; 0x13b8 <usbFunctionSetup+0x134>
    1362:	83 e0       	ldi	r24, 0x03	; 3
    1364:	80 93 6b 00 	sts	0x006B, r24
    1368:	8f ef       	ldi	r24, 0xFF	; 255
    136a:	08 95       	ret
    136c:	82 30       	cpi	r24, 0x02	; 2
    136e:	31 f1       	breq	.+76     	; 0x13bc <usbFunctionSetup+0x138>
    1370:	23 e6       	ldi	r18, 0x63	; 99
    1372:	30 e0       	ldi	r19, 0x00	; 0
    1374:	83 e0       	ldi	r24, 0x03	; 3
    1376:	80 93 63 00 	sts	0x0063, r24
    137a:	8c e0       	ldi	r24, 0x0C	; 12
    137c:	80 93 0c 03 	sts	0x030C, r24
    1380:	81 e0       	ldi	r24, 0x01	; 1
    1382:	8f cf       	rjmp	.-226    	; 0x12a2 <usbFunctionSetup+0x1e>
    1384:	80 91 0c 03 	lds	r24, 0x030C
    1388:	8d 30       	cpi	r24, 0x0D	; 13
    138a:	a1 f6       	brne	.-88     	; 0x1334 <usbFunctionSetup+0xb0>
    138c:	80 e8       	ldi	r24, 0x80	; 128
    138e:	80 93 6b 00 	sts	0x006B, r24
    1392:	86 81       	ldd	r24, Z+6	; 0x06
    1394:	97 81       	ldd	r25, Z+7	; 0x07
    1396:	80 38       	cpi	r24, 0x80	; 128
    1398:	91 05       	cpc	r25, r1
    139a:	10 f4       	brcc	.+4      	; 0x13a0 <usbFunctionSetup+0x11c>
    139c:	80 93 6b 00 	sts	0x006B, r24
    13a0:	8e e6       	ldi	r24, 0x6E	; 110
    13a2:	90 e0       	ldi	r25, 0x00	; 0
    13a4:	90 93 ac 03 	sts	0x03AC, r25
    13a8:	80 93 ab 03 	sts	0x03AB, r24
    13ac:	8e e0       	ldi	r24, 0x0E	; 14
    13ae:	80 93 0c 03 	sts	0x030C, r24
    13b2:	80 91 6b 00 	lds	r24, 0x006B
    13b6:	08 95       	ret
    13b8:	8f ef       	ldi	r24, 0xFF	; 255
    13ba:	08 95       	ret
    13bc:	82 81       	ldd	r24, Z+2	; 0x02
    13be:	80 93 76 01 	sts	0x0176, r24
    13c2:	6c da       	rcall	.-2856   	; 0x89c <awalTransmisi>
    13c4:	83 e0       	ldi	r24, 0x03	; 3
    13c6:	80 93 0c 03 	sts	0x030C, r24
    13ca:	80 e0       	ldi	r24, 0x00	; 0
    13cc:	23 e6       	ldi	r18, 0x63	; 99
    13ce:	30 e0       	ldi	r19, 0x00	; 0
    13d0:	68 cf       	rjmp	.-304    	; 0x12a2 <usbFunctionSetup+0x1e>
    13d2:	80 91 0c 03 	lds	r24, 0x030C
    13d6:	87 30       	cpi	r24, 0x07	; 7
    13d8:	09 f4       	brne	.+2      	; 0x13dc <usbFunctionSetup+0x158>
    13da:	56 c0       	rjmp	.+172    	; 0x1488 <usbFunctionSetup+0x204>
    13dc:	89 e0       	ldi	r24, 0x09	; 9
    13de:	80 93 0c 03 	sts	0x030C, r24
    13e2:	23 e6       	ldi	r18, 0x63	; 99
    13e4:	30 e0       	ldi	r19, 0x00	; 0
    13e6:	80 93 63 00 	sts	0x0063, r24
    13ea:	81 e0       	ldi	r24, 0x01	; 1
    13ec:	5a cf       	rjmp	.-332    	; 0x12a2 <usbFunctionSetup+0x1e>
    13ee:	90 93 0c 03 	sts	0x030C, r25
    13f2:	82 81       	ldd	r24, Z+2	; 0x02
    13f4:	80 93 76 01 	sts	0x0176, r24
    13f8:	83 81       	ldd	r24, Z+3	; 0x03
    13fa:	80 93 09 03 	sts	0x0309, r24
    13fe:	4e da       	rcall	.-2916   	; 0x89c <awalTransmisi>
    1400:	80 e0       	ldi	r24, 0x00	; 0
    1402:	23 e6       	ldi	r18, 0x63	; 99
    1404:	30 e0       	ldi	r19, 0x00	; 0
    1406:	4d cf       	rjmp	.-358    	; 0x12a2 <usbFunctionSetup+0x1e>
    1408:	82 81       	ldd	r24, Z+2	; 0x02
    140a:	81 30       	cpi	r24, 0x01	; 1
    140c:	81 f1       	breq	.+96     	; 0x146e <usbFunctionSetup+0x1ea>
    140e:	80 91 6c 00 	lds	r24, 0x006C
    1412:	90 91 6d 00 	lds	r25, 0x006D
    1416:	8f 3f       	cpi	r24, 0xFF	; 255
    1418:	91 05       	cpc	r25, r1
    141a:	11 f0       	breq	.+4      	; 0x1420 <usbFunctionSetup+0x19c>
    141c:	08 f0       	brcs	.+2      	; 0x1420 <usbFunctionSetup+0x19c>
    141e:	8a cf       	rjmp	.-236    	; 0x1334 <usbFunctionSetup+0xb0>
    1420:	86 81       	ldd	r24, Z+6	; 0x06
    1422:	80 93 6b 00 	sts	0x006B, r24
    1426:	81 38       	cpi	r24, 0x81	; 129
    1428:	38 f2       	brcs	.-114    	; 0x13b8 <usbFunctionSetup+0x134>
    142a:	80 e8       	ldi	r24, 0x80	; 128
    142c:	80 93 6b 00 	sts	0x006B, r24
    1430:	8f ef       	ldi	r24, 0xFF	; 255
    1432:	08 95       	ret
    1434:	23 e6       	ldi	r18, 0x63	; 99
    1436:	30 e0       	ldi	r19, 0x00	; 0
    1438:	80 93 63 00 	sts	0x0063, r24
    143c:	81 e0       	ldi	r24, 0x01	; 1
    143e:	31 cf       	rjmp	.-414    	; 0x12a2 <usbFunctionSetup+0x1e>
    1440:	8f ef       	ldi	r24, 0xFF	; 255
    1442:	84 bb       	out	0x14, r24	; 20
    1444:	8d ef       	ldi	r24, 0xFD	; 253
    1446:	85 bb       	out	0x15, r24	; 21
    1448:	bb 9a       	sbi	0x17, 3	; 23
    144a:	89 9a       	sbi	0x11, 1	; 17
    144c:	90 9a       	sbi	0x12, 0	; 18
    144e:	42 d6       	rcall	.+3204   	; 0x20d4 <__data_load_end+0xb8e>
    1450:	89 e1       	ldi	r24, 0x19	; 25
    1452:	85 bd       	out	0x25, r24	; 37
    1454:	d7 d6       	rcall	.+3502   	; 0x2204 <__data_load_end+0xcbe>
    1456:	57 98       	cbi	0x0a, 7	; 10
    1458:	54 98       	cbi	0x0a, 4	; 10
    145a:	f9 d6       	rcall	.+3570   	; 0x224e <__data_load_end+0xd08>
    145c:	80 e1       	ldi	r24, 0x10	; 16
    145e:	80 93 0c 03 	sts	0x030C, r24
    1462:	23 e6       	ldi	r18, 0x63	; 99
    1464:	30 e0       	ldi	r19, 0x00	; 0
    1466:	80 93 63 00 	sts	0x0063, r24
    146a:	81 e0       	ldi	r24, 0x01	; 1
    146c:	1a cf       	rjmp	.-460    	; 0x12a2 <usbFunctionSetup+0x1e>
    146e:	83 81       	ldd	r24, Z+3	; 0x03
    1470:	8f 3f       	cpi	r24, 0xFF	; 255
    1472:	69 f6       	brne	.-102    	; 0x140e <usbFunctionSetup+0x18a>
    1474:	8b e0       	ldi	r24, 0x0B	; 11
    1476:	80 93 0c 03 	sts	0x030C, r24
    147a:	23 e6       	ldi	r18, 0x63	; 99
    147c:	30 e0       	ldi	r19, 0x00	; 0
    147e:	86 e0       	ldi	r24, 0x06	; 6
    1480:	80 93 63 00 	sts	0x0063, r24
    1484:	81 e0       	ldi	r24, 0x01	; 1
    1486:	0d cf       	rjmp	.-486    	; 0x12a2 <usbFunctionSetup+0x1e>
    1488:	88 e0       	ldi	r24, 0x08	; 8
    148a:	80 93 0c 03 	sts	0x030C, r24
    148e:	ad d8       	rcall	.-3750   	; 0x5ea <akhirTransmisi>
    1490:	80 e0       	ldi	r24, 0x00	; 0
    1492:	23 e6       	ldi	r18, 0x63	; 99
    1494:	30 e0       	ldi	r19, 0x00	; 0
    1496:	05 cf       	rjmp	.-502    	; 0x12a2 <usbFunctionSetup+0x1e>

00001498 <enumerateUSB>:
    1498:	8c ef       	ldi	r24, 0xFC	; 252
    149a:	88 bb       	out	0x18, r24	; 24
    149c:	83 e0       	ldi	r24, 0x03	; 3
    149e:	87 bb       	out	0x17, r24	; 23
    14a0:	17 ba       	out	0x17, r1	; 23
    14a2:	af db       	rcall	.-2210   	; 0xc02 <usbInit>
    14a4:	08 95       	ret

000014a6 <inisialisasi>:
    14a6:	f8 df       	rcall	.-16     	; 0x1498 <enumerateUSB>
    14a8:	8f ef       	ldi	r24, 0xFF	; 255
    14aa:	84 bb       	out	0x14, r24	; 20
    14ac:	8d ef       	ldi	r24, 0xFD	; 253
    14ae:	85 bb       	out	0x15, r24	; 21
    14b0:	bb 9a       	sbi	0x17, 3	; 23
    14b2:	89 9a       	sbi	0x11, 1	; 17
    14b4:	90 9a       	sbi	0x12, 0	; 18
    14b6:	0e d6       	rcall	.+3100   	; 0x20d4 <__data_load_end+0xb8e>
    14b8:	89 e1       	ldi	r24, 0x19	; 25
    14ba:	85 bd       	out	0x25, r24	; 37
    14bc:	a3 d6       	rcall	.+3398   	; 0x2204 <__data_load_end+0xcbe>
    14be:	57 98       	cbi	0x0a, 7	; 10
    14c0:	54 98       	cbi	0x0a, 4	; 10
    14c2:	c5 d6       	rcall	.+3466   	; 0x224e <__data_load_end+0xd08>
    14c4:	08 95       	ret

000014c6 <main>:
    14c6:	ff 92       	push	r15
    14c8:	0f 93       	push	r16
    14ca:	1f 93       	push	r17
    14cc:	ec df       	rcall	.-40     	; 0x14a6 <inisialisasi>
    14ce:	78 94       	sei
    14d0:	01 e0       	ldi	r16, 0x01	; 1
    14d2:	1f ef       	ldi	r17, 0xFF	; 255
    14d4:	3a e0       	ldi	r19, 0x0A	; 10
    14d6:	f3 2e       	mov	r15, r19
    14d8:	9b db       	rcall	.-2250   	; 0xc10 <usbPoll>
    14da:	80 91 0c 03 	lds	r24, 0x030C
    14de:	8b 30       	cpi	r24, 0x0B	; 11
    14e0:	51 f0       	breq	.+20     	; 0x14f6 <main+0x30>
    14e2:	8c 30       	cpi	r24, 0x0C	; 12
    14e4:	c9 f7       	brne	.-14     	; 0x14d8 <main+0x12>
    14e6:	a9 9a       	sbi	0x15, 1	; 21
    14e8:	fb d9       	rcall	.-3082   	; 0x8e0 <terimaTransmisi>
    14ea:	a9 98       	cbi	0x15, 1	; 21
    14ec:	91 db       	rcall	.-2270   	; 0xc10 <usbPoll>
    14ee:	80 91 0c 03 	lds	r24, 0x030C
    14f2:	8b 30       	cpi	r24, 0x0B	; 11
    14f4:	b1 f7       	brne	.-20     	; 0x14e2 <main+0x1c>
    14f6:	a9 9a       	sbi	0x15, 1	; 21
    14f8:	06 d9       	rcall	.-3572   	; 0x706 <eksekusiTransmisi>
    14fa:	90 91 74 01 	lds	r25, 0x0174
    14fe:	80 91 09 03 	lds	r24, 0x0309
    1502:	98 17       	cp	r25, r24
    1504:	48 f7       	brcc	.-46     	; 0x14d8 <main+0x12>
    1506:	10 92 6d 00 	sts	0x006D, r1
    150a:	10 92 6c 00 	sts	0x006C, r1
    150e:	80 91 6e 01 	lds	r24, 0x016E
    1512:	8f 5f       	subi	r24, 0xFF	; 255
    1514:	80 93 6e 01 	sts	0x016E, r24
    1518:	90 e0       	ldi	r25, 0x00	; 0
    151a:	88 0f       	add	r24, r24
    151c:	99 1f       	adc	r25, r25
    151e:	80 93 74 01 	sts	0x0174, r24
    1522:	8f 5f       	subi	r24, 0xFF	; 255
    1524:	80 93 0e 03 	sts	0x030E, r24
    1528:	00 93 0a 03 	sts	0x030A, r16
    152c:	ee e6       	ldi	r30, 0x6E	; 110
    152e:	f0 e0       	ldi	r31, 0x00	; 0
    1530:	11 93       	st	Z+, r17
    1532:	81 e0       	ldi	r24, 0x01	; 1
    1534:	ee 36       	cpi	r30, 0x6E	; 110
    1536:	f8 07       	cpc	r31, r24
    1538:	d9 f7       	brne	.-10     	; 0x1530 <main+0x6a>
    153a:	f0 92 0c 03 	sts	0x030C, r15
    153e:	cc cf       	rjmp	.-104    	; 0x14d8 <main+0x12>

00001540 <_exit>:
    1540:	f8 94       	cli

00001542 <__stop_program>:
    1542:	ff cf       	rjmp	.-2      	; 0x1542 <__stop_program>
