
lito.elf:     file format elf32-avr

Sections:
Idx Name          Size      VMA       LMA       File off  Algn
  0 .data         000001aa  00800100  00003ee2  00003f76  2**0
                  CONTENTS, ALLOC, LOAD, DATA
  1 .text         00003ee2  00000000  00000000  00000094  2**1
                  CONTENTS, ALLOC, LOAD, READONLY, CODE
  2 .bss          000001c1  008002aa  008002aa  00004120  2**0
                  ALLOC
  3 .debug_aranges 00000220  00000000  00000000  00004120  2**0
                  CONTENTS, READONLY, DEBUGGING
  4 .debug_pubnames 000009da  00000000  00000000  00004340  2**0
                  CONTENTS, READONLY, DEBUGGING
  5 .debug_info   00003fd1  00000000  00000000  00004d1a  2**0
                  CONTENTS, READONLY, DEBUGGING
  6 .debug_abbrev 00001b36  00000000  00000000  00008ceb  2**0
                  CONTENTS, READONLY, DEBUGGING
  7 .debug_line   00002608  00000000  00000000  0000a821  2**0
                  CONTENTS, READONLY, DEBUGGING
  8 .debug_frame  00000650  00000000  00000000  0000ce2c  2**2
                  CONTENTS, READONLY, DEBUGGING
  9 .debug_str    00000d6a  00000000  00000000  0000d47c  2**0
                  CONTENTS, READONLY, DEBUGGING
 10 .debug_loc    0000137b  00000000  00000000  0000e1e6  2**0
                  CONTENTS, READONLY, DEBUGGING
 11 .debug_ranges 000000e0  00000000  00000000  0000f561  2**0
                  CONTENTS, READONLY, DEBUGGING

Disassembly of section .text:

00000000 <__vectors>:
       0:	0c 94 38 09 	jmp	0x1270	; 0x1270 <__ctors_end>
       4:	0c 94 55 09 	jmp	0x12aa	; 0x12aa <__bad_interrupt>
       8:	0c 94 55 09 	jmp	0x12aa	; 0x12aa <__bad_interrupt>
       c:	0c 94 85 11 	jmp	0x230a	; 0x230a <__vector_3>
      10:	0c 94 55 09 	jmp	0x12aa	; 0x12aa <__bad_interrupt>
      14:	0c 94 55 09 	jmp	0x12aa	; 0x12aa <__bad_interrupt>
      18:	0c 94 55 09 	jmp	0x12aa	; 0x12aa <__bad_interrupt>
      1c:	0c 94 55 09 	jmp	0x12aa	; 0x12aa <__bad_interrupt>
      20:	0c 94 55 09 	jmp	0x12aa	; 0x12aa <__bad_interrupt>
      24:	0c 94 b5 11 	jmp	0x236a	; 0x236a <__vector_9>
      28:	0c 94 55 09 	jmp	0x12aa	; 0x12aa <__bad_interrupt>
      2c:	0c 94 55 09 	jmp	0x12aa	; 0x12aa <__bad_interrupt>
      30:	0c 94 55 09 	jmp	0x12aa	; 0x12aa <__bad_interrupt>
      34:	0c 94 55 09 	jmp	0x12aa	; 0x12aa <__bad_interrupt>
      38:	0c 94 55 09 	jmp	0x12aa	; 0x12aa <__bad_interrupt>
      3c:	0c 94 55 09 	jmp	0x12aa	; 0x12aa <__bad_interrupt>
      40:	0c 94 ef 11 	jmp	0x23de	; 0x23de <__vector_16>
      44:	0c 94 55 09 	jmp	0x12aa	; 0x12aa <__bad_interrupt>
      48:	0c 94 36 12 	jmp	0x246c	; 0x246c <__vector_18>
      4c:	0c 94 55 09 	jmp	0x12aa	; 0x12aa <__bad_interrupt>
      50:	0c 94 55 09 	jmp	0x12aa	; 0x12aa <__bad_interrupt>
      54:	0c 94 55 09 	jmp	0x12aa	; 0x12aa <__bad_interrupt>
      58:	0c 94 55 09 	jmp	0x12aa	; 0x12aa <__bad_interrupt>
      5c:	0c 94 55 09 	jmp	0x12aa	; 0x12aa <__bad_interrupt>
      60:	0c 94 55 09 	jmp	0x12aa	; 0x12aa <__bad_interrupt>
      64:	0c 94 55 09 	jmp	0x12aa	; 0x12aa <__bad_interrupt>
      68:	0c 94 55 09 	jmp	0x12aa	; 0x12aa <__bad_interrupt>
      6c:	0c 94 55 09 	jmp	0x12aa	; 0x12aa <__bad_interrupt>
      70:	0c 94 55 09 	jmp	0x12aa	; 0x12aa <__bad_interrupt>
      74:	0c 94 55 09 	jmp	0x12aa	; 0x12aa <__bad_interrupt>
      78:	0c 94 55 09 	jmp	0x12aa	; 0x12aa <__bad_interrupt>
      7c:	0c 94 55 09 	jmp	0x12aa	; 0x12aa <__bad_interrupt>
      80:	0c 94 55 09 	jmp	0x12aa	; 0x12aa <__bad_interrupt>
      84:	0c 94 55 09 	jmp	0x12aa	; 0x12aa <__bad_interrupt>
      88:	0c 94 55 09 	jmp	0x12aa	; 0x12aa <__bad_interrupt>
      8c:	05 a8       	ldd	r0, Z+53	; 0x35
      8e:	4c cd       	rjmp	.-1384   	; 0xfffffb28 <__eeprom_end+0xff7efb28>
      90:	b2 d4       	rcall	.+2404   	; 0x9f6 <posCOOR+0x2e7>
      92:	4e b9       	out	0x0e, r20	; 14
      94:	38 36       	cpi	r19, 0x68	; 104
      96:	a9 02       	muls	r26, r25
      98:	0c 50       	subi	r16, 0x0C	; 12
      9a:	b9 91       	ld	r27, Y+
      9c:	86 88       	ldd	r8, Z+22	; 0x16
      9e:	08 3c       	cpi	r16, 0xC8	; 200
      a0:	a6 aa       	std	Z+54, r10	; 0x36
      a2:	aa 2a       	or	r10, r26
      a4:	be 00       	.word	0x00be	; ????
      a6:	00 00       	nop
      a8:	80 3f       	cpi	r24, 0xF0	; 240

000000aa <tab_chars>:
      aa:	31 32 33 34 35 36 37 38 39 30 3a                    1234567890:

000000b5 <char_patterns>:
      b5:	04 0c 04 04 04 04 0e 0e 11 01 02 04 08 1f 1f 02     ................
      c5:	04 02 01 11 0e 02 06 0a 12 1f 02 02 1f 10 1e 01     ................
      d5:	01 11 0e 06 08 10 1e 11 11 0e 1f 11 01 02 04 04     ................
      e5:	04 0e 11 11 0e 11 11 0e 0e 11 11 0f 01 02 0c 0e     ................
      f5:	11 13 15 19 11 0e 00 0c 0c 00 0c 0c 00              .............

00000102 <message010>:
     102:	48 65 6c 70 3a 20 0d 0a 4d 6f 64 65 20 3c 73 6d     Help: ..Mode <sm
     112:	6f 64 65 3e 3a 20 53 65 6c 65 63 74 20 74 68 65     ode>: Select the
     122:	20 73 74 61 72 74 20 4d 6f 64 65 20 69 6e 20 73      start Mode in s
     132:	6d 6f 64 65 0d 0a 00                                mode...

00000139 <message011>:
     139:	47 43 4c 4b 3a 20 47 65 74 20 63 6c 6f 63 6b 20     GCLK: Get clock 
     149:	74 69 6d 65 0d 0a 00                                time...

00000150 <message012>:
     150:	53 43 4c 4b 20 3c 68 68 6d 6d 73 73 3e 20 53 65     SCLK <hhmmss> Se
     160:	74 20 74 68 65 20 63 6c 6f 63 6b 0d 0a 00           t the clock...

0000016e <message013>:
     16e:	4e 43 4c 52 20 3c 72 72 67 67 62 62 3e 20 53 65     NCLR <rrggbb> Se
     17e:	74 20 74 68 65 20 63 6f 6c 6f 72 20 6f 66 20 74     t the color of t
     18e:	68 65 20 63 6c 6f 63 6b 20 6e 75 6d 62 65 72 73     he clock numbers
     19e:	0d 0a 00                                            ...

000001a1 <message014>:
     1a1:	50 43 4c 52 20 3c 72 72 67 67 62 62 3e 20 73 65     PCLR <rrggbb> se
     1b1:	74 20 74 68 65 20 72 67 62 20 63 6f 6c 6f 72 20     t the rgb color 
     1c1:	6f 66 20 74 68 65 20 63 6c 6f 63 6b 20 70 6f 69     of the clock poi
     1d1:	6e 74 65 72 73 20 0d 0a 00                          nters ...

000001da <message2>:
     1da:	43 6c 6f 63 6b 20 73 65 74 0d 0a 00                 Clock set...

000001e6 <message3>:
     1e6:	43 6c 6f 63 6b 20 6e 6f 74 20 73 65 74 0d 0a 00     Clock not set...

000001f6 <message4>:
     1f6:	44 69 73 70 6c 61 79 20 73 65 74 0d 0a 00           Display set...

00000204 <message5>:
     204:	44 69 73 70 6c 61 79 20 69 6d 61 67 65 20 6e 6f     Display image no
     214:	74 20 73 65 74 0d 0a 00                             t set...

0000021c <message6>:
     21c:	4d 6f 64 65 20 73 65 74 0d 0a 00                    Mode set...

00000227 <message7>:
     227:	4d 6f 64 65 20 6e 6f 74 20 73 65 74 0d 0a 00        Mode not set...

00000236 <message8>:
     236:	43 6f 6c 6f 72 20 6f 66 20 6e 75 6d 62 65 72 20     Color of number 
     246:	73 65 74 0d 0a 00                                   set...

0000024c <message9>:
     24c:	43 6f 6c 6f 72 20 6f 66 20 6e 75 6d 62 65 72 20     Color of number 
     25c:	6e 6f 74 20 73 65 74 0d 0a 00                       not set...

00000266 <message10>:
     266:	43 6f 6c 6f 72 20 6f 66 20 70 6f 69 6e 74 65 72     Color of pointer
     276:	20 73 65 74 0d 0a 00                                 set...

0000027d <message11>:
     27d:	43 6f 6c 6f 72 20 6f 66 20 70 6f 69 6e 74 65 72     Color of pointer
     28d:	20 6e 6f 74 20 20 73 65 74 0d 0a 00                  not  set...

00000299 <message12>:
     299:	50 61 74 74 65 72 6e 20 73 65 74 0d 0a 00           Pattern set...

000002a7 <message13>:
     2a7:	50 61 74 74 65 72 6e 20 6e 6f 74 20 73 65 74 0d     Pattern not set.
     2b7:	0a 00                                               ..

000002b9 <messages>:
     2b9:	02 01 39 01 50 01 6e 01 a1 01 da 01 e6 01 f6 01     ..9.P.n.........
     2c9:	04 02 1c 02 27 02 36 02 4c 02 66 02 7d 02 99 02     ....'.6.L.f.}...
     2d9:	a7 02                                               ..

000002db <caract>:
     2db:	fe 82 82 82 fe 00 00 fe 00 00 9e 92 92 92 f2 82     ................
     2eb:	92 92 92 fe f0 10 10 10 fe f2 92 92 92 9e fe 92     ................
     2fb:	92 92 9e 80 80 80 80 fe fe 92 92 92 fe f2 92 92     ................
     30b:	92 fe 00 00 28 00 00 fe 88 88 88 fe fe 92 92 92     ....(...........
     31b:	6c fe 82 82 82 82 fe 82 82 82 7c fe 92 92 82 82     l.........|.....
     32b:	fe 90 90 80 80 fe 82 82 92 9e fe 10 10 10 fe 82     ................
     33b:	82 fe 82 82 04 02 82 fc 80 fe 10 28 44 82 82 fe     ...........(D...
     34b:	82 02 06 fe c0 30 c0 fe fe c0 38 06 fe 7c 82 82     .....0....8..|..
     35b:	82 7c 82 fe 8a 88 70 f8 88 9e 8a fa 02 fe 9a 94     .|....p.........
     36b:	72 f2 92 92 92 9e 80 80 fe 80 80 fe 02 02 02 fe     r...............
     37b:	f0 18 06 18 e0 fc 02 0c 02 fc c6 28 10 28 c6 80     ...........(.(..
     38b:	62 1e 62 80 ce 9a b2 a2 e6                          b.b......

00000394 <rgb_table>:
     394:	ff ff ff 00 00 00 ff ff ff ff 00 00 00 ff 00 00     ................
     3a4:	00 ff ff ff 00 ff 00 ff 00 ff ff 80 00 00 00 80     ................
     3b4:	00 00 00 80 80 80 00 80 00 80 00 80 80 c0 c0 c0     ................
     3c4:	80 80 80 99 99 ff 99 33 66 ff ff cc cc ff ff 66     .......3f......f
     3d4:	00 66 ff 80 80 00 66 cc cc cc ff 00 00 80 ff 00     .f....f.........
     3e4:	ff ff ff 00 00 ff ff 80 00 80 80 00 00 00 80 80     ................
     3f4:	00 00 ff 00 cc ff cc ff ff cc ff cc ff ff 99 99     ................
     404:	cc ff ff 99 cc cc 99 ff ff cc 99 33 66 ff 33 cc     ...........3f.3.
     414:	cc 99 cc 00 ff cc 00 ff 99 00 ff 66 00 66 66 99     ...........f.ff.
     424:	96 96 96 00 33 66 33 99 66 00 33 00 33 33 00 99     ....3f3.f.3.33..
     434:	33 00 99 33 66 33 33 99 33 33 33                    3..3f33.333

0000043f <cosine>:
     43f:	80 00 80 00 80 00 80 00 80 00 80 00 7f 00 7f 00     ................
     44f:	7f 00 7e 00 7e 00 7e 00 7d 00 7d 00 7c 00 7c 00     ..~.~.~.}.}.|.|.
     45f:	7b 00 7a 00 7a 00 79 00 78 00 77 00 77 00 76 00     {.z.z.y.x.w.w.v.
     46f:	75 00 74 00 73 00 72 00 71 00 70 00 6f 00 6e 00     u.t.s.r.q.p.o.n.
     47f:	6d 00 6b 00 6a 00 69 00 68 00 66 00 65 00 63 00     m.k.j.i.h.f.e.c.
     48f:	62 00 61 00 5f 00 5e 00 5c 00 5b 00 59 00 57 00     b.a._.^.\.[.Y.W.
     49f:	56 00 54 00 52 00 51 00 4f 00 4d 00 4b 00 49 00     V.T.R.Q.O.M.K.I.
     4af:	48 00 46 00 44 00 42 00 40 00 3e 00 3c 00 3a 00     H.F.D.B.@.>.<.:.
     4bf:	38 00 36 00 34 00 32 00 30 00 2e 00 2c 00 2a 00     8.6.4.2.0...,.*.
     4cf:	28 00 25 00 23 00 21 00 1f 00 1d 00 1b 00 18 00     (.%.#.!.........
     4df:	16 00 14 00 12 00 10 00 0d 00 0b 00 09 00 07 00     ................
     4ef:	04 00 02 00 00 00 fe ff fc ff f9 ff f7 ff f5 ff     ................
     4ff:	f3 ff f0 ff ee ff ec ff ea ff e8 ff e5 ff e3 ff     ................
     50f:	e1 ff df ff dd ff db ff d8 ff d6 ff d4 ff d2 ff     ................
     51f:	d0 ff ce ff cc ff ca ff c8 ff c6 ff c4 ff c2 ff     ................
     52f:	c0 ff be ff bc ff ba ff b8 ff b7 ff b5 ff b3 ff     ................
     53f:	b1 ff af ff ae ff ac ff aa ff a9 ff a7 ff a5 ff     ................
     54f:	a4 ff a2 ff a1 ff 9f ff 9e ff 9d ff 9b ff 9a ff     ................
     55f:	98 ff 97 ff 96 ff 95 ff 93 ff 92 ff 91 ff 90 ff     ................
     56f:	8f ff 8e ff 8d ff 8c ff 8b ff 8a ff 89 ff 89 ff     ................
     57f:	88 ff 87 ff 86 ff 86 ff 85 ff 84 ff 84 ff 83 ff     ................
     58f:	83 ff 82 ff 82 ff 82 ff 81 ff 81 ff 81 ff 80 ff     ................
     59f:	80 ff 80 ff 80 ff 80 ff 80 ff 80 ff 80 ff 80 ff     ................
     5af:	80 ff 80 ff 81 ff 81 ff 81 ff 82 ff 82 ff 82 ff     ................
     5bf:	83 ff 83 ff 84 ff 84 ff 85 ff 86 ff 86 ff 87 ff     ................
     5cf:	88 ff 89 ff 89 ff 8a ff 8b ff 8c ff 8d ff 8e ff     ................
     5df:	8f ff 90 ff 91 ff 92 ff 93 ff 95 ff 96 ff 97 ff     ................
     5ef:	98 ff 9a ff 9b ff 9d ff 9e ff 9f ff a1 ff a2 ff     ................
     5ff:	a4 ff a5 ff a7 ff a9 ff aa ff ac ff ae ff af ff     ................
     60f:	b1 ff b3 ff b5 ff b7 ff b8 ff ba ff bc ff be ff     ................
     61f:	c0 ff c2 ff c4 ff c6 ff c8 ff ca ff cc ff ce ff     ................
     62f:	d0 ff d2 ff d4 ff d6 ff d8 ff db ff dd ff df ff     ................
     63f:	e1 ff e3 ff e5 ff e8 ff ea ff ec ff ee ff f0 ff     ................
     64f:	f3 ff f5 ff f7 ff f9 ff fc ff fe ff 00 00 02 00     ................
     65f:	04 00 07 00 09 00 0b 00 0d 00 10 00 12 00 14 00     ................
     66f:	16 00 18 00 1b 00 1d 00 1f 00 21 00 23 00 25 00     ..........!.#.%.
     67f:	28 00 2a 00 2c 00 2e 00 30 00 32 00 34 00 36 00     (.*.,...0.2.4.6.
     68f:	38 00 3a 00 3c 00 3e 00 40 00 42 00 44 00 46 00     8.:.<.>.@.B.D.F.
     69f:	48 00 49 00 4b 00 4d 00 4f 00 51 00 52 00 54 00     H.I.K.M.O.Q.R.T.
     6af:	56 00 57 00 59 00 5b 00 5c 00 5e 00 5f 00 61 00     V.W.Y.[.\.^._.a.
     6bf:	62 00 63 00 65 00 66 00 68 00 69 00 6a 00 6b 00     b.c.e.f.h.i.j.k.
     6cf:	6d 00 6e 00 6f 00 70 00 71 00 72 00 73 00 74 00     m.n.o.p.q.r.s.t.
     6df:	75 00 76 00 77 00 77 00 78 00 79 00 7a 00 7a 00     u.v.w.w.x.y.z.z.
     6ef:	7b 00 7c 00 7c 00 7d 00 7d 00 7e 00 7e 00 7e 00     {.|.|.}.}.~.~.~.
     6ff:	7f 00 7f 00 7f 00 80 00 80 00 80 00 80 00 80 00     ................

0000070f <posCOOR>:
     70f:	01 02 03 04 05 06 07 08 09 0a 0b 0c 0d 0e 0f 10     ................
     71f:	11 12 13 14 15 16 17 18 19 1a 1b 1c 1d 1e 1f 20     ............... 
     72f:	01 02 03 04 05 06 07 08 09 0a 0b 0c 0d 0e 0f 10     ................
     73f:	11 12 13 14 15 16 17 18 19 1a 1b 1c 1d 1e 1f 20     ............... 
     74f:	01 02 03 04 05 06 07 08 09 0a 0b 0c 0d 0e 0f 10     ................
     75f:	11 12 13 14 15 16 17 18 19 1a 1b 1c 1d 1e 1f 20     ............... 
     76f:	01 02 03 04 05 06 07 08 09 0a 0b 0c 0d 0e 0f 10     ................
     77f:	11 12 13 14 15 16 17 18 19 1a 1b 1c 1d 1e 1f 20     ............... 
     78f:	01 02 03 04 05 06 07 08 09 0a 0b 0c 0d 0e 0f 10     ................
     79f:	11 12 13 14 15 16 17 18 19 1a 1b 1c 1d 1e 1f 20     ............... 
     7af:	01 02 03 04 05 06 07 08 09 0a 0b 0c 0d 0e 0f 10     ................
     7bf:	11 12 13 14 15 16 17 18 19 1a 1b 1c 1d 1e 1f 20     ............... 
     7cf:	01 02 03 04 05 06 07 08 09 0a 0b 0c 0d 0e 0f 10     ................
     7df:	11 12 13 14 15 16 17 18 19 1a 1b 1c 1d 1e 1f 20     ............... 
     7ef:	01 02 03 04 05 06 07 08 09 0a 0b 0c 0d 0e 0f 10     ................
     7ff:	11 12 13 14 15 16 17 18 19 1a 1b 1c 1d 1e 1f 20     ............... 
     80f:	01 02 03 04 05 06 07 08 09 0a 0b 0c 0d 0e 0f 10     ................
     81f:	11 12 13 14 15 16 17 18 19 1a 1b 1c 1d 1e 1f 20     ............... 
     82f:	01 02 03 04 05 06 07 08 09 0a 0b 0c 0d 0e 0f 10     ................
     83f:	11 12 13 14 15 16 17 18 19 1a 1b 1c 1d 1e 1f 20     ............... 
     84f:	01 02 03 04 05 06 07 08 09 0a 0b 0c 0d 0e 0f 10     ................
     85f:	11 12 13 14 15 16 17 18 19 1a 1b 1c 1d 1e 1f 20     ............... 
     86f:	01 02 03 04 05 06 07 08 09 0a 0b 0c 0d 0e 0f 10     ................
     87f:	11 12 13 14 15 16 17 18 19 1a 1b 1b 1c 1d 1e 1f     ................
     88f:	01 02 03 04 05 06 07 08 09 0a 0b 0c 0d 0e 0f 10     ................
     89f:	11 12 13 14 15 16 16 17 18 19 1a 1b 1c 1d 1e 1f     ................
     8af:	01 02 03 04 05 06 07 08 09 0a 0b 0c 0d 0e 0f 10     ................
     8bf:	11 12 13 13 14 15 16 17 18 19 1a 1b 1c 1d 1e 1f     ................
     8cf:	01 02 03 04 05 06 07 08 09 0a 0b 0c 0d 0e 0f 10     ................
     8df:	10 11 12 13 14 15 16 17 18 19 1a 1b 1c 1d 1e 1f     ................
     8ef:	01 02 03 04 05 06 07 08 09 0a 0b 0c 0d 0e 0e 0f     ................
     8ff:	10 11 12 13 14 15 16 17 18 19 1a 1b 1c 1d 1e 1f     ................
     90f:	01 02 03 04 05 06 07 08 09 0a 0b 0c 0c 0d 0e 0f     ................
     91f:	10 11 12 13 14 15 16 17 18 19 1a 1b 1c 1d 1e 1f     ................
     92f:	01 02 03 04 05 06 07 08 09 0a 0b 0b 0c 0d 0e 0f     ................
     93f:	10 11 12 13 14 15 16 17 18 19 1a 1b 1c 1d 1e 1f     ................
     94f:	01 02 03 04 05 06 07 08 09 0a 0a 0b 0c 0d 0e 0f     ................
     95f:	10 11 12 13 14 15 16 17 18 19 1a 1b 1c 1d 1d 1e     ................
     96f:	01 02 03 04 05 06 07 08 09 09 0a 0b 0c 0d 0e 0f     ................
     97f:	10 11 12 13 14 15 16 17 18 19 1a 1a 1b 1c 1d 1e     ................
     98f:	01 02 03 04 05 06 07 08 08 09 0a 0b 0c 0d 0e 0f     ................
     99f:	10 11 12 13 14 15 16 17 17 18 19 1a 1b 1c 1d 1e     ................
     9af:	01 02 03 04 05 06 07 07 08 09 0a 0b 0c 0d 0e 0f     ................
     9bf:	10 11 12 13 14 15 15 16 17 18 19 1a 1b 1c 1d 1e     ................
     9cf:	01 02 03 04 05 06 06 07 08 09 0a 0b 0c 0d 0e 0f     ................
     9df:	10 11 12 13 13 14 15 16 17 18 19 1a 1b 1c 1d 1e     ................
     9ef:	01 02 03 04 05 06 06 07 08 09 0a 0b 0c 0d 0e 0f     ................
     9ff:	10 11 11 12 13 14 15 16 17 18 19 1a 1b 1c 1d 1d     ................
     a0f:	01 02 03 04 05 05 06 07 08 09 0a 0b 0c 0d 0e 0f     ................
     a1f:	10 10 11 12 13 14 15 16 17 18 19 1a 1a 1b 1c 1d     ................
     a2f:	01 02 03 04 05 05 06 07 08 09 0a 0b 0c 0d 0e 0f     ................
     a3f:	0f 10 11 12 13 14 15 16 17 18 18 19 1a 1b 1c 1d     ................
     a4f:	01 02 03 04 04 05 06 07 08 09 0a 0b 0c 0d 0d 0e     ................
     a5f:	0f 10 11 12 13 14 15 16 16 17 18 19 1a 1b 1c 1d     ................
     a6f:	01 02 03 04 04 05 06 07 08 09 0a 0b 0c 0c 0d 0e     ................
     a7f:	0f 10 11 12 13 14 14 15 16 17 18 19 1a 1b 1c 1d     ................
     a8f:	01 02 03 04 04 05 06 07 08 09 0a 0b 0b 0c 0d 0e     ................
     a9f:	0f 10 11 12 13 13 14 15 16 17 18 19 1a 1a 1b 1c     ................
     aaf:	01 02 03 03 04 05 06 07 08 09 0a 0a 0b 0c 0d 0e     ................
     abf:	0f 10 11 11 12 13 14 15 16 17 18 18 19 1a 1b 1c     ................
     acf:	01 02 03 03 04 05 06 07 08 09 0a 0a 0b 0c 0d 0e     ................
     adf:	0f 10 10 11 12 13 14 15 16 17 17 18 19 1a 1b 1c     ................
     aef:	01 02 03 03 04 05 06 07 08 09 09 0a 0b 0c 0d 0e     ................
     aff:	0f 0f 10 11 12 13 14 15 15 16 17 18 19 1a 1b 1b     ................
     b0f:	01 02 03 03 04 05 06 07 08 08 09 0a 0b 0c 0d 0e     ................
     b1f:	0e 0f 10 11 12 13 14 14 15 16 17 18 19 19 1a 1b     ................
     b2f:	01 02 03 03 04 05 06 07 08 08 09 0a 0b 0c 0d 0d     ................
     b3f:	0e 0f 10 11 12 12 13 14 15 16 17 17 18 19 1a 1b     ................
     b4f:	01 02 02 03 04 05 06 07 07 08 09 0a 0b 0c 0c 0d     ................
     b5f:	0e 0f 10 11 11 12 13 14 15 16 16 17 18 19 1a 1b     ................
     b6f:	01 02 02 03 04 05 06 07 07 08 09 0a 0b 0b 0c 0d     ................
     b7f:	0e 0f 10 10 11 12 13 14 14 15 16 17 18 19 19 1a     ................
     b8f:	01 02 02 03 04 05 06 06 07 08 09 0a 0b 0b 0c 0d     ................
     b9f:	0e 0f 0f 10 11 12 13 13 14 15 16 17 17 18 19 1a     ................
     baf:	01 02 02 03 04 05 06 06 07 08 09 0a 0a 0b 0c 0d     ................
     bbf:	0e 0e 0f 10 11 12 12 13 14 15 16 16 17 18 19 1a     ................
     bcf:	01 02 02 03 04 05 06 06 07 08 09 09 0a 0b 0c 0d     ................
     bdf:	0d 0e 0f 10 11 11 12 13 14 14 15 16 17 18 18 19     ................
     bef:	01 02 02 03 04 05 05 06 07 08 09 09 0a 0b 0c 0c     ................
     bff:	0d 0e 0f 10 10 11 12 13 13 14 15 16 17 17 18 19     ................
     c0f:	01 02 02 03 04 05 05 06 07 08 08 09 0a 0b 0b 0c     ................
     c1f:	0d 0e 0f 0f 10 11 12 12 13 14 15 15 16 17 18 19     ................
     c2f:	01 02 02 03 04 05 05 06 07 08 08 09 0a 0b 0b 0c     ................
     c3f:	0d 0e 0e 0f 10 11 11 12 13 14 14 15 16 17 17 18     ................
     c4f:	01 01 02 03 04 04 05 06 07 07 08 09 0a 0a 0b 0c     ................
     c5f:	0d 0d 0e 0f 10 10 11 12 13 13 14 15 16 16 17 18     ................
     c6f:	01 01 02 03 04 04 05 06 07 07 08 09 0a 0a 0b 0c     ................
     c7f:	0c 0d 0e 0f 0f 10 11 12 12 13 14 14 15 16 17 17     ................
     c8f:	01 01 02 03 04 04 05 06 06 07 08 09 09 0a 0b 0c     ................
     c9f:	0c 0d 0e 0e 0f 10 11 11 12 13 13 14 15 16 16 17     ................
     caf:	01 01 02 03 04 04 05 06 06 07 08 08 09 0a 0b 0b     ................
     cbf:	0c 0d 0d 0e 0f 10 10 11 12 12 13 14 15 15 16 17     ................
     ccf:	01 01 02 03 03 04 05 06 06 07 08 08 09 0a 0a 0b     ................
     cdf:	0c 0d 0d 0e 0f 0f 10 11 11 12 13 13 14 15 16 16     ................
     cef:	01 01 02 03 03 04 05 05 06 07 08 08 09 0a 0a 0b     ................
     cff:	0c 0c 0d 0e 0e 0f 10 10 11 12 12 13 14 14 15 16     ................
     d0f:	01 01 02 03 03 04 05 05 06 07 07 08 09 09 0a 0b     ................
     d1f:	0b 0c 0d 0d 0e 0f 0f 10 11 11 12 13 13 14 15 15     ................
     d2f:	01 01 02 03 03 04 05 05 06 07 07 08 09 09 0a 0a     ................
     d3f:	0b 0c 0c 0d 0e 0e 0f 10 10 11 12 12 13 14 14 15     ................
     d4f:	01 01 02 03 03 04 04 05 06 06 07 08 08 09 0a 0a     ................
     d5f:	0b 0c 0c 0d 0d 0e 0f 0f 10 11 11 12 13 13 14 15     ................
     d6f:	01 01 02 03 03 04 04 05 06 06 07 08 08 09 09 0a     ................
     d7f:	0b 0b 0c 0d 0d 0e 0e 0f 10 10 11 12 12 13 14 14     ................
     d8f:	01 01 02 02 03 04 04 05 06 06 07 07 08 09 09 0a     ................
     d9f:	0a 0b 0c 0c 0d 0e 0e 0f 0f 10 11 11 12 12 13 14     ................
     daf:	01 01 02 02 03 04 04 05 05 06 07 07 08 08 09 0a     ................
     dbf:	0a 0b 0b 0c 0d 0d 0e 0e 0f 10 10 11 11 12 13 13     ................
     dcf:	01 01 02 02 03 04 04 05 05 06 06 07 08 08 09 09     ................
     ddf:	0a 0b 0b 0c 0c 0d 0e 0e 0f 0f 10 10 11 12 12 13     ................
     def:	01 01 02 02 03 03 04 05 05 06 06 07 07 08 09 09     ................
     dff:	0a 0a 0b 0b 0c 0d 0d 0e 0e 0f 0f 10 11 11 12 12     ................
     e0f:	01 01 02 02 03 03 04 04 05 06 06 07 07 08 08 09     ................
     e1f:	0a 0a 0b 0b 0c 0c 0d 0d 0e 0f 0f 10 10 11 11 12     ................
     e2f:	01 01 02 02 03 03 04 04 05 05 06 07 07 08 08 09     ................
     e3f:	09 0a 0a 0b 0b 0c 0d 0d 0e 0e 0f 0f 10 10 11 11     ................
     e4f:	01 01 02 02 03 03 04 04 05 05 06 06 07 07 08 08     ................
     e5f:	09 0a 0a 0b 0b 0c 0c 0d 0d 0e 0e 0f 0f 10 10 11     ................
     e6f:	01 01 02 02 03 03 04 04 05 05 06 06 07 07 08 08     ................
     e7f:	09 09 0a 0a 0b 0b 0c 0c 0d 0d 0e 0e 0f 0f 10 10     ................
     e8f:	01 01 02 02 03 03 04 04 05 05 06 06 07 07 08 08     ................
     e9f:	09 09 0a 0a 0b 0b 0c 0c 0d 0d 0e 0e 0f 0f 10 10     ................
     eaf:	00 01 01 02 02 03 03 04 04 05 05 06 06 07 07 08     ................
     ebf:	08 09 09 0a 0a 0b 0b 0c 0c 0d 0d 0e 0e 0f 0f 10     ................
     ecf:	00 01 01 02 02 03 03 04 04 05 05 06 06 07 07 08     ................
     edf:	08 08 09 09 0a 0a 0b 0b 0c 0c 0d 0d 0e 0e 0f 0f     ................
     eef:	00 01 01 02 02 03 03 04 04 05 05 05 06 06 07 07     ................
     eff:	08 08 09 09 0a 0a 0a 0b 0b 0c 0c 0d 0d 0e 0e 0f     ................
     f0f:	00 01 01 02 02 03 03 04 04 04 05 05 06 06 07 07     ................
     f1f:	07 08 08 09 09 0a 0a 0b 0b 0b 0c 0c 0d 0d 0e 0e     ................
     f2f:	00 01 01 02 02 03 03 03 04 04 05 05 05 06 06 07     ................
     f3f:	07 08 08 08 09 09 0a 0a 0b 0b 0b 0c 0c 0d 0d 0e     ................
     f4f:	00 01 01 02 02 02 03 03 04 04 04 05 05 06 06 07     ................
     f5f:	07 07 08 08 09 09 09 0a 0a 0b 0b 0b 0c 0c 0d 0d     ................
     f6f:	00 01 01 02 02 02 03 03 04 04 04 05 05 05 06 06     ................
     f7f:	07 07 07 08 08 09 09 09 0a 0a 0b 0b 0b 0c 0c 0d     ................
     f8f:	00 01 01 01 02 02 03 03 03 04 04 04 05 05 06 06     ................
     f9f:	06 07 07 07 08 08 09 09 09 0a 0a 0a 0b 0b 0c 0c     ................
     faf:	00 01 01 01 02 02 03 03 03 04 04 04 05 05 05 06     ................
     fbf:	06 06 07 07 08 08 08 09 09 09 0a 0a 0a 0b 0b 0b     ................
     fcf:	00 01 01 01 02 02 02 03 03 03 04 04 04 05 05 05     ................
     fdf:	06 06 06 07 07 08 08 08 09 09 09 0a 0a 0a 0b 0b     ................
     fef:	00 01 01 01 02 02 02 03 03 03 04 04 04 05 05 05     ................
     fff:	06 06 06 07 07 07 07 08 08 08 09 09 09 0a 0a 0a     ................
    100f:	00 01 01 01 02 02 02 02 03 03 03 04 04 04 05 05     ................
    101f:	05 06 06 06 06 07 07 07 08 08 08 09 09 09 0a 0a     ................
    102f:	00 01 01 01 01 02 02 02 03 03 03 04 04 04 04 05     ................
    103f:	05 05 06 06 06 06 07 07 07 08 08 08 08 09 09 09     ................
    104f:	00 01 01 01 01 02 02 02 02 03 03 03 04 04 04 04     ................
    105f:	05 05 05 06 06 06 06 07 07 07 07 08 08 08 09 09     ................
    106f:	00 01 01 01 01 02 02 02 02 03 03 03 03 04 04 04     ................
    107f:	04 05 05 05 05 06 06 06 06 07 07 07 08 08 08 08     ................
    108f:	00 00 01 01 01 01 02 02 02 02 03 03 03 03 04 04     ................
    109f:	04 04 05 05 05 05 06 06 06 06 07 07 07 07 07 08     ................
    10af:	00 00 01 01 01 01 02 02 02 02 02 03 03 03 03 04     ................
    10bf:	04 04 04 04 05 05 05 05 06 06 06 06 07 07 07 07     ................
    10cf:	00 00 01 01 01 01 01 02 02 02 02 02 03 03 03 03     ................
    10df:	04 04 04 04 04 05 05 05 05 05 06 06 06 06 06 07     ................
    10ef:	00 00 01 01 01 01 01 02 02 02 02 02 02 03 03 03     ................
    10ff:	03 03 04 04 04 04 04 05 05 05 05 05 06 06 06 06     ................
    110f:	00 00 01 01 01 01 01 01 02 02 02 02 02 02 03 03     ................
    111f:	03 03 03 03 04 04 04 04 04 05 05 05 05 05 05 06     ................
    112f:	00 00 00 01 01 01 01 01 01 02 02 02 02 02 02 03     ................
    113f:	03 03 03 03 03 03 04 04 04 04 04 04 05 05 05 05     ................
    114f:	00 00 00 01 01 01 01 01 01 01 02 02 02 02 02 02     ................
    115f:	02 03 03 03 03 03 03 03 03 04 04 04 04 04 04 04     ................
    116f:	00 00 00 00 01 01 01 01 01 01 01 01 02 02 02 02     ................
    117f:	02 02 02 02 03 03 03 03 03 03 03 03 04 04 04 04     ................
    118f:	00 00 00 00 01 01 01 01 01 01 01 01 01 01 02 02     ................
    119f:	02 02 02 02 02 02 02 03 03 03 03 03 03 03 03 03     ................
    11af:	00 00 00 00 00 01 01 01 01 01 01 01 01 01 01 01     ................
    11bf:	01 02 02 02 02 02 02 02 02 02 02 02 03 03 03 03     ................
    11cf:	00 00 00 00 00 00 00 01 01 01 01 01 01 01 01 01     ................
    11df:	01 01 01 01 01 02 02 02 02 02 02 02 02 02 02 02     ................
	...
    11f7:	00 01 01 01 01 01 01 01 01 01 01 01 01 01 01 01     ................
    1207:	01 01 01 01 02 02 02 02 00 00 00 00 00 00 00 00     ................
    1217:	00 00 00 00 00 00 01 01 01 01 01 01 01 01 01 01     ................
    1227:	01 01 01 01 01 01 01 01 00 00 00 00 00 00 00 00     ................
	...
    124b:	01 01 01 01 00 00 00 00 00 00 00 00 00 00 00 00     ................
	...

00001270 <__ctors_end>:
    1270:	11 24       	eor	r1, r1
    1272:	1f be       	out	0x3f, r1	; 63
    1274:	cf ef       	ldi	r28, 0xFF	; 255
    1276:	d0 e1       	ldi	r29, 0x10	; 16
    1278:	de bf       	out	0x3e, r29	; 62
    127a:	cd bf       	out	0x3d, r28	; 61

0000127c <__do_copy_data>:
    127c:	12 e0       	ldi	r17, 0x02	; 2
    127e:	a0 e0       	ldi	r26, 0x00	; 0
    1280:	b1 e0       	ldi	r27, 0x01	; 1
    1282:	e2 ee       	ldi	r30, 0xE2	; 226
    1284:	fe e3       	ldi	r31, 0x3E	; 62
    1286:	02 c0       	rjmp	.+4      	; 0x128c <.do_copy_data_start>

00001288 <.do_copy_data_loop>:
    1288:	05 90       	lpm	r0, Z+
    128a:	0d 92       	st	X+, r0

0000128c <.do_copy_data_start>:
    128c:	aa 3a       	cpi	r26, 0xAA	; 170
    128e:	b1 07       	cpc	r27, r17
    1290:	d9 f7       	brne	.-10     	; 0x1288 <.do_copy_data_loop>

00001292 <__do_clear_bss>:
    1292:	14 e0       	ldi	r17, 0x04	; 4
    1294:	aa ea       	ldi	r26, 0xAA	; 170
    1296:	b2 e0       	ldi	r27, 0x02	; 2
    1298:	01 c0       	rjmp	.+2      	; 0x129c <.do_clear_bss_start>

0000129a <.do_clear_bss_loop>:
    129a:	1d 92       	st	X+, r1

0000129c <.do_clear_bss_start>:
    129c:	ab 36       	cpi	r26, 0x6B	; 107
    129e:	b1 07       	cpc	r27, r17
    12a0:	e1 f7       	brne	.-8      	; 0x129a <.do_clear_bss_loop>
    12a2:	0e 94 1f 13 	call	0x263e	; 0x263e <main>
    12a6:	0c 94 6f 1f 	jmp	0x3ede	; 0x3ede <_exit>

000012aa <__bad_interrupt>:
    12aa:	0c 94 00 00 	jmp	0	; 0x0 <__vectors>

000012ae <analog_clk_SET_COR_PONTEIROS>:
    12ae:	df 93       	push	r29
    12b0:	cf 93       	push	r28
    12b2:	00 d0       	rcall	.+0      	; 0x12b4 <analog_clk_SET_COR_PONTEIROS+0x6>
    12b4:	0f 92       	push	r0
    12b6:	cd b7       	in	r28, 0x3d	; 61
    12b8:	de b7       	in	r29, 0x3e	; 62
    12ba:	49 83       	std	Y+1, r20	; 0x01
    12bc:	5a 83       	std	Y+2, r21	; 0x02
    12be:	6b 83       	std	Y+3, r22	; 0x03
    12c0:	dc 01       	movw	r26, r24
    12c2:	1e 96       	adiw	r26, 0x0e	; 14
    12c4:	fe 01       	movw	r30, r28
    12c6:	31 96       	adiw	r30, 0x01	; 1
    12c8:	83 e0       	ldi	r24, 0x03	; 3
    12ca:	01 90       	ld	r0, Z+
    12cc:	0d 92       	st	X+, r0
    12ce:	81 50       	subi	r24, 0x01	; 1
    12d0:	e1 f7       	brne	.-8      	; 0x12ca <analog_clk_SET_COR_PONTEIROS+0x1c>
    12d2:	0f 90       	pop	r0
    12d4:	0f 90       	pop	r0
    12d6:	0f 90       	pop	r0
    12d8:	cf 91       	pop	r28
    12da:	df 91       	pop	r29
    12dc:	08 95       	ret

000012de <analog_clk_SET_COR_NUMEROS>:
    12de:	df 93       	push	r29
    12e0:	cf 93       	push	r28
    12e2:	00 d0       	rcall	.+0      	; 0x12e4 <analog_clk_SET_COR_NUMEROS+0x6>
    12e4:	0f 92       	push	r0
    12e6:	cd b7       	in	r28, 0x3d	; 61
    12e8:	de b7       	in	r29, 0x3e	; 62
    12ea:	49 83       	std	Y+1, r20	; 0x01
    12ec:	5a 83       	std	Y+2, r21	; 0x02
    12ee:	6b 83       	std	Y+3, r22	; 0x03
    12f0:	dc 01       	movw	r26, r24
    12f2:	51 96       	adiw	r26, 0x11	; 17
    12f4:	fe 01       	movw	r30, r28
    12f6:	31 96       	adiw	r30, 0x01	; 1
    12f8:	83 e0       	ldi	r24, 0x03	; 3
    12fa:	01 90       	ld	r0, Z+
    12fc:	0d 92       	st	X+, r0
    12fe:	81 50       	subi	r24, 0x01	; 1
    1300:	e1 f7       	brne	.-8      	; 0x12fa <analog_clk_SET_COR_NUMEROS+0x1c>
    1302:	0f 90       	pop	r0
    1304:	0f 90       	pop	r0
    1306:	0f 90       	pop	r0
    1308:	cf 91       	pop	r28
    130a:	df 91       	pop	r29
    130c:	08 95       	ret

0000130e <analog_clk_SET_COR_HOUR>:
    130e:	df 93       	push	r29
    1310:	cf 93       	push	r28
    1312:	00 d0       	rcall	.+0      	; 0x1314 <analog_clk_SET_COR_HOUR+0x6>
    1314:	0f 92       	push	r0
    1316:	cd b7       	in	r28, 0x3d	; 61
    1318:	de b7       	in	r29, 0x3e	; 62
    131a:	49 83       	std	Y+1, r20	; 0x01
    131c:	5a 83       	std	Y+2, r21	; 0x02
    131e:	6b 83       	std	Y+3, r22	; 0x03
    1320:	dc 01       	movw	r26, r24
    1322:	57 96       	adiw	r26, 0x17	; 23
    1324:	fe 01       	movw	r30, r28
    1326:	31 96       	adiw	r30, 0x01	; 1
    1328:	83 e0       	ldi	r24, 0x03	; 3
    132a:	01 90       	ld	r0, Z+
    132c:	0d 92       	st	X+, r0
    132e:	81 50       	subi	r24, 0x01	; 1
    1330:	e1 f7       	brne	.-8      	; 0x132a <analog_clk_SET_COR_HOUR+0x1c>
    1332:	0f 90       	pop	r0
    1334:	0f 90       	pop	r0
    1336:	0f 90       	pop	r0
    1338:	cf 91       	pop	r28
    133a:	df 91       	pop	r29
    133c:	08 95       	ret

0000133e <analog_clk_SET_COR_MIN>:
    133e:	df 93       	push	r29
    1340:	cf 93       	push	r28
    1342:	00 d0       	rcall	.+0      	; 0x1344 <analog_clk_SET_COR_MIN+0x6>
    1344:	0f 92       	push	r0
    1346:	cd b7       	in	r28, 0x3d	; 61
    1348:	de b7       	in	r29, 0x3e	; 62
    134a:	49 83       	std	Y+1, r20	; 0x01
    134c:	5a 83       	std	Y+2, r21	; 0x02
    134e:	6b 83       	std	Y+3, r22	; 0x03
    1350:	dc 01       	movw	r26, r24
    1352:	54 96       	adiw	r26, 0x14	; 20
    1354:	fe 01       	movw	r30, r28
    1356:	31 96       	adiw	r30, 0x01	; 1
    1358:	83 e0       	ldi	r24, 0x03	; 3
    135a:	01 90       	ld	r0, Z+
    135c:	0d 92       	st	X+, r0
    135e:	81 50       	subi	r24, 0x01	; 1
    1360:	e1 f7       	brne	.-8      	; 0x135a <analog_clk_SET_COR_MIN+0x1c>
    1362:	0f 90       	pop	r0
    1364:	0f 90       	pop	r0
    1366:	0f 90       	pop	r0
    1368:	cf 91       	pop	r28
    136a:	df 91       	pop	r29
    136c:	08 95       	ret

0000136e <analog_clk_SET_ANGULOS_PONTEIROS>:
    136e:	ef 92       	push	r14
    1370:	ff 92       	push	r15
    1372:	0f 93       	push	r16
    1374:	1f 93       	push	r17
    1376:	df 93       	push	r29
    1378:	cf 93       	push	r28
    137a:	00 d0       	rcall	.+0      	; 0x137c <analog_clk_SET_ANGULOS_PONTEIROS+0xe>
    137c:	00 d0       	rcall	.+0      	; 0x137e <analog_clk_SET_ANGULOS_PONTEIROS+0x10>
    137e:	00 d0       	rcall	.+0      	; 0x1380 <analog_clk_SET_ANGULOS_PONTEIROS+0x12>
    1380:	cd b7       	in	r28, 0x3d	; 61
    1382:	de b7       	in	r29, 0x3e	; 62
    1384:	8c 01       	movw	r16, r24
    1386:	29 83       	std	Y+1, r18	; 0x01
    1388:	3a 83       	std	Y+2, r19	; 0x02
    138a:	4b 83       	std	Y+3, r20	; 0x03
    138c:	5c 83       	std	Y+4, r21	; 0x04
    138e:	6d 83       	std	Y+5, r22	; 0x05
    1390:	7e 83       	std	Y+6, r23	; 0x06
    1392:	eb 80       	ldd	r14, Y+3	; 0x03
    1394:	fc 80       	ldd	r15, Y+4	; 0x04
    1396:	ed 81       	ldd	r30, Y+5	; 0x05
    1398:	fe 81       	ldd	r31, Y+6	; 0x06
    139a:	29 81       	ldd	r18, Y+1	; 0x01
    139c:	3a 81       	ldd	r19, Y+2	; 0x02
    139e:	c9 01       	movw	r24, r18
    13a0:	88 0f       	add	r24, r24
    13a2:	99 1f       	adc	r25, r25
    13a4:	82 0f       	add	r24, r18
    13a6:	93 1f       	adc	r25, r19
    13a8:	88 0f       	add	r24, r24
    13aa:	99 1f       	adc	r25, r25
    13ac:	d8 01       	movw	r26, r16
    13ae:	11 96       	adiw	r26, 0x01	; 1
    13b0:	9c 93       	st	X, r25
    13b2:	8e 93       	st	-X, r24
    13b4:	97 01       	movw	r18, r14
    13b6:	22 0f       	add	r18, r18
    13b8:	33 1f       	adc	r19, r19
    13ba:	2e 0d       	add	r18, r14
    13bc:	3f 1d       	adc	r19, r15
    13be:	22 0f       	add	r18, r18
    13c0:	33 1f       	adc	r19, r19
    13c2:	13 96       	adiw	r26, 0x03	; 3
    13c4:	3c 93       	st	X, r19
    13c6:	2e 93       	st	-X, r18
    13c8:	12 97       	sbiw	r26, 0x02	; 2
    13ca:	c9 01       	movw	r24, r18
    13cc:	01 96       	adiw	r24, 0x01	; 1
    13ce:	68 e6       	ldi	r22, 0x68	; 104
    13d0:	71 e0       	ldi	r23, 0x01	; 1
    13d2:	0e 94 2e 1c 	call	0x385c	; 0x385c <__divmodhi4>
    13d6:	d8 01       	movw	r26, r16
    13d8:	15 96       	adiw	r26, 0x05	; 5
    13da:	9c 93       	st	X, r25
    13dc:	8e 93       	st	-X, r24
    13de:	14 97       	sbiw	r26, 0x04	; 4
    13e0:	c9 01       	movw	r24, r18
    13e2:	01 97       	sbiw	r24, 0x01	; 1
    13e4:	68 e6       	ldi	r22, 0x68	; 104
    13e6:	71 e0       	ldi	r23, 0x01	; 1
    13e8:	0e 94 2e 1c 	call	0x385c	; 0x385c <__divmodhi4>
    13ec:	d8 01       	movw	r26, r16
    13ee:	17 96       	adiw	r26, 0x07	; 7
    13f0:	9c 93       	st	X, r25
    13f2:	8e 93       	st	-X, r24
    13f4:	16 97       	sbiw	r26, 0x06	; 6
    13f6:	cf 01       	movw	r24, r30
    13f8:	6c e0       	ldi	r22, 0x0C	; 12
    13fa:	70 e0       	ldi	r23, 0x00	; 0
    13fc:	0e 94 2e 1c 	call	0x385c	; 0x385c <__divmodhi4>
    1400:	9c 01       	movw	r18, r24
    1402:	fc 01       	movw	r30, r24
    1404:	45 e0       	ldi	r20, 0x05	; 5
    1406:	ee 0f       	add	r30, r30
    1408:	ff 1f       	adc	r31, r31
    140a:	4a 95       	dec	r20
    140c:	e1 f7       	brne	.-8      	; 0x1406 <analog_clk_SET_ANGULOS_PONTEIROS+0x98>
    140e:	22 0f       	add	r18, r18
    1410:	33 1f       	adc	r19, r19
    1412:	e2 1b       	sub	r30, r18
    1414:	f3 0b       	sbc	r31, r19
    1416:	f5 94       	asr	r15
    1418:	e7 94       	ror	r14
    141a:	ee 0d       	add	r30, r14
    141c:	ff 1d       	adc	r31, r15
    141e:	d8 01       	movw	r26, r16
    1420:	19 96       	adiw	r26, 0x09	; 9
    1422:	fc 93       	st	X, r31
    1424:	ee 93       	st	-X, r30
    1426:	18 97       	sbiw	r26, 0x08	; 8
    1428:	cf 01       	movw	r24, r30
    142a:	01 96       	adiw	r24, 0x01	; 1
    142c:	68 e6       	ldi	r22, 0x68	; 104
    142e:	71 e0       	ldi	r23, 0x01	; 1
    1430:	0e 94 2e 1c 	call	0x385c	; 0x385c <__divmodhi4>
    1434:	d8 01       	movw	r26, r16
    1436:	1b 96       	adiw	r26, 0x0b	; 11
    1438:	9c 93       	st	X, r25
    143a:	8e 93       	st	-X, r24
    143c:	1a 97       	sbiw	r26, 0x0a	; 10
    143e:	cf 01       	movw	r24, r30
    1440:	01 97       	sbiw	r24, 0x01	; 1
    1442:	68 e6       	ldi	r22, 0x68	; 104
    1444:	71 e0       	ldi	r23, 0x01	; 1
    1446:	0e 94 2e 1c 	call	0x385c	; 0x385c <__divmodhi4>
    144a:	f8 01       	movw	r30, r16
    144c:	95 87       	std	Z+13, r25	; 0x0d
    144e:	84 87       	std	Z+12, r24	; 0x0c
    1450:	26 96       	adiw	r28, 0x06	; 6
    1452:	0f b6       	in	r0, 0x3f	; 63
    1454:	f8 94       	cli
    1456:	de bf       	out	0x3e, r29	; 62
    1458:	0f be       	out	0x3f, r0	; 63
    145a:	cd bf       	out	0x3d, r28	; 61
    145c:	cf 91       	pop	r28
    145e:	df 91       	pop	r29
    1460:	1f 91       	pop	r17
    1462:	0f 91       	pop	r16
    1464:	ff 90       	pop	r15
    1466:	ef 90       	pop	r14
    1468:	08 95       	ret

0000146a <analog_clk_GET_LEDS_PONTEIROS>:
    146a:	0f 93       	push	r16
    146c:	1f 93       	push	r17
    146e:	cf 93       	push	r28
    1470:	df 93       	push	r29
    1472:	fc 01       	movw	r30, r24
    1474:	db 01       	movw	r26, r22
    1476:	9a 01       	movw	r18, r20
    1478:	80 81       	ld	r24, Z
    147a:	91 81       	ldd	r25, Z+1	; 0x01
    147c:	48 17       	cp	r20, r24
    147e:	59 07       	cpc	r21, r25
    1480:	29 f4       	brne	.+10     	; 0x148c <analog_clk_GET_LEDS_PONTEIROS+0x22>
    1482:	4f ef       	ldi	r20, 0xFF	; 255
    1484:	5f ef       	ldi	r21, 0xFF	; 255
    1486:	6f e1       	ldi	r22, 0x1F	; 31
    1488:	70 e0       	ldi	r23, 0x00	; 0
    148a:	2d c0       	rjmp	.+90     	; 0x14e6 <analog_clk_GET_LEDS_PONTEIROS+0x7c>
    148c:	82 81       	ldd	r24, Z+2	; 0x02
    148e:	93 81       	ldd	r25, Z+3	; 0x03
    1490:	48 17       	cp	r20, r24
    1492:	59 07       	cpc	r21, r25
    1494:	29 f4       	brne	.+10     	; 0x14a0 <analog_clk_GET_LEDS_PONTEIROS+0x36>
    1496:	4f ef       	ldi	r20, 0xFF	; 255
    1498:	5f ef       	ldi	r21, 0xFF	; 255
    149a:	61 e0       	ldi	r22, 0x01	; 1
    149c:	70 e0       	ldi	r23, 0x00	; 0
    149e:	04 c0       	rjmp	.+8      	; 0x14a8 <analog_clk_GET_LEDS_PONTEIROS+0x3e>
    14a0:	40 e0       	ldi	r20, 0x00	; 0
    14a2:	50 e0       	ldi	r21, 0x00	; 0
    14a4:	60 e0       	ldi	r22, 0x00	; 0
    14a6:	70 e0       	ldi	r23, 0x00	; 0
    14a8:	84 81       	ldd	r24, Z+4	; 0x04
    14aa:	95 81       	ldd	r25, Z+5	; 0x05
    14ac:	28 17       	cp	r18, r24
    14ae:	39 07       	cpc	r19, r25
    14b0:	09 f4       	brne	.+2      	; 0x14b4 <analog_clk_GET_LEDS_PONTEIROS+0x4a>
    14b2:	50 64       	ori	r21, 0x40	; 64
    14b4:	86 81       	ldd	r24, Z+6	; 0x06
    14b6:	97 81       	ldd	r25, Z+7	; 0x07
    14b8:	28 17       	cp	r18, r24
    14ba:	39 07       	cpc	r19, r25
    14bc:	09 f4       	brne	.+2      	; 0x14c0 <analog_clk_GET_LEDS_PONTEIROS+0x56>
    14be:	50 64       	ori	r21, 0x40	; 64
    14c0:	80 85       	ldd	r24, Z+8	; 0x08
    14c2:	91 85       	ldd	r25, Z+9	; 0x09
    14c4:	28 17       	cp	r18, r24
    14c6:	39 07       	cpc	r19, r25
    14c8:	11 f4       	brne	.+4      	; 0x14ce <analog_clk_GET_LEDS_PONTEIROS+0x64>
    14ca:	4f 6f       	ori	r20, 0xFF	; 255
    14cc:	5f 60       	ori	r21, 0x0F	; 15
    14ce:	82 85       	ldd	r24, Z+10	; 0x0a
    14d0:	93 85       	ldd	r25, Z+11	; 0x0b
    14d2:	28 17       	cp	r18, r24
    14d4:	39 07       	cpc	r19, r25
    14d6:	09 f4       	brne	.+2      	; 0x14da <analog_clk_GET_LEDS_PONTEIROS+0x70>
    14d8:	52 60       	ori	r21, 0x02	; 2
    14da:	84 85       	ldd	r24, Z+12	; 0x0c
    14dc:	95 85       	ldd	r25, Z+13	; 0x0d
    14de:	28 17       	cp	r18, r24
    14e0:	39 07       	cpc	r19, r25
    14e2:	09 f4       	brne	.+2      	; 0x14e6 <analog_clk_GET_LEDS_PONTEIROS+0x7c>
    14e4:	52 60       	ori	r21, 0x02	; 2
    14e6:	20 e0       	ldi	r18, 0x00	; 0
    14e8:	30 e0       	ldi	r19, 0x00	; 0
    14ea:	8f 01       	movw	r16, r30
    14ec:	02 5f       	subi	r16, 0xF2	; 242
    14ee:	1f 4f       	sbci	r17, 0xFF	; 255
    14f0:	ca 01       	movw	r24, r20
    14f2:	81 70       	andi	r24, 0x01	; 1
    14f4:	90 70       	andi	r25, 0x00	; 0
    14f6:	89 2b       	or	r24, r25
    14f8:	41 f0       	breq	.+16     	; 0x150a <analog_clk_GET_LEDS_PONTEIROS+0xa0>
    14fa:	ed 01       	movw	r28, r26
    14fc:	f8 01       	movw	r30, r16
    14fe:	83 e0       	ldi	r24, 0x03	; 3
    1500:	01 90       	ld	r0, Z+
    1502:	09 92       	st	Y+, r0
    1504:	81 50       	subi	r24, 0x01	; 1
    1506:	e1 f7       	brne	.-8      	; 0x1500 <analog_clk_GET_LEDS_PONTEIROS+0x96>
    1508:	07 c0       	rjmp	.+14     	; 0x1518 <analog_clk_GET_LEDS_PONTEIROS+0xae>
    150a:	1c 92       	st	X, r1
    150c:	11 96       	adiw	r26, 0x01	; 1
    150e:	1c 92       	st	X, r1
    1510:	11 97       	sbiw	r26, 0x01	; 1
    1512:	12 96       	adiw	r26, 0x02	; 2
    1514:	1c 92       	st	X, r1
    1516:	12 97       	sbiw	r26, 0x02	; 2
    1518:	2f 5f       	subi	r18, 0xFF	; 255
    151a:	3f 4f       	sbci	r19, 0xFF	; 255
    151c:	13 96       	adiw	r26, 0x03	; 3
    151e:	20 32       	cpi	r18, 0x20	; 32
    1520:	31 05       	cpc	r19, r1
    1522:	29 f0       	breq	.+10     	; 0x152e <analog_clk_GET_LEDS_PONTEIROS+0xc4>
    1524:	75 95       	asr	r23
    1526:	67 95       	ror	r22
    1528:	57 95       	ror	r21
    152a:	47 95       	ror	r20
    152c:	e1 cf       	rjmp	.-62     	; 0x14f0 <analog_clk_GET_LEDS_PONTEIROS+0x86>
    152e:	df 91       	pop	r29
    1530:	cf 91       	pop	r28
    1532:	1f 91       	pop	r17
    1534:	0f 91       	pop	r16
    1536:	08 95       	ret

00001538 <analog_clk_GET_LEDS_BACKGROUND>:
    1538:	6f 92       	push	r6
    153a:	7f 92       	push	r7
    153c:	9f 92       	push	r9
    153e:	af 92       	push	r10
    1540:	bf 92       	push	r11
    1542:	cf 92       	push	r12
    1544:	df 92       	push	r13
    1546:	ef 92       	push	r14
    1548:	ff 92       	push	r15
    154a:	0f 93       	push	r16
    154c:	1f 93       	push	r17
    154e:	cf 93       	push	r28
    1550:	df 93       	push	r29
    1552:	8c 01       	movw	r16, r24
    1554:	eb 01       	movw	r28, r22
    1556:	3a 01       	movw	r6, r20
    1558:	59 01       	movw	r10, r18
    155a:	ca 01       	movw	r24, r20
    155c:	66 e0       	ldi	r22, 0x06	; 6
    155e:	70 e0       	ldi	r23, 0x00	; 0
    1560:	0e 94 2e 1c 	call	0x385c	; 0x385c <__divmodhi4>
    1564:	89 2b       	or	r24, r25
    1566:	51 f4       	brne	.+20     	; 0x157c <analog_clk_GET_LEDS_BACKGROUND+0x44>
    1568:	de 01       	movw	r26, r28
    156a:	a3 5a       	subi	r26, 0xA3	; 163
    156c:	bf 4f       	sbci	r27, 0xFF	; 255
    156e:	f8 01       	movw	r30, r16
    1570:	74 96       	adiw	r30, 0x14	; 20
    1572:	83 e0       	ldi	r24, 0x03	; 3
    1574:	01 90       	ld	r0, Z+
    1576:	0d 92       	st	X+, r0
    1578:	81 50       	subi	r24, 0x01	; 1
    157a:	e1 f7       	brne	.-8      	; 0x1574 <analog_clk_GET_LEDS_BACKGROUND+0x3c>
    157c:	c3 01       	movw	r24, r6
    157e:	6e e1       	ldi	r22, 0x1E	; 30
    1580:	70 e0       	ldi	r23, 0x00	; 0
    1582:	0e 94 2e 1c 	call	0x385c	; 0x385c <__divmodhi4>
    1586:	89 2b       	or	r24, r25
    1588:	a1 f4       	brne	.+40     	; 0x15b2 <analog_clk_GET_LEDS_BACKGROUND+0x7a>
    158a:	de 01       	movw	r26, r28
    158c:	a6 5a       	subi	r26, 0xA6	; 166
    158e:	bf 4f       	sbci	r27, 0xFF	; 255
    1590:	f8 01       	movw	r30, r16
    1592:	77 96       	adiw	r30, 0x17	; 23
    1594:	83 e0       	ldi	r24, 0x03	; 3
    1596:	01 90       	ld	r0, Z+
    1598:	0d 92       	st	X+, r0
    159a:	81 50       	subi	r24, 0x01	; 1
    159c:	e1 f7       	brne	.-8      	; 0x1596 <analog_clk_GET_LEDS_BACKGROUND+0x5e>
    159e:	de 01       	movw	r26, r28
    15a0:	a9 5a       	subi	r26, 0xA9	; 169
    15a2:	bf 4f       	sbci	r27, 0xFF	; 255
    15a4:	f8 01       	movw	r30, r16
    15a6:	77 96       	adiw	r30, 0x17	; 23
    15a8:	83 e0       	ldi	r24, 0x03	; 3
    15aa:	01 90       	ld	r0, Z+
    15ac:	0d 92       	st	X+, r0
    15ae:	81 50       	subi	r24, 0x01	; 1
    15b0:	e1 f7       	brne	.-8      	; 0x15aa <analog_clk_GET_LEDS_BACKGROUND+0x72>
    15b2:	ce 5b       	subi	r28, 0xBE	; 190
    15b4:	df 4f       	sbci	r29, 0xFF	; 255
    15b6:	26 e1       	ldi	r18, 0x16	; 22
    15b8:	c2 2e       	mov	r12, r18
    15ba:	d1 2c       	mov	r13, r1
    15bc:	91 e1       	ldi	r25, 0x11	; 17
    15be:	e9 2e       	mov	r14, r25
    15c0:	f1 2c       	mov	r15, r1
    15c2:	e0 0e       	add	r14, r16
    15c4:	f1 1e       	adc	r15, r17
    15c6:	c3 01       	movw	r24, r6
    15c8:	b6 01       	movw	r22, r12
    15ca:	0e 94 12 0e 	call	0x1c24	; 0x1c24 <polar_2_rect>
    15ce:	08 2f       	mov	r16, r24
    15d0:	99 2e       	mov	r9, r25
    15d2:	19 2f       	mov	r17, r25
    15d4:	1e 51       	subi	r17, 0x1E	; 30
    15d6:	17 30       	cpi	r17, 0x07	; 7
    15d8:	a0 f4       	brcc	.+40     	; 0x1602 <analog_clk_GET_LEDS_BACKGROUND+0xca>
    15da:	68 2f       	mov	r22, r24
    15dc:	65 50       	subi	r22, 0x05	; 5
    15de:	65 30       	cpi	r22, 0x05	; 5
    15e0:	80 f4       	brcc	.+32     	; 0x1602 <analog_clk_GET_LEDS_BACKGROUND+0xca>
    15e2:	89 e3       	ldi	r24, 0x39	; 57
    15e4:	70 e0       	ldi	r23, 0x00	; 0
    15e6:	41 2f       	mov	r20, r17
    15e8:	50 e0       	ldi	r21, 0x00	; 0
    15ea:	95 01       	movw	r18, r10
    15ec:	0e 94 3b 0d 	call	0x1a76	; 0x1a76 <getPIXEL_CHAR>
    15f0:	89 2b       	or	r24, r25
    15f2:	39 f0       	breq	.+14     	; 0x1602 <analog_clk_GET_LEDS_BACKGROUND+0xca>
    15f4:	de 01       	movw	r26, r28
    15f6:	f7 01       	movw	r30, r14
    15f8:	83 e0       	ldi	r24, 0x03	; 3
    15fa:	01 90       	ld	r0, Z+
    15fc:	0d 92       	st	X+, r0
    15fe:	81 50       	subi	r24, 0x01	; 1
    1600:	e1 f7       	brne	.-8      	; 0x15fa <analog_clk_GET_LEDS_BACKGROUND+0xc2>
    1602:	60 2f       	mov	r22, r16
    1604:	68 53       	subi	r22, 0x38	; 56
    1606:	66 30       	cpi	r22, 0x06	; 6
    1608:	20 f5       	brcc	.+72     	; 0x1652 <analog_clk_GET_LEDS_BACKGROUND+0x11a>
    160a:	17 30       	cpi	r17, 0x07	; 7
    160c:	10 f5       	brcc	.+68     	; 0x1652 <analog_clk_GET_LEDS_BACKGROUND+0x11a>
    160e:	83 e3       	ldi	r24, 0x33	; 51
    1610:	70 e0       	ldi	r23, 0x00	; 0
    1612:	41 2f       	mov	r20, r17
    1614:	50 e0       	ldi	r21, 0x00	; 0
    1616:	95 01       	movw	r18, r10
    1618:	0e 94 3b 0d 	call	0x1a76	; 0x1a76 <getPIXEL_CHAR>
    161c:	89 2b       	or	r24, r25
    161e:	81 f0       	breq	.+32     	; 0x1640 <analog_clk_GET_LEDS_BACKGROUND+0x108>
    1620:	de 01       	movw	r26, r28
    1622:	f7 01       	movw	r30, r14
    1624:	83 e0       	ldi	r24, 0x03	; 3
    1626:	01 90       	ld	r0, Z+
    1628:	0d 92       	st	X+, r0
    162a:	81 50       	subi	r24, 0x01	; 1
    162c:	e1 f7       	brne	.-8      	; 0x1626 <analog_clk_GET_LEDS_BACKGROUND+0xee>
    162e:	80 91 ac 02 	lds	r24, 0x02AC
    1632:	90 91 ad 02 	lds	r25, 0x02AD
    1636:	01 96       	adiw	r24, 0x01	; 1
    1638:	90 93 ad 02 	sts	0x02AD, r25
    163c:	80 93 ac 02 	sts	0x02AC, r24
    1640:	80 91 ae 02 	lds	r24, 0x02AE
    1644:	90 91 af 02 	lds	r25, 0x02AF
    1648:	01 96       	adiw	r24, 0x01	; 1
    164a:	90 93 af 02 	sts	0x02AF, r25
    164e:	80 93 ae 02 	sts	0x02AE, r24
    1652:	60 2f       	mov	r22, r16
    1654:	6f 51       	subi	r22, 0x1F	; 31
    1656:	65 30       	cpi	r22, 0x05	; 5
    1658:	98 f4       	brcc	.+38     	; 0x1680 <analog_clk_GET_LEDS_BACKGROUND+0x148>
    165a:	49 2d       	mov	r20, r9
    165c:	47 53       	subi	r20, 0x37	; 55
    165e:	47 30       	cpi	r20, 0x07	; 7
    1660:	78 f4       	brcc	.+30     	; 0x1680 <analog_clk_GET_LEDS_BACKGROUND+0x148>
    1662:	86 e3       	ldi	r24, 0x36	; 54
    1664:	70 e0       	ldi	r23, 0x00	; 0
    1666:	50 e0       	ldi	r21, 0x00	; 0
    1668:	95 01       	movw	r18, r10
    166a:	0e 94 3b 0d 	call	0x1a76	; 0x1a76 <getPIXEL_CHAR>
    166e:	89 2b       	or	r24, r25
    1670:	39 f0       	breq	.+14     	; 0x1680 <analog_clk_GET_LEDS_BACKGROUND+0x148>
    1672:	de 01       	movw	r26, r28
    1674:	f7 01       	movw	r30, r14
    1676:	83 e0       	ldi	r24, 0x03	; 3
    1678:	01 90       	ld	r0, Z+
    167a:	0d 92       	st	X+, r0
    167c:	81 50       	subi	r24, 0x01	; 1
    167e:	e1 f7       	brne	.-8      	; 0x1678 <analog_clk_GET_LEDS_BACKGROUND+0x140>
    1680:	60 2f       	mov	r22, r16
    1682:	6c 51       	subi	r22, 0x1C	; 28
    1684:	65 30       	cpi	r22, 0x05	; 5
    1686:	98 f4       	brcc	.+38     	; 0x16ae <analog_clk_GET_LEDS_BACKGROUND+0x176>
    1688:	49 2d       	mov	r20, r9
    168a:	45 50       	subi	r20, 0x05	; 5
    168c:	47 30       	cpi	r20, 0x07	; 7
    168e:	78 f4       	brcc	.+30     	; 0x16ae <analog_clk_GET_LEDS_BACKGROUND+0x176>
    1690:	81 e3       	ldi	r24, 0x31	; 49
    1692:	70 e0       	ldi	r23, 0x00	; 0
    1694:	50 e0       	ldi	r21, 0x00	; 0
    1696:	95 01       	movw	r18, r10
    1698:	0e 94 3b 0d 	call	0x1a76	; 0x1a76 <getPIXEL_CHAR>
    169c:	89 2b       	or	r24, r25
    169e:	39 f0       	breq	.+14     	; 0x16ae <analog_clk_GET_LEDS_BACKGROUND+0x176>
    16a0:	de 01       	movw	r26, r28
    16a2:	f7 01       	movw	r30, r14
    16a4:	83 e0       	ldi	r24, 0x03	; 3
    16a6:	01 90       	ld	r0, Z+
    16a8:	0d 92       	st	X+, r0
    16aa:	81 50       	subi	r24, 0x01	; 1
    16ac:	e1 f7       	brne	.-8      	; 0x16a6 <analog_clk_GET_LEDS_BACKGROUND+0x16e>
    16ae:	60 2f       	mov	r22, r16
    16b0:	62 52       	subi	r22, 0x22	; 34
    16b2:	65 30       	cpi	r22, 0x05	; 5
    16b4:	98 f4       	brcc	.+38     	; 0x16dc <analog_clk_GET_LEDS_BACKGROUND+0x1a4>
    16b6:	49 2d       	mov	r20, r9
    16b8:	45 50       	subi	r20, 0x05	; 5
    16ba:	47 30       	cpi	r20, 0x07	; 7
    16bc:	78 f4       	brcc	.+30     	; 0x16dc <analog_clk_GET_LEDS_BACKGROUND+0x1a4>
    16be:	82 e3       	ldi	r24, 0x32	; 50
    16c0:	70 e0       	ldi	r23, 0x00	; 0
    16c2:	50 e0       	ldi	r21, 0x00	; 0
    16c4:	95 01       	movw	r18, r10
    16c6:	0e 94 3b 0d 	call	0x1a76	; 0x1a76 <getPIXEL_CHAR>
    16ca:	89 2b       	or	r24, r25
    16cc:	39 f0       	breq	.+14     	; 0x16dc <analog_clk_GET_LEDS_BACKGROUND+0x1a4>
    16ce:	de 01       	movw	r26, r28
    16d0:	f7 01       	movw	r30, r14
    16d2:	83 e0       	ldi	r24, 0x03	; 3
    16d4:	01 90       	ld	r0, Z+
    16d6:	0d 92       	st	X+, r0
    16d8:	81 50       	subi	r24, 0x01	; 1
    16da:	e1 f7       	brne	.-8      	; 0x16d4 <analog_clk_GET_LEDS_BACKGROUND+0x19c>
    16dc:	08 94       	sec
    16de:	c1 1c       	adc	r12, r1
    16e0:	d1 1c       	adc	r13, r1
    16e2:	23 96       	adiw	r28, 0x03	; 3
    16e4:	8d e1       	ldi	r24, 0x1D	; 29
    16e6:	c8 16       	cp	r12, r24
    16e8:	d1 04       	cpc	r13, r1
    16ea:	09 f0       	breq	.+2      	; 0x16ee <analog_clk_GET_LEDS_BACKGROUND+0x1b6>
    16ec:	6c cf       	rjmp	.-296    	; 0x15c6 <analog_clk_GET_LEDS_BACKGROUND+0x8e>
    16ee:	df 91       	pop	r29
    16f0:	cf 91       	pop	r28
    16f2:	1f 91       	pop	r17
    16f4:	0f 91       	pop	r16
    16f6:	ff 90       	pop	r15
    16f8:	ef 90       	pop	r14
    16fa:	df 90       	pop	r13
    16fc:	cf 90       	pop	r12
    16fe:	bf 90       	pop	r11
    1700:	af 90       	pop	r10
    1702:	9f 90       	pop	r9
    1704:	7f 90       	pop	r7
    1706:	6f 90       	pop	r6
    1708:	08 95       	ret

0000170a <main1>:
    170a:	8f ef       	ldi	r24, 0xFF	; 255
    170c:	84 bb       	out	0x14, r24	; 20
    milliseconds can be achieved.
 */
void
_delay_loop_2(uint16_t __count)
{
	__asm__ volatile (
    170e:	29 e1       	ldi	r18, 0x19	; 25
    1710:	30 e0       	ldi	r19, 0x00	; 0
    1712:	85 b3       	in	r24, 0x15	; 21
    1714:	80 95       	com	r24
    1716:	85 bb       	out	0x15, r24	; 21
    1718:	80 e1       	ldi	r24, 0x10	; 16
    171a:	97 e2       	ldi	r25, 0x27	; 39
    171c:	f9 01       	movw	r30, r18
    171e:	31 97       	sbiw	r30, 0x01	; 1
    1720:	f1 f7       	brne	.-4      	; 0x171e <main1+0x14>
		__ticks = (uint16_t) (__ms * 10.0);
		while(__ticks)
		{
			// wait 1/10 ms
			_delay_loop_2(((F_CPU) / 4e3) / 10);
			__ticks --;
    1722:	01 97       	sbiw	r24, 0x01	; 1
		__ticks = 1;
	else if (__tmp > 65535)
	{
		//	__ticks = requested delay in 1/10 ms
		__ticks = (uint16_t) (__ms * 10.0);
		while(__ticks)
    1724:	d9 f7       	brne	.-10     	; 0x171c <main1+0x12>
    1726:	f5 cf       	rjmp	.-22     	; 0x1712 <main1+0x8>

00001728 <init_INT>:
    1728:	80 e3       	ldi	r24, 0x30	; 48
    172a:	80 93 6a 00 	sts	0x006A, r24
    172e:	84 e0       	ldi	r24, 0x04	; 4
    1730:	89 bf       	out	0x39, r24	; 57
    1732:	88 bf       	out	0x38, r24	; 56
    1734:	8a 98       	cbi	0x11, 2	; 17
    1736:	92 9a       	sbi	0x12, 2	; 18
    1738:	78 94       	sei
    173a:	08 95       	ret

0000173c <INT2_task>:
    173c:	00 97       	sbiw	r24, 0x00	; 0
    173e:	19 f0       	breq	.+6      	; 0x1746 <INT2_task+0xa>
    1740:	01 97       	sbiw	r24, 0x01	; 1
    1742:	01 f5       	brne	.+64     	; 0x1784 <INT2_task+0x48>
    1744:	17 c0       	rjmp	.+46     	; 0x1774 <INT2_task+0x38>
    1746:	40 91 aa 02 	lds	r20, 0x02AA
    174a:	50 91 ab 02 	lds	r21, 0x02AB
    174e:	80 e0       	ldi	r24, 0x00	; 0
    1750:	91 e0       	ldi	r25, 0x01	; 1
    1752:	62 ec       	ldi	r22, 0xC2	; 194
    1754:	72 e0       	ldi	r23, 0x02	; 2
    1756:	0e 94 35 0a 	call	0x146a	; 0x146a <analog_clk_GET_LEDS_PONTEIROS>
    175a:	40 91 aa 02 	lds	r20, 0x02AA
    175e:	50 91 ab 02 	lds	r21, 0x02AB
    1762:	80 e0       	ldi	r24, 0x00	; 0
    1764:	91 e0       	ldi	r25, 0x01	; 1
    1766:	62 ec       	ldi	r22, 0xC2	; 194
    1768:	72 e0       	ldi	r23, 0x02	; 2
    176a:	2b ed       	ldi	r18, 0xDB	; 219
    176c:	32 e0       	ldi	r19, 0x02	; 2
    176e:	0e 94 9c 0a 	call	0x1538	; 0x1538 <analog_clk_GET_LEDS_BACKGROUND>
    1772:	08 c0       	rjmp	.+16     	; 0x1784 <INT2_task+0x48>
    1774:	60 91 aa 02 	lds	r22, 0x02AA
    1778:	70 91 ab 02 	lds	r23, 0x02AB
    177c:	82 ec       	ldi	r24, 0xC2	; 194
    177e:	92 e0       	ldi	r25, 0x02	; 2
    1780:	0e 94 20 16 	call	0x2c40	; 0x2c40 <digital_clock_generator>
    1784:	82 ec       	ldi	r24, 0xC2	; 194
    1786:	92 e0       	ldi	r25, 0x02	; 2
    1788:	0e 94 1d 10 	call	0x203a	; 0x203a <next_train>
    178c:	10 92 28 03 	sts	0x0328, r1
    1790:	10 92 27 03 	sts	0x0327, r1
    1794:	0e 94 4a 15 	call	0x2a94	; 0x2a94 <set_xlat>
    1798:	0e 94 4c 15 	call	0x2a98	; 0x2a98 <clear_xlat>
    179c:	08 95       	ret

0000179e <start_TWI_RTC>:
    179e:	10 92 5e 04 	sts	0x045E, r1
    17a2:	84 ea       	ldi	r24, 0xA4	; 164
    17a4:	80 93 74 00 	sts	0x0074, r24
    17a8:	80 91 74 00 	lds	r24, 0x0074
    17ac:	87 ff       	sbrs	r24, 7
    17ae:	fc cf       	rjmp	.-8      	; 0x17a8 <start_TWI_RTC+0xa>
    17b0:	80 91 71 00 	lds	r24, 0x0071
    17b4:	88 7f       	andi	r24, 0xF8	; 248
    17b6:	88 30       	cpi	r24, 0x08	; 8
    17b8:	19 f0       	breq	.+6      	; 0x17c0 <start_TWI_RTC+0x22>
    17ba:	81 e0       	ldi	r24, 0x01	; 1
    17bc:	80 93 5e 04 	sts	0x045E, r24
    17c0:	08 95       	ret

000017c2 <stop_TWI_RTC>:
    17c2:	84 e9       	ldi	r24, 0x94	; 148
    17c4:	80 93 74 00 	sts	0x0074, r24
    17c8:	08 95       	ret

000017ca <rep_start_TWI_RTC>:
    17ca:	80 91 5e 04 	lds	r24, 0x045E
    17ce:	88 23       	and	r24, r24
    17d0:	81 f4       	brne	.+32     	; 0x17f2 <rep_start_TWI_RTC+0x28>
    17d2:	84 ea       	ldi	r24, 0xA4	; 164
    17d4:	80 93 74 00 	sts	0x0074, r24
    17d8:	80 91 74 00 	lds	r24, 0x0074
    17dc:	87 ff       	sbrs	r24, 7
    17de:	fc cf       	rjmp	.-8      	; 0x17d8 <rep_start_TWI_RTC+0xe>
    17e0:	80 91 71 00 	lds	r24, 0x0071
    17e4:	88 7f       	andi	r24, 0xF8	; 248
    17e6:	80 31       	cpi	r24, 0x10	; 16
    17e8:	39 f0       	breq	.+14     	; 0x17f8 <rep_start_TWI_RTC+0x2e>
    17ea:	81 e0       	ldi	r24, 0x01	; 1
    17ec:	80 93 5e 04 	sts	0x045E, r24
    17f0:	08 95       	ret
    17f2:	81 e0       	ldi	r24, 0x01	; 1
    17f4:	80 93 5e 04 	sts	0x045E, r24
    17f8:	08 95       	ret

000017fa <send_addr_TWI_RTC>:
    17fa:	98 2f       	mov	r25, r24
    17fc:	80 91 5e 04 	lds	r24, 0x045E
    1800:	88 23       	and	r24, r24
    1802:	b1 f4       	brne	.+44     	; 0x1830 <send_addr_TWI_RTC+0x36>
    1804:	90 93 73 00 	sts	0x0073, r25
    1808:	84 e8       	ldi	r24, 0x84	; 132
    180a:	80 93 74 00 	sts	0x0074, r24
    180e:	80 91 74 00 	lds	r24, 0x0074
    1812:	87 ff       	sbrs	r24, 7
    1814:	fc cf       	rjmp	.-8      	; 0x180e <send_addr_TWI_RTC+0x14>
    1816:	80 91 71 00 	lds	r24, 0x0071
    181a:	88 7f       	andi	r24, 0xF8	; 248
    181c:	88 31       	cpi	r24, 0x18	; 24
    181e:	41 f0       	breq	.+16     	; 0x1830 <send_addr_TWI_RTC+0x36>
    1820:	80 91 71 00 	lds	r24, 0x0071
    1824:	88 7f       	andi	r24, 0xF8	; 248
    1826:	80 34       	cpi	r24, 0x40	; 64
    1828:	19 f0       	breq	.+6      	; 0x1830 <send_addr_TWI_RTC+0x36>
    182a:	81 e0       	ldi	r24, 0x01	; 1
    182c:	80 93 5e 04 	sts	0x045E, r24
    1830:	08 95       	ret

00001832 <send_ptr_value_TWI_RTC>:
    1832:	98 2f       	mov	r25, r24
    1834:	80 91 5e 04 	lds	r24, 0x045E
    1838:	88 23       	and	r24, r24
    183a:	91 f4       	brne	.+36     	; 0x1860 <send_ptr_value_TWI_RTC+0x2e>
    183c:	90 93 73 00 	sts	0x0073, r25
    1840:	84 e8       	ldi	r24, 0x84	; 132
    1842:	80 93 74 00 	sts	0x0074, r24
    1846:	80 91 74 00 	lds	r24, 0x0074
    184a:	87 ff       	sbrs	r24, 7
    184c:	fc cf       	rjmp	.-8      	; 0x1846 <send_ptr_value_TWI_RTC+0x14>
    184e:	80 91 71 00 	lds	r24, 0x0071
    1852:	88 7f       	andi	r24, 0xF8	; 248
    1854:	88 32       	cpi	r24, 0x28	; 40
    1856:	39 f0       	breq	.+14     	; 0x1866 <send_ptr_value_TWI_RTC+0x34>
    1858:	81 e0       	ldi	r24, 0x01	; 1
    185a:	80 93 5e 04 	sts	0x045E, r24
    185e:	08 95       	ret
    1860:	81 e0       	ldi	r24, 0x01	; 1
    1862:	80 93 5e 04 	sts	0x045E, r24
    1866:	08 95       	ret

00001868 <send_DATA_TWI_RTC>:
    1868:	98 2f       	mov	r25, r24
    186a:	80 91 5e 04 	lds	r24, 0x045E
    186e:	88 23       	and	r24, r24
    1870:	91 f4       	brne	.+36     	; 0x1896 <send_DATA_TWI_RTC+0x2e>
    1872:	90 93 73 00 	sts	0x0073, r25
    1876:	84 e8       	ldi	r24, 0x84	; 132
    1878:	80 93 74 00 	sts	0x0074, r24
    187c:	80 91 74 00 	lds	r24, 0x0074
    1880:	87 ff       	sbrs	r24, 7
    1882:	fc cf       	rjmp	.-8      	; 0x187c <send_DATA_TWI_RTC+0x14>
    1884:	80 91 71 00 	lds	r24, 0x0071
    1888:	88 7f       	andi	r24, 0xF8	; 248
    188a:	88 32       	cpi	r24, 0x28	; 40
    188c:	39 f0       	breq	.+14     	; 0x189c <send_DATA_TWI_RTC+0x34>
    188e:	81 e0       	ldi	r24, 0x01	; 1
    1890:	80 93 5e 04 	sts	0x045E, r24
    1894:	08 95       	ret
    1896:	81 e0       	ldi	r24, 0x01	; 1
    1898:	80 93 5e 04 	sts	0x045E, r24
    189c:	08 95       	ret

0000189e <readACK_DATA_TWI_RTC>:
    189e:	90 91 73 00 	lds	r25, 0x0073
    18a2:	84 ec       	ldi	r24, 0xC4	; 196
    18a4:	80 93 74 00 	sts	0x0074, r24
    18a8:	80 91 74 00 	lds	r24, 0x0074
    18ac:	87 ff       	sbrs	r24, 7
    18ae:	fc cf       	rjmp	.-8      	; 0x18a8 <readACK_DATA_TWI_RTC+0xa>
    18b0:	80 91 71 00 	lds	r24, 0x0071
    18b4:	88 7f       	andi	r24, 0xF8	; 248
    18b6:	80 35       	cpi	r24, 0x50	; 80
    18b8:	21 f0       	breq	.+8      	; 0x18c2 <readACK_DATA_TWI_RTC+0x24>
    18ba:	81 e0       	ldi	r24, 0x01	; 1
    18bc:	80 93 5e 04 	sts	0x045E, r24
    18c0:	08 95       	ret
    18c2:	89 2f       	mov	r24, r25
    18c4:	08 95       	ret

000018c6 <readNACK_DATA_TWI_RTC>:
    18c6:	80 91 5e 04 	lds	r24, 0x045E
    18ca:	88 23       	and	r24, r24
    18cc:	71 f4       	brne	.+28     	; 0x18ea <readNACK_DATA_TWI_RTC+0x24>
    18ce:	90 91 73 00 	lds	r25, 0x0073
    18d2:	84 e8       	ldi	r24, 0x84	; 132
    18d4:	80 93 74 00 	sts	0x0074, r24
    18d8:	80 91 74 00 	lds	r24, 0x0074
    18dc:	87 ff       	sbrs	r24, 7
    18de:	fc cf       	rjmp	.-8      	; 0x18d8 <readNACK_DATA_TWI_RTC+0x12>
    18e0:	80 91 71 00 	lds	r24, 0x0071
    18e4:	88 7f       	andi	r24, 0xF8	; 248
    18e6:	88 35       	cpi	r24, 0x58	; 88
    18e8:	21 f0       	breq	.+8      	; 0x18f2 <readNACK_DATA_TWI_RTC+0x2c>
    18ea:	81 e0       	ldi	r24, 0x01	; 1
    18ec:	80 93 5e 04 	sts	0x045E, r24
    18f0:	90 e0       	ldi	r25, 0x00	; 0
    18f2:	89 2f       	mov	r24, r25
    18f4:	08 95       	ret

000018f6 <set_clockRTC>:
    18f6:	ff 92       	push	r15
    18f8:	0f 93       	push	r16
    18fa:	1f 93       	push	r17
    18fc:	18 2f       	mov	r17, r24
    18fe:	06 2f       	mov	r16, r22
    1900:	f4 2e       	mov	r15, r20
    1902:	0e 94 cf 0b 	call	0x179e	; 0x179e <start_TWI_RTC>
    1906:	80 ed       	ldi	r24, 0xD0	; 208
    1908:	0e 94 fd 0b 	call	0x17fa	; 0x17fa <send_addr_TWI_RTC>
    190c:	80 e0       	ldi	r24, 0x00	; 0
    190e:	0e 94 19 0c 	call	0x1832	; 0x1832 <send_ptr_value_TWI_RTC>
    1912:	81 2f       	mov	r24, r17
    1914:	0e 94 34 0c 	call	0x1868	; 0x1868 <send_DATA_TWI_RTC>
    1918:	80 2f       	mov	r24, r16
    191a:	0e 94 34 0c 	call	0x1868	; 0x1868 <send_DATA_TWI_RTC>
    191e:	8f 2d       	mov	r24, r15
    1920:	0e 94 34 0c 	call	0x1868	; 0x1868 <send_DATA_TWI_RTC>
    1924:	84 e9       	ldi	r24, 0x94	; 148
    1926:	80 93 74 00 	sts	0x0074, r24
    192a:	1f 91       	pop	r17
    192c:	0f 91       	pop	r16
    192e:	ff 90       	pop	r15
    1930:	08 95       	ret

00001932 <get_clock>:
    1932:	ef 92       	push	r14
    1934:	ff 92       	push	r15
    1936:	1f 93       	push	r17
    1938:	7c 01       	movw	r14, r24
    193a:	0e 94 cf 0b 	call	0x179e	; 0x179e <start_TWI_RTC>
    193e:	80 ed       	ldi	r24, 0xD0	; 208
    1940:	0e 94 fd 0b 	call	0x17fa	; 0x17fa <send_addr_TWI_RTC>
    1944:	80 e0       	ldi	r24, 0x00	; 0
    1946:	0e 94 19 0c 	call	0x1832	; 0x1832 <send_ptr_value_TWI_RTC>
    194a:	0e 94 e5 0b 	call	0x17ca	; 0x17ca <rep_start_TWI_RTC>
    194e:	81 ed       	ldi	r24, 0xD1	; 209
    1950:	0e 94 fd 0b 	call	0x17fa	; 0x17fa <send_addr_TWI_RTC>
    1954:	0e 94 4f 0c 	call	0x189e	; 0x189e <readACK_DATA_TWI_RTC>
    1958:	80 93 5d 04 	sts	0x045D, r24
    195c:	0e 94 4f 0c 	call	0x189e	; 0x189e <readACK_DATA_TWI_RTC>
    1960:	28 2f       	mov	r18, r24
    1962:	22 95       	swap	r18
    1964:	2f 70       	andi	r18, 0x0F	; 15
    1966:	1a e0       	ldi	r17, 0x0A	; 10
    1968:	21 9f       	mul	r18, r17
    196a:	90 01       	movw	r18, r0
    196c:	11 24       	eor	r1, r1
    196e:	8f 70       	andi	r24, 0x0F	; 15
    1970:	28 0f       	add	r18, r24
    1972:	31 1d       	adc	r19, r1
    1974:	f7 01       	movw	r30, r14
    1976:	31 83       	std	Z+1, r19	; 0x01
    1978:	20 83       	st	Z, r18
    197a:	0e 94 4f 0c 	call	0x189e	; 0x189e <readACK_DATA_TWI_RTC>
    197e:	28 2f       	mov	r18, r24
    1980:	22 95       	swap	r18
    1982:	2f 70       	andi	r18, 0x0F	; 15
    1984:	21 9f       	mul	r18, r17
    1986:	90 01       	movw	r18, r0
    1988:	11 24       	eor	r1, r1
    198a:	8f 70       	andi	r24, 0x0F	; 15
    198c:	28 0f       	add	r18, r24
    198e:	31 1d       	adc	r19, r1
    1990:	f7 01       	movw	r30, r14
    1992:	33 83       	std	Z+3, r19	; 0x03
    1994:	22 83       	std	Z+2, r18	; 0x02
    1996:	0e 94 4f 0c 	call	0x189e	; 0x189e <readACK_DATA_TWI_RTC>
    199a:	28 2f       	mov	r18, r24
    199c:	22 95       	swap	r18
    199e:	2f 70       	andi	r18, 0x0F	; 15
    19a0:	21 9f       	mul	r18, r17
    19a2:	90 01       	movw	r18, r0
    19a4:	11 24       	eor	r1, r1
    19a6:	8f 70       	andi	r24, 0x0F	; 15
    19a8:	28 0f       	add	r18, r24
    19aa:	31 1d       	adc	r19, r1
    19ac:	f7 01       	movw	r30, r14
    19ae:	35 83       	std	Z+5, r19	; 0x05
    19b0:	24 83       	std	Z+4, r18	; 0x04
    19b2:	0e 94 63 0c 	call	0x18c6	; 0x18c6 <readNACK_DATA_TWI_RTC>
    19b6:	84 e9       	ldi	r24, 0x94	; 148
    19b8:	80 93 74 00 	sts	0x0074, r24
    19bc:	1f 91       	pop	r17
    19be:	ff 90       	pop	r15
    19c0:	ef 90       	pop	r14
    19c2:	08 95       	ret

000019c4 <update_train>:
    19c4:	08 95       	ret

000019c6 <clear_train>:
    19c6:	e2 ec       	ldi	r30, 0xC2	; 194
    19c8:	f2 e0       	ldi	r31, 0x02	; 2
    19ca:	10 82       	st	Z, r1
    19cc:	11 82       	std	Z+1, r1	; 0x01
    19ce:	12 82       	std	Z+2, r1	; 0x02
    19d0:	33 96       	adiw	r30, 0x03	; 3
    19d2:	83 e0       	ldi	r24, 0x03	; 3
    19d4:	e2 32       	cpi	r30, 0x22	; 34
    19d6:	f8 07       	cpc	r31, r24
    19d8:	c1 f7       	brne	.-16     	; 0x19ca <clear_train+0x4>
    19da:	08 95       	ret

000019dc <my_rand>:
    19dc:	20 91 b8 02 	lds	r18, 0x02B8
    19e0:	30 91 b9 02 	lds	r19, 0x02B9
    19e4:	85 eb       	ldi	r24, 0xB5	; 181
    19e6:	90 e0       	ldi	r25, 0x00	; 0
    19e8:	ac 01       	movw	r20, r24
    19ea:	24 9f       	mul	r18, r20
    19ec:	c0 01       	movw	r24, r0
    19ee:	25 9f       	mul	r18, r21
    19f0:	90 0d       	add	r25, r0
    19f2:	34 9f       	mul	r19, r20
    19f4:	90 0d       	add	r25, r0
    19f6:	11 24       	eor	r1, r1
    19f8:	89 59       	subi	r24, 0x99	; 153
    19fa:	9e 4f       	sbci	r25, 0xFE	; 254
    19fc:	90 93 b9 02 	sts	0x02B9, r25
    1a00:	80 93 b8 02 	sts	0x02B8, r24
    1a04:	89 2f       	mov	r24, r25
    1a06:	08 95       	ret

00001a08 <rand_color>:
    1a08:	df 93       	push	r29
    1a0a:	cf 93       	push	r28
    1a0c:	00 d0       	rcall	.+0      	; 0x1a0e <rand_color+0x6>
    1a0e:	0f 92       	push	r0
    1a10:	cd b7       	in	r28, 0x3d	; 61
    1a12:	de b7       	in	r29, 0x3e	; 62
    1a14:	20 91 b8 02 	lds	r18, 0x02B8
    1a18:	30 91 b9 02 	lds	r19, 0x02B9
    1a1c:	85 eb       	ldi	r24, 0xB5	; 181
    1a1e:	90 e0       	ldi	r25, 0x00	; 0
    1a20:	28 9f       	mul	r18, r24
    1a22:	a0 01       	movw	r20, r0
    1a24:	29 9f       	mul	r18, r25
    1a26:	50 0d       	add	r21, r0
    1a28:	38 9f       	mul	r19, r24
    1a2a:	50 0d       	add	r21, r0
    1a2c:	11 24       	eor	r1, r1
    1a2e:	49 59       	subi	r20, 0x99	; 153
    1a30:	5e 4f       	sbci	r21, 0xFE	; 254
    1a32:	48 9f       	mul	r20, r24
    1a34:	90 01       	movw	r18, r0
    1a36:	49 9f       	mul	r20, r25
    1a38:	30 0d       	add	r19, r0
    1a3a:	58 9f       	mul	r21, r24
    1a3c:	30 0d       	add	r19, r0
    1a3e:	11 24       	eor	r1, r1
    1a40:	29 59       	subi	r18, 0x99	; 153
    1a42:	3e 4f       	sbci	r19, 0xFE	; 254
    1a44:	bc 01       	movw	r22, r24
    1a46:	26 9f       	mul	r18, r22
    1a48:	c0 01       	movw	r24, r0
    1a4a:	27 9f       	mul	r18, r23
    1a4c:	90 0d       	add	r25, r0
    1a4e:	36 9f       	mul	r19, r22
    1a50:	90 0d       	add	r25, r0
    1a52:	11 24       	eor	r1, r1
    1a54:	89 59       	subi	r24, 0x99	; 153
    1a56:	9e 4f       	sbci	r25, 0xFE	; 254
    1a58:	90 93 b9 02 	sts	0x02B9, r25
    1a5c:	80 93 b8 02 	sts	0x02B8, r24
    1a60:	65 2f       	mov	r22, r21
    1a62:	73 2f       	mov	r23, r19
    1a64:	89 2f       	mov	r24, r25
    1a66:	90 e0       	ldi	r25, 0x00	; 0
    1a68:	0f 90       	pop	r0
    1a6a:	0f 90       	pop	r0
    1a6c:	0f 90       	pop	r0
    1a6e:	cf 91       	pop	r28
    1a70:	df 91       	pop	r29
    1a72:	08 95       	ret

00001a74 <nop>:
    1a74:	08 95       	ret

00001a76 <getPIXEL_CHAR>:
    1a76:	e8 2f       	mov	r30, r24
    1a78:	98 2f       	mov	r25, r24
    1a7a:	90 53       	subi	r25, 0x30	; 48
    1a7c:	9b 30       	cpi	r25, 0x0B	; 11
    1a7e:	08 f0       	brcs	.+2      	; 0x1a82 <getPIXEL_CHAR+0xc>
    1a80:	9f ef       	ldi	r25, 0xFF	; 255
    1a82:	8e 2f       	mov	r24, r30
    1a84:	81 54       	subi	r24, 0x41	; 65
    1a86:	8a 31       	cpi	r24, 0x1A	; 26
    1a88:	10 f4       	brcc	.+4      	; 0x1a8e <getPIXEL_CHAR+0x18>
    1a8a:	9e 2f       	mov	r25, r30
    1a8c:	96 53       	subi	r25, 0x36	; 54
    1a8e:	9f 3f       	cpi	r25, 0xFF	; 255
    1a90:	e1 f0       	breq	.+56     	; 0x1aca <getPIXEL_CHAR+0x54>
    1a92:	65 30       	cpi	r22, 0x05	; 5
    1a94:	71 05       	cpc	r23, r1
    1a96:	cc f4       	brge	.+50     	; 0x1aca <getPIXEL_CHAR+0x54>
    1a98:	47 30       	cpi	r20, 0x07	; 7
    1a9a:	51 05       	cpc	r21, r1
    1a9c:	b4 f4       	brge	.+44     	; 0x1aca <getPIXEL_CHAR+0x54>
    1a9e:	e5 e0       	ldi	r30, 0x05	; 5
    1aa0:	9e 9f       	mul	r25, r30
    1aa2:	f0 01       	movw	r30, r0
    1aa4:	11 24       	eor	r1, r1
    1aa6:	e6 0f       	add	r30, r22
    1aa8:	f7 1f       	adc	r31, r23
    1aaa:	e2 0f       	add	r30, r18
    1aac:	f3 1f       	adc	r31, r19
    1aae:	e4 91       	lpm	r30, Z+
    1ab0:	f0 e0       	ldi	r31, 0x00	; 0
    1ab2:	87 e0       	ldi	r24, 0x07	; 7
    1ab4:	90 e0       	ldi	r25, 0x00	; 0
    1ab6:	84 1b       	sub	r24, r20
    1ab8:	95 0b       	sbc	r25, r21
    1aba:	02 c0       	rjmp	.+4      	; 0x1ac0 <getPIXEL_CHAR+0x4a>
    1abc:	f5 95       	asr	r31
    1abe:	e7 95       	ror	r30
    1ac0:	8a 95       	dec	r24
    1ac2:	e2 f7       	brpl	.-8      	; 0x1abc <getPIXEL_CHAR+0x46>
    1ac4:	e1 70       	andi	r30, 0x01	; 1
    1ac6:	f0 70       	andi	r31, 0x00	; 0
    1ac8:	02 c0       	rjmp	.+4      	; 0x1ace <getPIXEL_CHAR+0x58>
    1aca:	e0 e0       	ldi	r30, 0x00	; 0
    1acc:	f0 e0       	ldi	r31, 0x00	; 0
    1ace:	cf 01       	movw	r24, r30
    1ad0:	08 95       	ret

00001ad2 <getCHAR_PIXEIS>:
    1ad2:	28 2f       	mov	r18, r24
    1ad4:	98 2f       	mov	r25, r24
    1ad6:	90 53       	subi	r25, 0x30	; 48
    1ad8:	9b 30       	cpi	r25, 0x0B	; 11
    1ada:	08 f0       	brcs	.+2      	; 0x1ade <getCHAR_PIXEIS+0xc>
    1adc:	9f ef       	ldi	r25, 0xFF	; 255
    1ade:	82 2f       	mov	r24, r18
    1ae0:	81 54       	subi	r24, 0x41	; 65
    1ae2:	8a 31       	cpi	r24, 0x1A	; 26
    1ae4:	10 f4       	brcc	.+4      	; 0x1aea <getCHAR_PIXEIS+0x18>
    1ae6:	92 2f       	mov	r25, r18
    1ae8:	96 53       	subi	r25, 0x36	; 54
    1aea:	9f 3f       	cpi	r25, 0xFF	; 255
    1aec:	19 f4       	brne	.+6      	; 0x1af4 <getCHAR_PIXEIS+0x22>
    1aee:	20 e0       	ldi	r18, 0x00	; 0
    1af0:	30 e0       	ldi	r19, 0x00	; 0
    1af2:	06 c0       	rjmp	.+12     	; 0x1b00 <getCHAR_PIXEIS+0x2e>
    1af4:	85 e0       	ldi	r24, 0x05	; 5
    1af6:	98 9f       	mul	r25, r24
    1af8:	90 01       	movw	r18, r0
    1afa:	11 24       	eor	r1, r1
    1afc:	26 0f       	add	r18, r22
    1afe:	37 1f       	adc	r19, r23
    1b00:	c9 01       	movw	r24, r18
    1b02:	08 95       	ret

00001b04 <read_TCNT0>:
    1b04:	80 e0       	ldi	r24, 0x00	; 0
    1b06:	90 e0       	ldi	r25, 0x00	; 0
    1b08:	08 95       	ret

00001b0a <convert_encod_2_radian>:
    1b0a:	60 91 aa 02 	lds	r22, 0x02AA
    1b0e:	70 91 ab 02 	lds	r23, 0x02AB
    1b12:	88 27       	eor	r24, r24
    1b14:	77 fd       	sbrc	r23, 7
    1b16:	80 95       	com	r24
    1b18:	98 2f       	mov	r25, r24
    1b1a:	0e 94 cc 19 	call	0x3398	; 0x3398 <__floatsisf>
    1b1e:	25 e3       	ldi	r18, 0x35	; 53
    1b20:	3a ef       	ldi	r19, 0xFA	; 250
    1b22:	4e e8       	ldi	r20, 0x8E	; 142
    1b24:	5c e3       	ldi	r21, 0x3C	; 60
    1b26:	0e 94 26 18 	call	0x304c	; 0x304c <__mulsf3>
    1b2a:	08 95       	ret

00001b2c <convert_encod_2_degree>:
    1b2c:	60 91 aa 02 	lds	r22, 0x02AA
    1b30:	70 91 ab 02 	lds	r23, 0x02AB
    1b34:	88 27       	eor	r24, r24
    1b36:	77 fd       	sbrc	r23, 7
    1b38:	80 95       	com	r24
    1b3a:	98 2f       	mov	r25, r24
    1b3c:	0e 94 cc 19 	call	0x3398	; 0x3398 <__floatsisf>
    1b40:	2c ee       	ldi	r18, 0xEC	; 236
    1b42:	31 e5       	ldi	r19, 0x51	; 81
    1b44:	48 e3       	ldi	r20, 0x38	; 56
    1b46:	5f e3       	ldi	r21, 0x3F	; 63
    1b48:	0e 94 26 18 	call	0x304c	; 0x304c <__mulsf3>
    1b4c:	0e 94 2a 1a 	call	0x3454	; 0x3454 <__fixsfsi>
    1b50:	cb 01       	movw	r24, r22
    1b52:	08 95       	ret

00001b54 <convert_to_radian>:
    1b54:	aa 27       	eor	r26, r26
    1b56:	97 fd       	sbrc	r25, 7
    1b58:	a0 95       	com	r26
    1b5a:	ba 2f       	mov	r27, r26
    1b5c:	bc 01       	movw	r22, r24
    1b5e:	cd 01       	movw	r24, r26
    1b60:	0e 94 cc 19 	call	0x3398	; 0x3398 <__floatsisf>
    1b64:	21 e6       	ldi	r18, 0x61	; 97
    1b66:	3b e0       	ldi	r19, 0x0B	; 11
    1b68:	46 e3       	ldi	r20, 0x36	; 54
    1b6a:	5b e3       	ldi	r21, 0x3B	; 59
    1b6c:	0e 94 26 18 	call	0x304c	; 0x304c <__mulsf3>
    1b70:	2b ed       	ldi	r18, 0xDB	; 219
    1b72:	3f e0       	ldi	r19, 0x0F	; 15
    1b74:	49 e4       	ldi	r20, 0x49	; 73
    1b76:	50 e4       	ldi	r21, 0x40	; 64
    1b78:	0e 94 26 18 	call	0x304c	; 0x304c <__mulsf3>
    1b7c:	9b 01       	movw	r18, r22
    1b7e:	ac 01       	movw	r20, r24
    1b80:	0e 94 f9 17 	call	0x2ff2	; 0x2ff2 <__addsf3>
    1b84:	08 95       	ret

00001b86 <convert_int_to_2digits>:
    1b86:	ef 92       	push	r14
    1b88:	ff 92       	push	r15
    1b8a:	0f 93       	push	r16
    1b8c:	1f 93       	push	r17
    1b8e:	7c 01       	movw	r14, r24
    1b90:	8b 01       	movw	r16, r22
    1b92:	b8 01       	movw	r22, r16
    1b94:	88 27       	eor	r24, r24
    1b96:	77 fd       	sbrc	r23, 7
    1b98:	80 95       	com	r24
    1b9a:	98 2f       	mov	r25, r24
    1b9c:	0e 94 cc 19 	call	0x3398	; 0x3398 <__floatsisf>
    1ba0:	2d ec       	ldi	r18, 0xCD	; 205
    1ba2:	3c ec       	ldi	r19, 0xCC	; 204
    1ba4:	4c ec       	ldi	r20, 0xCC	; 204
    1ba6:	5d e3       	ldi	r21, 0x3D	; 61
    1ba8:	0e 94 26 18 	call	0x304c	; 0x304c <__mulsf3>
    1bac:	0e 94 2a 1a 	call	0x3454	; 0x3454 <__fixsfsi>
    1bb0:	60 5d       	subi	r22, 0xD0	; 208
    1bb2:	f7 01       	movw	r30, r14
    1bb4:	60 83       	st	Z, r22
    1bb6:	c8 01       	movw	r24, r16
    1bb8:	6a e0       	ldi	r22, 0x0A	; 10
    1bba:	70 e0       	ldi	r23, 0x00	; 0
    1bbc:	0e 94 2e 1c 	call	0x385c	; 0x385c <__divmodhi4>
    1bc0:	80 5d       	subi	r24, 0xD0	; 208
    1bc2:	81 83       	std	Z+1, r24	; 0x01
    1bc4:	1f 91       	pop	r17
    1bc6:	0f 91       	pop	r16
    1bc8:	ff 90       	pop	r15
    1bca:	ef 90       	pop	r14
    1bcc:	08 95       	ret

00001bce <isBlack>:
    1bce:	df 93       	push	r29
    1bd0:	cf 93       	push	r28
    1bd2:	00 d0       	rcall	.+0      	; 0x1bd4 <isBlack+0x6>
    1bd4:	0f 92       	push	r0
    1bd6:	cd b7       	in	r28, 0x3d	; 61
    1bd8:	de b7       	in	r29, 0x3e	; 62
    1bda:	26 2f       	mov	r18, r22
    1bdc:	40 e0       	ldi	r20, 0x00	; 0
    1bde:	50 e0       	ldi	r21, 0x00	; 0
    1be0:	30 e0       	ldi	r19, 0x00	; 0
    1be2:	27 0f       	add	r18, r23
    1be4:	31 1d       	adc	r19, r1
    1be6:	28 0f       	add	r18, r24
    1be8:	31 1d       	adc	r19, r1
    1bea:	23 2b       	or	r18, r19
    1bec:	11 f4       	brne	.+4      	; 0x1bf2 <isBlack+0x24>
    1bee:	41 e0       	ldi	r20, 0x01	; 1
    1bf0:	50 e0       	ldi	r21, 0x00	; 0
    1bf2:	ca 01       	movw	r24, r20
    1bf4:	0f 90       	pop	r0
    1bf6:	0f 90       	pop	r0
    1bf8:	0f 90       	pop	r0
    1bfa:	cf 91       	pop	r28
    1bfc:	df 91       	pop	r29
    1bfe:	08 95       	ret

00001c00 <copy_rgb>:
    1c00:	dc 01       	movw	r26, r24
    1c02:	20 e0       	ldi	r18, 0x00	; 0
    1c04:	30 e0       	ldi	r19, 0x00	; 0
    1c06:	0a c0       	rjmp	.+20     	; 0x1c1c <copy_rgb+0x1c>
    1c08:	fd 01       	movw	r30, r26
    1c0a:	e2 0f       	add	r30, r18
    1c0c:	f3 1f       	adc	r31, r19
    1c0e:	80 81       	ld	r24, Z
    1c10:	fb 01       	movw	r30, r22
    1c12:	e2 0f       	add	r30, r18
    1c14:	f3 1f       	adc	r31, r19
    1c16:	80 83       	st	Z, r24
    1c18:	2f 5f       	subi	r18, 0xFF	; 255
    1c1a:	3f 4f       	sbci	r19, 0xFF	; 255
    1c1c:	24 17       	cp	r18, r20
    1c1e:	35 07       	cpc	r19, r21
    1c20:	9c f3       	brlt	.-26     	; 0x1c08 <copy_rgb+0x8>
    1c22:	08 95       	ret

00001c24 <polar_2_rect>:
    1c24:	ac 01       	movw	r20, r24
    1c26:	21 e0       	ldi	r18, 0x01	; 1
    1c28:	8e 30       	cpi	r24, 0x0E	; 14
    1c2a:	92 07       	cpc	r25, r18
    1c2c:	44 f0       	brlt	.+16     	; 0x1c3e <polar_2_rect+0x1a>
    1c2e:	88 e6       	ldi	r24, 0x68	; 104
    1c30:	91 e0       	ldi	r25, 0x01	; 1
    1c32:	fc 01       	movw	r30, r24
    1c34:	e4 1b       	sub	r30, r20
    1c36:	f5 0b       	sbc	r31, r21
    1c38:	af 01       	movw	r20, r30
    1c3a:	b1 e0       	ldi	r27, 0x01	; 1
    1c3c:	06 c0       	rjmp	.+12     	; 0x1c4a <polar_2_rect+0x26>
    1c3e:	84 3b       	cpi	r24, 0xB4	; 180
    1c40:	91 05       	cpc	r25, r1
    1c42:	2c f0       	brlt	.+10     	; 0x1c4e <polar_2_rect+0x2a>
    1c44:	44 5b       	subi	r20, 0xB4	; 180
    1c46:	50 40       	sbci	r21, 0x00	; 0
    1c48:	bf ef       	ldi	r27, 0xFF	; 255
    1c4a:	af ef       	ldi	r26, 0xFF	; 255
    1c4c:	0d c0       	rjmp	.+26     	; 0x1c68 <polar_2_rect+0x44>
    1c4e:	8a 35       	cpi	r24, 0x5A	; 90
    1c50:	91 05       	cpc	r25, r1
    1c52:	14 f4       	brge	.+4      	; 0x1c58 <polar_2_rect+0x34>
    1c54:	b1 e0       	ldi	r27, 0x01	; 1
    1c56:	07 c0       	rjmp	.+14     	; 0x1c66 <polar_2_rect+0x42>
    1c58:	84 eb       	ldi	r24, 0xB4	; 180
    1c5a:	90 e0       	ldi	r25, 0x00	; 0
    1c5c:	9c 01       	movw	r18, r24
    1c5e:	24 1b       	sub	r18, r20
    1c60:	35 0b       	sbc	r19, r21
    1c62:	a9 01       	movw	r20, r18
    1c64:	bf ef       	ldi	r27, 0xFF	; 255
    1c66:	a1 e0       	ldi	r26, 0x01	; 1
    1c68:	9b 01       	movw	r18, r22
    1c6a:	21 50       	subi	r18, 0x01	; 1
    1c6c:	30 40       	sbci	r19, 0x00	; 0
    1c6e:	fa 01       	movw	r30, r20
    1c70:	65 e0       	ldi	r22, 0x05	; 5
    1c72:	ee 0f       	add	r30, r30
    1c74:	ff 1f       	adc	r31, r31
    1c76:	6a 95       	dec	r22
    1c78:	e1 f7       	brne	.-8      	; 0x1c72 <polar_2_rect+0x4e>
    1c7a:	e2 0f       	add	r30, r18
    1c7c:	f3 1f       	adc	r31, r19
    1c7e:	e1 5f       	subi	r30, 0xF1	; 241
    1c80:	f8 4f       	sbci	r31, 0xF8	; 248
    1c82:	74 91       	lpm	r23, Z+
    1c84:	8a e5       	ldi	r24, 0x5A	; 90
    1c86:	90 e0       	ldi	r25, 0x00	; 0
    1c88:	84 1b       	sub	r24, r20
    1c8a:	95 0b       	sbc	r25, r21
    1c8c:	45 e0       	ldi	r20, 0x05	; 5
    1c8e:	88 0f       	add	r24, r24
    1c90:	99 1f       	adc	r25, r25
    1c92:	4a 95       	dec	r20
    1c94:	e1 f7       	brne	.-8      	; 0x1c8e <polar_2_rect+0x6a>
    1c96:	28 0f       	add	r18, r24
    1c98:	39 1f       	adc	r19, r25
    1c9a:	21 5f       	subi	r18, 0xF1	; 241
    1c9c:	38 4f       	sbci	r19, 0xF8	; 248
    1c9e:	f9 01       	movw	r30, r18
    1ca0:	64 91       	lpm	r22, Z+
    1ca2:	b7 9f       	mul	r27, r23
    1ca4:	e0 2d       	mov	r30, r0
    1ca6:	11 24       	eor	r1, r1
    1ca8:	a1 95       	neg	r26
    1caa:	a6 9f       	mul	r26, r22
    1cac:	60 2d       	mov	r22, r0
    1cae:	11 24       	eor	r1, r1
    1cb0:	8e 2f       	mov	r24, r30
    1cb2:	8f 5d       	subi	r24, 0xDF	; 223
    1cb4:	96 2f       	mov	r25, r22
    1cb6:	9f 5d       	subi	r25, 0xDF	; 223
    1cb8:	08 95       	ret

00001cba <p_2_r>:
    1cba:	6f 92       	push	r6
    1cbc:	7f 92       	push	r7
    1cbe:	8f 92       	push	r8
    1cc0:	9f 92       	push	r9
    1cc2:	af 92       	push	r10
    1cc4:	bf 92       	push	r11
    1cc6:	cf 92       	push	r12
    1cc8:	df 92       	push	r13
    1cca:	ef 92       	push	r14
    1ccc:	ff 92       	push	r15
    1cce:	0f 93       	push	r16
    1cd0:	1f 93       	push	r17
    1cd2:	5b 01       	movw	r10, r22
    1cd4:	aa 27       	eor	r26, r26
    1cd6:	97 fd       	sbrc	r25, 7
    1cd8:	a0 95       	com	r26
    1cda:	ba 2f       	mov	r27, r26
    1cdc:	bc 01       	movw	r22, r24
    1cde:	cd 01       	movw	r24, r26
    1ce0:	0e 94 cc 19 	call	0x3398	; 0x3398 <__floatsisf>
    1ce4:	2b ed       	ldi	r18, 0xDB	; 219
    1ce6:	3f e0       	ldi	r19, 0x0F	; 15
    1ce8:	49 e4       	ldi	r20, 0x49	; 73
    1cea:	50 e4       	ldi	r21, 0x40	; 64
    1cec:	0e 94 26 18 	call	0x304c	; 0x304c <__mulsf3>
    1cf0:	20 e0       	ldi	r18, 0x00	; 0
    1cf2:	30 e0       	ldi	r19, 0x00	; 0
    1cf4:	44 e3       	ldi	r20, 0x34	; 52
    1cf6:	53 e4       	ldi	r21, 0x43	; 67
    1cf8:	0e 94 20 19 	call	0x3240	; 0x3240 <__divsf3>
    1cfc:	7b 01       	movw	r14, r22
    1cfe:	8c 01       	movw	r16, r24
    1d00:	cc 24       	eor	r12, r12
    1d02:	b7 fc       	sbrc	r11, 7
    1d04:	c0 94       	com	r12
    1d06:	dc 2c       	mov	r13, r12
    1d08:	c6 01       	movw	r24, r12
    1d0a:	b5 01       	movw	r22, r10
    1d0c:	0e 94 cc 19 	call	0x3398	; 0x3398 <__floatsisf>
    1d10:	5b 01       	movw	r10, r22
    1d12:	6c 01       	movw	r12, r24
    1d14:	b7 01       	movw	r22, r14
    1d16:	c8 01       	movw	r24, r16
    1d18:	0e 94 9c 1d 	call	0x3b38	; 0x3b38 <cos>
    1d1c:	9b 01       	movw	r18, r22
    1d1e:	ac 01       	movw	r20, r24
    1d20:	c6 01       	movw	r24, r12
    1d22:	b5 01       	movw	r22, r10
    1d24:	0e 94 26 18 	call	0x304c	; 0x304c <__mulsf3>
    1d28:	20 e0       	ldi	r18, 0x00	; 0
    1d2a:	30 e0       	ldi	r19, 0x00	; 0
    1d2c:	44 e0       	ldi	r20, 0x04	; 4
    1d2e:	52 e4       	ldi	r21, 0x42	; 66
    1d30:	0e 94 f9 17 	call	0x2ff2	; 0x2ff2 <__addsf3>
    1d34:	0e 94 fa 1d 	call	0x3bf4	; 0x3bf4 <round>
    1d38:	3b 01       	movw	r6, r22
    1d3a:	4c 01       	movw	r8, r24
    1d3c:	b7 01       	movw	r22, r14
    1d3e:	c8 01       	movw	r24, r16
    1d40:	0e 94 1a 1e 	call	0x3c34	; 0x3c34 <sin>
    1d44:	9b 01       	movw	r18, r22
    1d46:	ac 01       	movw	r20, r24
    1d48:	d7 fa       	bst	r13, 7
    1d4a:	d0 94       	com	r13
    1d4c:	d7 f8       	bld	r13, 7
    1d4e:	d0 94       	com	r13
    1d50:	c6 01       	movw	r24, r12
    1d52:	b5 01       	movw	r22, r10
    1d54:	0e 94 26 18 	call	0x304c	; 0x304c <__mulsf3>
    1d58:	20 e0       	ldi	r18, 0x00	; 0
    1d5a:	30 e0       	ldi	r19, 0x00	; 0
    1d5c:	44 e0       	ldi	r20, 0x04	; 4
    1d5e:	52 e4       	ldi	r21, 0x42	; 66
    1d60:	0e 94 f9 17 	call	0x2ff2	; 0x2ff2 <__addsf3>
    1d64:	0e 94 fa 1d 	call	0x3bf4	; 0x3bf4 <round>
    1d68:	0e 94 2a 1a 	call	0x3454	; 0x3454 <__fixsfsi>
    1d6c:	7b 01       	movw	r14, r22
    1d6e:	8c 01       	movw	r16, r24
    1d70:	c4 01       	movw	r24, r8
    1d72:	b3 01       	movw	r22, r6
    1d74:	0e 94 2a 1a 	call	0x3454	; 0x3454 <__fixsfsi>
    1d78:	dc 01       	movw	r26, r24
    1d7a:	cb 01       	movw	r24, r22
    1d7c:	9e 2d       	mov	r25, r14
    1d7e:	1f 91       	pop	r17
    1d80:	0f 91       	pop	r16
    1d82:	ff 90       	pop	r15
    1d84:	ef 90       	pop	r14
    1d86:	df 90       	pop	r13
    1d88:	cf 90       	pop	r12
    1d8a:	bf 90       	pop	r11
    1d8c:	af 90       	pop	r10
    1d8e:	9f 90       	pop	r9
    1d90:	8f 90       	pop	r8
    1d92:	7f 90       	pop	r7
    1d94:	6f 90       	pop	r6
    1d96:	08 95       	ret

00001d98 <polar_to_rectangular>:
    1d98:	6f 92       	push	r6
    1d9a:	7f 92       	push	r7
    1d9c:	8f 92       	push	r8
    1d9e:	9f 92       	push	r9
    1da0:	af 92       	push	r10
    1da2:	bf 92       	push	r11
    1da4:	cf 92       	push	r12
    1da6:	df 92       	push	r13
    1da8:	ef 92       	push	r14
    1daa:	ff 92       	push	r15
    1dac:	0f 93       	push	r16
    1dae:	1f 93       	push	r17
    1db0:	7b 01       	movw	r14, r22
    1db2:	8c 01       	movw	r16, r24
    1db4:	66 27       	eor	r22, r22
    1db6:	57 fd       	sbrc	r21, 7
    1db8:	60 95       	com	r22
    1dba:	76 2f       	mov	r23, r22
    1dbc:	cb 01       	movw	r24, r22
    1dbe:	ba 01       	movw	r22, r20
    1dc0:	0e 94 cc 19 	call	0x3398	; 0x3398 <__floatsisf>
    1dc4:	5b 01       	movw	r10, r22
    1dc6:	6c 01       	movw	r12, r24
    1dc8:	c8 01       	movw	r24, r16
    1dca:	b7 01       	movw	r22, r14
    1dcc:	0e 94 9c 1d 	call	0x3b38	; 0x3b38 <cos>
    1dd0:	3b 01       	movw	r6, r22
    1dd2:	4c 01       	movw	r8, r24
    1dd4:	c8 01       	movw	r24, r16
    1dd6:	b7 01       	movw	r22, r14
    1dd8:	0e 94 1a 1e 	call	0x3c34	; 0x3c34 <sin>
    1ddc:	9b 01       	movw	r18, r22
    1dde:	ac 01       	movw	r20, r24
    1de0:	c6 01       	movw	r24, r12
    1de2:	b5 01       	movw	r22, r10
    1de4:	90 58       	subi	r25, 0x80	; 128
    1de6:	0e 94 26 18 	call	0x304c	; 0x304c <__mulsf3>
    1dea:	20 e0       	ldi	r18, 0x00	; 0
    1dec:	30 e0       	ldi	r19, 0x00	; 0
    1dee:	40 e0       	ldi	r20, 0x00	; 0
    1df0:	52 e4       	ldi	r21, 0x42	; 66
    1df2:	0e 94 f9 17 	call	0x2ff2	; 0x2ff2 <__addsf3>
    1df6:	20 e0       	ldi	r18, 0x00	; 0
    1df8:	30 e0       	ldi	r19, 0x00	; 0
    1dfa:	40 e4       	ldi	r20, 0x40	; 64
    1dfc:	51 e4       	ldi	r21, 0x41	; 65
    1dfe:	0e 94 c8 17 	call	0x2f90	; 0x2f90 <__subsf3>
    1e02:	0e 94 2a 1a 	call	0x3454	; 0x3454 <__fixsfsi>
    1e06:	7b 01       	movw	r14, r22
    1e08:	8c 01       	movw	r16, r24
    1e0a:	c6 01       	movw	r24, r12
    1e0c:	b5 01       	movw	r22, r10
    1e0e:	a4 01       	movw	r20, r8
    1e10:	93 01       	movw	r18, r6
    1e12:	0e 94 26 18 	call	0x304c	; 0x304c <__mulsf3>
    1e16:	20 e0       	ldi	r18, 0x00	; 0
    1e18:	30 e0       	ldi	r19, 0x00	; 0
    1e1a:	40 e0       	ldi	r20, 0x00	; 0
    1e1c:	52 e4       	ldi	r21, 0x42	; 66
    1e1e:	0e 94 f9 17 	call	0x2ff2	; 0x2ff2 <__addsf3>
    1e22:	20 e0       	ldi	r18, 0x00	; 0
    1e24:	30 e0       	ldi	r19, 0x00	; 0
    1e26:	40 e4       	ldi	r20, 0x40	; 64
    1e28:	51 e4       	ldi	r21, 0x41	; 65
    1e2a:	0e 94 c8 17 	call	0x2f90	; 0x2f90 <__subsf3>
    1e2e:	0e 94 2a 1a 	call	0x3454	; 0x3454 <__fixsfsi>
    1e32:	dc 01       	movw	r26, r24
    1e34:	cb 01       	movw	r24, r22
    1e36:	9e 2d       	mov	r25, r14
    1e38:	1f 91       	pop	r17
    1e3a:	0f 91       	pop	r16
    1e3c:	ff 90       	pop	r15
    1e3e:	ef 90       	pop	r14
    1e40:	df 90       	pop	r13
    1e42:	cf 90       	pop	r12
    1e44:	bf 90       	pop	r11
    1e46:	af 90       	pop	r10
    1e48:	9f 90       	pop	r9
    1e4a:	8f 90       	pop	r8
    1e4c:	7f 90       	pop	r7
    1e4e:	6f 90       	pop	r6
    1e50:	08 95       	ret

00001e52 <next_train_im>:
    1e52:	2f 92       	push	r2
    1e54:	3f 92       	push	r3
    1e56:	4f 92       	push	r4
    1e58:	5f 92       	push	r5
    1e5a:	6f 92       	push	r6
    1e5c:	7f 92       	push	r7
    1e5e:	8f 92       	push	r8
    1e60:	9f 92       	push	r9
    1e62:	af 92       	push	r10
    1e64:	bf 92       	push	r11
    1e66:	cf 92       	push	r12
    1e68:	df 92       	push	r13
    1e6a:	ef 92       	push	r14
    1e6c:	ff 92       	push	r15
    1e6e:	0f 93       	push	r16
    1e70:	1f 93       	push	r17
    1e72:	df 93       	push	r29
    1e74:	cf 93       	push	r28
    1e76:	00 d0       	rcall	.+0      	; 0x1e78 <next_train_im+0x26>
    1e78:	00 d0       	rcall	.+0      	; 0x1e7a <next_train_im+0x28>
    1e7a:	00 d0       	rcall	.+0      	; 0x1e7c <next_train_im+0x2a>
    1e7c:	cd b7       	in	r28, 0x3d	; 61
    1e7e:	de b7       	in	r29, 0x3e	; 62
    1e80:	5e e1       	ldi	r21, 0x1E	; 30
    1e82:	a5 2e       	mov	r10, r21
    1e84:	b1 2c       	mov	r11, r1
    1e86:	a8 0e       	add	r10, r24
    1e88:	b9 1e       	adc	r11, r25
    1e8a:	9c 01       	movw	r18, r24
    1e8c:	22 50       	subi	r18, 0x02	; 2
    1e8e:	30 40       	sbci	r19, 0x00	; 0
    1e90:	3a 83       	std	Y+2, r19	; 0x02
    1e92:	29 83       	std	Y+1, r18	; 0x01
    1e94:	f5 01       	movw	r30, r10
    1e96:	91 81       	ldd	r25, Z+1	; 0x01
    1e98:	89 2f       	mov	r24, r25
    1e9a:	82 95       	swap	r24
    1e9c:	86 95       	lsr	r24
    1e9e:	87 70       	andi	r24, 0x07	; 7
    1ea0:	38 2e       	mov	r3, r24
    1ea2:	33 0c       	add	r3, r3
    1ea4:	22 24       	eor	r2, r2
    1ea6:	71 01       	movw	r14, r2
    1ea8:	00 27       	eor	r16, r16
    1eaa:	f7 fc       	sbrc	r15, 7
    1eac:	00 95       	com	r16
    1eae:	10 2f       	mov	r17, r16
    1eb0:	4c e0       	ldi	r20, 0x0C	; 12
    1eb2:	ee 0c       	add	r14, r14
    1eb4:	ff 1c       	adc	r15, r15
    1eb6:	00 1f       	adc	r16, r16
    1eb8:	11 1f       	adc	r17, r17
    1eba:	4a 95       	dec	r20
    1ebc:	d1 f7       	brne	.-12     	; 0x1eb2 <next_train_im+0x60>
    1ebe:	96 95       	lsr	r25
    1ec0:	3e e0       	ldi	r19, 0x0E	; 14
    1ec2:	53 2e       	mov	r5, r19
    1ec4:	59 22       	and	r5, r25
    1ec6:	44 24       	eor	r4, r4
    1ec8:	c2 01       	movw	r24, r4
    1eca:	aa 27       	eor	r26, r26
    1ecc:	97 fd       	sbrc	r25, 7
    1ece:	a0 95       	com	r26
    1ed0:	ba 2f       	mov	r27, r26
    1ed2:	e8 2a       	or	r14, r24
    1ed4:	f9 2a       	or	r15, r25
    1ed6:	0a 2b       	or	r16, r26
    1ed8:	1b 2b       	or	r17, r27
    1eda:	c8 01       	movw	r24, r16
    1edc:	bb 27       	eor	r27, r27
    1ede:	97 fd       	sbrc	r25, 7
    1ee0:	b0 95       	com	r27
    1ee2:	ab 2f       	mov	r26, r27
    1ee4:	0e 94 46 15 	call	0x2a8c	; 0x2a8c <SPI_send>
    1ee8:	bb 27       	eor	r27, r27
    1eea:	17 fd       	sbrc	r17, 7
    1eec:	ba 95       	dec	r27
    1eee:	a1 2f       	mov	r26, r17
    1ef0:	90 2f       	mov	r25, r16
    1ef2:	8f 2d       	mov	r24, r15
    1ef4:	0e 94 46 15 	call	0x2a8c	; 0x2a8c <SPI_send>
    1ef8:	8e 2d       	mov	r24, r14
    1efa:	0e 94 46 15 	call	0x2a8c	; 0x2a8c <SPI_send>
    1efe:	f5 01       	movw	r30, r10
    1f00:	81 81       	ldd	r24, Z+1	; 0x01
    1f02:	83 70       	andi	r24, 0x03	; 3
    1f04:	78 2e       	mov	r7, r24
    1f06:	77 0c       	add	r7, r7
    1f08:	77 0c       	add	r7, r7
    1f0a:	66 24       	eor	r6, r6
    1f0c:	73 01       	movw	r14, r6
    1f0e:	00 27       	eor	r16, r16
    1f10:	f7 fc       	sbrc	r15, 7
    1f12:	00 95       	com	r16
    1f14:	10 2f       	mov	r17, r16
    1f16:	8c e0       	ldi	r24, 0x0C	; 12
    1f18:	ee 0c       	add	r14, r14
    1f1a:	ff 1c       	adc	r15, r15
    1f1c:	00 1f       	adc	r16, r16
    1f1e:	11 1f       	adc	r17, r17
    1f20:	8a 95       	dec	r24
    1f22:	d1 f7       	brne	.-12     	; 0x1f18 <next_train_im+0xc6>
    1f24:	80 81       	ld	r24, Z
    1f26:	82 95       	swap	r24
    1f28:	86 95       	lsr	r24
    1f2a:	87 70       	andi	r24, 0x07	; 7
    1f2c:	98 2e       	mov	r9, r24
    1f2e:	99 0c       	add	r9, r9
    1f30:	88 24       	eor	r8, r8
    1f32:	c4 01       	movw	r24, r8
    1f34:	aa 27       	eor	r26, r26
    1f36:	97 fd       	sbrc	r25, 7
    1f38:	a0 95       	com	r26
    1f3a:	ba 2f       	mov	r27, r26
    1f3c:	e8 2a       	or	r14, r24
    1f3e:	f9 2a       	or	r15, r25
    1f40:	0a 2b       	or	r16, r26
    1f42:	1b 2b       	or	r17, r27
    1f44:	c8 01       	movw	r24, r16
    1f46:	bb 27       	eor	r27, r27
    1f48:	97 fd       	sbrc	r25, 7
    1f4a:	b0 95       	com	r27
    1f4c:	ab 2f       	mov	r26, r27
    1f4e:	0e 94 46 15 	call	0x2a8c	; 0x2a8c <SPI_send>
    1f52:	bb 27       	eor	r27, r27
    1f54:	17 fd       	sbrc	r17, 7
    1f56:	ba 95       	dec	r27
    1f58:	a1 2f       	mov	r26, r17
    1f5a:	90 2f       	mov	r25, r16
    1f5c:	8f 2d       	mov	r24, r15
    1f5e:	0e 94 46 15 	call	0x2a8c	; 0x2a8c <SPI_send>
    1f62:	8e 2d       	mov	r24, r14
    1f64:	0e 94 46 15 	call	0x2a8c	; 0x2a8c <SPI_send>
    1f68:	f5 01       	movw	r30, r10
    1f6a:	90 81       	ld	r25, Z
    1f6c:	89 2f       	mov	r24, r25
    1f6e:	86 95       	lsr	r24
    1f70:	8e 70       	andi	r24, 0x0E	; 14
    1f72:	8c 83       	std	Y+4, r24	; 0x04
    1f74:	1b 82       	std	Y+3, r1	; 0x03
    1f76:	cb 80       	ldd	r12, Y+3	; 0x03
    1f78:	dc 80       	ldd	r13, Y+4	; 0x04
    1f7a:	76 01       	movw	r14, r12
    1f7c:	00 27       	eor	r16, r16
    1f7e:	f7 fc       	sbrc	r15, 7
    1f80:	00 95       	com	r16
    1f82:	10 2f       	mov	r17, r16
    1f84:	fc e0       	ldi	r31, 0x0C	; 12
    1f86:	ee 0c       	add	r14, r14
    1f88:	ff 1c       	adc	r15, r15
    1f8a:	00 1f       	adc	r16, r16
    1f8c:	11 1f       	adc	r17, r17
    1f8e:	fa 95       	dec	r31
    1f90:	d1 f7       	brne	.-12     	; 0x1f86 <next_train_im+0x134>
    1f92:	93 70       	andi	r25, 0x03	; 3
    1f94:	99 0f       	add	r25, r25
    1f96:	99 0f       	add	r25, r25
    1f98:	9e 83       	std	Y+6, r25	; 0x06
    1f9a:	1d 82       	std	Y+5, r1	; 0x05
    1f9c:	2d 81       	ldd	r18, Y+5	; 0x05
    1f9e:	3e 81       	ldd	r19, Y+6	; 0x06
    1fa0:	c9 01       	movw	r24, r18
    1fa2:	aa 27       	eor	r26, r26
    1fa4:	97 fd       	sbrc	r25, 7
    1fa6:	a0 95       	com	r26
    1fa8:	ba 2f       	mov	r27, r26
    1faa:	e8 2a       	or	r14, r24
    1fac:	f9 2a       	or	r15, r25
    1fae:	0a 2b       	or	r16, r26
    1fb0:	1b 2b       	or	r17, r27
    1fb2:	c8 01       	movw	r24, r16
    1fb4:	bb 27       	eor	r27, r27
    1fb6:	97 fd       	sbrc	r25, 7
    1fb8:	b0 95       	com	r27
    1fba:	ab 2f       	mov	r26, r27
    1fbc:	0e 94 46 15 	call	0x2a8c	; 0x2a8c <SPI_send>
    1fc0:	bb 27       	eor	r27, r27
    1fc2:	17 fd       	sbrc	r17, 7
    1fc4:	ba 95       	dec	r27
    1fc6:	a1 2f       	mov	r26, r17
    1fc8:	90 2f       	mov	r25, r16
    1fca:	8f 2d       	mov	r24, r15
    1fcc:	0e 94 46 15 	call	0x2a8c	; 0x2a8c <SPI_send>
    1fd0:	8e 2d       	mov	r24, r14
    1fd2:	0e 94 46 15 	call	0x2a8c	; 0x2a8c <SPI_send>
    1fd6:	8e ef       	ldi	r24, 0xFE	; 254
    1fd8:	9f ef       	ldi	r25, 0xFF	; 255
    1fda:	a8 0e       	add	r10, r24
    1fdc:	b9 1e       	adc	r11, r25
    1fde:	e9 81       	ldd	r30, Y+1	; 0x01
    1fe0:	fa 81       	ldd	r31, Y+2	; 0x02
    1fe2:	ae 16       	cp	r10, r30
    1fe4:	bf 06       	cpc	r11, r31
    1fe6:	09 f0       	breq	.+2      	; 0x1fea <next_train_im+0x198>
    1fe8:	55 cf       	rjmp	.-342    	; 0x1e94 <next_train_im+0x42>
    1fea:	26 96       	adiw	r28, 0x06	; 6
    1fec:	0f b6       	in	r0, 0x3f	; 63
    1fee:	f8 94       	cli
    1ff0:	de bf       	out	0x3e, r29	; 62
    1ff2:	0f be       	out	0x3f, r0	; 63
    1ff4:	cd bf       	out	0x3d, r28	; 61
    1ff6:	cf 91       	pop	r28
    1ff8:	df 91       	pop	r29
    1ffa:	1f 91       	pop	r17
    1ffc:	0f 91       	pop	r16
    1ffe:	ff 90       	pop	r15
    2000:	ef 90       	pop	r14
    2002:	df 90       	pop	r13
    2004:	cf 90       	pop	r12
    2006:	bf 90       	pop	r11
    2008:	af 90       	pop	r10
    200a:	9f 90       	pop	r9
    200c:	8f 90       	pop	r8
    200e:	7f 90       	pop	r7
    2010:	6f 90       	pop	r6
    2012:	5f 90       	pop	r5
    2014:	4f 90       	pop	r4
    2016:	3f 90       	pop	r3
    2018:	2f 90       	pop	r2
    201a:	08 95       	ret

0000201c <propeller_simul>:
    201c:	0f 93       	push	r16
    201e:	1f 93       	push	r17
    2020:	80 e2       	ldi	r24, 0x20	; 32
    2022:	90 e0       	ldi	r25, 0x00	; 0
    2024:	0e 94 78 1c 	call	0x38f0	; 0x38f0 <malloc>
    2028:	8c 01       	movw	r16, r24
    202a:	c8 01       	movw	r24, r16
    202c:	0e 94 29 0f 	call	0x1e52	; 0x1e52 <next_train_im>
    2030:	0e 94 4a 15 	call	0x2a94	; 0x2a94 <set_xlat>
    2034:	0e 94 4c 15 	call	0x2a98	; 0x2a98 <clear_xlat>
    2038:	f8 cf       	rjmp	.-16     	; 0x202a <propeller_simul+0xe>

0000203a <next_train>:
    203a:	cf 92       	push	r12
    203c:	df 92       	push	r13
    203e:	ef 92       	push	r14
    2040:	ff 92       	push	r15
    2042:	0f 93       	push	r16
    2044:	1f 93       	push	r17
    2046:	cf 93       	push	r28
    2048:	df 93       	push	r29
    204a:	ec 01       	movw	r28, r24
    204c:	c6 5a       	subi	r28, 0xA6	; 166
    204e:	df 4f       	sbci	r29, 0xFF	; 255
    2050:	af e1       	ldi	r26, 0x1F	; 31
    2052:	ca 2e       	mov	r12, r26
    2054:	d1 2c       	mov	r13, r1
    2056:	ed 80       	ldd	r14, Y+5	; 0x05
    2058:	ff 24       	eor	r15, r15
    205a:	f4 e0       	ldi	r31, 0x04	; 4
    205c:	ee 0c       	add	r14, r14
    205e:	ff 1c       	adc	r15, r15
    2060:	fa 95       	dec	r31
    2062:	e1 f7       	brne	.-8      	; 0x205c <next_train+0x22>
    2064:	00 27       	eor	r16, r16
    2066:	f7 fc       	sbrc	r15, 7
    2068:	00 95       	com	r16
    206a:	10 2f       	mov	r17, r16
    206c:	ec e0       	ldi	r30, 0x0C	; 12
    206e:	ee 0c       	add	r14, r14
    2070:	ff 1c       	adc	r15, r15
    2072:	00 1f       	adc	r16, r16
    2074:	11 1f       	adc	r17, r17
    2076:	ea 95       	dec	r30
    2078:	d1 f7       	brne	.-12     	; 0x206e <next_train+0x34>
    207a:	8c 81       	ldd	r24, Y+4	; 0x04
    207c:	90 e0       	ldi	r25, 0x00	; 0
    207e:	74 e0       	ldi	r23, 0x04	; 4
    2080:	88 0f       	add	r24, r24
    2082:	99 1f       	adc	r25, r25
    2084:	7a 95       	dec	r23
    2086:	e1 f7       	brne	.-8      	; 0x2080 <next_train+0x46>
    2088:	aa 27       	eor	r26, r26
    208a:	97 fd       	sbrc	r25, 7
    208c:	a0 95       	com	r26
    208e:	ba 2f       	mov	r27, r26
    2090:	e8 2a       	or	r14, r24
    2092:	f9 2a       	or	r15, r25
    2094:	0a 2b       	or	r16, r26
    2096:	1b 2b       	or	r17, r27
    2098:	c8 01       	movw	r24, r16
    209a:	bb 27       	eor	r27, r27
    209c:	97 fd       	sbrc	r25, 7
    209e:	b0 95       	com	r27
    20a0:	ab 2f       	mov	r26, r27
    20a2:	0e 94 46 15 	call	0x2a8c	; 0x2a8c <SPI_send>
    20a6:	bb 27       	eor	r27, r27
    20a8:	17 fd       	sbrc	r17, 7
    20aa:	ba 95       	dec	r27
    20ac:	a1 2f       	mov	r26, r17
    20ae:	90 2f       	mov	r25, r16
    20b0:	8f 2d       	mov	r24, r15
    20b2:	0e 94 46 15 	call	0x2a8c	; 0x2a8c <SPI_send>
    20b6:	8e 2d       	mov	r24, r14
    20b8:	0e 94 46 15 	call	0x2a8c	; 0x2a8c <SPI_send>
    20bc:	eb 80       	ldd	r14, Y+3	; 0x03
    20be:	ff 24       	eor	r15, r15
    20c0:	44 e0       	ldi	r20, 0x04	; 4
    20c2:	ee 0c       	add	r14, r14
    20c4:	ff 1c       	adc	r15, r15
    20c6:	4a 95       	dec	r20
    20c8:	e1 f7       	brne	.-8      	; 0x20c2 <next_train+0x88>
    20ca:	00 27       	eor	r16, r16
    20cc:	f7 fc       	sbrc	r15, 7
    20ce:	00 95       	com	r16
    20d0:	10 2f       	mov	r17, r16
    20d2:	3c e0       	ldi	r19, 0x0C	; 12
    20d4:	ee 0c       	add	r14, r14
    20d6:	ff 1c       	adc	r15, r15
    20d8:	00 1f       	adc	r16, r16
    20da:	11 1f       	adc	r17, r17
    20dc:	3a 95       	dec	r19
    20de:	d1 f7       	brne	.-12     	; 0x20d4 <next_train+0x9a>
    20e0:	8a 81       	ldd	r24, Y+2	; 0x02
    20e2:	90 e0       	ldi	r25, 0x00	; 0
    20e4:	24 e0       	ldi	r18, 0x04	; 4
    20e6:	88 0f       	add	r24, r24
    20e8:	99 1f       	adc	r25, r25
    20ea:	2a 95       	dec	r18
    20ec:	e1 f7       	brne	.-8      	; 0x20e6 <next_train+0xac>
    20ee:	aa 27       	eor	r26, r26
    20f0:	97 fd       	sbrc	r25, 7
    20f2:	a0 95       	com	r26
    20f4:	ba 2f       	mov	r27, r26
    20f6:	e8 2a       	or	r14, r24
    20f8:	f9 2a       	or	r15, r25
    20fa:	0a 2b       	or	r16, r26
    20fc:	1b 2b       	or	r17, r27
    20fe:	c8 01       	movw	r24, r16
    2100:	bb 27       	eor	r27, r27
    2102:	97 fd       	sbrc	r25, 7
    2104:	b0 95       	com	r27
    2106:	ab 2f       	mov	r26, r27
    2108:	0e 94 46 15 	call	0x2a8c	; 0x2a8c <SPI_send>
    210c:	bb 27       	eor	r27, r27
    210e:	17 fd       	sbrc	r17, 7
    2110:	ba 95       	dec	r27
    2112:	a1 2f       	mov	r26, r17
    2114:	90 2f       	mov	r25, r16
    2116:	8f 2d       	mov	r24, r15
    2118:	0e 94 46 15 	call	0x2a8c	; 0x2a8c <SPI_send>
    211c:	8e 2d       	mov	r24, r14
    211e:	0e 94 46 15 	call	0x2a8c	; 0x2a8c <SPI_send>
    2122:	e9 80       	ldd	r14, Y+1	; 0x01
    2124:	ff 24       	eor	r15, r15
    2126:	a4 e0       	ldi	r26, 0x04	; 4
    2128:	ee 0c       	add	r14, r14
    212a:	ff 1c       	adc	r15, r15
    212c:	aa 95       	dec	r26
    212e:	e1 f7       	brne	.-8      	; 0x2128 <next_train+0xee>
    2130:	00 27       	eor	r16, r16
    2132:	f7 fc       	sbrc	r15, 7
    2134:	00 95       	com	r16
    2136:	10 2f       	mov	r17, r16
    2138:	fc e0       	ldi	r31, 0x0C	; 12
    213a:	ee 0c       	add	r14, r14
    213c:	ff 1c       	adc	r15, r15
    213e:	00 1f       	adc	r16, r16
    2140:	11 1f       	adc	r17, r17
    2142:	fa 95       	dec	r31
    2144:	d1 f7       	brne	.-12     	; 0x213a <next_train+0x100>
    2146:	88 81       	ld	r24, Y
    2148:	90 e0       	ldi	r25, 0x00	; 0
    214a:	e4 e0       	ldi	r30, 0x04	; 4
    214c:	88 0f       	add	r24, r24
    214e:	99 1f       	adc	r25, r25
    2150:	ea 95       	dec	r30
    2152:	e1 f7       	brne	.-8      	; 0x214c <next_train+0x112>
    2154:	aa 27       	eor	r26, r26
    2156:	97 fd       	sbrc	r25, 7
    2158:	a0 95       	com	r26
    215a:	ba 2f       	mov	r27, r26
    215c:	e8 2a       	or	r14, r24
    215e:	f9 2a       	or	r15, r25
    2160:	0a 2b       	or	r16, r26
    2162:	1b 2b       	or	r17, r27
    2164:	c8 01       	movw	r24, r16
    2166:	bb 27       	eor	r27, r27
    2168:	97 fd       	sbrc	r25, 7
    216a:	b0 95       	com	r27
    216c:	ab 2f       	mov	r26, r27
    216e:	0e 94 46 15 	call	0x2a8c	; 0x2a8c <SPI_send>
    2172:	bb 27       	eor	r27, r27
    2174:	17 fd       	sbrc	r17, 7
    2176:	ba 95       	dec	r27
    2178:	a1 2f       	mov	r26, r17
    217a:	90 2f       	mov	r25, r16
    217c:	8f 2d       	mov	r24, r15
    217e:	0e 94 46 15 	call	0x2a8c	; 0x2a8c <SPI_send>
    2182:	8e 2d       	mov	r24, r14
    2184:	0e 94 46 15 	call	0x2a8c	; 0x2a8c <SPI_send>
    2188:	8e ef       	ldi	r24, 0xFE	; 254
    218a:	9f ef       	ldi	r25, 0xFF	; 255
    218c:	c8 0e       	add	r12, r24
    218e:	d9 1e       	adc	r13, r25
    2190:	26 97       	sbiw	r28, 0x06	; 6
    2192:	9f ef       	ldi	r25, 0xFF	; 255
    2194:	c9 16       	cp	r12, r25
    2196:	9f ef       	ldi	r25, 0xFF	; 255
    2198:	d9 06       	cpc	r13, r25
    219a:	09 f0       	breq	.+2      	; 0x219e <next_train+0x164>
    219c:	5c cf       	rjmp	.-328    	; 0x2056 <next_train+0x1c>
    219e:	0e 94 4a 15 	call	0x2a94	; 0x2a94 <set_xlat>
    21a2:	0e 94 4c 15 	call	0x2a98	; 0x2a98 <clear_xlat>
    21a6:	df 91       	pop	r29
    21a8:	cf 91       	pop	r28
    21aa:	1f 91       	pop	r17
    21ac:	0f 91       	pop	r16
    21ae:	ff 90       	pop	r15
    21b0:	ef 90       	pop	r14
    21b2:	df 90       	pop	r13
    21b4:	cf 90       	pop	r12
    21b6:	08 95       	ret

000021b8 <spiral>:
    21b8:	8f 92       	push	r8
    21ba:	9f 92       	push	r9
    21bc:	af 92       	push	r10
    21be:	bf 92       	push	r11
    21c0:	cf 92       	push	r12
    21c2:	df 92       	push	r13
    21c4:	ff 92       	push	r15
    21c6:	0f 93       	push	r16
    21c8:	1f 93       	push	r17
    21ca:	df 93       	push	r29
    21cc:	cf 93       	push	r28
    21ce:	00 d0       	rcall	.+0      	; 0x21d0 <spiral+0x18>
    21d0:	00 d0       	rcall	.+0      	; 0x21d2 <spiral+0x1a>
    21d2:	00 d0       	rcall	.+0      	; 0x21d4 <spiral+0x1c>
    21d4:	cd b7       	in	r28, 0x3d	; 61
    21d6:	de b7       	in	r29, 0x3e	; 62
    21d8:	6c 83       	std	Y+4, r22	; 0x04
    21da:	7d 83       	std	Y+5, r23	; 0x05
    21dc:	8e 83       	std	Y+6, r24	; 0x06
    21de:	de 01       	movw	r26, r28
    21e0:	11 96       	adiw	r26, 0x01	; 1
    21e2:	ea e1       	ldi	r30, 0x1A	; 26
    21e4:	f1 e0       	ldi	r31, 0x01	; 1
    21e6:	83 e0       	ldi	r24, 0x03	; 3
    21e8:	01 90       	ld	r0, Z+
    21ea:	0d 92       	st	X+, r0
    21ec:	81 50       	subi	r24, 0x01	; 1
    21ee:	e1 f7       	brne	.-8      	; 0x21e8 <spiral+0x30>
    21f0:	a2 ec       	ldi	r26, 0xC2	; 194
    21f2:	b2 e0       	ldi	r27, 0x02	; 2
    21f4:	fe 01       	movw	r30, r28
    21f6:	34 96       	adiw	r30, 0x04	; 4
    21f8:	83 e0       	ldi	r24, 0x03	; 3
    21fa:	01 90       	ld	r0, Z+
    21fc:	0d 92       	st	X+, r0
    21fe:	81 50       	subi	r24, 0x01	; 1
    2200:	e1 f7       	brne	.-8      	; 0x21fa <spiral+0x42>
    2202:	82 ec       	ldi	r24, 0xC2	; 194
    2204:	92 e0       	ldi	r25, 0x02	; 2
    2206:	0e 94 1d 10 	call	0x203a	; 0x203a <next_train>
    220a:	0e 94 4a 15 	call	0x2a94	; 0x2a94 <set_xlat>
    can be achieved.
*/
void
_delay_loop_1(uint8_t __count)
{
	__asm__ volatile (
    220e:	83 e0       	ldi	r24, 0x03	; 3
    2210:	8a 95       	dec	r24
    2212:	f1 f7       	brne	.-4      	; 0x2210 <spiral+0x58>
    2214:	0e 94 4c 15 	call	0x2a98	; 0x2a98 <clear_xlat>
    2218:	05 ec       	ldi	r16, 0xC5	; 197
    221a:	12 e0       	ldi	r17, 0x02	; 2
    221c:	ff 24       	eor	r15, r15
    221e:	4e 01       	movw	r8, r28
    2220:	08 94       	sec
    2222:	81 1c       	adc	r8, r1
    2224:	91 1c       	adc	r9, r1
    2226:	84 e0       	ldi	r24, 0x04	; 4
    2228:	a8 2e       	mov	r10, r24
    222a:	b1 2c       	mov	r11, r1
    222c:	ac 0e       	add	r10, r28
    222e:	bd 1e       	adc	r11, r29
    milliseconds can be achieved.
 */
void
_delay_loop_2(uint16_t __count)
{
	__asm__ volatile (
    2230:	b4 ec       	ldi	r27, 0xC4	; 196
    2232:	cb 2e       	mov	r12, r27
    2234:	b9 e0       	ldi	r27, 0x09	; 9
    2236:	db 2e       	mov	r13, r27
    2238:	8f e1       	ldi	r24, 0x1F	; 31
    223a:	f8 16       	cp	r15, r24
    223c:	79 f0       	breq	.+30     	; 0x225c <spiral+0xa4>
    223e:	d8 01       	movw	r26, r16
    2240:	13 97       	sbiw	r26, 0x03	; 3
    2242:	f4 01       	movw	r30, r8
    2244:	83 e0       	ldi	r24, 0x03	; 3
    2246:	01 90       	ld	r0, Z+
    2248:	0d 92       	st	X+, r0
    224a:	81 50       	subi	r24, 0x01	; 1
    224c:	e1 f7       	brne	.-8      	; 0x2246 <spiral+0x8e>
    224e:	d8 01       	movw	r26, r16
    2250:	f5 01       	movw	r30, r10
    2252:	83 e0       	ldi	r24, 0x03	; 3
    2254:	01 90       	ld	r0, Z+
    2256:	0d 92       	st	X+, r0
    2258:	81 50       	subi	r24, 0x01	; 1
    225a:	e1 f7       	brne	.-8      	; 0x2254 <spiral+0x9c>
    225c:	82 ec       	ldi	r24, 0xC2	; 194
    225e:	92 e0       	ldi	r25, 0x02	; 2
    2260:	0e 94 1d 10 	call	0x203a	; 0x203a <next_train>
    2264:	0e 94 4a 15 	call	0x2a94	; 0x2a94 <set_xlat>
    2268:	0e 94 4c 15 	call	0x2a98	; 0x2a98 <clear_xlat>
    226c:	c6 01       	movw	r24, r12
    226e:	01 97       	sbiw	r24, 0x01	; 1
    2270:	f1 f7       	brne	.-4      	; 0x226e <spiral+0xb6>
    2272:	f3 94       	inc	r15
    2274:	0d 5f       	subi	r16, 0xFD	; 253
    2276:	1f 4f       	sbci	r17, 0xFF	; 255
    2278:	80 e2       	ldi	r24, 0x20	; 32
    227a:	f8 16       	cp	r15, r24
    227c:	e9 f6       	brne	.-70     	; 0x2238 <spiral+0x80>
    227e:	af e1       	ldi	r26, 0x1F	; 31
    2280:	b3 e0       	ldi	r27, 0x03	; 3
    2282:	fe 01       	movw	r30, r28
    2284:	31 96       	adiw	r30, 0x01	; 1
    2286:	83 e0       	ldi	r24, 0x03	; 3
    2288:	01 90       	ld	r0, Z+
    228a:	0d 92       	st	X+, r0
    228c:	81 50       	subi	r24, 0x01	; 1
    228e:	e1 f7       	brne	.-8      	; 0x2288 <spiral+0xd0>
    2290:	82 ec       	ldi	r24, 0xC2	; 194
    2292:	92 e0       	ldi	r25, 0x02	; 2
    2294:	0e 94 1d 10 	call	0x203a	; 0x203a <next_train>
    2298:	26 96       	adiw	r28, 0x06	; 6
    229a:	0f b6       	in	r0, 0x3f	; 63
    229c:	f8 94       	cli
    229e:	de bf       	out	0x3e, r29	; 62
    22a0:	0f be       	out	0x3f, r0	; 63
    22a2:	cd bf       	out	0x3d, r28	; 61
    22a4:	cf 91       	pop	r28
    22a6:	df 91       	pop	r29
    22a8:	1f 91       	pop	r17
    22aa:	0f 91       	pop	r16
    22ac:	ff 90       	pop	r15
    22ae:	df 90       	pop	r13
    22b0:	cf 90       	pop	r12
    22b2:	bf 90       	pop	r11
    22b4:	af 90       	pop	r10
    22b6:	9f 90       	pop	r9
    22b8:	8f 90       	pop	r8
    22ba:	08 95       	ret

000022bc <update_and_send>:
    22bc:	cf 93       	push	r28
    22be:	df 93       	push	r29
    22c0:	cf e1       	ldi	r28, 0x1F	; 31
    22c2:	d0 e0       	ldi	r29, 0x00	; 0
    22c4:	80 e0       	ldi	r24, 0x00	; 0
    22c6:	0e 94 46 15 	call	0x2a8c	; 0x2a8c <SPI_send>
    22ca:	8d e0       	ldi	r24, 0x0D	; 13
    22cc:	0e 94 46 15 	call	0x2a8c	; 0x2a8c <SPI_send>
    22d0:	80 ec       	ldi	r24, 0xC0	; 192
    22d2:	0e 94 46 15 	call	0x2a8c	; 0x2a8c <SPI_send>
    22d6:	80 e0       	ldi	r24, 0x00	; 0
    22d8:	0e 94 46 15 	call	0x2a8c	; 0x2a8c <SPI_send>
    22dc:	8e e0       	ldi	r24, 0x0E	; 14
    22de:	0e 94 46 15 	call	0x2a8c	; 0x2a8c <SPI_send>
    22e2:	80 e6       	ldi	r24, 0x60	; 96
    22e4:	0e 94 46 15 	call	0x2a8c	; 0x2a8c <SPI_send>
    22e8:	80 e0       	ldi	r24, 0x00	; 0
    22ea:	0e 94 46 15 	call	0x2a8c	; 0x2a8c <SPI_send>
    22ee:	80 e0       	ldi	r24, 0x00	; 0
    22f0:	0e 94 46 15 	call	0x2a8c	; 0x2a8c <SPI_send>
    22f4:	80 e0       	ldi	r24, 0x00	; 0
    22f6:	0e 94 46 15 	call	0x2a8c	; 0x2a8c <SPI_send>
    22fa:	22 97       	sbiw	r28, 0x02	; 2
    22fc:	8f ef       	ldi	r24, 0xFF	; 255
    22fe:	cf 3f       	cpi	r28, 0xFF	; 255
    2300:	d8 07       	cpc	r29, r24
    2302:	01 f7       	brne	.-64     	; 0x22c4 <update_and_send+0x8>
    2304:	df 91       	pop	r29
    2306:	cf 91       	pop	r28
    2308:	08 95       	ret

0000230a <__vector_3>:
    230a:	1f 92       	push	r1
    230c:	0f 92       	push	r0
    230e:	0f b6       	in	r0, 0x3f	; 63
    2310:	0f 92       	push	r0
    2312:	11 24       	eor	r1, r1
    2314:	5f 93       	push	r21
    2316:	6f 93       	push	r22
    2318:	7f 93       	push	r23
    231a:	8f 93       	push	r24
    231c:	9f 93       	push	r25
    231e:	af 93       	push	r26
    2320:	bf 93       	push	r27
    2322:	80 91 aa 02 	lds	r24, 0x02AA
    2326:	90 91 ab 02 	lds	r25, 0x02AB
    232a:	01 96       	adiw	r24, 0x01	; 1
    232c:	68 e6       	ldi	r22, 0x68	; 104
    232e:	71 e0       	ldi	r23, 0x01	; 1
    2330:	0e 94 2e 1c 	call	0x385c	; 0x385c <__divmodhi4>
    2334:	90 93 ab 02 	sts	0x02AB, r25
    2338:	80 93 aa 02 	sts	0x02AA, r24
    233c:	81 e0       	ldi	r24, 0x01	; 1
    233e:	90 e0       	ldi	r25, 0x00	; 0
    2340:	90 93 28 03 	sts	0x0328, r25
    2344:	80 93 27 03 	sts	0x0327, r24
    2348:	bf 91       	pop	r27
    234a:	af 91       	pop	r26
    234c:	9f 91       	pop	r25
    234e:	8f 91       	pop	r24
    2350:	7f 91       	pop	r23
    2352:	6f 91       	pop	r22
    2354:	5f 91       	pop	r21
    2356:	0f 90       	pop	r0
    2358:	0f be       	out	0x3f, r0	; 63
    235a:	0f 90       	pop	r0
    235c:	1f 90       	pop	r1
    235e:	18 95       	reti

00002360 <init_pins>:
    2360:	84 b3       	in	r24, 0x14	; 20
    2362:	89 7f       	andi	r24, 0xF9	; 249
    2364:	84 bb       	out	0x14, r24	; 20
    2366:	aa 9a       	sbi	0x15, 2	; 21
    2368:	08 95       	ret

0000236a <__vector_9>:
    236a:	1f 92       	push	r1
    236c:	0f 92       	push	r0
    236e:	0f b6       	in	r0, 0x3f	; 63
    2370:	0f 92       	push	r0
    2372:	11 24       	eor	r1, r1
    2374:	5f 93       	push	r21
    2376:	6f 93       	push	r22
    2378:	7f 93       	push	r23
    237a:	8f 93       	push	r24
    237c:	9f 93       	push	r25
    237e:	af 93       	push	r26
    2380:	bf 93       	push	r27
    2382:	80 91 aa 02 	lds	r24, 0x02AA
    2386:	90 91 ab 02 	lds	r25, 0x02AB
    238a:	01 96       	adiw	r24, 0x01	; 1
    238c:	68 e6       	ldi	r22, 0x68	; 104
    238e:	71 e0       	ldi	r23, 0x01	; 1
    2390:	0e 94 2e 1c 	call	0x385c	; 0x385c <__divmodhi4>
    2394:	90 93 ab 02 	sts	0x02AB, r25
    2398:	80 93 aa 02 	sts	0x02AA, r24
    239c:	81 e0       	ldi	r24, 0x01	; 1
    239e:	90 e0       	ldi	r25, 0x00	; 0
    23a0:	90 93 28 03 	sts	0x0328, r25
    23a4:	80 93 27 03 	sts	0x0327, r24
    23a8:	bf 91       	pop	r27
    23aa:	af 91       	pop	r26
    23ac:	9f 91       	pop	r25
    23ae:	8f 91       	pop	r24
    23b0:	7f 91       	pop	r23
    23b2:	6f 91       	pop	r22
    23b4:	5f 91       	pop	r21
    23b6:	0f 90       	pop	r0
    23b8:	0f be       	out	0x3f, r0	; 63
    23ba:	0f 90       	pop	r0
    23bc:	1f 90       	pop	r1
    23be:	18 95       	reti

000023c0 <init_timer0>:
    23c0:	95 e0       	ldi	r25, 0x05	; 5
    23c2:	93 bf       	out	0x33, r25	; 51
    23c4:	87 b7       	in	r24, 0x37	; 55
    23c6:	81 60       	ori	r24, 0x01	; 1
    23c8:	87 bf       	out	0x37, r24	; 55
    23ca:	92 bf       	out	0x32, r25	; 50
    23cc:	08 95       	ret

000023ce <init_timer2>:
    23ce:	8a e3       	ldi	r24, 0x3A	; 58
    23d0:	85 bd       	out	0x25, r24	; 37
    23d2:	87 b7       	in	r24, 0x37	; 55
    23d4:	80 64       	ori	r24, 0x40	; 64
    23d6:	87 bf       	out	0x37, r24	; 55
    23d8:	88 eb       	ldi	r24, 0xB8	; 184
    23da:	83 bd       	out	0x23, r24	; 35
    23dc:	08 95       	ret

000023de <__vector_16>:
    23de:	1f 92       	push	r1
    23e0:	0f 92       	push	r0
    23e2:	0f b6       	in	r0, 0x3f	; 63
    23e4:	0f 92       	push	r0
    23e6:	11 24       	eor	r1, r1
    23e8:	2f 93       	push	r18
    23ea:	3f 93       	push	r19
    23ec:	4f 93       	push	r20
    23ee:	5f 93       	push	r21
    23f0:	6f 93       	push	r22
    23f2:	7f 93       	push	r23
    23f4:	8f 93       	push	r24
    23f6:	9f 93       	push	r25
    23f8:	af 93       	push	r26
    23fa:	bf 93       	push	r27
    23fc:	ef 93       	push	r30
    23fe:	ff 93       	push	r31
    2400:	80 91 ba 02 	lds	r24, 0x02BA
    2404:	90 91 bb 02 	lds	r25, 0x02BB
    2408:	82 33       	cpi	r24, 0x32	; 50
    240a:	91 05       	cpc	r25, r1
    240c:	c9 f4       	brne	.+50     	; 0x2440 <__vector_16+0x62>
    240e:	10 92 bb 02 	sts	0x02BB, r1
    2412:	10 92 ba 02 	sts	0x02BA, r1
    2416:	8c eb       	ldi	r24, 0xBC	; 188
    2418:	92 e0       	ldi	r25, 0x02	; 2
    241a:	0e 94 99 0c 	call	0x1932	; 0x1932 <get_clock>
    241e:	80 e0       	ldi	r24, 0x00	; 0
    2420:	91 e0       	ldi	r25, 0x01	; 1
    2422:	20 91 bc 02 	lds	r18, 0x02BC
    2426:	30 91 bd 02 	lds	r19, 0x02BD
    242a:	40 91 be 02 	lds	r20, 0x02BE
    242e:	50 91 bf 02 	lds	r21, 0x02BF
    2432:	60 91 c0 02 	lds	r22, 0x02C0
    2436:	70 91 c1 02 	lds	r23, 0x02C1
    243a:	0e 94 b7 09 	call	0x136e	; 0x136e <analog_clk_SET_ANGULOS_PONTEIROS>
    243e:	05 c0       	rjmp	.+10     	; 0x244a <__vector_16+0x6c>
    2440:	01 96       	adiw	r24, 0x01	; 1
    2442:	90 93 bb 02 	sts	0x02BB, r25
    2446:	80 93 ba 02 	sts	0x02BA, r24
    244a:	ff 91       	pop	r31
    244c:	ef 91       	pop	r30
    244e:	bf 91       	pop	r27
    2450:	af 91       	pop	r26
    2452:	9f 91       	pop	r25
    2454:	8f 91       	pop	r24
    2456:	7f 91       	pop	r23
    2458:	6f 91       	pop	r22
    245a:	5f 91       	pop	r21
    245c:	4f 91       	pop	r20
    245e:	3f 91       	pop	r19
    2460:	2f 91       	pop	r18
    2462:	0f 90       	pop	r0
    2464:	0f be       	out	0x3f, r0	; 63
    2466:	0f 90       	pop	r0
    2468:	1f 90       	pop	r1
    246a:	18 95       	reti

0000246c <__vector_18>:
    246c:	1f 92       	push	r1
    246e:	0f 92       	push	r0
    2470:	0f b6       	in	r0, 0x3f	; 63
    2472:	0f 92       	push	r0
    2474:	11 24       	eor	r1, r1
    2476:	0f 93       	push	r16
    2478:	1f 93       	push	r17
    247a:	2f 93       	push	r18
    247c:	3f 93       	push	r19
    247e:	4f 93       	push	r20
    2480:	5f 93       	push	r21
    2482:	6f 93       	push	r22
    2484:	7f 93       	push	r23
    2486:	8f 93       	push	r24
    2488:	9f 93       	push	r25
    248a:	af 93       	push	r26
    248c:	bf 93       	push	r27
    248e:	ef 93       	push	r30
    2490:	ff 93       	push	r31
    2492:	0c b1       	in	r16, 0x0c	; 12
    2494:	0c b9       	out	0x0c, r16	; 12
    2496:	80 91 24 03 	lds	r24, 0x0324
    249a:	90 91 25 03 	lds	r25, 0x0325
    249e:	fc 01       	movw	r30, r24
    24a0:	ef 5b       	subi	r30, 0xBF	; 191
    24a2:	fb 4f       	sbci	r31, 0xFB	; 251
    24a4:	00 83       	st	Z, r16
    24a6:	01 96       	adiw	r24, 0x01	; 1
    24a8:	64 e1       	ldi	r22, 0x14	; 20
    24aa:	70 e0       	ldi	r23, 0x00	; 0
    24ac:	0e 94 1a 1c 	call	0x3834	; 0x3834 <__udivmodhi4>
    24b0:	90 93 25 03 	sts	0x0325, r25
    24b4:	80 93 24 03 	sts	0x0324, r24
    24b8:	81 e4       	ldi	r24, 0x41	; 65
    24ba:	94 e0       	ldi	r25, 0x04	; 4
    24bc:	0e 94 61 14 	call	0x28c2	; 0x28c2 <decode_CMD>
    24c0:	08 30       	cpi	r16, 0x08	; 8
    24c2:	09 f4       	brne	.+2      	; 0x24c6 <__vector_18+0x5a>
    24c4:	96 c0       	rjmp	.+300    	; 0x25f2 <__vector_18+0x186>
    24c6:	0d 30       	cpi	r16, 0x0D	; 13
    24c8:	09 f0       	breq	.+2      	; 0x24cc <__vector_18+0x60>
    24ca:	a6 c0       	rjmp	.+332    	; 0x2618 <__vector_18+0x1ac>
    24cc:	84 30       	cpi	r24, 0x04	; 4
    24ce:	39 f1       	breq	.+78     	; 0x251e <__vector_18+0xb2>
    24d0:	85 30       	cpi	r24, 0x05	; 5
    24d2:	4c f4       	brge	.+18     	; 0x24e6 <__vector_18+0x7a>
    24d4:	88 23       	and	r24, r24
    24d6:	91 f0       	breq	.+36     	; 0x24fc <__vector_18+0x90>
    24d8:	81 30       	cpi	r24, 0x01	; 1
    24da:	09 f4       	brne	.+2      	; 0x24de <__vector_18+0x72>
    24dc:	87 c0       	rjmp	.+270    	; 0x25ec <__vector_18+0x180>
    24de:	8f 3f       	cpi	r24, 0xFF	; 255
    24e0:	09 f0       	breq	.+2      	; 0x24e4 <__vector_18+0x78>
    24e2:	82 c0       	rjmp	.+260    	; 0x25e8 <__vector_18+0x17c>
    24e4:	7d c0       	rjmp	.+250    	; 0x25e0 <__vector_18+0x174>
    24e6:	86 30       	cpi	r24, 0x06	; 6
    24e8:	e9 f1       	breq	.+122    	; 0x2564 <__vector_18+0xf8>
    24ea:	86 30       	cpi	r24, 0x06	; 6
    24ec:	84 f1       	brlt	.+96     	; 0x254e <__vector_18+0xe2>
    24ee:	87 30       	cpi	r24, 0x07	; 7
    24f0:	09 f4       	brne	.+2      	; 0x24f4 <__vector_18+0x88>
    24f2:	7c c0       	rjmp	.+248    	; 0x25ec <__vector_18+0x180>
    24f4:	88 30       	cpi	r24, 0x08	; 8
    24f6:	09 f0       	breq	.+2      	; 0x24fa <__vector_18+0x8e>
    24f8:	77 c0       	rjmp	.+238    	; 0x25e8 <__vector_18+0x17c>
    24fa:	3f c0       	rjmp	.+126    	; 0x257a <__vector_18+0x10e>
    24fc:	0e 94 e1 14 	call	0x29c2	; 0x29c2 <set_clock>
    2500:	60 91 be 02 	lds	r22, 0x02BE
    2504:	70 91 bf 02 	lds	r23, 0x02BF
    2508:	40 91 c0 02 	lds	r20, 0x02C0
    250c:	50 91 c1 02 	lds	r21, 0x02C1
    2510:	80 91 bc 02 	lds	r24, 0x02BC
    2514:	90 91 bd 02 	lds	r25, 0x02BD
    2518:	0e 94 7b 0c 	call	0x18f6	; 0x18f6 <set_clockRTC>
    251c:	67 c0       	rjmp	.+206    	; 0x25ec <__vector_18+0x180>
    251e:	86 e4       	ldi	r24, 0x46	; 70
    2520:	94 e0       	ldi	r25, 0x04	; 4
    2522:	0e 94 35 14 	call	0x286a	; 0x286a <get_mode>
    2526:	80 93 26 03 	sts	0x0326, r24
    252a:	28 2f       	mov	r18, r24
    252c:	33 27       	eor	r19, r19
    252e:	27 fd       	sbrc	r18, 7
    2530:	30 95       	com	r19
    2532:	30 93 63 04 	sts	0x0463, r19
    2536:	20 93 62 04 	sts	0x0462, r18
    253a:	8f 3f       	cpi	r24, 0xFF	; 255
    253c:	19 f4       	brne	.+6      	; 0x2544 <__vector_18+0xd8>
    253e:	8d e1       	ldi	r24, 0x1D	; 29
    2540:	91 e0       	ldi	r25, 0x01	; 1
    2542:	02 c0       	rjmp	.+4      	; 0x2548 <__vector_18+0xdc>
    2544:	8d e2       	ldi	r24, 0x2D	; 45
    2546:	91 e0       	ldi	r25, 0x01	; 1
    2548:	0e 94 ca 14 	call	0x2994	; 0x2994 <serial_send_message>
    254c:	4f c0       	rjmp	.+158    	; 0x25ec <__vector_18+0x180>
    254e:	86 e4       	ldi	r24, 0x46	; 70
    2550:	94 e0       	ldi	r25, 0x04	; 4
    2552:	0e 94 90 13 	call	0x2720	; 0x2720 <get_color>
    2556:	60 93 11 01 	sts	0x0111, r22
    255a:	70 93 12 01 	sts	0x0112, r23
    255e:	80 93 13 01 	sts	0x0113, r24
    2562:	44 c0       	rjmp	.+136    	; 0x25ec <__vector_18+0x180>
    2564:	86 e4       	ldi	r24, 0x46	; 70
    2566:	94 e0       	ldi	r25, 0x04	; 4
    2568:	0e 94 90 13 	call	0x2720	; 0x2720 <get_color>
    256c:	60 93 0e 01 	sts	0x010E, r22
    2570:	70 93 0f 01 	sts	0x010F, r23
    2574:	80 93 10 01 	sts	0x0110, r24
    2578:	39 c0       	rjmp	.+114    	; 0x25ec <__vector_18+0x180>
    257a:	80 e0       	ldi	r24, 0x00	; 0
    257c:	90 e0       	ldi	r25, 0x00	; 0
    257e:	0e 94 12 14 	call	0x2824	; 0x2824 <get_msg_ROM>
    2582:	8c 01       	movw	r16, r24
    2584:	0e 94 ca 14 	call	0x2994	; 0x2994 <serial_send_message>
    2588:	c8 01       	movw	r24, r16
    258a:	0e 94 25 1d 	call	0x3a4a	; 0x3a4a <free>
    258e:	81 e0       	ldi	r24, 0x01	; 1
    2590:	90 e0       	ldi	r25, 0x00	; 0
    2592:	0e 94 12 14 	call	0x2824	; 0x2824 <get_msg_ROM>
    2596:	8c 01       	movw	r16, r24
    2598:	0e 94 ca 14 	call	0x2994	; 0x2994 <serial_send_message>
    259c:	c8 01       	movw	r24, r16
    259e:	0e 94 25 1d 	call	0x3a4a	; 0x3a4a <free>
    25a2:	82 e0       	ldi	r24, 0x02	; 2
    25a4:	90 e0       	ldi	r25, 0x00	; 0
    25a6:	0e 94 12 14 	call	0x2824	; 0x2824 <get_msg_ROM>
    25aa:	8c 01       	movw	r16, r24
    25ac:	0e 94 ca 14 	call	0x2994	; 0x2994 <serial_send_message>
    25b0:	c8 01       	movw	r24, r16
    25b2:	0e 94 25 1d 	call	0x3a4a	; 0x3a4a <free>
    25b6:	83 e0       	ldi	r24, 0x03	; 3
    25b8:	90 e0       	ldi	r25, 0x00	; 0
    25ba:	0e 94 12 14 	call	0x2824	; 0x2824 <get_msg_ROM>
    25be:	8c 01       	movw	r16, r24
    25c0:	0e 94 ca 14 	call	0x2994	; 0x2994 <serial_send_message>
    25c4:	c8 01       	movw	r24, r16
    25c6:	0e 94 25 1d 	call	0x3a4a	; 0x3a4a <free>
    25ca:	84 e0       	ldi	r24, 0x04	; 4
    25cc:	90 e0       	ldi	r25, 0x00	; 0
    25ce:	0e 94 12 14 	call	0x2824	; 0x2824 <get_msg_ROM>
    25d2:	8c 01       	movw	r16, r24
    25d4:	0e 94 ca 14 	call	0x2994	; 0x2994 <serial_send_message>
    25d8:	c8 01       	movw	r24, r16
    25da:	0e 94 25 1d 	call	0x3a4a	; 0x3a4a <free>
    25de:	06 c0       	rjmp	.+12     	; 0x25ec <__vector_18+0x180>
    25e0:	89 e3       	ldi	r24, 0x39	; 57
    25e2:	91 e0       	ldi	r25, 0x01	; 1
    25e4:	0e 94 ca 14 	call	0x2994	; 0x2994 <serial_send_message>
    25e8:	0e 94 fa 13 	call	0x27f4	; 0x27f4 <reset_values>
    25ec:	0e 94 fa 13 	call	0x27f4	; 0x27f4 <reset_values>
    25f0:	13 c0       	rjmp	.+38     	; 0x2618 <__vector_18+0x1ac>
    25f2:	e0 91 24 03 	lds	r30, 0x0324
    25f6:	f0 91 25 03 	lds	r31, 0x0325
    25fa:	30 97       	sbiw	r30, 0x00	; 0
    25fc:	69 f0       	breq	.+26     	; 0x2618 <__vector_18+0x1ac>
    25fe:	31 97       	sbiw	r30, 0x01	; 1
    2600:	df 01       	movw	r26, r30
    2602:	af 5b       	subi	r26, 0xBF	; 191
    2604:	bb 4f       	sbci	r27, 0xFB	; 251
    2606:	1c 92       	st	X, r1
    2608:	31 97       	sbiw	r30, 0x01	; 1
    260a:	f0 93 25 03 	sts	0x0325, r31
    260e:	e0 93 24 03 	sts	0x0324, r30
    2612:	ef 5b       	subi	r30, 0xBF	; 191
    2614:	fb 4f       	sbci	r31, 0xFB	; 251
    2616:	10 82       	st	Z, r1
    2618:	ff 91       	pop	r31
    261a:	ef 91       	pop	r30
    261c:	bf 91       	pop	r27
    261e:	af 91       	pop	r26
    2620:	9f 91       	pop	r25
    2622:	8f 91       	pop	r24
    2624:	7f 91       	pop	r23
    2626:	6f 91       	pop	r22
    2628:	5f 91       	pop	r21
    262a:	4f 91       	pop	r20
    262c:	3f 91       	pop	r19
    262e:	2f 91       	pop	r18
    2630:	1f 91       	pop	r17
    2632:	0f 91       	pop	r16
    2634:	0f 90       	pop	r0
    2636:	0f be       	out	0x3f, r0	; 63
    2638:	0f 90       	pop	r0
    263a:	1f 90       	pop	r1
    263c:	18 95       	reti

0000263e <main>:
    263e:	cf 93       	push	r28
    2640:	df 93       	push	r29
    2642:	0e 94 40 15 	call	0x2a80	; 0x2a80 <SPI_MasterConfig>
    2646:	0e 94 e3 0c 	call	0x19c6	; 0x19c6 <clear_train>
    264a:	0e 94 50 15 	call	0x2aa0	; 0x2aa0 <clear_blank>
    264e:	10 92 28 03 	sts	0x0328, r1
    2652:	10 92 27 03 	sts	0x0327, r1
    2656:	10 92 26 03 	sts	0x0326, r1
    265a:	83 e0       	ldi	r24, 0x03	; 3
    265c:	90 e0       	ldi	r25, 0x00	; 0
    265e:	90 93 c1 02 	sts	0x02C1, r25
    2662:	80 93 c0 02 	sts	0x02C0, r24
    2666:	8e e1       	ldi	r24, 0x1E	; 30
    2668:	90 e0       	ldi	r25, 0x00	; 0
    266a:	90 93 bf 02 	sts	0x02BF, r25
    266e:	80 93 be 02 	sts	0x02BE, r24
    2672:	10 92 bd 02 	sts	0x02BD, r1
    2676:	10 92 bc 02 	sts	0x02BC, r1
    267a:	82 e3       	ldi	r24, 0x32	; 50
    267c:	80 93 55 04 	sts	0x0455, r24
    2680:	83 e3       	ldi	r24, 0x33	; 51
    2682:	80 93 56 04 	sts	0x0456, r24
    2686:	9a e3       	ldi	r25, 0x3A	; 58
    2688:	90 93 57 04 	sts	0x0457, r25
    268c:	84 e3       	ldi	r24, 0x34	; 52
    268e:	80 93 58 04 	sts	0x0458, r24
    2692:	87 e3       	ldi	r24, 0x37	; 55
    2694:	80 93 59 04 	sts	0x0459, r24
    2698:	90 93 5a 04 	sts	0x045A, r25
    269c:	85 e3       	ldi	r24, 0x35	; 53
    269e:	80 93 5b 04 	sts	0x045B, r24
    26a2:	88 e3       	ldi	r24, 0x38	; 56
    26a4:	80 93 5c 04 	sts	0x045C, r24
    26a8:	89 e2       	ldi	r24, 0x29	; 41
    26aa:	93 e0       	ldi	r25, 0x03	; 3
    26ac:	0e 94 e5 15 	call	0x2bca	; 0x2bca <update_clk_window>
    26b0:	81 e0       	ldi	r24, 0x01	; 1
    26b2:	80 93 26 03 	sts	0x0326, r24
    26b6:	c1 e0       	ldi	r28, 0x01	; 1
    26b8:	d0 e0       	ldi	r29, 0x00	; 0
    26ba:	80 91 27 03 	lds	r24, 0x0327
    26be:	90 91 28 03 	lds	r25, 0x0328
    26c2:	89 2b       	or	r24, r25
    26c4:	41 f0       	breq	.+16     	; 0x26d6 <main+0x98>
    26c6:	80 91 26 03 	lds	r24, 0x0326
    26ca:	99 27       	eor	r25, r25
    26cc:	87 fd       	sbrc	r24, 7
    26ce:	90 95       	com	r25
    26d0:	0e 94 9e 0b 	call	0x173c	; 0x173c <INT2_task>
    26d4:	f2 cf       	rjmp	.-28     	; 0x26ba <main+0x7c>
    26d6:	80 91 aa 02 	lds	r24, 0x02AA
    26da:	90 91 ab 02 	lds	r25, 0x02AB
    26de:	01 96       	adiw	r24, 0x01	; 1
    26e0:	68 e6       	ldi	r22, 0x68	; 104
    26e2:	71 e0       	ldi	r23, 0x01	; 1
    26e4:	0e 94 2e 1c 	call	0x385c	; 0x385c <__divmodhi4>
    26e8:	90 93 ab 02 	sts	0x02AB, r25
    26ec:	80 93 aa 02 	sts	0x02AA, r24
    26f0:	d0 93 28 03 	sts	0x0328, r29
    26f4:	c0 93 27 03 	sts	0x0327, r28
    26f8:	e0 cf       	rjmp	.-64     	; 0x26ba <main+0x7c>

000026fa <serial_init>:
    26fa:	90 93 90 00 	sts	0x0090, r25
    26fe:	89 b9       	out	0x09, r24	; 9
    2700:	88 e1       	ldi	r24, 0x18	; 24
    2702:	8a b9       	out	0x0a, r24	; 10
    2704:	86 e0       	ldi	r24, 0x06	; 6
    2706:	80 93 95 00 	sts	0x0095, r24
    270a:	57 9a       	sbi	0x0a, 7	; 10
    270c:	78 94       	sei
    270e:	08 95       	ret

00002710 <serial_send>:
    2710:	5d 9b       	sbis	0x0b, 5	; 11
    2712:	fe cf       	rjmp	.-4      	; 0x2710 <serial_send>
    2714:	8c b9       	out	0x0c, r24	; 12
    2716:	08 95       	ret

00002718 <serial_receive>:
    2718:	5f 9b       	sbis	0x0b, 7	; 11
    271a:	fe cf       	rjmp	.-4      	; 0x2718 <serial_receive>
    271c:	8c b1       	in	r24, 0x0c	; 12
    271e:	08 95       	ret

00002720 <get_color>:
    2720:	df 93       	push	r29
    2722:	cf 93       	push	r28
    2724:	00 d0       	rcall	.+0      	; 0x2726 <get_color+0x6>
    2726:	00 d0       	rcall	.+0      	; 0x2728 <get_color+0x8>
    2728:	00 d0       	rcall	.+0      	; 0x272a <get_color+0xa>
    272a:	cd b7       	in	r28, 0x3d	; 61
    272c:	de b7       	in	r29, 0x3e	; 62
    272e:	dc 01       	movw	r26, r24
    2730:	20 e0       	ldi	r18, 0x00	; 0
    2732:	ae 01       	movw	r20, r28
    2734:	4f 5f       	subi	r20, 0xFF	; 255
    2736:	5f 4f       	sbci	r21, 0xFF	; 255
    2738:	9c 91       	ld	r25, X
    273a:	89 2f       	mov	r24, r25
    273c:	81 54       	subi	r24, 0x41	; 65
    273e:	86 30       	cpi	r24, 0x06	; 6
    2740:	18 f0       	brcs	.+6      	; 0x2748 <get_color+0x28>
    2742:	80 52       	subi	r24, 0x20	; 32
    2744:	86 30       	cpi	r24, 0x06	; 6
    2746:	50 f4       	brcc	.+20     	; 0x275c <get_color+0x3c>
    2748:	82 2f       	mov	r24, r18
    274a:	86 95       	lsr	r24
    274c:	fa 01       	movw	r30, r20
    274e:	e8 0f       	add	r30, r24
    2750:	f1 1d       	adc	r31, r1
    2752:	92 95       	swap	r25
    2754:	90 7f       	andi	r25, 0xF0	; 240
    2756:	90 57       	subi	r25, 0x70	; 112
    2758:	90 83       	st	Z, r25
    275a:	0d c0       	rjmp	.+26     	; 0x2776 <get_color+0x56>
    275c:	82 2f       	mov	r24, r18
    275e:	86 95       	lsr	r24
    2760:	fa 01       	movw	r30, r20
    2762:	e8 0f       	add	r30, r24
    2764:	f1 1d       	adc	r31, r1
    2766:	89 2f       	mov	r24, r25
    2768:	90 e0       	ldi	r25, 0x00	; 0
    276a:	34 e0       	ldi	r19, 0x04	; 4
    276c:	88 0f       	add	r24, r24
    276e:	99 1f       	adc	r25, r25
    2770:	3a 95       	dec	r19
    2772:	e1 f7       	brne	.-8      	; 0x276c <get_color+0x4c>
    2774:	80 83       	st	Z, r24
    2776:	11 96       	adiw	r26, 0x01	; 1
    2778:	9c 91       	ld	r25, X
    277a:	11 97       	sbiw	r26, 0x01	; 1
    277c:	89 2f       	mov	r24, r25
    277e:	81 54       	subi	r24, 0x41	; 65
    2780:	86 30       	cpi	r24, 0x06	; 6
    2782:	18 f0       	brcs	.+6      	; 0x278a <get_color+0x6a>
    2784:	80 52       	subi	r24, 0x20	; 32
    2786:	86 30       	cpi	r24, 0x06	; 6
    2788:	40 f4       	brcc	.+16     	; 0x279a <get_color+0x7a>
    278a:	82 2f       	mov	r24, r18
    278c:	86 95       	lsr	r24
    278e:	fa 01       	movw	r30, r20
    2790:	e8 0f       	add	r30, r24
    2792:	f1 1d       	adc	r31, r1
    2794:	9f 70       	andi	r25, 0x0F	; 15
    2796:	97 5f       	subi	r25, 0xF7	; 247
    2798:	06 c0       	rjmp	.+12     	; 0x27a6 <get_color+0x86>
    279a:	82 2f       	mov	r24, r18
    279c:	86 95       	lsr	r24
    279e:	fa 01       	movw	r30, r20
    27a0:	e8 0f       	add	r30, r24
    27a2:	f1 1d       	adc	r31, r1
    27a4:	9f 70       	andi	r25, 0x0F	; 15
    27a6:	80 81       	ld	r24, Z
    27a8:	89 2b       	or	r24, r25
    27aa:	80 83       	st	Z, r24
    27ac:	2e 5f       	subi	r18, 0xFE	; 254
    27ae:	12 96       	adiw	r26, 0x02	; 2
    27b0:	26 30       	cpi	r18, 0x06	; 6
    27b2:	11 f6       	brne	.-124    	; 0x2738 <get_color+0x18>
    27b4:	69 81       	ldd	r22, Y+1	; 0x01
    27b6:	60 93 64 04 	sts	0x0464, r22
    27ba:	7a 81       	ldd	r23, Y+2	; 0x02
    27bc:	70 93 65 04 	sts	0x0465, r23
    27c0:	8b 81       	ldd	r24, Y+3	; 0x03
    27c2:	80 93 66 04 	sts	0x0466, r24
    27c6:	72 95       	swap	r23
    27c8:	76 95       	lsr	r23
    27ca:	76 95       	lsr	r23
    27cc:	73 70       	andi	r23, 0x03	; 3
    27ce:	62 95       	swap	r22
    27d0:	66 95       	lsr	r22
    27d2:	66 95       	lsr	r22
    27d4:	63 70       	andi	r22, 0x03	; 3
    27d6:	82 95       	swap	r24
    27d8:	86 95       	lsr	r24
    27da:	86 95       	lsr	r24
    27dc:	83 70       	andi	r24, 0x03	; 3
    27de:	90 e0       	ldi	r25, 0x00	; 0
    27e0:	26 96       	adiw	r28, 0x06	; 6
    27e2:	0f b6       	in	r0, 0x3f	; 63
    27e4:	f8 94       	cli
    27e6:	de bf       	out	0x3e, r29	; 62
    27e8:	0f be       	out	0x3f, r0	; 63
    27ea:	cd bf       	out	0x3d, r28	; 61
    27ec:	cf 91       	pop	r28
    27ee:	df 91       	pop	r29
    27f0:	08 95       	ret

000027f2 <serial_int>:
    27f2:	08 95       	ret

000027f4 <reset_values>:
    27f4:	84 e1       	ldi	r24, 0x14	; 20
    27f6:	e1 e4       	ldi	r30, 0x41	; 65
    27f8:	f4 e0       	ldi	r31, 0x04	; 4
    27fa:	df 01       	movw	r26, r30
    27fc:	1d 92       	st	X+, r1
    27fe:	8a 95       	dec	r24
    2800:	e9 f7       	brne	.-6      	; 0x27fc <reset_values+0x8>
    2802:	10 92 25 03 	sts	0x0325, r1
    2806:	10 92 24 03 	sts	0x0324, r1
    280a:	10 92 c1 02 	sts	0x02C1, r1
    280e:	10 92 c0 02 	sts	0x02C0, r1
    2812:	10 92 bf 02 	sts	0x02BF, r1
    2816:	10 92 be 02 	sts	0x02BE, r1
    281a:	10 92 bd 02 	sts	0x02BD, r1
    281e:	10 92 bc 02 	sts	0x02BC, r1
    2822:	08 95       	ret

00002824 <get_msg_ROM>:
    2824:	ef 92       	push	r14
    2826:	ff 92       	push	r15
    2828:	0f 93       	push	r16
    282a:	1f 93       	push	r17
    282c:	7c 01       	movw	r14, r24
    282e:	80 e5       	ldi	r24, 0x50	; 80
    2830:	90 e0       	ldi	r25, 0x00	; 0
    2832:	0e 94 78 1c 	call	0x38f0	; 0x38f0 <malloc>
    2836:	18 2f       	mov	r17, r24
    2838:	09 2f       	mov	r16, r25
    283a:	e8 2f       	mov	r30, r24
    283c:	f9 2f       	mov	r31, r25
    283e:	80 e5       	ldi	r24, 0x50	; 80
    2840:	df 01       	movw	r26, r30
    2842:	1d 92       	st	X+, r1
    2844:	8a 95       	dec	r24
    2846:	e9 f7       	brne	.-6      	; 0x2842 <get_msg_ROM+0x1e>
    2848:	f7 01       	movw	r30, r14
    284a:	ee 0f       	add	r30, r30
    284c:	ff 1f       	adc	r31, r31
    284e:	e7 54       	subi	r30, 0x47	; 71
    2850:	fd 4f       	sbci	r31, 0xFD	; 253
    2852:	65 91       	lpm	r22, Z+
    2854:	74 91       	lpm	r23, Z+
    2856:	81 2f       	mov	r24, r17
    2858:	0e 94 7d 1d 	call	0x3afa	; 0x3afa <strcpy_P>
    285c:	81 2f       	mov	r24, r17
    285e:	90 2f       	mov	r25, r16
    2860:	1f 91       	pop	r17
    2862:	0f 91       	pop	r16
    2864:	ff 90       	pop	r15
    2866:	ef 90       	pop	r14
    2868:	08 95       	ret

0000286a <get_mode>:
    286a:	cf 93       	push	r28
    286c:	df 93       	push	r29
    286e:	ec 01       	movw	r28, r24
    2870:	6b e4       	ldi	r22, 0x4B	; 75
    2872:	71 e0       	ldi	r23, 0x01	; 1
    2874:	44 e0       	ldi	r20, 0x04	; 4
    2876:	50 e0       	ldi	r21, 0x00	; 0
    2878:	0e 94 84 1d 	call	0x3b08	; 0x3b08 <strncasecmp>
    287c:	89 2b       	or	r24, r25
    287e:	19 f4       	brne	.+6      	; 0x2886 <get_mode+0x1c>
    2880:	20 e0       	ldi	r18, 0x00	; 0
    2882:	30 e0       	ldi	r19, 0x00	; 0
    2884:	1a c0       	rjmp	.+52     	; 0x28ba <get_mode+0x50>
    2886:	ce 01       	movw	r24, r28
    2888:	60 e5       	ldi	r22, 0x50	; 80
    288a:	71 e0       	ldi	r23, 0x01	; 1
    288c:	44 e0       	ldi	r20, 0x04	; 4
    288e:	50 e0       	ldi	r21, 0x00	; 0
    2890:	0e 94 84 1d 	call	0x3b08	; 0x3b08 <strncasecmp>
    2894:	89 2b       	or	r24, r25
    2896:	19 f4       	brne	.+6      	; 0x289e <get_mode+0x34>
    2898:	21 e0       	ldi	r18, 0x01	; 1
    289a:	30 e0       	ldi	r19, 0x00	; 0
    289c:	0e c0       	rjmp	.+28     	; 0x28ba <get_mode+0x50>
    289e:	ce 01       	movw	r24, r28
    28a0:	65 e5       	ldi	r22, 0x55	; 85
    28a2:	71 e0       	ldi	r23, 0x01	; 1
    28a4:	44 e0       	ldi	r20, 0x04	; 4
    28a6:	50 e0       	ldi	r21, 0x00	; 0
    28a8:	0e 94 84 1d 	call	0x3b08	; 0x3b08 <strncasecmp>
    28ac:	89 2b       	or	r24, r25
    28ae:	19 f0       	breq	.+6      	; 0x28b6 <get_mode+0x4c>
    28b0:	2f ef       	ldi	r18, 0xFF	; 255
    28b2:	3f ef       	ldi	r19, 0xFF	; 255
    28b4:	02 c0       	rjmp	.+4      	; 0x28ba <get_mode+0x50>
    28b6:	22 e0       	ldi	r18, 0x02	; 2
    28b8:	30 e0       	ldi	r19, 0x00	; 0
    28ba:	c9 01       	movw	r24, r18
    28bc:	df 91       	pop	r29
    28be:	cf 91       	pop	r28
    28c0:	08 95       	ret

000028c2 <decode_CMD>:
    28c2:	cf 93       	push	r28
    28c4:	df 93       	push	r29
    28c6:	ec 01       	movw	r28, r24
    28c8:	6a e5       	ldi	r22, 0x5A	; 90
    28ca:	71 e0       	ldi	r23, 0x01	; 1
    28cc:	44 e0       	ldi	r20, 0x04	; 4
    28ce:	50 e0       	ldi	r21, 0x00	; 0
    28d0:	0e 94 84 1d 	call	0x3b08	; 0x3b08 <strncasecmp>
    28d4:	89 2b       	or	r24, r25
    28d6:	11 f4       	brne	.+4      	; 0x28dc <decode_CMD+0x1a>
    28d8:	80 e0       	ldi	r24, 0x00	; 0
    28da:	59 c0       	rjmp	.+178    	; 0x298e <decode_CMD+0xcc>
    28dc:	ce 01       	movw	r24, r28
    28de:	6f e5       	ldi	r22, 0x5F	; 95
    28e0:	71 e0       	ldi	r23, 0x01	; 1
    28e2:	44 e0       	ldi	r20, 0x04	; 4
    28e4:	50 e0       	ldi	r21, 0x00	; 0
    28e6:	0e 94 84 1d 	call	0x3b08	; 0x3b08 <strncasecmp>
    28ea:	89 2b       	or	r24, r25
    28ec:	11 f4       	brne	.+4      	; 0x28f2 <decode_CMD+0x30>
    28ee:	81 e0       	ldi	r24, 0x01	; 1
    28f0:	4e c0       	rjmp	.+156    	; 0x298e <decode_CMD+0xcc>
    28f2:	ce 01       	movw	r24, r28
    28f4:	64 e6       	ldi	r22, 0x64	; 100
    28f6:	71 e0       	ldi	r23, 0x01	; 1
    28f8:	44 e0       	ldi	r20, 0x04	; 4
    28fa:	50 e0       	ldi	r21, 0x00	; 0
    28fc:	0e 94 84 1d 	call	0x3b08	; 0x3b08 <strncasecmp>
    2900:	89 2b       	or	r24, r25
    2902:	11 f4       	brne	.+4      	; 0x2908 <decode_CMD+0x46>
    2904:	82 e0       	ldi	r24, 0x02	; 2
    2906:	43 c0       	rjmp	.+134    	; 0x298e <decode_CMD+0xcc>
    2908:	ce 01       	movw	r24, r28
    290a:	69 e6       	ldi	r22, 0x69	; 105
    290c:	71 e0       	ldi	r23, 0x01	; 1
    290e:	44 e0       	ldi	r20, 0x04	; 4
    2910:	50 e0       	ldi	r21, 0x00	; 0
    2912:	0e 94 84 1d 	call	0x3b08	; 0x3b08 <strncasecmp>
    2916:	89 2b       	or	r24, r25
    2918:	11 f4       	brne	.+4      	; 0x291e <decode_CMD+0x5c>
    291a:	83 e0       	ldi	r24, 0x03	; 3
    291c:	38 c0       	rjmp	.+112    	; 0x298e <decode_CMD+0xcc>
    291e:	ce 01       	movw	r24, r28
    2920:	6e e6       	ldi	r22, 0x6E	; 110
    2922:	71 e0       	ldi	r23, 0x01	; 1
    2924:	44 e0       	ldi	r20, 0x04	; 4
    2926:	50 e0       	ldi	r21, 0x00	; 0
    2928:	0e 94 84 1d 	call	0x3b08	; 0x3b08 <strncasecmp>
    292c:	89 2b       	or	r24, r25
    292e:	11 f4       	brne	.+4      	; 0x2934 <decode_CMD+0x72>
    2930:	84 e0       	ldi	r24, 0x04	; 4
    2932:	2d c0       	rjmp	.+90     	; 0x298e <decode_CMD+0xcc>
    2934:	ce 01       	movw	r24, r28
    2936:	63 e7       	ldi	r22, 0x73	; 115
    2938:	71 e0       	ldi	r23, 0x01	; 1
    293a:	44 e0       	ldi	r20, 0x04	; 4
    293c:	50 e0       	ldi	r21, 0x00	; 0
    293e:	0e 94 84 1d 	call	0x3b08	; 0x3b08 <strncasecmp>
    2942:	89 2b       	or	r24, r25
    2944:	11 f4       	brne	.+4      	; 0x294a <decode_CMD+0x88>
    2946:	85 e0       	ldi	r24, 0x05	; 5
    2948:	22 c0       	rjmp	.+68     	; 0x298e <decode_CMD+0xcc>
    294a:	ce 01       	movw	r24, r28
    294c:	68 e7       	ldi	r22, 0x78	; 120
    294e:	71 e0       	ldi	r23, 0x01	; 1
    2950:	44 e0       	ldi	r20, 0x04	; 4
    2952:	50 e0       	ldi	r21, 0x00	; 0
    2954:	0e 94 84 1d 	call	0x3b08	; 0x3b08 <strncasecmp>
    2958:	89 2b       	or	r24, r25
    295a:	11 f4       	brne	.+4      	; 0x2960 <decode_CMD+0x9e>
    295c:	86 e0       	ldi	r24, 0x06	; 6
    295e:	17 c0       	rjmp	.+46     	; 0x298e <decode_CMD+0xcc>
    2960:	ce 01       	movw	r24, r28
    2962:	6d e7       	ldi	r22, 0x7D	; 125
    2964:	71 e0       	ldi	r23, 0x01	; 1
    2966:	44 e0       	ldi	r20, 0x04	; 4
    2968:	50 e0       	ldi	r21, 0x00	; 0
    296a:	0e 94 84 1d 	call	0x3b08	; 0x3b08 <strncasecmp>
    296e:	89 2b       	or	r24, r25
    2970:	11 f4       	brne	.+4      	; 0x2976 <decode_CMD+0xb4>
    2972:	88 e0       	ldi	r24, 0x08	; 8
    2974:	0c c0       	rjmp	.+24     	; 0x298e <decode_CMD+0xcc>
    2976:	ce 01       	movw	r24, r28
    2978:	62 e8       	ldi	r22, 0x82	; 130
    297a:	71 e0       	ldi	r23, 0x01	; 1
    297c:	44 e0       	ldi	r20, 0x04	; 4
    297e:	50 e0       	ldi	r21, 0x00	; 0
    2980:	0e 94 84 1d 	call	0x3b08	; 0x3b08 <strncasecmp>
    2984:	89 2b       	or	r24, r25
    2986:	11 f0       	breq	.+4      	; 0x298c <decode_CMD+0xca>
    2988:	8f ef       	ldi	r24, 0xFF	; 255
    298a:	01 c0       	rjmp	.+2      	; 0x298e <decode_CMD+0xcc>
    298c:	87 e0       	ldi	r24, 0x07	; 7
    298e:	df 91       	pop	r29
    2990:	cf 91       	pop	r28
    2992:	08 95       	ret

00002994 <serial_send_message>:
    2994:	dc 01       	movw	r26, r24
    2996:	0d 90       	ld	r0, X+
    2998:	00 20       	and	r0, r0
    299a:	e9 f7       	brne	.-6      	; 0x2996 <serial_send_message+0x2>
    299c:	11 97       	sbiw	r26, 0x01	; 1
    299e:	a8 1b       	sub	r26, r24
    29a0:	b9 0b       	sbc	r27, r25
    29a2:	20 e0       	ldi	r18, 0x00	; 0
    29a4:	30 e0       	ldi	r19, 0x00	; 0
    29a6:	09 c0       	rjmp	.+18     	; 0x29ba <serial_send_message+0x26>
    29a8:	fc 01       	movw	r30, r24
    29aa:	e2 0f       	add	r30, r18
    29ac:	f3 1f       	adc	r31, r19
    29ae:	e0 81       	ld	r30, Z
    29b0:	5d 9b       	sbis	0x0b, 5	; 11
    29b2:	fe cf       	rjmp	.-4      	; 0x29b0 <serial_send_message+0x1c>
    29b4:	ec b9       	out	0x0c, r30	; 12
    29b6:	2f 5f       	subi	r18, 0xFF	; 255
    29b8:	3f 4f       	sbci	r19, 0xFF	; 255
    29ba:	2a 17       	cp	r18, r26
    29bc:	3b 07       	cpc	r19, r27
    29be:	a4 f3       	brlt	.-24     	; 0x29a8 <serial_send_message+0x14>
    29c0:	08 95       	ret

000029c2 <set_clock>:
    29c2:	df 93       	push	r29
    29c4:	cf 93       	push	r28
    29c6:	00 d0       	rcall	.+0      	; 0x29c8 <set_clock+0x6>
    29c8:	00 d0       	rcall	.+0      	; 0x29ca <set_clock+0x8>
    29ca:	00 d0       	rcall	.+0      	; 0x29cc <set_clock+0xa>
    29cc:	cd b7       	in	r28, 0x3d	; 61
    29ce:	de b7       	in	r29, 0x3e	; 62
    29d0:	e6 e4       	ldi	r30, 0x46	; 70
    29d2:	f4 e0       	ldi	r31, 0x04	; 4
    29d4:	de 01       	movw	r26, r28
    29d6:	11 96       	adiw	r26, 0x01	; 1
    29d8:	90 81       	ld	r25, Z
    29da:	89 2f       	mov	r24, r25
    29dc:	80 53       	subi	r24, 0x30	; 48
    29de:	8a 30       	cpi	r24, 0x0A	; 10
    29e0:	38 f4       	brcc	.+14     	; 0x29f0 <set_clock+0x2e>
    29e2:	9d 93       	st	X+, r25
    29e4:	31 96       	adiw	r30, 0x01	; 1
    29e6:	84 e0       	ldi	r24, 0x04	; 4
    29e8:	ec 34       	cpi	r30, 0x4C	; 76
    29ea:	f8 07       	cpc	r31, r24
    29ec:	a9 f7       	brne	.-22     	; 0x29d8 <set_clock+0x16>
    29ee:	09 c0       	rjmp	.+18     	; 0x2a02 <set_clock+0x40>
    29f0:	5d 9b       	sbis	0x0b, 5	; 11
    29f2:	fe cf       	rjmp	.-4      	; 0x29f0 <set_clock+0x2e>
    29f4:	8d e0       	ldi	r24, 0x0D	; 13
    29f6:	8c b9       	out	0x0c, r24	; 12
    29f8:	87 e8       	ldi	r24, 0x87	; 135
    29fa:	91 e0       	ldi	r25, 0x01	; 1
    29fc:	0e 94 ca 14 	call	0x2994	; 0x2994 <serial_send_message>
    2a00:	36 c0       	rjmp	.+108    	; 0x2a6e <set_clock+0xac>
    2a02:	29 81       	ldd	r18, Y+1	; 0x01
    2a04:	30 e0       	ldi	r19, 0x00	; 0
    2a06:	74 e0       	ldi	r23, 0x04	; 4
    2a08:	22 0f       	add	r18, r18
    2a0a:	33 1f       	adc	r19, r19
    2a0c:	7a 95       	dec	r23
    2a0e:	e1 f7       	brne	.-8      	; 0x2a08 <set_clock+0x46>
    2a10:	30 70       	andi	r19, 0x00	; 0
    2a12:	8a 81       	ldd	r24, Y+2	; 0x02
    2a14:	90 e0       	ldi	r25, 0x00	; 0
    2a16:	8f 70       	andi	r24, 0x0F	; 15
    2a18:	90 70       	andi	r25, 0x00	; 0
    2a1a:	28 2b       	or	r18, r24
    2a1c:	39 2b       	or	r19, r25
    2a1e:	30 93 c1 02 	sts	0x02C1, r19
    2a22:	20 93 c0 02 	sts	0x02C0, r18
    2a26:	2b 81       	ldd	r18, Y+3	; 0x03
    2a28:	30 e0       	ldi	r19, 0x00	; 0
    2a2a:	64 e0       	ldi	r22, 0x04	; 4
    2a2c:	22 0f       	add	r18, r18
    2a2e:	33 1f       	adc	r19, r19
    2a30:	6a 95       	dec	r22
    2a32:	e1 f7       	brne	.-8      	; 0x2a2c <set_clock+0x6a>
    2a34:	30 70       	andi	r19, 0x00	; 0
    2a36:	8c 81       	ldd	r24, Y+4	; 0x04
    2a38:	90 e0       	ldi	r25, 0x00	; 0
    2a3a:	8f 70       	andi	r24, 0x0F	; 15
    2a3c:	90 70       	andi	r25, 0x00	; 0
    2a3e:	28 2b       	or	r18, r24
    2a40:	39 2b       	or	r19, r25
    2a42:	30 93 bf 02 	sts	0x02BF, r19
    2a46:	20 93 be 02 	sts	0x02BE, r18
    2a4a:	2d 81       	ldd	r18, Y+5	; 0x05
    2a4c:	30 e0       	ldi	r19, 0x00	; 0
    2a4e:	54 e0       	ldi	r21, 0x04	; 4
    2a50:	22 0f       	add	r18, r18
    2a52:	33 1f       	adc	r19, r19
    2a54:	5a 95       	dec	r21
    2a56:	e1 f7       	brne	.-8      	; 0x2a50 <set_clock+0x8e>
    2a58:	30 70       	andi	r19, 0x00	; 0
    2a5a:	8e 81       	ldd	r24, Y+6	; 0x06
    2a5c:	90 e0       	ldi	r25, 0x00	; 0
    2a5e:	8f 70       	andi	r24, 0x0F	; 15
    2a60:	90 70       	andi	r25, 0x00	; 0
    2a62:	28 2b       	or	r18, r24
    2a64:	39 2b       	or	r19, r25
    2a66:	30 93 bd 02 	sts	0x02BD, r19
    2a6a:	20 93 bc 02 	sts	0x02BC, r18
    2a6e:	26 96       	adiw	r28, 0x06	; 6
    2a70:	0f b6       	in	r0, 0x3f	; 63
    2a72:	f8 94       	cli
    2a74:	de bf       	out	0x3e, r29	; 62
    2a76:	0f be       	out	0x3f, r0	; 63
    2a78:	cd bf       	out	0x3d, r28	; 61
    2a7a:	cf 91       	pop	r28
    2a7c:	df 91       	pop	r29
    2a7e:	08 95       	ret

00002a80 <SPI_MasterConfig>:
    2a80:	87 e0       	ldi	r24, 0x07	; 7
    2a82:	87 bb       	out	0x17, r24	; 23
    2a84:	80 e5       	ldi	r24, 0x50	; 80
    2a86:	8d b9       	out	0x0d, r24	; 13
    2a88:	70 9a       	sbi	0x0e, 0	; 14
    2a8a:	08 95       	ret

00002a8c <SPI_send>:
    2a8c:	8f b9       	out	0x0f, r24	; 15
    2a8e:	77 9b       	sbis	0x0e, 7	; 14
    2a90:	fe cf       	rjmp	.-4      	; 0x2a8e <SPI_send+0x2>
    2a92:	08 95       	ret

00002a94 <set_xlat>:
    2a94:	c0 9a       	sbi	0x18, 0	; 24
    2a96:	08 95       	ret

00002a98 <clear_xlat>:
    2a98:	c0 98       	cbi	0x18, 0	; 24
    2a9a:	08 95       	ret

00002a9c <set_blank>:
    2a9c:	c0 9a       	sbi	0x18, 0	; 24
    2a9e:	08 95       	ret

00002aa0 <clear_blank>:
    2aa0:	c0 98       	cbi	0x18, 0	; 24
    2aa2:	08 95       	ret

00002aa4 <togle_blank>:
    2aa4:	88 b3       	in	r24, 0x18	; 24
    2aa6:	90 e2       	ldi	r25, 0x20	; 32
    2aa8:	89 27       	eor	r24, r25
    2aaa:	88 bb       	out	0x18, r24	; 24
    2aac:	08 95       	ret

00002aae <get_clock_window_index>:
			train[radius-1].b=0x00;
		}
}

coord_t get_clock_window_index(coord_t p1, char *found)
{
    2aae:	28 2f       	mov	r18, r24
    2ab0:	fb 01       	movw	r30, r22

	coord_t wp;
	wp.x=0;
	wp.y=0;
	
	if(p1.x>=X_CLK_W_STAR && p1.x<=X_CLK_W_END)
    2ab2:	8c 50       	subi	r24, 0x0C	; 12
    2ab4:	88 32       	cpi	r24, 0x28	; 40
    2ab6:	48 f4       	brcc	.+18     	; 0x2aca <get_clock_window_index+0x1c>
	 {
		 if(p1.y>=Y_CLK_W_STAR && p1.y<=Y_CLK_W_END)
    2ab8:	89 2f       	mov	r24, r25
    2aba:	8d 50       	subi	r24, 0x0D	; 13
    2abc:	88 30       	cpi	r24, 0x08	; 8
    2abe:	28 f4       	brcc	.+10     	; 0x2aca <get_clock_window_index+0x1c>
			 {
				wp.x=p1.x-13;
    2ac0:	2d 50       	subi	r18, 0x0D	; 13
				wp.y=p1.y-14;
    2ac2:	9e 50       	subi	r25, 0x0E	; 14
				*found=1;
    2ac4:	81 e0       	ldi	r24, 0x01	; 1
    2ac6:	80 83       	st	Z, r24
    2ac8:	02 c0       	rjmp	.+4      	; 0x2ace <get_clock_window_index+0x20>
    2aca:	90 e0       	ldi	r25, 0x00	; 0
    2acc:	20 e0       	ldi	r18, 0x00	; 0
			 }	 
	 }	
	return wp;
}
    2ace:	82 2f       	mov	r24, r18
    2ad0:	08 95       	ret

00002ad2 <get_chr_index>:
}



int get_chr_index(char ascii_value)
{
    2ad2:	20 e0       	ldi	r18, 0x00	; 0
    2ad4:	30 e0       	ldi	r19, 0x00	; 0
	unsigned char continue_to_search=1;
	continue_to_search=1;

	for(i=0;i<NUM_CHARS &&continue_to_search>0;i++)
		{
			chr=pgm_read_byte(&tab_chars[i]);
    2ad6:	f9 01       	movw	r30, r18
    2ad8:	e6 55       	subi	r30, 0x56	; 86
    2ada:	ff 4f       	sbci	r31, 0xFF	; 255
    2adc:	e4 91       	lpm	r30, Z+
			if(ascii_value==chr)
    2ade:	8e 17       	cp	r24, r30
    2ae0:	21 f0       	breq	.+8      	; 0x2aea <get_chr_index+0x18>
    2ae2:	4f ef       	ldi	r20, 0xFF	; 255
    2ae4:	5f ef       	ldi	r21, 0xFF	; 255
    2ae6:	91 e0       	ldi	r25, 0x01	; 1
    2ae8:	02 c0       	rjmp	.+4      	; 0x2aee <get_chr_index+0x1c>
    2aea:	a9 01       	movw	r20, r18
    2aec:	90 e0       	ldi	r25, 0x00	; 0
	int pattern_index;
	unsigned char chr;
	unsigned char continue_to_search=1;
	continue_to_search=1;

	for(i=0;i<NUM_CHARS &&continue_to_search>0;i++)
    2aee:	2f 5f       	subi	r18, 0xFF	; 255
    2af0:	3f 4f       	sbci	r19, 0xFF	; 255
    2af2:	28 32       	cpi	r18, 0x28	; 40
    2af4:	31 05       	cpc	r19, r1
    2af6:	11 f0       	breq	.+4      	; 0x2afc <get_chr_index+0x2a>
    2af8:	99 23       	and	r25, r25
    2afa:	69 f7       	brne	.-38     	; 0x2ad6 <get_chr_index+0x4>
				
			else pattern_index=-1;
		}

			return pattern_index;
}
    2afc:	ca 01       	movw	r24, r20
    2afe:	08 95       	ret

00002b00 <get_pattern_digit>:


void get_pattern_digit(unsigned char index,unsigned char pattern_digit[7])
{
    2b00:	97 e0       	ldi	r25, 0x07	; 7
    2b02:	89 9f       	mul	r24, r25
    2b04:	a0 01       	movw	r20, r0
    2b06:	11 24       	eor	r1, r1
    2b08:	4b 54       	subi	r20, 0x4B	; 75
    2b0a:	5f 4f       	sbci	r21, 0xFF	; 255
    2b0c:	20 e0       	ldi	r18, 0x00	; 0
    2b0e:	30 e0       	ldi	r19, 0x00	; 0
	unsigned char j;
	for(j=0;j<7;j++)
		{
			pattern_digit[j]=pgm_read_byte(&char_patterns[index][j]);
    2b10:	fa 01       	movw	r30, r20
    2b12:	84 91       	lpm	r24, Z+
    2b14:	fb 01       	movw	r30, r22
    2b16:	e2 0f       	add	r30, r18
    2b18:	f3 1f       	adc	r31, r19
    2b1a:	80 83       	st	Z, r24
    2b1c:	2f 5f       	subi	r18, 0xFF	; 255
    2b1e:	3f 4f       	sbci	r19, 0xFF	; 255
    2b20:	4f 5f       	subi	r20, 0xFF	; 255
    2b22:	5f 4f       	sbci	r21, 0xFF	; 255


void get_pattern_digit(unsigned char index,unsigned char pattern_digit[7])
{
	unsigned char j;
	for(j=0;j<7;j++)
    2b24:	27 30       	cpi	r18, 0x07	; 7
    2b26:	31 05       	cpc	r19, r1
    2b28:	99 f7       	brne	.-26     	; 0x2b10 <get_pattern_digit+0x10>
		{
			pattern_digit[j]=pgm_read_byte(&char_patterns[index][j]);
		}
	
}
    2b2a:	08 95       	ret

00002b2c <store_clock_digit>:




void store_clock_digit(unsigned char start,unsigned char clock_window[7][40],unsigned char digit[7])
{
    2b2c:	8f 92       	push	r8
    2b2e:	9f 92       	push	r9
    2b30:	af 92       	push	r10
    2b32:	bf 92       	push	r11
    2b34:	cf 92       	push	r12
    2b36:	df 92       	push	r13
    2b38:	ef 92       	push	r14
    2b3a:	ff 92       	push	r15
    2b3c:	0f 93       	push	r16
    2b3e:	1f 93       	push	r17
    2b40:	cf 93       	push	r28
    2b42:	df 93       	push	r29
    2b44:	6a 01       	movw	r12, r20
    2b46:	26 2f       	mov	r18, r22
    2b48:	37 2f       	mov	r19, r23
    2b4a:	e9 01       	movw	r28, r18
    2b4c:	40 e0       	ldi	r20, 0x00	; 0
    2b4e:	50 e0       	ldi	r21, 0x00	; 0
	unsigned char i,j;
	for(i=0;i<7;i++)
    2b50:	e8 2e       	mov	r14, r24
    2b52:	ff 24       	eor	r15, r15
	{
		for(j=0;j<5;j++)
		{
			if(bit_read(digit[i],4-j))
    2b54:	81 e0       	ldi	r24, 0x01	; 1
    2b56:	a8 2e       	mov	r10, r24
    2b58:	b1 2c       	mov	r11, r1
			clock_window[i][start+j]=1;
    2b5a:	91 e0       	ldi	r25, 0x01	; 1
    2b5c:	1f c0       	rjmp	.+62     	; 0x2b9c <store_clock_digit+0x70>
	unsigned char i,j;
	for(i=0;i<7;i++)
	{
		for(j=0;j<5;j++)
		{
			if(bit_read(digit[i],4-j))
    2b5e:	95 01       	movw	r18, r10
    2b60:	06 2e       	mov	r0, r22
    2b62:	02 c0       	rjmp	.+4      	; 0x2b68 <store_clock_digit+0x3c>
    2b64:	22 0f       	add	r18, r18
    2b66:	33 1f       	adc	r19, r19
    2b68:	0a 94       	dec	r0
    2b6a:	e2 f7       	brpl	.-8      	; 0x2b64 <store_clock_digit+0x38>
    2b6c:	d8 01       	movw	r26, r16
    2b6e:	8c 91       	ld	r24, X
    2b70:	82 23       	and	r24, r18
    2b72:	11 f0       	breq	.+4      	; 0x2b78 <store_clock_digit+0x4c>
			clock_window[i][start+j]=1;
    2b74:	90 83       	st	Z, r25
    2b76:	02 c0       	rjmp	.+4      	; 0x2b7c <store_clock_digit+0x50>
			else
			clock_window[i][start+j]=0;
    2b78:	d4 01       	movw	r26, r8
    2b7a:	1c 92       	st	X, r1
    2b7c:	61 50       	subi	r22, 0x01	; 1
    2b7e:	70 40       	sbci	r23, 0x00	; 0
    2b80:	31 96       	adiw	r30, 0x01	; 1
    2b82:	08 94       	sec
    2b84:	81 1c       	adc	r8, r1
    2b86:	91 1c       	adc	r9, r1
void store_clock_digit(unsigned char start,unsigned char clock_window[7][40],unsigned char digit[7])
{
	unsigned char i,j;
	for(i=0;i<7;i++)
	{
		for(j=0;j<5;j++)
    2b88:	bf ef       	ldi	r27, 0xFF	; 255
    2b8a:	6f 3f       	cpi	r22, 0xFF	; 255
    2b8c:	7b 07       	cpc	r23, r27
    2b8e:	39 f7       	brne	.-50     	; 0x2b5e <store_clock_digit+0x32>
    2b90:	4f 5f       	subi	r20, 0xFF	; 255
    2b92:	5f 4f       	sbci	r21, 0xFF	; 255
    2b94:	a8 96       	adiw	r28, 0x28	; 40


void store_clock_digit(unsigned char start,unsigned char clock_window[7][40],unsigned char digit[7])
{
	unsigned char i,j;
	for(i=0;i<7;i++)
    2b96:	47 30       	cpi	r20, 0x07	; 7
    2b98:	51 05       	cpc	r21, r1
    2b9a:	51 f0       	breq	.+20     	; 0x2bb0 <store_clock_digit+0x84>
    2b9c:	fe 01       	movw	r30, r28
    2b9e:	ee 0d       	add	r30, r14
    2ba0:	ff 1d       	adc	r31, r15
    2ba2:	4f 01       	movw	r8, r30
    2ba4:	64 e0       	ldi	r22, 0x04	; 4
    2ba6:	70 e0       	ldi	r23, 0x00	; 0
	{
		for(j=0;j<5;j++)
		{
			if(bit_read(digit[i],4-j))
    2ba8:	86 01       	movw	r16, r12
    2baa:	04 0f       	add	r16, r20
    2bac:	15 1f       	adc	r17, r21
    2bae:	d7 cf       	rjmp	.-82     	; 0x2b5e <store_clock_digit+0x32>
		}

	}

	
}
    2bb0:	df 91       	pop	r29
    2bb2:	cf 91       	pop	r28
    2bb4:	1f 91       	pop	r17
    2bb6:	0f 91       	pop	r16
    2bb8:	ff 90       	pop	r15
    2bba:	ef 90       	pop	r14
    2bbc:	df 90       	pop	r13
    2bbe:	cf 90       	pop	r12
    2bc0:	bf 90       	pop	r11
    2bc2:	af 90       	pop	r10
    2bc4:	9f 90       	pop	r9
    2bc6:	8f 90       	pop	r8
    2bc8:	08 95       	ret

00002bca <update_clk_window>:




void update_clk_window(unsigned char clock_window[7][40])
{
    2bca:	af 92       	push	r10
    2bcc:	bf 92       	push	r11
    2bce:	cf 92       	push	r12
    2bd0:	df 92       	push	r13
    2bd2:	ef 92       	push	r14
    2bd4:	ff 92       	push	r15
    2bd6:	1f 93       	push	r17
    2bd8:	df 93       	push	r29
    2bda:	cf 93       	push	r28
    2bdc:	cd b7       	in	r28, 0x3d	; 61
    2bde:	de b7       	in	r29, 0x3e	; 62
    2be0:	27 97       	sbiw	r28, 0x07	; 7
    2be2:	0f b6       	in	r0, 0x3f	; 63
    2be4:	f8 94       	cli
    2be6:	de bf       	out	0x3e, r29	; 62
    2be8:	0f be       	out	0x3f, r0	; 63
    2bea:	cd bf       	out	0x3d, r28	; 61
    2bec:	6c 01       	movw	r12, r24
    2bee:	95 e5       	ldi	r25, 0x55	; 85
    2bf0:	e9 2e       	mov	r14, r25
    2bf2:	94 e0       	ldi	r25, 0x04	; 4
    2bf4:	f9 2e       	mov	r15, r25
    2bf6:	10 e0       	ldi	r17, 0x00	; 0
	clk_x=0;

	for(i=0;i<8;i++)
		{
			chr_index=get_chr_index(clock_digits[i]);
			get_pattern_digit(chr_index,pattern_digit);
    2bf8:	5e 01       	movw	r10, r28
    2bfa:	08 94       	sec
    2bfc:	a1 1c       	adc	r10, r1
    2bfe:	b1 1c       	adc	r11, r1
	
	clk_x=0;

	for(i=0;i<8;i++)
		{
			chr_index=get_chr_index(clock_digits[i]);
    2c00:	f7 01       	movw	r30, r14
    2c02:	81 91       	ld	r24, Z+
    2c04:	7f 01       	movw	r14, r30
    2c06:	0e 94 69 15 	call	0x2ad2	; 0x2ad2 <get_chr_index>
			get_pattern_digit(chr_index,pattern_digit);
    2c0a:	b5 01       	movw	r22, r10
    2c0c:	0e 94 80 15 	call	0x2b00	; 0x2b00 <get_pattern_digit>
			store_clock_digit(clk_x,clock_window,pattern_digit);
    2c10:	81 2f       	mov	r24, r17
    2c12:	b6 01       	movw	r22, r12
    2c14:	a5 01       	movw	r20, r10
    2c16:	0e 94 96 15 	call	0x2b2c	; 0x2b2c <store_clock_digit>
    2c1a:	1b 5f       	subi	r17, 0xFB	; 251
	unsigned char pattern_digit[7];
	int clk_x;
	
	clk_x=0;

	for(i=0;i<8;i++)
    2c1c:	18 32       	cpi	r17, 0x28	; 40
    2c1e:	81 f7       	brne	.-32     	; 0x2c00 <update_clk_window+0x36>
			get_pattern_digit(chr_index,pattern_digit);
			store_clock_digit(clk_x,clock_window,pattern_digit);
			clk_x+=5;
			
		}
}
    2c20:	27 96       	adiw	r28, 0x07	; 7
    2c22:	0f b6       	in	r0, 0x3f	; 63
    2c24:	f8 94       	cli
    2c26:	de bf       	out	0x3e, r29	; 62
    2c28:	0f be       	out	0x3f, r0	; 63
    2c2a:	cd bf       	out	0x3d, r28	; 61
    2c2c:	cf 91       	pop	r28
    2c2e:	df 91       	pop	r29
    2c30:	1f 91       	pop	r17
    2c32:	ff 90       	pop	r15
    2c34:	ef 90       	pop	r14
    2c36:	df 90       	pop	r13
    2c38:	cf 90       	pop	r12
    2c3a:	bf 90       	pop	r11
    2c3c:	af 90       	pop	r10
    2c3e:	08 95       	ret

00002c40 <digital_clock_generator>:
#define Y_CLK_W_STAR 13
#define Y_CLK_W_END 20


void digital_clock_generator(rgb_t *train,short int theta)
{
    2c40:	7f 92       	push	r7
    2c42:	8f 92       	push	r8
    2c44:	9f 92       	push	r9
    2c46:	af 92       	push	r10
    2c48:	bf 92       	push	r11
    2c4a:	cf 92       	push	r12
    2c4c:	df 92       	push	r13
    2c4e:	ef 92       	push	r14
    2c50:	ff 92       	push	r15
    2c52:	0f 93       	push	r16
    2c54:	1f 93       	push	r17
    2c56:	df 93       	push	r29
    2c58:	cf 93       	push	r28
    2c5a:	0f 92       	push	r0
    2c5c:	cd b7       	in	r28, 0x3d	; 61
    2c5e:	de b7       	in	r29, 0x3e	; 62
    2c60:	6b 01       	movw	r12, r22
    2c62:	8c 01       	movw	r16, r24
    2c64:	3b e0       	ldi	r19, 0x0B	; 11
    2c66:	e3 2e       	mov	r14, r19
    2c68:	f1 2c       	mov	r15, r1
	for (radius=11; radius<=28;radius++)
	
	{
		train[radius-1].r=0x00;
		train[radius-1].g=0x00;
		found=-1;
    2c6a:	77 24       	eor	r7, r7
    2c6c:	7a 94       	dec	r7
		
		coord_t p1=polar_2_rect(theta,radius);
		coord_t p2=get_clock_window_index(p1,&found);
    2c6e:	4e 01       	movw	r8, r28
    2c70:	08 94       	sec
    2c72:	81 1c       	adc	r8, r1
    2c74:	91 1c       	adc	r9, r1
	
		if(found==1)
			train[radius-1].b=clock_window[p2.y][p2.x]<<6;
    2c76:	28 e2       	ldi	r18, 0x28	; 40
    2c78:	a2 2e       	mov	r10, r18
    2c7a:	b1 2c       	mov	r11, r1
    short int radius;
	char found;
	for (radius=11; radius<=28;radius++)
	
	{
		train[radius-1].r=0x00;
    2c7c:	f8 01       	movw	r30, r16
    2c7e:	16 8e       	std	Z+30, r1	; 0x1e
		train[radius-1].g=0x00;
    2c80:	17 8e       	std	Z+31, r1	; 0x1f
		found=-1;
    2c82:	79 82       	std	Y+1, r7	; 0x01
		
		coord_t p1=polar_2_rect(theta,radius);
    2c84:	c6 01       	movw	r24, r12
    2c86:	b7 01       	movw	r22, r14
    2c88:	0e 94 12 0e 	call	0x1c24	; 0x1c24 <polar_2_rect>
		coord_t p2=get_clock_window_index(p1,&found);
    2c8c:	b4 01       	movw	r22, r8
    2c8e:	0e 94 57 15 	call	0x2aae	; 0x2aae <get_clock_window_index>
    2c92:	28 2f       	mov	r18, r24
	
		if(found==1)
    2c94:	89 81       	ldd	r24, Y+1	; 0x01
    2c96:	81 30       	cpi	r24, 0x01	; 1
    2c98:	a9 f4       	brne	.+42     	; 0x2cc4 <digital_clock_generator+0x84>
			train[radius-1].b=clock_window[p2.y][p2.x]<<6;
    2c9a:	89 2f       	mov	r24, r25
    2c9c:	90 e0       	ldi	r25, 0x00	; 0
    2c9e:	8a 9d       	mul	r24, r10
    2ca0:	f0 01       	movw	r30, r0
    2ca2:	8b 9d       	mul	r24, r11
    2ca4:	f0 0d       	add	r31, r0
    2ca6:	9a 9d       	mul	r25, r10
    2ca8:	f0 0d       	add	r31, r0
    2caa:	11 24       	eor	r1, r1
    2cac:	e2 0f       	add	r30, r18
    2cae:	f1 1d       	adc	r31, r1
    2cb0:	e7 5d       	subi	r30, 0xD7	; 215
    2cb2:	fc 4f       	sbci	r31, 0xFC	; 252
    2cb4:	80 81       	ld	r24, Z
    2cb6:	82 95       	swap	r24
    2cb8:	88 0f       	add	r24, r24
    2cba:	88 0f       	add	r24, r24
    2cbc:	80 7c       	andi	r24, 0xC0	; 192
    2cbe:	f8 01       	movw	r30, r16
    2cc0:	80 a3       	std	Z+32, r24	; 0x20
    2cc2:	02 c0       	rjmp	.+4      	; 0x2cc8 <digital_clock_generator+0x88>
		else
			train[radius-1].b=0x00;
    2cc4:	f8 01       	movw	r30, r16
    2cc6:	10 a2       	std	Z+32, r1	; 0x20

void digital_clock_generator(rgb_t *train,short int theta)
{
    short int radius;
	char found;
	for (radius=11; radius<=28;radius++)
    2cc8:	08 94       	sec
    2cca:	e1 1c       	adc	r14, r1
    2ccc:	f1 1c       	adc	r15, r1
    2cce:	0d 5f       	subi	r16, 0xFD	; 253
    2cd0:	1f 4f       	sbci	r17, 0xFF	; 255
    2cd2:	fd e1       	ldi	r31, 0x1D	; 29
    2cd4:	ef 16       	cp	r14, r31
    2cd6:	f1 04       	cpc	r15, r1
    2cd8:	89 f6       	brne	.-94     	; 0x2c7c <digital_clock_generator+0x3c>
		if(found==1)
			train[radius-1].b=clock_window[p2.y][p2.x]<<6;
		else
			train[radius-1].b=0x00;
		}
}
    2cda:	0f 90       	pop	r0
    2cdc:	cf 91       	pop	r28
    2cde:	df 91       	pop	r29
    2ce0:	1f 91       	pop	r17
    2ce2:	0f 91       	pop	r16
    2ce4:	ff 90       	pop	r15
    2ce6:	ef 90       	pop	r14
    2ce8:	df 90       	pop	r13
    2cea:	cf 90       	pop	r12
    2cec:	bf 90       	pop	r11
    2cee:	af 90       	pop	r10
    2cf0:	9f 90       	pop	r9
    2cf2:	8f 90       	pop	r8
    2cf4:	7f 90       	pop	r7
    2cf6:	08 95       	ret

00002cf8 <_fpadd_parts>:
    2cf8:	a0 e0       	ldi	r26, 0x00	; 0
    2cfa:	b0 e0       	ldi	r27, 0x00	; 0
    2cfc:	e2 e8       	ldi	r30, 0x82	; 130
    2cfe:	f6 e1       	ldi	r31, 0x16	; 22
    2d00:	0c 94 41 1c 	jmp	0x3882	; 0x3882 <__prologue_saves__>
    2d04:	dc 01       	movw	r26, r24
    2d06:	2b 01       	movw	r4, r22
    2d08:	fa 01       	movw	r30, r20
    2d0a:	9c 91       	ld	r25, X
    2d0c:	92 30       	cpi	r25, 0x02	; 2
    2d0e:	08 f4       	brcc	.+2      	; 0x2d12 <_fpadd_parts+0x1a>
    2d10:	39 c1       	rjmp	.+626    	; 0x2f84 <_fpadd_parts+0x28c>
    2d12:	eb 01       	movw	r28, r22
    2d14:	88 81       	ld	r24, Y
    2d16:	82 30       	cpi	r24, 0x02	; 2
    2d18:	08 f4       	brcc	.+2      	; 0x2d1c <_fpadd_parts+0x24>
    2d1a:	33 c1       	rjmp	.+614    	; 0x2f82 <_fpadd_parts+0x28a>
    2d1c:	94 30       	cpi	r25, 0x04	; 4
    2d1e:	69 f4       	brne	.+26     	; 0x2d3a <_fpadd_parts+0x42>
    2d20:	84 30       	cpi	r24, 0x04	; 4
    2d22:	09 f0       	breq	.+2      	; 0x2d26 <_fpadd_parts+0x2e>
    2d24:	2f c1       	rjmp	.+606    	; 0x2f84 <_fpadd_parts+0x28c>
    2d26:	11 96       	adiw	r26, 0x01	; 1
    2d28:	9c 91       	ld	r25, X
    2d2a:	11 97       	sbiw	r26, 0x01	; 1
    2d2c:	89 81       	ldd	r24, Y+1	; 0x01
    2d2e:	98 17       	cp	r25, r24
    2d30:	09 f4       	brne	.+2      	; 0x2d34 <_fpadd_parts+0x3c>
    2d32:	28 c1       	rjmp	.+592    	; 0x2f84 <_fpadd_parts+0x28c>
    2d34:	ac e9       	ldi	r26, 0x9C	; 156
    2d36:	b1 e0       	ldi	r27, 0x01	; 1
    2d38:	25 c1       	rjmp	.+586    	; 0x2f84 <_fpadd_parts+0x28c>
    2d3a:	84 30       	cpi	r24, 0x04	; 4
    2d3c:	09 f4       	brne	.+2      	; 0x2d40 <_fpadd_parts+0x48>
    2d3e:	21 c1       	rjmp	.+578    	; 0x2f82 <_fpadd_parts+0x28a>
    2d40:	82 30       	cpi	r24, 0x02	; 2
    2d42:	a9 f4       	brne	.+42     	; 0x2d6e <_fpadd_parts+0x76>
    2d44:	92 30       	cpi	r25, 0x02	; 2
    2d46:	09 f0       	breq	.+2      	; 0x2d4a <_fpadd_parts+0x52>
    2d48:	1d c1       	rjmp	.+570    	; 0x2f84 <_fpadd_parts+0x28c>
    2d4a:	9a 01       	movw	r18, r20
    2d4c:	ad 01       	movw	r20, r26
    2d4e:	88 e0       	ldi	r24, 0x08	; 8
    2d50:	ea 01       	movw	r28, r20
    2d52:	09 90       	ld	r0, Y+
    2d54:	ae 01       	movw	r20, r28
    2d56:	e9 01       	movw	r28, r18
    2d58:	09 92       	st	Y+, r0
    2d5a:	9e 01       	movw	r18, r28
    2d5c:	81 50       	subi	r24, 0x01	; 1
    2d5e:	c1 f7       	brne	.-16     	; 0x2d50 <_fpadd_parts+0x58>
    2d60:	e2 01       	movw	r28, r4
    2d62:	89 81       	ldd	r24, Y+1	; 0x01
    2d64:	11 96       	adiw	r26, 0x01	; 1
    2d66:	9c 91       	ld	r25, X
    2d68:	89 23       	and	r24, r25
    2d6a:	81 83       	std	Z+1, r24	; 0x01
    2d6c:	08 c1       	rjmp	.+528    	; 0x2f7e <_fpadd_parts+0x286>
    2d6e:	92 30       	cpi	r25, 0x02	; 2
    2d70:	09 f4       	brne	.+2      	; 0x2d74 <_fpadd_parts+0x7c>
    2d72:	07 c1       	rjmp	.+526    	; 0x2f82 <_fpadd_parts+0x28a>
    2d74:	12 96       	adiw	r26, 0x02	; 2
    2d76:	2d 90       	ld	r2, X+
    2d78:	3c 90       	ld	r3, X
    2d7a:	13 97       	sbiw	r26, 0x03	; 3
    2d7c:	eb 01       	movw	r28, r22
    2d7e:	8a 81       	ldd	r24, Y+2	; 0x02
    2d80:	9b 81       	ldd	r25, Y+3	; 0x03
    2d82:	14 96       	adiw	r26, 0x04	; 4
    2d84:	ad 90       	ld	r10, X+
    2d86:	bd 90       	ld	r11, X+
    2d88:	cd 90       	ld	r12, X+
    2d8a:	dc 90       	ld	r13, X
    2d8c:	17 97       	sbiw	r26, 0x07	; 7
    2d8e:	ec 80       	ldd	r14, Y+4	; 0x04
    2d90:	fd 80       	ldd	r15, Y+5	; 0x05
    2d92:	0e 81       	ldd	r16, Y+6	; 0x06
    2d94:	1f 81       	ldd	r17, Y+7	; 0x07
    2d96:	91 01       	movw	r18, r2
    2d98:	28 1b       	sub	r18, r24
    2d9a:	39 0b       	sbc	r19, r25
    2d9c:	b9 01       	movw	r22, r18
    2d9e:	37 ff       	sbrs	r19, 7
    2da0:	04 c0       	rjmp	.+8      	; 0x2daa <_fpadd_parts+0xb2>
    2da2:	66 27       	eor	r22, r22
    2da4:	77 27       	eor	r23, r23
    2da6:	62 1b       	sub	r22, r18
    2da8:	73 0b       	sbc	r23, r19
    2daa:	60 32       	cpi	r22, 0x20	; 32
    2dac:	71 05       	cpc	r23, r1
    2dae:	0c f0       	brlt	.+2      	; 0x2db2 <_fpadd_parts+0xba>
    2db0:	61 c0       	rjmp	.+194    	; 0x2e74 <_fpadd_parts+0x17c>
    2db2:	12 16       	cp	r1, r18
    2db4:	13 06       	cpc	r1, r19
    2db6:	6c f5       	brge	.+90     	; 0x2e12 <_fpadd_parts+0x11a>
    2db8:	37 01       	movw	r6, r14
    2dba:	48 01       	movw	r8, r16
    2dbc:	06 2e       	mov	r0, r22
    2dbe:	04 c0       	rjmp	.+8      	; 0x2dc8 <_fpadd_parts+0xd0>
    2dc0:	96 94       	lsr	r9
    2dc2:	87 94       	ror	r8
    2dc4:	77 94       	ror	r7
    2dc6:	67 94       	ror	r6
    2dc8:	0a 94       	dec	r0
    2dca:	d2 f7       	brpl	.-12     	; 0x2dc0 <_fpadd_parts+0xc8>
    2dcc:	21 e0       	ldi	r18, 0x01	; 1
    2dce:	30 e0       	ldi	r19, 0x00	; 0
    2dd0:	40 e0       	ldi	r20, 0x00	; 0
    2dd2:	50 e0       	ldi	r21, 0x00	; 0
    2dd4:	04 c0       	rjmp	.+8      	; 0x2dde <_fpadd_parts+0xe6>
    2dd6:	22 0f       	add	r18, r18
    2dd8:	33 1f       	adc	r19, r19
    2dda:	44 1f       	adc	r20, r20
    2ddc:	55 1f       	adc	r21, r21
    2dde:	6a 95       	dec	r22
    2de0:	d2 f7       	brpl	.-12     	; 0x2dd6 <_fpadd_parts+0xde>
    2de2:	21 50       	subi	r18, 0x01	; 1
    2de4:	30 40       	sbci	r19, 0x00	; 0
    2de6:	40 40       	sbci	r20, 0x00	; 0
    2de8:	50 40       	sbci	r21, 0x00	; 0
    2dea:	2e 21       	and	r18, r14
    2dec:	3f 21       	and	r19, r15
    2dee:	40 23       	and	r20, r16
    2df0:	51 23       	and	r21, r17
    2df2:	21 15       	cp	r18, r1
    2df4:	31 05       	cpc	r19, r1
    2df6:	41 05       	cpc	r20, r1
    2df8:	51 05       	cpc	r21, r1
    2dfa:	21 f0       	breq	.+8      	; 0x2e04 <_fpadd_parts+0x10c>
    2dfc:	21 e0       	ldi	r18, 0x01	; 1
    2dfe:	30 e0       	ldi	r19, 0x00	; 0
    2e00:	40 e0       	ldi	r20, 0x00	; 0
    2e02:	50 e0       	ldi	r21, 0x00	; 0
    2e04:	79 01       	movw	r14, r18
    2e06:	8a 01       	movw	r16, r20
    2e08:	e6 28       	or	r14, r6
    2e0a:	f7 28       	or	r15, r7
    2e0c:	08 29       	or	r16, r8
    2e0e:	19 29       	or	r17, r9
    2e10:	3c c0       	rjmp	.+120    	; 0x2e8a <_fpadd_parts+0x192>
    2e12:	23 2b       	or	r18, r19
    2e14:	d1 f1       	breq	.+116    	; 0x2e8a <_fpadd_parts+0x192>
    2e16:	26 0e       	add	r2, r22
    2e18:	37 1e       	adc	r3, r23
    2e1a:	35 01       	movw	r6, r10
    2e1c:	46 01       	movw	r8, r12
    2e1e:	06 2e       	mov	r0, r22
    2e20:	04 c0       	rjmp	.+8      	; 0x2e2a <_fpadd_parts+0x132>
    2e22:	96 94       	lsr	r9
    2e24:	87 94       	ror	r8
    2e26:	77 94       	ror	r7
    2e28:	67 94       	ror	r6
    2e2a:	0a 94       	dec	r0
    2e2c:	d2 f7       	brpl	.-12     	; 0x2e22 <_fpadd_parts+0x12a>
    2e2e:	21 e0       	ldi	r18, 0x01	; 1
    2e30:	30 e0       	ldi	r19, 0x00	; 0
    2e32:	40 e0       	ldi	r20, 0x00	; 0
    2e34:	50 e0       	ldi	r21, 0x00	; 0
    2e36:	04 c0       	rjmp	.+8      	; 0x2e40 <_fpadd_parts+0x148>
    2e38:	22 0f       	add	r18, r18
    2e3a:	33 1f       	adc	r19, r19
    2e3c:	44 1f       	adc	r20, r20
    2e3e:	55 1f       	adc	r21, r21
    2e40:	6a 95       	dec	r22
    2e42:	d2 f7       	brpl	.-12     	; 0x2e38 <_fpadd_parts+0x140>
    2e44:	21 50       	subi	r18, 0x01	; 1
    2e46:	30 40       	sbci	r19, 0x00	; 0
    2e48:	40 40       	sbci	r20, 0x00	; 0
    2e4a:	50 40       	sbci	r21, 0x00	; 0
    2e4c:	2a 21       	and	r18, r10
    2e4e:	3b 21       	and	r19, r11
    2e50:	4c 21       	and	r20, r12
    2e52:	5d 21       	and	r21, r13
    2e54:	21 15       	cp	r18, r1
    2e56:	31 05       	cpc	r19, r1
    2e58:	41 05       	cpc	r20, r1
    2e5a:	51 05       	cpc	r21, r1
    2e5c:	21 f0       	breq	.+8      	; 0x2e66 <_fpadd_parts+0x16e>
    2e5e:	21 e0       	ldi	r18, 0x01	; 1
    2e60:	30 e0       	ldi	r19, 0x00	; 0
    2e62:	40 e0       	ldi	r20, 0x00	; 0
    2e64:	50 e0       	ldi	r21, 0x00	; 0
    2e66:	59 01       	movw	r10, r18
    2e68:	6a 01       	movw	r12, r20
    2e6a:	a6 28       	or	r10, r6
    2e6c:	b7 28       	or	r11, r7
    2e6e:	c8 28       	or	r12, r8
    2e70:	d9 28       	or	r13, r9
    2e72:	0b c0       	rjmp	.+22     	; 0x2e8a <_fpadd_parts+0x192>
    2e74:	82 15       	cp	r24, r2
    2e76:	93 05       	cpc	r25, r3
    2e78:	2c f0       	brlt	.+10     	; 0x2e84 <_fpadd_parts+0x18c>
    2e7a:	1c 01       	movw	r2, r24
    2e7c:	aa 24       	eor	r10, r10
    2e7e:	bb 24       	eor	r11, r11
    2e80:	65 01       	movw	r12, r10
    2e82:	03 c0       	rjmp	.+6      	; 0x2e8a <_fpadd_parts+0x192>
    2e84:	ee 24       	eor	r14, r14
    2e86:	ff 24       	eor	r15, r15
    2e88:	87 01       	movw	r16, r14
    2e8a:	11 96       	adiw	r26, 0x01	; 1
    2e8c:	9c 91       	ld	r25, X
    2e8e:	d2 01       	movw	r26, r4
    2e90:	11 96       	adiw	r26, 0x01	; 1
    2e92:	8c 91       	ld	r24, X
    2e94:	98 17       	cp	r25, r24
    2e96:	09 f4       	brne	.+2      	; 0x2e9a <_fpadd_parts+0x1a2>
    2e98:	45 c0       	rjmp	.+138    	; 0x2f24 <_fpadd_parts+0x22c>
    2e9a:	99 23       	and	r25, r25
    2e9c:	39 f0       	breq	.+14     	; 0x2eac <_fpadd_parts+0x1b4>
    2e9e:	a8 01       	movw	r20, r16
    2ea0:	97 01       	movw	r18, r14
    2ea2:	2a 19       	sub	r18, r10
    2ea4:	3b 09       	sbc	r19, r11
    2ea6:	4c 09       	sbc	r20, r12
    2ea8:	5d 09       	sbc	r21, r13
    2eaa:	06 c0       	rjmp	.+12     	; 0x2eb8 <_fpadd_parts+0x1c0>
    2eac:	a6 01       	movw	r20, r12
    2eae:	95 01       	movw	r18, r10
    2eb0:	2e 19       	sub	r18, r14
    2eb2:	3f 09       	sbc	r19, r15
    2eb4:	40 0b       	sbc	r20, r16
    2eb6:	51 0b       	sbc	r21, r17
    2eb8:	57 fd       	sbrc	r21, 7
    2eba:	08 c0       	rjmp	.+16     	; 0x2ecc <_fpadd_parts+0x1d4>
    2ebc:	11 82       	std	Z+1, r1	; 0x01
    2ebe:	33 82       	std	Z+3, r3	; 0x03
    2ec0:	22 82       	std	Z+2, r2	; 0x02
    2ec2:	24 83       	std	Z+4, r18	; 0x04
    2ec4:	35 83       	std	Z+5, r19	; 0x05
    2ec6:	46 83       	std	Z+6, r20	; 0x06
    2ec8:	57 83       	std	Z+7, r21	; 0x07
    2eca:	1d c0       	rjmp	.+58     	; 0x2f06 <_fpadd_parts+0x20e>
    2ecc:	81 e0       	ldi	r24, 0x01	; 1
    2ece:	81 83       	std	Z+1, r24	; 0x01
    2ed0:	33 82       	std	Z+3, r3	; 0x03
    2ed2:	22 82       	std	Z+2, r2	; 0x02
    2ed4:	88 27       	eor	r24, r24
    2ed6:	99 27       	eor	r25, r25
    2ed8:	dc 01       	movw	r26, r24
    2eda:	82 1b       	sub	r24, r18
    2edc:	93 0b       	sbc	r25, r19
    2ede:	a4 0b       	sbc	r26, r20
    2ee0:	b5 0b       	sbc	r27, r21
    2ee2:	84 83       	std	Z+4, r24	; 0x04
    2ee4:	95 83       	std	Z+5, r25	; 0x05
    2ee6:	a6 83       	std	Z+6, r26	; 0x06
    2ee8:	b7 83       	std	Z+7, r27	; 0x07
    2eea:	0d c0       	rjmp	.+26     	; 0x2f06 <_fpadd_parts+0x20e>
    2eec:	22 0f       	add	r18, r18
    2eee:	33 1f       	adc	r19, r19
    2ef0:	44 1f       	adc	r20, r20
    2ef2:	55 1f       	adc	r21, r21
    2ef4:	24 83       	std	Z+4, r18	; 0x04
    2ef6:	35 83       	std	Z+5, r19	; 0x05
    2ef8:	46 83       	std	Z+6, r20	; 0x06
    2efa:	57 83       	std	Z+7, r21	; 0x07
    2efc:	82 81       	ldd	r24, Z+2	; 0x02
    2efe:	93 81       	ldd	r25, Z+3	; 0x03
    2f00:	01 97       	sbiw	r24, 0x01	; 1
    2f02:	93 83       	std	Z+3, r25	; 0x03
    2f04:	82 83       	std	Z+2, r24	; 0x02
    2f06:	24 81       	ldd	r18, Z+4	; 0x04
    2f08:	35 81       	ldd	r19, Z+5	; 0x05
    2f0a:	46 81       	ldd	r20, Z+6	; 0x06
    2f0c:	57 81       	ldd	r21, Z+7	; 0x07
    2f0e:	da 01       	movw	r26, r20
    2f10:	c9 01       	movw	r24, r18
    2f12:	01 97       	sbiw	r24, 0x01	; 1
    2f14:	a1 09       	sbc	r26, r1
    2f16:	b1 09       	sbc	r27, r1
    2f18:	8f 5f       	subi	r24, 0xFF	; 255
    2f1a:	9f 4f       	sbci	r25, 0xFF	; 255
    2f1c:	af 4f       	sbci	r26, 0xFF	; 255
    2f1e:	bf 43       	sbci	r27, 0x3F	; 63
    2f20:	28 f3       	brcs	.-54     	; 0x2eec <_fpadd_parts+0x1f4>
    2f22:	0b c0       	rjmp	.+22     	; 0x2f3a <_fpadd_parts+0x242>
    2f24:	91 83       	std	Z+1, r25	; 0x01
    2f26:	33 82       	std	Z+3, r3	; 0x03
    2f28:	22 82       	std	Z+2, r2	; 0x02
    2f2a:	ea 0c       	add	r14, r10
    2f2c:	fb 1c       	adc	r15, r11
    2f2e:	0c 1d       	adc	r16, r12
    2f30:	1d 1d       	adc	r17, r13
    2f32:	e4 82       	std	Z+4, r14	; 0x04
    2f34:	f5 82       	std	Z+5, r15	; 0x05
    2f36:	06 83       	std	Z+6, r16	; 0x06
    2f38:	17 83       	std	Z+7, r17	; 0x07
    2f3a:	83 e0       	ldi	r24, 0x03	; 3
    2f3c:	80 83       	st	Z, r24
    2f3e:	24 81       	ldd	r18, Z+4	; 0x04
    2f40:	35 81       	ldd	r19, Z+5	; 0x05
    2f42:	46 81       	ldd	r20, Z+6	; 0x06
    2f44:	57 81       	ldd	r21, Z+7	; 0x07
    2f46:	57 ff       	sbrs	r21, 7
    2f48:	1a c0       	rjmp	.+52     	; 0x2f7e <_fpadd_parts+0x286>
    2f4a:	c9 01       	movw	r24, r18
    2f4c:	aa 27       	eor	r26, r26
    2f4e:	97 fd       	sbrc	r25, 7
    2f50:	a0 95       	com	r26
    2f52:	ba 2f       	mov	r27, r26
    2f54:	81 70       	andi	r24, 0x01	; 1
    2f56:	90 70       	andi	r25, 0x00	; 0
    2f58:	a0 70       	andi	r26, 0x00	; 0
    2f5a:	b0 70       	andi	r27, 0x00	; 0
    2f5c:	56 95       	lsr	r21
    2f5e:	47 95       	ror	r20
    2f60:	37 95       	ror	r19
    2f62:	27 95       	ror	r18
    2f64:	82 2b       	or	r24, r18
    2f66:	93 2b       	or	r25, r19
    2f68:	a4 2b       	or	r26, r20
    2f6a:	b5 2b       	or	r27, r21
    2f6c:	84 83       	std	Z+4, r24	; 0x04
    2f6e:	95 83       	std	Z+5, r25	; 0x05
    2f70:	a6 83       	std	Z+6, r26	; 0x06
    2f72:	b7 83       	std	Z+7, r27	; 0x07
    2f74:	82 81       	ldd	r24, Z+2	; 0x02
    2f76:	93 81       	ldd	r25, Z+3	; 0x03
    2f78:	01 96       	adiw	r24, 0x01	; 1
    2f7a:	93 83       	std	Z+3, r25	; 0x03
    2f7c:	82 83       	std	Z+2, r24	; 0x02
    2f7e:	df 01       	movw	r26, r30
    2f80:	01 c0       	rjmp	.+2      	; 0x2f84 <_fpadd_parts+0x28c>
    2f82:	d2 01       	movw	r26, r4
    2f84:	cd 01       	movw	r24, r26
    2f86:	cd b7       	in	r28, 0x3d	; 61
    2f88:	de b7       	in	r29, 0x3e	; 62
    2f8a:	e2 e1       	ldi	r30, 0x12	; 18
    2f8c:	0c 94 5d 1c 	jmp	0x38ba	; 0x38ba <__epilogue_restores__>

00002f90 <__subsf3>:
    2f90:	a0 e2       	ldi	r26, 0x20	; 32
    2f92:	b0 e0       	ldi	r27, 0x00	; 0
    2f94:	ee ec       	ldi	r30, 0xCE	; 206
    2f96:	f7 e1       	ldi	r31, 0x17	; 23
    2f98:	0c 94 4d 1c 	jmp	0x389a	; 0x389a <__prologue_saves__+0x18>
    2f9c:	69 83       	std	Y+1, r22	; 0x01
    2f9e:	7a 83       	std	Y+2, r23	; 0x02
    2fa0:	8b 83       	std	Y+3, r24	; 0x03
    2fa2:	9c 83       	std	Y+4, r25	; 0x04
    2fa4:	2d 83       	std	Y+5, r18	; 0x05
    2fa6:	3e 83       	std	Y+6, r19	; 0x06
    2fa8:	4f 83       	std	Y+7, r20	; 0x07
    2faa:	58 87       	std	Y+8, r21	; 0x08
    2fac:	e9 e0       	ldi	r30, 0x09	; 9
    2fae:	ee 2e       	mov	r14, r30
    2fb0:	f1 2c       	mov	r15, r1
    2fb2:	ec 0e       	add	r14, r28
    2fb4:	fd 1e       	adc	r15, r29
    2fb6:	ce 01       	movw	r24, r28
    2fb8:	01 96       	adiw	r24, 0x01	; 1
    2fba:	b7 01       	movw	r22, r14
    2fbc:	0e 94 a2 1b 	call	0x3744	; 0x3744 <__unpack_f>
    2fc0:	8e 01       	movw	r16, r28
    2fc2:	0f 5e       	subi	r16, 0xEF	; 239
    2fc4:	1f 4f       	sbci	r17, 0xFF	; 255
    2fc6:	ce 01       	movw	r24, r28
    2fc8:	05 96       	adiw	r24, 0x05	; 5
    2fca:	b8 01       	movw	r22, r16
    2fcc:	0e 94 a2 1b 	call	0x3744	; 0x3744 <__unpack_f>
    2fd0:	8a 89       	ldd	r24, Y+18	; 0x12
    2fd2:	91 e0       	ldi	r25, 0x01	; 1
    2fd4:	89 27       	eor	r24, r25
    2fd6:	8a 8b       	std	Y+18, r24	; 0x12
    2fd8:	c7 01       	movw	r24, r14
    2fda:	b8 01       	movw	r22, r16
    2fdc:	ae 01       	movw	r20, r28
    2fde:	47 5e       	subi	r20, 0xE7	; 231
    2fe0:	5f 4f       	sbci	r21, 0xFF	; 255
    2fe2:	0e 94 7c 16 	call	0x2cf8	; 0x2cf8 <_fpadd_parts>
    2fe6:	0e 94 cd 1a 	call	0x359a	; 0x359a <__pack_f>
    2fea:	a0 96       	adiw	r28, 0x20	; 32
    2fec:	e6 e0       	ldi	r30, 0x06	; 6
    2fee:	0c 94 69 1c 	jmp	0x38d2	; 0x38d2 <__epilogue_restores__+0x18>

00002ff2 <__addsf3>:
    2ff2:	a0 e2       	ldi	r26, 0x20	; 32
    2ff4:	b0 e0       	ldi	r27, 0x00	; 0
    2ff6:	ef ef       	ldi	r30, 0xFF	; 255
    2ff8:	f7 e1       	ldi	r31, 0x17	; 23
    2ffa:	0c 94 4d 1c 	jmp	0x389a	; 0x389a <__prologue_saves__+0x18>
    2ffe:	69 83       	std	Y+1, r22	; 0x01
    3000:	7a 83       	std	Y+2, r23	; 0x02
    3002:	8b 83       	std	Y+3, r24	; 0x03
    3004:	9c 83       	std	Y+4, r25	; 0x04
    3006:	2d 83       	std	Y+5, r18	; 0x05
    3008:	3e 83       	std	Y+6, r19	; 0x06
    300a:	4f 83       	std	Y+7, r20	; 0x07
    300c:	58 87       	std	Y+8, r21	; 0x08
    300e:	f9 e0       	ldi	r31, 0x09	; 9
    3010:	ef 2e       	mov	r14, r31
    3012:	f1 2c       	mov	r15, r1
    3014:	ec 0e       	add	r14, r28
    3016:	fd 1e       	adc	r15, r29
    3018:	ce 01       	movw	r24, r28
    301a:	01 96       	adiw	r24, 0x01	; 1
    301c:	b7 01       	movw	r22, r14
    301e:	0e 94 a2 1b 	call	0x3744	; 0x3744 <__unpack_f>
    3022:	8e 01       	movw	r16, r28
    3024:	0f 5e       	subi	r16, 0xEF	; 239
    3026:	1f 4f       	sbci	r17, 0xFF	; 255
    3028:	ce 01       	movw	r24, r28
    302a:	05 96       	adiw	r24, 0x05	; 5
    302c:	b8 01       	movw	r22, r16
    302e:	0e 94 a2 1b 	call	0x3744	; 0x3744 <__unpack_f>
    3032:	c7 01       	movw	r24, r14
    3034:	b8 01       	movw	r22, r16
    3036:	ae 01       	movw	r20, r28
    3038:	47 5e       	subi	r20, 0xE7	; 231
    303a:	5f 4f       	sbci	r21, 0xFF	; 255
    303c:	0e 94 7c 16 	call	0x2cf8	; 0x2cf8 <_fpadd_parts>
    3040:	0e 94 cd 1a 	call	0x359a	; 0x359a <__pack_f>
    3044:	a0 96       	adiw	r28, 0x20	; 32
    3046:	e6 e0       	ldi	r30, 0x06	; 6
    3048:	0c 94 69 1c 	jmp	0x38d2	; 0x38d2 <__epilogue_restores__+0x18>

0000304c <__mulsf3>:
    304c:	a0 e2       	ldi	r26, 0x20	; 32
    304e:	b0 e0       	ldi	r27, 0x00	; 0
    3050:	ec e2       	ldi	r30, 0x2C	; 44
    3052:	f8 e1       	ldi	r31, 0x18	; 24
    3054:	0c 94 41 1c 	jmp	0x3882	; 0x3882 <__prologue_saves__>
    3058:	69 83       	std	Y+1, r22	; 0x01
    305a:	7a 83       	std	Y+2, r23	; 0x02
    305c:	8b 83       	std	Y+3, r24	; 0x03
    305e:	9c 83       	std	Y+4, r25	; 0x04
    3060:	2d 83       	std	Y+5, r18	; 0x05
    3062:	3e 83       	std	Y+6, r19	; 0x06
    3064:	4f 83       	std	Y+7, r20	; 0x07
    3066:	58 87       	std	Y+8, r21	; 0x08
    3068:	ce 01       	movw	r24, r28
    306a:	01 96       	adiw	r24, 0x01	; 1
    306c:	be 01       	movw	r22, r28
    306e:	67 5f       	subi	r22, 0xF7	; 247
    3070:	7f 4f       	sbci	r23, 0xFF	; 255
    3072:	0e 94 a2 1b 	call	0x3744	; 0x3744 <__unpack_f>
    3076:	ce 01       	movw	r24, r28
    3078:	05 96       	adiw	r24, 0x05	; 5
    307a:	be 01       	movw	r22, r28
    307c:	6f 5e       	subi	r22, 0xEF	; 239
    307e:	7f 4f       	sbci	r23, 0xFF	; 255
    3080:	0e 94 a2 1b 	call	0x3744	; 0x3744 <__unpack_f>
    3084:	99 85       	ldd	r25, Y+9	; 0x09
    3086:	92 30       	cpi	r25, 0x02	; 2
    3088:	88 f0       	brcs	.+34     	; 0x30ac <__mulsf3+0x60>
    308a:	89 89       	ldd	r24, Y+17	; 0x11
    308c:	82 30       	cpi	r24, 0x02	; 2
    308e:	c8 f0       	brcs	.+50     	; 0x30c2 <__mulsf3+0x76>
    3090:	94 30       	cpi	r25, 0x04	; 4
    3092:	19 f4       	brne	.+6      	; 0x309a <__mulsf3+0x4e>
    3094:	82 30       	cpi	r24, 0x02	; 2
    3096:	51 f4       	brne	.+20     	; 0x30ac <__mulsf3+0x60>
    3098:	04 c0       	rjmp	.+8      	; 0x30a2 <__mulsf3+0x56>
    309a:	84 30       	cpi	r24, 0x04	; 4
    309c:	29 f4       	brne	.+10     	; 0x30a8 <__mulsf3+0x5c>
    309e:	92 30       	cpi	r25, 0x02	; 2
    30a0:	81 f4       	brne	.+32     	; 0x30c2 <__mulsf3+0x76>
    30a2:	8c e9       	ldi	r24, 0x9C	; 156
    30a4:	91 e0       	ldi	r25, 0x01	; 1
    30a6:	c6 c0       	rjmp	.+396    	; 0x3234 <__mulsf3+0x1e8>
    30a8:	92 30       	cpi	r25, 0x02	; 2
    30aa:	49 f4       	brne	.+18     	; 0x30be <__mulsf3+0x72>
    30ac:	20 e0       	ldi	r18, 0x00	; 0
    30ae:	9a 85       	ldd	r25, Y+10	; 0x0a
    30b0:	8a 89       	ldd	r24, Y+18	; 0x12
    30b2:	98 13       	cpse	r25, r24
    30b4:	21 e0       	ldi	r18, 0x01	; 1
    30b6:	2a 87       	std	Y+10, r18	; 0x0a
    30b8:	ce 01       	movw	r24, r28
    30ba:	09 96       	adiw	r24, 0x09	; 9
    30bc:	bb c0       	rjmp	.+374    	; 0x3234 <__mulsf3+0x1e8>
    30be:	82 30       	cpi	r24, 0x02	; 2
    30c0:	49 f4       	brne	.+18     	; 0x30d4 <__mulsf3+0x88>
    30c2:	20 e0       	ldi	r18, 0x00	; 0
    30c4:	9a 85       	ldd	r25, Y+10	; 0x0a
    30c6:	8a 89       	ldd	r24, Y+18	; 0x12
    30c8:	98 13       	cpse	r25, r24
    30ca:	21 e0       	ldi	r18, 0x01	; 1
    30cc:	2a 8b       	std	Y+18, r18	; 0x12
    30ce:	ce 01       	movw	r24, r28
    30d0:	41 96       	adiw	r24, 0x11	; 17
    30d2:	b0 c0       	rjmp	.+352    	; 0x3234 <__mulsf3+0x1e8>
    30d4:	2d 84       	ldd	r2, Y+13	; 0x0d
    30d6:	3e 84       	ldd	r3, Y+14	; 0x0e
    30d8:	4f 84       	ldd	r4, Y+15	; 0x0f
    30da:	58 88       	ldd	r5, Y+16	; 0x10
    30dc:	6d 88       	ldd	r6, Y+21	; 0x15
    30de:	7e 88       	ldd	r7, Y+22	; 0x16
    30e0:	8f 88       	ldd	r8, Y+23	; 0x17
    30e2:	98 8c       	ldd	r9, Y+24	; 0x18
    30e4:	ee 24       	eor	r14, r14
    30e6:	ff 24       	eor	r15, r15
    30e8:	87 01       	movw	r16, r14
    30ea:	aa 24       	eor	r10, r10
    30ec:	bb 24       	eor	r11, r11
    30ee:	65 01       	movw	r12, r10
    30f0:	40 e0       	ldi	r20, 0x00	; 0
    30f2:	50 e0       	ldi	r21, 0x00	; 0
    30f4:	60 e0       	ldi	r22, 0x00	; 0
    30f6:	70 e0       	ldi	r23, 0x00	; 0
    30f8:	e0 e0       	ldi	r30, 0x00	; 0
    30fa:	f0 e0       	ldi	r31, 0x00	; 0
    30fc:	c1 01       	movw	r24, r2
    30fe:	81 70       	andi	r24, 0x01	; 1
    3100:	90 70       	andi	r25, 0x00	; 0
    3102:	89 2b       	or	r24, r25
    3104:	e9 f0       	breq	.+58     	; 0x3140 <__mulsf3+0xf4>
    3106:	e6 0c       	add	r14, r6
    3108:	f7 1c       	adc	r15, r7
    310a:	08 1d       	adc	r16, r8
    310c:	19 1d       	adc	r17, r9
    310e:	9a 01       	movw	r18, r20
    3110:	ab 01       	movw	r20, r22
    3112:	2a 0d       	add	r18, r10
    3114:	3b 1d       	adc	r19, r11
    3116:	4c 1d       	adc	r20, r12
    3118:	5d 1d       	adc	r21, r13
    311a:	80 e0       	ldi	r24, 0x00	; 0
    311c:	90 e0       	ldi	r25, 0x00	; 0
    311e:	a0 e0       	ldi	r26, 0x00	; 0
    3120:	b0 e0       	ldi	r27, 0x00	; 0
    3122:	e6 14       	cp	r14, r6
    3124:	f7 04       	cpc	r15, r7
    3126:	08 05       	cpc	r16, r8
    3128:	19 05       	cpc	r17, r9
    312a:	20 f4       	brcc	.+8      	; 0x3134 <__mulsf3+0xe8>
    312c:	81 e0       	ldi	r24, 0x01	; 1
    312e:	90 e0       	ldi	r25, 0x00	; 0
    3130:	a0 e0       	ldi	r26, 0x00	; 0
    3132:	b0 e0       	ldi	r27, 0x00	; 0
    3134:	ba 01       	movw	r22, r20
    3136:	a9 01       	movw	r20, r18
    3138:	48 0f       	add	r20, r24
    313a:	59 1f       	adc	r21, r25
    313c:	6a 1f       	adc	r22, r26
    313e:	7b 1f       	adc	r23, r27
    3140:	aa 0c       	add	r10, r10
    3142:	bb 1c       	adc	r11, r11
    3144:	cc 1c       	adc	r12, r12
    3146:	dd 1c       	adc	r13, r13
    3148:	97 fe       	sbrs	r9, 7
    314a:	08 c0       	rjmp	.+16     	; 0x315c <__mulsf3+0x110>
    314c:	81 e0       	ldi	r24, 0x01	; 1
    314e:	90 e0       	ldi	r25, 0x00	; 0
    3150:	a0 e0       	ldi	r26, 0x00	; 0
    3152:	b0 e0       	ldi	r27, 0x00	; 0
    3154:	a8 2a       	or	r10, r24
    3156:	b9 2a       	or	r11, r25
    3158:	ca 2a       	or	r12, r26
    315a:	db 2a       	or	r13, r27
    315c:	31 96       	adiw	r30, 0x01	; 1
    315e:	e0 32       	cpi	r30, 0x20	; 32
    3160:	f1 05       	cpc	r31, r1
    3162:	49 f0       	breq	.+18     	; 0x3176 <__mulsf3+0x12a>
    3164:	66 0c       	add	r6, r6
    3166:	77 1c       	adc	r7, r7
    3168:	88 1c       	adc	r8, r8
    316a:	99 1c       	adc	r9, r9
    316c:	56 94       	lsr	r5
    316e:	47 94       	ror	r4
    3170:	37 94       	ror	r3
    3172:	27 94       	ror	r2
    3174:	c3 cf       	rjmp	.-122    	; 0x30fc <__mulsf3+0xb0>
    3176:	fa 85       	ldd	r31, Y+10	; 0x0a
    3178:	ea 89       	ldd	r30, Y+18	; 0x12
    317a:	2b 89       	ldd	r18, Y+19	; 0x13
    317c:	3c 89       	ldd	r19, Y+20	; 0x14
    317e:	8b 85       	ldd	r24, Y+11	; 0x0b
    3180:	9c 85       	ldd	r25, Y+12	; 0x0c
    3182:	28 0f       	add	r18, r24
    3184:	39 1f       	adc	r19, r25
    3186:	2e 5f       	subi	r18, 0xFE	; 254
    3188:	3f 4f       	sbci	r19, 0xFF	; 255
    318a:	17 c0       	rjmp	.+46     	; 0x31ba <__mulsf3+0x16e>
    318c:	ca 01       	movw	r24, r20
    318e:	81 70       	andi	r24, 0x01	; 1
    3190:	90 70       	andi	r25, 0x00	; 0
    3192:	89 2b       	or	r24, r25
    3194:	61 f0       	breq	.+24     	; 0x31ae <__mulsf3+0x162>
    3196:	16 95       	lsr	r17
    3198:	07 95       	ror	r16
    319a:	f7 94       	ror	r15
    319c:	e7 94       	ror	r14
    319e:	80 e0       	ldi	r24, 0x00	; 0
    31a0:	90 e0       	ldi	r25, 0x00	; 0
    31a2:	a0 e0       	ldi	r26, 0x00	; 0
    31a4:	b0 e8       	ldi	r27, 0x80	; 128
    31a6:	e8 2a       	or	r14, r24
    31a8:	f9 2a       	or	r15, r25
    31aa:	0a 2b       	or	r16, r26
    31ac:	1b 2b       	or	r17, r27
    31ae:	76 95       	lsr	r23
    31b0:	67 95       	ror	r22
    31b2:	57 95       	ror	r21
    31b4:	47 95       	ror	r20
    31b6:	2f 5f       	subi	r18, 0xFF	; 255
    31b8:	3f 4f       	sbci	r19, 0xFF	; 255
    31ba:	77 fd       	sbrc	r23, 7
    31bc:	e7 cf       	rjmp	.-50     	; 0x318c <__mulsf3+0x140>
    31be:	0c c0       	rjmp	.+24     	; 0x31d8 <__mulsf3+0x18c>
    31c0:	44 0f       	add	r20, r20
    31c2:	55 1f       	adc	r21, r21
    31c4:	66 1f       	adc	r22, r22
    31c6:	77 1f       	adc	r23, r23
    31c8:	17 fd       	sbrc	r17, 7
    31ca:	41 60       	ori	r20, 0x01	; 1
    31cc:	ee 0c       	add	r14, r14
    31ce:	ff 1c       	adc	r15, r15
    31d0:	00 1f       	adc	r16, r16
    31d2:	11 1f       	adc	r17, r17
    31d4:	21 50       	subi	r18, 0x01	; 1
    31d6:	30 40       	sbci	r19, 0x00	; 0
    31d8:	40 30       	cpi	r20, 0x00	; 0
    31da:	90 e0       	ldi	r25, 0x00	; 0
    31dc:	59 07       	cpc	r21, r25
    31de:	90 e0       	ldi	r25, 0x00	; 0
    31e0:	69 07       	cpc	r22, r25
    31e2:	90 e4       	ldi	r25, 0x40	; 64
    31e4:	79 07       	cpc	r23, r25
    31e6:	60 f3       	brcs	.-40     	; 0x31c0 <__mulsf3+0x174>
    31e8:	2b 8f       	std	Y+27, r18	; 0x1b
    31ea:	3c 8f       	std	Y+28, r19	; 0x1c
    31ec:	db 01       	movw	r26, r22
    31ee:	ca 01       	movw	r24, r20
    31f0:	8f 77       	andi	r24, 0x7F	; 127
    31f2:	90 70       	andi	r25, 0x00	; 0
    31f4:	a0 70       	andi	r26, 0x00	; 0
    31f6:	b0 70       	andi	r27, 0x00	; 0
    31f8:	80 34       	cpi	r24, 0x40	; 64
    31fa:	91 05       	cpc	r25, r1
    31fc:	a1 05       	cpc	r26, r1
    31fe:	b1 05       	cpc	r27, r1
    3200:	61 f4       	brne	.+24     	; 0x321a <__mulsf3+0x1ce>
    3202:	47 fd       	sbrc	r20, 7
    3204:	0a c0       	rjmp	.+20     	; 0x321a <__mulsf3+0x1ce>
    3206:	e1 14       	cp	r14, r1
    3208:	f1 04       	cpc	r15, r1
    320a:	01 05       	cpc	r16, r1
    320c:	11 05       	cpc	r17, r1
    320e:	29 f0       	breq	.+10     	; 0x321a <__mulsf3+0x1ce>
    3210:	40 5c       	subi	r20, 0xC0	; 192
    3212:	5f 4f       	sbci	r21, 0xFF	; 255
    3214:	6f 4f       	sbci	r22, 0xFF	; 255
    3216:	7f 4f       	sbci	r23, 0xFF	; 255
    3218:	40 78       	andi	r20, 0x80	; 128
    321a:	1a 8e       	std	Y+26, r1	; 0x1a
    321c:	fe 17       	cp	r31, r30
    321e:	11 f0       	breq	.+4      	; 0x3224 <__mulsf3+0x1d8>
    3220:	81 e0       	ldi	r24, 0x01	; 1
    3222:	8a 8f       	std	Y+26, r24	; 0x1a
    3224:	4d 8f       	std	Y+29, r20	; 0x1d
    3226:	5e 8f       	std	Y+30, r21	; 0x1e
    3228:	6f 8f       	std	Y+31, r22	; 0x1f
    322a:	78 a3       	std	Y+32, r23	; 0x20
    322c:	83 e0       	ldi	r24, 0x03	; 3
    322e:	89 8f       	std	Y+25, r24	; 0x19
    3230:	ce 01       	movw	r24, r28
    3232:	49 96       	adiw	r24, 0x19	; 25
    3234:	0e 94 cd 1a 	call	0x359a	; 0x359a <__pack_f>
    3238:	a0 96       	adiw	r28, 0x20	; 32
    323a:	e2 e1       	ldi	r30, 0x12	; 18
    323c:	0c 94 5d 1c 	jmp	0x38ba	; 0x38ba <__epilogue_restores__>

00003240 <__divsf3>:
    3240:	a8 e1       	ldi	r26, 0x18	; 24
    3242:	b0 e0       	ldi	r27, 0x00	; 0
    3244:	e6 e2       	ldi	r30, 0x26	; 38
    3246:	f9 e1       	ldi	r31, 0x19	; 25
    3248:	0c 94 49 1c 	jmp	0x3892	; 0x3892 <__prologue_saves__+0x10>
    324c:	69 83       	std	Y+1, r22	; 0x01
    324e:	7a 83       	std	Y+2, r23	; 0x02
    3250:	8b 83       	std	Y+3, r24	; 0x03
    3252:	9c 83       	std	Y+4, r25	; 0x04
    3254:	2d 83       	std	Y+5, r18	; 0x05
    3256:	3e 83       	std	Y+6, r19	; 0x06
    3258:	4f 83       	std	Y+7, r20	; 0x07
    325a:	58 87       	std	Y+8, r21	; 0x08
    325c:	b9 e0       	ldi	r27, 0x09	; 9
    325e:	eb 2e       	mov	r14, r27
    3260:	f1 2c       	mov	r15, r1
    3262:	ec 0e       	add	r14, r28
    3264:	fd 1e       	adc	r15, r29
    3266:	ce 01       	movw	r24, r28
    3268:	01 96       	adiw	r24, 0x01	; 1
    326a:	b7 01       	movw	r22, r14
    326c:	0e 94 a2 1b 	call	0x3744	; 0x3744 <__unpack_f>
    3270:	8e 01       	movw	r16, r28
    3272:	0f 5e       	subi	r16, 0xEF	; 239
    3274:	1f 4f       	sbci	r17, 0xFF	; 255
    3276:	ce 01       	movw	r24, r28
    3278:	05 96       	adiw	r24, 0x05	; 5
    327a:	b8 01       	movw	r22, r16
    327c:	0e 94 a2 1b 	call	0x3744	; 0x3744 <__unpack_f>
    3280:	29 85       	ldd	r18, Y+9	; 0x09
    3282:	22 30       	cpi	r18, 0x02	; 2
    3284:	08 f4       	brcc	.+2      	; 0x3288 <__divsf3+0x48>
    3286:	7e c0       	rjmp	.+252    	; 0x3384 <__divsf3+0x144>
    3288:	39 89       	ldd	r19, Y+17	; 0x11
    328a:	32 30       	cpi	r19, 0x02	; 2
    328c:	10 f4       	brcc	.+4      	; 0x3292 <__divsf3+0x52>
    328e:	b8 01       	movw	r22, r16
    3290:	7c c0       	rjmp	.+248    	; 0x338a <__divsf3+0x14a>
    3292:	8a 85       	ldd	r24, Y+10	; 0x0a
    3294:	9a 89       	ldd	r25, Y+18	; 0x12
    3296:	89 27       	eor	r24, r25
    3298:	8a 87       	std	Y+10, r24	; 0x0a
    329a:	24 30       	cpi	r18, 0x04	; 4
    329c:	11 f0       	breq	.+4      	; 0x32a2 <__divsf3+0x62>
    329e:	22 30       	cpi	r18, 0x02	; 2
    32a0:	31 f4       	brne	.+12     	; 0x32ae <__divsf3+0x6e>
    32a2:	23 17       	cp	r18, r19
    32a4:	09 f0       	breq	.+2      	; 0x32a8 <__divsf3+0x68>
    32a6:	6e c0       	rjmp	.+220    	; 0x3384 <__divsf3+0x144>
    32a8:	6c e9       	ldi	r22, 0x9C	; 156
    32aa:	71 e0       	ldi	r23, 0x01	; 1
    32ac:	6e c0       	rjmp	.+220    	; 0x338a <__divsf3+0x14a>
    32ae:	34 30       	cpi	r19, 0x04	; 4
    32b0:	39 f4       	brne	.+14     	; 0x32c0 <__divsf3+0x80>
    32b2:	1d 86       	std	Y+13, r1	; 0x0d
    32b4:	1e 86       	std	Y+14, r1	; 0x0e
    32b6:	1f 86       	std	Y+15, r1	; 0x0f
    32b8:	18 8a       	std	Y+16, r1	; 0x10
    32ba:	1c 86       	std	Y+12, r1	; 0x0c
    32bc:	1b 86       	std	Y+11, r1	; 0x0b
    32be:	04 c0       	rjmp	.+8      	; 0x32c8 <__divsf3+0x88>
    32c0:	32 30       	cpi	r19, 0x02	; 2
    32c2:	21 f4       	brne	.+8      	; 0x32cc <__divsf3+0x8c>
    32c4:	84 e0       	ldi	r24, 0x04	; 4
    32c6:	89 87       	std	Y+9, r24	; 0x09
    32c8:	b7 01       	movw	r22, r14
    32ca:	5f c0       	rjmp	.+190    	; 0x338a <__divsf3+0x14a>
    32cc:	2b 85       	ldd	r18, Y+11	; 0x0b
    32ce:	3c 85       	ldd	r19, Y+12	; 0x0c
    32d0:	8b 89       	ldd	r24, Y+19	; 0x13
    32d2:	9c 89       	ldd	r25, Y+20	; 0x14
    32d4:	28 1b       	sub	r18, r24
    32d6:	39 0b       	sbc	r19, r25
    32d8:	3c 87       	std	Y+12, r19	; 0x0c
    32da:	2b 87       	std	Y+11, r18	; 0x0b
    32dc:	ed 84       	ldd	r14, Y+13	; 0x0d
    32de:	fe 84       	ldd	r15, Y+14	; 0x0e
    32e0:	0f 85       	ldd	r16, Y+15	; 0x0f
    32e2:	18 89       	ldd	r17, Y+16	; 0x10
    32e4:	ad 88       	ldd	r10, Y+21	; 0x15
    32e6:	be 88       	ldd	r11, Y+22	; 0x16
    32e8:	cf 88       	ldd	r12, Y+23	; 0x17
    32ea:	d8 8c       	ldd	r13, Y+24	; 0x18
    32ec:	ea 14       	cp	r14, r10
    32ee:	fb 04       	cpc	r15, r11
    32f0:	0c 05       	cpc	r16, r12
    32f2:	1d 05       	cpc	r17, r13
    32f4:	40 f4       	brcc	.+16     	; 0x3306 <__divsf3+0xc6>
    32f6:	ee 0c       	add	r14, r14
    32f8:	ff 1c       	adc	r15, r15
    32fa:	00 1f       	adc	r16, r16
    32fc:	11 1f       	adc	r17, r17
    32fe:	21 50       	subi	r18, 0x01	; 1
    3300:	30 40       	sbci	r19, 0x00	; 0
    3302:	3c 87       	std	Y+12, r19	; 0x0c
    3304:	2b 87       	std	Y+11, r18	; 0x0b
    3306:	20 e0       	ldi	r18, 0x00	; 0
    3308:	30 e0       	ldi	r19, 0x00	; 0
    330a:	40 e0       	ldi	r20, 0x00	; 0
    330c:	50 e0       	ldi	r21, 0x00	; 0
    330e:	80 e0       	ldi	r24, 0x00	; 0
    3310:	90 e0       	ldi	r25, 0x00	; 0
    3312:	a0 e0       	ldi	r26, 0x00	; 0
    3314:	b0 e4       	ldi	r27, 0x40	; 64
    3316:	60 e0       	ldi	r22, 0x00	; 0
    3318:	70 e0       	ldi	r23, 0x00	; 0
    331a:	ea 14       	cp	r14, r10
    331c:	fb 04       	cpc	r15, r11
    331e:	0c 05       	cpc	r16, r12
    3320:	1d 05       	cpc	r17, r13
    3322:	40 f0       	brcs	.+16     	; 0x3334 <__divsf3+0xf4>
    3324:	28 2b       	or	r18, r24
    3326:	39 2b       	or	r19, r25
    3328:	4a 2b       	or	r20, r26
    332a:	5b 2b       	or	r21, r27
    332c:	ea 18       	sub	r14, r10
    332e:	fb 08       	sbc	r15, r11
    3330:	0c 09       	sbc	r16, r12
    3332:	1d 09       	sbc	r17, r13
    3334:	b6 95       	lsr	r27
    3336:	a7 95       	ror	r26
    3338:	97 95       	ror	r25
    333a:	87 95       	ror	r24
    333c:	ee 0c       	add	r14, r14
    333e:	ff 1c       	adc	r15, r15
    3340:	00 1f       	adc	r16, r16
    3342:	11 1f       	adc	r17, r17
    3344:	6f 5f       	subi	r22, 0xFF	; 255
    3346:	7f 4f       	sbci	r23, 0xFF	; 255
    3348:	6f 31       	cpi	r22, 0x1F	; 31
    334a:	71 05       	cpc	r23, r1
    334c:	31 f7       	brne	.-52     	; 0x331a <__divsf3+0xda>
    334e:	da 01       	movw	r26, r20
    3350:	c9 01       	movw	r24, r18
    3352:	8f 77       	andi	r24, 0x7F	; 127
    3354:	90 70       	andi	r25, 0x00	; 0
    3356:	a0 70       	andi	r26, 0x00	; 0
    3358:	b0 70       	andi	r27, 0x00	; 0
    335a:	80 34       	cpi	r24, 0x40	; 64
    335c:	91 05       	cpc	r25, r1
    335e:	a1 05       	cpc	r26, r1
    3360:	b1 05       	cpc	r27, r1
    3362:	61 f4       	brne	.+24     	; 0x337c <__divsf3+0x13c>
    3364:	27 fd       	sbrc	r18, 7
    3366:	0a c0       	rjmp	.+20     	; 0x337c <__divsf3+0x13c>
    3368:	e1 14       	cp	r14, r1
    336a:	f1 04       	cpc	r15, r1
    336c:	01 05       	cpc	r16, r1
    336e:	11 05       	cpc	r17, r1
    3370:	29 f0       	breq	.+10     	; 0x337c <__divsf3+0x13c>
    3372:	20 5c       	subi	r18, 0xC0	; 192
    3374:	3f 4f       	sbci	r19, 0xFF	; 255
    3376:	4f 4f       	sbci	r20, 0xFF	; 255
    3378:	5f 4f       	sbci	r21, 0xFF	; 255
    337a:	20 78       	andi	r18, 0x80	; 128
    337c:	2d 87       	std	Y+13, r18	; 0x0d
    337e:	3e 87       	std	Y+14, r19	; 0x0e
    3380:	4f 87       	std	Y+15, r20	; 0x0f
    3382:	58 8b       	std	Y+16, r21	; 0x10
    3384:	be 01       	movw	r22, r28
    3386:	67 5f       	subi	r22, 0xF7	; 247
    3388:	7f 4f       	sbci	r23, 0xFF	; 255
    338a:	cb 01       	movw	r24, r22
    338c:	0e 94 cd 1a 	call	0x359a	; 0x359a <__pack_f>
    3390:	68 96       	adiw	r28, 0x18	; 24
    3392:	ea e0       	ldi	r30, 0x0A	; 10
    3394:	0c 94 65 1c 	jmp	0x38ca	; 0x38ca <__epilogue_restores__+0x10>

00003398 <__floatsisf>:
    3398:	a8 e0       	ldi	r26, 0x08	; 8
    339a:	b0 e0       	ldi	r27, 0x00	; 0
    339c:	e2 ed       	ldi	r30, 0xD2	; 210
    339e:	f9 e1       	ldi	r31, 0x19	; 25
    33a0:	0c 94 4a 1c 	jmp	0x3894	; 0x3894 <__prologue_saves__+0x12>
    33a4:	9b 01       	movw	r18, r22
    33a6:	ac 01       	movw	r20, r24
    33a8:	83 e0       	ldi	r24, 0x03	; 3
    33aa:	89 83       	std	Y+1, r24	; 0x01
    33ac:	da 01       	movw	r26, r20
    33ae:	c9 01       	movw	r24, r18
    33b0:	88 27       	eor	r24, r24
    33b2:	b7 fd       	sbrc	r27, 7
    33b4:	83 95       	inc	r24
    33b6:	99 27       	eor	r25, r25
    33b8:	aa 27       	eor	r26, r26
    33ba:	bb 27       	eor	r27, r27
    33bc:	b8 2e       	mov	r11, r24
    33be:	21 15       	cp	r18, r1
    33c0:	31 05       	cpc	r19, r1
    33c2:	41 05       	cpc	r20, r1
    33c4:	51 05       	cpc	r21, r1
    33c6:	19 f4       	brne	.+6      	; 0x33ce <__floatsisf+0x36>
    33c8:	82 e0       	ldi	r24, 0x02	; 2
    33ca:	89 83       	std	Y+1, r24	; 0x01
    33cc:	3a c0       	rjmp	.+116    	; 0x3442 <__floatsisf+0xaa>
    33ce:	88 23       	and	r24, r24
    33d0:	a9 f0       	breq	.+42     	; 0x33fc <__floatsisf+0x64>
    33d2:	20 30       	cpi	r18, 0x00	; 0
    33d4:	80 e0       	ldi	r24, 0x00	; 0
    33d6:	38 07       	cpc	r19, r24
    33d8:	80 e0       	ldi	r24, 0x00	; 0
    33da:	48 07       	cpc	r20, r24
    33dc:	80 e8       	ldi	r24, 0x80	; 128
    33de:	58 07       	cpc	r21, r24
    33e0:	29 f4       	brne	.+10     	; 0x33ec <__floatsisf+0x54>
    33e2:	60 e0       	ldi	r22, 0x00	; 0
    33e4:	70 e0       	ldi	r23, 0x00	; 0
    33e6:	80 e0       	ldi	r24, 0x00	; 0
    33e8:	9f ec       	ldi	r25, 0xCF	; 207
    33ea:	30 c0       	rjmp	.+96     	; 0x344c <__floatsisf+0xb4>
    33ec:	ee 24       	eor	r14, r14
    33ee:	ff 24       	eor	r15, r15
    33f0:	87 01       	movw	r16, r14
    33f2:	e2 1a       	sub	r14, r18
    33f4:	f3 0a       	sbc	r15, r19
    33f6:	04 0b       	sbc	r16, r20
    33f8:	15 0b       	sbc	r17, r21
    33fa:	02 c0       	rjmp	.+4      	; 0x3400 <__floatsisf+0x68>
    33fc:	79 01       	movw	r14, r18
    33fe:	8a 01       	movw	r16, r20
    3400:	8e e1       	ldi	r24, 0x1E	; 30
    3402:	c8 2e       	mov	r12, r24
    3404:	d1 2c       	mov	r13, r1
    3406:	dc 82       	std	Y+4, r13	; 0x04
    3408:	cb 82       	std	Y+3, r12	; 0x03
    340a:	ed 82       	std	Y+5, r14	; 0x05
    340c:	fe 82       	std	Y+6, r15	; 0x06
    340e:	0f 83       	std	Y+7, r16	; 0x07
    3410:	18 87       	std	Y+8, r17	; 0x08
    3412:	c8 01       	movw	r24, r16
    3414:	b7 01       	movw	r22, r14
    3416:	0e 94 7e 1a 	call	0x34fc	; 0x34fc <__clzsi2>
    341a:	01 97       	sbiw	r24, 0x01	; 1
    341c:	18 16       	cp	r1, r24
    341e:	19 06       	cpc	r1, r25
    3420:	84 f4       	brge	.+32     	; 0x3442 <__floatsisf+0xaa>
    3422:	08 2e       	mov	r0, r24
    3424:	04 c0       	rjmp	.+8      	; 0x342e <__floatsisf+0x96>
    3426:	ee 0c       	add	r14, r14
    3428:	ff 1c       	adc	r15, r15
    342a:	00 1f       	adc	r16, r16
    342c:	11 1f       	adc	r17, r17
    342e:	0a 94       	dec	r0
    3430:	d2 f7       	brpl	.-12     	; 0x3426 <__floatsisf+0x8e>
    3432:	ed 82       	std	Y+5, r14	; 0x05
    3434:	fe 82       	std	Y+6, r15	; 0x06
    3436:	0f 83       	std	Y+7, r16	; 0x07
    3438:	18 87       	std	Y+8, r17	; 0x08
    343a:	c8 1a       	sub	r12, r24
    343c:	d9 0a       	sbc	r13, r25
    343e:	dc 82       	std	Y+4, r13	; 0x04
    3440:	cb 82       	std	Y+3, r12	; 0x03
    3442:	ba 82       	std	Y+2, r11	; 0x02
    3444:	ce 01       	movw	r24, r28
    3446:	01 96       	adiw	r24, 0x01	; 1
    3448:	0e 94 cd 1a 	call	0x359a	; 0x359a <__pack_f>
    344c:	28 96       	adiw	r28, 0x08	; 8
    344e:	e9 e0       	ldi	r30, 0x09	; 9
    3450:	0c 94 66 1c 	jmp	0x38cc	; 0x38cc <__epilogue_restores__+0x12>

00003454 <__fixsfsi>:
    3454:	ac e0       	ldi	r26, 0x0C	; 12
    3456:	b0 e0       	ldi	r27, 0x00	; 0
    3458:	e0 e3       	ldi	r30, 0x30	; 48
    345a:	fa e1       	ldi	r31, 0x1A	; 26
    345c:	0c 94 51 1c 	jmp	0x38a2	; 0x38a2 <__prologue_saves__+0x20>
    3460:	69 83       	std	Y+1, r22	; 0x01
    3462:	7a 83       	std	Y+2, r23	; 0x02
    3464:	8b 83       	std	Y+3, r24	; 0x03
    3466:	9c 83       	std	Y+4, r25	; 0x04
    3468:	ce 01       	movw	r24, r28
    346a:	01 96       	adiw	r24, 0x01	; 1
    346c:	be 01       	movw	r22, r28
    346e:	6b 5f       	subi	r22, 0xFB	; 251
    3470:	7f 4f       	sbci	r23, 0xFF	; 255
    3472:	0e 94 a2 1b 	call	0x3744	; 0x3744 <__unpack_f>
    3476:	8d 81       	ldd	r24, Y+5	; 0x05
    3478:	82 30       	cpi	r24, 0x02	; 2
    347a:	61 f1       	breq	.+88     	; 0x34d4 <__fixsfsi+0x80>
    347c:	82 30       	cpi	r24, 0x02	; 2
    347e:	50 f1       	brcs	.+84     	; 0x34d4 <__fixsfsi+0x80>
    3480:	84 30       	cpi	r24, 0x04	; 4
    3482:	21 f4       	brne	.+8      	; 0x348c <__fixsfsi+0x38>
    3484:	8e 81       	ldd	r24, Y+6	; 0x06
    3486:	88 23       	and	r24, r24
    3488:	51 f1       	breq	.+84     	; 0x34de <__fixsfsi+0x8a>
    348a:	2e c0       	rjmp	.+92     	; 0x34e8 <__fixsfsi+0x94>
    348c:	2f 81       	ldd	r18, Y+7	; 0x07
    348e:	38 85       	ldd	r19, Y+8	; 0x08
    3490:	37 fd       	sbrc	r19, 7
    3492:	20 c0       	rjmp	.+64     	; 0x34d4 <__fixsfsi+0x80>
    3494:	6e 81       	ldd	r22, Y+6	; 0x06
    3496:	2f 31       	cpi	r18, 0x1F	; 31
    3498:	31 05       	cpc	r19, r1
    349a:	1c f0       	brlt	.+6      	; 0x34a2 <__fixsfsi+0x4e>
    349c:	66 23       	and	r22, r22
    349e:	f9 f0       	breq	.+62     	; 0x34de <__fixsfsi+0x8a>
    34a0:	23 c0       	rjmp	.+70     	; 0x34e8 <__fixsfsi+0x94>
    34a2:	8e e1       	ldi	r24, 0x1E	; 30
    34a4:	90 e0       	ldi	r25, 0x00	; 0
    34a6:	82 1b       	sub	r24, r18
    34a8:	93 0b       	sbc	r25, r19
    34aa:	29 85       	ldd	r18, Y+9	; 0x09
    34ac:	3a 85       	ldd	r19, Y+10	; 0x0a
    34ae:	4b 85       	ldd	r20, Y+11	; 0x0b
    34b0:	5c 85       	ldd	r21, Y+12	; 0x0c
    34b2:	04 c0       	rjmp	.+8      	; 0x34bc <__fixsfsi+0x68>
    34b4:	56 95       	lsr	r21
    34b6:	47 95       	ror	r20
    34b8:	37 95       	ror	r19
    34ba:	27 95       	ror	r18
    34bc:	8a 95       	dec	r24
    34be:	d2 f7       	brpl	.-12     	; 0x34b4 <__fixsfsi+0x60>
    34c0:	66 23       	and	r22, r22
    34c2:	b1 f0       	breq	.+44     	; 0x34f0 <__fixsfsi+0x9c>
    34c4:	50 95       	com	r21
    34c6:	40 95       	com	r20
    34c8:	30 95       	com	r19
    34ca:	21 95       	neg	r18
    34cc:	3f 4f       	sbci	r19, 0xFF	; 255
    34ce:	4f 4f       	sbci	r20, 0xFF	; 255
    34d0:	5f 4f       	sbci	r21, 0xFF	; 255
    34d2:	0e c0       	rjmp	.+28     	; 0x34f0 <__fixsfsi+0x9c>
    34d4:	20 e0       	ldi	r18, 0x00	; 0
    34d6:	30 e0       	ldi	r19, 0x00	; 0
    34d8:	40 e0       	ldi	r20, 0x00	; 0
    34da:	50 e0       	ldi	r21, 0x00	; 0
    34dc:	09 c0       	rjmp	.+18     	; 0x34f0 <__fixsfsi+0x9c>
    34de:	2f ef       	ldi	r18, 0xFF	; 255
    34e0:	3f ef       	ldi	r19, 0xFF	; 255
    34e2:	4f ef       	ldi	r20, 0xFF	; 255
    34e4:	5f e7       	ldi	r21, 0x7F	; 127
    34e6:	04 c0       	rjmp	.+8      	; 0x34f0 <__fixsfsi+0x9c>
    34e8:	20 e0       	ldi	r18, 0x00	; 0
    34ea:	30 e0       	ldi	r19, 0x00	; 0
    34ec:	40 e0       	ldi	r20, 0x00	; 0
    34ee:	50 e8       	ldi	r21, 0x80	; 128
    34f0:	b9 01       	movw	r22, r18
    34f2:	ca 01       	movw	r24, r20
    34f4:	2c 96       	adiw	r28, 0x0c	; 12
    34f6:	e2 e0       	ldi	r30, 0x02	; 2
    34f8:	0c 94 6d 1c 	jmp	0x38da	; 0x38da <__epilogue_restores__+0x20>

000034fc <__clzsi2>:
    34fc:	ef 92       	push	r14
    34fe:	ff 92       	push	r15
    3500:	0f 93       	push	r16
    3502:	1f 93       	push	r17
    3504:	7b 01       	movw	r14, r22
    3506:	8c 01       	movw	r16, r24
    3508:	80 e0       	ldi	r24, 0x00	; 0
    350a:	e8 16       	cp	r14, r24
    350c:	80 e0       	ldi	r24, 0x00	; 0
    350e:	f8 06       	cpc	r15, r24
    3510:	81 e0       	ldi	r24, 0x01	; 1
    3512:	08 07       	cpc	r16, r24
    3514:	80 e0       	ldi	r24, 0x00	; 0
    3516:	18 07       	cpc	r17, r24
    3518:	88 f4       	brcc	.+34     	; 0x353c <__clzsi2+0x40>
    351a:	8f ef       	ldi	r24, 0xFF	; 255
    351c:	e8 16       	cp	r14, r24
    351e:	f1 04       	cpc	r15, r1
    3520:	01 05       	cpc	r16, r1
    3522:	11 05       	cpc	r17, r1
    3524:	31 f0       	breq	.+12     	; 0x3532 <__clzsi2+0x36>
    3526:	28 f0       	brcs	.+10     	; 0x3532 <__clzsi2+0x36>
    3528:	88 e0       	ldi	r24, 0x08	; 8
    352a:	90 e0       	ldi	r25, 0x00	; 0
    352c:	a0 e0       	ldi	r26, 0x00	; 0
    352e:	b0 e0       	ldi	r27, 0x00	; 0
    3530:	17 c0       	rjmp	.+46     	; 0x3560 <__clzsi2+0x64>
    3532:	80 e0       	ldi	r24, 0x00	; 0
    3534:	90 e0       	ldi	r25, 0x00	; 0
    3536:	a0 e0       	ldi	r26, 0x00	; 0
    3538:	b0 e0       	ldi	r27, 0x00	; 0
    353a:	12 c0       	rjmp	.+36     	; 0x3560 <__clzsi2+0x64>
    353c:	80 e0       	ldi	r24, 0x00	; 0
    353e:	e8 16       	cp	r14, r24
    3540:	80 e0       	ldi	r24, 0x00	; 0
    3542:	f8 06       	cpc	r15, r24
    3544:	80 e0       	ldi	r24, 0x00	; 0
    3546:	08 07       	cpc	r16, r24
    3548:	81 e0       	ldi	r24, 0x01	; 1
    354a:	18 07       	cpc	r17, r24
    354c:	28 f0       	brcs	.+10     	; 0x3558 <__clzsi2+0x5c>
    354e:	88 e1       	ldi	r24, 0x18	; 24
    3550:	90 e0       	ldi	r25, 0x00	; 0
    3552:	a0 e0       	ldi	r26, 0x00	; 0
    3554:	b0 e0       	ldi	r27, 0x00	; 0
    3556:	04 c0       	rjmp	.+8      	; 0x3560 <__clzsi2+0x64>
    3558:	80 e1       	ldi	r24, 0x10	; 16
    355a:	90 e0       	ldi	r25, 0x00	; 0
    355c:	a0 e0       	ldi	r26, 0x00	; 0
    355e:	b0 e0       	ldi	r27, 0x00	; 0
    3560:	20 e2       	ldi	r18, 0x20	; 32
    3562:	30 e0       	ldi	r19, 0x00	; 0
    3564:	40 e0       	ldi	r20, 0x00	; 0
    3566:	50 e0       	ldi	r21, 0x00	; 0
    3568:	28 1b       	sub	r18, r24
    356a:	39 0b       	sbc	r19, r25
    356c:	4a 0b       	sbc	r20, r26
    356e:	5b 0b       	sbc	r21, r27
    3570:	04 c0       	rjmp	.+8      	; 0x357a <__clzsi2+0x7e>
    3572:	16 95       	lsr	r17
    3574:	07 95       	ror	r16
    3576:	f7 94       	ror	r15
    3578:	e7 94       	ror	r14
    357a:	8a 95       	dec	r24
    357c:	d2 f7       	brpl	.-12     	; 0x3572 <__clzsi2+0x76>
    357e:	f7 01       	movw	r30, r14
    3580:	ec 55       	subi	r30, 0x5C	; 92
    3582:	fe 4f       	sbci	r31, 0xFE	; 254
    3584:	80 81       	ld	r24, Z
    3586:	28 1b       	sub	r18, r24
    3588:	31 09       	sbc	r19, r1
    358a:	41 09       	sbc	r20, r1
    358c:	51 09       	sbc	r21, r1
    358e:	c9 01       	movw	r24, r18
    3590:	1f 91       	pop	r17
    3592:	0f 91       	pop	r16
    3594:	ff 90       	pop	r15
    3596:	ef 90       	pop	r14
    3598:	08 95       	ret

0000359a <__pack_f>:
    359a:	df 92       	push	r13
    359c:	ef 92       	push	r14
    359e:	ff 92       	push	r15
    35a0:	0f 93       	push	r16
    35a2:	1f 93       	push	r17
    35a4:	fc 01       	movw	r30, r24
    35a6:	e4 80       	ldd	r14, Z+4	; 0x04
    35a8:	f5 80       	ldd	r15, Z+5	; 0x05
    35aa:	06 81       	ldd	r16, Z+6	; 0x06
    35ac:	17 81       	ldd	r17, Z+7	; 0x07
    35ae:	d1 80       	ldd	r13, Z+1	; 0x01
    35b0:	80 81       	ld	r24, Z
    35b2:	82 30       	cpi	r24, 0x02	; 2
    35b4:	48 f4       	brcc	.+18     	; 0x35c8 <__pack_f+0x2e>
    35b6:	80 e0       	ldi	r24, 0x00	; 0
    35b8:	90 e0       	ldi	r25, 0x00	; 0
    35ba:	a0 e1       	ldi	r26, 0x10	; 16
    35bc:	b0 e0       	ldi	r27, 0x00	; 0
    35be:	e8 2a       	or	r14, r24
    35c0:	f9 2a       	or	r15, r25
    35c2:	0a 2b       	or	r16, r26
    35c4:	1b 2b       	or	r17, r27
    35c6:	a5 c0       	rjmp	.+330    	; 0x3712 <__pack_f+0x178>
    35c8:	84 30       	cpi	r24, 0x04	; 4
    35ca:	09 f4       	brne	.+2      	; 0x35ce <__pack_f+0x34>
    35cc:	9f c0       	rjmp	.+318    	; 0x370c <__pack_f+0x172>
    35ce:	82 30       	cpi	r24, 0x02	; 2
    35d0:	21 f4       	brne	.+8      	; 0x35da <__pack_f+0x40>
    35d2:	ee 24       	eor	r14, r14
    35d4:	ff 24       	eor	r15, r15
    35d6:	87 01       	movw	r16, r14
    35d8:	05 c0       	rjmp	.+10     	; 0x35e4 <__pack_f+0x4a>
    35da:	e1 14       	cp	r14, r1
    35dc:	f1 04       	cpc	r15, r1
    35de:	01 05       	cpc	r16, r1
    35e0:	11 05       	cpc	r17, r1
    35e2:	19 f4       	brne	.+6      	; 0x35ea <__pack_f+0x50>
    35e4:	e0 e0       	ldi	r30, 0x00	; 0
    35e6:	f0 e0       	ldi	r31, 0x00	; 0
    35e8:	96 c0       	rjmp	.+300    	; 0x3716 <__pack_f+0x17c>
    35ea:	62 81       	ldd	r22, Z+2	; 0x02
    35ec:	73 81       	ldd	r23, Z+3	; 0x03
    35ee:	9f ef       	ldi	r25, 0xFF	; 255
    35f0:	62 38       	cpi	r22, 0x82	; 130
    35f2:	79 07       	cpc	r23, r25
    35f4:	0c f0       	brlt	.+2      	; 0x35f8 <__pack_f+0x5e>
    35f6:	5b c0       	rjmp	.+182    	; 0x36ae <__pack_f+0x114>
    35f8:	22 e8       	ldi	r18, 0x82	; 130
    35fa:	3f ef       	ldi	r19, 0xFF	; 255
    35fc:	26 1b       	sub	r18, r22
    35fe:	37 0b       	sbc	r19, r23
    3600:	2a 31       	cpi	r18, 0x1A	; 26
    3602:	31 05       	cpc	r19, r1
    3604:	2c f0       	brlt	.+10     	; 0x3610 <__pack_f+0x76>
    3606:	20 e0       	ldi	r18, 0x00	; 0
    3608:	30 e0       	ldi	r19, 0x00	; 0
    360a:	40 e0       	ldi	r20, 0x00	; 0
    360c:	50 e0       	ldi	r21, 0x00	; 0
    360e:	2a c0       	rjmp	.+84     	; 0x3664 <__pack_f+0xca>
    3610:	b8 01       	movw	r22, r16
    3612:	a7 01       	movw	r20, r14
    3614:	02 2e       	mov	r0, r18
    3616:	04 c0       	rjmp	.+8      	; 0x3620 <__pack_f+0x86>
    3618:	76 95       	lsr	r23
    361a:	67 95       	ror	r22
    361c:	57 95       	ror	r21
    361e:	47 95       	ror	r20
    3620:	0a 94       	dec	r0
    3622:	d2 f7       	brpl	.-12     	; 0x3618 <__pack_f+0x7e>
    3624:	81 e0       	ldi	r24, 0x01	; 1
    3626:	90 e0       	ldi	r25, 0x00	; 0
    3628:	a0 e0       	ldi	r26, 0x00	; 0
    362a:	b0 e0       	ldi	r27, 0x00	; 0
    362c:	04 c0       	rjmp	.+8      	; 0x3636 <__pack_f+0x9c>
    362e:	88 0f       	add	r24, r24
    3630:	99 1f       	adc	r25, r25
    3632:	aa 1f       	adc	r26, r26
    3634:	bb 1f       	adc	r27, r27
    3636:	2a 95       	dec	r18
    3638:	d2 f7       	brpl	.-12     	; 0x362e <__pack_f+0x94>
    363a:	01 97       	sbiw	r24, 0x01	; 1
    363c:	a1 09       	sbc	r26, r1
    363e:	b1 09       	sbc	r27, r1
    3640:	8e 21       	and	r24, r14
    3642:	9f 21       	and	r25, r15
    3644:	a0 23       	and	r26, r16
    3646:	b1 23       	and	r27, r17
    3648:	00 97       	sbiw	r24, 0x00	; 0
    364a:	a1 05       	cpc	r26, r1
    364c:	b1 05       	cpc	r27, r1
    364e:	21 f0       	breq	.+8      	; 0x3658 <__pack_f+0xbe>
    3650:	81 e0       	ldi	r24, 0x01	; 1
    3652:	90 e0       	ldi	r25, 0x00	; 0
    3654:	a0 e0       	ldi	r26, 0x00	; 0
    3656:	b0 e0       	ldi	r27, 0x00	; 0
    3658:	9a 01       	movw	r18, r20
    365a:	ab 01       	movw	r20, r22
    365c:	28 2b       	or	r18, r24
    365e:	39 2b       	or	r19, r25
    3660:	4a 2b       	or	r20, r26
    3662:	5b 2b       	or	r21, r27
    3664:	da 01       	movw	r26, r20
    3666:	c9 01       	movw	r24, r18
    3668:	8f 77       	andi	r24, 0x7F	; 127
    366a:	90 70       	andi	r25, 0x00	; 0
    366c:	a0 70       	andi	r26, 0x00	; 0
    366e:	b0 70       	andi	r27, 0x00	; 0
    3670:	80 34       	cpi	r24, 0x40	; 64
    3672:	91 05       	cpc	r25, r1
    3674:	a1 05       	cpc	r26, r1
    3676:	b1 05       	cpc	r27, r1
    3678:	39 f4       	brne	.+14     	; 0x3688 <__pack_f+0xee>
    367a:	27 ff       	sbrs	r18, 7
    367c:	09 c0       	rjmp	.+18     	; 0x3690 <__pack_f+0xf6>
    367e:	20 5c       	subi	r18, 0xC0	; 192
    3680:	3f 4f       	sbci	r19, 0xFF	; 255
    3682:	4f 4f       	sbci	r20, 0xFF	; 255
    3684:	5f 4f       	sbci	r21, 0xFF	; 255
    3686:	04 c0       	rjmp	.+8      	; 0x3690 <__pack_f+0xf6>
    3688:	21 5c       	subi	r18, 0xC1	; 193
    368a:	3f 4f       	sbci	r19, 0xFF	; 255
    368c:	4f 4f       	sbci	r20, 0xFF	; 255
    368e:	5f 4f       	sbci	r21, 0xFF	; 255
    3690:	e0 e0       	ldi	r30, 0x00	; 0
    3692:	f0 e0       	ldi	r31, 0x00	; 0
    3694:	20 30       	cpi	r18, 0x00	; 0
    3696:	a0 e0       	ldi	r26, 0x00	; 0
    3698:	3a 07       	cpc	r19, r26
    369a:	a0 e0       	ldi	r26, 0x00	; 0
    369c:	4a 07       	cpc	r20, r26
    369e:	a0 e4       	ldi	r26, 0x40	; 64
    36a0:	5a 07       	cpc	r21, r26
    36a2:	10 f0       	brcs	.+4      	; 0x36a8 <__pack_f+0x10e>
    36a4:	e1 e0       	ldi	r30, 0x01	; 1
    36a6:	f0 e0       	ldi	r31, 0x00	; 0
    36a8:	79 01       	movw	r14, r18
    36aa:	8a 01       	movw	r16, r20
    36ac:	27 c0       	rjmp	.+78     	; 0x36fc <__pack_f+0x162>
    36ae:	60 38       	cpi	r22, 0x80	; 128
    36b0:	71 05       	cpc	r23, r1
    36b2:	64 f5       	brge	.+88     	; 0x370c <__pack_f+0x172>
    36b4:	fb 01       	movw	r30, r22
    36b6:	e1 58       	subi	r30, 0x81	; 129
    36b8:	ff 4f       	sbci	r31, 0xFF	; 255
    36ba:	d8 01       	movw	r26, r16
    36bc:	c7 01       	movw	r24, r14
    36be:	8f 77       	andi	r24, 0x7F	; 127
    36c0:	90 70       	andi	r25, 0x00	; 0
    36c2:	a0 70       	andi	r26, 0x00	; 0
    36c4:	b0 70       	andi	r27, 0x00	; 0
    36c6:	80 34       	cpi	r24, 0x40	; 64
    36c8:	91 05       	cpc	r25, r1
    36ca:	a1 05       	cpc	r26, r1
    36cc:	b1 05       	cpc	r27, r1
    36ce:	39 f4       	brne	.+14     	; 0x36de <__pack_f+0x144>
    36d0:	e7 fe       	sbrs	r14, 7
    36d2:	0d c0       	rjmp	.+26     	; 0x36ee <__pack_f+0x154>
    36d4:	80 e4       	ldi	r24, 0x40	; 64
    36d6:	90 e0       	ldi	r25, 0x00	; 0
    36d8:	a0 e0       	ldi	r26, 0x00	; 0
    36da:	b0 e0       	ldi	r27, 0x00	; 0
    36dc:	04 c0       	rjmp	.+8      	; 0x36e6 <__pack_f+0x14c>
    36de:	8f e3       	ldi	r24, 0x3F	; 63
    36e0:	90 e0       	ldi	r25, 0x00	; 0
    36e2:	a0 e0       	ldi	r26, 0x00	; 0
    36e4:	b0 e0       	ldi	r27, 0x00	; 0
    36e6:	e8 0e       	add	r14, r24
    36e8:	f9 1e       	adc	r15, r25
    36ea:	0a 1f       	adc	r16, r26
    36ec:	1b 1f       	adc	r17, r27
    36ee:	17 ff       	sbrs	r17, 7
    36f0:	05 c0       	rjmp	.+10     	; 0x36fc <__pack_f+0x162>
    36f2:	16 95       	lsr	r17
    36f4:	07 95       	ror	r16
    36f6:	f7 94       	ror	r15
    36f8:	e7 94       	ror	r14
    36fa:	31 96       	adiw	r30, 0x01	; 1
    36fc:	87 e0       	ldi	r24, 0x07	; 7
    36fe:	16 95       	lsr	r17
    3700:	07 95       	ror	r16
    3702:	f7 94       	ror	r15
    3704:	e7 94       	ror	r14
    3706:	8a 95       	dec	r24
    3708:	d1 f7       	brne	.-12     	; 0x36fe <__pack_f+0x164>
    370a:	05 c0       	rjmp	.+10     	; 0x3716 <__pack_f+0x17c>
    370c:	ee 24       	eor	r14, r14
    370e:	ff 24       	eor	r15, r15
    3710:	87 01       	movw	r16, r14
    3712:	ef ef       	ldi	r30, 0xFF	; 255
    3714:	f0 e0       	ldi	r31, 0x00	; 0
    3716:	6e 2f       	mov	r22, r30
    3718:	67 95       	ror	r22
    371a:	66 27       	eor	r22, r22
    371c:	67 95       	ror	r22
    371e:	90 2f       	mov	r25, r16
    3720:	9f 77       	andi	r25, 0x7F	; 127
    3722:	d7 94       	ror	r13
    3724:	dd 24       	eor	r13, r13
    3726:	d7 94       	ror	r13
    3728:	8e 2f       	mov	r24, r30
    372a:	86 95       	lsr	r24
    372c:	49 2f       	mov	r20, r25
    372e:	46 2b       	or	r20, r22
    3730:	58 2f       	mov	r21, r24
    3732:	5d 29       	or	r21, r13
    3734:	b7 01       	movw	r22, r14
    3736:	ca 01       	movw	r24, r20
    3738:	1f 91       	pop	r17
    373a:	0f 91       	pop	r16
    373c:	ff 90       	pop	r15
    373e:	ef 90       	pop	r14
    3740:	df 90       	pop	r13
    3742:	08 95       	ret

00003744 <__unpack_f>:
    3744:	fc 01       	movw	r30, r24
    3746:	db 01       	movw	r26, r22
    3748:	40 81       	ld	r20, Z
    374a:	51 81       	ldd	r21, Z+1	; 0x01
    374c:	22 81       	ldd	r18, Z+2	; 0x02
    374e:	62 2f       	mov	r22, r18
    3750:	6f 77       	andi	r22, 0x7F	; 127
    3752:	70 e0       	ldi	r23, 0x00	; 0
    3754:	22 1f       	adc	r18, r18
    3756:	22 27       	eor	r18, r18
    3758:	22 1f       	adc	r18, r18
    375a:	93 81       	ldd	r25, Z+3	; 0x03
    375c:	89 2f       	mov	r24, r25
    375e:	88 0f       	add	r24, r24
    3760:	82 2b       	or	r24, r18
    3762:	28 2f       	mov	r18, r24
    3764:	30 e0       	ldi	r19, 0x00	; 0
    3766:	99 1f       	adc	r25, r25
    3768:	99 27       	eor	r25, r25
    376a:	99 1f       	adc	r25, r25
    376c:	11 96       	adiw	r26, 0x01	; 1
    376e:	9c 93       	st	X, r25
    3770:	11 97       	sbiw	r26, 0x01	; 1
    3772:	21 15       	cp	r18, r1
    3774:	31 05       	cpc	r19, r1
    3776:	a9 f5       	brne	.+106    	; 0x37e2 <__unpack_f+0x9e>
    3778:	41 15       	cp	r20, r1
    377a:	51 05       	cpc	r21, r1
    377c:	61 05       	cpc	r22, r1
    377e:	71 05       	cpc	r23, r1
    3780:	11 f4       	brne	.+4      	; 0x3786 <__unpack_f+0x42>
    3782:	82 e0       	ldi	r24, 0x02	; 2
    3784:	37 c0       	rjmp	.+110    	; 0x37f4 <__unpack_f+0xb0>
    3786:	82 e8       	ldi	r24, 0x82	; 130
    3788:	9f ef       	ldi	r25, 0xFF	; 255
    378a:	13 96       	adiw	r26, 0x03	; 3
    378c:	9c 93       	st	X, r25
    378e:	8e 93       	st	-X, r24
    3790:	12 97       	sbiw	r26, 0x02	; 2
    3792:	9a 01       	movw	r18, r20
    3794:	ab 01       	movw	r20, r22
    3796:	67 e0       	ldi	r22, 0x07	; 7
    3798:	22 0f       	add	r18, r18
    379a:	33 1f       	adc	r19, r19
    379c:	44 1f       	adc	r20, r20
    379e:	55 1f       	adc	r21, r21
    37a0:	6a 95       	dec	r22
    37a2:	d1 f7       	brne	.-12     	; 0x3798 <__unpack_f+0x54>
    37a4:	83 e0       	ldi	r24, 0x03	; 3
    37a6:	8c 93       	st	X, r24
    37a8:	0d c0       	rjmp	.+26     	; 0x37c4 <__unpack_f+0x80>
    37aa:	22 0f       	add	r18, r18
    37ac:	33 1f       	adc	r19, r19
    37ae:	44 1f       	adc	r20, r20
    37b0:	55 1f       	adc	r21, r21
    37b2:	12 96       	adiw	r26, 0x02	; 2
    37b4:	8d 91       	ld	r24, X+
    37b6:	9c 91       	ld	r25, X
    37b8:	13 97       	sbiw	r26, 0x03	; 3
    37ba:	01 97       	sbiw	r24, 0x01	; 1
    37bc:	13 96       	adiw	r26, 0x03	; 3
    37be:	9c 93       	st	X, r25
    37c0:	8e 93       	st	-X, r24
    37c2:	12 97       	sbiw	r26, 0x02	; 2
    37c4:	20 30       	cpi	r18, 0x00	; 0
    37c6:	80 e0       	ldi	r24, 0x00	; 0
    37c8:	38 07       	cpc	r19, r24
    37ca:	80 e0       	ldi	r24, 0x00	; 0
    37cc:	48 07       	cpc	r20, r24
    37ce:	80 e4       	ldi	r24, 0x40	; 64
    37d0:	58 07       	cpc	r21, r24
    37d2:	58 f3       	brcs	.-42     	; 0x37aa <__unpack_f+0x66>
    37d4:	14 96       	adiw	r26, 0x04	; 4
    37d6:	2d 93       	st	X+, r18
    37d8:	3d 93       	st	X+, r19
    37da:	4d 93       	st	X+, r20
    37dc:	5c 93       	st	X, r21
    37de:	17 97       	sbiw	r26, 0x07	; 7
    37e0:	08 95       	ret
    37e2:	2f 3f       	cpi	r18, 0xFF	; 255
    37e4:	31 05       	cpc	r19, r1
    37e6:	79 f4       	brne	.+30     	; 0x3806 <__unpack_f+0xc2>
    37e8:	41 15       	cp	r20, r1
    37ea:	51 05       	cpc	r21, r1
    37ec:	61 05       	cpc	r22, r1
    37ee:	71 05       	cpc	r23, r1
    37f0:	19 f4       	brne	.+6      	; 0x37f8 <__unpack_f+0xb4>
    37f2:	84 e0       	ldi	r24, 0x04	; 4
    37f4:	8c 93       	st	X, r24
    37f6:	08 95       	ret
    37f8:	64 ff       	sbrs	r22, 4
    37fa:	03 c0       	rjmp	.+6      	; 0x3802 <__unpack_f+0xbe>
    37fc:	81 e0       	ldi	r24, 0x01	; 1
    37fe:	8c 93       	st	X, r24
    3800:	12 c0       	rjmp	.+36     	; 0x3826 <__unpack_f+0xe2>
    3802:	1c 92       	st	X, r1
    3804:	10 c0       	rjmp	.+32     	; 0x3826 <__unpack_f+0xe2>
    3806:	2f 57       	subi	r18, 0x7F	; 127
    3808:	30 40       	sbci	r19, 0x00	; 0
    380a:	13 96       	adiw	r26, 0x03	; 3
    380c:	3c 93       	st	X, r19
    380e:	2e 93       	st	-X, r18
    3810:	12 97       	sbiw	r26, 0x02	; 2
    3812:	83 e0       	ldi	r24, 0x03	; 3
    3814:	8c 93       	st	X, r24
    3816:	87 e0       	ldi	r24, 0x07	; 7
    3818:	44 0f       	add	r20, r20
    381a:	55 1f       	adc	r21, r21
    381c:	66 1f       	adc	r22, r22
    381e:	77 1f       	adc	r23, r23
    3820:	8a 95       	dec	r24
    3822:	d1 f7       	brne	.-12     	; 0x3818 <__unpack_f+0xd4>
    3824:	70 64       	ori	r23, 0x40	; 64
    3826:	14 96       	adiw	r26, 0x04	; 4
    3828:	4d 93       	st	X+, r20
    382a:	5d 93       	st	X+, r21
    382c:	6d 93       	st	X+, r22
    382e:	7c 93       	st	X, r23
    3830:	17 97       	sbiw	r26, 0x07	; 7
    3832:	08 95       	ret

00003834 <__udivmodhi4>:
    3834:	aa 1b       	sub	r26, r26
    3836:	bb 1b       	sub	r27, r27
    3838:	51 e1       	ldi	r21, 0x11	; 17
    383a:	07 c0       	rjmp	.+14     	; 0x384a <__udivmodhi4_ep>

0000383c <__udivmodhi4_loop>:
    383c:	aa 1f       	adc	r26, r26
    383e:	bb 1f       	adc	r27, r27
    3840:	a6 17       	cp	r26, r22
    3842:	b7 07       	cpc	r27, r23
    3844:	10 f0       	brcs	.+4      	; 0x384a <__udivmodhi4_ep>
    3846:	a6 1b       	sub	r26, r22
    3848:	b7 0b       	sbc	r27, r23

0000384a <__udivmodhi4_ep>:
    384a:	88 1f       	adc	r24, r24
    384c:	99 1f       	adc	r25, r25
    384e:	5a 95       	dec	r21
    3850:	a9 f7       	brne	.-22     	; 0x383c <__udivmodhi4_loop>
    3852:	80 95       	com	r24
    3854:	90 95       	com	r25
    3856:	bc 01       	movw	r22, r24
    3858:	cd 01       	movw	r24, r26
    385a:	08 95       	ret

0000385c <__divmodhi4>:
    385c:	97 fb       	bst	r25, 7
    385e:	09 2e       	mov	r0, r25
    3860:	07 26       	eor	r0, r23
    3862:	0a d0       	rcall	.+20     	; 0x3878 <__divmodhi4_neg1>
    3864:	77 fd       	sbrc	r23, 7
    3866:	04 d0       	rcall	.+8      	; 0x3870 <__divmodhi4_neg2>
    3868:	e5 df       	rcall	.-54     	; 0x3834 <__udivmodhi4>
    386a:	06 d0       	rcall	.+12     	; 0x3878 <__divmodhi4_neg1>
    386c:	00 20       	and	r0, r0
    386e:	1a f4       	brpl	.+6      	; 0x3876 <__divmodhi4_exit>

00003870 <__divmodhi4_neg2>:
    3870:	70 95       	com	r23
    3872:	61 95       	neg	r22
    3874:	7f 4f       	sbci	r23, 0xFF	; 255

00003876 <__divmodhi4_exit>:
    3876:	08 95       	ret

00003878 <__divmodhi4_neg1>:
    3878:	f6 f7       	brtc	.-4      	; 0x3876 <__divmodhi4_exit>
    387a:	90 95       	com	r25
    387c:	81 95       	neg	r24
    387e:	9f 4f       	sbci	r25, 0xFF	; 255
    3880:	08 95       	ret

00003882 <__prologue_saves__>:
    3882:	2f 92       	push	r2
    3884:	3f 92       	push	r3
    3886:	4f 92       	push	r4
    3888:	5f 92       	push	r5
    388a:	6f 92       	push	r6
    388c:	7f 92       	push	r7
    388e:	8f 92       	push	r8
    3890:	9f 92       	push	r9
    3892:	af 92       	push	r10
    3894:	bf 92       	push	r11
    3896:	cf 92       	push	r12
    3898:	df 92       	push	r13
    389a:	ef 92       	push	r14
    389c:	ff 92       	push	r15
    389e:	0f 93       	push	r16
    38a0:	1f 93       	push	r17
    38a2:	cf 93       	push	r28
    38a4:	df 93       	push	r29
    38a6:	cd b7       	in	r28, 0x3d	; 61
    38a8:	de b7       	in	r29, 0x3e	; 62
    38aa:	ca 1b       	sub	r28, r26
    38ac:	db 0b       	sbc	r29, r27
    38ae:	0f b6       	in	r0, 0x3f	; 63
    38b0:	f8 94       	cli
    38b2:	de bf       	out	0x3e, r29	; 62
    38b4:	0f be       	out	0x3f, r0	; 63
    38b6:	cd bf       	out	0x3d, r28	; 61
    38b8:	09 94       	ijmp

000038ba <__epilogue_restores__>:
    38ba:	2a 88       	ldd	r2, Y+18	; 0x12
    38bc:	39 88       	ldd	r3, Y+17	; 0x11
    38be:	48 88       	ldd	r4, Y+16	; 0x10
    38c0:	5f 84       	ldd	r5, Y+15	; 0x0f
    38c2:	6e 84       	ldd	r6, Y+14	; 0x0e
    38c4:	7d 84       	ldd	r7, Y+13	; 0x0d
    38c6:	8c 84       	ldd	r8, Y+12	; 0x0c
    38c8:	9b 84       	ldd	r9, Y+11	; 0x0b
    38ca:	aa 84       	ldd	r10, Y+10	; 0x0a
    38cc:	b9 84       	ldd	r11, Y+9	; 0x09
    38ce:	c8 84       	ldd	r12, Y+8	; 0x08
    38d0:	df 80       	ldd	r13, Y+7	; 0x07
    38d2:	ee 80       	ldd	r14, Y+6	; 0x06
    38d4:	fd 80       	ldd	r15, Y+5	; 0x05
    38d6:	0c 81       	ldd	r16, Y+4	; 0x04
    38d8:	1b 81       	ldd	r17, Y+3	; 0x03
    38da:	aa 81       	ldd	r26, Y+2	; 0x02
    38dc:	b9 81       	ldd	r27, Y+1	; 0x01
    38de:	ce 0f       	add	r28, r30
    38e0:	d1 1d       	adc	r29, r1
    38e2:	0f b6       	in	r0, 0x3f	; 63
    38e4:	f8 94       	cli
    38e6:	de bf       	out	0x3e, r29	; 62
    38e8:	0f be       	out	0x3f, r0	; 63
    38ea:	cd bf       	out	0x3d, r28	; 61
    38ec:	ed 01       	movw	r28, r26
    38ee:	08 95       	ret

000038f0 <malloc>:
    38f0:	cf 93       	push	r28
    38f2:	df 93       	push	r29
    38f4:	bc 01       	movw	r22, r24
    38f6:	82 30       	cpi	r24, 0x02	; 2
    38f8:	91 05       	cpc	r25, r1
    38fa:	10 f4       	brcc	.+4      	; 0x3900 <malloc+0x10>
    38fc:	62 e0       	ldi	r22, 0x02	; 2
    38fe:	70 e0       	ldi	r23, 0x00	; 0
    3900:	a0 91 69 04 	lds	r26, 0x0469
    3904:	b0 91 6a 04 	lds	r27, 0x046A
    3908:	ed 01       	movw	r28, r26
    390a:	e0 e0       	ldi	r30, 0x00	; 0
    390c:	f0 e0       	ldi	r31, 0x00	; 0
    390e:	40 e0       	ldi	r20, 0x00	; 0
    3910:	50 e0       	ldi	r21, 0x00	; 0
    3912:	21 c0       	rjmp	.+66     	; 0x3956 <malloc+0x66>
    3914:	88 81       	ld	r24, Y
    3916:	99 81       	ldd	r25, Y+1	; 0x01
    3918:	86 17       	cp	r24, r22
    391a:	97 07       	cpc	r25, r23
    391c:	69 f4       	brne	.+26     	; 0x3938 <malloc+0x48>
    391e:	8a 81       	ldd	r24, Y+2	; 0x02
    3920:	9b 81       	ldd	r25, Y+3	; 0x03
    3922:	30 97       	sbiw	r30, 0x00	; 0
    3924:	19 f0       	breq	.+6      	; 0x392c <malloc+0x3c>
    3926:	93 83       	std	Z+3, r25	; 0x03
    3928:	82 83       	std	Z+2, r24	; 0x02
    392a:	04 c0       	rjmp	.+8      	; 0x3934 <malloc+0x44>
    392c:	90 93 6a 04 	sts	0x046A, r25
    3930:	80 93 69 04 	sts	0x0469, r24
    3934:	fe 01       	movw	r30, r28
    3936:	34 c0       	rjmp	.+104    	; 0x39a0 <malloc+0xb0>
    3938:	68 17       	cp	r22, r24
    393a:	79 07       	cpc	r23, r25
    393c:	38 f4       	brcc	.+14     	; 0x394c <malloc+0x5c>
    393e:	41 15       	cp	r20, r1
    3940:	51 05       	cpc	r21, r1
    3942:	19 f0       	breq	.+6      	; 0x394a <malloc+0x5a>
    3944:	84 17       	cp	r24, r20
    3946:	95 07       	cpc	r25, r21
    3948:	08 f4       	brcc	.+2      	; 0x394c <malloc+0x5c>
    394a:	ac 01       	movw	r20, r24
    394c:	fe 01       	movw	r30, r28
    394e:	8a 81       	ldd	r24, Y+2	; 0x02
    3950:	9b 81       	ldd	r25, Y+3	; 0x03
    3952:	9c 01       	movw	r18, r24
    3954:	e9 01       	movw	r28, r18
    3956:	20 97       	sbiw	r28, 0x00	; 0
    3958:	e9 f6       	brne	.-70     	; 0x3914 <malloc+0x24>
    395a:	41 15       	cp	r20, r1
    395c:	51 05       	cpc	r21, r1
    395e:	a9 f1       	breq	.+106    	; 0x39ca <malloc+0xda>
    3960:	ca 01       	movw	r24, r20
    3962:	86 1b       	sub	r24, r22
    3964:	97 0b       	sbc	r25, r23
    3966:	04 97       	sbiw	r24, 0x04	; 4
    3968:	08 f4       	brcc	.+2      	; 0x396c <malloc+0x7c>
    396a:	ba 01       	movw	r22, r20
    396c:	e0 e0       	ldi	r30, 0x00	; 0
    396e:	f0 e0       	ldi	r31, 0x00	; 0
    3970:	2a c0       	rjmp	.+84     	; 0x39c6 <malloc+0xd6>
    3972:	8d 91       	ld	r24, X+
    3974:	9c 91       	ld	r25, X
    3976:	11 97       	sbiw	r26, 0x01	; 1
    3978:	84 17       	cp	r24, r20
    397a:	95 07       	cpc	r25, r21
    397c:	f9 f4       	brne	.+62     	; 0x39bc <malloc+0xcc>
    397e:	64 17       	cp	r22, r20
    3980:	75 07       	cpc	r23, r21
    3982:	81 f4       	brne	.+32     	; 0x39a4 <malloc+0xb4>
    3984:	12 96       	adiw	r26, 0x02	; 2
    3986:	8d 91       	ld	r24, X+
    3988:	9c 91       	ld	r25, X
    398a:	13 97       	sbiw	r26, 0x03	; 3
    398c:	30 97       	sbiw	r30, 0x00	; 0
    398e:	19 f0       	breq	.+6      	; 0x3996 <malloc+0xa6>
    3990:	93 83       	std	Z+3, r25	; 0x03
    3992:	82 83       	std	Z+2, r24	; 0x02
    3994:	04 c0       	rjmp	.+8      	; 0x399e <malloc+0xae>
    3996:	90 93 6a 04 	sts	0x046A, r25
    399a:	80 93 69 04 	sts	0x0469, r24
    399e:	fd 01       	movw	r30, r26
    39a0:	32 96       	adiw	r30, 0x02	; 2
    39a2:	4f c0       	rjmp	.+158    	; 0x3a42 <malloc+0x152>
    39a4:	ca 01       	movw	r24, r20
    39a6:	86 1b       	sub	r24, r22
    39a8:	97 0b       	sbc	r25, r23
    39aa:	fd 01       	movw	r30, r26
    39ac:	e8 0f       	add	r30, r24
    39ae:	f9 1f       	adc	r31, r25
    39b0:	61 93       	st	Z+, r22
    39b2:	71 93       	st	Z+, r23
    39b4:	02 97       	sbiw	r24, 0x02	; 2
    39b6:	8d 93       	st	X+, r24
    39b8:	9c 93       	st	X, r25
    39ba:	43 c0       	rjmp	.+134    	; 0x3a42 <malloc+0x152>
    39bc:	fd 01       	movw	r30, r26
    39be:	82 81       	ldd	r24, Z+2	; 0x02
    39c0:	93 81       	ldd	r25, Z+3	; 0x03
    39c2:	9c 01       	movw	r18, r24
    39c4:	d9 01       	movw	r26, r18
    39c6:	10 97       	sbiw	r26, 0x00	; 0
    39c8:	a1 f6       	brne	.-88     	; 0x3972 <malloc+0x82>
    39ca:	80 91 67 04 	lds	r24, 0x0467
    39ce:	90 91 68 04 	lds	r25, 0x0468
    39d2:	89 2b       	or	r24, r25
    39d4:	41 f4       	brne	.+16     	; 0x39e6 <malloc+0xf6>
    39d6:	80 91 a6 02 	lds	r24, 0x02A6
    39da:	90 91 a7 02 	lds	r25, 0x02A7
    39de:	90 93 68 04 	sts	0x0468, r25
    39e2:	80 93 67 04 	sts	0x0467, r24
    39e6:	40 91 a8 02 	lds	r20, 0x02A8
    39ea:	50 91 a9 02 	lds	r21, 0x02A9
    39ee:	41 15       	cp	r20, r1
    39f0:	51 05       	cpc	r21, r1
    39f2:	41 f4       	brne	.+16     	; 0x3a04 <malloc+0x114>
    39f4:	4d b7       	in	r20, 0x3d	; 61
    39f6:	5e b7       	in	r21, 0x3e	; 62
    39f8:	80 91 a4 02 	lds	r24, 0x02A4
    39fc:	90 91 a5 02 	lds	r25, 0x02A5
    3a00:	48 1b       	sub	r20, r24
    3a02:	59 0b       	sbc	r21, r25
    3a04:	20 91 67 04 	lds	r18, 0x0467
    3a08:	30 91 68 04 	lds	r19, 0x0468
    3a0c:	24 17       	cp	r18, r20
    3a0e:	35 07       	cpc	r19, r21
    3a10:	b0 f4       	brcc	.+44     	; 0x3a3e <malloc+0x14e>
    3a12:	ca 01       	movw	r24, r20
    3a14:	82 1b       	sub	r24, r18
    3a16:	93 0b       	sbc	r25, r19
    3a18:	86 17       	cp	r24, r22
    3a1a:	97 07       	cpc	r25, r23
    3a1c:	80 f0       	brcs	.+32     	; 0x3a3e <malloc+0x14e>
    3a1e:	ab 01       	movw	r20, r22
    3a20:	4e 5f       	subi	r20, 0xFE	; 254
    3a22:	5f 4f       	sbci	r21, 0xFF	; 255
    3a24:	84 17       	cp	r24, r20
    3a26:	95 07       	cpc	r25, r21
    3a28:	50 f0       	brcs	.+20     	; 0x3a3e <malloc+0x14e>
    3a2a:	42 0f       	add	r20, r18
    3a2c:	53 1f       	adc	r21, r19
    3a2e:	50 93 68 04 	sts	0x0468, r21
    3a32:	40 93 67 04 	sts	0x0467, r20
    3a36:	f9 01       	movw	r30, r18
    3a38:	61 93       	st	Z+, r22
    3a3a:	71 93       	st	Z+, r23
    3a3c:	02 c0       	rjmp	.+4      	; 0x3a42 <malloc+0x152>
    3a3e:	e0 e0       	ldi	r30, 0x00	; 0
    3a40:	f0 e0       	ldi	r31, 0x00	; 0
    3a42:	cf 01       	movw	r24, r30
    3a44:	df 91       	pop	r29
    3a46:	cf 91       	pop	r28
    3a48:	08 95       	ret

00003a4a <free>:
    3a4a:	cf 93       	push	r28
    3a4c:	df 93       	push	r29
    3a4e:	00 97       	sbiw	r24, 0x00	; 0
    3a50:	09 f4       	brne	.+2      	; 0x3a54 <free+0xa>
    3a52:	50 c0       	rjmp	.+160    	; 0x3af4 <free+0xaa>
    3a54:	ec 01       	movw	r28, r24
    3a56:	22 97       	sbiw	r28, 0x02	; 2
    3a58:	1b 82       	std	Y+3, r1	; 0x03
    3a5a:	1a 82       	std	Y+2, r1	; 0x02
    3a5c:	a0 91 69 04 	lds	r26, 0x0469
    3a60:	b0 91 6a 04 	lds	r27, 0x046A
    3a64:	10 97       	sbiw	r26, 0x00	; 0
    3a66:	09 f1       	breq	.+66     	; 0x3aaa <free+0x60>
    3a68:	40 e0       	ldi	r20, 0x00	; 0
    3a6a:	50 e0       	ldi	r21, 0x00	; 0
    3a6c:	ac 17       	cp	r26, r28
    3a6e:	bd 07       	cpc	r27, r29
    3a70:	08 f1       	brcs	.+66     	; 0x3ab4 <free+0x6a>
    3a72:	bb 83       	std	Y+3, r27	; 0x03
    3a74:	aa 83       	std	Y+2, r26	; 0x02
    3a76:	fe 01       	movw	r30, r28
    3a78:	21 91       	ld	r18, Z+
    3a7a:	31 91       	ld	r19, Z+
    3a7c:	e2 0f       	add	r30, r18
    3a7e:	f3 1f       	adc	r31, r19
    3a80:	ae 17       	cp	r26, r30
    3a82:	bf 07       	cpc	r27, r31
    3a84:	79 f4       	brne	.+30     	; 0x3aa4 <free+0x5a>
    3a86:	8d 91       	ld	r24, X+
    3a88:	9c 91       	ld	r25, X
    3a8a:	11 97       	sbiw	r26, 0x01	; 1
    3a8c:	28 0f       	add	r18, r24
    3a8e:	39 1f       	adc	r19, r25
    3a90:	2e 5f       	subi	r18, 0xFE	; 254
    3a92:	3f 4f       	sbci	r19, 0xFF	; 255
    3a94:	39 83       	std	Y+1, r19	; 0x01
    3a96:	28 83       	st	Y, r18
    3a98:	12 96       	adiw	r26, 0x02	; 2
    3a9a:	8d 91       	ld	r24, X+
    3a9c:	9c 91       	ld	r25, X
    3a9e:	13 97       	sbiw	r26, 0x03	; 3
    3aa0:	9b 83       	std	Y+3, r25	; 0x03
    3aa2:	8a 83       	std	Y+2, r24	; 0x02
    3aa4:	41 15       	cp	r20, r1
    3aa6:	51 05       	cpc	r21, r1
    3aa8:	71 f4       	brne	.+28     	; 0x3ac6 <free+0x7c>
    3aaa:	d0 93 6a 04 	sts	0x046A, r29
    3aae:	c0 93 69 04 	sts	0x0469, r28
    3ab2:	20 c0       	rjmp	.+64     	; 0x3af4 <free+0xaa>
    3ab4:	12 96       	adiw	r26, 0x02	; 2
    3ab6:	8d 91       	ld	r24, X+
    3ab8:	9c 91       	ld	r25, X
    3aba:	13 97       	sbiw	r26, 0x03	; 3
    3abc:	ad 01       	movw	r20, r26
    3abe:	00 97       	sbiw	r24, 0x00	; 0
    3ac0:	11 f0       	breq	.+4      	; 0x3ac6 <free+0x7c>
    3ac2:	dc 01       	movw	r26, r24
    3ac4:	d3 cf       	rjmp	.-90     	; 0x3a6c <free+0x22>
    3ac6:	fa 01       	movw	r30, r20
    3ac8:	d3 83       	std	Z+3, r29	; 0x03
    3aca:	c2 83       	std	Z+2, r28	; 0x02
    3acc:	21 91       	ld	r18, Z+
    3ace:	31 91       	ld	r19, Z+
    3ad0:	e2 0f       	add	r30, r18
    3ad2:	f3 1f       	adc	r31, r19
    3ad4:	ce 17       	cp	r28, r30
    3ad6:	df 07       	cpc	r29, r31
    3ad8:	69 f4       	brne	.+26     	; 0x3af4 <free+0xaa>
    3ada:	88 81       	ld	r24, Y
    3adc:	99 81       	ldd	r25, Y+1	; 0x01
    3ade:	28 0f       	add	r18, r24
    3ae0:	39 1f       	adc	r19, r25
    3ae2:	2e 5f       	subi	r18, 0xFE	; 254
    3ae4:	3f 4f       	sbci	r19, 0xFF	; 255
    3ae6:	fa 01       	movw	r30, r20
    3ae8:	31 83       	std	Z+1, r19	; 0x01
    3aea:	20 83       	st	Z, r18
    3aec:	8a 81       	ldd	r24, Y+2	; 0x02
    3aee:	9b 81       	ldd	r25, Y+3	; 0x03
    3af0:	93 83       	std	Z+3, r25	; 0x03
    3af2:	82 83       	std	Z+2, r24	; 0x02
    3af4:	df 91       	pop	r29
    3af6:	cf 91       	pop	r28
    3af8:	08 95       	ret

00003afa <strcpy_P>:
    3afa:	fb 01       	movw	r30, r22
    3afc:	dc 01       	movw	r26, r24
    3afe:	05 90       	lpm	r0, Z+
    3b00:	0d 92       	st	X+, r0
    3b02:	00 20       	and	r0, r0
    3b04:	e1 f7       	brne	.-8      	; 0x3afe <strcpy_P+0x4>
    3b06:	08 95       	ret

00003b08 <strncasecmp>:
    3b08:	fb 01       	movw	r30, r22
    3b0a:	dc 01       	movw	r26, r24
    3b0c:	41 50       	subi	r20, 0x01	; 1
    3b0e:	50 40       	sbci	r21, 0x00	; 0
    3b10:	88 f0       	brcs	.+34     	; 0x3b34 <strncasecmp+0x2c>
    3b12:	8d 91       	ld	r24, X+
    3b14:	81 34       	cpi	r24, 0x41	; 65
    3b16:	1c f0       	brlt	.+6      	; 0x3b1e <strncasecmp+0x16>
    3b18:	8b 35       	cpi	r24, 0x5B	; 91
    3b1a:	0c f4       	brge	.+2      	; 0x3b1e <strncasecmp+0x16>
    3b1c:	80 5e       	subi	r24, 0xE0	; 224
    3b1e:	61 91       	ld	r22, Z+
    3b20:	61 34       	cpi	r22, 0x41	; 65
    3b22:	1c f0       	brlt	.+6      	; 0x3b2a <strncasecmp+0x22>
    3b24:	6b 35       	cpi	r22, 0x5B	; 91
    3b26:	0c f4       	brge	.+2      	; 0x3b2a <strncasecmp+0x22>
    3b28:	60 5e       	subi	r22, 0xE0	; 224
    3b2a:	86 1b       	sub	r24, r22
    3b2c:	61 11       	cpse	r22, r1
    3b2e:	71 f3       	breq	.-36     	; 0x3b0c <strncasecmp+0x4>
    3b30:	99 0b       	sbc	r25, r25
    3b32:	08 95       	ret
    3b34:	88 1b       	sub	r24, r24
    3b36:	fc cf       	rjmp	.-8      	; 0x3b30 <strncasecmp+0x28>

00003b38 <cos>:
    3b38:	03 d0       	rcall	.+6      	; 0x3b40 <__fp_rempio2>
    3b3a:	e3 95       	inc	r30
    3b3c:	28 c0       	rjmp	.+80     	; 0x3b8e <__fp_sinus>
    3b3e:	0f c1       	rjmp	.+542    	; 0x3d5e <__fp_nan>

00003b40 <__fp_rempio2>:
    3b40:	3f d0       	rcall	.+126    	; 0x3bc0 <__fp_splitA>
    3b42:	e8 f3       	brcs	.-6      	; 0x3b3e <cos+0x6>
    3b44:	e8 94       	clt
    3b46:	e0 e0       	ldi	r30, 0x00	; 0
    3b48:	bb 27       	eor	r27, r27
    3b4a:	9f 57       	subi	r25, 0x7F	; 127
    3b4c:	f0 f0       	brcs	.+60     	; 0x3b8a <__fp_rempio2+0x4a>
    3b4e:	2a ed       	ldi	r18, 0xDA	; 218
    3b50:	3f e0       	ldi	r19, 0x0F	; 15
    3b52:	49 ec       	ldi	r20, 0xC9	; 201
    3b54:	06 c0       	rjmp	.+12     	; 0x3b62 <__fp_rempio2+0x22>
    3b56:	ee 0f       	add	r30, r30
    3b58:	bb 0f       	add	r27, r27
    3b5a:	66 1f       	adc	r22, r22
    3b5c:	77 1f       	adc	r23, r23
    3b5e:	88 1f       	adc	r24, r24
    3b60:	28 f0       	brcs	.+10     	; 0x3b6c <__fp_rempio2+0x2c>
    3b62:	b2 3a       	cpi	r27, 0xA2	; 162
    3b64:	62 07       	cpc	r22, r18
    3b66:	73 07       	cpc	r23, r19
    3b68:	84 07       	cpc	r24, r20
    3b6a:	28 f0       	brcs	.+10     	; 0x3b76 <__fp_rempio2+0x36>
    3b6c:	b2 5a       	subi	r27, 0xA2	; 162
    3b6e:	62 0b       	sbc	r22, r18
    3b70:	73 0b       	sbc	r23, r19
    3b72:	84 0b       	sbc	r24, r20
    3b74:	e3 95       	inc	r30
    3b76:	9a 95       	dec	r25
    3b78:	72 f7       	brpl	.-36     	; 0x3b56 <__fp_rempio2+0x16>
    3b7a:	80 38       	cpi	r24, 0x80	; 128
    3b7c:	30 f4       	brcc	.+12     	; 0x3b8a <__fp_rempio2+0x4a>
    3b7e:	9a 95       	dec	r25
    3b80:	bb 0f       	add	r27, r27
    3b82:	66 1f       	adc	r22, r22
    3b84:	77 1f       	adc	r23, r23
    3b86:	88 1f       	adc	r24, r24
    3b88:	d2 f7       	brpl	.-12     	; 0x3b7e <__fp_rempio2+0x3e>
    3b8a:	90 48       	sbci	r25, 0x80	; 128
    3b8c:	dc c0       	rjmp	.+440    	; 0x3d46 <__fp_mpack_finite>

00003b8e <__fp_sinus>:
    3b8e:	ef 93       	push	r30
    3b90:	e0 ff       	sbrs	r30, 0
    3b92:	06 c0       	rjmp	.+12     	; 0x3ba0 <__fp_sinus+0x12>
    3b94:	a2 ea       	ldi	r26, 0xA2	; 162
    3b96:	2a ed       	ldi	r18, 0xDA	; 218
    3b98:	3f e0       	ldi	r19, 0x0F	; 15
    3b9a:	49 ec       	ldi	r20, 0xC9	; 201
    3b9c:	5f eb       	ldi	r21, 0xBF	; 191
    3b9e:	5d d0       	rcall	.+186    	; 0x3c5a <__addsf3x>
    3ba0:	00 d1       	rcall	.+512    	; 0x3da2 <__fp_round>
    3ba2:	0f 90       	pop	r0
    3ba4:	03 94       	inc	r0
    3ba6:	01 fc       	sbrc	r0, 1
    3ba8:	90 58       	subi	r25, 0x80	; 128
    3baa:	ec e8       	ldi	r30, 0x8C	; 140
    3bac:	f0 e0       	ldi	r31, 0x00	; 0
    3bae:	da c0       	rjmp	.+436    	; 0x3d64 <__fp_powsodd>

00003bb0 <__fp_split3>:
    3bb0:	57 fd       	sbrc	r21, 7
    3bb2:	90 58       	subi	r25, 0x80	; 128
    3bb4:	44 0f       	add	r20, r20
    3bb6:	55 1f       	adc	r21, r21
    3bb8:	59 f0       	breq	.+22     	; 0x3bd0 <__fp_splitA+0x10>
    3bba:	5f 3f       	cpi	r21, 0xFF	; 255
    3bbc:	71 f0       	breq	.+28     	; 0x3bda <__fp_splitA+0x1a>
    3bbe:	47 95       	ror	r20

00003bc0 <__fp_splitA>:
    3bc0:	88 0f       	add	r24, r24
    3bc2:	97 fb       	bst	r25, 7
    3bc4:	99 1f       	adc	r25, r25
    3bc6:	61 f0       	breq	.+24     	; 0x3be0 <__fp_splitA+0x20>
    3bc8:	9f 3f       	cpi	r25, 0xFF	; 255
    3bca:	79 f0       	breq	.+30     	; 0x3bea <__fp_splitA+0x2a>
    3bcc:	87 95       	ror	r24
    3bce:	08 95       	ret
    3bd0:	12 16       	cp	r1, r18
    3bd2:	13 06       	cpc	r1, r19
    3bd4:	14 06       	cpc	r1, r20
    3bd6:	55 1f       	adc	r21, r21
    3bd8:	f2 cf       	rjmp	.-28     	; 0x3bbe <__fp_split3+0xe>
    3bda:	46 95       	lsr	r20
    3bdc:	f1 df       	rcall	.-30     	; 0x3bc0 <__fp_splitA>
    3bde:	08 c0       	rjmp	.+16     	; 0x3bf0 <__fp_splitA+0x30>
    3be0:	16 16       	cp	r1, r22
    3be2:	17 06       	cpc	r1, r23
    3be4:	18 06       	cpc	r1, r24
    3be6:	99 1f       	adc	r25, r25
    3be8:	f1 cf       	rjmp	.-30     	; 0x3bcc <__fp_splitA+0xc>
    3bea:	86 95       	lsr	r24
    3bec:	71 05       	cpc	r23, r1
    3bee:	61 05       	cpc	r22, r1
    3bf0:	08 94       	sec
    3bf2:	08 95       	ret

00003bf4 <round>:
    3bf4:	e5 df       	rcall	.-54     	; 0x3bc0 <__fp_splitA>
    3bf6:	e0 f0       	brcs	.+56     	; 0x3c30 <round+0x3c>
    3bf8:	9e 37       	cpi	r25, 0x7E	; 126
    3bfa:	d8 f0       	brcs	.+54     	; 0x3c32 <round+0x3e>
    3bfc:	96 39       	cpi	r25, 0x96	; 150
    3bfe:	b8 f4       	brcc	.+46     	; 0x3c2e <round+0x3a>
    3c00:	9e 38       	cpi	r25, 0x8E	; 142
    3c02:	48 f4       	brcc	.+18     	; 0x3c16 <round+0x22>
    3c04:	67 2f       	mov	r22, r23
    3c06:	78 2f       	mov	r23, r24
    3c08:	88 27       	eor	r24, r24
    3c0a:	98 5f       	subi	r25, 0xF8	; 248
    3c0c:	f9 cf       	rjmp	.-14     	; 0x3c00 <round+0xc>
    3c0e:	86 95       	lsr	r24
    3c10:	77 95       	ror	r23
    3c12:	67 95       	ror	r22
    3c14:	93 95       	inc	r25
    3c16:	95 39       	cpi	r25, 0x95	; 149
    3c18:	d0 f3       	brcs	.-12     	; 0x3c0e <round+0x1a>
    3c1a:	b6 2f       	mov	r27, r22
    3c1c:	b1 70       	andi	r27, 0x01	; 1
    3c1e:	6b 0f       	add	r22, r27
    3c20:	71 1d       	adc	r23, r1
    3c22:	81 1d       	adc	r24, r1
    3c24:	20 f4       	brcc	.+8      	; 0x3c2e <round+0x3a>
    3c26:	87 95       	ror	r24
    3c28:	77 95       	ror	r23
    3c2a:	67 95       	ror	r22
    3c2c:	93 95       	inc	r25
    3c2e:	6e c0       	rjmp	.+220    	; 0x3d0c <__fp_mintl>
    3c30:	88 c0       	rjmp	.+272    	; 0x3d42 <__fp_mpack>
    3c32:	c9 c0       	rjmp	.+402    	; 0x3dc6 <__fp_szero>

00003c34 <sin>:
    3c34:	9f 93       	push	r25
    3c36:	84 df       	rcall	.-248    	; 0x3b40 <__fp_rempio2>
    3c38:	0f 90       	pop	r0
    3c3a:	07 fc       	sbrc	r0, 7
    3c3c:	ee 5f       	subi	r30, 0xFE	; 254
    3c3e:	a7 cf       	rjmp	.-178    	; 0x3b8e <__fp_sinus>
    3c40:	a2 d0       	rcall	.+324    	; 0x3d86 <__fp_pscA>
    3c42:	30 f0       	brcs	.+12     	; 0x3c50 <sin+0x1c>
    3c44:	a7 d0       	rcall	.+334    	; 0x3d94 <__fp_pscB>
    3c46:	20 f0       	brcs	.+8      	; 0x3c50 <sin+0x1c>
    3c48:	31 f4       	brne	.+12     	; 0x3c56 <sin+0x22>
    3c4a:	9f 3f       	cpi	r25, 0xFF	; 255
    3c4c:	11 f4       	brne	.+4      	; 0x3c52 <sin+0x1e>
    3c4e:	1e f4       	brtc	.+6      	; 0x3c56 <sin+0x22>
    3c50:	86 c0       	rjmp	.+268    	; 0x3d5e <__fp_nan>
    3c52:	0e f4       	brtc	.+2      	; 0x3c56 <sin+0x22>
    3c54:	e0 95       	com	r30
    3c56:	e7 fb       	bst	r30, 7
    3c58:	53 c0       	rjmp	.+166    	; 0x3d00 <__fp_inf>

00003c5a <__addsf3x>:
    3c5a:	e9 2f       	mov	r30, r25
    3c5c:	a9 df       	rcall	.-174    	; 0x3bb0 <__fp_split3>
    3c5e:	80 f3       	brcs	.-32     	; 0x3c40 <sin+0xc>
    3c60:	ba 17       	cp	r27, r26
    3c62:	62 07       	cpc	r22, r18
    3c64:	73 07       	cpc	r23, r19
    3c66:	84 07       	cpc	r24, r20
    3c68:	95 07       	cpc	r25, r21
    3c6a:	18 f0       	brcs	.+6      	; 0x3c72 <__addsf3x+0x18>
    3c6c:	71 f4       	brne	.+28     	; 0x3c8a <__addsf3x+0x30>
    3c6e:	9e f5       	brtc	.+102    	; 0x3cd6 <__addsf3x+0x7c>
    3c70:	a9 c0       	rjmp	.+338    	; 0x3dc4 <__fp_zero>
    3c72:	0e f4       	brtc	.+2      	; 0x3c76 <__addsf3x+0x1c>
    3c74:	e0 95       	com	r30
    3c76:	0b 2e       	mov	r0, r27
    3c78:	ba 2f       	mov	r27, r26
    3c7a:	a0 2d       	mov	r26, r0
    3c7c:	0b 01       	movw	r0, r22
    3c7e:	b9 01       	movw	r22, r18
    3c80:	90 01       	movw	r18, r0
    3c82:	0c 01       	movw	r0, r24
    3c84:	ca 01       	movw	r24, r20
    3c86:	a0 01       	movw	r20, r0
    3c88:	11 24       	eor	r1, r1
    3c8a:	ff 27       	eor	r31, r31
    3c8c:	59 1b       	sub	r21, r25
    3c8e:	99 f0       	breq	.+38     	; 0x3cb6 <__addsf3x+0x5c>
    3c90:	59 3f       	cpi	r21, 0xF9	; 249
    3c92:	50 f4       	brcc	.+20     	; 0x3ca8 <__addsf3x+0x4e>
    3c94:	50 3e       	cpi	r21, 0xE0	; 224
    3c96:	68 f1       	brcs	.+90     	; 0x3cf2 <__addsf3x+0x98>
    3c98:	1a 16       	cp	r1, r26
    3c9a:	f0 40       	sbci	r31, 0x00	; 0
    3c9c:	a2 2f       	mov	r26, r18
    3c9e:	23 2f       	mov	r18, r19
    3ca0:	34 2f       	mov	r19, r20
    3ca2:	44 27       	eor	r20, r20
    3ca4:	58 5f       	subi	r21, 0xF8	; 248
    3ca6:	f3 cf       	rjmp	.-26     	; 0x3c8e <__addsf3x+0x34>
    3ca8:	46 95       	lsr	r20
    3caa:	37 95       	ror	r19
    3cac:	27 95       	ror	r18
    3cae:	a7 95       	ror	r26
    3cb0:	f0 40       	sbci	r31, 0x00	; 0
    3cb2:	53 95       	inc	r21
    3cb4:	c9 f7       	brne	.-14     	; 0x3ca8 <__addsf3x+0x4e>
    3cb6:	7e f4       	brtc	.+30     	; 0x3cd6 <__addsf3x+0x7c>
    3cb8:	1f 16       	cp	r1, r31
    3cba:	ba 0b       	sbc	r27, r26
    3cbc:	62 0b       	sbc	r22, r18
    3cbe:	73 0b       	sbc	r23, r19
    3cc0:	84 0b       	sbc	r24, r20
    3cc2:	ba f0       	brmi	.+46     	; 0x3cf2 <__addsf3x+0x98>
    3cc4:	91 50       	subi	r25, 0x01	; 1
    3cc6:	a1 f0       	breq	.+40     	; 0x3cf0 <__addsf3x+0x96>
    3cc8:	ff 0f       	add	r31, r31
    3cca:	bb 1f       	adc	r27, r27
    3ccc:	66 1f       	adc	r22, r22
    3cce:	77 1f       	adc	r23, r23
    3cd0:	88 1f       	adc	r24, r24
    3cd2:	c2 f7       	brpl	.-16     	; 0x3cc4 <__addsf3x+0x6a>
    3cd4:	0e c0       	rjmp	.+28     	; 0x3cf2 <__addsf3x+0x98>
    3cd6:	ba 0f       	add	r27, r26
    3cd8:	62 1f       	adc	r22, r18
    3cda:	73 1f       	adc	r23, r19
    3cdc:	84 1f       	adc	r24, r20
    3cde:	48 f4       	brcc	.+18     	; 0x3cf2 <__addsf3x+0x98>
    3ce0:	87 95       	ror	r24
    3ce2:	77 95       	ror	r23
    3ce4:	67 95       	ror	r22
    3ce6:	b7 95       	ror	r27
    3ce8:	f7 95       	ror	r31
    3cea:	9e 3f       	cpi	r25, 0xFE	; 254
    3cec:	08 f0       	brcs	.+2      	; 0x3cf0 <__addsf3x+0x96>
    3cee:	b3 cf       	rjmp	.-154    	; 0x3c56 <sin+0x22>
    3cf0:	93 95       	inc	r25
    3cf2:	88 0f       	add	r24, r24
    3cf4:	08 f0       	brcs	.+2      	; 0x3cf8 <__addsf3x+0x9e>
    3cf6:	99 27       	eor	r25, r25
    3cf8:	ee 0f       	add	r30, r30
    3cfa:	97 95       	ror	r25
    3cfc:	87 95       	ror	r24
    3cfe:	08 95       	ret

00003d00 <__fp_inf>:
    3d00:	97 f9       	bld	r25, 7
    3d02:	9f 67       	ori	r25, 0x7F	; 127
    3d04:	80 e8       	ldi	r24, 0x80	; 128
    3d06:	70 e0       	ldi	r23, 0x00	; 0
    3d08:	60 e0       	ldi	r22, 0x00	; 0
    3d0a:	08 95       	ret

00003d0c <__fp_mintl>:
    3d0c:	88 23       	and	r24, r24
    3d0e:	71 f4       	brne	.+28     	; 0x3d2c <__fp_mintl+0x20>
    3d10:	77 23       	and	r23, r23
    3d12:	21 f0       	breq	.+8      	; 0x3d1c <__fp_mintl+0x10>
    3d14:	98 50       	subi	r25, 0x08	; 8
    3d16:	87 2b       	or	r24, r23
    3d18:	76 2f       	mov	r23, r22
    3d1a:	07 c0       	rjmp	.+14     	; 0x3d2a <__fp_mintl+0x1e>
    3d1c:	66 23       	and	r22, r22
    3d1e:	11 f4       	brne	.+4      	; 0x3d24 <__fp_mintl+0x18>
    3d20:	99 27       	eor	r25, r25
    3d22:	0d c0       	rjmp	.+26     	; 0x3d3e <__fp_mintl+0x32>
    3d24:	90 51       	subi	r25, 0x10	; 16
    3d26:	86 2b       	or	r24, r22
    3d28:	70 e0       	ldi	r23, 0x00	; 0
    3d2a:	60 e0       	ldi	r22, 0x00	; 0
    3d2c:	2a f0       	brmi	.+10     	; 0x3d38 <__fp_mintl+0x2c>
    3d2e:	9a 95       	dec	r25
    3d30:	66 0f       	add	r22, r22
    3d32:	77 1f       	adc	r23, r23
    3d34:	88 1f       	adc	r24, r24
    3d36:	da f7       	brpl	.-10     	; 0x3d2e <__fp_mintl+0x22>
    3d38:	88 0f       	add	r24, r24
    3d3a:	96 95       	lsr	r25
    3d3c:	87 95       	ror	r24
    3d3e:	97 f9       	bld	r25, 7
    3d40:	08 95       	ret

00003d42 <__fp_mpack>:
    3d42:	9f 3f       	cpi	r25, 0xFF	; 255
    3d44:	31 f0       	breq	.+12     	; 0x3d52 <__fp_mpack_finite+0xc>

00003d46 <__fp_mpack_finite>:
    3d46:	91 50       	subi	r25, 0x01	; 1
    3d48:	20 f4       	brcc	.+8      	; 0x3d52 <__fp_mpack_finite+0xc>
    3d4a:	87 95       	ror	r24
    3d4c:	77 95       	ror	r23
    3d4e:	67 95       	ror	r22
    3d50:	b7 95       	ror	r27
    3d52:	88 0f       	add	r24, r24
    3d54:	91 1d       	adc	r25, r1
    3d56:	96 95       	lsr	r25
    3d58:	87 95       	ror	r24
    3d5a:	97 f9       	bld	r25, 7
    3d5c:	08 95       	ret

00003d5e <__fp_nan>:
    3d5e:	9f ef       	ldi	r25, 0xFF	; 255
    3d60:	80 ec       	ldi	r24, 0xC0	; 192
    3d62:	08 95       	ret

00003d64 <__fp_powsodd>:
    3d64:	9f 93       	push	r25
    3d66:	8f 93       	push	r24
    3d68:	7f 93       	push	r23
    3d6a:	6f 93       	push	r22
    3d6c:	ff 93       	push	r31
    3d6e:	ef 93       	push	r30
    3d70:	9b 01       	movw	r18, r22
    3d72:	ac 01       	movw	r20, r24
    3d74:	6b d9       	rcall	.-3370   	; 0x304c <__mulsf3>
    3d76:	ef 91       	pop	r30
    3d78:	ff 91       	pop	r31
    3d7a:	2b d0       	rcall	.+86     	; 0x3dd2 <__fp_powser>
    3d7c:	2f 91       	pop	r18
    3d7e:	3f 91       	pop	r19
    3d80:	4f 91       	pop	r20
    3d82:	5f 91       	pop	r21
    3d84:	63 c9       	rjmp	.-3386   	; 0x304c <__mulsf3>

00003d86 <__fp_pscA>:
    3d86:	00 24       	eor	r0, r0
    3d88:	0a 94       	dec	r0
    3d8a:	16 16       	cp	r1, r22
    3d8c:	17 06       	cpc	r1, r23
    3d8e:	18 06       	cpc	r1, r24
    3d90:	09 06       	cpc	r0, r25
    3d92:	08 95       	ret

00003d94 <__fp_pscB>:
    3d94:	00 24       	eor	r0, r0
    3d96:	0a 94       	dec	r0
    3d98:	12 16       	cp	r1, r18
    3d9a:	13 06       	cpc	r1, r19
    3d9c:	14 06       	cpc	r1, r20
    3d9e:	05 06       	cpc	r0, r21
    3da0:	08 95       	ret

00003da2 <__fp_round>:
    3da2:	09 2e       	mov	r0, r25
    3da4:	03 94       	inc	r0
    3da6:	00 0c       	add	r0, r0
    3da8:	11 f4       	brne	.+4      	; 0x3dae <__fp_round+0xc>
    3daa:	88 23       	and	r24, r24
    3dac:	52 f0       	brmi	.+20     	; 0x3dc2 <__fp_round+0x20>
    3dae:	bb 0f       	add	r27, r27
    3db0:	40 f4       	brcc	.+16     	; 0x3dc2 <__fp_round+0x20>
    3db2:	bf 2b       	or	r27, r31
    3db4:	11 f4       	brne	.+4      	; 0x3dba <__fp_round+0x18>
    3db6:	60 ff       	sbrs	r22, 0
    3db8:	04 c0       	rjmp	.+8      	; 0x3dc2 <__fp_round+0x20>
    3dba:	6f 5f       	subi	r22, 0xFF	; 255
    3dbc:	7f 4f       	sbci	r23, 0xFF	; 255
    3dbe:	8f 4f       	sbci	r24, 0xFF	; 255
    3dc0:	9f 4f       	sbci	r25, 0xFF	; 255
    3dc2:	08 95       	ret

00003dc4 <__fp_zero>:
    3dc4:	e8 94       	clt

00003dc6 <__fp_szero>:
    3dc6:	bb 27       	eor	r27, r27
    3dc8:	66 27       	eor	r22, r22
    3dca:	77 27       	eor	r23, r23
    3dcc:	cb 01       	movw	r24, r22
    3dce:	97 f9       	bld	r25, 7
    3dd0:	08 95       	ret

00003dd2 <__fp_powser>:
    3dd2:	df 93       	push	r29
    3dd4:	cf 93       	push	r28
    3dd6:	1f 93       	push	r17
    3dd8:	0f 93       	push	r16
    3dda:	ff 92       	push	r15
    3ddc:	ef 92       	push	r14
    3dde:	df 92       	push	r13
    3de0:	7b 01       	movw	r14, r22
    3de2:	8c 01       	movw	r16, r24
    3de4:	68 94       	set
    3de6:	05 c0       	rjmp	.+10     	; 0x3df2 <__fp_powser+0x20>
    3de8:	da 2e       	mov	r13, r26
    3dea:	ef 01       	movw	r28, r30
    3dec:	21 d0       	rcall	.+66     	; 0x3e30 <__mulsf3x>
    3dee:	fe 01       	movw	r30, r28
    3df0:	e8 94       	clt
    3df2:	a5 91       	lpm	r26, Z+
    3df4:	25 91       	lpm	r18, Z+
    3df6:	35 91       	lpm	r19, Z+
    3df8:	45 91       	lpm	r20, Z+
    3dfa:	55 91       	lpm	r21, Z+
    3dfc:	ae f3       	brts	.-22     	; 0x3de8 <__fp_powser+0x16>
    3dfe:	ef 01       	movw	r28, r30
    3e00:	2c df       	rcall	.-424    	; 0x3c5a <__addsf3x>
    3e02:	fe 01       	movw	r30, r28
    3e04:	97 01       	movw	r18, r14
    3e06:	a8 01       	movw	r20, r16
    3e08:	da 94       	dec	r13
    3e0a:	79 f7       	brne	.-34     	; 0x3dea <__fp_powser+0x18>
    3e0c:	df 90       	pop	r13
    3e0e:	ef 90       	pop	r14
    3e10:	ff 90       	pop	r15
    3e12:	0f 91       	pop	r16
    3e14:	1f 91       	pop	r17
    3e16:	cf 91       	pop	r28
    3e18:	df 91       	pop	r29
    3e1a:	08 95       	ret
    3e1c:	b4 df       	rcall	.-152    	; 0x3d86 <__fp_pscA>
    3e1e:	28 f0       	brcs	.+10     	; 0x3e2a <__fp_powser+0x58>
    3e20:	b9 df       	rcall	.-142    	; 0x3d94 <__fp_pscB>
    3e22:	18 f0       	brcs	.+6      	; 0x3e2a <__fp_powser+0x58>
    3e24:	95 23       	and	r25, r21
    3e26:	09 f0       	breq	.+2      	; 0x3e2a <__fp_powser+0x58>
    3e28:	6b cf       	rjmp	.-298    	; 0x3d00 <__fp_inf>
    3e2a:	99 cf       	rjmp	.-206    	; 0x3d5e <__fp_nan>
    3e2c:	11 24       	eor	r1, r1
    3e2e:	cb cf       	rjmp	.-106    	; 0x3dc6 <__fp_szero>

00003e30 <__mulsf3x>:
    3e30:	bf de       	rcall	.-642    	; 0x3bb0 <__fp_split3>
    3e32:	a0 f3       	brcs	.-24     	; 0x3e1c <__fp_powser+0x4a>

00003e34 <__mulsf3_pse>:
    3e34:	95 9f       	mul	r25, r21
    3e36:	d1 f3       	breq	.-12     	; 0x3e2c <__fp_powser+0x5a>
    3e38:	95 0f       	add	r25, r21
    3e3a:	50 e0       	ldi	r21, 0x00	; 0
    3e3c:	55 1f       	adc	r21, r21
    3e3e:	62 9f       	mul	r22, r18
    3e40:	f0 01       	movw	r30, r0
    3e42:	72 9f       	mul	r23, r18
    3e44:	bb 27       	eor	r27, r27
    3e46:	f0 0d       	add	r31, r0
    3e48:	b1 1d       	adc	r27, r1
    3e4a:	63 9f       	mul	r22, r19
    3e4c:	aa 27       	eor	r26, r26
    3e4e:	f0 0d       	add	r31, r0
    3e50:	b1 1d       	adc	r27, r1
    3e52:	aa 1f       	adc	r26, r26
    3e54:	64 9f       	mul	r22, r20
    3e56:	66 27       	eor	r22, r22
    3e58:	b0 0d       	add	r27, r0
    3e5a:	a1 1d       	adc	r26, r1
    3e5c:	66 1f       	adc	r22, r22
    3e5e:	82 9f       	mul	r24, r18
    3e60:	22 27       	eor	r18, r18
    3e62:	b0 0d       	add	r27, r0
    3e64:	a1 1d       	adc	r26, r1
    3e66:	62 1f       	adc	r22, r18
    3e68:	73 9f       	mul	r23, r19
    3e6a:	b0 0d       	add	r27, r0
    3e6c:	a1 1d       	adc	r26, r1
    3e6e:	62 1f       	adc	r22, r18
    3e70:	83 9f       	mul	r24, r19
    3e72:	a0 0d       	add	r26, r0
    3e74:	61 1d       	adc	r22, r1
    3e76:	22 1f       	adc	r18, r18
    3e78:	74 9f       	mul	r23, r20
    3e7a:	33 27       	eor	r19, r19
    3e7c:	a0 0d       	add	r26, r0
    3e7e:	61 1d       	adc	r22, r1
    3e80:	23 1f       	adc	r18, r19
    3e82:	84 9f       	mul	r24, r20
    3e84:	60 0d       	add	r22, r0
    3e86:	21 1d       	adc	r18, r1
    3e88:	82 2f       	mov	r24, r18
    3e8a:	76 2f       	mov	r23, r22
    3e8c:	6a 2f       	mov	r22, r26
    3e8e:	11 24       	eor	r1, r1
    3e90:	9f 57       	subi	r25, 0x7F	; 127
    3e92:	50 40       	sbci	r21, 0x00	; 0
    3e94:	8a f0       	brmi	.+34     	; 0x3eb8 <__mulsf3_pse+0x84>
    3e96:	e1 f0       	breq	.+56     	; 0x3ed0 <__mulsf3_pse+0x9c>
    3e98:	88 23       	and	r24, r24
    3e9a:	4a f0       	brmi	.+18     	; 0x3eae <__mulsf3_pse+0x7a>
    3e9c:	ee 0f       	add	r30, r30
    3e9e:	ff 1f       	adc	r31, r31
    3ea0:	bb 1f       	adc	r27, r27
    3ea2:	66 1f       	adc	r22, r22
    3ea4:	77 1f       	adc	r23, r23
    3ea6:	88 1f       	adc	r24, r24
    3ea8:	91 50       	subi	r25, 0x01	; 1
    3eaa:	50 40       	sbci	r21, 0x00	; 0
    3eac:	a9 f7       	brne	.-22     	; 0x3e98 <__mulsf3_pse+0x64>
    3eae:	9e 3f       	cpi	r25, 0xFE	; 254
    3eb0:	51 05       	cpc	r21, r1
    3eb2:	70 f0       	brcs	.+28     	; 0x3ed0 <__mulsf3_pse+0x9c>
    3eb4:	25 cf       	rjmp	.-438    	; 0x3d00 <__fp_inf>
    3eb6:	87 cf       	rjmp	.-242    	; 0x3dc6 <__fp_szero>
    3eb8:	5f 3f       	cpi	r21, 0xFF	; 255
    3eba:	ec f3       	brlt	.-6      	; 0x3eb6 <__mulsf3_pse+0x82>
    3ebc:	98 3e       	cpi	r25, 0xE8	; 232
    3ebe:	dc f3       	brlt	.-10     	; 0x3eb6 <__mulsf3_pse+0x82>
    3ec0:	86 95       	lsr	r24
    3ec2:	77 95       	ror	r23
    3ec4:	67 95       	ror	r22
    3ec6:	b7 95       	ror	r27
    3ec8:	f7 95       	ror	r31
    3eca:	e7 95       	ror	r30
    3ecc:	9f 5f       	subi	r25, 0xFF	; 255
    3ece:	c1 f7       	brne	.-16     	; 0x3ec0 <__mulsf3_pse+0x8c>
    3ed0:	fe 2b       	or	r31, r30
    3ed2:	88 0f       	add	r24, r24
    3ed4:	91 1d       	adc	r25, r1
    3ed6:	96 95       	lsr	r25
    3ed8:	87 95       	ror	r24
    3eda:	97 f9       	bld	r25, 7
    3edc:	08 95       	ret

00003ede <_exit>:
    3ede:	f8 94       	cli

00003ee0 <__stop_program>:
    3ee0:	ff cf       	rjmp	.-2      	; 0x3ee0 <__stop_program>
