Archive member included because of file (symbol)

c:/program files/winavr-20070525rc2/bin/../lib/gcc/avr/4.1.2/avr5\libgcc.a(_divmodhi4.o)
                              Main.o (__divmodhi4)
c:/program files/winavr-20070525rc2/bin/../lib/gcc/avr/4.1.2/avr5\libgcc.a(_exit.o)
                              c:/program files/winavr-20070525rc2/bin/../lib/gcc/avr/4.1.2/../../../../avr/lib/avr5/crtm16.o (exit)
c:/program files/winavr-20070525rc2/bin/../lib/gcc/avr/4.1.2/avr5\libgcc.a(_copy_data.o)
                              Main.o (__do_copy_data)
c:/program files/winavr-20070525rc2/bin/../lib/gcc/avr/4.1.2/avr5\libgcc.a(_clear_bss.o)
                              Main.o (__do_clear_bss)
c:/program files/winavr-20070525rc2/bin/../lib/gcc/avr/4.1.2/avr5\libgcc.a(_udivmodhi4.o)
                              c:/program files/winavr-20070525rc2/bin/../lib/gcc/avr/4.1.2/avr5\libgcc.a(_divmodhi4.o) (__udivmodhi4)

Allocating common symbols
Common symbol       size              file

rx_buf              0x113             Main.o
tx_buf              0x113             Main.o

Discarded input sections

 .stabstr       0x00000000        0x0 c:/program files/winavr-20070525rc2/bin/../lib/gcc/avr/4.1.2/../../../../avr/lib/avr5/crtm16.o

Memory Configuration

Name             Origin             Length             Attributes
text             0x00000000         0x00020000         xr
data             0x00800060         0x0000ffa0         rw !x
eeprom           0x00810000         0x00010000         rw !x
*default*        0x00000000         0xffffffff

Linker script and memory map

LOAD c:/program files/winavr-20070525rc2/bin/../lib/gcc/avr/4.1.2/../../../../avr/lib/avr5/crtm16.o
LOAD Main.o
Address of section .text set to 0x2da0
LOAD c:/program files/winavr-20070525rc2/bin/../lib/gcc/avr/4.1.2/avr5\libgcc.a
LOAD c:/program files/winavr-20070525rc2/bin/../lib/gcc/avr/4.1.2/../../../../avr/lib/avr5\libc.a
LOAD c:/program files/winavr-20070525rc2/bin/../lib/gcc/avr/4.1.2/avr5\libgcc.a

.hash
 *(.hash)

.dynsym
 *(.dynsym)

.dynstr
 *(.dynstr)

.gnu.version
 *(.gnu.version)

.gnu.version_d
 *(.gnu.version_d)

.gnu.version_r
 *(.gnu.version_r)

.rel.init
 *(.rel.init)

.rela.init
 *(.rela.init)

.rel.text
 *(.rel.text)
 *(.rel.text.*)
 *(.rel.gnu.linkonce.t*)

.rela.text
 *(.rela.text)
 *(.rela.text.*)
 *(.rela.gnu.linkonce.t*)

.rel.fini
 *(.rel.fini)

.rela.fini
 *(.rela.fini)

.rel.rodata
 *(.rel.rodata)
 *(.rel.rodata.*)
 *(.rel.gnu.linkonce.r*)

.rela.rodata
 *(.rela.rodata)
 *(.rela.rodata.*)
 *(.rela.gnu.linkonce.r*)

.rel.data
 *(.rel.data)
 *(.rel.data.*)
 *(.rel.gnu.linkonce.d*)

.rela.data
 *(.rela.data)
 *(.rela.data.*)
 *(.rela.gnu.linkonce.d*)

.rel.ctors
 *(.rel.ctors)

.rela.ctors
 *(.rela.ctors)

.rel.dtors
 *(.rel.dtors)

.rela.dtors
 *(.rela.dtors)

.rel.got
 *(.rel.got)

.rela.got
 *(.rela.got)

.rel.bss
 *(.rel.bss)

.rela.bss
 *(.rela.bss)

.rel.plt
 *(.rel.plt)

.rela.plt
 *(.rela.plt)

.text           0x00002da0      0xc4c
 *(.vectors)
 .vectors       0x00002da0       0x54 c:/program files/winavr-20070525rc2/bin/../lib/gcc/avr/4.1.2/../../../../avr/lib/avr5/crtm16.o
                0x00002da0                __vectors
                0x00002da0                __vector_default
 *(.vectors)
 *(.progmem.gcc*)
 .progmem.gcc_sw_table
                0x00002df4       0x3a Main.o
 *(.progmem*)
                0x00002e2e                . = ALIGN (0x2)
                0x00002e2e                __trampolines_start = .
 *(.trampolines)
 .trampolines   0x00002e2e        0x0 linker stubs
 *(.trampolines*)
                0x00002e2e                __trampolines_end = .
 *(.jumptables)
 *(.jumptables*)
 *(.lowtext)
 *(.lowtext*)
                0x00002e2e                __ctors_start = .
 *(.ctors)
                0x00002e2e                __ctors_end = .
                0x00002e2e                __dtors_start = .
 *(.dtors)
                0x00002e2e                __dtors_end = .
 SORT(*)(.ctors)
 SORT(*)(.dtors)
 *(.init0)
 .init0         0x00002e2e        0x0 c:/program files/winavr-20070525rc2/bin/../lib/gcc/avr/4.1.2/../../../../avr/lib/avr5/crtm16.o
                0x00002e2e                __init
 *(.init0)
 *(.init1)
 *(.init1)
 *(.init2)
 .init2         0x00002e2e        0xc c:/program files/winavr-20070525rc2/bin/../lib/gcc/avr/4.1.2/../../../../avr/lib/avr5/crtm16.o
 *(.init2)
 *(.init3)
 *(.init3)
 *(.init4)
 .init4         0x00002e3a       0x16 c:/program files/winavr-20070525rc2/bin/../lib/gcc/avr/4.1.2/avr5\libgcc.a(_copy_data.o)
                0x00002e3a                __do_copy_data
 .init4         0x00002e50       0x10 c:/program files/winavr-20070525rc2/bin/../lib/gcc/avr/4.1.2/avr5\libgcc.a(_clear_bss.o)
                0x00002e50                __do_clear_bss
 *(.init4)
 *(.init5)
 *(.init5)
 *(.init6)
 *(.init6)
 *(.init7)
 *(.init7)
 *(.init8)
 *(.init8)
 *(.init9)
 .init9         0x00002e60        0x8 c:/program files/winavr-20070525rc2/bin/../lib/gcc/avr/4.1.2/../../../../avr/lib/avr5/crtm16.o
 *(.init9)
 *(.text)
 .text          0x00002e68        0x4 c:/program files/winavr-20070525rc2/bin/../lib/gcc/avr/4.1.2/../../../../avr/lib/avr5/crtm16.o
                0x00002e68                __vector_1
                0x00002e68                __vector_12
                0x00002e68                __bad_interrupt
                0x00002e68                __vector_6
                0x00002e68                __vector_3
                0x00002e68                __vector_11
                0x00002e68                __vector_13
                0x00002e68                __vector_17
                0x00002e68                __vector_19
                0x00002e68                __vector_7
                0x00002e68                __vector_5
                0x00002e68                __vector_4
                0x00002e68                __vector_9
                0x00002e68                __vector_2
                0x00002e68                __vector_15
                0x00002e68                __vector_8
                0x00002e68                __vector_14
                0x00002e68                __vector_10
                0x00002e68                __vector_16
                0x00002e68                __vector_18
                0x00002e68                __vector_20
 .text          0x00002e6c      0xb30 Main.o
                0x000037dc                cmdreadosccalisp
                0x00003382                cmdprogrameepromisp
                0x00002fee                cmdSignOn
                0x00002f7e                sendResponse
                0x000037f4                programfuseisp
                0x000037e8                cmdReadSignatureIsp
                0x00003894                cmdSetParameter
                0x00003196                cmdreadflashisp
                0x00002e6c                putch
                0x00003350                cmdosccal
                0x00002e74                getch
                0x00003744                ReadfusebitIsp
                0x00003844                cmdprogramlockisp
                0x00003838                cmdprogramfuseisp
                0x00002ee6                get_message
                0x00002e94                get_message_body
                0x00002e7e                flash_led
                0x000030ac                cmdLeaveProgmodeIsp
                0x000032c2                cmdreadeepromisp
                0x00003734                cmdEnterProgmodeIsp
                0x000038b0                main
                0x00003366                delay_ms
                0x00003618                EnterProgmodeIsp
                0x0000345a                cmdprogramflashisp
                0x0000360c                spi
                0x00003116                cmdloadaddress
                0x000035bc                cmdchiperaseisp
                0x00003850                SetParameter
                0x00003038                cmdGetParameter
                0x000030d2                cmdspimulti
                0x000037d0                cmdreadlockisp
                0x000037c4                cmdreadfuseisp
 .text          0x0000399c        0x0 c:/program files/winavr-20070525rc2/bin/../lib/gcc/avr/4.1.2/avr5\libgcc.a(_divmodhi4.o)
 .text          0x0000399c        0x0 c:/program files/winavr-20070525rc2/bin/../lib/gcc/avr/4.1.2/avr5\libgcc.a(_exit.o)
 .text          0x0000399c        0x0 c:/program files/winavr-20070525rc2/bin/../lib/gcc/avr/4.1.2/avr5\libgcc.a(_copy_data.o)
 .text          0x0000399c        0x0 c:/program files/winavr-20070525rc2/bin/../lib/gcc/avr/4.1.2/avr5\libgcc.a(_clear_bss.o)
 .text          0x0000399c        0x0 c:/program files/winavr-20070525rc2/bin/../lib/gcc/avr/4.1.2/avr5\libgcc.a(_udivmodhi4.o)
                0x0000399c                . = ALIGN (0x2)
 *(.text.*)
 .text.libgcc   0x0000399c       0x26 c:/program files/winavr-20070525rc2/bin/../lib/gcc/avr/4.1.2/avr5\libgcc.a(_divmodhi4.o)
                0x0000399c                __divmodhi4
                0x0000399c                _div
 .text.libgcc   0x000039c2        0x0 c:/program files/winavr-20070525rc2/bin/../lib/gcc/avr/4.1.2/avr5\libgcc.a(_exit.o)
 .text.libgcc   0x000039c2        0x0 c:/program files/winavr-20070525rc2/bin/../lib/gcc/avr/4.1.2/avr5\libgcc.a(_copy_data.o)
 .text.libgcc   0x000039c2        0x0 c:/program files/winavr-20070525rc2/bin/../lib/gcc/avr/4.1.2/avr5\libgcc.a(_clear_bss.o)
 .text.libgcc   0x000039c2       0x28 c:/program files/winavr-20070525rc2/bin/../lib/gcc/avr/4.1.2/avr5\libgcc.a(_udivmodhi4.o)
                0x000039c2                __udivmodhi4
                0x000039ea                . = ALIGN (0x2)
 *(.fini9)
 .fini9         0x000039ea        0x0 c:/program files/winavr-20070525rc2/bin/../lib/gcc/avr/4.1.2/avr5\libgcc.a(_exit.o)
                0x000039ea                exit
                0x000039ea                _exit
 *(.fini9)
 *(.fini8)
 *(.fini8)
 *(.fini7)
 *(.fini7)
 *(.fini6)
 *(.fini6)
 *(.fini5)
 *(.fini5)
 *(.fini4)
 *(.fini4)
 *(.fini3)
 *(.fini3)
 *(.fini2)
 *(.fini2)
 *(.fini1)
 *(.fini1)
 *(.fini0)
 .fini0         0x000039ea        0x2 c:/program files/winavr-20070525rc2/bin/../lib/gcc/avr/4.1.2/avr5\libgcc.a(_exit.o)
 *(.fini0)
                0x000039ec                _etext = .

.data           0x00800060        0x2 load address 0x000039ec
                0x00800060                PROVIDE (__data_start, .)
 *(.data)
 .data          0x00800060        0x0 c:/program files/winavr-20070525rc2/bin/../lib/gcc/avr/4.1.2/../../../../avr/lib/avr5/crtm16.o
 .data          0x00800060        0x2 Main.o
                0x00800060                sckdurationdef
                0x00800061                pscalefsys
 .data          0x00800062        0x0 c:/program files/winavr-20070525rc2/bin/../lib/gcc/avr/4.1.2/avr5\libgcc.a(_divmodhi4.o)
 .data          0x00800062        0x0 c:/program files/winavr-20070525rc2/bin/../lib/gcc/avr/4.1.2/avr5\libgcc.a(_exit.o)
 .data          0x00800062        0x0 c:/program files/winavr-20070525rc2/bin/../lib/gcc/avr/4.1.2/avr5\libgcc.a(_copy_data.o)
 .data          0x00800062        0x0 c:/program files/winavr-20070525rc2/bin/../lib/gcc/avr/4.1.2/avr5\libgcc.a(_clear_bss.o)
 .data          0x00800062        0x0 c:/program files/winavr-20070525rc2/bin/../lib/gcc/avr/4.1.2/avr5\libgcc.a(_udivmodhi4.o)
 *(.data*)
 *(.rodata)
 *(.rodata*)
 *(.gnu.linkonce.d*)
                0x00800062                . = ALIGN (0x2)
                0x00800062                _edata = .
                0x00800062                PROVIDE (__data_end, .)

.bss            0x00800062      0x234
                0x00800062                PROVIDE (__bss_start, .)
 *(.bss)
 .bss           0x00800062        0x0 c:/program files/winavr-20070525rc2/bin/../lib/gcc/avr/4.1.2/../../../../avr/lib/avr5/crtm16.o
 .bss           0x00800062        0xe Main.o
                0x00800068                address_flash
                0x00800064                tx_ptr
                0x00800066                rx_chm
                0x0080006c                address_eeprom
                0x0080006e                extended_address
                0x00800062                rx_ptr
                0x0080006f                cmatchdef
                0x00800067                tx_chm
 .bss           0x00800070        0x0 c:/program files/winavr-20070525rc2/bin/../lib/gcc/avr/4.1.2/avr5\libgcc.a(_divmodhi4.o)
 .bss           0x00800070        0x0 c:/program files/winavr-20070525rc2/bin/../lib/gcc/avr/4.1.2/avr5\libgcc.a(_exit.o)
 .bss           0x00800070        0x0 c:/program files/winavr-20070525rc2/bin/../lib/gcc/avr/4.1.2/avr5\libgcc.a(_copy_data.o)
 .bss           0x00800070        0x0 c:/program files/winavr-20070525rc2/bin/../lib/gcc/avr/4.1.2/avr5\libgcc.a(_clear_bss.o)
 .bss           0x00800070        0x0 c:/program files/winavr-20070525rc2/bin/../lib/gcc/avr/4.1.2/avr5\libgcc.a(_udivmodhi4.o)
 *(.bss*)
 *(COMMON)
 COMMON         0x00800070      0x226 Main.o
                0x00800070                rx_buf
                0x00800183                tx_buf
                0x00800296                PROVIDE (__bss_end, .)
                0x000039ec                __data_load_start = LOADADDR (.data)
                0x000039ee                __data_load_end = (__data_load_start + SIZEOF (.data))

.noinit         0x00800296        0x0
                0x00800296                PROVIDE (__noinit_start, .)
 *(.noinit*)
                0x00800296                PROVIDE (__noinit_end, .)
                0x00800296                _end = .
                0x00800296                PROVIDE (__heap_start, .)

.eeprom         0x00810000        0x0
 *(.eeprom*)
                0x00810000                __eeprom_end = .

.stab           0x00000000      0x378
 *(.stab)
 .stab          0x00000000      0x378 c:/program files/winavr-20070525rc2/bin/../lib/gcc/avr/4.1.2/../../../../avr/lib/avr5/crtm16.o

.stabstr        0x00000000       0x71
 *(.stabstr)
 .stabstr       0x00000000       0x71 c:/program files/winavr-20070525rc2/bin/../lib/gcc/avr/4.1.2/../../../../avr/lib/avr5/crtm16.o

.stab.excl
 *(.stab.excl)

.stab.exclstr
 *(.stab.exclstr)

.stab.index
 *(.stab.index)

.stab.indexstr
 *(.stab.indexstr)

.comment
 *(.comment)

.debug
 *(.debug)

.line
 *(.line)

.debug_srcinfo
 *(.debug_srcinfo)

.debug_sfnames
 *(.debug_sfnames)

.debug_aranges  0x00000000       0x20
 *(.debug_aranges)
 .debug_aranges
                0x00000000       0x20 Main.o

.debug_pubnames
                0x00000000      0x302
 *(.debug_pubnames)
 .debug_pubnames
                0x00000000      0x302 Main.o

.debug_info     0x00000000      0xdca
 *(.debug_info)
 .debug_info    0x00000000      0xdca Main.o
 *(.gnu.linkonce.wi.*)

.debug_abbrev   0x00000000      0x228
 *(.debug_abbrev)
 .debug_abbrev  0x00000000      0x228 Main.o

.debug_line     0x00000000     0x126d
 *(.debug_line)
 .debug_line    0x00000000     0x126d Main.o

.debug_frame    0x00000000      0x210
 *(.debug_frame)
 .debug_frame   0x00000000      0x210 Main.o

.debug_str      0x00000000      0x2fd
 *(.debug_str)
 .debug_str     0x00000000      0x2fd Main.o
                                0x391 (size before relaxing)

.debug_loc      0x00000000      0x150
 *(.debug_loc)
 .debug_loc     0x00000000      0x150 Main.o

.debug_macinfo
 *(.debug_macinfo)
OUTPUT(Main.elf elf32-avr)
LOAD linker stubs
