   1               		.file	"Main.c"
   2               		.arch atmega16
   3               	__SREG__ = 0x3f
   4               	__SP_H__ = 0x3e
   5               	__SP_L__ = 0x3d
   6               	__tmp_reg__ = 0
   7               	__zero_reg__ = 1
   8               		.global __do_copy_data
   9               		.global __do_clear_bss
  17               	.Ltext0:
  18               	.global	putch
  20               	putch:
  21               	.LFB8:
  22               	.LM1:
  23               	/* prologue: frame size=0 */
  24               	/* prologue end (size=0) */
  25               	.LVL0:
  26               	.L3:
  27               	.LM2:
  28 0000 5D9B      		sbis 43-0x20,5
  29 0002 00C0      		rjmp .L3
  30               	.LM3:
  31 0004 8CB9      		out 44-0x20,r24
  32               	/* epilogue: frame size=0 */
  33 0006 0895      		ret
  34               	/* epilogue end (size=1) */
  35               	/* function putch size 4 (3) */
  36               	.LFE8:
  38               	.global	getch
  40               	getch:
  41               	.LFB9:
  42               	.LM4:
  43               	/* prologue: frame size=0 */
  44               	/* prologue end (size=0) */
  45               	.L10:
  46               	.LM5:
  47 0008 5F9B      		sbis 43-0x20,7
  48 000a 00C0      		rjmp .L10
  49               	.LM6:
  50 000c 8CB1      		in r24,44-0x20
  51               	.LM7:
  52 000e 9927      		clr r25
  53               	/* epilogue: frame size=0 */
  54 0010 0895      		ret
  55               	/* epilogue end (size=1) */
  56               	/* function getch size 5 (4) */
  57               	.LFE9:
  59               	.global	flash_led
  61               	flash_led:
  62               	.LFB10:
  63               	.LM8:
  64               	/* prologue: frame size=0 */
  65               	/* prologue end (size=0) */
  66               	.LVL1:
  67               	.LM9:
  68 0012 8823      		tst r24
  69 0014 01F4      		brne .L16
  70               	.LM10:
  71 0016 83E0      		ldi r24,lo8(3)
  72               	.L16:
  73 0018 90E0      		ldi r25,lo8(0)
  74               	.LVL2:
  75 001a 00C0      		rjmp .L18
  76               	.L19:
  77               	.LM11:
  78 001c C298      		cbi 56-0x20,2
  79               	.LM12:
  80 001e C29A      		sbi 56-0x20,2
  81               	.LM13:
  82 0020 9F5F      		subi r25,lo8(-(1))
  83               	.L18:
  84 0022 9817      		cp r25,r24
  85 0024 01F4      		brne .L19
  86               	/* epilogue: frame size=0 */
  87 0026 0895      		ret
  88               	/* epilogue end (size=1) */
  89               	/* function flash_led size 11 (10) */
  90               	.LFE10:
  92               	.global	get_message_body
  94               	get_message_body:
  95               	.LFB12:
  96               	.LM14:
  97               	/* prologue: frame size=0 */
  98               	/* prologue end (size=0) */
  99               	.LM15:
 100 0028 8091 0000 		lds r24,rx_buf+2
 101 002c 9927      		clr r25
 102 002e 582F      		mov r21,r24
 103 0030 4427      		clr r20
 104               	.LVL3:
 105 0032 8091 0000 		lds r24,rx_buf+3
 106 0036 480F      		add r20,r24
 107 0038 511D      		adc r21,__zero_reg__
 108 003a 2091 0000 		lds r18,rx_ptr
 109 003e 3091 0000 		lds r19,(rx_ptr)+1
 110 0042 E091 0000 		lds r30,rx_chm
 111 0046 D901      		movw r26,r18
 112 0048 A050      		subi r26,lo8(-(rx_buf))
 113 004a B040      		sbci r27,hi8(-(rx_buf))
 114 004c 60E0      		ldi r22,lo8(0)
 115 004e 70E0      		ldi r23,hi8(0)
 116               	.LVL4:
 117 0050 00C0      		rjmp .L23
 118               	.L28:
 119               	.LBB148:
 120               	.LBB149:
 121               	.LM16:
 122 0052 5F9B      		sbis 43-0x20,7
 123 0054 00C0      		rjmp .L28
 124               	.LM17:
 125 0056 8CB1      		in r24,44-0x20
 126               	.LBE149:
 127               	.LBE148:
 128               	.LM18:
 129 0058 9927      		clr r25
 130 005a 8D93      		st X+,r24
 131               	.LM19:
 132 005c E827      		eor r30,r24
 133               	.LM20:
 134 005e 6F5F      		subi r22,lo8(-(1))
 135 0060 7F4F      		sbci r23,hi8(-(1))
 136 0062 2F5F      		subi r18,lo8(-(1))
 137 0064 3F4F      		sbci r19,hi8(-(1))
 138               	.L23:
 139 0066 6417      		cp r22,r20
 140 0068 7507      		cpc r23,r21
 141 006a 04F0      		brlt .L28
 142 006c 3093 0000 		sts (rx_ptr)+1,r19
 143 0070 2093 0000 		sts rx_ptr,r18
 144 0074 E093 0000 		sts rx_chm,r30
 145               	/* epilogue: frame size=0 */
 146 0078 0895      		ret
 147               	/* epilogue end (size=1) */
 148               	/* function get_message_body size 41 (40) */
 149               	.LFE12:
 151               	.global	get_message
 153               	get_message:
 154               	.LFB11:
 155               	.LM21:
 156               	/* prologue: frame size=0 */
 157               	/* prologue end (size=0) */
 158               	.L32:
 159               	.LBB150:
 160               	.LBB151:
 161               	.LM22:
 162 007a 5F9B      		sbis 43-0x20,7
 163 007c 00C0      		rjmp .L32
 164               	.LM23:
 165 007e 8CB1      		in r24,44-0x20
 166               	.LBE151:
 167               	.LBE150:
 168               	.LM24:
 169 0080 9927      		clr r25
 170 0082 682F      		mov r22,r24
 171 0084 8093 0000 		sts rx_buf,r24
 172               	.LM25:
 173 0088 2091 0000 		lds r18,rx_chm
 174               	.L34:
 175               	.LBB152:
 176               	.LBB153:
 177               	.LM26:
 178 008c 5F9B      		sbis 43-0x20,7
 179 008e 00C0      		rjmp .L34
 180               	.LM27:
 181 0090 8CB1      		in r24,44-0x20
 182               	.LBE153:
 183               	.LBE152:
 184               	.LM28:
 185 0092 9927      		clr r25
 186 0094 582F      		mov r21,r24
 187 0096 8093 0000 		sts rx_buf+1,r24
 188               	.L36:
 189               	.LBB154:
 190               	.LBB155:
 191               	.LM29:
 192 009a 5F9B      		sbis 43-0x20,7
 193 009c 00C0      		rjmp .L36
 194               	.LM30:
 195 009e 8CB1      		in r24,44-0x20
 196               	.LBE155:
 197               	.LBE154:
 198               	.LM31:
 199 00a0 9927      		clr r25
 200 00a2 382F      		mov r19,r24
 201 00a4 8093 0000 		sts rx_buf+2,r24
 202               	.L38:
 203               	.LBB156:
 204               	.LBB157:
 205               	.LM32:
 206 00a8 5F9B      		sbis 43-0x20,7
 207 00aa 00C0      		rjmp .L38
 208               	.LM33:
 209 00ac 8CB1      		in r24,44-0x20
 210               	.LBE157:
 211               	.LBE156:
 212               	.LM34:
 213 00ae 9927      		clr r25
 214 00b0 482F      		mov r20,r24
 215 00b2 8093 0000 		sts rx_buf+3,r24
 216               	.L40:
 217               	.LBB158:
 218               	.LBB159:
 219               	.LM35:
 220 00b6 5F9B      		sbis 43-0x20,7
 221 00b8 00C0      		rjmp .L40
 222               	.LM36:
 223 00ba 8CB1      		in r24,44-0x20
 224               	.LBE159:
 225               	.LBE158:
 226               	.LM37:
 227 00bc 9927      		clr r25
 228 00be 8093 0000 		sts rx_buf+4,r24
 229               	.LM38:
 230 00c2 3527      		eor r19,r21
 231               	.LM39:
 232 00c4 3827      		eor r19,r24
 233               	.LM40:
 234 00c6 2627      		eor r18,r22
 235               	.LM41:
 236 00c8 2427      		eor r18,r20
 237               	.LM42:
 238 00ca 2327      		eor r18,r19
 239 00cc 2093 0000 		sts rx_chm,r18
 240               	.LM43:
 241 00d0 85E0      		ldi r24,lo8(5)
 242 00d2 90E0      		ldi r25,hi8(5)
 243 00d4 9093 0000 		sts (rx_ptr)+1,r25
 244 00d8 8093 0000 		sts rx_ptr,r24
 245               	.LM44:
 246 00dc 0E94 0000 		call get_message_body
 247               	.LM45:
 248 00e0 E091 0000 		lds r30,rx_ptr
 249 00e4 F091 0000 		lds r31,(rx_ptr)+1
 250               	.L42:
 251               	.LBB160:
 252               	.LBB161:
 253               	.LM46:
 254 00e8 5F9B      		sbis 43-0x20,7
 255 00ea 00C0      		rjmp .L42
 256               	.LM47:
 257 00ec 8CB1      		in r24,44-0x20
 258               	.LBE161:
 259               	.LBE160:
 260               	.LM48:
 261 00ee 9927      		clr r25
 262 00f0 E050      		subi r30,lo8(-(rx_buf))
 263 00f2 F040      		sbci r31,hi8(-(rx_buf))
 264 00f4 8083      		st Z,r24
 265               	.LM49:
 266 00f6 2091 0000 		lds r18,rx_chm
 267 00fa 2827      		eor r18,r24
 268 00fc 2093 0000 		sts rx_chm,r18
 269               	.LM50:
 270 0100 2223      		tst r18
 271 0102 01F4      		brne .L46
 272               	.LM51:
 273 0104 1092 0000 		sts rx_chm,__zero_reg__
 274               	.LM52:
 275 0108 1092 0000 		sts (rx_ptr)+1,__zero_reg__
 276 010c 1092 0000 		sts rx_ptr,__zero_reg__
 277               	.L46:
 278 0110 0895      		ret
 279               	/* epilogue: frame size=0 */
 280               	/* epilogue: noreturn */
 281               	/* epilogue end (size=0) */
 282               	/* function get_message size 76 (76) */
 283               	.LFE11:
 285               	.global	sendResponse
 287               	sendResponse:
 288               	.LFB13:
 289               	.LM53:
 290               	/* prologue: frame size=0 */
 291               	/* prologue end (size=0) */
 292               	.LM54:
 293 0112 1092 0000 		sts tx_chm,__zero_reg__
 294               	.LM55:
 295 0116 8BE1      		ldi r24,lo8(27)
 296 0118 8093 0000 		sts tx_buf,r24
 297               	.LM56:
 298 011c 8091 0000 		lds r24,rx_buf+1
 299 0120 8093 0000 		sts tx_buf+1,r24
 300               	.LM57:
 301 0124 8EE0      		ldi r24,lo8(14)
 302 0126 8093 0000 		sts tx_buf+4,r24
 303 012a 60E0      		ldi r22,lo8(0)
 304 012c E0E0      		ldi r30,lo8(tx_buf)
 305 012e F0E0      		ldi r31,hi8(tx_buf)
 306               	.L60:
 307               	.LM58:
 308 0130 8081      		ld r24,Z
 309 0132 6827      		eor r22,r24
 310               	.L61:
 311               	.LBB162:
 312               	.LBB163:
 313               	.LM59:
 314 0134 5D9B      		sbis 43-0x20,5
 315 0136 00C0      		rjmp .L61
 316               	.LM60:
 317 0138 8CB9      		out 44-0x20,r24
 318 013a 3196      		adiw r30,1
 319               	.LBE163:
 320               	.LBE162:
 321               	.LM61:
 322 013c 80E0      		ldi r24,hi8(tx_buf+5)
 323 013e E030      		cpi r30,lo8(tx_buf+5)
 324 0140 F807      		cpc r31,r24
 325 0142 01F4      		brne .L60
 326 0144 6093 0000 		sts tx_chm,r22
 327               	.LM62:
 328 0148 8091 0000 		lds r24,tx_buf+2
 329 014c 9927      		clr r25
 330 014e 382F      		mov r19,r24
 331 0150 2227      		clr r18
 332               	.LVL5:
 333 0152 8091 0000 		lds r24,tx_buf+3
 334 0156 280F      		add r18,r24
 335 0158 311D      		adc r19,__zero_reg__
 336 015a 40E0      		ldi r20,lo8(0)
 337 015c 50E0      		ldi r21,hi8(0)
 338               	.LVL6:
 339 015e 00C0      		rjmp .L64
 340               	.L65:
 341               	.LM63:
 342 0160 8081      		ld r24,Z
 343 0162 6827      		eor r22,r24
 344               	.L66:
 345               	.LBB164:
 346               	.LBB165:
 347               	.LM64:
 348 0164 5D9B      		sbis 43-0x20,5
 349 0166 00C0      		rjmp .L66
 350               	.LM65:
 351 0168 8CB9      		out 44-0x20,r24
 352               	.LBE165:
 353               	.LBE164:
 354               	.LM66:
 355 016a 4F5F      		subi r20,lo8(-(1))
 356 016c 5F4F      		sbci r21,hi8(-(1))
 357 016e 3196      		adiw r30,1
 358               	.L64:
 359 0170 4217      		cp r20,r18
 360 0172 5307      		cpc r21,r19
 361 0174 04F0      		brlt .L65
 362 0176 6093 0000 		sts tx_chm,r22
 363               	.L69:
 364               	.LBB166:
 365               	.LBB167:
 366               	.LM67:
 367 017a 5D9B      		sbis 43-0x20,5
 368 017c 00C0      		rjmp .L69
 369               	.LM68:
 370 017e 6CB9      		out 44-0x20,r22
 371               	.LBE167:
 372               	.LBE166:
 373               	/* epilogue: frame size=0 */
 374 0180 0895      		ret
 375               	/* epilogue end (size=1) */
 376               	/* function sendResponse size 56 (55) */
 377               	.LFE13:
 379               	.global	cmdSignOn
 381               	cmdSignOn:
 382               	.LFB14:
 383               	.LM69:
 384               	/* prologue: frame size=0 */
 385               	/* prologue end (size=0) */
 386               	.LM70:
 387 0182 1092 0000 		sts tx_buf+2,__zero_reg__
 388               	.LM71:
 389 0186 8BE0      		ldi r24,lo8(11)
 390 0188 8093 0000 		sts tx_buf+3,r24
 391               	.LM72:
 392 018c 81E0      		ldi r24,lo8(1)
 393 018e 8093 0000 		sts tx_buf+5,r24
 394               	.LM73:
 395 0192 1092 0000 		sts tx_buf+6,__zero_reg__
 396               	.LM74:
 397 0196 88E0      		ldi r24,lo8(8)
 398 0198 8093 0000 		sts tx_buf+7,r24
 399               	.LM75:
 400 019c 83E5      		ldi r24,lo8(83)
 401 019e 8093 0000 		sts tx_buf+8,r24
 402               	.LM76:
 403 01a2 84E5      		ldi r24,lo8(84)
 404 01a4 8093 0000 		sts tx_buf+9,r24
 405               	.LM77:
 406 01a8 8BE4      		ldi r24,lo8(75)
 407 01aa 8093 0000 		sts tx_buf+10,r24
 408               	.LM78:
 409 01ae 85E3      		ldi r24,lo8(53)
 410 01b0 8093 0000 		sts tx_buf+11,r24
 411               	.LM79:
 412 01b4 80E3      		ldi r24,lo8(48)
 413 01b6 8093 0000 		sts tx_buf+12,r24
 414               	.LM80:
 415 01ba 8093 0000 		sts tx_buf+13,r24
 416               	.LM81:
 417 01be 8FE5      		ldi r24,lo8(95)
 418 01c0 8093 0000 		sts tx_buf+14,r24
 419               	.LM82:
 420 01c4 82E3      		ldi r24,lo8(50)
 421 01c6 8093 0000 		sts tx_buf+15,r24
 422               	/* epilogue: frame size=0 */
 423 01ca 0895      		ret
 424               	/* epilogue end (size=1) */
 425               	/* function cmdSignOn size 37 (36) */
 426               	.LFE14:
 428               	.global	cmdGetParameter
 430               	cmdGetParameter:
 431               	.LFB15:
 432               	.LM83:
 433               	/* prologue: frame size=0 */
 434               	/* prologue end (size=0) */
 435               	.LM84:
 436 01cc 1092 0000 		sts tx_buf+2,__zero_reg__
 437               	.LM85:
 438 01d0 83E0      		ldi r24,lo8(3)
 439 01d2 8093 0000 		sts tx_buf+3,r24
 440               	.LM86:
 441 01d6 8093 0000 		sts tx_buf+5,r24
 442               	.LM87:
 443 01da 1092 0000 		sts tx_buf+6,__zero_reg__
 444               	.LM88:
 445 01de 8091 0000 		lds r24,rx_buf+6
 446 01e2 8539      		cpi r24,lo8(-107)
 447 01e4 01F0      		breq .L88
 448               	.LM89:
 449 01e6 8639      		cpi r24,lo8(-106)
 450 01e8 00F4      		brsh .L93
 451 01ea 8139      		cpi r24,lo8(-111)
 452 01ec 01F0      		breq .L85
 453 01ee 8239      		cpi r24,lo8(-110)
 454 01f0 00F4      		brsh .L94
 455 01f2 8039      		cpi r24,lo8(-112)
 456 01f4 01F4      		brne .L83
 457 01f6 00C0      		rjmp .L85
 458               	.L94:
 459 01f8 8239      		cpi r24,lo8(-110)
 460 01fa 01F0      		breq .L86
 461 01fc 8439      		cpi r24,lo8(-108)
 462 01fe 01F4      		brne .L83
 463 0200 00C0      		rjmp .L88
 464               	.L93:
 465 0202 8739      		cpi r24,lo8(-105)
 466 0204 01F0      		breq .L90
 467 0206 8739      		cpi r24,lo8(-105)
 468 0208 00F0      		brlo .L89
 469 020a 8839      		cpi r24,lo8(-104)
 470 020c 01F0      		breq .L91
 471 020e 8A39      		cpi r24,lo8(-102)
 472 0210 01F4      		brne .L83
 473 0212 00C0      		rjmp .L92
 474               	.L85:
 475               	.LM90:
 476 0214 82E0      		ldi r24,lo8(2)
 477 0216 00C0      		rjmp .L97
 478               	.L86:
 479               	.LM91:
 480 0218 87E0      		ldi r24,lo8(7)
 481 021a 00C0      		rjmp .L97
 482               	.L88:
 483               	.LM92:
 484 021c 82E3      		ldi r24,lo8(50)
 485 021e 00C0      		rjmp .L97
 486               	.L89:
 487               	.LM93:
 488 0220 8091 0000 		lds r24,pscalefsys
 489 0224 00C0      		rjmp .L97
 490               	.L90:
 491               	.LM94:
 492 0226 8091 0000 		lds r24,cmatchdef
 493 022a 00C0      		rjmp .L97
 494               	.L91:
 495               	.LM95:
 496 022c 8091 0000 		lds r24,sckdurationdef
 497 0230 00C0      		rjmp .L97
 498               	.L92:
 499               	.LM96:
 500 0232 8AEA      		ldi r24,lo8(-86)
 501               	.L97:
 502 0234 8093 0000 		sts tx_buf+7,r24
 503 0238 0895      		ret
 504               	.L83:
 505               	.LM97:
 506 023a 1092 0000 		sts tx_buf+7,__zero_reg__
 507 023e 0895      		ret
 508               	/* epilogue: frame size=0 */
 509               	/* epilogue: noreturn */
 510               	/* epilogue end (size=0) */
 511               	/* function cmdGetParameter size 58 (58) */
 512               	.LFE15:
 514               	.global	cmdLeaveProgmodeIsp
 516               	cmdLeaveProgmodeIsp:
 517               	.LFB19:
 518               	.LM98:
 519               	/* prologue: frame size=0 */
 520               	/* prologue end (size=0) */
 521               	.LM99:
 522 0240 1092 0000 		sts tx_buf+2,__zero_reg__
 523               	.LM100:
 524 0244 82E0      		ldi r24,lo8(2)
 525 0246 8093 0000 		sts tx_buf+3,r24
 526               	.LM101:
 527 024a 87B3      		in r24,55-0x20
 528 024c 8F71      		andi r24,lo8(31)
 529 024e 87BB      		out 55-0x20,r24
 530               	.LM102:
 531 0250 B998      		cbi 55-0x20,1
 532               	.LM103:
 533 0252 88B3      		in r24,56-0x20
 534 0254 8F71      		andi r24,lo8(31)
 535 0256 88BB      		out 56-0x20,r24
 536               	.LM104:
 537 0258 C198      		cbi 56-0x20,1
 538               	.LM105:
 539 025a 81E1      		ldi r24,lo8(17)
 540 025c 8093 0000 		sts tx_buf+5,r24
 541               	.LM106:
 542 0260 1092 0000 		sts tx_buf+6,__zero_reg__
 543               	/* epilogue: frame size=0 */
 544 0264 0895      		ret
 545               	/* epilogue end (size=1) */
 546               	/* function cmdLeaveProgmodeIsp size 19 (18) */
 547               	.LFE19:
 549               	.global	cmdspimulti
 551               	cmdspimulti:
 552               	.LFB25:
 553               	.LM107:
 554               	/* prologue: frame size=0 */
 555               	/* prologue end (size=0) */
 556               	.LM108:
 557 0266 2091 0000 		lds r18,rx_buf+7
 558 026a E22F      		mov r30,r18
 559 026c FF27      		clr r31
 560 026e CF01      		movw r24,r30
 561 0270 60E0      		ldi r22,lo8(256)
 562 0272 71E0      		ldi r23,hi8(256)
 563 0274 0E94 0000 		call __divmodhi4
 564 0278 6093 0000 		sts tx_buf+2,r22
 565               	.LM109:
 566 027c 2D5F      		subi r18,lo8(-(3))
 567 027e 2093 0000 		sts tx_buf+3,r18
 568               	.LM110:
 569 0282 8DE1      		ldi r24,lo8(29)
 570 0284 8093 0000 		sts tx_buf+5,r24
 571               	.LM111:
 572 0288 1092 0000 		sts tx_buf+6,__zero_reg__
 573 028c 80E0      		ldi r24,lo8(0)
 574 028e 90E0      		ldi r25,hi8(0)
 575               	.LVL7:
 576 0290 A0E0      		ldi r26,lo8(tx_buf+7)
 577 0292 B0E0      		ldi r27,hi8(tx_buf+7)
 578 0294 22E2      		ldi r18,lo8(34)
 579 0296 00C0      		rjmp .L101
 580               	.L102:
 581               	.LM112:
 582 0298 2D93      		st X+,r18
 583               	.LM113:
 584 029a 0196      		adiw r24,1
 585               	.L101:
 586 029c 8E17      		cp r24,r30
 587 029e 9F07      		cpc r25,r31
 588 02a0 04F0      		brlt .L102
 589               	.LM114:
 590 02a2 E050      		subi r30,lo8(-(tx_buf))
 591 02a4 F040      		sbci r31,hi8(-(tx_buf))
 592 02a6 1782      		std Z+7,__zero_reg__
 593               	/* epilogue: frame size=0 */
 594 02a8 0895      		ret
 595               	/* epilogue end (size=1) */
 596               	/* function cmdspimulti size 34 (33) */
 597               	.LFE25:
 599               	.global	cmdloadaddress
 601               	cmdloadaddress:
 602               	.LFB28:
 603               	.LM115:
 604               	/* prologue: frame size=0 */
 605               	/* prologue end (size=0) */
 606               	.LM116:
 607 02aa 1092 0000 		sts tx_buf+2,__zero_reg__
 608               	.LM117:
 609 02ae 82E0      		ldi r24,lo8(2)
 610 02b0 8093 0000 		sts tx_buf+3,r24
 611               	.LM118:
 612 02b4 2091 0000 		lds r18,rx_buf+8
 613 02b8 3327      		clr r19
 614 02ba 322F      		mov r19,r18
 615 02bc 2227      		clr r18
 616 02be 6091 0000 		lds r22,rx_buf+9
 617 02c2 C901      		movw r24,r18
 618 02c4 860F      		add r24,r22
 619 02c6 911D      		adc r25,__zero_reg__
 620 02c8 9093 0000 		sts (address_eeprom)+1,r25
 621 02cc 8093 0000 		sts address_eeprom,r24
 622               	.LM119:
 623 02d0 4427      		clr r20
 624 02d2 37FD      		sbrc r19,7
 625 02d4 4095      		com r20
 626 02d6 542F      		mov r21,r20
 627 02d8 8091 0000 		lds r24,rx_buf+7
 628 02dc 9927      		clr r25
 629 02de AA27      		clr r26
 630 02e0 BB27      		clr r27
 631 02e2 DC01      		movw r26,r24
 632 02e4 9927      		clr r25
 633 02e6 8827      		clr r24
 634 02e8 860F      		add r24,r22
 635 02ea 911D      		adc r25,__zero_reg__
 636 02ec A11D      		adc r26,__zero_reg__
 637 02ee B11D      		adc r27,__zero_reg__
 638 02f0 280F      		add r18,r24
 639 02f2 391F      		adc r19,r25
 640 02f4 4A1F      		adc r20,r26
 641 02f6 5B1F      		adc r21,r27
 642 02f8 220F      		lsl r18
 643 02fa 331F      		rol r19
 644 02fc 441F      		rol r20
 645 02fe 551F      		rol r21
 646 0300 2093 0000 		sts address_flash,r18
 647 0304 3093 0000 		sts (address_flash)+1,r19
 648 0308 4093 0000 		sts (address_flash)+2,r20
 649 030c 5093 0000 		sts (address_flash)+3,r21
 650               	.LM120:
 651 0310 8091 0000 		lds r24,rx_buf+6
 652 0314 87FF      		sbrs r24,7
 653 0316 00C0      		rjmp .L106
 654               	.LM121:
 655 0318 81E0      		ldi r24,lo8(1)
 656 031a 8093 0000 		sts extended_address,r24
 657               	.L106:
 658               	.LM122:
 659 031e 86E0      		ldi r24,lo8(6)
 660 0320 8093 0000 		sts tx_buf+5,r24
 661               	.LM123:
 662 0324 1092 0000 		sts tx_buf+6,__zero_reg__
 663               	/* epilogue: frame size=0 */
 664 0328 0895      		ret
 665               	/* epilogue end (size=1) */
 666               	/* function cmdloadaddress size 64 (63) */
 667               	.LFE28:
 669               	.global	cmdreadflashisp
 671               	cmdreadflashisp:
 672               	.LFB29:
 673               	.LM124:
 674               	/* prologue: frame size=0 */
 675 032a FF92      		push r15
 676 032c 0F93      		push r16
 677 032e 1F93      		push r17
 678 0330 CF93      		push r28
 679 0332 DF93      		push r29
 680               	/* prologue end (size=5) */
 681               	.LM125:
 682 0334 8091 0000 		lds r24,rx_buf+6
 683 0338 9927      		clr r25
 684 033a F82F      		mov r31,r24
 685 033c EE27      		clr r30
 686               	.LVL8:
 687 033e 8091 0000 		lds r24,rx_buf+7
 688 0342 E80F      		add r30,r24
 689 0344 F11D      		adc r31,__zero_reg__
 690               	.LM126:
 691 0346 9F01      		movw r18,r30
 692               	.LVL9:
 693 0348 2D5F      		subi r18,lo8(-(3))
 694 034a 3F4F      		sbci r19,hi8(-(3))
 695               	.LM127:
 696 034c 832F      		mov r24,r19
 697 034e 9927      		clr r25
 698 0350 87FD      		sbrc r24,7
 699 0352 9A95      		dec r25
 700 0354 8093 0000 		sts tx_buf+2,r24
 701               	.LM128:
 702 0358 2093 0000 		sts tx_buf+3,r18
 703               	.LM129:
 704 035c 84E1      		ldi r24,lo8(20)
 705 035e 8093 0000 		sts tx_buf+5,r24
 706               	.LM130:
 707 0362 1092 0000 		sts tx_buf+6,__zero_reg__
 708               	.LM131:
 709 0366 8091 0000 		lds r24,extended_address
 710 036a 8823      		tst r24
 711 036c 01F4      		brne .L110
 712               	.L111:
 713               	.LM132:
 714 036e 0091 0000 		lds r16,rx_buf+8
 715               	.LM133:
 716 0372 88E0      		ldi r24,lo8(8)
 717 0374 F82E      		mov r15,r24
 718 0376 F02A      		or r15,r16
 719 0378 2091 0000 		lds r18,address_flash
 720 037c 3091 0000 		lds r19,(address_flash)+1
 721 0380 4091 0000 		lds r20,(address_flash)+2
 722 0384 5091 0000 		lds r21,(address_flash)+3
 723               	.LVL10:
 724 0388 60E0      		ldi r22,lo8(0)
 725 038a 70E0      		ldi r23,hi8(0)
 726               	.LVL11:
 727 038c C0E0      		ldi r28,lo8(tx_buf)
 728 038e D0E0      		ldi r29,hi8(tx_buf)
 729 0390 00C0      		rjmp .L112
 730               	.LVL12:
 731               	.L110:
 732               	.LBB168:
 733               	.LBB169:
 734               	.LM134:
 735 0392 8DE4      		ldi r24,lo8(77)
 736 0394 8FB9      		out 47-0x20,r24
 737               	.L113:
 738               	.LM135:
 739 0396 779B      		sbis 46-0x20,7
 740 0398 00C0      		rjmp .L113
 741               	.LM136:
 742 039a 8FB1      		in r24,47-0x20
 743               	.LBE169:
 744               	.LBE168:
 745               	.LBB170:
 746               	.LBB171:
 747               	.LM137:
 748 039c 1FB8      		out 47-0x20,__zero_reg__
 749               	.L115:
 750               	.LM138:
 751 039e 779B      		sbis 46-0x20,7
 752 03a0 00C0      		rjmp .L115
 753               	.LM139:
 754 03a2 8FB1      		in r24,47-0x20
 755               	.LBE171:
 756               	.LBE170:
 757               	.LM140:
 758 03a4 8091 0000 		lds r24,address_flash
 759 03a8 9091 0000 		lds r25,(address_flash)+1
 760 03ac A091 0000 		lds r26,(address_flash)+2
 761 03b0 B091 0000 		lds r27,(address_flash)+3
 762 03b4 CD01      		movw r24,r26
 763 03b6 AA27      		clr r26
 764 03b8 BB27      		clr r27
 765               	.LBB172:
 766               	.LBB173:
 767               	.LM141:
 768 03ba 8FB9      		out 47-0x20,r24
 769               	.L117:
 770               	.LM142:
 771 03bc 779B      		sbis 46-0x20,7
 772 03be 00C0      		rjmp .L117
 773               	.LM143:
 774 03c0 8FB1      		in r24,47-0x20
 775               	.LBE173:
 776               	.LBE172:
 777               	.LBB174:
 778               	.LBB175:
 779               	.LM144:
 780 03c2 1FB8      		out 47-0x20,__zero_reg__
 781               	.L119:
 782               	.LM145:
 783 03c4 779B      		sbis 46-0x20,7
 784 03c6 00C0      		rjmp .L119
 785               	.LM146:
 786 03c8 8FB1      		in r24,47-0x20
 787 03ca 00C0      		rjmp .L111
 788               	.LVL13:
 789               	.L121:
 790               	.LBE175:
 791               	.LBE174:
 792               	.LBB176:
 793               	.LBB177:
 794               	.LM147:
 795 03cc 0FB9      		out 47-0x20,r16
 796               	.L122:
 797               	.LM148:
 798 03ce 779B      		sbis 46-0x20,7
 799 03d0 00C0      		rjmp .L122
 800               	.LM149:
 801 03d2 8FB1      		in r24,47-0x20
 802               	.LBE177:
 803               	.LBE176:
 804               	.LM150:
 805 03d4 BB27      		clr r27
 806 03d6 A52F      		mov r26,r21
 807 03d8 942F      		mov r25,r20
 808 03da 832F      		mov r24,r19
 809 03dc 182F      		mov r17,r24
 810               	.LBB178:
 811               	.LBB179:
 812               	.LM151:
 813 03de 8FB9      		out 47-0x20,r24
 814               	.L124:
 815               	.LM152:
 816 03e0 779B      		sbis 46-0x20,7
 817 03e2 00C0      		rjmp .L124
 818               	.LM153:
 819 03e4 8FB1      		in r24,47-0x20
 820 03e6 922F      		mov r25,r18
 821               	.LBE179:
 822               	.LBE178:
 823               	.LBB180:
 824               	.LBB181:
 825               	.LM154:
 826 03e8 2FB9      		out 47-0x20,r18
 827               	.L126:
 828               	.LM155:
 829 03ea 779B      		sbis 46-0x20,7
 830 03ec 00C0      		rjmp .L126
 831               	.LM156:
 832 03ee 8FB1      		in r24,47-0x20
 833               	.LBE181:
 834               	.LBE180:
 835               	.LBB182:
 836               	.LBB183:
 837               	.LM157:
 838 03f0 8FEF      		ldi r24,lo8(-1)
 839 03f2 8FB9      		out 47-0x20,r24
 840               	.L128:
 841               	.LM158:
 842 03f4 779B      		sbis 46-0x20,7
 843 03f6 00C0      		rjmp .L128
 844               	.LM159:
 845 03f8 8FB1      		in r24,47-0x20
 846               	.LBE183:
 847               	.LBE182:
 848               	.LM160:
 849 03fa 8F83      		std Y+7,r24
 850               	.LBB184:
 851               	.LBB185:
 852               	.LM161:
 853 03fc FFB8      		out 47-0x20,r15
 854               	.L130:
 855               	.LM162:
 856 03fe 779B      		sbis 46-0x20,7
 857 0400 00C0      		rjmp .L130
 858               	.LM163:
 859 0402 8FB1      		in r24,47-0x20
 860               	.LBE185:
 861               	.LBE184:
 862               	.LBB186:
 863               	.LBB187:
 864               	.LM164:
 865 0404 1FB9      		out 47-0x20,r17
 866               	.L132:
 867               	.LM165:
 868 0406 779B      		sbis 46-0x20,7
 869 0408 00C0      		rjmp .L132
 870               	.LM166:
 871 040a 8FB1      		in r24,47-0x20
 872               	.LBE187:
 873               	.LBE186:
 874               	.LBB188:
 875               	.LBB189:
 876               	.LM167:
 877 040c 9FB9      		out 47-0x20,r25
 878               	.L134:
 879               	.LM168:
 880 040e 779B      		sbis 46-0x20,7
 881 0410 00C0      		rjmp .L134
 882               	.LM169:
 883 0412 8FB1      		in r24,47-0x20
 884               	.LBE189:
 885               	.LBE188:
 886               	.LBB190:
 887               	.LBB191:
 888               	.LM170:
 889 0414 8FEF      		ldi r24,lo8(-1)
 890 0416 8FB9      		out 47-0x20,r24
 891               	.L136:
 892               	.LM171:
 893 0418 779B      		sbis 46-0x20,7
 894 041a 00C0      		rjmp .L136
 895               	.LM172:
 896 041c 8FB1      		in r24,47-0x20
 897               	.LBE191:
 898               	.LBE190:
 899               	.LM173:
 900 041e 8887      		std Y+8,r24
 901               	.LM174:
 902 0420 6E5F      		subi r22,lo8(-(2))
 903 0422 7F4F      		sbci r23,hi8(-(2))
 904 0424 2F5F      		subi r18,lo8(-(1))
 905 0426 3F4F      		sbci r19,hi8(-(1))
 906 0428 4F4F      		sbci r20,hlo8(-(1))
 907 042a 5F4F      		sbci r21,hhi8(-(1))
 908 042c 2296      		adiw r28,2
 909               	.L112:
 910 042e 6E17      		cp r22,r30
 911 0430 7F07      		cpc r23,r31
 912 0432 04F0      		brlt .L121
 913 0434 2093 0000 		sts address_flash,r18
 914 0438 3093 0000 		sts (address_flash)+1,r19
 915 043c 4093 0000 		sts (address_flash)+2,r20
 916 0440 5093 0000 		sts (address_flash)+3,r21
 917               	.LM175:
 918 0444 E050      		subi r30,lo8(-(tx_buf))
 919 0446 F040      		sbci r31,hi8(-(tx_buf))
 920 0448 1782      		std Z+7,__zero_reg__
 921               	/* epilogue: frame size=0 */
 922 044a DF91      		pop r29
 923 044c CF91      		pop r28
 924 044e 1F91      		pop r17
 925 0450 0F91      		pop r16
 926 0452 FF90      		pop r15
 927 0454 0895      		ret
 928               	/* epilogue end (size=6) */
 929               	/* function cmdreadflashisp size 150 (139) */
 930               	.LFE29:
 932               	.global	cmdreadeepromisp
 934               	cmdreadeepromisp:
 935               	.LFB31:
 936               	.LM176:
 937               	/* prologue: frame size=0 */
 938               	/* prologue end (size=0) */
 939               	.LM177:
 940 0456 8091 0000 		lds r24,rx_buf+6
 941 045a 9927      		clr r25
 942 045c F82F      		mov r31,r24
 943 045e EE27      		clr r30
 944               	.LVL14:
 945 0460 8091 0000 		lds r24,rx_buf+7
 946 0464 E80F      		add r30,r24
 947 0466 F11D      		adc r31,__zero_reg__
 948               	.LM178:
 949 0468 9F01      		movw r18,r30
 950               	.LVL15:
 951 046a 2D5F      		subi r18,lo8(-(3))
 952 046c 3F4F      		sbci r19,hi8(-(3))
 953               	.LM179:
 954 046e 832F      		mov r24,r19
 955 0470 9927      		clr r25
 956 0472 87FD      		sbrc r24,7
 957 0474 9A95      		dec r25
 958 0476 8093 0000 		sts tx_buf+2,r24
 959               	.LM180:
 960 047a 2093 0000 		sts tx_buf+3,r18
 961               	.LM181:
 962 047e 86E1      		ldi r24,lo8(22)
 963 0480 8093 0000 		sts tx_buf+5,r24
 964               	.LM182:
 965 0484 1092 0000 		sts tx_buf+6,__zero_reg__
 966               	.LM183:
 967 0488 6091 0000 		lds r22,rx_buf+8
 968 048c 2091 0000 		lds r18,address_eeprom
 969 0490 3091 0000 		lds r19,(address_eeprom)+1
 970               	.LVL16:
 971 0494 40E0      		ldi r20,lo8(0)
 972 0496 50E0      		ldi r21,hi8(0)
 973               	.LVL17:
 974 0498 A0E0      		ldi r26,lo8(tx_buf+7)
 975 049a B0E0      		ldi r27,hi8(tx_buf+7)
 976 049c 7FEF      		ldi r23,lo8(-1)
 977 049e 00C0      		rjmp .L165
 978               	.L166:
 979               	.LBB192:
 980               	.LBB193:
 981               	.LM184:
 982 04a0 6FB9      		out 47-0x20,r22
 983               	.L167:
 984               	.LM185:
 985 04a2 779B      		sbis 46-0x20,7
 986 04a4 00C0      		rjmp .L167
 987               	.LM186:
 988 04a6 8FB1      		in r24,47-0x20
 989               	.LBE193:
 990               	.LBE192:
 991               	.LM187:
 992 04a8 832F      		mov r24,r19
 993 04aa 9927      		clr r25
 994               	.LBB194:
 995               	.LBB195:
 996               	.LM188:
 997 04ac 8FB9      		out 47-0x20,r24
 998               	.L169:
 999               	.LM189:
 1000 04ae 779B      		sbis 46-0x20,7
 1001 04b0 00C0      		rjmp .L169
 1002               	.LM190:
 1003 04b2 8FB1      		in r24,47-0x20
 1004               	.LBE195:
 1005               	.LBE194:
 1006               	.LBB196:
 1007               	.LBB197:
 1008               	.LM191:
 1009 04b4 2FB9      		out 47-0x20,r18
 1010               	.L171:
 1011               	.LM192:
 1012 04b6 779B      		sbis 46-0x20,7
 1013 04b8 00C0      		rjmp .L171
 1014               	.LM193:
 1015 04ba 8FB1      		in r24,47-0x20
 1016               	.LBE197:
 1017               	.LBE196:
 1018               	.LBB198:
 1019               	.LBB199:
 1020               	.LM194:
 1021 04bc 7FB9      		out 47-0x20,r23
 1022               	.L173:
 1023               	.LM195:
 1024 04be 779B      		sbis 46-0x20,7
 1025 04c0 00C0      		rjmp .L173
 1026               	.LM196:
 1027 04c2 8FB1      		in r24,47-0x20
 1028               	.LBE199:
 1029               	.LBE198:
 1030               	.LM197:
 1031 04c4 8D93      		st X+,r24
 1032               	.LM198:
 1033 04c6 4F5F      		subi r20,lo8(-(1))
 1034 04c8 5F4F      		sbci r21,hi8(-(1))
 1035 04ca 2F5F      		subi r18,lo8(-(1))
 1036 04cc 3F4F      		sbci r19,hi8(-(1))
 1037               	.L165:
 1038 04ce 4E17      		cp r20,r30
 1039 04d0 5F07      		cpc r21,r31
 1040 04d2 04F0      		brlt .L166
 1041 04d4 3093 0000 		sts (address_eeprom)+1,r19
 1042 04d8 2093 0000 		sts address_eeprom,r18
 1043               	.LM199:
 1044 04dc E050      		subi r30,lo8(-(tx_buf))
 1045 04de F040      		sbci r31,hi8(-(tx_buf))
 1046 04e0 1782      		std Z+7,__zero_reg__
 1047               	/* epilogue: frame size=0 */
 1048 04e2 0895      		ret
 1049               	/* epilogue end (size=1) */
 1050               	/* function cmdreadeepromisp size 71 (70) */
 1051               	.LFE31:
 1053               	.global	cmdosccal
 1055               	cmdosccal:
 1056               	.LFB32:
 1057               	.LM200:
 1058               	/* prologue: frame size=0 */
 1059               	/* prologue end (size=0) */
 1060               	.LM201:
 1061 04e4 1092 0000 		sts tx_buf+2,__zero_reg__
 1062               	.LM202:
 1063 04e8 82E0      		ldi r24,lo8(2)
 1064 04ea 8093 0000 		sts tx_buf+3,r24
 1065               	.LM203:
 1066 04ee 85E0      		ldi r24,lo8(5)
 1067 04f0 8093 0000 		sts tx_buf+5,r24
 1068               	.LM204:
 1069 04f4 1092 0000 		sts tx_buf+6,__zero_reg__
 1070               	/* epilogue: frame size=0 */
 1071 04f8 0895      		ret
 1072               	/* epilogue end (size=1) */
 1073               	/* function cmdosccal size 11 (10) */
 1074               	.LFE32:
 1076               	.global	delay_ms
 1078               	delay_ms:
 1079               	.LFB33:
 1080               	.LM205:
 1081               	/* prologue: frame size=0 */
 1082               	/* prologue end (size=0) */
 1083               	.LVL18:
 1084 04fa 9C01      		movw r18,r24
 1085 04fc E3E3      		ldi r30,lo8(1843)
 1086 04fe F7E0      		ldi r31,hi8(1843)
 1087 0500 00C0      		rjmp .L188
 1088               	.LVL19:
 1089               	.L189:
 1090               	.LBB200:
 1091               	.LBB201:
 1092               	.LBB202:
 1093               	.LBB203:
 1094               	.LM206:
 1095 0502 CF01      		movw r24,r30
 1096               	.LVL20:
 1097               	/* #APP */
 1098 0504 0197      		1: sbiw r24,1
 1099 0506 01F4      		brne 1b
 1100               	.LVL21:
 1101               	/* #NOAPP */
 1102               	.L188:
 1103               	.LBE203:
 1104               	.LBE202:
 1105               	.LBE201:
 1106               	.LBE200:
 1107               	.LM207:
 1108 0508 2150      		subi r18,lo8(-(-1))
 1109 050a 3040      		sbci r19,hi8(-(-1))
 1110 050c 8FEF      		ldi r24,hi8(-1)
 1111 050e 2F3F      		cpi r18,lo8(-1)
 1112 0510 3807      		cpc r19,r24
 1113               	.LVL22:
 1114 0512 01F4      		brne .L189
 1115               	/* epilogue: frame size=0 */
 1116 0514 0895      		ret
 1117               	/* epilogue end (size=1) */
 1118               	/* function delay_ms size 16 (15) */
 1119               	.LFE33:
 1121               	.global	cmdprogrameepromisp
 1123               	cmdprogrameepromisp:
 1124               	.LFB30:
 1125               	.LM208:
 1126               	/* prologue: frame size=0 */
 1127 0516 EF92      		push r14
 1128 0518 FF92      		push r15
 1129 051a 0F93      		push r16
 1130 051c 1F93      		push r17
 1131 051e CF93      		push r28
 1132 0520 DF93      		push r29
 1133               	/* prologue end (size=6) */
 1134               	.LM209:
 1135 0522 1092 0000 		sts tx_buf+2,__zero_reg__
 1136               	.LM210:
 1137 0526 82E0      		ldi r24,lo8(2)
 1138 0528 8093 0000 		sts tx_buf+3,r24
 1139               	.LM211:
 1140 052c 85E1      		ldi r24,lo8(21)
 1141 052e 8093 0000 		sts tx_buf+5,r24
 1142               	.LM212:
 1143 0532 1092 0000 		sts tx_buf+6,__zero_reg__
 1144               	.LM213:
 1145 0536 8091 0000 		lds r24,rx_buf+6
 1146 053a 9927      		clr r25
 1147 053c D82F      		mov r29,r24
 1148 053e CC27      		clr r28
 1149               	.LVL23:
 1150 0540 8091 0000 		lds r24,rx_buf+7
 1151 0544 C80F      		add r28,r24
 1152 0546 D11D      		adc r29,__zero_reg__
 1153 0548 EE24      		clr r14
 1154 054a FF24      		clr r15
 1155               	.LVL24:
 1156 054c 00E0      		ldi r16,lo8(rx_buf+15)
 1157 054e 10E0      		ldi r17,hi8(rx_buf+15)
 1158 0550 00C0      		rjmp .L193
 1159               	.LVL25:
 1160               	.L194:
 1161               	.LBB204:
 1162               	.LBB205:
 1163               	.LM214:
 1164 0552 80EA      		ldi r24,lo8(-96)
 1165 0554 8FB9      		out 47-0x20,r24
 1166               	.L195:
 1167               	.LM215:
 1168 0556 779B      		sbis 46-0x20,7
 1169 0558 00C0      		rjmp .L195
 1170               	.LM216:
 1171 055a 8FB1      		in r24,47-0x20
 1172               	.LBE205:
 1173               	.LBE204:
 1174               	.LM217:
 1175 055c 2091 0000 		lds r18,address_eeprom
 1176 0560 3091 0000 		lds r19,(address_eeprom)+1
 1177 0564 832F      		mov r24,r19
 1178 0566 9927      		clr r25
 1179               	.LVL26:
 1180 0568 582F      		mov r21,r24
 1181               	.LBB206:
 1182               	.LBB207:
 1183               	.LM218:
 1184 056a 8FB9      		out 47-0x20,r24
 1185               	.L197:
 1186               	.LM219:
 1187 056c 779B      		sbis 46-0x20,7
 1188 056e 00C0      		rjmp .L197
 1189               	.LM220:
 1190 0570 8FB1      		in r24,47-0x20
 1191               	.LBE207:
 1192               	.LBE206:
 1193               	.LM221:
 1194 0572 422F      		mov r20,r18
 1195               	.LVL27:
 1196               	.LBB208:
 1197               	.LBB209:
 1198               	.LM222:
 1199 0574 2FB9      		out 47-0x20,r18
 1200               	.L199:
 1201               	.LM223:
 1202 0576 779B      		sbis 46-0x20,7
 1203 0578 00C0      		rjmp .L199
 1204               	.LM224:
 1205 057a 8FB1      		in r24,47-0x20
 1206               	.LBE209:
 1207               	.LBE208:
 1208               	.LBB210:
 1209               	.LBB211:
 1210               	.LM225:
 1211 057c 8FEF      		ldi r24,lo8(-1)
 1212 057e 8FB9      		out 47-0x20,r24
 1213               	.L201:
 1214               	.LM226:
 1215 0580 779B      		sbis 46-0x20,7
 1216 0582 00C0      		rjmp .L201
 1217               	.LM227:
 1218 0584 8FB1      		in r24,47-0x20
 1219               	.LBE211:
 1220               	.LBE210:
 1221               	.LM228:
 1222 0586 F801      		movw r30,r16
 1223 0588 9081      		ld r25,Z
 1224               	.LM229:
 1225 058a 9817      		cp r25,r24
 1226 058c 01F0      		breq .L203
 1227               	.LM230:
 1228 058e 8091 0000 		lds r24,rx_buf+10
 1229               	.LBB212:
 1230               	.LBB213:
 1231               	.LM231:
 1232 0592 8FB9      		out 47-0x20,r24
 1233               	.L205:
 1234               	.LM232:
 1235 0594 779B      		sbis 46-0x20,7
 1236 0596 00C0      		rjmp .L205
 1237               	.LM233:
 1238 0598 8FB1      		in r24,47-0x20
 1239               	.LBE213:
 1240               	.LBE212:
 1241               	.LBB214:
 1242               	.LBB215:
 1243               	.LM234:
 1244 059a 5FB9      		out 47-0x20,r21
 1245               	.L207:
 1246               	.LM235:
 1247 059c 779B      		sbis 46-0x20,7
 1248 059e 00C0      		rjmp .L207
 1249               	.LM236:
 1250 05a0 8FB1      		in r24,47-0x20
 1251               	.LBE215:
 1252               	.LBE214:
 1253               	.LBB216:
 1254               	.LBB217:
 1255               	.LM237:
 1256 05a2 4FB9      		out 47-0x20,r20
 1257               	.L209:
 1258               	.LM238:
 1259 05a4 779B      		sbis 46-0x20,7
 1260 05a6 00C0      		rjmp .L209
 1261               	.LM239:
 1262 05a8 8FB1      		in r24,47-0x20
 1263               	.LBE217:
 1264               	.LBE216:
 1265               	.LBB218:
 1266               	.LBB219:
 1267               	.LM240:
 1268 05aa 9FB9      		out 47-0x20,r25
 1269               	.L211:
 1270               	.LM241:
 1271 05ac 779B      		sbis 46-0x20,7
 1272 05ae 00C0      		rjmp .L211
 1273               	.LM242:
 1274 05b0 8FB1      		in r24,47-0x20
 1275               	.LBE219:
 1276               	.LBE218:
 1277               	.LM243:
 1278 05b2 8091 0000 		lds r24,rx_buf+9
 1279 05b6 9927      		clr r25
 1280 05b8 0E94 0000 		call delay_ms
 1281               	.LVL28:
 1282               	.L203:
 1283               	.LM244:
 1284 05bc 8091 0000 		lds r24,address_eeprom
 1285 05c0 9091 0000 		lds r25,(address_eeprom)+1
 1286 05c4 0196      		adiw r24,1
 1287 05c6 9093 0000 		sts (address_eeprom)+1,r25
 1288 05ca 8093 0000 		sts address_eeprom,r24
 1289               	.LM245:
 1290 05ce 0894      		sec
 1291 05d0 E11C      		adc r14,__zero_reg__
 1292 05d2 F11C      		adc r15,__zero_reg__
 1293 05d4 0F5F      		subi r16,lo8(-(1))
 1294 05d6 1F4F      		sbci r17,hi8(-(1))
 1295               	.L193:
 1296 05d8 EC16      		cp r14,r28
 1297 05da FD06      		cpc r15,r29
 1298 05dc 04F4      		brge .+2
 1299 05de 00C0      		rjmp .L194
 1300               	/* epilogue: frame size=0 */
 1301 05e0 DF91      		pop r29
 1302 05e2 CF91      		pop r28
 1303 05e4 1F91      		pop r17
 1304 05e6 0F91      		pop r16
 1305 05e8 FF90      		pop r15
 1306 05ea EF90      		pop r14
 1307 05ec 0895      		ret
 1308               	/* epilogue end (size=7) */
 1309               	/* function cmdprogrameepromisp size 108 (95) */
 1310               	.LFE30:
 1312               	.global	cmdprogramflashisp
 1314               	cmdprogramflashisp:
 1315               	.LFB27:
 1316               	.LM246:
 1317               	/* prologue: frame size=0 */
 1318 05ee CF92      		push r12
 1319 05f0 DF92      		push r13
 1320 05f2 EF92      		push r14
 1321 05f4 FF92      		push r15
 1322 05f6 0F93      		push r16
 1323 05f8 1F93      		push r17
 1324 05fa CF93      		push r28
 1325 05fc DF93      		push r29
 1326               	/* prologue end (size=8) */
 1327               	.LM247:
 1328 05fe 1092 0000 		sts tx_buf+2,__zero_reg__
 1329               	.LM248:
 1330 0602 82E0      		ldi r24,lo8(2)
 1331 0604 8093 0000 		sts tx_buf+3,r24
 1332               	.LM249:
 1333 0608 83E1      		ldi r24,lo8(19)
 1334 060a 8093 0000 		sts tx_buf+5,r24
 1335               	.LM250:
 1336 060e 1092 0000 		sts tx_buf+6,__zero_reg__
 1337               	.LM251:
 1338 0612 8091 0000 		lds r24,extended_address
 1339 0616 8823      		tst r24
 1340 0618 01F0      		breq .L232
 1341               	.LBB220:
 1342               	.LBB221:
 1343               	.LM252:
 1344 061a 8DE4      		ldi r24,lo8(77)
 1345 061c 8FB9      		out 47-0x20,r24
 1346               	.L234:
 1347               	.LM253:
 1348 061e 779B      		sbis 46-0x20,7
 1349 0620 00C0      		rjmp .L234
 1350               	.LM254:
 1351 0622 8FB1      		in r24,47-0x20
 1352               	.LBE221:
 1353               	.LBE220:
 1354               	.LBB222:
 1355               	.LBB223:
 1356               	.LM255:
 1357 0624 1FB8      		out 47-0x20,__zero_reg__
 1358               	.L236:
 1359               	.LM256:
 1360 0626 779B      		sbis 46-0x20,7
 1361 0628 00C0      		rjmp .L236
 1362               	.LM257:
 1363 062a 8FB1      		in r24,47-0x20
 1364               	.LBE223:
 1365               	.LBE222:
 1366               	.LM258:
 1367 062c 8091 0000 		lds r24,address_flash
 1368 0630 9091 0000 		lds r25,(address_flash)+1
 1369 0634 A091 0000 		lds r26,(address_flash)+2
 1370 0638 B091 0000 		lds r27,(address_flash)+3
 1371 063c CD01      		movw r24,r26
 1372 063e AA27      		clr r26
 1373 0640 BB27      		clr r27
 1374               	.LBB224:
 1375               	.LBB225:
 1376               	.LM259:
 1377 0642 8FB9      		out 47-0x20,r24
 1378               	.L238:
 1379               	.LM260:
 1380 0644 779B      		sbis 46-0x20,7
 1381 0646 00C0      		rjmp .L238
 1382               	.LM261:
 1383 0648 8FB1      		in r24,47-0x20
 1384               	.LBE225:
 1385               	.LBE224:
 1386               	.LBB226:
 1387               	.LBB227:
 1388               	.LM262:
 1389 064a 1FB8      		out 47-0x20,__zero_reg__
 1390               	.L240:
 1391               	.LM263:
 1392 064c 779B      		sbis 46-0x20,7
 1393 064e 00C0      		rjmp .L240
 1394               	.LM264:
 1395 0650 8FB1      		in r24,47-0x20
 1396               	.L232:
 1397               	.LBE227:
 1398               	.LBE226:
 1399               	.LM265:
 1400 0652 8091 0000 		lds r24,rx_buf+6
 1401 0656 9927      		clr r25
 1402 0658 782F      		mov r23,r24
 1403 065a 6627      		clr r22
 1404               	.LVL29:
 1405 065c 8091 0000 		lds r24,rx_buf+7
 1406 0660 680F      		add r22,r24
 1407 0662 711D      		adc r23,__zero_reg__
 1408               	.LM266:
 1409 0664 E090 0000 		lds r14,address_flash
 1410 0668 F090 0000 		lds r15,(address_flash)+1
 1411 066c 0091 0000 		lds r16,(address_flash)+2
 1412 0670 1091 0000 		lds r17,(address_flash)+3
 1413               	.LM267:
 1414 0674 D090 0000 		lds r13,rx_buf+10
 1415               	.LM268:
 1416 0678 B8E0      		ldi r27,lo8(8)
 1417 067a CB2E      		mov r12,r27
 1418 067c CD28      		or r12,r13
 1419 067e A801      		movw r20,r16
 1420 0680 9701      		movw r18,r14
 1421 0682 C0E0      		ldi r28,lo8(0)
 1422 0684 D0E0      		ldi r29,hi8(0)
 1423               	.LVL30:
 1424 0686 E0E0      		ldi r30,lo8(rx_buf)
 1425 0688 F0E0      		ldi r31,hi8(rx_buf)
 1426 068a 00C0      		rjmp .L242
 1427               	.LVL31:
 1428               	.L243:
 1429               	.LBB228:
 1430               	.LBB229:
 1431               	.LM269:
 1432 068c DFB8      		out 47-0x20,r13
 1433               	.L244:
 1434               	.LM270:
 1435 068e 779B      		sbis 46-0x20,7
 1436 0690 00C0      		rjmp .L244
 1437               	.LM271:
 1438 0692 8FB1      		in r24,47-0x20
 1439               	.LBE229:
 1440               	.LBE228:
 1441               	.LM272:
 1442 0694 BB27      		clr r27
 1443 0696 A52F      		mov r26,r21
 1444 0698 942F      		mov r25,r20
 1445 069a 832F      		mov r24,r19
 1446               	.LBB230:
 1447               	.LBB231:
 1448               	.LM273:
 1449 069c 8FB9      		out 47-0x20,r24
 1450               	.L246:
 1451               	.LM274:
 1452 069e 779B      		sbis 46-0x20,7
 1453 06a0 00C0      		rjmp .L246
 1454               	.LM275:
 1455 06a2 8FB1      		in r24,47-0x20
 1456 06a4 922F      		mov r25,r18
 1457               	.LBE231:
 1458               	.LBE230:
 1459               	.LBB232:
 1460               	.LBB233:
 1461               	.LM276:
 1462 06a6 2FB9      		out 47-0x20,r18
 1463               	.L248:
 1464               	.LM277:
 1465 06a8 779B      		sbis 46-0x20,7
 1466 06aa 00C0      		rjmp .L248
 1467               	.LM278:
 1468 06ac 8FB1      		in r24,47-0x20
 1469               	.LBE233:
 1470               	.LBE232:
 1471               	.LM279:
 1472 06ae 8785      		ldd r24,Z+15
 1473               	.LBB234:
 1474               	.LBB235:
 1475               	.LM280:
 1476 06b0 8FB9      		out 47-0x20,r24
 1477               	.L250:
 1478               	.LM281:
 1479 06b2 779B      		sbis 46-0x20,7
 1480 06b4 00C0      		rjmp .L250
 1481               	.LM282:
 1482 06b6 8FB1      		in r24,47-0x20
 1483               	.LBE235:
 1484               	.LBE234:
 1485               	.LBB236:
 1486               	.LBB237:
 1487               	.LM283:
 1488 06b8 CFB8      		out 47-0x20,r12
 1489               	.L252:
 1490               	.LM284:
 1491 06ba 779B      		sbis 46-0x20,7
 1492 06bc 00C0      		rjmp .L252
 1493               	.LM285:
 1494 06be 8FB1      		in r24,47-0x20
 1495               	.LBE237:
 1496               	.LBE236:
 1497               	.LBB238:
 1498               	.LBB239:
 1499               	.LM286:
 1500 06c0 1FB8      		out 47-0x20,__zero_reg__
 1501               	.L254:
 1502               	.LM287:
 1503 06c2 779B      		sbis 46-0x20,7
 1504 06c4 00C0      		rjmp .L254
 1505               	.LM288:
 1506 06c6 8FB1      		in r24,47-0x20
 1507               	.LBE239:
 1508               	.LBE238:
 1509               	.LBB240:
 1510               	.LBB241:
 1511               	.LM289:
 1512 06c8 9FB9      		out 47-0x20,r25
 1513               	.L256:
 1514               	.LM290:
 1515 06ca 779B      		sbis 46-0x20,7
 1516 06cc 00C0      		rjmp .L256
 1517               	.LM291:
 1518 06ce 8FB1      		in r24,47-0x20
 1519               	.LBE241:
 1520               	.LBE240:
 1521               	.LM292:
 1522 06d0 8089      		ldd r24,Z+16
 1523               	.LBB242:
 1524               	.LBB243:
 1525               	.LM293:
 1526 06d2 8FB9      		out 47-0x20,r24
 1527               	.L258:
 1528               	.LM294:
 1529 06d4 779B      		sbis 46-0x20,7
 1530 06d6 00C0      		rjmp .L258
 1531               	.LM295:
 1532 06d8 8FB1      		in r24,47-0x20
 1533               	.LBE243:
 1534               	.LBE242:
 1535               	.LM296:
 1536 06da 2296      		adiw r28,2
 1537 06dc 2F5F      		subi r18,lo8(-(1))
 1538 06de 3F4F      		sbci r19,hi8(-(1))
 1539 06e0 4F4F      		sbci r20,hlo8(-(1))
 1540 06e2 5F4F      		sbci r21,hhi8(-(1))
 1541 06e4 3296      		adiw r30,2
 1542               	.L242:
 1543 06e6 C617      		cp r28,r22
 1544 06e8 D707      		cpc r29,r23
 1545 06ea 04F0      		brlt .L243
 1546 06ec 2093 0000 		sts address_flash,r18
 1547 06f0 3093 0000 		sts (address_flash)+1,r19
 1548 06f4 4093 0000 		sts (address_flash)+2,r20
 1549 06f8 5093 0000 		sts (address_flash)+3,r21
 1550               	.LM297:
 1551 06fc 8091 0000 		lds r24,rx_buf+8
 1552 0700 87FF      		sbrs r24,7
 1553 0702 00C0      		rjmp .L271
 1554               	.LM298:
 1555 0704 8091 0000 		lds r24,rx_buf+11
 1556               	.LBB244:
 1557               	.LBB245:
 1558               	.LM299:
 1559 0708 8FB9      		out 47-0x20,r24
 1560               	.L263:
 1561               	.LM300:
 1562 070a 779B      		sbis 46-0x20,7
 1563 070c 00C0      		rjmp .L263
 1564               	.LM301:
 1565 070e 8FB1      		in r24,47-0x20
 1566               	.LBE245:
 1567               	.LBE244:
 1568               	.LM302:
 1569 0710 BB27      		clr r27
 1570 0712 17FD      		sbrc r17,7
 1571 0714 BA95      		dec r27
 1572 0716 A12F      		mov r26,r17
 1573 0718 902F      		mov r25,r16
 1574 071a 8F2D      		mov r24,r15
 1575               	.LVL32:
 1576               	.LBB246:
 1577               	.LBB247:
 1578               	.LM303:
 1579 071c 8FB9      		out 47-0x20,r24
 1580               	.L265:
 1581               	.LM304:
 1582 071e 779B      		sbis 46-0x20,7
 1583 0720 00C0      		rjmp .L265
 1584               	.LM305:
 1585 0722 8FB1      		in r24,47-0x20
 1586               	.LBE247:
 1587               	.LBE246:
 1588               	.LBB248:
 1589               	.LBB249:
 1590               	.LM306:
 1591 0724 EFB8      		out 47-0x20,r14
 1592               	.L267:
 1593               	.LM307:
 1594 0726 779B      		sbis 46-0x20,7
 1595 0728 00C0      		rjmp .L267
 1596               	.LM308:
 1597 072a 8FB1      		in r24,47-0x20
 1598               	.LBE249:
 1599               	.LBE248:
 1600               	.LBB250:
 1601               	.LBB251:
 1602               	.LM309:
 1603 072c 1FB8      		out 47-0x20,__zero_reg__
 1604               	.L269:
 1605               	.LM310:
 1606 072e 779B      		sbis 46-0x20,7
 1607 0730 00C0      		rjmp .L269
 1608               	.LM311:
 1609 0732 8FB1      		in r24,47-0x20
 1610               	.LBE251:
 1611               	.LBE250:
 1612               	.LM312:
 1613 0734 8091 0000 		lds r24,rx_buf+9
 1614 0738 9927      		clr r25
 1615 073a 0E94 0000 		call delay_ms
 1616               	.LVL33:
 1617               	.LVL34:
 1618               	.L271:
 1619               	/* epilogue: frame size=0 */
 1620 073e DF91      		pop r29
 1621 0740 CF91      		pop r28
 1622 0742 1F91      		pop r17
 1623 0744 0F91      		pop r16
 1624 0746 FF90      		pop r15
 1625 0748 EF90      		pop r14
 1626 074a DF90      		pop r13
 1627 074c CF90      		pop r12
 1628 074e 0895      		ret
 1629               	/* epilogue end (size=9) */
 1630               	/* function cmdprogramflashisp size 177 (160) */
 1631               	.LFE27:
 1633               	.global	cmdchiperaseisp
 1635               	cmdchiperaseisp:
 1636               	.LFB26:
 1637               	.LM313:
 1638               	/* prologue: frame size=0 */
 1639               	/* prologue end (size=0) */
 1640               	.LM314:
 1641 0750 1092 0000 		sts tx_buf+2,__zero_reg__
 1642               	.LM315:
 1643 0754 82E0      		ldi r24,lo8(2)
 1644 0756 8093 0000 		sts tx_buf+3,r24
 1645               	.LM316:
 1646 075a 82E1      		ldi r24,lo8(18)
 1647 075c 8093 0000 		sts tx_buf+5,r24
 1648               	.LM317:
 1649 0760 1092 0000 		sts tx_buf+6,__zero_reg__
 1650               	.LM318:
 1651 0764 8091 0000 		lds r24,rx_buf+8
 1652               	.LBB252:
 1653               	.LBB253:
 1654               	.LM319:
 1655 0768 8FB9      		out 47-0x20,r24
 1656               	.L305:
 1657               	.LM320:
 1658 076a 779B      		sbis 46-0x20,7
 1659 076c 00C0      		rjmp .L305
 1660               	.LM321:
 1661 076e 8FB1      		in r24,47-0x20
 1662               	.LBE253:
 1663               	.LBE252:
 1664               	.LM322:
 1665 0770 8091 0000 		lds r24,rx_buf+9
 1666               	.LBB254:
 1667               	.LBB255:
 1668               	.LM323:
 1669 0774 8FB9      		out 47-0x20,r24
 1670               	.L307:
 1671               	.LM324:
 1672 0776 779B      		sbis 46-0x20,7
 1673 0778 00C0      		rjmp .L307
 1674               	.LM325:
 1675 077a 8FB1      		in r24,47-0x20
 1676               	.LBE255:
 1677               	.LBE254:
 1678               	.LM326:
 1679 077c 8091 0000 		lds r24,rx_buf+10
 1680               	.LBB256:
 1681               	.LBB257:
 1682               	.LM327:
 1683 0780 8FB9      		out 47-0x20,r24
 1684               	.L309:
 1685               	.LM328:
 1686 0782 779B      		sbis 46-0x20,7
 1687 0784 00C0      		rjmp .L309
 1688               	.LM329:
 1689 0786 8FB1      		in r24,47-0x20
 1690               	.LBE257:
 1691               	.LBE256:
 1692               	.LM330:
 1693 0788 8091 0000 		lds r24,rx_buf+11
 1694               	.LBB258:
 1695               	.LBB259:
 1696               	.LM331:
 1697 078c 8FB9      		out 47-0x20,r24
 1698               	.L311:
 1699               	.LM332:
 1700 078e 779B      		sbis 46-0x20,7
 1701 0790 00C0      		rjmp .L311
 1702               	.LM333:
 1703 0792 8FB1      		in r24,47-0x20
 1704               	.LBE259:
 1705               	.LBE258:
 1706               	.LM334:
 1707 0794 8091 0000 		lds r24,rx_buf+6
 1708 0798 9927      		clr r25
 1709 079a 0E94 0000 		call delay_ms
 1710               	/* epilogue: frame size=0 */
 1711 079e 0895      		ret
 1712               	/* epilogue end (size=1) */
 1713               	/* function cmdchiperaseisp size 40 (39) */
 1714               	.LFE26:
 1716               	.global	spi
 1718               	spi:
 1719               	.LFB34:
 1720               	.LM335:
 1721               	/* prologue: frame size=0 */
 1722               	/* prologue end (size=0) */
 1723               	.LVL35:
 1724               	.LM336:
 1725 07a0 8FB9      		out 47-0x20,r24
 1726               	.L323:
 1727               	.LM337:
 1728 07a2 779B      		sbis 46-0x20,7
 1729 07a4 00C0      		rjmp .L323
 1730               	.LM338:
 1731 07a6 8FB1      		in r24,47-0x20
 1732               	.LVL36:
 1733               	.LM339:
 1734 07a8 9927      		clr r25
 1735               	/* epilogue: frame size=0 */
 1736 07aa 0895      		ret
 1737               	/* epilogue end (size=1) */
 1738               	/* function spi size 6 (5) */
 1739               	.LFE34:
 1741               	.global	EnterProgmodeIsp
 1743               	EnterProgmodeIsp:
 1744               	.LFB35:
 1745               	.LM340:
 1746               	/* prologue: frame size=0 */
 1747 07ac 1F93      		push r17
 1748               	/* prologue end (size=1) */
 1749               	.LM341:
 1750 07ae 80E1      		ldi r24,lo8(16)
 1751 07b0 8093 0000 		sts tx_buf+5,r24
 1752               	.LM342:
 1753 07b4 87B3      		in r24,55-0x20
 1754 07b6 806B      		ori r24,lo8(-80)
 1755 07b8 87BB      		out 55-0x20,r24
 1756               	.LM343:
 1757 07ba B99A      		sbi 55-0x20,1
 1758               	.LM344:
 1759 07bc C798      		cbi 56-0x20,7
 1760               	.LM345:
 1761 07be 8091 0000 		lds r24,rx_buf+7
 1762 07c2 9091 0000 		lds r25,rx_buf+8
 1763 07c6 890F      		add r24,r25
 1764 07c8 912D      		mov r25,__zero_reg__
 1765 07ca 911D      		adc r25,__zero_reg__
 1766 07cc 0E94 0000 		call delay_ms
 1767               	.LM346:
 1768 07d0 8091 0000 		lds r24,rx_buf+11
 1769 07d4 8335      		cpi r24,lo8(83)
 1770 07d6 01F4      		brne .L329
 1771               	.LM347:
 1772 07d8 C198      		cbi 56-0x20,1
 1773               	.LM348:
 1774 07da 8091 0000 		lds r24,rx_buf+8
 1775 07de 9927      		clr r25
 1776 07e0 0E94 0000 		call delay_ms
 1777               	.LM349:
 1778 07e4 8AE0      		ldi r24,lo8(10)
 1779 07e6 90E0      		ldi r25,hi8(10)
 1780 07e8 0E94 0000 		call delay_ms
 1781               	.LM350:
 1782 07ec 8091 0000 		lds r24,rx_buf+13
 1783               	.LBB260:
 1784               	.LBB261:
 1785               	.LM351:
 1786 07f0 8FB9      		out 47-0x20,r24
 1787               	.L331:
 1788               	.LM352:
 1789 07f2 779B      		sbis 46-0x20,7
 1790 07f4 00C0      		rjmp .L331
 1791               	.LM353:
 1792 07f6 8FB1      		in r24,47-0x20
 1793               	.LBE261:
 1794               	.LBE260:
 1795               	.LM354:
 1796 07f8 8091 0000 		lds r24,rx_buf+10
 1797 07fc 9927      		clr r25
 1798 07fe 0E94 0000 		call delay_ms
 1799               	.LM355:
 1800 0802 8091 0000 		lds r24,rx_buf+14
 1801               	.LBB262:
 1802               	.LBB263:
 1803               	.LM356:
 1804 0806 8FB9      		out 47-0x20,r24
 1805               	.L333:
 1806               	.LM357:
 1807 0808 779B      		sbis 46-0x20,7
 1808 080a 00C0      		rjmp .L333
 1809               	.LM358:
 1810 080c 8FB1      		in r24,47-0x20
 1811               	.LBE263:
 1812               	.LBE262:
 1813               	.LM359:
 1814 080e 8091 0000 		lds r24,rx_buf+10
 1815 0812 9927      		clr r25
 1816 0814 0E94 0000 		call delay_ms
 1817               	.LM360:
 1818 0818 8091 0000 		lds r24,rx_buf+15
 1819               	.LBB264:
 1820               	.LBB265:
 1821               	.LM361:
 1822 081c 8FB9      		out 47-0x20,r24
 1823               	.L335:
 1824               	.LM362:
 1825 081e 779B      		sbis 46-0x20,7
 1826 0820 00C0      		rjmp .L335
 1827               	.LM363:
 1828 0822 1FB1      		in r17,47-0x20
 1829               	.LBE265:
 1830               	.LBE264:
 1831               	.LM364:
 1832 0824 8091 0000 		lds r24,rx_buf+10
 1833 0828 9927      		clr r25
 1834 082a 0E94 0000 		call delay_ms
 1835               	.LM365:
 1836 082e 8091 0000 		lds r24,rx_buf+16
 1837               	.LBB266:
 1838               	.LBB267:
 1839               	.LM366:
 1840 0832 8FB9      		out 47-0x20,r24
 1841               	.L337:
 1842               	.LM367:
 1843 0834 779B      		sbis 46-0x20,7
 1844 0836 00C0      		rjmp .L337
 1845               	.LM368:
 1846 0838 8FB1      		in r24,47-0x20
 1847               	.LBE267:
 1848               	.LBE266:
 1849               	.LM369:
 1850 083a 1335      		cpi r17,lo8(83)
 1851 083c 01F4      		brne .L339
 1852               	.LM370:
 1853 083e 1092 0000 		sts tx_buf+6,__zero_reg__
 1854 0842 00C0      		rjmp .L329
 1855               	.L339:
 1856               	.LM371:
 1857 0844 80EC      		ldi r24,lo8(-64)
 1858 0846 8093 0000 		sts tx_buf+6,r24
 1859               	.L329:
 1860               	.LM372:
 1861 084a 8091 0000 		lds r24,rx_buf+11
 1862 084e 8936      		cpi r24,lo8(105)
 1863 0850 01F4      		brne .L353
 1864               	.LM373:
 1865 0852 C19A      		sbi 56-0x20,1
 1866               	.LM374:
 1867 0854 8091 0000 		lds r24,rx_buf+8
 1868 0858 9927      		clr r25
 1869 085a 0E94 0000 		call delay_ms
 1870               	.LM375:
 1871 085e 8AE0      		ldi r24,lo8(10)
 1872 0860 90E0      		ldi r25,hi8(10)
 1873 0862 0E94 0000 		call delay_ms
 1874               	.LM376:
 1875 0866 8091 0000 		lds r24,rx_buf+13
 1876               	.LBB268:
 1877               	.LBB269:
 1878               	.LM377:
 1879 086a 8FB9      		out 47-0x20,r24
 1880               	.L343:
 1881               	.LM378:
 1882 086c 779B      		sbis 46-0x20,7
 1883 086e 00C0      		rjmp .L343
 1884               	.LM379:
 1885 0870 8FB1      		in r24,47-0x20
 1886               	.LBE269:
 1887               	.LBE268:
 1888               	.LM380:
 1889 0872 8091 0000 		lds r24,rx_buf+10
 1890 0876 9927      		clr r25
 1891 0878 0E94 0000 		call delay_ms
 1892               	.LM381:
 1893 087c 8091 0000 		lds r24,rx_buf+14
 1894               	.LBB270:
 1895               	.LBB271:
 1896               	.LM382:
 1897 0880 8FB9      		out 47-0x20,r24
 1898               	.L345:
 1899               	.LM383:
 1900 0882 779B      		sbis 46-0x20,7
 1901 0884 00C0      		rjmp .L345
 1902               	.LM384:
 1903 0886 8FB1      		in r24,47-0x20
 1904               	.LBE271:
 1905               	.LBE270:
 1906               	.LM385:
 1907 0888 8091 0000 		lds r24,rx_buf+10
 1908 088c 9927      		clr r25
 1909 088e 0E94 0000 		call delay_ms
 1910               	.LM386:
 1911 0892 8091 0000 		lds r24,rx_buf+15
 1912               	.LBB272:
 1913               	.LBB273:
 1914               	.LM387:
 1915 0896 8FB9      		out 47-0x20,r24
 1916               	.L347:
 1917               	.LM388:
 1918 0898 779B      		sbis 46-0x20,7
 1919 089a 00C0      		rjmp .L347
 1920               	.LM389:
 1921 089c 8FB1      		in r24,47-0x20
 1922               	.LBE273:
 1923               	.LBE272:
 1924               	.LM390:
 1925 089e 8091 0000 		lds r24,rx_buf+10
 1926 08a2 9927      		clr r25
 1927 08a4 0E94 0000 		call delay_ms
 1928               	.LM391:
 1929 08a8 8091 0000 		lds r24,rx_buf+16
 1930               	.LBB274:
 1931               	.LBB275:
 1932               	.LM392:
 1933 08ac 8FB9      		out 47-0x20,r24
 1934               	.L349:
 1935               	.LM393:
 1936 08ae 779B      		sbis 46-0x20,7
 1937 08b0 00C0      		rjmp .L349
 1938               	.LM394:
 1939 08b2 8FB1      		in r24,47-0x20
 1940               	.LBE275:
 1941               	.LBE274:
 1942               	.LM395:
 1943 08b4 8936      		cpi r24,lo8(105)
 1944 08b6 01F4      		brne .L351
 1945               	.LM396:
 1946 08b8 1092 0000 		sts tx_buf+6,__zero_reg__
 1947 08bc 00C0      		rjmp .L353
 1948               	.L351:
 1949               	.LM397:
 1950 08be 80EC      		ldi r24,lo8(-64)
 1951 08c0 8093 0000 		sts tx_buf+6,r24
 1952               	.L353:
 1953               	/* epilogue: frame size=0 */
 1954 08c4 1F91      		pop r17
 1955 08c6 0895      		ret
 1956               	/* epilogue end (size=2) */
 1957               	/* function EnterProgmodeIsp size 142 (139) */
 1958               	.LFE35:
 1960               	.global	cmdEnterProgmodeIsp
 1962               	cmdEnterProgmodeIsp:
 1963               	.LFB18:
 1964               	.LM398:
 1965               	/* prologue: frame size=0 */
 1966               	/* prologue end (size=0) */
 1967               	.LM399:
 1968 08c8 1092 0000 		sts tx_buf+2,__zero_reg__
 1969               	.LM400:
 1970 08cc 82E0      		ldi r24,lo8(2)
 1971 08ce 8093 0000 		sts tx_buf+3,r24
 1972               	.LM401:
 1973 08d2 0E94 0000 		call EnterProgmodeIsp
 1974               	/* epilogue: frame size=0 */
 1975 08d6 0895      		ret
 1976               	/* epilogue end (size=1) */
 1977               	/* function cmdEnterProgmodeIsp size 8 (7) */
 1978               	.LFE18:
 1980               	.global	ReadfusebitIsp
 1982               	ReadfusebitIsp:
 1983               	.LFB36:
 1984               	.LM402:
 1985               	/* prologue: frame size=4 */
 1986 08d8 CF93      		push r28
 1987 08da DF93      		push r29
 1988 08dc CDB7      		in r28,__SP_L__
 1989 08de DEB7      		in r29,__SP_H__
 1990 08e0 2497      		sbiw r28,4
 1991 08e2 0FB6      		in __tmp_reg__,__SREG__
 1992 08e4 F894      		cli
 1993 08e6 DEBF      		out __SP_H__,r29
 1994 08e8 0FBE      		out __SREG__,__tmp_reg__
 1995 08ea CDBF      		out __SP_L__,r28
 1996               	/* prologue end (size=10) */
 1997               	.LM403:
 1998 08ec 1092 0000 		sts tx_buf+2,__zero_reg__
 1999               	.LM404:
 2000 08f0 84E0      		ldi r24,lo8(4)
 2001 08f2 8093 0000 		sts tx_buf+3,r24
 2002               	.LM405:
 2003 08f6 1092 0000 		sts tx_buf+6,__zero_reg__
 2004               	.LM406:
 2005 08fa 8091 0000 		lds r24,rx_buf+7
 2006               	.LBB276:
 2007               	.LBB277:
 2008               	.LM407:
 2009 08fe 8FB9      		out 47-0x20,r24
 2010               	.L373:
 2011               	.LM408:
 2012 0900 779B      		sbis 46-0x20,7
 2013 0902 00C0      		rjmp .L373
 2014               	.LM409:
 2015 0904 3FB1      		in r19,47-0x20
 2016               	.LBE277:
 2017               	.LBE276:
 2018               	.LM410:
 2019 0906 8091 0000 		lds r24,rx_buf+8
 2020               	.LBB278:
 2021               	.LBB279:
 2022               	.LM411:
 2023 090a 8FB9      		out 47-0x20,r24
 2024               	.L375:
 2025               	.LM412:
 2026 090c 779B      		sbis 46-0x20,7
 2027 090e 00C0      		rjmp .L375
 2028               	.LM413:
 2029 0910 2FB1      		in r18,47-0x20
 2030               	.LBE279:
 2031               	.LBE278:
 2032               	.LM414:
 2033 0912 8091 0000 		lds r24,rx_buf+9
 2034               	.LBB280:
 2035               	.LBB281:
 2036               	.LM415:
 2037 0916 8FB9      		out 47-0x20,r24
 2038               	.L377:
 2039               	.LM416:
 2040 0918 779B      		sbis 46-0x20,7
 2041 091a 00C0      		rjmp .L377
 2042               	.LM417:
 2043 091c 9FB1      		in r25,47-0x20
 2044               	.LBE281:
 2045               	.LBE280:
 2046               	.LM418:
 2047 091e 8091 0000 		lds r24,rx_buf+10
 2048               	.LBB282:
 2049               	.LBB283:
 2050               	.LM419:
 2051 0922 8FB9      		out 47-0x20,r24
 2052               	.L379:
 2053               	.LM420:
 2054 0924 779B      		sbis 46-0x20,7
 2055 0926 00C0      		rjmp .L379
 2056               	.LM421:
 2057 0928 8FB1      		in r24,47-0x20
 2058               	.LBE283:
 2059               	.LBE282:
 2060               	.LM422:
 2061 092a 3983      		std Y+1,r19
 2062               	.LVL37:
 2063               	.LM423:
 2064 092c 2A83      		std Y+2,r18
 2065               	.LVL38:
 2066               	.LM424:
 2067 092e 9B83      		std Y+3,r25
 2068               	.LVL39:
 2069               	.LM425:
 2070 0930 8C83      		std Y+4,r24
 2071               	.LVL40:
 2072               	.LM426:
 2073 0932 8091 0000 		lds r24,rx_buf+6
 2074 0936 FE01      		movw r30,r28
 2075 0938 E80F      		add r30,r24
 2076 093a F11D      		adc r31,__zero_reg__
 2077 093c 8081      		ld r24,Z
 2078 093e 8093 0000 		sts tx_buf+7,r24
 2079               	.LM427:
 2080 0942 1092 0000 		sts tx_buf+8,__zero_reg__
 2081               	/* epilogue: frame size=4 */
 2082 0946 2496      		adiw r28,4
 2083 0948 0FB6      		in __tmp_reg__,__SREG__
 2084 094a F894      		cli
 2085 094c DEBF      		out __SP_H__,r29
 2086 094e 0FBE      		out __SREG__,__tmp_reg__
 2087 0950 CDBF      		out __SP_L__,r28
 2088 0952 DF91      		pop r29
 2089 0954 CF91      		pop r28
 2090 0956 0895      		ret
 2091               	/* epilogue end (size=9) */
 2092               	/* function ReadfusebitIsp size 64 (45) */
 2093               	.LFE36:
 2095               	.global	cmdreadfuseisp
 2097               	cmdreadfuseisp:
 2098               	.LFB22:
 2099               	.LM428:
 2100               	/* prologue: frame size=0 */
 2101               	/* prologue end (size=0) */
 2102               	.LM429:
 2103 0958 88E1      		ldi r24,lo8(24)
 2104 095a 8093 0000 		sts tx_buf+5,r24
 2105               	.LM430:
 2106 095e 0E94 0000 		call ReadfusebitIsp
 2107               	/* epilogue: frame size=0 */
 2108 0962 0895      		ret
 2109               	/* epilogue end (size=1) */
 2110               	/* function cmdreadfuseisp size 6 (5) */
 2111               	.LFE22:
 2113               	.global	cmdreadlockisp
 2115               	cmdreadlockisp:
 2116               	.LFB21:
 2117               	.LM431:
 2118               	/* prologue: frame size=0 */
 2119               	/* prologue end (size=0) */
 2120               	.LM432:
 2121 0964 8AE1      		ldi r24,lo8(26)
 2122 0966 8093 0000 		sts tx_buf+5,r24
 2123               	.LM433:
 2124 096a 0E94 0000 		call ReadfusebitIsp
 2125               	/* epilogue: frame size=0 */
 2126 096e 0895      		ret
 2127               	/* epilogue end (size=1) */
 2128               	/* function cmdreadlockisp size 6 (5) */
 2129               	.LFE21:
 2131               	.global	cmdreadosccalisp
 2133               	cmdreadosccalisp:
 2134               	.LFB20:
 2135               	.LM434:
 2136               	/* prologue: frame size=0 */
 2137               	/* prologue end (size=0) */
 2138               	.LM435:
 2139 0970 8CE1      		ldi r24,lo8(28)
 2140 0972 8093 0000 		sts tx_buf+5,r24
 2141               	.LM436:
 2142 0976 0E94 0000 		call ReadfusebitIsp
 2143               	/* epilogue: frame size=0 */
 2144 097a 0895      		ret
 2145               	/* epilogue end (size=1) */
 2146               	/* function cmdreadosccalisp size 6 (5) */
 2147               	.LFE20:
 2149               	.global	cmdReadSignatureIsp
 2151               	cmdReadSignatureIsp:
 2152               	.LFB17:
 2153               	.LM437:
 2154               	/* prologue: frame size=0 */
 2155               	/* prologue end (size=0) */
 2156               	.LM438:
 2157 097c 8BE1      		ldi r24,lo8(27)
 2158 097e 8093 0000 		sts tx_buf+5,r24
 2159               	.LM439:
 2160 0982 0E94 0000 		call ReadfusebitIsp
 2161               	/* epilogue: frame size=0 */
 2162 0986 0895      		ret
 2163               	/* epilogue end (size=1) */
 2164               	/* function cmdReadSignatureIsp size 6 (5) */
 2165               	.LFE17:
 2167               	.global	programfuseisp
 2169               	programfuseisp:
 2170               	.LFB37:
 2171               	.LM440:
 2172               	/* prologue: frame size=0 */
 2173               	/* prologue end (size=0) */
 2174               	.LM441:
 2175 0988 1092 0000 		sts tx_buf+2,__zero_reg__
 2176               	.LM442:
 2177 098c 83E0      		ldi r24,lo8(3)
 2178 098e 8093 0000 		sts tx_buf+3,r24
 2179               	.LM443:
 2180 0992 8091 0000 		lds r24,rx_buf+6
 2181               	.LBB284:
 2182               	.LBB285:
 2183               	.LM444:
 2184 0996 8FB9      		out 47-0x20,r24
 2185               	.L399:
 2186               	.LM445:
 2187 0998 779B      		sbis 46-0x20,7
 2188 099a 00C0      		rjmp .L399
 2189               	.LM446:
 2190 099c 8FB1      		in r24,47-0x20
 2191               	.LBE285:
 2192               	.LBE284:
 2193               	.LM447:
 2194 099e 8091 0000 		lds r24,rx_buf+7
 2195               	.LBB286:
 2196               	.LBB287:
 2197               	.LM448:
 2198 09a2 8FB9      		out 47-0x20,r24
 2199               	.L401:
 2200               	.LM449:
 2201 09a4 779B      		sbis 46-0x20,7
 2202 09a6 00C0      		rjmp .L401
 2203               	.LM450:
 2204 09a8 8FB1      		in r24,47-0x20
 2205               	.LBE287:
 2206               	.LBE286:
 2207               	.LM451:
 2208 09aa 8091 0000 		lds r24,rx_buf+8
 2209               	.LBB288:
 2210               	.LBB289:
 2211               	.LM452:
 2212 09ae 8FB9      		out 47-0x20,r24
 2213               	.L403:
 2214               	.LM453:
 2215 09b0 779B      		sbis 46-0x20,7
 2216 09b2 00C0      		rjmp .L403
 2217               	.LM454:
 2218 09b4 8FB1      		in r24,47-0x20
 2219               	.LBE289:
 2220               	.LBE288:
 2221               	.LM455:
 2222 09b6 8091 0000 		lds r24,rx_buf+9
 2223               	.LBB290:
 2224               	.LBB291:
 2225               	.LM456:
 2226 09ba 8FB9      		out 47-0x20,r24
 2227               	.L405:
 2228               	.LM457:
 2229 09bc 779B      		sbis 46-0x20,7
 2230 09be 00C0      		rjmp .L405
 2231               	.LM458:
 2232 09c0 8FB1      		in r24,47-0x20
 2233               	.LBE291:
 2234               	.LBE290:
 2235               	.LM459:
 2236 09c2 1092 0000 		sts tx_buf+6,__zero_reg__
 2237               	.LM460:
 2238 09c6 1092 0000 		sts tx_buf+7,__zero_reg__
 2239               	/* epilogue: frame size=0 */
 2240 09ca 0895      		ret
 2241               	/* epilogue end (size=1) */
 2242               	/* function programfuseisp size 34 (33) */
 2243               	.LFE37:
 2245               	.global	cmdprogramfuseisp
 2247               	cmdprogramfuseisp:
 2248               	.LFB24:
 2249               	.LM461:
 2250               	/* prologue: frame size=0 */
 2251               	/* prologue end (size=0) */
 2252               	.LM462:
 2253 09cc 0E94 0000 		call programfuseisp
 2254               	.LM463:
 2255 09d0 87E1      		ldi r24,lo8(23)
 2256 09d2 8093 0000 		sts tx_buf+5,r24
 2257               	/* epilogue: frame size=0 */
 2258 09d6 0895      		ret
 2259               	/* epilogue end (size=1) */
 2260               	/* function cmdprogramfuseisp size 6 (5) */
 2261               	.LFE24:
 2263               	.global	cmdprogramlockisp
 2265               	cmdprogramlockisp:
 2266               	.LFB23:
 2267               	.LM464:
 2268               	/* prologue: frame size=0 */
 2269               	/* prologue end (size=0) */
 2270               	.LM465:
 2271 09d8 0E94 0000 		call programfuseisp
 2272               	.LM466:
 2273 09dc 89E1      		ldi r24,lo8(25)
 2274 09de 8093 0000 		sts tx_buf+5,r24
 2275               	/* epilogue: frame size=0 */
 2276 09e2 0895      		ret
 2277               	/* epilogue end (size=1) */
 2278               	/* function cmdprogramlockisp size 6 (5) */
 2279               	.LFE23:
 2281               	.global	SetParameter
 2283               	SetParameter:
 2284               	.LFB38:
 2285               	.LM467:
 2286               	/* prologue: frame size=0 */
 2287               	/* prologue end (size=0) */
 2288               	.LM468:
 2289 09e4 8091 0000 		lds r24,rx_buf+6
 2290 09e8 8739      		cpi r24,lo8(-105)
 2291 09ea 01F0      		breq .L423
 2292               	.LM469:
 2293 09ec 8839      		cpi r24,lo8(-104)
 2294 09ee 01F0      		breq .L424
 2295 09f0 8639      		cpi r24,lo8(-106)
 2296 09f2 01F4      		brne .L425
 2297               	.LM470:
 2298 09f4 9091 0000 		lds r25,rx_buf+7
 2299 09f8 892F      		mov r24,r25
 2300 09fa 8370      		andi r24,lo8(3)
 2301 09fc 8860      		ori r24,lo8(8)
 2302 09fe 8EBD      		out 78-0x20,r24
 2303               	.LM471:
 2304 0a00 9093 0000 		sts pscalefsys,r25
 2305 0a04 0895      		ret
 2306               	.L423:
 2307               	.LM472:
 2308 0a06 8091 0000 		lds r24,rx_buf+7
 2309 0a0a 8ABD      		out 74-0x20,r24
 2310               	.LM473:
 2311 0a0c 8093 0000 		sts cmatchdef,r24
 2312 0a10 0895      		ret
 2313               	.L424:
 2314               	.LM474:
 2315 0a12 80E5      		ldi r24,lo8(80)
 2316 0a14 8DB9      		out 45-0x20,r24
 2317               	.LM475:
 2318 0a16 9DB1      		in r25,45-0x20
 2319 0a18 8091 0000 		lds r24,rx_buf+7
 2320 0a1c 8370      		andi r24,lo8(3)
 2321 0a1e 982B      		or r25,r24
 2322 0a20 9DB9      		out 45-0x20,r25
 2323               	.LM476:
 2324 0a22 8093 0000 		sts sckdurationdef,r24
 2325               	.L425:
 2326 0a26 0895      		ret
 2327               	/* epilogue: frame size=0 */
 2328               	/* epilogue: noreturn */
 2329               	/* epilogue end (size=0) */
 2330               	/* function SetParameter size 34 (34) */
 2331               	.LFE38:
 2333               	.global	cmdSetParameter
 2335               	cmdSetParameter:
 2336               	.LFB16:
 2337               	.LM477:
 2338               	/* prologue: frame size=0 */
 2339 0a28 1F93      		push r17
 2340               	/* prologue end (size=1) */
 2341               	.LM478:
 2342 0a2a 1092 0000 		sts tx_buf+2,__zero_reg__
 2343               	.LM479:
 2344 0a2e 12E0      		ldi r17,lo8(2)
 2345 0a30 1093 0000 		sts tx_buf+3,r17
 2346               	.LM480:
 2347 0a34 0E94 0000 		call SetParameter
 2348               	.LM481:
 2349 0a38 1093 0000 		sts tx_buf+5,r17
 2350               	.LM482:
 2351 0a3c 1092 0000 		sts tx_buf+6,__zero_reg__
 2352               	/* epilogue: frame size=0 */
 2353 0a40 1F91      		pop r17
 2354 0a42 0895      		ret
 2355               	/* epilogue end (size=2) */
 2356               	/* function cmdSetParameter size 14 (11) */
 2357               	.LFE16:
 2359               	.global	main
 2361               	main:
 2362               	.LFB6:
 2363               	.LM483:
 2364               	/* prologue: frame size=0 */
 2365               	/* prologue end (size=0) */
 2366               	.LBB296:
 2367               	.LBB297:
 2368               	.LM484:
 2369 0a44 BA9A      		sbi 55-0x20,2
 2370               	.LM485:
 2371 0a46 8D9A      		sbi 49-0x20,5
 2372               	.LM486:
 2373 0a48 1BB8      		out 43-0x20,__zero_reg__
 2374               	.LM487:
 2375 0a4a 88E1      		ldi r24,lo8(24)
 2376 0a4c 8AB9      		out 42-0x20,r24
 2377               	.LM488:
 2378 0a4e 86E8      		ldi r24,lo8(-122)
 2379 0a50 80BD      		out 64-0x20,r24
 2380               	.LM489:
 2381 0a52 10BC      		out 64-0x20,__zero_reg__
 2382               	.LM490:
 2383 0a54 83E0      		ldi r24,lo8(3)
 2384 0a56 89B9      		out 41-0x20,r24
 2385               	.LM491:
 2386 0a58 80E5      		ldi r24,lo8(80)
 2387 0a5a 8DB9      		out 45-0x20,r24
 2388               	.LM492:
 2389 0a5c 699A      		sbi 45-0x20,1
 2390               	.LM493:
 2391 0a5e 1EB8      		out 46-0x20,__zero_reg__
 2392               	.LM494:
 2393 0a60 80E4      		ldi r24,lo8(64)
 2394 0a62 8FBD      		out 79-0x20,r24
 2395               	.LM495:
 2396 0a64 89E0      		ldi r24,lo8(9)
 2397 0a66 8EBD      		out 78-0x20,r24
 2398               	.LM496:
 2399 0a68 8FEF      		ldi r24,lo8(-1)
 2400 0a6a 8DBD      		out 77-0x20,r24
 2401               	.LM497:
 2402 0a6c 8CBD      		out 76-0x20,r24
 2403               	.LM498:
 2404 0a6e 1BBC      		out 75-0x20,__zero_reg__
 2405               	.LM499:
 2406 0a70 1ABC      		out 74-0x20,__zero_reg__
 2407               	.LM500:
 2408 0a72 19BC      		out 73-0x20,__zero_reg__
 2409               	.LM501:
 2410 0a74 18BC      		out 72-0x20,__zero_reg__
 2411               	.LBE297:
 2412               	.LBE296:
 2413               	.LM502:
 2414 0a76 85E0      		ldi r24,lo8(5)
 2415 0a78 0E94 0000 		call flash_led
 2416               	.L429:
 2417               	.LM503:
 2418 0a7c C298      		cbi 56-0x20,2
 2419               	.LM504:
 2420 0a7e 0E94 0000 		call get_message
 2421               	.LM505:
 2422 0a82 C29A      		sbi 56-0x20,2
 2423               	.LM506:
 2424 0a84 8091 0000 		lds r24,rx_buf+5
 2425 0a88 9927      		clr r25
 2426 0a8a AA27      		clr r26
 2427 0a8c BB27      		clr r27
 2428 0a8e FC01      		movw r30,r24
 2429 0a90 3197      		sbiw r30,1
 2430 0a92 ED31      		cpi r30,29
 2431 0a94 F105      		cpc r31,__zero_reg__
 2432 0a96 00F0      		brlo .+2
 2433 0a98 00C0      		rjmp .L430
 2434 0a9a E050      		subi r30,lo8(-(gs(.L450)))
 2435 0a9c F040      		sbci r31,hi8(-(gs(.L450)))
 2436 0a9e EE0F      		lsl r30
 2437 0aa0 FF1F      		rol r31
 2438 0aa2 0590      		lpm __tmp_reg__,Z+
 2439 0aa4 F491      		lpm r31,Z
 2440 0aa6 E02D      		mov r30,__tmp_reg__
 2441 0aa8 0994      		ijmp
 2442               		.data
 2443               		.section .progmem.gcc_sw_table, "a", @progbits
 2444               		.p2align 1
 2445               	.L450:
 2446               		.data
 2447               		.section .progmem.gcc_sw_table, "a", @progbits
 2448               		.p2align 1
 2449 0000 0000      		.word gs(.L431)
 2450 0002 0000      		.word gs(.L432)
 2451 0004 0000      		.word gs(.L433)
 2452 0006 0000      		.word gs(.L430)
 2453 0008 0000      		.word gs(.L434)
 2454 000a 0000      		.word gs(.L435)
 2455 000c 0000      		.word gs(.L430)
 2456 000e 0000      		.word gs(.L430)
 2457 0010 0000      		.word gs(.L430)
 2458 0012 0000      		.word gs(.L430)
 2459 0014 0000      		.word gs(.L430)
 2460 0016 0000      		.word gs(.L430)
 2461 0018 0000      		.word gs(.L430)
 2462 001a 0000      		.word gs(.L430)
 2463 001c 0000      		.word gs(.L430)
 2464 001e 0000      		.word gs(.L436)
 2465 0020 0000      		.word gs(.L437)
 2466 0022 0000      		.word gs(.L438)
 2467 0024 0000      		.word gs(.L439)
 2468 0026 0000      		.word gs(.L440)
 2469 0028 0000      		.word gs(.L441)
 2470 002a 0000      		.word gs(.L442)
 2471 002c 0000      		.word gs(.L443)
 2472 002e 0000      		.word gs(.L444)
 2473 0030 0000      		.word gs(.L445)
 2474 0032 0000      		.word gs(.L446)
 2475 0034 0000      		.word gs(.L447)
 2476 0036 0000      		.word gs(.L448)
 2477 0038 0000      		.word gs(.L449)
 2478               		.text
 2479               	.L431:
 2480               	.LM507:
 2481 0aaa 0E94 0000 		call cmdSignOn
 2482 0aae 00C0      		rjmp .L430
 2483               	.L433:
 2484               	.LM508:
 2485 0ab0 0E94 0000 		call cmdGetParameter
 2486 0ab4 00C0      		rjmp .L430
 2487               	.L432:
 2488               	.LM509:
 2489 0ab6 0E94 0000 		call cmdSetParameter
 2490 0aba 00C0      		rjmp .L430
 2491               	.L436:
 2492               	.LM510:
 2493 0abc 0E94 0000 		call cmdEnterProgmodeIsp
 2494 0ac0 00C0      		rjmp .L430
 2495               	.L437:
 2496               	.LM511:
 2497 0ac2 0E94 0000 		call cmdLeaveProgmodeIsp
 2498 0ac6 00C0      		rjmp .L430
 2499               	.L447:
 2500               	.LM512:
 2501 0ac8 0E94 0000 		call cmdReadSignatureIsp
 2502 0acc 00C0      		rjmp .L430
 2503               	.L448:
 2504               	.LM513:
 2505 0ace 0E94 0000 		call cmdreadosccalisp
 2506 0ad2 00C0      		rjmp .L430
 2507               	.L444:
 2508               	.LM514:
 2509 0ad4 0E94 0000 		call cmdreadfuseisp
 2510 0ad8 00C0      		rjmp .L430
 2511               	.L443:
 2512               	.LM515:
 2513 0ada 0E94 0000 		call cmdprogramfuseisp
 2514 0ade 00C0      		rjmp .L430
 2515               	.L446:
 2516               	.LM516:
 2517 0ae0 0E94 0000 		call cmdreadlockisp
 2518 0ae4 00C0      		rjmp .L430
 2519               	.L445:
 2520               	.LM517:
 2521 0ae6 0E94 0000 		call cmdprogramlockisp
 2522 0aea 00C0      		rjmp .L430
 2523               	.L449:
 2524               	.LM518:
 2525 0aec 0E94 0000 		call cmdspimulti
 2526 0af0 00C0      		rjmp .L430
 2527               	.L438:
 2528               	.LM519:
 2529 0af2 0E94 0000 		call cmdchiperaseisp
 2530 0af6 00C0      		rjmp .L430
 2531               	.L439:
 2532               	.LM520:
 2533 0af8 0E94 0000 		call cmdprogramflashisp
 2534 0afc 00C0      		rjmp .L430
 2535               	.L435:
 2536               	.LM521:
 2537 0afe 0E94 0000 		call cmdloadaddress
 2538 0b02 00C0      		rjmp .L430
 2539               	.L440:
 2540               	.LM522:
 2541 0b04 0E94 0000 		call cmdreadflashisp
 2542 0b08 00C0      		rjmp .L430
 2543               	.L441:
 2544               	.LM523:
 2545 0b0a 0E94 0000 		call cmdprogrameepromisp
 2546 0b0e 00C0      		rjmp .L430
 2547               	.L442:
 2548               	.LM524:
 2549 0b10 0E94 0000 		call cmdreadeepromisp
 2550 0b14 00C0      		rjmp .L430
 2551               	.L434:
 2552               	.LBB298:
 2553               	.LBB299:
 2554               	.LM525:
 2555 0b16 1092 0000 		sts tx_buf+2,__zero_reg__
 2556               	.LM526:
 2557 0b1a 82E0      		ldi r24,lo8(2)
 2558 0b1c 8093 0000 		sts tx_buf+3,r24
 2559               	.LM527:
 2560 0b20 85E0      		ldi r24,lo8(5)
 2561 0b22 8093 0000 		sts tx_buf+5,r24
 2562               	.LM528:
 2563 0b26 1092 0000 		sts tx_buf+6,__zero_reg__
 2564               	.L430:
 2565               	.LBE299:
 2566               	.LBE298:
 2567               	.LM529:
 2568 0b2a 0E94 0000 		call sendResponse
 2569 0b2e 00C0      		rjmp .L429
 2570               	/* epilogue: frame size=0 */
 2571               	/* epilogue: noreturn */
 2572               	/* epilogue end (size=0) */
 2573               	/* function main size 147 (147) */
 2574               	.LFE6:
 2576               	.global	rx_ptr
 2577               	.global	rx_ptr
 2578               		.section .bss
 2581               	rx_ptr:
 2582 0000 0000      		.skip 2,0
 2583               	.global	tx_ptr
 2584               	.global	tx_ptr
 2587               	tx_ptr:
 2588 0002 0000      		.skip 2,0
 2589               	.global	rx_chm
 2590               	.global	rx_chm
 2593               	rx_chm:
 2594 0004 00        		.skip 1,0
 2595               	.global	tx_chm
 2596               	.global	tx_chm
 2599               	tx_chm:
 2600 0005 00        		.skip 1,0
 2601               	.global	address_flash
 2602               	.global	address_flash
 2605               	address_flash:
 2606 0006 0000 0000 		.skip 4,0
 2607               	.global	address_eeprom
 2608               	.global	address_eeprom
 2611               	address_eeprom:
 2612 000a 0000      		.skip 2,0
 2613               	.global	extended_address
 2614               	.global	extended_address
 2617               	extended_address:
 2618 000c 00        		.skip 1,0
 2619               	.global	sckdurationdef
 2620               		.data
 2623               	sckdurationdef:
 2624 0000 02        		.byte	2
 2625               	.global	cmatchdef
 2626               	.global	cmatchdef
 2627               		.section .bss
 2630               	cmatchdef:
 2631 000d 00        		.skip 1,0
 2632               	.global	pscalefsys
 2633               		.data
 2636               	pscalefsys:
 2637 0001 01        		.byte	1
 2638               		.comm rx_buf,275,1
 2639               		.comm tx_buf,275,1
 2912               	.Letext0:
DEFINED SYMBOLS
                            *ABS*:00000000 Main.c
C:\Users\ADMINI~1\AppData\Local\Temp/cczq0RHX.s:3      *ABS*:0000003f __SREG__
C:\Users\ADMINI~1\AppData\Local\Temp/cczq0RHX.s:4      *ABS*:0000003e __SP_H__
C:\Users\ADMINI~1\AppData\Local\Temp/cczq0RHX.s:5      *ABS*:0000003d __SP_L__
C:\Users\ADMINI~1\AppData\Local\Temp/cczq0RHX.s:6      *ABS*:00000000 __tmp_reg__
C:\Users\ADMINI~1\AppData\Local\Temp/cczq0RHX.s:7      *ABS*:00000001 __zero_reg__
C:\Users\ADMINI~1\AppData\Local\Temp/cczq0RHX.s:20     .text:00000000 putch
C:\Users\ADMINI~1\AppData\Local\Temp/cczq0RHX.s:40     .text:00000008 getch
C:\Users\ADMINI~1\AppData\Local\Temp/cczq0RHX.s:61     .text:00000012 flash_led
C:\Users\ADMINI~1\AppData\Local\Temp/cczq0RHX.s:94     .text:00000028 get_message_body
                            *COM*:00000113 rx_buf
C:\Users\ADMINI~1\AppData\Local\Temp/cczq0RHX.s:2581   .bss:00000000 rx_ptr
C:\Users\ADMINI~1\AppData\Local\Temp/cczq0RHX.s:2593   .bss:00000004 rx_chm
C:\Users\ADMINI~1\AppData\Local\Temp/cczq0RHX.s:153    .text:0000007a get_message
C:\Users\ADMINI~1\AppData\Local\Temp/cczq0RHX.s:287    .text:00000112 sendResponse
C:\Users\ADMINI~1\AppData\Local\Temp/cczq0RHX.s:2599   .bss:00000005 tx_chm
                            *COM*:00000113 tx_buf
C:\Users\ADMINI~1\AppData\Local\Temp/cczq0RHX.s:381    .text:00000182 cmdSignOn
C:\Users\ADMINI~1\AppData\Local\Temp/cczq0RHX.s:430    .text:000001cc cmdGetParameter
C:\Users\ADMINI~1\AppData\Local\Temp/cczq0RHX.s:2636   .data:00000001 pscalefsys
C:\Users\ADMINI~1\AppData\Local\Temp/cczq0RHX.s:2630   .bss:0000000d cmatchdef
C:\Users\ADMINI~1\AppData\Local\Temp/cczq0RHX.s:2623   .data:00000000 sckdurationdef
C:\Users\ADMINI~1\AppData\Local\Temp/cczq0RHX.s:516    .text:00000240 cmdLeaveProgmodeIsp
C:\Users\ADMINI~1\AppData\Local\Temp/cczq0RHX.s:551    .text:00000266 cmdspimulti
C:\Users\ADMINI~1\AppData\Local\Temp/cczq0RHX.s:601    .text:000002aa cmdloadaddress
C:\Users\ADMINI~1\AppData\Local\Temp/cczq0RHX.s:2611   .bss:0000000a address_eeprom
C:\Users\ADMINI~1\AppData\Local\Temp/cczq0RHX.s:2605   .bss:00000006 address_flash
C:\Users\ADMINI~1\AppData\Local\Temp/cczq0RHX.s:2617   .bss:0000000c extended_address
C:\Users\ADMINI~1\AppData\Local\Temp/cczq0RHX.s:671    .text:0000032a cmdreadflashisp
C:\Users\ADMINI~1\AppData\Local\Temp/cczq0RHX.s:934    .text:00000456 cmdreadeepromisp
C:\Users\ADMINI~1\AppData\Local\Temp/cczq0RHX.s:1055   .text:000004e4 cmdosccal
C:\Users\ADMINI~1\AppData\Local\Temp/cczq0RHX.s:1078   .text:000004fa delay_ms
C:\Users\ADMINI~1\AppData\Local\Temp/cczq0RHX.s:1123   .text:00000516 cmdprogrameepromisp
C:\Users\ADMINI~1\AppData\Local\Temp/cczq0RHX.s:1314   .text:000005ee cmdprogramflashisp
C:\Users\ADMINI~1\AppData\Local\Temp/cczq0RHX.s:1635   .text:00000750 cmdchiperaseisp
C:\Users\ADMINI~1\AppData\Local\Temp/cczq0RHX.s:1718   .text:000007a0 spi
C:\Users\ADMINI~1\AppData\Local\Temp/cczq0RHX.s:1743   .text:000007ac EnterProgmodeIsp
C:\Users\ADMINI~1\AppData\Local\Temp/cczq0RHX.s:1962   .text:000008c8 cmdEnterProgmodeIsp
C:\Users\ADMINI~1\AppData\Local\Temp/cczq0RHX.s:1982   .text:000008d8 ReadfusebitIsp
C:\Users\ADMINI~1\AppData\Local\Temp/cczq0RHX.s:2097   .text:00000958 cmdreadfuseisp
C:\Users\ADMINI~1\AppData\Local\Temp/cczq0RHX.s:2115   .text:00000964 cmdreadlockisp
C:\Users\ADMINI~1\AppData\Local\Temp/cczq0RHX.s:2133   .text:00000970 cmdreadosccalisp
C:\Users\ADMINI~1\AppData\Local\Temp/cczq0RHX.s:2151   .text:0000097c cmdReadSignatureIsp
C:\Users\ADMINI~1\AppData\Local\Temp/cczq0RHX.s:2169   .text:00000988 programfuseisp
C:\Users\ADMINI~1\AppData\Local\Temp/cczq0RHX.s:2247   .text:000009cc cmdprogramfuseisp
C:\Users\ADMINI~1\AppData\Local\Temp/cczq0RHX.s:2265   .text:000009d8 cmdprogramlockisp
C:\Users\ADMINI~1\AppData\Local\Temp/cczq0RHX.s:2283   .text:000009e4 SetParameter
C:\Users\ADMINI~1\AppData\Local\Temp/cczq0RHX.s:2335   .text:00000a28 cmdSetParameter
C:\Users\ADMINI~1\AppData\Local\Temp/cczq0RHX.s:2361   .text:00000a44 main
C:\Users\ADMINI~1\AppData\Local\Temp/cczq0RHX.s:2587   .bss:00000002 tx_ptr

UNDEFINED SYMBOLS
__do_copy_data
__do_clear_bss
__divmodhi4
