   1               		.file	"main.c"
   2               		.arch attiny2313
   3               	__SREG__ = 0x3f
   4               	__SP_H__ = 0x3e
   5               	__SP_L__ = 0x3d
   6               	__tmp_reg__ = 0
   7               	__zero_reg__ = 1
   8               		.global __do_copy_data
   9               		.global __do_clear_bss
  17               	.Ltext0:
  18               	.global	u08TmrTock
  19               	.global	u08TmrTock
  20               		.section .bss
  23               	u08TmrTock:
  24 0000 00        		.skip 1,0
  25               	.global	u08TmrIR
  26               		.data
  29               	u08TmrIR:
  30 0000 0F        		.byte	15
  31               	.global	u08Ir1Detect
  32               	.global	u08Ir1Detect
  33               		.section .bss
  36               	u08Ir1Detect:
  37 0001 00        		.skip 1,0
  38               	.global	u08Ir2Detect
  39               	.global	u08Ir2Detect
  42               	u08Ir2Detect:
  43 0002 00        		.skip 1,0
  44               	.global	u08Ir3Detect
  45               	.global	u08Ir3Detect
  48               	u08Ir3Detect:
  49 0003 00        		.skip 1,0
  50               	.global	u08Ir4Detect
  51               	.global	u08Ir4Detect
  54               	u08Ir4Detect:
  55 0004 00        		.skip 1,0
  56               	.global	u08SensorReadNumber
  57               		.data
  60               	u08SensorReadNumber:
  61 0001 01        		.byte	1
  62               	.global	boolAlarm
  63               	.global	boolAlarm
  64               		.section .bss
  67               	boolAlarm:
  68 0005 00        		.skip 1,0
  69               	.global	u08State
  70               	.global	u08State
  73               	u08State:
  74 0006 00        		.skip 1,0
  75               	.global	u08Summary
  76               	.global	u08Summary
  79               	u08Summary:
  80 0007 00        		.skip 1,0
  81               	.global	u08TmrFlash
  82               	.global	u08TmrFlash
  85               	u08TmrFlash:
  86 0008 00        		.skip 1,0
  87               	.global	u16Tmr30Sec
  88               		.data
  91               	u16Tmr30Sec:
  92 0002 DC05      		.word	1500
  93               		.text
  94               	.global	main
  96               	main:
  97               	.LFB2:
  98               	.LM1:
  99               	/* prologue: frame size=0 */
 100 0000 C0E0      		ldi r28,lo8(__stack - 0)
 101 0002 D0E0      		ldi r29,hi8(__stack - 0)
 102 0004 DEBF      		out __SP_H__,r29
 103 0006 CDBF      		out __SP_L__,r28
 104               	/* prologue end (size=4) */
 105               	.LM2:
 106               	/* #APP */
 107 0008 F894      		cli
 108               	.LM3:
 109               	/* #NOAPP */
 110 000a 04D0      		rcall uCinit
 111               	.LM4:
 112               	/* #APP */
 113 000c 7894      		sei
 114               	/* #NOAPP */
 115               	.L2:
 116               	.LM5:
 117               	/* #APP */
 118 000e A895      		wdr
 119               	.LM6:
 120               	/* #NOAPP */
 121 0010 59D1      		rcall SrvTock
 122 0012 FDCF      		rjmp .L2
 123               	/* epilogue: frame size=0 */
 124               	/* epilogue: noreturn */
 125               	/* epilogue end (size=0) */
 126               	/* function main size 13 (9) */
 127               	.LFE2:
 129               	.global	uCinit
 131               	uCinit:
 132               	.LFB3:
 133               	.LM7:
 134               	/* prologue: frame size=0 */
 135 0014 CF93      		push r28
 136 0016 DF93      		push r29
 137 0018 CDB7      		in r28,__SP_L__
 138 001a DEB7      		in r29,__SP_H__
 139               	/* prologue end (size=4) */
 140               	.LM8:
 141 001c 87EF      		ldi r24,lo8(-9)
 142 001e 8093 3800 		sts 56,r24
 143               	.LM9:
 144 0022 88EA      		ldi r24,lo8(-88)
 145 0024 8093 3700 		sts 55,r24
 146               	.LM10:
 147 0028 80E2      		ldi r24,lo8(32)
 148 002a 8093 3200 		sts 50,r24
 149               	.LM11:
 150 002e 8FEF      		ldi r24,lo8(-1)
 151 0030 8093 3100 		sts 49,r24
 152               	.LM12:
 153 0034 82E0      		ldi r24,lo8(2)
 154 0036 8093 5900 		sts 89,r24
 155               	.LM13:
 156 003a 1092 5200 		sts 82,__zero_reg__
 157               	.LM14:
 158 003e 1092 5000 		sts 80,__zero_reg__
 159               	.LM15:
 160 0042 83E0      		ldi r24,lo8(3)
 161 0044 8093 5300 		sts 83,r24
 162               	.LM16:
 163 0048 83E4      		ldi r24,lo8(67)
 164 004a 8093 4F00 		sts 79,r24
 165               	.LM17:
 166 004e 89E1      		ldi r24,lo8(25)
 167 0050 8093 4E00 		sts 78,r24
 168               	.LM18:
 169 0054 81E0      		ldi r24,lo8(1)
 170 0056 8093 4B00 		sts 75,r24
 171               	.LM19:
 172 005a 88E0      		ldi r24,lo8(8)
 173 005c 8093 4A00 		sts 74,r24
 174               	.LM20:
 175 0060 1092 2B00 		sts 43,__zero_reg__
 176               	.LM21:
 177 0064 88E0      		ldi r24,lo8(8)
 178 0066 8093 2A00 		sts 42,r24
 179               	.LM22:
 180 006a 86E0      		ldi r24,lo8(6)
 181 006c 8093 2300 		sts 35,r24
 182               	.LM23:
 183 0070 1092 2200 		sts 34,__zero_reg__
 184               	.LM24:
 185 0074 81E8      		ldi r24,lo8(-127)
 186 0076 8093 2900 		sts 41,r24
 187               	.LM25:
 188 007a AAD2      		rcall turnOffVisibleLeds
 189               	.LM26:
 190 007c 8091 3200 		lds r24,50
 191 0080 8064      		ori r24,lo8(64)
 192 0082 8093 3200 		sts 50,r24
 193               	/* epilogue: frame size=0 */
 194 0086 DF91      		pop r29
 195 0088 CF91      		pop r28
 196 008a 0895      		ret
 197               	/* epilogue end (size=3) */
 198               	/* function uCinit size 60 (53) */
 199               	.LFE3:
 201               	.global	__vector_6
 203               	__vector_6:
 204               	.LFB4:
 205               	.LM27:
 206               	/* prologue: frame size=4 */
 207 008c 1F92      		push __zero_reg__
 208 008e 0F92      		push __tmp_reg__
 209 0090 0FB6      		in __tmp_reg__,__SREG__
 210 0092 0F92      		push __tmp_reg__
 211 0094 1124      		clr __zero_reg__
 212 0096 2F93      		push r18
 213 0098 3F93      		push r19
 214 009a 4F93      		push r20
 215 009c 5F93      		push r21
 216 009e 6F93      		push r22
 217 00a0 7F93      		push r23
 218 00a2 8F93      		push r24
 219 00a4 9F93      		push r25
 220 00a6 AF93      		push r26
 221 00a8 BF93      		push r27
 222 00aa EF93      		push r30
 223 00ac FF93      		push r31
 224 00ae CF93      		push r28
 225 00b0 DF93      		push r29
 226 00b2 CDB7      		in r28,__SP_L__
 227 00b4 DEB7      		in r29,__SP_H__
 228 00b6 2497      		sbiw r28,4
 229 00b8 DEBF      		out __SP_H__,r29
 230 00ba CDBF      		out __SP_L__,r28
 231               	/* prologue end (size=24) */
 232               	.LM28:
 233 00bc 8091 0000 		lds r24,u08TmrTock
 234 00c0 8823      		tst r24
 235 00c2 29F0      		breq .L6
 236               	.LM29:
 237 00c4 8091 0000 		lds r24,u08TmrTock
 238 00c8 8150      		subi r24,lo8(-(-1))
 239 00ca 8093 0000 		sts u08TmrTock,r24
 240               	.L6:
 241               	.LM30:
 242 00ce 8091 0000 		lds r24,boolAlarm
 243 00d2 8823      		tst r24
 244 00d4 09F0      		breq .+2
 245 00d6 D6C0      		rjmp .L5
 246               	.LM31:
 247 00d8 8091 0000 		lds r24,u08TmrIR
 248 00dc 8823      		tst r24
 249 00de 09F0      		breq .+2
 250 00e0 60C0      		rjmp .L8
 251               	.LM32:
 252 00e2 8FE0      		ldi r24,lo8(15)
 253 00e4 8093 0000 		sts u08TmrIR,r24
 254               	.LM33:
 255 00e8 8091 0000 		lds r24,u08SensorReadNumber
 256 00ec 8430      		cpi r24,lo8(4)
 257 00ee 21F4      		brne .L9
 258               	.LM34:
 259 00f0 81E0      		ldi r24,lo8(1)
 260 00f2 8093 0000 		sts u08SensorReadNumber,r24
 261 00f6 05C0      		rjmp .L10
 262               	.L9:
 263               	.LM35:
 264 00f8 8091 0000 		lds r24,u08SensorReadNumber
 265 00fc 8F5F      		subi r24,lo8(-(1))
 266 00fe 8093 0000 		sts u08SensorReadNumber,r24
 267               	.L10:
 268               	.LM36:
 269 0102 89E1      		ldi r24,lo8(25)
 270 0104 8093 4E00 		sts 78,r24
 271               	.LM37:
 272 0108 8091 0000 		lds r24,u08SensorReadNumber
 273 010c 282F      		mov r18,r24
 274 010e 3327      		clr r19
 275 0110 3A83      		std Y+2,r19
 276 0112 2983      		std Y+1,r18
 277 0114 8981      		ldd r24,Y+1
 278 0116 9A81      		ldd r25,Y+2
 279 0118 8230      		cpi r24,2
 280 011a 9105      		cpc r25,__zero_reg__
 281 011c 09F1      		breq .L13
 282 011e 2981      		ldd r18,Y+1
 283 0120 3A81      		ldd r19,Y+2
 284 0122 2330      		cpi r18,3
 285 0124 3105      		cpc r19,__zero_reg__
 286 0126 34F4      		brge .L16
 287 0128 8981      		ldd r24,Y+1
 288 012a 9A81      		ldd r25,Y+2
 289 012c 8130      		cpi r24,1
 290 012e 9105      		cpc r25,__zero_reg__
 291 0130 61F0      		breq .L12
 292 0132 A8C0      		rjmp .L5
 293               	.L16:
 294 0134 2981      		ldd r18,Y+1
 295 0136 3A81      		ldd r19,Y+2
 296 0138 2330      		cpi r18,3
 297 013a 3105      		cpc r19,__zero_reg__
 298 013c E1F0      		breq .L14
 299 013e 8981      		ldd r24,Y+1
 300 0140 9A81      		ldd r25,Y+2
 301 0142 8430      		cpi r24,4
 302 0144 9105      		cpc r25,__zero_reg__
 303 0146 11F1      		breq .L15
 304 0148 9DC0      		rjmp .L5
 305               	.L12:
 306               	.LM38:
 307 014a 8091 3200 		lds r24,50
 308 014e 877F      		andi r24,lo8(-9)
 309 0150 8093 3200 		sts 50,r24
 310               	.LM39:
 311 0154 8091 3200 		lds r24,50
 312 0158 8B7F      		andi r24,lo8(-5)
 313 015a 8093 3200 		sts 50,r24
 314               	.LM40:
 315 015e 92C0      		rjmp .L5
 316               	.L13:
 317               	.LM41:
 318 0160 8091 3200 		lds r24,50
 319 0164 8860      		ori r24,lo8(8)
 320 0166 8093 3200 		sts 50,r24
 321               	.LM42:
 322 016a 8091 3200 		lds r24,50
 323 016e 8B7F      		andi r24,lo8(-5)
 324 0170 8093 3200 		sts 50,r24
 325               	.LM43:
 326 0174 87C0      		rjmp .L5
 327               	.L14:
 328               	.LM44:
 329 0176 8091 3200 		lds r24,50
 330 017a 877F      		andi r24,lo8(-9)
 331 017c 8093 3200 		sts 50,r24
 332               	.LM45:
 333 0180 8091 3200 		lds r24,50
 334 0184 8460      		ori r24,lo8(4)
 335 0186 8093 3200 		sts 50,r24
 336               	.LM46:
 337 018a 7CC0      		rjmp .L5
 338               	.L15:
 339               	.LM47:
 340 018c 8091 3200 		lds r24,50
 341 0190 8860      		ori r24,lo8(8)
 342 0192 8093 3200 		sts 50,r24
 343               	.LM48:
 344 0196 8091 3200 		lds r24,50
 345 019a 8460      		ori r24,lo8(4)
 346 019c 8093 3200 		sts 50,r24
 347               	.LM49:
 348 01a0 71C0      		rjmp .L5
 349               	.L8:
 350               	.LM50:
 351 01a2 8091 0000 		lds r24,u08TmrIR
 352 01a6 8730      		cpi r24,lo8(7)
 353 01a8 09F0      		breq .+2
 354 01aa 67C0      		rjmp .L18
 355               	.LM51:
 356 01ac 8091 0000 		lds r24,u08SensorReadNumber
 357 01b0 282F      		mov r18,r24
 358 01b2 3327      		clr r19
 359 01b4 3C83      		std Y+4,r19
 360 01b6 2B83      		std Y+3,r18
 361 01b8 8B81      		ldd r24,Y+3
 362 01ba 9C81      		ldd r25,Y+4
 363 01bc 8230      		cpi r24,2
 364 01be 9105      		cpc r25,__zero_reg__
 365 01c0 31F1      		breq .L23
 366 01c2 2B81      		ldd r18,Y+3
 367 01c4 3C81      		ldd r19,Y+4
 368 01c6 2330      		cpi r18,3
 369 01c8 3105      		cpc r19,__zero_reg__
 370 01ca 34F4      		brge .L32
 371 01cc 8B81      		ldd r24,Y+3
 372 01ce 9C81      		ldd r25,Y+4
 373 01d0 8130      		cpi r24,1
 374 01d2 9105      		cpc r25,__zero_reg__
 375 01d4 61F0      		breq .L20
 376 01d6 4AC0      		rjmp .L19
 377               	.L32:
 378 01d8 2B81      		ldd r18,Y+3
 379 01da 3C81      		ldd r19,Y+4
 380 01dc 2330      		cpi r18,3
 381 01de 3105      		cpc r19,__zero_reg__
 382 01e0 31F1      		breq .L26
 383 01e2 8B81      		ldd r24,Y+3
 384 01e4 9C81      		ldd r25,Y+4
 385 01e6 8430      		cpi r24,4
 386 01e8 9105      		cpc r25,__zero_reg__
 387 01ea 89F1      		breq .L29
 388 01ec 3FC0      		rjmp .L19
 389               	.L20:
 390               	.LM52:
 391 01ee 8091 3600 		lds r24,54
 392 01f2 9927      		clr r25
 393 01f4 8470      		andi r24,lo8(4)
 394 01f6 9070      		andi r25,hi8(4)
 395 01f8 0097      		sbiw r24,0
 396 01fa 31F0      		breq .L21
 397               	.LM53:
 398 01fc 8091 0000 		lds r24,u08Ir1Detect
 399 0200 8F5F      		subi r24,lo8(-(1))
 400 0202 8093 0000 		sts u08Ir1Detect,r24
 401 0206 32C0      		rjmp .L19
 402               	.L21:
 403               	.LM54:
 404 0208 1092 0000 		sts u08Ir1Detect,__zero_reg__
 405               	.LM55:
 406 020c 2FC0      		rjmp .L19
 407               	.L23:
 408               	.LM56:
 409 020e 8091 3600 		lds r24,54
 410 0212 9927      		clr r25
 411 0214 8270      		andi r24,lo8(2)
 412 0216 9070      		andi r25,hi8(2)
 413 0218 0097      		sbiw r24,0
 414 021a 31F0      		breq .L24
 415               	.LM57:
 416 021c 8091 0000 		lds r24,u08Ir2Detect
 417 0220 8F5F      		subi r24,lo8(-(1))
 418 0222 8093 0000 		sts u08Ir2Detect,r24
 419 0226 22C0      		rjmp .L19
 420               	.L24:
 421               	.LM58:
 422 0228 1092 0000 		sts u08Ir2Detect,__zero_reg__
 423               	.LM59:
 424 022c 1FC0      		rjmp .L19
 425               	.L26:
 426               	.LM60:
 427 022e 8091 3600 		lds r24,54
 428 0232 9927      		clr r25
 429 0234 8170      		andi r24,lo8(1)
 430 0236 9070      		andi r25,hi8(1)
 431 0238 0097      		sbiw r24,0
 432 023a 31F0      		breq .L27
 433               	.LM61:
 434 023c 8091 0000 		lds r24,u08Ir3Detect
 435 0240 8F5F      		subi r24,lo8(-(1))
 436 0242 8093 0000 		sts u08Ir3Detect,r24
 437 0246 12C0      		rjmp .L19
 438               	.L27:
 439               	.LM62:
 440 0248 1092 0000 		sts u08Ir3Detect,__zero_reg__
 441               	.LM63:
 442 024c 0FC0      		rjmp .L19
 443               	.L29:
 444               	.LM64:
 445 024e 8091 3600 		lds r24,54
 446 0252 9927      		clr r25
 447 0254 8071      		andi r24,lo8(16)
 448 0256 9070      		andi r25,hi8(16)
 449 0258 0097      		sbiw r24,0
 450 025a 31F0      		breq .L30
 451               	.LM65:
 452 025c 8091 0000 		lds r24,u08Ir4Detect
 453 0260 8F5F      		subi r24,lo8(-(1))
 454 0262 8093 0000 		sts u08Ir4Detect,r24
 455 0266 02C0      		rjmp .L19
 456               	.L30:
 457               	.LM66:
 458 0268 1092 0000 		sts u08Ir4Detect,__zero_reg__
 459               	.L19:
 460               	.LM67:
 461 026c 8091 0000 		lds r24,u08TmrIR
 462 0270 8150      		subi r24,lo8(-(-1))
 463 0272 8093 0000 		sts u08TmrIR,r24
 464               	.LM68:
 465 0276 1DD0      		rcall turn_Off_ir
 466 0278 05C0      		rjmp .L5
 467               	.L18:
 468               	.LM69:
 469 027a 8091 0000 		lds r24,u08TmrIR
 470 027e 8150      		subi r24,lo8(-(-1))
 471 0280 8093 0000 		sts u08TmrIR,r24
 472               	.L5:
 473               	/* epilogue: frame size=4 */
 474 0284 2496      		adiw r28,4
 475 0286 F894      		cli
 476 0288 DEBF      		out __SP_H__,r29
 477 028a CDBF      		out __SP_L__,r28
 478 028c DF91      		pop r29
 479 028e CF91      		pop r28
 480 0290 FF91      		pop r31
 481 0292 EF91      		pop r30
 482 0294 BF91      		pop r27
 483 0296 AF91      		pop r26
 484 0298 9F91      		pop r25
 485 029a 8F91      		pop r24
 486 029c 7F91      		pop r23
 487 029e 6F91      		pop r22
 488 02a0 5F91      		pop r21
 489 02a2 4F91      		pop r20
 490 02a4 3F91      		pop r19
 491 02a6 2F91      		pop r18
 492 02a8 0F90      		pop __tmp_reg__
 493 02aa 0FBE      		out __SREG__,__tmp_reg__
 494 02ac 0F90      		pop __tmp_reg__
 495 02ae 1F90      		pop __zero_reg__
 496 02b0 1895      		reti
 497               	/* epilogue end (size=23) */
 498               	/* function __vector_6 size 275 (228) */
 499               	.LFE4:
 501               	.global	turn_Off_ir
 503               	turn_Off_ir:
 504               	.LFB5:
 505               	.LM70:
 506               	/* prologue: frame size=0 */
 507 02b2 CF93      		push r28
 508 02b4 DF93      		push r29
 509 02b6 CDB7      		in r28,__SP_L__
 510 02b8 DEB7      		in r29,__SP_H__
 511               	/* prologue end (size=4) */
 512               	.LM71:
 513 02ba 1092 4E00 		sts 78,__zero_reg__
 514               	/* epilogue: frame size=0 */
 515 02be DF91      		pop r29
 516 02c0 CF91      		pop r28
 517 02c2 0895      		ret
 518               	/* epilogue end (size=3) */
 519               	/* function turn_Off_ir size 9 (2) */
 520               	.LFE5:
 522               	.global	SrvTock
 524               	SrvTock:
 525               	.LFB6:
 526               	.LM72:
 527               	/* prologue: frame size=2 */
 528 02c4 CF93      		push r28
 529 02c6 DF93      		push r29
 530 02c8 CDB7      		in r28,__SP_L__
 531 02ca DEB7      		in r29,__SP_H__
 532 02cc 2297      		sbiw r28,2
 533 02ce 0FB6      		in __tmp_reg__,__SREG__
 534 02d0 F894      		cli
 535 02d2 DEBF      		out __SP_H__,r29
 536 02d4 0FBE      		out __SREG__,__tmp_reg__
 537 02d6 CDBF      		out __SP_L__,r28
 538               	/* prologue end (size=10) */
 539               	.LM73:
 540 02d8 8091 0000 		lds r24,u08TmrTock
 541 02dc 8823      		tst r24
 542 02de 09F0      		breq .+2
 543 02e0 F4C0      		rjmp .L35
 544               	.LM74:
 545 02e2 89E1      		ldi r24,lo8(25)
 546 02e4 8093 0000 		sts u08TmrTock,r24
 547               	.LM75:
 548 02e8 8091 0000 		lds r24,u08State
 549 02ec 9927      		clr r25
 550 02ee 0097      		sbiw r24,0
 551 02f0 09F0      		breq .L38
 552 02f2 EBC0      		rjmp .L35
 553               	.L38:
 554               	.LM76:
 555 02f4 8091 0000 		lds r24,u08Ir1Detect
 556 02f8 8823      		tst r24
 557 02fa 51F0      		breq .L39
 558               	.LM77:
 559 02fc 8091 0000 		lds r24,u08Summary
 560 0300 8160      		ori r24,lo8(1)
 561 0302 8093 0000 		sts u08Summary,r24
 562               	.LM78:
 563 0306 1092 0000 		sts u08Ir1Detect,__zero_reg__
 564               	.LM79:
 565 030a 84E1      		ldi r24,lo8(20)
 566 030c 8093 0000 		sts u08Blink1,r24
 567               	.L39:
 568               	.LM80:
 569 0310 8091 0000 		lds r24,u08Ir2Detect
 570 0314 8823      		tst r24
 571 0316 51F0      		breq .L40
 572               	.LM81:
 573 0318 8091 0000 		lds r24,u08Summary
 574 031c 8260      		ori r24,lo8(2)
 575 031e 8093 0000 		sts u08Summary,r24
 576               	.LM82:
 577 0322 1092 0000 		sts u08Ir2Detect,__zero_reg__
 578               	.LM83:
 579 0326 84E1      		ldi r24,lo8(20)
 580 0328 8093 0000 		sts u08Blink2,r24
 581               	.L40:
 582               	.LM84:
 583 032c 8091 0000 		lds r24,u08Ir3Detect
 584 0330 8823      		tst r24
 585 0332 51F0      		breq .L41
 586               	.LM85:
 587 0334 8091 0000 		lds r24,u08Summary
 588 0338 8460      		ori r24,lo8(4)
 589 033a 8093 0000 		sts u08Summary,r24
 590               	.LM86:
 591 033e 1092 0000 		sts u08Ir3Detect,__zero_reg__
 592               	.LM87:
 593 0342 84E1      		ldi r24,lo8(20)
 594 0344 8093 0000 		sts u08Blink3,r24
 595               	.L41:
 596               	.LM88:
 597 0348 8091 0000 		lds r24,u08Ir4Detect
 598 034c 8823      		tst r24
 599 034e 51F0      		breq .L42
 600               	.LM89:
 601 0350 8091 0000 		lds r24,u08Summary
 602 0354 8860      		ori r24,lo8(8)
 603 0356 8093 0000 		sts u08Summary,r24
 604               	.LM90:
 605 035a 1092 0000 		sts u08Ir4Detect,__zero_reg__
 606               	.LM91:
 607 035e 84E1      		ldi r24,lo8(20)
 608 0360 8093 0000 		sts u08Blink4,r24
 609               	.L42:
 610               	.LM92:
 611 0364 8091 0000 		lds r24,u08Summary
 612 0368 8093 2C00 		sts 44,r24
 613               	.LM93:
 614 036c 8091 0000 		lds r24,u08Summary
 615 0370 8823      		tst r24
 616 0372 71F0      		breq .L43
 617 0374 8091 0000 		lds r24,u16Tmr30Sec
 618 0378 9091 0000 		lds r25,(u16Tmr30Sec)+1
 619 037c 0097      		sbiw r24,0
 620 037e 41F4      		brne .L43
 621               	.LM94:
 622 0380 8091 3200 		lds r24,50
 623 0384 8F7B      		andi r24,lo8(-65)
 624 0386 8093 3200 		sts 50,r24
 625               	.LM95:
 626 038a 81E0      		ldi r24,lo8(1)
 627 038c 8093 0000 		sts boolAlarm,r24
 628               	.L43:
 629               	.LM96:
 630 0390 8091 0000 		lds r24,u16Tmr30Sec
 631 0394 9091 0000 		lds r25,(u16Tmr30Sec)+1
 632 0398 8639      		cpi r24,150
 633 039a 9105      		cpc r25,__zero_reg__
 634 039c 79F0      		breq .L45
 635 039e 8091 0000 		lds r24,u16Tmr30Sec
 636 03a2 9091 0000 		lds r25,(u16Tmr30Sec)+1
 637 03a6 8436      		cpi r24,100
 638 03a8 9105      		cpc r25,__zero_reg__
 639 03aa 41F0      		breq .L45
 640 03ac 8091 0000 		lds r24,u16Tmr30Sec
 641 03b0 9091 0000 		lds r25,(u16Tmr30Sec)+1
 642 03b4 8233      		cpi r24,50
 643 03b6 9105      		cpc r25,__zero_reg__
 644 03b8 09F0      		breq .L45
 645 03ba 01C0      		rjmp .L44
 646               	.L45:
 647               	.LM97:
 648 03bc 25D1      		rcall turnOnVisibleLeds
 649               	.L44:
 650               	.LM98:
 651 03be 8091 0000 		lds r24,u16Tmr30Sec
 652 03c2 9091 0000 		lds r25,(u16Tmr30Sec)+1
 653 03c6 8E36      		cpi r24,110
 654 03c8 9105      		cpc r25,__zero_reg__
 655 03ca 79F0      		breq .L47
 656 03cc 8091 0000 		lds r24,u16Tmr30Sec
 657 03d0 9091 0000 		lds r25,(u16Tmr30Sec)+1
 658 03d4 8C33      		cpi r24,60
 659 03d6 9105      		cpc r25,__zero_reg__
 660 03d8 41F0      		breq .L47
 661 03da 8091 0000 		lds r24,u16Tmr30Sec
 662 03de 9091 0000 		lds r25,(u16Tmr30Sec)+1
 663 03e2 8A30      		cpi r24,10
 664 03e4 9105      		cpc r25,__zero_reg__
 665 03e6 09F0      		breq .L47
 666 03e8 01C0      		rjmp .L46
 667               	.L47:
 668               	.LM99:
 669 03ea F2D0      		rcall turnOffVisibleLeds
 670               	.L46:
 671               	.LM100:
 672 03ec 8091 0000 		lds r24,u16Tmr30Sec
 673 03f0 9091 0000 		lds r25,(u16Tmr30Sec)+1
 674 03f4 0097      		sbiw r24,0
 675 03f6 59F0      		breq .L48
 676               	.LM101:
 677 03f8 8091 0000 		lds r24,u16Tmr30Sec
 678 03fc 9091 0000 		lds r25,(u16Tmr30Sec)+1
 679 0400 0197      		sbiw r24,1
 680 0402 9093 0000 		sts (u16Tmr30Sec)+1,r25
 681 0406 8093 0000 		sts u16Tmr30Sec,r24
 682               	.LM102:
 683 040a 1092 0000 		sts u08Summary,__zero_reg__
 684               	.L48:
 685               	.LM103:
 686 040e 8091 0000 		lds r24,u08TmrFlash
 687 0412 8F5F      		subi r24,lo8(-(1))
 688 0414 8093 0000 		sts u08TmrFlash,r24
 689               	.LM104:
 690 0418 8091 0000 		lds r24,u08TmrFlash
 691 041c 282F      		mov r18,r24
 692 041e 3327      		clr r19
 693 0420 3A83      		std Y+2,r19
 694 0422 2983      		std Y+1,r18
 695 0424 8981      		ldd r24,Y+1
 696 0426 9A81      		ldd r25,Y+2
 697 0428 8131      		cpi r24,17
 698 042a 9105      		cpc r25,__zero_reg__
 699 042c 09F4      		brne .+2
 700 042e 43C0      		rjmp .L54
 701 0430 2981      		ldd r18,Y+1
 702 0432 3A81      		ldd r19,Y+2
 703 0434 2231      		cpi r18,18
 704 0436 3105      		cpc r19,__zero_reg__
 705 0438 DCF4      		brge .L59
 706 043a 8981      		ldd r24,Y+1
 707 043c 9A81      		ldd r25,Y+2
 708 043e 8330      		cpi r24,3
 709 0440 9105      		cpc r25,__zero_reg__
 710 0442 99F1      		breq .L51
 711 0444 2981      		ldd r18,Y+1
 712 0446 3A81      		ldd r19,Y+2
 713 0448 2430      		cpi r18,4
 714 044a 3105      		cpc r19,__zero_reg__
 715 044c 34F4      		brge .L60
 716 044e 8981      		ldd r24,Y+1
 717 0450 9A81      		ldd r25,Y+2
 718 0452 8130      		cpi r24,1
 719 0454 9105      		cpc r25,__zero_reg__
 720 0456 39F1      		breq .L50
 721 0458 38C0      		rjmp .L35
 722               	.L60:
 723 045a 2981      		ldd r18,Y+1
 724 045c 3A81      		ldd r19,Y+2
 725 045e 2530      		cpi r18,5
 726 0460 3105      		cpc r19,__zero_reg__
 727 0462 29F1      		breq .L52
 728 0464 8981      		ldd r24,Y+1
 729 0466 9A81      		ldd r25,Y+2
 730 0468 8730      		cpi r24,7
 731 046a 9105      		cpc r25,__zero_reg__
 732 046c 11F1      		breq .L53
 733 046e 2DC0      		rjmp .L35
 734               	.L59:
 735 0470 2981      		ldd r18,Y+1
 736 0472 3A81      		ldd r19,Y+2
 737 0474 2531      		cpi r18,21
 738 0476 3105      		cpc r19,__zero_reg__
 739 0478 11F1      		breq .L56
 740 047a 8981      		ldd r24,Y+1
 741 047c 9A81      		ldd r25,Y+2
 742 047e 8631      		cpi r24,22
 743 0480 9105      		cpc r25,__zero_reg__
 744 0482 34F4      		brge .L61
 745 0484 2981      		ldd r18,Y+1
 746 0486 3A81      		ldd r19,Y+2
 747 0488 2331      		cpi r18,19
 748 048a 3105      		cpc r19,__zero_reg__
 749 048c B1F0      		breq .L55
 750 048e 1DC0      		rjmp .L35
 751               	.L61:
 752 0490 8981      		ldd r24,Y+1
 753 0492 9A81      		ldd r25,Y+2
 754 0494 8731      		cpi r24,23
 755 0496 9105      		cpc r25,__zero_reg__
 756 0498 A1F0      		breq .L57
 757 049a 2981      		ldd r18,Y+1
 758 049c 3A81      		ldd r19,Y+2
 759 049e 2132      		cpi r18,33
 760 04a0 3105      		cpc r19,__zero_reg__
 761 04a2 89F0      		breq .L58
 762 04a4 12C0      		rjmp .L35
 763               	.L50:
 764               	.LM105:
 765 04a6 1AD0      		rcall showBlinkA
 766               	.LM106:
 767 04a8 10C0      		rjmp .L35
 768               	.L51:
 769               	.LM107:
 770 04aa 92D0      		rcall turnOffVisibleLeds
 771               	.LM108:
 772 04ac 0EC0      		rjmp .L35
 773               	.L52:
 774               	.LM109:
 775 04ae 16D0      		rcall showBlinkA
 776               	.LM110:
 777 04b0 0CC0      		rjmp .L35
 778               	.L53:
 779               	.LM111:
 780 04b2 8ED0      		rcall turnOffVisibleLeds
 781               	.LM112:
 782 04b4 0AC0      		rjmp .L35
 783               	.L54:
 784               	.LM113:
 785 04b6 3DD0      		rcall showBlinkB
 786               	.LM114:
 787 04b8 08C0      		rjmp .L35
 788               	.L55:
 789               	.LM115:
 790 04ba 8AD0      		rcall turnOffVisibleLeds
 791               	.LM116:
 792 04bc 06C0      		rjmp .L35
 793               	.L56:
 794               	.LM117:
 795 04be 39D0      		rcall showBlinkB
 796               	.LM118:
 797 04c0 04C0      		rjmp .L35
 798               	.L57:
 799               	.LM119:
 800 04c2 86D0      		rcall turnOffVisibleLeds
 801               	.LM120:
 802 04c4 02C0      		rjmp .L35
 803               	.L58:
 804               	.LM121:
 805 04c6 1092 0000 		sts u08TmrFlash,__zero_reg__
 806               	.L35:
 807               	/* epilogue: frame size=2 */
 808 04ca 2296      		adiw r28,2
 809 04cc 0FB6      		in __tmp_reg__,__SREG__
 810 04ce F894      		cli
 811 04d0 DEBF      		out __SP_H__,r29
 812 04d2 0FBE      		out __SREG__,__tmp_reg__
 813 04d4 CDBF      		out __SP_L__,r28
 814 04d6 DF91      		pop r29
 815 04d8 CF91      		pop r28
 816 04da 0895      		ret
 817               	/* epilogue end (size=9) */
 818               	/* function SrvTock size 269 (250) */
 819               	.LFE6:
 821               	.global	showBlinkA
 823               	showBlinkA:
 824               	.LFB7:
 825               	.LM122:
 826               	/* prologue: frame size=0 */
 827 04dc CF93      		push r28
 828 04de DF93      		push r29
 829 04e0 CDB7      		in r28,__SP_L__
 830 04e2 DEB7      		in r29,__SP_H__
 831               	/* prologue end (size=4) */
 832               	.LM123:
 833 04e4 8091 0000 		lds r24,u08Blink1
 834 04e8 8823      		tst r24
 835 04ea 29F0      		breq .L63
 836               	.LM124:
 837 04ec 8091 3800 		lds r24,56
 838 04f0 8062      		ori r24,lo8(32)
 839 04f2 8093 3800 		sts 56,r24
 840               	.L63:
 841               	.LM125:
 842 04f6 8091 0000 		lds r24,u08Blink2
 843 04fa 8823      		tst r24
 844 04fc 29F0      		breq .L64
 845               	.LM126:
 846 04fe 8091 3800 		lds r24,56
 847 0502 8068      		ori r24,lo8(-128)
 848 0504 8093 3800 		sts 56,r24
 849               	.L64:
 850               	.LM127:
 851 0508 8091 0000 		lds r24,u08Blink3
 852 050c 8823      		tst r24
 853 050e 29F0      		breq .L65
 854               	.LM128:
 855 0510 8091 3800 		lds r24,56
 856 0514 8068      		ori r24,lo8(-128)
 857 0516 8093 3800 		sts 56,r24
 858               	.L65:
 859               	.LM129:
 860 051a 8091 0000 		lds r24,u08Blink4
 861 051e 8823      		tst r24
 862 0520 29F0      		breq .L62
 863               	.LM130:
 864 0522 8091 3200 		lds r24,50
 865 0526 8062      		ori r24,lo8(32)
 866 0528 8093 3200 		sts 50,r24
 867               	.L62:
 868               	/* epilogue: frame size=0 */
 869 052c DF91      		pop r29
 870 052e CF91      		pop r28
 871 0530 0895      		ret
 872               	/* epilogue end (size=3) */
 873               	/* function showBlinkA size 43 (36) */
 874               	.LFE7:
 876               	.global	showBlinkB
 878               	showBlinkB:
 879               	.LFB8:
 880               	.LM131:
 881               	/* prologue: frame size=0 */
 882 0532 CF93      		push r28
 883 0534 DF93      		push r29
 884 0536 CDB7      		in r28,__SP_L__
 885 0538 DEB7      		in r29,__SP_H__
 886               	/* prologue end (size=4) */
 887               	.LM132:
 888 053a 8091 0000 		lds r24,u08Blink1
 889 053e 8823      		tst r24
 890 0540 71F0      		breq .L68
 891               	.LM133:
 892 0542 8091 3200 		lds r24,50
 893 0546 8061      		ori r24,lo8(16)
 894 0548 8093 3200 		sts 50,r24
 895               	.LM134:
 896 054c 8091 0000 		lds r24,boolAlarm
 897 0550 8823      		tst r24
 898 0552 29F4      		brne .L68
 899               	.LM135:
 900 0554 8091 0000 		lds r24,u08Blink1
 901 0558 8150      		subi r24,lo8(-(-1))
 902 055a 8093 0000 		sts u08Blink1,r24
 903               	.L68:
 904               	.LM136:
 905 055e 8091 0000 		lds r24,u08Blink2
 906 0562 8823      		tst r24
 907 0564 71F0      		breq .L70
 908               	.LM137:
 909 0566 8091 3800 		lds r24,56
 910 056a 8062      		ori r24,lo8(32)
 911 056c 8093 3800 		sts 56,r24
 912               	.LM138:
 913 0570 8091 0000 		lds r24,boolAlarm
 914 0574 8823      		tst r24
 915 0576 29F4      		brne .L70
 916               	.LM139:
 917 0578 8091 0000 		lds r24,u08Blink2
 918 057c 8150      		subi r24,lo8(-(-1))
 919 057e 8093 0000 		sts u08Blink2,r24
 920               	.L70:
 921               	.LM140:
 922 0582 8091 0000 		lds r24,u08Blink3
 923 0586 8823      		tst r24
 924 0588 71F0      		breq .L72
 925               	.LM141:
 926 058a 8091 3200 		lds r24,50
 927 058e 8062      		ori r24,lo8(32)
 928 0590 8093 3200 		sts 50,r24
 929               	.LM142:
 930 0594 8091 0000 		lds r24,boolAlarm
 931 0598 8823      		tst r24
 932 059a 29F4      		brne .L72
 933               	.LM143:
 934 059c 8091 0000 		lds r24,u08Blink3
 935 05a0 8150      		subi r24,lo8(-(-1))
 936 05a2 8093 0000 		sts u08Blink3,r24
 937               	.L72:
 938               	.LM144:
 939 05a6 8091 0000 		lds r24,u08Blink4
 940 05aa 8823      		tst r24
 941 05ac 71F0      		breq .L67
 942               	.LM145:
 943 05ae 8091 3200 		lds r24,50
 944 05b2 8061      		ori r24,lo8(16)
 945 05b4 8093 3200 		sts 50,r24
 946               	.LM146:
 947 05b8 8091 0000 		lds r24,boolAlarm
 948 05bc 8823      		tst r24
 949 05be 29F4      		brne .L67
 950               	.LM147:
 951 05c0 8091 0000 		lds r24,u08Blink4
 952 05c4 8150      		subi r24,lo8(-(-1))
 953 05c6 8093 0000 		sts u08Blink4,r24
 954               	.L67:
 955               	/* epilogue: frame size=0 */
 956 05ca DF91      		pop r29
 957 05cc CF91      		pop r28
 958 05ce 0895      		ret
 959               	/* epilogue end (size=3) */
 960               	/* function showBlinkB size 79 (72) */
 961               	.LFE8:
 963               	.global	turnOffVisibleLeds
 965               	turnOffVisibleLeds:
 966               	.LFB9:
 967               	.LM148:
 968               	/* prologue: frame size=0 */
 969 05d0 CF93      		push r28
 970 05d2 DF93      		push r29
 971 05d4 CDB7      		in r28,__SP_L__
 972 05d6 DEB7      		in r29,__SP_H__
 973               	/* prologue end (size=4) */
 974               	.LM149:
 975 05d8 8091 3200 		lds r24,50
 976 05dc 8F7E      		andi r24,lo8(-17)
 977 05de 8093 3200 		sts 50,r24
 978               	.LM150:
 979 05e2 8091 3200 		lds r24,50
 980 05e6 8F7D      		andi r24,lo8(-33)
 981 05e8 8093 3200 		sts 50,r24
 982               	.LM151:
 983 05ec 8091 3800 		lds r24,56
 984 05f0 8F7D      		andi r24,lo8(-33)
 985 05f2 8093 3800 		sts 56,r24
 986               	.LM152:
 987 05f6 9FE7      		ldi r25,lo8(127)
 988 05f8 8091 3800 		lds r24,56
 989 05fc 8923      		and r24,r25
 990 05fe 8093 3800 		sts 56,r24
 991               	/* epilogue: frame size=0 */
 992 0602 DF91      		pop r29
 993 0604 CF91      		pop r28
 994 0606 0895      		ret
 995               	/* epilogue end (size=3) */
 996               	/* function turnOffVisibleLeds size 28 (21) */
 997               	.LFE9:
 999               	.global	turnOnVisibleLeds
 1001               	turnOnVisibleLeds:
 1002               	.LFB10:
 1003               	.LM153:
 1004               	/* prologue: frame size=0 */
 1005 0608 CF93      		push r28
 1006 060a DF93      		push r29
 1007 060c CDB7      		in r28,__SP_L__
 1008 060e DEB7      		in r29,__SP_H__
 1009               	/* prologue end (size=4) */
 1010               	.LM154:
 1011 0610 8091 3200 		lds r24,50
 1012 0614 8061      		ori r24,lo8(16)
 1013 0616 8093 3200 		sts 50,r24
 1014               	.LM155:
 1015 061a 8091 3200 		lds r24,50
 1016 061e 8062      		ori r24,lo8(32)
 1017 0620 8093 3200 		sts 50,r24
 1018               	.LM156:
 1019 0624 8091 3800 		lds r24,56
 1020 0628 8062      		ori r24,lo8(32)
 1021 062a 8093 3800 		sts 56,r24
 1022               	.LM157:
 1023 062e 8091 3800 		lds r24,56
 1024 0632 8068      		ori r24,lo8(-128)
 1025 0634 8093 3800 		sts 56,r24
 1026               	/* epilogue: frame size=0 */
 1027 0638 DF91      		pop r29
 1028 063a CF91      		pop r28
 1029 063c 0895      		ret
 1030               	/* epilogue end (size=3) */
 1031               	/* function turnOnVisibleLeds size 27 (20) */
 1032               	.LFE10:
 1034               		.comm u08Blink1,1,1
 1035               		.comm u08Blink2,1,1
 1036               		.comm u08Blink3,1,1
 1037               		.comm u08Blink4,1,1
 1038               	.Letext0:
DEFINED SYMBOLS
                            *ABS*:00000000 main.c
C:\DOCUME~1\Owner\LOCALS~1\Temp/cckzaaaa.s:3      *ABS*:0000003f __SREG__
C:\DOCUME~1\Owner\LOCALS~1\Temp/cckzaaaa.s:4      *ABS*:0000003e __SP_H__
C:\DOCUME~1\Owner\LOCALS~1\Temp/cckzaaaa.s:5      *ABS*:0000003d __SP_L__
C:\DOCUME~1\Owner\LOCALS~1\Temp/cckzaaaa.s:6      *ABS*:00000000 __tmp_reg__
C:\DOCUME~1\Owner\LOCALS~1\Temp/cckzaaaa.s:7      *ABS*:00000001 __zero_reg__
C:\DOCUME~1\Owner\LOCALS~1\Temp/cckzaaaa.s:23     .bss:00000000 u08TmrTock
C:\DOCUME~1\Owner\LOCALS~1\Temp/cckzaaaa.s:29     .data:00000000 u08TmrIR
C:\DOCUME~1\Owner\LOCALS~1\Temp/cckzaaaa.s:36     .bss:00000001 u08Ir1Detect
C:\DOCUME~1\Owner\LOCALS~1\Temp/cckzaaaa.s:42     .bss:00000002 u08Ir2Detect
C:\DOCUME~1\Owner\LOCALS~1\Temp/cckzaaaa.s:48     .bss:00000003 u08Ir3Detect
C:\DOCUME~1\Owner\LOCALS~1\Temp/cckzaaaa.s:54     .bss:00000004 u08Ir4Detect
C:\DOCUME~1\Owner\LOCALS~1\Temp/cckzaaaa.s:60     .data:00000001 u08SensorReadNumber
C:\DOCUME~1\Owner\LOCALS~1\Temp/cckzaaaa.s:67     .bss:00000005 boolAlarm
C:\DOCUME~1\Owner\LOCALS~1\Temp/cckzaaaa.s:73     .bss:00000006 u08State
C:\DOCUME~1\Owner\LOCALS~1\Temp/cckzaaaa.s:79     .bss:00000007 u08Summary
C:\DOCUME~1\Owner\LOCALS~1\Temp/cckzaaaa.s:85     .bss:00000008 u08TmrFlash
C:\DOCUME~1\Owner\LOCALS~1\Temp/cckzaaaa.s:91     .data:00000002 u16Tmr30Sec
C:\DOCUME~1\Owner\LOCALS~1\Temp/cckzaaaa.s:96     .text:00000000 main
C:\DOCUME~1\Owner\LOCALS~1\Temp/cckzaaaa.s:131    .text:00000014 uCinit
C:\DOCUME~1\Owner\LOCALS~1\Temp/cckzaaaa.s:524    .text:000002c4 SrvTock
C:\DOCUME~1\Owner\LOCALS~1\Temp/cckzaaaa.s:965    .text:000005d0 turnOffVisibleLeds
C:\DOCUME~1\Owner\LOCALS~1\Temp/cckzaaaa.s:203    .text:0000008c __vector_6
C:\DOCUME~1\Owner\LOCALS~1\Temp/cckzaaaa.s:503    .text:000002b2 turn_Off_ir
                            *COM*:00000001 u08Blink1
                            *COM*:00000001 u08Blink2
                            *COM*:00000001 u08Blink3
                            *COM*:00000001 u08Blink4
C:\DOCUME~1\Owner\LOCALS~1\Temp/cckzaaaa.s:1001   .text:00000608 turnOnVisibleLeds
C:\DOCUME~1\Owner\LOCALS~1\Temp/cckzaaaa.s:823    .text:000004dc showBlinkA
C:\DOCUME~1\Owner\LOCALS~1\Temp/cckzaaaa.s:878    .text:00000532 showBlinkB

UNDEFINED SYMBOLS
__do_copy_data
__do_clear_bss
__stack
