   1               		.file	"main.c"
   2               	__SREG__ = 0x3f
   3               	__SP_H__ = 0x3e
   4               	__SP_L__ = 0x3d
   5               	__CCP__  = 0x34
   6               	__tmp_reg__ = 0
   7               	__zero_reg__ = 1
   8               		.global __do_copy_data
   9               		.global __do_clear_bss
  17               	.Ltext0:
  18               	.global	uart_tx1_P
  20               	uart_tx1_P:
  21               	.LFB5:
  22               	.LM1:
  23               	.LVL0:
  24               	/* prologue: function */
  25               	/* frame size = 0 */
  26 0000 FC01      		movw r30,r24
  27 0002 00C0      		rjmp .L2
  28               	.LVL1:
  29               	.L4:
  30               	.LM2:
  31 0004 8093 9C00 		sts 156,r24
  32               	.L3:
  33               	.LM3:
  34 0008 8091 9B00 		lds r24,155
  35               	.LVL2:
  36 000c 85FF      		sbrs r24,5
  37 000e 00C0      		rjmp .L3
  38               	.LM4:
  39 0010 3196      		adiw r30,1
  40               	.LVL3:
  41               	.L2:
  42               	.LBB14:
  43               	.LM5:
  44               	/* #APP */
  45               	 ;  76 "main.c" 1
  46 0012 8491      		lpm r24, Z
  47               		
  48               	 ;  0 "" 2
  49               	.LVL4:
  50               	/* #NOAPP */
  51               	.LBE14:
  52 0014 8823      		tst r24
  53 0016 01F4      		brne .L4
  54               	/* epilogue start */
  55               	.LM6:
  56 0018 0895      		ret
  57               	.LFE5:
  59               	.global	thread2
  61               	thread2:
  62               	.LFB4:
  63               	.LM7:
  64 001a 00C0      		rjmp .L14
  65               	/* prologue: function */
  66               	/* frame size = 0 */
  67               	.LVL5:
  68               	.L10:
  69               	.LBB15:
  70               	.LBB16:
  71               	.LM8:
  72 001c 8093 9C00 		sts 156,r24
  73               	.L9:
  74               	.LM9:
  75 0020 8091 9B00 		lds r24,155
  76               	.LVL6:
  77 0024 85FF      		sbrs r24,5
  78 0026 00C0      		rjmp .L9
  79               	.LM10:
  80 0028 3196      		adiw r30,1
  81               	.L13:
  82               	.LBB17:
  83               	.LM11:
  84               	/* #APP */
  85               	 ;  76 "main.c" 1
  86 002a 8491      		lpm r24, Z
  87               		
  88               	 ;  0 "" 2
  89               	.LVL7:
  90               	/* #NOAPP */
  91               	.LBE17:
  92 002c 8823      		tst r24
  93 002e 01F4      		brne .L10
  94               	.LBE16:
  95               	.LBE15:
  96               	.LM12:
  97 0030 0E94 0000 		call next_thread
  98               	.LVL8:
  99               	.L14:
 100               	.LM13:
 101 0034 E0E0      		ldi r30,lo8(__c.1593)
 102 0036 F0E0      		ldi r31,hi8(__c.1593)
 103               	.LVL9:
 104 0038 00C0      		rjmp .L13
 105               	.LFE4:
 107               	.global	thread1
 109               	thread1:
 110               	.LFB3:
 111               	.LM14:
 112 003a 00C0      		rjmp .L22
 113               	/* prologue: function */
 114               	/* frame size = 0 */
 115               	.LVL10:
 116               	.L18:
 117               	.LBB18:
 118               	.LBB19:
 119               	.LM15:
 120 003c 8093 9C00 		sts 156,r24
 121               	.L17:
 122               	.LM16:
 123 0040 8091 9B00 		lds r24,155
 124               	.LVL11:
 125 0044 85FF      		sbrs r24,5
 126 0046 00C0      		rjmp .L17
 127               	.LM17:
 128 0048 3196      		adiw r30,1
 129               	.L21:
 130               	.LBB20:
 131               	.LM18:
 132               	/* #APP */
 133               	 ;  76 "main.c" 1
 134 004a 8491      		lpm r24, Z
 135               		
 136               	 ;  0 "" 2
 137               	.LVL12:
 138               	/* #NOAPP */
 139               	.LBE20:
 140 004c 8823      		tst r24
 141 004e 01F4      		brne .L18
 142               	.LBE19:
 143               	.LBE18:
 144               	.LM19:
 145 0050 0E94 0000 		call next_thread
 146               	.LVL13:
 147               	.L22:
 148               	.LM20:
 149 0054 E0E0      		ldi r30,lo8(__c.1587)
 150 0056 F0E0      		ldi r31,hi8(__c.1587)
 151               	.LVL14:
 152 0058 00C0      		rjmp .L21
 153               	.LFE3:
 155               	.global	main
 157               	main:
 158               	.LFB2:
 159               	.LM21:
 160 005a 1F93      		push r17
 161               	/* prologue: function */
 162               	/* frame size = 0 */
 163               	.LM22:
 164 005c 8B9A      		sbi 49-32,3
 165               	.LM23:
 166 005e 8A98      		cbi 49-32,2
 167               	.LM24:
 168 0060 8091 9A00 		lds r24,154
 169 0064 8860      		ori r24,lo8(8)
 170 0066 8093 9A00 		sts 154,r24
 171               	.LM25:
 172 006a 1092 9800 		sts 152,__zero_reg__
 173               	.LM26:
 174 006e 8FE5      		ldi r24,lo8(95)
 175 0070 8093 9900 		sts 153,r24
 176               	.LM27:
 177 0074 0E94 0000 		call makethreads
 178               	.LM28:
 179 0078 8091 0000 		lds r24,current_thread
 180 007c 8130      		cpi r24,lo8(1)
 181 007e 01F0      		breq .L25
 182 0080 8230      		cpi r24,lo8(2)
 183 0082 01F4      		brne .L24
 184 0084 00C0      		rjmp .L26
 185               	.L25:
 186               	.LM29:
 187 0086 0E94 0000 		call thread1
 188               	.L26:
 189               	.LM30:
 190 008a 0E94 0000 		call thread2
 191               	.L24:
 192 008e 15E0      		ldi r17,lo8(5)
 193               	.LVL15:
 194 0090 00C0      		rjmp .L27
 195               	.LVL16:
 196               	.L29:
 197               	.LBB21:
 198               	.LBB22:
 199               	.LM31:
 200 0092 8093 9C00 		sts 156,r24
 201               	.L28:
 202               	.LM32:
 203 0096 8091 9B00 		lds r24,155
 204               	.LVL17:
 205 009a 85FF      		sbrs r24,5
 206 009c 00C0      		rjmp .L28
 207               	.LM33:
 208 009e 3196      		adiw r30,1
 209               	.L31:
 210               	.LBB23:
 211               	.LM34:
 212               	/* #APP */
 213               	 ;  76 "main.c" 1
 214 00a0 8491      		lpm r24, Z
 215               		
 216               	 ;  0 "" 2
 217               	.LVL18:
 218               	/* #NOAPP */
 219               	.LBE23:
 220 00a2 8823      		tst r24
 221 00a4 01F4      		brne .L29
 222               	.LBE22:
 223               	.LBE21:
 224               	.LM35:
 225 00a6 0E94 0000 		call next_thread
 226               	.LVL19:
 227               	.L27:
 228               	.LM36:
 229 00aa 1150      		subi r17,lo8(-(-1))
 230 00ac 1F3F      		cpi r17,lo8(-1)
 231 00ae 01F0      		breq .L30
 232               	.LM37:
 233 00b0 E0E0      		ldi r30,lo8(__c.1563)
 234 00b2 F0E0      		ldi r31,hi8(__c.1563)
 235               	.LVL20:
 236 00b4 00C0      		rjmp .L31
 237               	.LVL21:
 238               	.L30:
 239               	.L34:
 240 00b6 00C0      		rjmp .L34
 241               	.LFE2:
 243               		.section	.progmem.data,"a",@progbits
 246               	__c.1593:
 247 0000 7468 7265 		.string	"thread2\r\n"
 247      6164 320D 
 247      0A00 
 250               	__c.1587:
 251 000a 7468 7265 		.string	"thread1\r\n"
 251      6164 310D 
 251      0A00 
 254               	__c.1563:
 255 0014 7468 7265 		.string	"thread0\r\n"
 255      6164 300D 
 255      0A00 
 304               	.Letext0:
DEFINED SYMBOLS
                            *ABS*:00000000 main.c
E:\DOCUME~1\Michael\LOCALS~1\Temp/ccbabV1B.s:2      *ABS*:0000003f __SREG__
E:\DOCUME~1\Michael\LOCALS~1\Temp/ccbabV1B.s:3      *ABS*:0000003e __SP_H__
E:\DOCUME~1\Michael\LOCALS~1\Temp/ccbabV1B.s:4      *ABS*:0000003d __SP_L__
E:\DOCUME~1\Michael\LOCALS~1\Temp/ccbabV1B.s:5      *ABS*:00000034 __CCP__
E:\DOCUME~1\Michael\LOCALS~1\Temp/ccbabV1B.s:6      *ABS*:00000000 __tmp_reg__
E:\DOCUME~1\Michael\LOCALS~1\Temp/ccbabV1B.s:7      *ABS*:00000001 __zero_reg__
E:\DOCUME~1\Michael\LOCALS~1\Temp/ccbabV1B.s:20     .text:00000000 uart_tx1_P
E:\DOCUME~1\Michael\LOCALS~1\Temp/ccbabV1B.s:61     .text:0000001a thread2
E:\DOCUME~1\Michael\LOCALS~1\Temp/ccbabV1B.s:246    .progmem.data:00000000 __c.1593
E:\DOCUME~1\Michael\LOCALS~1\Temp/ccbabV1B.s:109    .text:0000003a thread1
E:\DOCUME~1\Michael\LOCALS~1\Temp/ccbabV1B.s:250    .progmem.data:0000000a __c.1587
E:\DOCUME~1\Michael\LOCALS~1\Temp/ccbabV1B.s:157    .text:0000005a main
E:\DOCUME~1\Michael\LOCALS~1\Temp/ccbabV1B.s:254    .progmem.data:00000014 __c.1563

UNDEFINED SYMBOLS
__do_copy_data
__do_clear_bss
next_thread
makethreads
current_thread
