Archive member included because of file (symbol)

c:/program files/atmel/bin/../lib/gcc/avr/4.3.3/avr5\libgcc.a(_udivmodqi4.o)
                              image_process.o (__udivmodqi4)
c:/program files/atmel/bin/../lib/gcc/avr/4.3.3/avr5\libgcc.a(_udivmodhi4.o)
                              propeller.o (__udivmodhi4)
c:/program files/atmel/bin/../lib/gcc/avr/4.3.3/avr5\libgcc.a(_divmodhi4.o)
                              analog_clk.o (__divmodhi4)
c:/program files/atmel/bin/../lib/gcc/avr/4.3.3/avr5\libgcc.a(_exit.o)
                              c:/program files/atmel/bin/../lib/gcc/avr/4.3.3/../../../../avr/lib/avr5/crtm64.o (exit)
c:/program files/atmel/bin/../lib/gcc/avr/4.3.3/avr5\libgcc.a(_copy_data.o)
                              globals.o (__do_copy_data)
c:/program files/atmel/bin/../lib/gcc/avr/4.3.3/avr5\libgcc.a(_clear_bss.o)
                              globals.o (__do_clear_bss)
c:/program files/atmel/bin/../lib/gcc/avr/4.3.3/avr5\libgcc.a(_addsub_sf.o)
                              image_process.o (__subsf3)
c:/program files/atmel/bin/../lib/gcc/avr/4.3.3/avr5\libgcc.a(_mul_sf.o)
                              image_process.o (__mulsf3)
c:/program files/atmel/bin/../lib/gcc/avr/4.3.3/avr5\libgcc.a(_si_to_sf.o)
                              image_process.o (__floatsisf)
c:/program files/atmel/bin/../lib/gcc/avr/4.3.3/avr5\libgcc.a(_sf_to_si.o)
                              image_process.o (__fixsfsi)
c:/program files/atmel/bin/../lib/gcc/avr/4.3.3/avr5\libgcc.a(_thenan_sf.o)
                              c:/program files/atmel/bin/../lib/gcc/avr/4.3.3/avr5\libgcc.a(_addsub_sf.o) (__thenan_sf)
c:/program files/atmel/bin/../lib/gcc/avr/4.3.3/avr5\libgcc.a(_prologue.o)
                              c:/program files/atmel/bin/../lib/gcc/avr/4.3.3/avr5\libgcc.a(_addsub_sf.o) (__prologue_saves__)
c:/program files/atmel/bin/../lib/gcc/avr/4.3.3/avr5\libgcc.a(_epilogue.o)
                              c:/program files/atmel/bin/../lib/gcc/avr/4.3.3/avr5\libgcc.a(_addsub_sf.o) (__epilogue_restores__)
c:/program files/atmel/bin/../lib/gcc/avr/4.3.3/avr5\libgcc.a(_clzsi2.o)
                              c:/program files/atmel/bin/../lib/gcc/avr/4.3.3/avr5\libgcc.a(_si_to_sf.o) (__clzsi2)
c:/program files/atmel/bin/../lib/gcc/avr/4.3.3/avr5\libgcc.a(_pack_sf.o)
                              c:/program files/atmel/bin/../lib/gcc/avr/4.3.3/avr5\libgcc.a(_addsub_sf.o) (__pack_f)
c:/program files/atmel/bin/../lib/gcc/avr/4.3.3/avr5\libgcc.a(_unpack_sf.o)
                              c:/program files/atmel/bin/../lib/gcc/avr/4.3.3/avr5\libgcc.a(_addsub_sf.o) (__unpack_f)
c:/program files/atmel/bin/../lib/gcc/avr/4.3.3/avr5\libgcc.a(_clz.o)
                              c:/program files/atmel/bin/../lib/gcc/avr/4.3.3/avr5\libgcc.a(_clzsi2.o) (__clz_tab)
c:/program files/atmel/bin/../lib/gcc/avr/4.3.3/../../../../avr/lib/avr5\libc.a(malloc.o)
                              image_process.o (malloc)
c:/program files/atmel/bin/../lib/gcc/avr/4.3.3/../../../../avr/lib/avr5\libc.a(strcpy_P.o)
                              rs232.o (strcpy_P)
c:/program files/atmel/bin/../lib/gcc/avr/4.3.3/../../../../avr/lib/avr5\libc.a(strncasecmp.o)
                              rs232.o (strncasecmp)
c:/program files/atmel/bin/../lib/gcc/avr/4.3.3/../../../../avr/lib/avr5\libc.a(cos.o)
                              image_process.o (cos)
c:/program files/atmel/bin/../lib/gcc/avr/4.3.3/../../../../avr/lib/avr5\libc.a(fp_rempio2.o)
                              c:/program files/atmel/bin/../lib/gcc/avr/4.3.3/../../../../avr/lib/avr5\libc.a(cos.o) (__fp_rempio2)
c:/program files/atmel/bin/../lib/gcc/avr/4.3.3/../../../../avr/lib/avr5\libc.a(fp_sinus.o)
                              c:/program files/atmel/bin/../lib/gcc/avr/4.3.3/../../../../avr/lib/avr5\libc.a(cos.o) (__fp_sinus)
c:/program files/atmel/bin/../lib/gcc/avr/4.3.3/../../../../avr/lib/avr5\libc.a(fp_split3.o)
                              c:/program files/atmel/bin/../lib/gcc/avr/4.3.3/../../../../avr/lib/avr5\libc.a(fp_rempio2.o) (__fp_splitA)
c:/program files/atmel/bin/../lib/gcc/avr/4.3.3/../../../../avr/lib/avr5\libc.a(sin.o)
                              image_process.o (sin)
c:/program files/atmel/bin/../lib/gcc/avr/4.3.3/../../../../avr/lib/avr5\libc.a(addsf3x.o)
                              c:/program files/atmel/bin/../lib/gcc/avr/4.3.3/../../../../avr/lib/avr5\libc.a(fp_sinus.o) (__addsf3x)
c:/program files/atmel/bin/../lib/gcc/avr/4.3.3/../../../../avr/lib/avr5\libc.a(fp_inf.o)
                              c:/program files/atmel/bin/../lib/gcc/avr/4.3.3/../../../../avr/lib/avr5\libc.a(addsf3x.o) (__fp_inf)
c:/program files/atmel/bin/../lib/gcc/avr/4.3.3/../../../../avr/lib/avr5\libc.a(fp_mpack.o)
                              c:/program files/atmel/bin/../lib/gcc/avr/4.3.3/../../../../avr/lib/avr5\libc.a(fp_rempio2.o) (__fp_mpack_finite)
c:/program files/atmel/bin/../lib/gcc/avr/4.3.3/../../../../avr/lib/avr5\libc.a(fp_nan.o)
                              c:/program files/atmel/bin/../lib/gcc/avr/4.3.3/../../../../avr/lib/avr5\libc.a(fp_rempio2.o) (__fp_nan)
c:/program files/atmel/bin/../lib/gcc/avr/4.3.3/../../../../avr/lib/avr5\libc.a(fp_powsodd.o)
                              c:/program files/atmel/bin/../lib/gcc/avr/4.3.3/../../../../avr/lib/avr5\libc.a(fp_sinus.o) (__fp_powsodd)
c:/program files/atmel/bin/../lib/gcc/avr/4.3.3/../../../../avr/lib/avr5\libc.a(fp_pscA.o)
                              c:/program files/atmel/bin/../lib/gcc/avr/4.3.3/../../../../avr/lib/avr5\libc.a(addsf3x.o) (__fp_pscA)
c:/program files/atmel/bin/../lib/gcc/avr/4.3.3/../../../../avr/lib/avr5\libc.a(fp_pscB.o)
                              c:/program files/atmel/bin/../lib/gcc/avr/4.3.3/../../../../avr/lib/avr5\libc.a(addsf3x.o) (__fp_pscB)
c:/program files/atmel/bin/../lib/gcc/avr/4.3.3/../../../../avr/lib/avr5\libc.a(fp_round.o)
                              c:/program files/atmel/bin/../lib/gcc/avr/4.3.3/../../../../avr/lib/avr5\libc.a(fp_sinus.o) (__fp_round)
c:/program files/atmel/bin/../lib/gcc/avr/4.3.3/../../../../avr/lib/avr5\libc.a(fp_zero.o)
                              c:/program files/atmel/bin/../lib/gcc/avr/4.3.3/../../../../avr/lib/avr5\libc.a(addsf3x.o) (__fp_zero)
c:/program files/atmel/bin/../lib/gcc/avr/4.3.3/../../../../avr/lib/avr5\libc.a(fp_powser.o)
                              c:/program files/atmel/bin/../lib/gcc/avr/4.3.3/../../../../avr/lib/avr5\libc.a(fp_powsodd.o) (__fp_powser)
c:/program files/atmel/bin/../lib/gcc/avr/4.3.3/../../../../avr/lib/avr5\libc.a(mulsf3x.o)
                              c:/program files/atmel/bin/../lib/gcc/avr/4.3.3/../../../../avr/lib/avr5\libc.a(fp_powser.o) (__mulsf3x)

Allocating common symbols
Common symbol       size              file

time_clk            0x6               globals.o
train               0x60              globals.o
__brkval            0x2               c:/program files/atmel/bin/../lib/gcc/avr/4.3.3/../../../../avr/lib/avr5\libc.a(malloc.o)
theta               0x2               globals.o
USART_WORD_INDEX    0x2               globals.o
tcl                 0x3               rs232.o
mode                0x1               globals.o
enable_send         0x2               globals.o
TMODE               0x2               propeller.o
sec                 0x1               i2c_com.o
error               0x1               i2c_com.o
USART_WORD          0x14              globals.o
__flp               0x2               c:/program files/atmel/bin/../lib/gcc/avr/4.3.3/../../../../avr/lib/avr5\libc.a(malloc.o)
testers232          0x1               i2c_com.o
CURRENT_ANGLE       0x2               image_process.o

Memory Configuration

Name             Origin             Length             Attributes
text             0x00000000         0x00020000         xr
data             0x00800060         0x0000ffa0         rw !x
eeprom           0x00810000         0x00010000         rw !x
fuse             0x00820000         0x00000400         rw !x
lock             0x00830000         0x00000400         rw !x
signature        0x00840000         0x00000400         rw !x
*default*        0x00000000         0xffffffff

Linker script and memory map

Address of section .data set to 0x800100
LOAD c:/program files/atmel/bin/../lib/gcc/avr/4.3.3/../../../../avr/lib/avr5/crtm64.o
LOAD spi_com.o
LOAD analog_clk.o
LOAD blink.o
LOAD ext_int.o
LOAD globals.o
LOAD i2c_com.o
LOAD image_process.o
LOAD propeller.o
LOAD rs232.o
LOAD c:/program files/atmel/bin/../lib/gcc/avr/4.3.3/avr5\libgcc.a
LOAD c:/program files/atmel/bin/../lib/gcc/avr/4.3.3/../../../../avr/lib/avr5\libc.a
LOAD c:/program files/atmel/bin/../lib/gcc/avr/4.3.3/avr5\libgcc.a

.hash
 *(.hash)

.dynsym
 *(.dynsym)

.dynstr
 *(.dynstr)

.gnu.version
 *(.gnu.version)

.gnu.version_d
 *(.gnu.version_d)

.gnu.version_r
 *(.gnu.version_r)

.rel.init
 *(.rel.init)

.rela.init
 *(.rela.init)

.rel.text
 *(.rel.text)
 *(.rel.text.*)
 *(.rel.gnu.linkonce.t*)

.rela.text
 *(.rela.text)
 *(.rela.text.*)
 *(.rela.gnu.linkonce.t*)

.rel.fini
 *(.rel.fini)

.rela.fini
 *(.rela.fini)

.rel.rodata
 *(.rel.rodata)
 *(.rel.rodata.*)
 *(.rel.gnu.linkonce.r*)

.rela.rodata
 *(.rela.rodata)
 *(.rela.rodata.*)
 *(.rela.gnu.linkonce.r*)

.rel.data
 *(.rel.data)
 *(.rel.data.*)
 *(.rel.gnu.linkonce.d*)

.rela.data
 *(.rela.data)
 *(.rela.data.*)
 *(.rela.gnu.linkonce.d*)

.rel.ctors
 *(.rel.ctors)

.rela.ctors
 *(.rela.ctors)

.rel.dtors
 *(.rel.dtors)

.rela.dtors
 *(.rela.dtors)

.rel.got
 *(.rel.got)

.rela.got
 *(.rela.got)

.rel.bss
 *(.rel.bss)

.rela.bss
 *(.rela.bss)

.rel.plt
 *(.rel.plt)

.rela.plt
 *(.rela.plt)

.text           0x00000000     0x2c6e
 *(.vectors)
 .vectors       0x00000000       0x8c c:/program files/atmel/bin/../lib/gcc/avr/4.3.3/../../../../avr/lib/avr5/crtm64.o
                0x00000000                __vectors
                0x00000000                __vector_default
 *(.vectors)
 *(.progmem.gcc*)
 .progmem.gcc_fplib
                0x0000008c       0x1e c:/program files/atmel/bin/../lib/gcc/avr/4.3.3/../../../../avr/lib/avr5\libc.a(fp_sinus.o)
 *(.progmem*)
 .progmem.data  0x000000aa      0x33d globals.o
                0x00000116                message013
                0x000000e1                message011
                0x000001ac                message5
                0x0000024f                message13
                0x000001de                message8
                0x000001c4                message6
                0x00000225                message11
                0x0000033c                rgb_table
                0x00000182                message2
                0x0000020e                message10
                0x000001f4                message9
                0x00000241                message12
                0x00000283                caract
                0x00000261                messages
                0x00000149                message014
                0x000000f8                message012
                0x000001cf                message7
                0x0000019e                message4
                0x000000aa                message010
                0x0000018e                message3
                0x000003e8                . = ALIGN (0x2)
 *fill*         0x000003e7        0x1 00
                0x000003e8                __trampolines_start = .
 *(.trampolines)
 .trampolines   0x000003e8        0x0 linker stubs
 *(.trampolines*)
                0x000003e8                __trampolines_end = .
 *(.jumptables)
 *(.jumptables*)
 *(.lowtext)
 *(.lowtext*)
                0x000003e8                __ctors_start = .
 *(.ctors)
                0x000003e8                __ctors_end = .
                0x000003e8                __dtors_start = .
 *(.dtors)
                0x000003e8                __dtors_end = .
 SORT(*)(.ctors)
 SORT(*)(.dtors)
 *(.init0)
 .init0         0x000003e8        0x0 c:/program files/atmel/bin/../lib/gcc/avr/4.3.3/../../../../avr/lib/avr5/crtm64.o
                0x000003e8                __init
 *(.init0)
 *(.init1)
 *(.init1)
 *(.init2)
 .init2         0x000003e8        0xc c:/program files/atmel/bin/../lib/gcc/avr/4.3.3/../../../../avr/lib/avr5/crtm64.o
 *(.init2)
 *(.init3)
 *(.init3)
 *(.init4)
 .init4         0x000003f4       0x16 c:/program files/atmel/bin/../lib/gcc/avr/4.3.3/avr5\libgcc.a(_copy_data.o)
                0x000003f4                __do_copy_data
 .init4         0x0000040a       0x10 c:/program files/atmel/bin/../lib/gcc/avr/4.3.3/avr5\libgcc.a(_clear_bss.o)
                0x0000040a                __do_clear_bss
 *(.init4)
 *(.init5)
 *(.init5)
 *(.init6)
 *(.init6)
 *(.init7)
 *(.init7)
 *(.init8)
 *(.init8)
 *(.init9)
 .init9         0x0000041a        0x8 c:/program files/atmel/bin/../lib/gcc/avr/4.3.3/../../../../avr/lib/avr5/crtm64.o
 *(.init9)
 *(.text)
 .text          0x00000422        0x4 c:/program files/atmel/bin/../lib/gcc/avr/4.3.3/../../../../avr/lib/avr5/crtm64.o
                0x00000422                __vector_22
                0x00000422                __vector_28
                0x00000422                __vector_1
                0x00000422                __vector_32
                0x00000422                __vector_34
                0x00000422                __vector_24
                0x00000422                __vector_12
                0x00000422                __bad_interrupt
                0x00000422                __vector_6
                0x00000422                __vector_31
                0x00000422                __vector_23
                0x00000422                __vector_30
                0x00000422                __vector_25
                0x00000422                __vector_11
                0x00000422                __vector_13
                0x00000422                __vector_17
                0x00000422                __vector_19
                0x00000422                __vector_7
                0x00000422                __vector_27
                0x00000422                __vector_5
                0x00000422                __vector_33
                0x00000422                __vector_4
                0x00000422                __vector_2
                0x00000422                __vector_21
                0x00000422                __vector_15
                0x00000422                __vector_29
                0x00000422                __vector_8
                0x00000422                __vector_26
                0x00000422                __vector_14
                0x00000422                __vector_10
                0x00000422                __vector_20
 .text          0x00000426       0x2e spi_com.o
                0x0000043a                set_xlat
                0x00000446                clear_blank
                0x0000043e                clear_xlat
                0x0000044a                togle_blank
                0x00000442                set_blank
                0x00000426                SPI_MasterConfig
                0x00000432                SPI_send
 .text          0x00000454      0x448 analog_clk.o
                0x00000454                analog_clk_SET_COR_PONTEIROS
                0x000004b4                analog_clk_SET_COR_HOUR
                0x000004e4                analog_clk_SET_COR_MIN
                0x00000484                analog_clk_SET_COR_NUMEROS
                0x00000514                analog_clk_SET_ANGULOS_PONTEIROS
                0x000006de                analog_clk_GET_LEDS_BACKGROUND
                0x00000610                analog_clk_GET_LEDS_PONTEIROS
 .text          0x0000089c       0x1e blink.o
                0x0000089c                main1
 .text          0x000008ba       0x72 ext_int.o
                0x000008ba                init_INT
                0x000008ce                INT2_task
 .text          0x0000092c        0x0 globals.o
 .text          0x0000092c      0x226 i2c_com.o
                0x000009f6                send_DATA_TWI_RTC
                0x00000988                send_addr_TWI_RTC
                0x0000092c                start_TWI_RTC
                0x00000950                stop_TWI_RTC
                0x00000958                rep_start_TWI_RTC
                0x00000a2c                readACK_DATA_TWI_RTC
                0x00000a54                readNACK_DATA_TWI_RTC
                0x00000ac0                get_clock
                0x00000a84                set_clockRTC
                0x000009c0                send_ptr_value_TWI_RTC
 .text          0x00000b52      0x9a0 image_process.o
                0x00001332                propeller_simul
                0x00000b96                rand_color
                0x00000cc6                convert_encod_2_degree
                0x00000b54                clear_train
                0x00000cee                convert_to_radian
                0x00000fea                next_train_im
                0x00000ca4                convert_encod_2_radian
                0x00000d68                isBlack
                0x00000d9a                square_prop
                0x00000f30                polar_to_rectangular
                0x00000d20                convert_int_to_2digits
                0x000013a0                spiral
                0x00000c9e                read_TCNT0
                0x00000c6c                getCHAR_PIXEIS
                0x000014a4                update_and_send
                0x000011b4                next_train
                0x00000b6a                my_rand
                0x00000c02                nop
                0x00000c04                getPIXEL_CHAR
                0x00000b52                update_train
 .text          0x000014f2      0x3c2 propeller.o
                0x000015a8                init_timer0
                0x000014f2                __vector_3
                0x00001548                init_pins
                0x00001826                main
                0x00001552                __vector_9
                0x000015c6                __vector_16
                0x00001654                __vector_18
                0x000015b6                init_timer2
 .text          0x000018b4      0x386 rs232.o
                0x000019ae                reset_values
                0x00001a7c                decode_CMD
                0x000018d2                serial_receive
                0x000019ac                serial_int
                0x00001b4e                serial_send_message
                0x00001a24                get_mode
                0x000019de                get_msg_ROM
                0x000018b4                serial_init
                0x00001b7c                set_clock
                0x000018da                get_color
                0x000018ca                serial_send
 .text          0x00001c3a        0x0 c:/program files/atmel/bin/../lib/gcc/avr/4.3.3/avr5\libgcc.a(_udivmodqi4.o)
 .text          0x00001c3a        0x0 c:/program files/atmel/bin/../lib/gcc/avr/4.3.3/avr5\libgcc.a(_udivmodhi4.o)
 .text          0x00001c3a        0x0 c:/program files/atmel/bin/../lib/gcc/avr/4.3.3/avr5\libgcc.a(_divmodhi4.o)
 .text          0x00001c3a        0x0 c:/program files/atmel/bin/../lib/gcc/avr/4.3.3/avr5\libgcc.a(_exit.o)
 .text          0x00001c3a        0x0 c:/program files/atmel/bin/../lib/gcc/avr/4.3.3/avr5\libgcc.a(_copy_data.o)
 .text          0x00001c3a        0x0 c:/program files/atmel/bin/../lib/gcc/avr/4.3.3/avr5\libgcc.a(_clear_bss.o)
 .text          0x00001c3a      0x354 c:/program files/atmel/bin/../lib/gcc/avr/4.3.3/avr5\libgcc.a(_addsub_sf.o)
                0x00001ed2                __subsf3
                0x00001f34                __addsf3
 .text          0x00001f8e      0x1f4 c:/program files/atmel/bin/../lib/gcc/avr/4.3.3/avr5\libgcc.a(_mul_sf.o)
                0x00001f8e                __mulsf3
 .text          0x00002182       0xbc c:/program files/atmel/bin/../lib/gcc/avr/4.3.3/avr5\libgcc.a(_si_to_sf.o)
                0x00002182                __floatsisf
 .text          0x0000223e       0xa8 c:/program files/atmel/bin/../lib/gcc/avr/4.3.3/avr5\libgcc.a(_sf_to_si.o)
                0x0000223e                __fixsfsi
 .text          0x000022e6        0x0 c:/program files/atmel/bin/../lib/gcc/avr/4.3.3/avr5\libgcc.a(_thenan_sf.o)
 .text          0x000022e6        0x0 c:/program files/atmel/bin/../lib/gcc/avr/4.3.3/avr5\libgcc.a(_prologue.o)
 .text          0x000022e6        0x0 c:/program files/atmel/bin/../lib/gcc/avr/4.3.3/avr5\libgcc.a(_epilogue.o)
 .text          0x000022e6       0x9e c:/program files/atmel/bin/../lib/gcc/avr/4.3.3/avr5\libgcc.a(_clzsi2.o)
                0x000022e6                __clzsi2
 .text          0x00002384      0x1aa c:/program files/atmel/bin/../lib/gcc/avr/4.3.3/avr5\libgcc.a(_pack_sf.o)
                0x00002384                __pack_f
 .text          0x0000252e       0xf0 c:/program files/atmel/bin/../lib/gcc/avr/4.3.3/avr5\libgcc.a(_unpack_sf.o)
                0x0000252e                __unpack_f
 .text          0x0000261e        0x0 c:/program files/atmel/bin/../lib/gcc/avr/4.3.3/avr5\libgcc.a(_clz.o)
 .text          0x0000261e        0x0 c:/program files/atmel/bin/../lib/gcc/avr/4.3.3/../../../../avr/lib/avr5\libc.a(malloc.o)
 .text          0x0000261e        0x0 c:/program files/atmel/bin/../lib/gcc/avr/4.3.3/../../../../avr/lib/avr5\libc.a(strcpy_P.o)
 .text          0x0000261e        0x0 c:/program files/atmel/bin/../lib/gcc/avr/4.3.3/../../../../avr/lib/avr5\libc.a(strncasecmp.o)
 .text          0x0000261e        0x0 c:/program files/atmel/bin/../lib/gcc/avr/4.3.3/../../../../avr/lib/avr5\libc.a(cos.o)
 .text          0x0000261e        0x0 c:/program files/atmel/bin/../lib/gcc/avr/4.3.3/../../../../avr/lib/avr5\libc.a(fp_rempio2.o)
 .text          0x0000261e        0x0 c:/program files/atmel/bin/../lib/gcc/avr/4.3.3/../../../../avr/lib/avr5\libc.a(fp_sinus.o)
 .text          0x0000261e        0x0 c:/program files/atmel/bin/../lib/gcc/avr/4.3.3/../../../../avr/lib/avr5\libc.a(fp_split3.o)
 .text          0x0000261e        0x0 c:/program files/atmel/bin/../lib/gcc/avr/4.3.3/../../../../avr/lib/avr5\libc.a(sin.o)
 .text          0x0000261e        0x0 c:/program files/atmel/bin/../lib/gcc/avr/4.3.3/../../../../avr/lib/avr5\libc.a(addsf3x.o)
 .text          0x0000261e        0x0 c:/program files/atmel/bin/../lib/gcc/avr/4.3.3/../../../../avr/lib/avr5\libc.a(fp_inf.o)
 .text          0x0000261e        0x0 c:/program files/atmel/bin/../lib/gcc/avr/4.3.3/../../../../avr/lib/avr5\libc.a(fp_mpack.o)
 .text          0x0000261e        0x0 c:/program files/atmel/bin/../lib/gcc/avr/4.3.3/../../../../avr/lib/avr5\libc.a(fp_nan.o)
 .text          0x0000261e        0x0 c:/program files/atmel/bin/../lib/gcc/avr/4.3.3/../../../../avr/lib/avr5\libc.a(fp_powsodd.o)
 .text          0x0000261e        0x0 c:/program files/atmel/bin/../lib/gcc/avr/4.3.3/../../../../avr/lib/avr5\libc.a(fp_pscA.o)
 .text          0x0000261e        0x0 c:/program files/atmel/bin/../lib/gcc/avr/4.3.3/../../../../avr/lib/avr5\libc.a(fp_pscB.o)
 .text          0x0000261e        0x0 c:/program files/atmel/bin/../lib/gcc/avr/4.3.3/../../../../avr/lib/avr5\libc.a(fp_round.o)
 .text          0x0000261e        0x0 c:/program files/atmel/bin/../lib/gcc/avr/4.3.3/../../../../avr/lib/avr5\libc.a(fp_zero.o)
 .text          0x0000261e        0x0 c:/program files/atmel/bin/../lib/gcc/avr/4.3.3/../../../../avr/lib/avr5\libc.a(fp_powser.o)
 .text          0x0000261e        0x0 c:/program files/atmel/bin/../lib/gcc/avr/4.3.3/../../../../avr/lib/avr5\libc.a(mulsf3x.o)
                0x0000261e                . = ALIGN (0x2)
 *(.text.*)
 .text.libgcc   0x0000261e       0x18 c:/program files/atmel/bin/../lib/gcc/avr/4.3.3/avr5\libgcc.a(_udivmodqi4.o)
                0x0000261e                __udivmodqi4
 .text.libgcc   0x00002636       0x28 c:/program files/atmel/bin/../lib/gcc/avr/4.3.3/avr5\libgcc.a(_udivmodhi4.o)
                0x00002636                __udivmodhi4
 .text.libgcc   0x0000265e       0x26 c:/program files/atmel/bin/../lib/gcc/avr/4.3.3/avr5\libgcc.a(_divmodhi4.o)
                0x0000265e                __divmodhi4
                0x0000265e                _div
 .text.libgcc   0x00002684        0x0 c:/program files/atmel/bin/../lib/gcc/avr/4.3.3/avr5\libgcc.a(_exit.o)
 .text.libgcc   0x00002684        0x0 c:/program files/atmel/bin/../lib/gcc/avr/4.3.3/avr5\libgcc.a(_copy_data.o)
 .text.libgcc   0x00002684        0x0 c:/program files/atmel/bin/../lib/gcc/avr/4.3.3/avr5\libgcc.a(_clear_bss.o)
 .text.libgcc   0x00002684       0x38 c:/program files/atmel/bin/../lib/gcc/avr/4.3.3/avr5\libgcc.a(_prologue.o)
                0x00002684                __prologue_saves__
 .text.libgcc   0x000026bc       0x36 c:/program files/atmel/bin/../lib/gcc/avr/4.3.3/avr5\libgcc.a(_epilogue.o)
                0x000026bc                __epilogue_restores__
 .text.avr-libc
                0x000026f2      0x20a c:/program files/atmel/bin/../lib/gcc/avr/4.3.3/../../../../avr/lib/avr5\libc.a(malloc.o)
                0x000026f2                malloc
                0x0000284c                free
 .text.avr-libc
                0x000028fc        0xe c:/program files/atmel/bin/../lib/gcc/avr/4.3.3/../../../../avr/lib/avr5\libc.a(strcpy_P.o)
                0x000028fc                strcpy_P
 .text.avr-libc
                0x0000290a       0x30 c:/program files/atmel/bin/../lib/gcc/avr/4.3.3/../../../../avr/lib/avr5\libc.a(strncasecmp.o)
                0x0000290a                strncasecmp
 .text.avr-libc.fplib
                0x0000293a        0x6 c:/program files/atmel/bin/../lib/gcc/avr/4.3.3/../../../../avr/lib/avr5\libc.a(cos.o)
                0x0000293a                cos
 .text.avr-libc.fplib
                0x00002940       0x50 c:/program files/atmel/bin/../lib/gcc/avr/4.3.3/../../../../avr/lib/avr5\libc.a(fp_rempio2.o)
                0x00002942                __fp_rempio2
 .text.avr-libc.fplib
                0x00002990       0x22 c:/program files/atmel/bin/../lib/gcc/avr/4.3.3/../../../../avr/lib/avr5\libc.a(fp_sinus.o)
                0x00002990                __fp_sinus
 .text.avr-libc.fplib
                0x000029b2       0x44 c:/program files/atmel/bin/../lib/gcc/avr/4.3.3/../../../../avr/lib/avr5\libc.a(fp_split3.o)
                0x000029b2                __fp_split3
                0x000029c2                __fp_splitA
 .text.avr-libc.fplib
                0x000029f6        0xc c:/program files/atmel/bin/../lib/gcc/avr/4.3.3/../../../../avr/lib/avr5\libc.a(sin.o)
                0x000029f6                sin
 .text.avr-libc.fplib
                0x00002a02       0xc0 c:/program files/atmel/bin/../lib/gcc/avr/4.3.3/../../../../avr/lib/avr5\libc.a(addsf3x.o)
                0x00002a1c                __addsf3x
 .text.avr-libc.fplib
                0x00002ac2        0xc c:/program files/atmel/bin/../lib/gcc/avr/4.3.3/../../../../avr/lib/avr5\libc.a(fp_inf.o)
                0x00002ac2                __fp_inf
 .text.avr-libc.fplib
                0x00002ace       0x1c c:/program files/atmel/bin/../lib/gcc/avr/4.3.3/../../../../avr/lib/avr5\libc.a(fp_mpack.o)
                0x00002ad2                __fp_mpack_finite
                0x00002ace                __fp_mpack
 .text.avr-libc.fplib
                0x00002aea        0x6 c:/program files/atmel/bin/../lib/gcc/avr/4.3.3/../../../../avr/lib/avr5\libc.a(fp_nan.o)
                0x00002aea                __fp_nan
 .text.avr-libc.fplib
                0x00002af0       0x22 c:/program files/atmel/bin/../lib/gcc/avr/4.3.3/../../../../avr/lib/avr5\libc.a(fp_powsodd.o)
                0x00002af0                __fp_powsodd
 .text.avr-libc.fplib
                0x00002b12        0xe c:/program files/atmel/bin/../lib/gcc/avr/4.3.3/../../../../avr/lib/avr5\libc.a(fp_pscA.o)
                0x00002b12                __fp_pscA
 .text.avr-libc.fplib
                0x00002b20        0xe c:/program files/atmel/bin/../lib/gcc/avr/4.3.3/../../../../avr/lib/avr5\libc.a(fp_pscB.o)
                0x00002b20                __fp_pscB
 .text.avr-libc.fplib
                0x00002b2e       0x22 c:/program files/atmel/bin/../lib/gcc/avr/4.3.3/../../../../avr/lib/avr5\libc.a(fp_round.o)
                0x00002b2e                __fp_round
 .text.avr-libc.fplib
                0x00002b50        0xe c:/program files/atmel/bin/../lib/gcc/avr/4.3.3/../../../../avr/lib/avr5\libc.a(fp_zero.o)
                0x00002b50                __fp_zero
                0x00002b52                __fp_szero
 .text.avr-libc.fplib
                0x00002b5e       0x4a c:/program files/atmel/bin/../lib/gcc/avr/4.3.3/../../../../avr/lib/avr5\libc.a(fp_powser.o)
                0x00002b5e                __fp_powser
 .text.avr-libc.fplib
                0x00002ba8       0xc2 c:/program files/atmel/bin/../lib/gcc/avr/4.3.3/../../../../avr/lib/avr5\libc.a(mulsf3x.o)
                0x00002bc0                __mulsf3_pse
                0x00002bbc                __mulsf3x
                0x00002c6a                . = ALIGN (0x2)
 *(.fini9)
 .fini9         0x00002c6a        0x0 c:/program files/atmel/bin/../lib/gcc/avr/4.3.3/avr5\libgcc.a(_exit.o)
                0x00002c6a                exit
                0x00002c6a                _exit
 *(.fini9)
 *(.fini8)
 *(.fini8)
 *(.fini7)
 *(.fini7)
 *(.fini6)
 *(.fini6)
 *(.fini5)
 *(.fini5)
 *(.fini4)
 *(.fini4)
 *(.fini3)
 *(.fini3)
 *(.fini2)
 *(.fini2)
 *(.fini1)
 *(.fini1)
 *(.fini0)
 .fini0         0x00002c6a        0x4 c:/program files/atmel/bin/../lib/gcc/avr/4.3.3/avr5\libgcc.a(_exit.o)
 *(.fini0)
                0x00002c6e                _etext = .

.data           0x00800100      0x1ae load address 0x00002c6e
                0x00800100                PROVIDE (__data_start, .)
 *(.data)
 .data          0x00800100        0x0 c:/program files/atmel/bin/../lib/gcc/avr/4.3.3/../../../../avr/lib/avr5/crtm64.o
 .data          0x00800100        0x0 spi_com.o
 .data          0x00800100        0x0 analog_clk.o
 .data          0x00800100        0x0 blink.o
 .data          0x00800100        0x0 ext_int.o
 .data          0x00800100       0x1a globals.o
                0x00800100                analog_clock
 .data          0x0080011a        0x0 i2c_com.o
 .data          0x0080011a        0x6 image_process.o
 .data          0x00800120       0x2e propeller.o
 .data          0x0080014e       0x51 rs232.o
 .data          0x0080019f        0x0 c:/program files/atmel/bin/../lib/gcc/avr/4.3.3/avr5\libgcc.a(_udivmodqi4.o)
 .data          0x0080019f        0x0 c:/program files/atmel/bin/../lib/gcc/avr/4.3.3/avr5\libgcc.a(_udivmodhi4.o)
 .data          0x0080019f        0x0 c:/program files/atmel/bin/../lib/gcc/avr/4.3.3/avr5\libgcc.a(_divmodhi4.o)
 .data          0x0080019f        0x0 c:/program files/atmel/bin/../lib/gcc/avr/4.3.3/avr5\libgcc.a(_exit.o)
 .data          0x0080019f        0x0 c:/program files/atmel/bin/../lib/gcc/avr/4.3.3/avr5\libgcc.a(_copy_data.o)
 .data          0x0080019f        0x0 c:/program files/atmel/bin/../lib/gcc/avr/4.3.3/avr5\libgcc.a(_clear_bss.o)
 .data          0x0080019f        0x0 c:/program files/atmel/bin/../lib/gcc/avr/4.3.3/avr5\libgcc.a(_addsub_sf.o)
 .data          0x0080019f        0x0 c:/program files/atmel/bin/../lib/gcc/avr/4.3.3/avr5\libgcc.a(_mul_sf.o)
 .data          0x0080019f        0x0 c:/program files/atmel/bin/../lib/gcc/avr/4.3.3/avr5\libgcc.a(_si_to_sf.o)
 .data          0x0080019f        0x0 c:/program files/atmel/bin/../lib/gcc/avr/4.3.3/avr5\libgcc.a(_sf_to_si.o)
 .data          0x0080019f        0x8 c:/program files/atmel/bin/../lib/gcc/avr/4.3.3/avr5\libgcc.a(_thenan_sf.o)
                0x0080019f                __thenan_sf
 .data          0x008001a7        0x0 c:/program files/atmel/bin/../lib/gcc/avr/4.3.3/avr5\libgcc.a(_prologue.o)
 .data          0x008001a7        0x0 c:/program files/atmel/bin/../lib/gcc/avr/4.3.3/avr5\libgcc.a(_epilogue.o)
 .data          0x008001a7        0x0 c:/program files/atmel/bin/../lib/gcc/avr/4.3.3/avr5\libgcc.a(_clzsi2.o)
 .data          0x008001a7        0x0 c:/program files/atmel/bin/../lib/gcc/avr/4.3.3/avr5\libgcc.a(_pack_sf.o)
 .data          0x008001a7        0x0 c:/program files/atmel/bin/../lib/gcc/avr/4.3.3/avr5\libgcc.a(_unpack_sf.o)
 .data          0x008001a7      0x100 c:/program files/atmel/bin/../lib/gcc/avr/4.3.3/avr5\libgcc.a(_clz.o)
                0x008001a7                __clz_tab
 .data          0x008002a7        0x6 c:/program files/atmel/bin/../lib/gcc/avr/4.3.3/../../../../avr/lib/avr5\libc.a(malloc.o)
                0x008002a9                __malloc_heap_start
                0x008002ab                __malloc_heap_end
                0x008002a7                __malloc_margin
 .data          0x008002ad        0x0 c:/program files/atmel/bin/../lib/gcc/avr/4.3.3/../../../../avr/lib/avr5\libc.a(strcpy_P.o)
 .data          0x008002ad        0x0 c:/program files/atmel/bin/../lib/gcc/avr/4.3.3/../../../../avr/lib/avr5\libc.a(strncasecmp.o)
 .data          0x008002ad        0x0 c:/program files/atmel/bin/../lib/gcc/avr/4.3.3/../../../../avr/lib/avr5\libc.a(cos.o)
 .data          0x008002ad        0x0 c:/program files/atmel/bin/../lib/gcc/avr/4.3.3/../../../../avr/lib/avr5\libc.a(fp_rempio2.o)
 .data          0x008002ad        0x0 c:/program files/atmel/bin/../lib/gcc/avr/4.3.3/../../../../avr/lib/avr5\libc.a(fp_sinus.o)
 .data          0x008002ad        0x0 c:/program files/atmel/bin/../lib/gcc/avr/4.3.3/../../../../avr/lib/avr5\libc.a(fp_split3.o)
 .data          0x008002ad        0x0 c:/program files/atmel/bin/../lib/gcc/avr/4.3.3/../../../../avr/lib/avr5\libc.a(sin.o)
 .data          0x008002ad        0x0 c:/program files/atmel/bin/../lib/gcc/avr/4.3.3/../../../../avr/lib/avr5\libc.a(addsf3x.o)
 .data          0x008002ad        0x0 c:/program files/atmel/bin/../lib/gcc/avr/4.3.3/../../../../avr/lib/avr5\libc.a(fp_inf.o)
 .data          0x008002ad        0x0 c:/program files/atmel/bin/../lib/gcc/avr/4.3.3/../../../../avr/lib/avr5\libc.a(fp_mpack.o)
 .data          0x008002ad        0x0 c:/program files/atmel/bin/../lib/gcc/avr/4.3.3/../../../../avr/lib/avr5\libc.a(fp_nan.o)
 .data          0x008002ad        0x0 c:/program files/atmel/bin/../lib/gcc/avr/4.3.3/../../../../avr/lib/avr5\libc.a(fp_powsodd.o)
 .data          0x008002ad        0x0 c:/program files/atmel/bin/../lib/gcc/avr/4.3.3/../../../../avr/lib/avr5\libc.a(fp_pscA.o)
 .data          0x008002ad        0x0 c:/program files/atmel/bin/../lib/gcc/avr/4.3.3/../../../../avr/lib/avr5\libc.a(fp_pscB.o)
 .data          0x008002ad        0x0 c:/program files/atmel/bin/../lib/gcc/avr/4.3.3/../../../../avr/lib/avr5\libc.a(fp_round.o)
 .data          0x008002ad        0x0 c:/program files/atmel/bin/../lib/gcc/avr/4.3.3/../../../../avr/lib/avr5\libc.a(fp_zero.o)
 .data          0x008002ad        0x0 c:/program files/atmel/bin/../lib/gcc/avr/4.3.3/../../../../avr/lib/avr5\libc.a(fp_powser.o)
 .data          0x008002ad        0x0 c:/program files/atmel/bin/../lib/gcc/avr/4.3.3/../../../../avr/lib/avr5\libc.a(mulsf3x.o)
 *(.data*)
 *(.rodata)
 *(.rodata*)
 *(.gnu.linkonce.d*)
                0x008002ae                . = ALIGN (0x2)
 *fill*         0x008002ad        0x1 00
                0x008002ae                _edata = .
                0x008002ae                PROVIDE (__data_end, .)

.bss            0x008002ae       0x99
                0x008002ae                PROVIDE (__bss_start, .)
 *(.bss)
 .bss           0x008002ae        0x0 c:/program files/atmel/bin/../lib/gcc/avr/4.3.3/../../../../avr/lib/avr5/crtm64.o
 .bss           0x008002ae        0x0 spi_com.o
 .bss           0x008002ae        0x0 analog_clk.o
 .bss           0x008002ae        0x0 blink.o
 .bss           0x008002ae        0x0 ext_int.o
 .bss           0x008002ae        0x2 globals.o
                0x008002ae                cont_encoder
 .bss           0x008002b0        0x0 i2c_com.o
 .bss           0x008002b0        0x4 image_process.o
                0x008002b0                t
 .bss           0x008002b4        0x4 propeller.o
                0x008002b4                kj
 .bss           0x008002b8        0x0 rs232.o
 .bss           0x008002b8        0x0 c:/program files/atmel/bin/../lib/gcc/avr/4.3.3/avr5\libgcc.a(_udivmodqi4.o)
 .bss           0x008002b8        0x0 c:/program files/atmel/bin/../lib/gcc/avr/4.3.3/avr5\libgcc.a(_udivmodhi4.o)
 .bss           0x008002b8        0x0 c:/program files/atmel/bin/../lib/gcc/avr/4.3.3/avr5\libgcc.a(_divmodhi4.o)
 .bss           0x008002b8        0x0 c:/program files/atmel/bin/../lib/gcc/avr/4.3.3/avr5\libgcc.a(_exit.o)
 .bss           0x008002b8        0x0 c:/program files/atmel/bin/../lib/gcc/avr/4.3.3/avr5\libgcc.a(_copy_data.o)
 .bss           0x008002b8        0x0 c:/program files/atmel/bin/../lib/gcc/avr/4.3.3/avr5\libgcc.a(_clear_bss.o)
 .bss           0x008002b8        0x0 c:/program files/atmel/bin/../lib/gcc/avr/4.3.3/avr5\libgcc.a(_addsub_sf.o)
 .bss           0x008002b8        0x0 c:/program files/atmel/bin/../lib/gcc/avr/4.3.3/avr5\libgcc.a(_mul_sf.o)
 .bss           0x008002b8        0x0 c:/program files/atmel/bin/../lib/gcc/avr/4.3.3/avr5\libgcc.a(_si_to_sf.o)
 .bss           0x008002b8        0x0 c:/program files/atmel/bin/../lib/gcc/avr/4.3.3/avr5\libgcc.a(_sf_to_si.o)
 .bss           0x008002b8        0x0 c:/program files/atmel/bin/../lib/gcc/avr/4.3.3/avr5\libgcc.a(_thenan_sf.o)
 .bss           0x008002b8        0x0 c:/program files/atmel/bin/../lib/gcc/avr/4.3.3/avr5\libgcc.a(_prologue.o)
 .bss           0x008002b8        0x0 c:/program files/atmel/bin/../lib/gcc/avr/4.3.3/avr5\libgcc.a(_epilogue.o)
 .bss           0x008002b8        0x0 c:/program files/atmel/bin/../lib/gcc/avr/4.3.3/avr5\libgcc.a(_clzsi2.o)
 .bss           0x008002b8        0x0 c:/program files/atmel/bin/../lib/gcc/avr/4.3.3/avr5\libgcc.a(_pack_sf.o)
 .bss           0x008002b8        0x0 c:/program files/atmel/bin/../lib/gcc/avr/4.3.3/avr5\libgcc.a(_unpack_sf.o)
 .bss           0x008002b8        0x0 c:/program files/atmel/bin/../lib/gcc/avr/4.3.3/avr5\libgcc.a(_clz.o)
 .bss           0x008002b8        0x0 c:/program files/atmel/bin/../lib/gcc/avr/4.3.3/../../../../avr/lib/avr5\libc.a(malloc.o)
 .bss           0x008002b8        0x0 c:/program files/atmel/bin/../lib/gcc/avr/4.3.3/../../../../avr/lib/avr5\libc.a(strcpy_P.o)
 .bss           0x008002b8        0x0 c:/program files/atmel/bin/../lib/gcc/avr/4.3.3/../../../../avr/lib/avr5\libc.a(strncasecmp.o)
 .bss           0x008002b8        0x0 c:/program files/atmel/bin/../lib/gcc/avr/4.3.3/../../../../avr/lib/avr5\libc.a(cos.o)
 .bss           0x008002b8        0x0 c:/program files/atmel/bin/../lib/gcc/avr/4.3.3/../../../../avr/lib/avr5\libc.a(fp_rempio2.o)
 .bss           0x008002b8        0x0 c:/program files/atmel/bin/../lib/gcc/avr/4.3.3/../../../../avr/lib/avr5\libc.a(fp_sinus.o)
 .bss           0x008002b8        0x0 c:/program files/atmel/bin/../lib/gcc/avr/4.3.3/../../../../avr/lib/avr5\libc.a(fp_split3.o)
 .bss           0x008002b8        0x0 c:/program files/atmel/bin/../lib/gcc/avr/4.3.3/../../../../avr/lib/avr5\libc.a(sin.o)
 .bss           0x008002b8        0x0 c:/program files/atmel/bin/../lib/gcc/avr/4.3.3/../../../../avr/lib/avr5\libc.a(addsf3x.o)
 .bss           0x008002b8        0x0 c:/program files/atmel/bin/../lib/gcc/avr/4.3.3/../../../../avr/lib/avr5\libc.a(fp_inf.o)
 .bss           0x008002b8        0x0 c:/program files/atmel/bin/../lib/gcc/avr/4.3.3/../../../../avr/lib/avr5\libc.a(fp_mpack.o)
 .bss           0x008002b8        0x0 c:/program files/atmel/bin/../lib/gcc/avr/4.3.3/../../../../avr/lib/avr5\libc.a(fp_nan.o)
 .bss           0x008002b8        0x0 c:/program files/atmel/bin/../lib/gcc/avr/4.3.3/../../../../avr/lib/avr5\libc.a(fp_powsodd.o)
 .bss           0x008002b8        0x0 c:/program files/atmel/bin/../lib/gcc/avr/4.3.3/../../../../avr/lib/avr5\libc.a(fp_pscA.o)
 .bss           0x008002b8        0x0 c:/program files/atmel/bin/../lib/gcc/avr/4.3.3/../../../../avr/lib/avr5\libc.a(fp_pscB.o)
 .bss           0x008002b8        0x0 c:/program files/atmel/bin/../lib/gcc/avr/4.3.3/../../../../avr/lib/avr5\libc.a(fp_round.o)
 .bss           0x008002b8        0x0 c:/program files/atmel/bin/../lib/gcc/avr/4.3.3/../../../../avr/lib/avr5\libc.a(fp_zero.o)
 .bss           0x008002b8        0x0 c:/program files/atmel/bin/../lib/gcc/avr/4.3.3/../../../../avr/lib/avr5\libc.a(fp_powser.o)
 .bss           0x008002b8        0x0 c:/program files/atmel/bin/../lib/gcc/avr/4.3.3/../../../../avr/lib/avr5\libc.a(mulsf3x.o)
 *(.bss*)
 *(COMMON)
 COMMON         0x008002b8       0x81 globals.o
                0x008002b8                time_clk
                0x008002be                train
                0x0080031e                theta
                0x00800320                USART_WORD_INDEX
                0x00800322                mode
                0x00800323                enable_send
                0x00800325                USART_WORD
 COMMON         0x00800339        0x3 i2c_com.o
                0x00800339                sec
                0x0080033a                error
                0x0080033b                testers232
 COMMON         0x0080033c        0x2 image_process.o
                0x0080033c                CURRENT_ANGLE
 COMMON         0x0080033e        0x2 propeller.o
                0x0080033e                TMODE
 COMMON         0x00800340        0x3 rs232.o
                0x00800340                tcl
 COMMON         0x00800343        0x4 c:/program files/atmel/bin/../lib/gcc/avr/4.3.3/../../../../avr/lib/avr5\libc.a(malloc.o)
                0x00800343                __brkval
                0x00800345                __flp
                0x00800347                PROVIDE (__bss_end, .)
                0x00002c6e                __data_load_start = LOADADDR (.data)
                0x00002e1c                __data_load_end = (__data_load_start + SIZEOF (.data))

.noinit         0x00800347        0x0
                0x00800347                PROVIDE (__noinit_start, .)
 *(.noinit*)
                0x00800347                PROVIDE (__noinit_end, .)
                0x00800347                _end = .
                0x00800347                PROVIDE (__heap_start, .)

.eeprom         0x00810000        0x0
 *(.eeprom*)
                0x00810000                __eeprom_end = .

.fuse
 *(.fuse)
 *(.lfuse)
 *(.hfuse)
 *(.efuse)

.lock
 *(.lock*)

.signature
 *(.signature*)

.stab
 *(.stab)

.stabstr
 *(.stabstr)

.stab.excl
 *(.stab.excl)

.stab.exclstr
 *(.stab.exclstr)

.stab.index
 *(.stab.index)

.stab.indexstr
 *(.stab.indexstr)

.comment
 *(.comment)

.debug
 *(.debug)

.line
 *(.line)

.debug_srcinfo
 *(.debug_srcinfo)

.debug_sfnames
 *(.debug_sfnames)

.debug_aranges  0x00000000      0x1e0
 *(.debug_aranges)
 .debug_aranges
                0x00000000       0x20 spi_com.o
 .debug_aranges
                0x00000020       0x20 analog_clk.o
 .debug_aranges
                0x00000040       0x20 blink.o
 .debug_aranges
                0x00000060       0x20 ext_int.o
 .debug_aranges
                0x00000080       0x20 i2c_com.o
 .debug_aranges
                0x000000a0       0x20 image_process.o
 .debug_aranges
                0x000000c0       0x20 propeller.o
 .debug_aranges
                0x000000e0       0x20 rs232.o
 .debug_aranges
                0x00000100       0x20 c:/program files/atmel/bin/../lib/gcc/avr/4.3.3/avr5\libgcc.a(_addsub_sf.o)
 .debug_aranges
                0x00000120       0x20 c:/program files/atmel/bin/../lib/gcc/avr/4.3.3/avr5\libgcc.a(_mul_sf.o)
 .debug_aranges
                0x00000140       0x20 c:/program files/atmel/bin/../lib/gcc/avr/4.3.3/avr5\libgcc.a(_si_to_sf.o)
 .debug_aranges
                0x00000160       0x20 c:/program files/atmel/bin/../lib/gcc/avr/4.3.3/avr5\libgcc.a(_sf_to_si.o)
 .debug_aranges
                0x00000180       0x20 c:/program files/atmel/bin/../lib/gcc/avr/4.3.3/avr5\libgcc.a(_clzsi2.o)
 .debug_aranges
                0x000001a0       0x20 c:/program files/atmel/bin/../lib/gcc/avr/4.3.3/avr5\libgcc.a(_pack_sf.o)
 .debug_aranges
                0x000001c0       0x20 c:/program files/atmel/bin/../lib/gcc/avr/4.3.3/avr5\libgcc.a(_unpack_sf.o)

.debug_pubnames
                0x00000000      0x88f
 *(.debug_pubnames)
 .debug_pubnames
                0x00000000       0x7e spi_com.o
 .debug_pubnames
                0x0000007e       0xf3 analog_clk.o
 .debug_pubnames
                0x00000171       0x1c blink.o
 .debug_pubnames
                0x0000018d       0x2d ext_int.o
 .debug_pubnames
                0x000001ba      0x1a3 globals.o
 .debug_pubnames
                0x0000035d      0x105 i2c_com.o
 .debug_pubnames
                0x00000462      0x192 image_process.o
 .debug_pubnames
                0x000005f4       0xa0 propeller.o
 .debug_pubnames
                0x00000694       0xcd rs232.o
 .debug_pubnames
                0x00000761       0x2c c:/program files/atmel/bin/../lib/gcc/avr/4.3.3/avr5\libgcc.a(_addsub_sf.o)
 .debug_pubnames
                0x0000078d       0x1f c:/program files/atmel/bin/../lib/gcc/avr/4.3.3/avr5\libgcc.a(_mul_sf.o)
 .debug_pubnames
                0x000007ac       0x22 c:/program files/atmel/bin/../lib/gcc/avr/4.3.3/avr5\libgcc.a(_si_to_sf.o)
 .debug_pubnames
                0x000007ce       0x20 c:/program files/atmel/bin/../lib/gcc/avr/4.3.3/avr5\libgcc.a(_sf_to_si.o)
 .debug_pubnames
                0x000007ee       0x22 c:/program files/atmel/bin/../lib/gcc/avr/4.3.3/avr5\libgcc.a(_thenan_sf.o)
 .debug_pubnames
                0x00000810       0x1f c:/program files/atmel/bin/../lib/gcc/avr/4.3.3/avr5\libgcc.a(_clzsi2.o)
 .debug_pubnames
                0x0000082f       0x1f c:/program files/atmel/bin/../lib/gcc/avr/4.3.3/avr5\libgcc.a(_pack_sf.o)
 .debug_pubnames
                0x0000084e       0x21 c:/program files/atmel/bin/../lib/gcc/avr/4.3.3/avr5\libgcc.a(_unpack_sf.o)
 .debug_pubnames
                0x0000086f       0x20 c:/program files/atmel/bin/../lib/gcc/avr/4.3.3/avr5\libgcc.a(_clz.o)

.debug_info     0x00000000     0x3639
 *(.debug_info)
 .debug_info    0x00000000       0xfc spi_com.o
 .debug_info    0x000000fc      0x385 analog_clk.o
 .debug_info    0x00000481      0x10f blink.o
 .debug_info    0x00000590      0x1d6 ext_int.o
 .debug_info    0x00000766      0x546 globals.o
 .debug_info    0x00000cac      0x2a7 i2c_com.o
 .debug_info    0x00000f53      0x82a image_process.o
 .debug_info    0x0000177d      0x46d propeller.o
 .debug_info    0x00001bea      0x47d rs232.o
 .debug_info    0x00002067      0x47a c:/program files/atmel/bin/../lib/gcc/avr/4.3.3/avr5\libgcc.a(_addsub_sf.o)
 .debug_info    0x000024e1      0x485 c:/program files/atmel/bin/../lib/gcc/avr/4.3.3/avr5\libgcc.a(_mul_sf.o)
 .debug_info    0x00002966      0x207 c:/program files/atmel/bin/../lib/gcc/avr/4.3.3/avr5\libgcc.a(_si_to_sf.o)
 .debug_info    0x00002b6d      0x2b0 c:/program files/atmel/bin/../lib/gcc/avr/4.3.3/avr5\libgcc.a(_sf_to_si.o)
 .debug_info    0x00002e1d      0x12c c:/program files/atmel/bin/../lib/gcc/avr/4.3.3/avr5\libgcc.a(_thenan_sf.o)
 .debug_info    0x00002f49      0x117 c:/program files/atmel/bin/../lib/gcc/avr/4.3.3/avr5\libgcc.a(_clzsi2.o)
 .debug_info    0x00003060      0x2df c:/program files/atmel/bin/../lib/gcc/avr/4.3.3/avr5\libgcc.a(_pack_sf.o)
 .debug_info    0x0000333f      0x251 c:/program files/atmel/bin/../lib/gcc/avr/4.3.3/avr5\libgcc.a(_unpack_sf.o)
 .debug_info    0x00003590       0xa9 c:/program files/atmel/bin/../lib/gcc/avr/4.3.3/avr5\libgcc.a(_clz.o)
 *(.gnu.linkonce.wi.*)

.debug_abbrev   0x00000000     0x1810
 *(.debug_abbrev)
 .debug_abbrev  0x00000000       0x65 spi_com.o
 .debug_abbrev  0x00000065      0x113 analog_clk.o
 .debug_abbrev  0x00000178       0xb0 blink.o
 .debug_abbrev  0x00000228       0xf7 ext_int.o
 .debug_abbrev  0x0000031f       0xcc globals.o
 .debug_abbrev  0x000003eb      0x14d i2c_com.o
 .debug_abbrev  0x00000538      0x345 image_process.o
 .debug_abbrev  0x0000087d      0x1c0 propeller.o
 .debug_abbrev  0x00000a3d      0x218 rs232.o
 .debug_abbrev  0x00000c55      0x1ea c:/program files/atmel/bin/../lib/gcc/avr/4.3.3/avr5\libgcc.a(_addsub_sf.o)
 .debug_abbrev  0x00000e3f      0x21b c:/program files/atmel/bin/../lib/gcc/avr/4.3.3/avr5\libgcc.a(_mul_sf.o)
 .debug_abbrev  0x0000105a      0x148 c:/program files/atmel/bin/../lib/gcc/avr/4.3.3/avr5\libgcc.a(_si_to_sf.o)
 .debug_abbrev  0x000011a2      0x17f c:/program files/atmel/bin/../lib/gcc/avr/4.3.3/avr5\libgcc.a(_sf_to_si.o)
 .debug_abbrev  0x00001321       0xad c:/program files/atmel/bin/../lib/gcc/avr/4.3.3/avr5\libgcc.a(_thenan_sf.o)
 .debug_abbrev  0x000013ce       0xc4 c:/program files/atmel/bin/../lib/gcc/avr/4.3.3/avr5\libgcc.a(_clzsi2.o)
 .debug_abbrev  0x00001492      0x1c0 c:/program files/atmel/bin/../lib/gcc/avr/4.3.3/avr5\libgcc.a(_pack_sf.o)
 .debug_abbrev  0x00001652      0x154 c:/program files/atmel/bin/../lib/gcc/avr/4.3.3/avr5\libgcc.a(_unpack_sf.o)
 .debug_abbrev  0x000017a6       0x6a c:/program files/atmel/bin/../lib/gcc/avr/4.3.3/avr5\libgcc.a(_clz.o)

.debug_line     0x00000000     0x242c
 *(.debug_line)
 .debug_line    0x00000000      0x13e spi_com.o
 .debug_line    0x0000013e      0x29a analog_clk.o
 .debug_line    0x000003d8      0x158 blink.o
 .debug_line    0x00000530      0x11b ext_int.o
 .debug_line    0x0000064b       0xce globals.o
 .debug_line    0x00000719      0x316 i2c_com.o
 .debug_line    0x00000a2f      0x68b image_process.o
 .debug_line    0x000010ba      0x418 propeller.o
 .debug_line    0x000014d2      0x3ae rs232.o
 .debug_line    0x00001880      0x2af c:/program files/atmel/bin/../lib/gcc/avr/4.3.3/avr5\libgcc.a(_addsub_sf.o)
 .debug_line    0x00001b2f      0x239 c:/program files/atmel/bin/../lib/gcc/avr/4.3.3/avr5\libgcc.a(_mul_sf.o)
 .debug_line    0x00001d68      0x135 c:/program files/atmel/bin/../lib/gcc/avr/4.3.3/avr5\libgcc.a(_si_to_sf.o)
 .debug_line    0x00001e9d      0x109 c:/program files/atmel/bin/../lib/gcc/avr/4.3.3/avr5\libgcc.a(_sf_to_si.o)
 .debug_line    0x00001fa6       0x90 c:/program files/atmel/bin/../lib/gcc/avr/4.3.3/avr5\libgcc.a(_thenan_sf.o)
 .debug_line    0x00002036       0xa5 c:/program files/atmel/bin/../lib/gcc/avr/4.3.3/avr5\libgcc.a(_clzsi2.o)
 .debug_line    0x000020db      0x18a c:/program files/atmel/bin/../lib/gcc/avr/4.3.3/avr5\libgcc.a(_pack_sf.o)
 .debug_line    0x00002265      0x14b c:/program files/atmel/bin/../lib/gcc/avr/4.3.3/avr5\libgcc.a(_unpack_sf.o)
 .debug_line    0x000023b0       0x7c c:/program files/atmel/bin/../lib/gcc/avr/4.3.3/avr5\libgcc.a(_clz.o)

.debug_frame    0x00000000      0x5a0
 *(.debug_frame)
 .debug_frame   0x00000000       0x80 spi_com.o
 .debug_frame   0x00000080       0x80 analog_clk.o
 .debug_frame   0x00000100       0x20 blink.o
 .debug_frame   0x00000120       0x30 ext_int.o
 .debug_frame   0x00000150       0xb0 i2c_com.o
 .debug_frame   0x00000200      0x150 image_process.o
 .debug_frame   0x00000350       0x90 propeller.o
 .debug_frame   0x000003e0       0xc0 rs232.o
 .debug_frame   0x000004a0       0x40 c:/program files/atmel/bin/../lib/gcc/avr/4.3.3/avr5\libgcc.a(_addsub_sf.o)
 .debug_frame   0x000004e0       0x20 c:/program files/atmel/bin/../lib/gcc/avr/4.3.3/avr5\libgcc.a(_mul_sf.o)
 .debug_frame   0x00000500       0x20 c:/program files/atmel/bin/../lib/gcc/avr/4.3.3/avr5\libgcc.a(_si_to_sf.o)
 .debug_frame   0x00000520       0x20 c:/program files/atmel/bin/../lib/gcc/avr/4.3.3/avr5\libgcc.a(_sf_to_si.o)
 .debug_frame   0x00000540       0x20 c:/program files/atmel/bin/../lib/gcc/avr/4.3.3/avr5\libgcc.a(_clzsi2.o)
 .debug_frame   0x00000560       0x20 c:/program files/atmel/bin/../lib/gcc/avr/4.3.3/avr5\libgcc.a(_pack_sf.o)
 .debug_frame   0x00000580       0x20 c:/program files/atmel/bin/../lib/gcc/avr/4.3.3/avr5\libgcc.a(_unpack_sf.o)

.debug_str      0x00000000      0xd0d
 *(.debug_str)
 .debug_str     0x00000000      0x160 spi_com.o
                                0x194 (size before relaxing)
 .debug_str     0x00000160      0x19a analog_clk.o
                                0x2a6 (size before relaxing)
 .debug_str     0x000002fa       0x84 blink.o
                                0x185 (size before relaxing)
 .debug_str     0x0000037e       0x7e ext_int.o
                                0x1ea (size before relaxing)
 .debug_str     0x000003fc      0x12c globals.o
                                0x2d8 (size before relaxing)
 .debug_str     0x00000528      0x139 i2c_com.o
                                0x268 (size before relaxing)
 .debug_str     0x00000661      0x201 image_process.o
                                0x3a1 (size before relaxing)
 .debug_str     0x00000862      0x18b propeller.o
                                0x3e0 (size before relaxing)
 .debug_str     0x000009ed       0xe6 rs232.o
                                0x2da (size before relaxing)
 .debug_str     0x00000ad3      0x174 c:/program files/atmel/bin/../lib/gcc/avr/4.3.3/avr5\libgcc.a(_addsub_sf.o)
                                0x206 (size before relaxing)
 .debug_str     0x00000c47       0x27 c:/program files/atmel/bin/../lib/gcc/avr/4.3.3/avr5\libgcc.a(_mul_sf.o)
                                0x1bf (size before relaxing)
 .debug_str     0x00000c6e       0x1e c:/program files/atmel/bin/../lib/gcc/avr/4.3.3/avr5\libgcc.a(_si_to_sf.o)
                                0x17b (size before relaxing)
 .debug_str     0x00000c8c        0xa c:/program files/atmel/bin/../lib/gcc/avr/4.3.3/avr5\libgcc.a(_sf_to_si.o)
                                0x19e (size before relaxing)
 .debug_str     0x00000000      0x103 c:/program files/atmel/bin/../lib/gcc/avr/4.3.3/avr5\libgcc.a(_thenan_sf.o)
 .debug_str     0x00000c96       0x5c c:/program files/atmel/bin/../lib/gcc/avr/4.3.3/avr5\libgcc.a(_clzsi2.o)
                                0x111 (size before relaxing)
 .debug_str     0x00000cf2       0x10 c:/program files/atmel/bin/../lib/gcc/avr/4.3.3/avr5\libgcc.a(_pack_sf.o)
                                0x19d (size before relaxing)
 .debug_str     0x00000d02        0xb c:/program files/atmel/bin/../lib/gcc/avr/4.3.3/avr5\libgcc.a(_unpack_sf.o)
                                0x17f (size before relaxing)
 .debug_str     0x00000000       0xf4 c:/program files/atmel/bin/../lib/gcc/avr/4.3.3/avr5\libgcc.a(_clz.o)

.debug_loc      0x00000000     0x1123
 *(.debug_loc)
 .debug_loc     0x00000000      0x2a8 analog_clk.o
 .debug_loc     0x000002a8       0x28 blink.o
 .debug_loc     0x000002d0       0x38 ext_int.o
 .debug_loc     0x00000308       0xf3 i2c_com.o
 .debug_loc     0x000003fb      0x35c image_process.o
 .debug_loc     0x00000757      0x106 propeller.o
 .debug_loc     0x0000085d       0xf0 rs232.o
 .debug_loc     0x0000094d      0x32a c:/program files/atmel/bin/../lib/gcc/avr/4.3.3/avr5\libgcc.a(_addsub_sf.o)
 .debug_loc     0x00000c77      0x104 c:/program files/atmel/bin/../lib/gcc/avr/4.3.3/avr5\libgcc.a(_mul_sf.o)
 .debug_loc     0x00000d7b       0xac c:/program files/atmel/bin/../lib/gcc/avr/4.3.3/avr5\libgcc.a(_si_to_sf.o)
 .debug_loc     0x00000e27       0x7e c:/program files/atmel/bin/../lib/gcc/avr/4.3.3/avr5\libgcc.a(_sf_to_si.o)
 .debug_loc     0x00000ea5       0x94 c:/program files/atmel/bin/../lib/gcc/avr/4.3.3/avr5\libgcc.a(_clzsi2.o)
 .debug_loc     0x00000f39      0x13e c:/program files/atmel/bin/../lib/gcc/avr/4.3.3/avr5\libgcc.a(_pack_sf.o)
 .debug_loc     0x00001077       0xac c:/program files/atmel/bin/../lib/gcc/avr/4.3.3/avr5\libgcc.a(_unpack_sf.o)

.debug_macinfo
 *(.debug_macinfo)
OUTPUT(mmlml.elf elf32-avr)
LOAD linker stubs

.debug_ranges   0x00000000      0x140
 .debug_ranges  0x00000000       0x48 blink.o
 .debug_ranges  0x00000048       0x60 image_process.o
 .debug_ranges  0x000000a8       0x48 propeller.o
 .debug_ranges  0x000000f0       0x50 c:/program files/atmel/bin/../lib/gcc/avr/4.3.3/avr5\libgcc.a(_mul_sf.o)
