
E-monitor.elf:     file format elf32-avr

Sections:
Idx Name          Size      VMA       LMA       File off  Algn
  0 .text         00002a1e  00000000  00000000  00000094  2**1
                  CONTENTS, ALLOC, LOAD, READONLY, CODE
  1 .data         000004e4  00800060  00002a1e  00002ab2  2**0
                  CONTENTS, ALLOC, LOAD, DATA
  2 .bss          000000b5  00800544  00800544  00002f96  2**0
                  ALLOC
  3 .comment      0000005c  00000000  00000000  00002f96  2**0
                  CONTENTS, READONLY
  4 .debug_aranges 000001f0  00000000  00000000  00002ff2  2**0
                  CONTENTS, READONLY, DEBUGGING
  5 .debug_info   00001e6b  00000000  00000000  000031e2  2**0
                  CONTENTS, READONLY, DEBUGGING
  6 .debug_abbrev 00000d5e  00000000  00000000  0000504d  2**0
                  CONTENTS, READONLY, DEBUGGING
  7 .debug_line   0000124b  00000000  00000000  00005dab  2**0
                  CONTENTS, READONLY, DEBUGGING
  8 .debug_frame  00000838  00000000  00000000  00006ff8  2**2
                  CONTENTS, READONLY, DEBUGGING
  9 .debug_str    00000482  00000000  00000000  00007830  2**0
                  CONTENTS, READONLY, DEBUGGING
 10 .debug_loc    000020f7  00000000  00000000  00007cb2  2**0
                  CONTENTS, READONLY, DEBUGGING
 11 .debug_ranges 00000160  00000000  00000000  00009da9  2**0
                  CONTENTS, READONLY, DEBUGGING

Disassembly of section .text:

00000000 <__vectors>:
       0:	0c 94 e7 00 	jmp	0x1ce	; 0x1ce <__ctors_end>
       4:	0c 94 04 01 	jmp	0x208	; 0x208 <__bad_interrupt>
       8:	0c 94 04 01 	jmp	0x208	; 0x208 <__bad_interrupt>
       c:	0c 94 04 01 	jmp	0x208	; 0x208 <__bad_interrupt>
      10:	0c 94 04 01 	jmp	0x208	; 0x208 <__bad_interrupt>
      14:	0c 94 04 01 	jmp	0x208	; 0x208 <__bad_interrupt>
      18:	0c 94 04 01 	jmp	0x208	; 0x208 <__bad_interrupt>
      1c:	0c 94 0b 0e 	jmp	0x1c16	; 0x1c16 <__vector_7>
      20:	0c 94 04 01 	jmp	0x208	; 0x208 <__bad_interrupt>
      24:	0c 94 04 01 	jmp	0x208	; 0x208 <__bad_interrupt>
      28:	0c 94 04 01 	jmp	0x208	; 0x208 <__bad_interrupt>
      2c:	0c 94 04 01 	jmp	0x208	; 0x208 <__bad_interrupt>
      30:	0c 94 04 01 	jmp	0x208	; 0x208 <__bad_interrupt>
      34:	0c 94 04 01 	jmp	0x208	; 0x208 <__bad_interrupt>
      38:	0c 94 04 01 	jmp	0x208	; 0x208 <__bad_interrupt>
      3c:	0c 94 04 01 	jmp	0x208	; 0x208 <__bad_interrupt>
      40:	0c 94 04 01 	jmp	0x208	; 0x208 <__bad_interrupt>
      44:	0c 94 04 01 	jmp	0x208	; 0x208 <__bad_interrupt>
      48:	0c 94 04 01 	jmp	0x208	; 0x208 <__bad_interrupt>
      4c:	0c 94 04 01 	jmp	0x208	; 0x208 <__bad_interrupt>
      50:	0c 94 04 01 	jmp	0x208	; 0x208 <__bad_interrupt>
      54:	5d 07       	cpc	r21, r29
      56:	84 07       	cpc	r24, r20
      58:	fc 07       	cpc	r31, r28
      5a:	83 08       	sbc	r8, r3
      5c:	19 09       	sbc	r17, r9
      5e:	a8 09       	sbc	r26, r8
      60:	28 0a       	sbc	r2, r24
      62:	a7 0a       	sbc	r10, r23

00000064 <__trampolines_end>:
      64:	7a 10       	cpse	r7, r10
      66:	76 10       	cpse	r7, r6
      68:	73 10       	cpse	r7, r3
      6a:	70 10       	cpse	r7, r0
      6c:	6d 10       	cpse	r6, r13
      6e:	6a 10       	cpse	r6, r10
      70:	68 10       	cpse	r6, r8
      72:	66 10       	cpse	r6, r6
      74:	64 10       	cpse	r6, r4
      76:	62 10       	cpse	r6, r2
      78:	60 10       	cpse	r6, r0
      7a:	5f 10       	cpse	r5, r15
      7c:	5d 10       	cpse	r5, r13
      7e:	5c 10       	cpse	r5, r12
      80:	5b 10       	cpse	r5, r11
      82:	5a 10       	cpse	r5, r10
      84:	59 10       	cpse	r5, r9
      86:	58 10       	cpse	r5, r8
      88:	57 10       	cpse	r5, r7
      8a:	57 10       	cpse	r5, r7
      8c:	56 10       	cpse	r5, r6
      8e:	55 10       	cpse	r5, r5
      90:	55 10       	cpse	r5, r5
      92:	54 10       	cpse	r5, r4
      94:	54 10       	cpse	r5, r4
      96:	54 10       	cpse	r5, r4
      98:	53 10       	cpse	r5, r3
      9a:	53 10       	cpse	r5, r3
      9c:	53 10       	cpse	r5, r3
      9e:	53 10       	cpse	r5, r3
      a0:	53 10       	cpse	r5, r3
      a2:	52 10       	cpse	r5, r2
      a4:	52 10       	cpse	r5, r2
      a6:	52 10       	cpse	r5, r2
      a8:	52 10       	cpse	r5, r2
      aa:	52 10       	cpse	r5, r2
      ac:	52 10       	cpse	r5, r2
      ae:	52 10       	cpse	r5, r2
      b0:	52 10       	cpse	r5, r2
      b2:	53 10       	cpse	r5, r3
      b4:	53 10       	cpse	r5, r3
      b6:	53 10       	cpse	r5, r3
      b8:	53 10       	cpse	r5, r3
      ba:	53 10       	cpse	r5, r3
      bc:	53 10       	cpse	r5, r3
      be:	54 10       	cpse	r5, r4
      c0:	54 10       	cpse	r5, r4
      c2:	54 10       	cpse	r5, r4
      c4:	54 10       	cpse	r5, r4
      c6:	54 10       	cpse	r5, r4
      c8:	55 10       	cpse	r5, r5
      ca:	55 10       	cpse	r5, r5
      cc:	55 10       	cpse	r5, r5
      ce:	56 10       	cpse	r5, r6
      d0:	56 10       	cpse	r5, r6
      d2:	56 10       	cpse	r5, r6
      d4:	57 10       	cpse	r5, r7
      d6:	57 10       	cpse	r5, r7
      d8:	58 10       	cpse	r5, r8
      da:	58 10       	cpse	r5, r8
      dc:	58 10       	cpse	r5, r8
      de:	59 10       	cpse	r5, r9
      e0:	59 10       	cpse	r5, r9
      e2:	5a 10       	cpse	r5, r10
      e4:	5a 10       	cpse	r5, r10
      e6:	5b 10       	cpse	r5, r11
      e8:	5b 10       	cpse	r5, r11
      ea:	5c 10       	cpse	r5, r12
      ec:	5d 10       	cpse	r5, r13
      ee:	5d 10       	cpse	r5, r13
      f0:	5e 10       	cpse	r5, r14
      f2:	5e 10       	cpse	r5, r14
      f4:	5f 10       	cpse	r5, r15
      f6:	60 10       	cpse	r6, r0
      f8:	60 10       	cpse	r6, r0
      fa:	61 10       	cpse	r6, r1
      fc:	62 10       	cpse	r6, r2
      fe:	62 10       	cpse	r6, r2
     100:	63 10       	cpse	r6, r3
     102:	64 10       	cpse	r6, r4
     104:	64 10       	cpse	r6, r4
     106:	65 10       	cpse	r6, r5
     108:	66 10       	cpse	r6, r6
     10a:	67 10       	cpse	r6, r7
     10c:	68 10       	cpse	r6, r8
     10e:	69 10       	cpse	r6, r9
     110:	69 10       	cpse	r6, r9
     112:	6a 10       	cpse	r6, r10
     114:	6b 10       	cpse	r6, r11
     116:	6c 10       	cpse	r6, r12
     118:	6d 10       	cpse	r6, r13
     11a:	6e 10       	cpse	r6, r14
     11c:	6f 10       	cpse	r6, r15
     11e:	70 10       	cpse	r7, r0
     120:	71 10       	cpse	r7, r1
     122:	72 10       	cpse	r7, r2
     124:	73 10       	cpse	r7, r3
     126:	75 10       	cpse	r7, r5
     128:	76 10       	cpse	r7, r6
     12a:	77 10       	cpse	r7, r7
     12c:	78 10       	cpse	r7, r8

0000012e <ID>:
     12e:	10 9f ac d5 01 08 00 21 10 7e 8c d5 01 08 00 c7     .......!.~......
     13e:	10 1b 77 d5 01 08 00 39 10 18 be d5 01 08 00 b1     ..w....9........
     14e:	10 07 ee ed 01 08 00 0f 10 2c a6 ed 01 08 00 96     .........,......
     15e:	10 c3 af d5 01 08 00 3c 10 7d b9 d5 01 08 00 c8     .......<.}......
     16e:	10 01 f4 ed 01 08 00 7c 10 8e 94 d5 01 08 00 f7     .......|........
     17e:	10 a6 b5 d5 01 08 00 d5 10 96 93 d5 01 08 00 5c     ...............\
     18e:	10 d9 c3 ed 01 08 00 cc 10 d0 be d5 01 08 00 8f     ................
     19e:	10 5c be d5 01 08 00 18 10 b6 9e d5 01 08 00 06     .\..............
     1ae:	10 b9 af d5 01 08 00 6b 10 cb 8c d5 01 08 00 2b     .......k.......+
     1be:	10 e4 20 d3 01 08 00 a2 10 9d 0f d3 01 08 00 3b     .. ............;

000001ce <__ctors_end>:
     1ce:	11 24       	eor	r1, r1
     1d0:	1f be       	out	0x3f, r1	; 63
     1d2:	cf e5       	ldi	r28, 0x5F	; 95
     1d4:	d8 e0       	ldi	r29, 0x08	; 8
     1d6:	de bf       	out	0x3e, r29	; 62
     1d8:	cd bf       	out	0x3d, r28	; 61

000001da <__do_copy_data>:
     1da:	15 e0       	ldi	r17, 0x05	; 5
     1dc:	a0 e6       	ldi	r26, 0x60	; 96
     1de:	b0 e0       	ldi	r27, 0x00	; 0
     1e0:	ee e1       	ldi	r30, 0x1E	; 30
     1e2:	fa e2       	ldi	r31, 0x2A	; 42
     1e4:	02 c0       	rjmp	.+4      	; 0x1ea <__do_copy_data+0x10>
     1e6:	05 90       	lpm	r0, Z+
     1e8:	0d 92       	st	X+, r0
     1ea:	a4 34       	cpi	r26, 0x44	; 68
     1ec:	b1 07       	cpc	r27, r17
     1ee:	d9 f7       	brne	.-10     	; 0x1e6 <__do_copy_data+0xc>

000001f0 <__do_clear_bss>:
     1f0:	25 e0       	ldi	r18, 0x05	; 5
     1f2:	a4 e4       	ldi	r26, 0x44	; 68
     1f4:	b5 e0       	ldi	r27, 0x05	; 5
     1f6:	01 c0       	rjmp	.+2      	; 0x1fa <.do_clear_bss_start>

000001f8 <.do_clear_bss_loop>:
     1f8:	1d 92       	st	X+, r1

000001fa <.do_clear_bss_start>:
     1fa:	a9 3f       	cpi	r26, 0xF9	; 249
     1fc:	b2 07       	cpc	r27, r18
     1fe:	e1 f7       	brne	.-8      	; 0x1f8 <.do_clear_bss_loop>
     200:	0e 94 6b 06 	call	0xcd6	; 0xcd6 <main>
     204:	0c 94 0d 15 	jmp	0x2a1a	; 0x2a1a <_exit>

00000208 <__bad_interrupt>:
     208:	0c 94 00 00 	jmp	0	; 0x0 <__vectors>

0000020c <compute_E>:
// 2.778 is the conversion constant of Joule to Wh
// devices 0-16 only are attached to the tank
//--------------------------------------------------------------------------------------

void compute_E(void)
{
     20c:	cf 92       	push	r12
     20e:	df 92       	push	r13
     210:	ef 92       	push	r14
     212:	ff 92       	push	r15
     214:	0f 93       	push	r16
     216:	1f 93       	push	r17
     218:	cf 93       	push	r28
     21a:	df 93       	push	r29
    unsigned int t;                 // temperature
    unsigned int c;       
    signed long acc=0;
    signed long e;					// e= energy
             	
    cli();
     21c:	f8 94       	cli
	prev_energy = energy;
     21e:	80 91 4c 05 	lds	r24, 0x054C
     222:	90 91 4d 05 	lds	r25, 0x054D
     226:	a0 91 4e 05 	lds	r26, 0x054E
     22a:	b0 91 4f 05 	lds	r27, 0x054F
     22e:	80 93 48 05 	sts	0x0548, r24
     232:	90 93 49 05 	sts	0x0549, r25
     236:	a0 93 4a 05 	sts	0x054A, r26
     23a:	b0 93 4b 05 	sts	0x054B, r27
	
	// top and bottom device 0 and 16 have 25ltr
	
    t= (unsigned int) store[d];             // device0
     23e:	20 91 c6 05 	lds	r18, 0x05C6
     242:	30 e0       	ldi	r19, 0x00	; 0
    t>>=1;
     244:	36 95       	lsr	r19
     246:	27 95       	ror	r18
    if (t==0) goto skip1;			// skip if device is faulty
     248:	21 15       	cp	r18, r1
     24a:	31 05       	cpc	r19, r1
     24c:	09 f4       	brne	.+2      	; 0x250 <compute_E+0x44>
     24e:	3c c0       	rjmp	.+120    	; 0x2c8 <compute_E+0xbc>
    c= pgm_read_word_near(&capacity[t]);
     250:	f9 01       	movw	r30, r18
     252:	ee 0f       	add	r30, r30
     254:	ff 1f       	adc	r31, r31
     256:	ec 59       	subi	r30, 0x9C	; 156
     258:	ff 4f       	sbci	r31, 0xFF	; 255
     25a:	a5 91       	lpm	r26, Z+
     25c:	b4 91       	lpm	r27, Z
    e= (signed long)t * c *25*2.778/10000;   //25ltr
     25e:	0e 94 ec 11 	call	0x23d8	; 0x23d8 <__umulhisi3>
     262:	8b 01       	movw	r16, r22
     264:	9c 01       	movw	r18, r24
     266:	00 0f       	add	r16, r16
     268:	11 1f       	adc	r17, r17
     26a:	22 1f       	adc	r18, r18
     26c:	33 1f       	adc	r19, r19
     26e:	00 0f       	add	r16, r16
     270:	11 1f       	adc	r17, r17
     272:	22 1f       	adc	r18, r18
     274:	33 1f       	adc	r19, r19
     276:	dc 01       	movw	r26, r24
     278:	cb 01       	movw	r24, r22
     27a:	80 0f       	add	r24, r16
     27c:	91 1f       	adc	r25, r17
     27e:	a2 1f       	adc	r26, r18
     280:	b3 1f       	adc	r27, r19
     282:	8c 01       	movw	r16, r24
     284:	9d 01       	movw	r18, r26
     286:	00 0f       	add	r16, r16
     288:	11 1f       	adc	r17, r17
     28a:	22 1f       	adc	r18, r18
     28c:	33 1f       	adc	r19, r19
     28e:	00 0f       	add	r16, r16
     290:	11 1f       	adc	r17, r17
     292:	22 1f       	adc	r18, r18
     294:	33 1f       	adc	r19, r19
     296:	bc 01       	movw	r22, r24
     298:	cd 01       	movw	r24, r26
     29a:	60 0f       	add	r22, r16
     29c:	71 1f       	adc	r23, r17
     29e:	82 1f       	adc	r24, r18
     2a0:	93 1f       	adc	r25, r19
     2a2:	0e 94 c4 10 	call	0x2188	; 0x2188 <__floatsisf>
     2a6:	21 ec       	ldi	r18, 0xC1	; 193
     2a8:	3a ec       	ldi	r19, 0xCA	; 202
     2aa:	41 e3       	ldi	r20, 0x31	; 49
     2ac:	50 e4       	ldi	r21, 0x40	; 64
     2ae:	0e 94 50 11 	call	0x22a0	; 0x22a0 <__mulsf3>
     2b2:	20 e0       	ldi	r18, 0x00	; 0
     2b4:	30 e4       	ldi	r19, 0x40	; 64
     2b6:	4c e1       	ldi	r20, 0x1C	; 28
     2b8:	56 e4       	ldi	r21, 0x46	; 70
     2ba:	0e 94 29 10 	call	0x2052	; 0x2052 <__divsf3>
     2be:	0e 94 91 10 	call	0x2122	; 0x2122 <__fixsfsi>
     2c2:	6b 01       	movw	r12, r22
     2c4:	7c 01       	movw	r14, r24
     2c6:	03 c0       	rjmp	.+6      	; 0x2ce <compute_E+0xc2>
void compute_E(void)
{
    unsigned int d=0;
    unsigned int t;                 // temperature
    unsigned int c;       
    signed long acc=0;
     2c8:	c1 2c       	mov	r12, r1
     2ca:	d1 2c       	mov	r13, r1
     2cc:	76 01       	movw	r14, r12
	
	
	// check sensor 16
skip1:	
	d=16;                    
    t= (unsigned int) store[d];           
     2ce:	20 91 d6 05 	lds	r18, 0x05D6
     2d2:	30 e0       	ldi	r19, 0x00	; 0
    t>>=1;    
     2d4:	36 95       	lsr	r19
     2d6:	27 95       	ror	r18
    if (t==0) goto skip2;
     2d8:	21 15       	cp	r18, r1
     2da:	31 05       	cpc	r19, r1
     2dc:	09 f4       	brne	.+2      	; 0x2e0 <compute_E+0xd4>
     2de:	9a c0       	rjmp	.+308    	; 0x414 <compute_E+0x208>
    c= pgm_read_word_near(&capacity[t]);
     2e0:	f9 01       	movw	r30, r18
     2e2:	ee 0f       	add	r30, r30
     2e4:	ff 1f       	adc	r31, r31
     2e6:	ec 59       	subi	r30, 0x9C	; 156
     2e8:	ff 4f       	sbci	r31, 0xFF	; 255
     2ea:	a5 91       	lpm	r26, Z+
     2ec:	b4 91       	lpm	r27, Z
    e= (signed long)t * c * 25* 2.778/10000;   //25ltr
     2ee:	0e 94 ec 11 	call	0x23d8	; 0x23d8 <__umulhisi3>
     2f2:	8b 01       	movw	r16, r22
     2f4:	9c 01       	movw	r18, r24
     2f6:	00 0f       	add	r16, r16
     2f8:	11 1f       	adc	r17, r17
     2fa:	22 1f       	adc	r18, r18
     2fc:	33 1f       	adc	r19, r19
     2fe:	00 0f       	add	r16, r16
     300:	11 1f       	adc	r17, r17
     302:	22 1f       	adc	r18, r18
     304:	33 1f       	adc	r19, r19
     306:	dc 01       	movw	r26, r24
     308:	cb 01       	movw	r24, r22
     30a:	80 0f       	add	r24, r16
     30c:	91 1f       	adc	r25, r17
     30e:	a2 1f       	adc	r26, r18
     310:	b3 1f       	adc	r27, r19
     312:	8c 01       	movw	r16, r24
     314:	9d 01       	movw	r18, r26
     316:	00 0f       	add	r16, r16
     318:	11 1f       	adc	r17, r17
     31a:	22 1f       	adc	r18, r18
     31c:	33 1f       	adc	r19, r19
     31e:	00 0f       	add	r16, r16
     320:	11 1f       	adc	r17, r17
     322:	22 1f       	adc	r18, r18
     324:	33 1f       	adc	r19, r19
     326:	bc 01       	movw	r22, r24
     328:	cd 01       	movw	r24, r26
     32a:	60 0f       	add	r22, r16
     32c:	71 1f       	adc	r23, r17
     32e:	82 1f       	adc	r24, r18
     330:	93 1f       	adc	r25, r19
     332:	0e 94 c4 10 	call	0x2188	; 0x2188 <__floatsisf>
     336:	21 ec       	ldi	r18, 0xC1	; 193
     338:	3a ec       	ldi	r19, 0xCA	; 202
     33a:	41 e3       	ldi	r20, 0x31	; 49
     33c:	50 e4       	ldi	r21, 0x40	; 64
     33e:	0e 94 50 11 	call	0x22a0	; 0x22a0 <__mulsf3>
     342:	20 e0       	ldi	r18, 0x00	; 0
     344:	30 e4       	ldi	r19, 0x40	; 64
     346:	4c e1       	ldi	r20, 0x1C	; 28
     348:	56 e4       	ldi	r21, 0x46	; 70
     34a:	0e 94 29 10 	call	0x2052	; 0x2052 <__divsf3>
     34e:	0e 94 91 10 	call	0x2122	; 0x2122 <__fixsfsi>
    acc += e;            // accumulate
     352:	c6 0e       	add	r12, r22
     354:	d7 1e       	adc	r13, r23
     356:	e8 1e       	adc	r14, r24
     358:	f9 1e       	adc	r15, r25
     35a:	5c c0       	rjmp	.+184    	; 0x414 <compute_E+0x208>
	// devices 1 and 15 are attached to 50 l tank section
//***********************************************************	  
skip2:   
    for (d=1;d<16;d++)      // devices 1-15
    {
        t=(unsigned int) store[d];
     35c:	29 91       	ld	r18, Y+
     35e:	30 e0       	ldi	r19, 0x00	; 0
        t>>=1;        
     360:	36 95       	lsr	r19
     362:	27 95       	ror	r18
        if(t==0) continue;
     364:	21 15       	cp	r18, r1
     366:	31 05       	cpc	r19, r1
     368:	19 f1       	breq	.+70     	; 0x3b0 <compute_E+0x1a4>
        c= pgm_read_word_near(&capacity[t]);
     36a:	f9 01       	movw	r30, r18
     36c:	ee 0f       	add	r30, r30
     36e:	ff 1f       	adc	r31, r31
     370:	ec 59       	subi	r30, 0x9C	; 156
     372:	ff 4f       	sbci	r31, 0xFF	; 255
     374:	a5 91       	lpm	r26, Z+
     376:	b4 91       	lpm	r27, Z
        e= (signed long)t * c * 50 *2.778/10000;  
     378:	0e 94 ec 11 	call	0x23d8	; 0x23d8 <__umulhisi3>
     37c:	9b 01       	movw	r18, r22
     37e:	ac 01       	movw	r20, r24
     380:	a2 e3       	ldi	r26, 0x32	; 50
     382:	b0 e0       	ldi	r27, 0x00	; 0
     384:	0e 94 fb 11 	call	0x23f6	; 0x23f6 <__muluhisi3>
     388:	0e 94 c4 10 	call	0x2188	; 0x2188 <__floatsisf>
     38c:	21 ec       	ldi	r18, 0xC1	; 193
     38e:	3a ec       	ldi	r19, 0xCA	; 202
     390:	41 e3       	ldi	r20, 0x31	; 49
     392:	50 e4       	ldi	r21, 0x40	; 64
     394:	0e 94 50 11 	call	0x22a0	; 0x22a0 <__mulsf3>
     398:	20 e0       	ldi	r18, 0x00	; 0
     39a:	30 e4       	ldi	r19, 0x40	; 64
     39c:	4c e1       	ldi	r20, 0x1C	; 28
     39e:	56 e4       	ldi	r21, 0x46	; 70
     3a0:	0e 94 29 10 	call	0x2052	; 0x2052 <__divsf3>
     3a4:	0e 94 91 10 	call	0x2122	; 0x2122 <__fixsfsi>
        acc += e;        // accumulate
     3a8:	c6 0e       	add	r12, r22
     3aa:	d7 1e       	adc	r13, r23
     3ac:	e8 1e       	adc	r14, r24
     3ae:	f9 1e       	adc	r15, r25
	
//***********************************************************	
	// devices 1 and 15 are attached to 50 l tank section
//***********************************************************	  
skip2:   
    for (d=1;d<16;d++)      // devices 1-15
     3b0:	c0 17       	cp	r28, r16
     3b2:	d1 07       	cpc	r29, r17
     3b4:	99 f6       	brne	.-90     	; 0x35c <compute_E+0x150>
    }
//**************************************************************
// below 15C, energy is not taken into account therefore deducted
// due to the fact that the energy of cold water is not usable 
//**************************************************************
    if (acc < offset) acc = 0;
     3b6:	82 e8       	ldi	r24, 0x82	; 130
     3b8:	c8 16       	cp	r12, r24
     3ba:	86 e3       	ldi	r24, 0x36	; 54
     3bc:	d8 06       	cpc	r13, r24
     3be:	e1 04       	cpc	r14, r1
     3c0:	f1 04       	cpc	r15, r1
     3c2:	3c f0       	brlt	.+14     	; 0x3d2 <compute_E+0x1c6>
    else acc -= offset;			//
     3c4:	82 e8       	ldi	r24, 0x82	; 130
     3c6:	c8 1a       	sub	r12, r24
     3c8:	86 e3       	ldi	r24, 0x36	; 54
     3ca:	d8 0a       	sbc	r13, r24
     3cc:	e1 08       	sbc	r14, r1
     3ce:	f1 08       	sbc	r15, r1
     3d0:	03 c0       	rjmp	.+6      	; 0x3d8 <compute_E+0x1cc>
    }
//**************************************************************
// below 15C, energy is not taken into account therefore deducted
// due to the fact that the energy of cold water is not usable 
//**************************************************************
    if (acc < offset) acc = 0;
     3d2:	c1 2c       	mov	r12, r1
     3d4:	d1 2c       	mov	r13, r1
     3d6:	76 01       	movw	r14, r12
    else acc -= offset;			//
    energy = acc;
     3d8:	c0 92 4c 05 	sts	0x054C, r12
     3dc:	d0 92 4d 05 	sts	0x054D, r13
     3e0:	e0 92 4e 05 	sts	0x054E, r14
     3e4:	f0 92 4f 05 	sts	0x054F, r15
    if (entries==0)prev_energy=energy;  
     3e8:	80 91 61 00 	lds	r24, 0x0061
     3ec:	90 91 62 00 	lds	r25, 0x0062
     3f0:	a0 91 63 00 	lds	r26, 0x0063
     3f4:	b0 91 64 00 	lds	r27, 0x0064
     3f8:	89 2b       	or	r24, r25
     3fa:	8a 2b       	or	r24, r26
     3fc:	8b 2b       	or	r24, r27
     3fe:	41 f4       	brne	.+16     	; 0x410 <compute_E+0x204>
     400:	c0 92 48 05 	sts	0x0548, r12
     404:	d0 92 49 05 	sts	0x0549, r13
     408:	e0 92 4a 05 	sts	0x054A, r14
     40c:	f0 92 4b 05 	sts	0x054B, r15
	sei();
     410:	78 94       	sei
     412:	05 c0       	rjmp	.+10     	; 0x41e <compute_E+0x212>
     414:	c7 ec       	ldi	r28, 0xC7	; 199
     416:	d5 e0       	ldi	r29, 0x05	; 5
     418:	06 ed       	ldi	r16, 0xD6	; 214
     41a:	15 e0       	ldi	r17, 0x05	; 5
     41c:	9f cf       	rjmp	.-194    	; 0x35c <compute_E+0x150>
}
     41e:	df 91       	pop	r29
     420:	cf 91       	pop	r28
     422:	1f 91       	pop	r17
     424:	0f 91       	pop	r16
     426:	ff 90       	pop	r15
     428:	ef 90       	pop	r14
     42a:	df 90       	pop	r13
     42c:	cf 90       	pop	r12
     42e:	08 95       	ret

00000430 <compute_Trend>:
// positive and negative values are separated and averaged
// FIFO is maintained by compute_power  
//*********************************************************************** 

void compute_Trend (void)
{
     430:	bf 92       	push	r11
     432:	cf 92       	push	r12
     434:	df 92       	push	r13
     436:	ef 92       	push	r14
     438:	ff 92       	push	r15
     43a:	0f 93       	push	r16
     43c:	1f 93       	push	r17
     43e:	cf 93       	push	r28
     440:	df 93       	push	r29
    unsigned int r;         //index
	char count;
    char cp=0;      //pos counter
    char cn=0;      //neg counter
    
    trend_p=0;      //pos numbers
     442:	10 92 8e 05 	sts	0x058E, r1
     446:	10 92 8f 05 	sts	0x058F, r1
     44a:	10 92 90 05 	sts	0x0590, r1
     44e:	10 92 91 05 	sts	0x0591, r1
    trend_n=0;      //neg numbers
     452:	10 92 5a 05 	sts	0x055A, r1
     456:	10 92 5b 05 	sts	0x055B, r1
     45a:	10 92 5c 05 	sts	0x055C, r1
     45e:	10 92 5d 05 	sts	0x055D, r1
    cli();
     462:	f8 94       	cli
    for (r=11,count= sample_rate;count>0;count--,r--)       //take samples of the last hour
     464:	d0 91 65 00 	lds	r29, 0x0065
     468:	dd 23       	and	r29, r29
     46a:	09 f4       	brne	.+2      	; 0x46e <compute_Trend+0x3e>
     46c:	6a c0       	rjmp	.+212    	; 0x542 <compute_Trend+0x112>
     46e:	80 91 8e 05 	lds	r24, 0x058E
     472:	90 91 8f 05 	lds	r25, 0x058F
     476:	a0 91 90 05 	lds	r26, 0x0590
     47a:	b0 91 91 05 	lds	r27, 0x0591
     47e:	00 91 5a 05 	lds	r16, 0x055A
     482:	10 91 5b 05 	lds	r17, 0x055B
     486:	20 91 5c 05 	lds	r18, 0x055C
     48a:	30 91 5d 05 	lds	r19, 0x055D
     48e:	ee e8       	ldi	r30, 0x8E	; 142
     490:	f5 e0       	ldi	r31, 0x05	; 5
{
    signed int t;
    unsigned int r;         //index
	char count;
    char cp=0;      //pos counter
    char cn=0;      //neg counter
     492:	c0 e0       	ldi	r28, 0x00	; 0
void compute_Trend (void)
{
    signed int t;
    unsigned int r;         //index
	char count;
    char cp=0;      //pos counter
     494:	b1 2c       	mov	r11, r1
     496:	34 97       	sbiw	r30, 0x04	; 4
    trend_p=0;      //pos numbers
    trend_n=0;      //neg numbers
    cli();
    for (r=11,count= sample_rate;count>0;count--,r--)       //take samples of the last hour
        {
            t = FIFO[r];
     498:	40 81       	ld	r20, Z
     49a:	51 81       	ldd	r21, Z+1	; 0x01
            if (t>0)        //test for positive numbers
     49c:	14 16       	cp	r1, r20
     49e:	15 06       	cpc	r1, r21
     4a0:	54 f4       	brge	.+20     	; 0x4b6 <compute_Trend+0x86>
            {
                trend_p+=t;
     4a2:	66 27       	eor	r22, r22
     4a4:	57 fd       	sbrc	r21, 7
     4a6:	60 95       	com	r22
     4a8:	76 2f       	mov	r23, r22
                cp++;
     4aa:	b3 94       	inc	r11
    for (r=11,count= sample_rate;count>0;count--,r--)       //take samples of the last hour
        {
            t = FIFO[r];
            if (t>0)        //test for positive numbers
            {
                trend_p+=t;
     4ac:	84 0f       	add	r24, r20
     4ae:	95 1f       	adc	r25, r21
     4b0:	a6 1f       	adc	r26, r22
     4b2:	b7 1f       	adc	r27, r23
     4b4:	0a c0       	rjmp	.+20     	; 0x4ca <compute_Trend+0x9a>
                cp++;
            }
            else 
            {
                trend_n+=t;          //neg numbers
     4b6:	6a 01       	movw	r12, r20
     4b8:	ee 24       	eor	r14, r14
     4ba:	d7 fc       	sbrc	r13, 7
     4bc:	e0 94       	com	r14
     4be:	fe 2c       	mov	r15, r14
                cn++;
     4c0:	cf 5f       	subi	r28, 0xFF	; 255
                trend_p+=t;
                cp++;
            }
            else 
            {
                trend_n+=t;          //neg numbers
     4c2:	0c 0d       	add	r16, r12
     4c4:	1d 1d       	adc	r17, r13
     4c6:	2e 1d       	adc	r18, r14
     4c8:	3f 1d       	adc	r19, r15
    char cn=0;      //neg counter
    
    trend_p=0;      //pos numbers
    trend_n=0;      //neg numbers
    cli();
    for (r=11,count= sample_rate;count>0;count--,r--)       //take samples of the last hour
     4ca:	d1 50       	subi	r29, 0x01	; 1
     4cc:	21 f7       	brne	.-56     	; 0x496 <compute_Trend+0x66>
     4ce:	80 93 8e 05 	sts	0x058E, r24
     4d2:	90 93 8f 05 	sts	0x058F, r25
     4d6:	a0 93 90 05 	sts	0x0590, r26
     4da:	b0 93 91 05 	sts	0x0591, r27
     4de:	00 93 5a 05 	sts	0x055A, r16
     4e2:	10 93 5b 05 	sts	0x055B, r17
     4e6:	20 93 5c 05 	sts	0x055C, r18
     4ea:	30 93 5d 05 	sts	0x055D, r19
            {
                trend_n+=t;          //neg numbers
                cn++;
            }
        }
	if (cp!=0)trend_p/=cp;                   //average
     4ee:	bb 20       	and	r11, r11
     4f0:	81 f0       	breq	.+32     	; 0x512 <compute_Trend+0xe2>
     4f2:	2b 2d       	mov	r18, r11
     4f4:	30 e0       	ldi	r19, 0x00	; 0
     4f6:	40 e0       	ldi	r20, 0x00	; 0
     4f8:	50 e0       	ldi	r21, 0x00	; 0
     4fa:	bc 01       	movw	r22, r24
     4fc:	cd 01       	movw	r24, r26
     4fe:	0e 94 c7 11 	call	0x238e	; 0x238e <__divmodsi4>
     502:	20 93 8e 05 	sts	0x058E, r18
     506:	30 93 8f 05 	sts	0x058F, r19
     50a:	40 93 90 05 	sts	0x0590, r20
     50e:	50 93 91 05 	sts	0x0591, r21
    if (cn!=0)trend_n/=cn;
     512:	cc 23       	and	r28, r28
     514:	b1 f0       	breq	.+44     	; 0x542 <compute_Trend+0x112>
     516:	2c 2f       	mov	r18, r28
     518:	30 e0       	ldi	r19, 0x00	; 0
     51a:	40 e0       	ldi	r20, 0x00	; 0
     51c:	50 e0       	ldi	r21, 0x00	; 0
     51e:	60 91 5a 05 	lds	r22, 0x055A
     522:	70 91 5b 05 	lds	r23, 0x055B
     526:	80 91 5c 05 	lds	r24, 0x055C
     52a:	90 91 5d 05 	lds	r25, 0x055D
     52e:	0e 94 c7 11 	call	0x238e	; 0x238e <__divmodsi4>
     532:	20 93 5a 05 	sts	0x055A, r18
     536:	30 93 5b 05 	sts	0x055B, r19
     53a:	40 93 5c 05 	sts	0x055C, r20
     53e:	50 93 5d 05 	sts	0x055D, r21
     
	sei();
     542:	78 94       	sei
	//waitsec=2;
	//while (waitsec!=0);
}
     544:	df 91       	pop	r29
     546:	cf 91       	pop	r28
     548:	1f 91       	pop	r17
     54a:	0f 91       	pop	r16
     54c:	ff 90       	pop	r15
     54e:	ef 90       	pop	r14
     550:	df 90       	pop	r13
     552:	cf 90       	pop	r12
     554:	bf 90       	pop	r11
     556:	08 95       	ret

00000558 <displ_Trend>:
// called by main
//***************************************************************************

void displ_Trend(void)
{  
    sprintf(display1,"\1  IN   %5ld W  ",trend_p);
     558:	80 91 91 05 	lds	r24, 0x0591
     55c:	8f 93       	push	r24
     55e:	80 91 90 05 	lds	r24, 0x0590
     562:	8f 93       	push	r24
     564:	80 91 8f 05 	lds	r24, 0x058F
     568:	8f 93       	push	r24
     56a:	80 91 8e 05 	lds	r24, 0x058E
     56e:	8f 93       	push	r24
     570:	8c e7       	ldi	r24, 0x7C	; 124
     572:	90 e0       	ldi	r25, 0x00	; 0
     574:	9f 93       	push	r25
     576:	8f 93       	push	r24
     578:	8b ea       	ldi	r24, 0xAB	; 171
     57a:	95 e0       	ldi	r25, 0x05	; 5
     57c:	9f 93       	push	r25
     57e:	8f 93       	push	r24
     580:	0e 94 3c 12 	call	0x2478	; 0x2478 <sprintf>
    sprintf(display2,"\2  OUT  %5ld W  ",trend_n);
     584:	80 91 5d 05 	lds	r24, 0x055D
     588:	8f 93       	push	r24
     58a:	80 91 5c 05 	lds	r24, 0x055C
     58e:	8f 93       	push	r24
     590:	80 91 5b 05 	lds	r24, 0x055B
     594:	8f 93       	push	r24
     596:	80 91 5a 05 	lds	r24, 0x055A
     59a:	8f 93       	push	r24
     59c:	8d e8       	ldi	r24, 0x8D	; 141
     59e:	90 e0       	ldi	r25, 0x00	; 0
     5a0:	9f 93       	push	r25
     5a2:	8f 93       	push	r24
     5a4:	82 e9       	ldi	r24, 0x92	; 146
     5a6:	95 e0       	ldi	r25, 0x05	; 5
     5a8:	9f 93       	push	r25
     5aa:	8f 93       	push	r24
     5ac:	0e 94 3c 12 	call	0x2478	; 0x2478 <sprintf>
	while(LCD());
     5b0:	8d b7       	in	r24, 0x3d	; 61
     5b2:	9e b7       	in	r25, 0x3e	; 62
     5b4:	40 96       	adiw	r24, 0x10	; 16
     5b6:	0f b6       	in	r0, 0x3f	; 63
     5b8:	f8 94       	cli
     5ba:	9e bf       	out	0x3e, r25	; 62
     5bc:	0f be       	out	0x3f, r0	; 63
     5be:	8d bf       	out	0x3d, r24	; 61
     5c0:	0e 94 ff 03 	call	0x7fe	; 0x7fe <LCD>
     5c4:	81 11       	cpse	r24, r1
     5c6:	fc cf       	rjmp	.-8      	; 0x5c0 <displ_Trend+0x68>
	update = false;
     5c8:	10 92 56 05 	sts	0x0556, r1
	displmod++;
     5cc:	80 91 c4 05 	lds	r24, 0x05C4
     5d0:	90 91 c5 05 	lds	r25, 0x05C5
     5d4:	01 96       	adiw	r24, 0x01	; 1
     5d6:	90 93 c5 05 	sts	0x05C5, r25
     5da:	80 93 c4 05 	sts	0x05C4, r24
     5de:	08 95       	ret

000005e0 <shift_FIFO>:
// the FIFO stores the last 12 power values
// the FIFO is shifted down before a new entry on top is made
//*****************************************************************************

void shift_FIFO (void)
{
     5e0:	ee e5       	ldi	r30, 0x5E	; 94
     5e2:	f5 e0       	ldi	r31, 0x05	; 5
     5e4:	2a e8       	ldi	r18, 0x8A	; 138
     5e6:	35 e0       	ldi	r19, 0x05	; 5
    unsigned int bottom,top;        //pointer
    
    for (bottom=0,top=1;top<12;top++,bottom++)
    {
        FIFO[bottom]= FIFO[top];
     5e8:	84 81       	ldd	r24, Z+4	; 0x04
     5ea:	95 81       	ldd	r25, Z+5	; 0x05
     5ec:	a6 81       	ldd	r26, Z+6	; 0x06
     5ee:	b7 81       	ldd	r27, Z+7	; 0x07
     5f0:	81 93       	st	Z+, r24
     5f2:	91 93       	st	Z+, r25
     5f4:	a1 93       	st	Z+, r26
     5f6:	b1 93       	st	Z+, r27

void shift_FIFO (void)
{
    unsigned int bottom,top;        //pointer
    
    for (bottom=0,top=1;top<12;top++,bottom++)
     5f8:	e2 17       	cp	r30, r18
     5fa:	f3 07       	cpc	r31, r19
     5fc:	a9 f7       	brne	.-22     	; 0x5e8 <shift_FIFO+0x8>
    {
        FIFO[bottom]= FIFO[top];
    }
}
     5fe:	08 95       	ret

00000600 <compute_P>:
// display routine changes format to KW
//**************************************************************************
     
void compute_P(void)
{
    cli();
     600:	f8 94       	cli
    power = (energy - prev_energy)* sample_rate; //W
     602:	40 91 4c 05 	lds	r20, 0x054C
     606:	50 91 4d 05 	lds	r21, 0x054D
     60a:	60 91 4e 05 	lds	r22, 0x054E
     60e:	70 91 4f 05 	lds	r23, 0x054F
     612:	80 91 48 05 	lds	r24, 0x0548
     616:	90 91 49 05 	lds	r25, 0x0549
     61a:	a0 91 4a 05 	lds	r26, 0x054A
     61e:	b0 91 4b 05 	lds	r27, 0x054B
     622:	9a 01       	movw	r18, r20
     624:	ab 01       	movw	r20, r22
     626:	28 1b       	sub	r18, r24
     628:	39 0b       	sbc	r19, r25
     62a:	4a 0b       	sbc	r20, r26
     62c:	5b 0b       	sbc	r21, r27
     62e:	a0 91 65 00 	lds	r26, 0x0065
     632:	b0 e0       	ldi	r27, 0x00	; 0
     634:	0e 94 fb 11 	call	0x23f6	; 0x23f6 <__muluhisi3>
     638:	60 93 44 05 	sts	0x0544, r22
     63c:	70 93 45 05 	sts	0x0545, r23
     640:	80 93 46 05 	sts	0x0546, r24
     644:	90 93 47 05 	sts	0x0547, r25
	shift_FIFO();
     648:	0e 94 f0 02 	call	0x5e0	; 0x5e0 <shift_FIFO>
    FIFO[11]= power;                // store in FIFO top   
     64c:	80 91 44 05 	lds	r24, 0x0544
     650:	90 91 45 05 	lds	r25, 0x0545
     654:	a0 91 46 05 	lds	r26, 0x0546
     658:	b0 91 47 05 	lds	r27, 0x0547
     65c:	80 93 8a 05 	sts	0x058A, r24
     660:	90 93 8b 05 	sts	0x058B, r25
     664:	a0 93 8c 05 	sts	0x058C, r26
     668:	b0 93 8d 05 	sts	0x058D, r27
	sei(); 
     66c:	78 94       	sei
     66e:	08 95       	ret

00000670 <convert1>:
 // convert long values (Watt) into ascii with dP and 3 decimals (KW)
 //*************************************************************
 void convert1(void)
 {
	 
	 display1[5]= (char)(energy/10000 + 48);
     670:	60 91 4c 05 	lds	r22, 0x054C
     674:	70 91 4d 05 	lds	r23, 0x054D
     678:	80 91 4e 05 	lds	r24, 0x054E
     67c:	90 91 4f 05 	lds	r25, 0x054F
     680:	20 e1       	ldi	r18, 0x10	; 16
     682:	37 e2       	ldi	r19, 0x27	; 39
     684:	40 e0       	ldi	r20, 0x00	; 0
     686:	50 e0       	ldi	r21, 0x00	; 0
     688:	0e 94 c7 11 	call	0x238e	; 0x238e <__divmodsi4>
     68c:	20 5d       	subi	r18, 0xD0	; 208
     68e:	20 93 b0 05 	sts	0x05B0, r18
	 display1[6]= (char)(energy%10000/1000 +48);
     692:	28 ee       	ldi	r18, 0xE8	; 232
     694:	33 e0       	ldi	r19, 0x03	; 3
     696:	40 e0       	ldi	r20, 0x00	; 0
     698:	50 e0       	ldi	r21, 0x00	; 0
     69a:	0e 94 c7 11 	call	0x238e	; 0x238e <__divmodsi4>
     69e:	20 5d       	subi	r18, 0xD0	; 208
     6a0:	20 93 b1 05 	sts	0x05B1, r18
	 display1[7]= '.';
     6a4:	2e e2       	ldi	r18, 0x2E	; 46
     6a6:	20 93 b2 05 	sts	0x05B2, r18
	 display1[8]= (char)(energy%10000%1000/100 +48);
     6aa:	24 e6       	ldi	r18, 0x64	; 100
     6ac:	30 e0       	ldi	r19, 0x00	; 0
     6ae:	40 e0       	ldi	r20, 0x00	; 0
     6b0:	50 e0       	ldi	r21, 0x00	; 0
     6b2:	0e 94 c7 11 	call	0x238e	; 0x238e <__divmodsi4>
     6b6:	20 5d       	subi	r18, 0xD0	; 208
     6b8:	20 93 b3 05 	sts	0x05B3, r18
	 display1[9]= (char)(energy%10000%1000%100/10 +48);
     6bc:	2a e0       	ldi	r18, 0x0A	; 10
     6be:	30 e0       	ldi	r19, 0x00	; 0
     6c0:	40 e0       	ldi	r20, 0x00	; 0
     6c2:	50 e0       	ldi	r21, 0x00	; 0
     6c4:	0e 94 c7 11 	call	0x238e	; 0x238e <__divmodsi4>
     6c8:	20 5d       	subi	r18, 0xD0	; 208
     6ca:	20 93 b4 05 	sts	0x05B4, r18
	 display1[10]= (char)(energy%10000%1000%100%10 +48);
     6ce:	60 5d       	subi	r22, 0xD0	; 208
     6d0:	60 93 b5 05 	sts	0x05B5, r22
	 display1[11]= ' ';
     6d4:	80 e2       	ldi	r24, 0x20	; 32
     6d6:	80 93 b6 05 	sts	0x05B6, r24
	 display1[12]= 'K';
     6da:	8b e4       	ldi	r24, 0x4B	; 75
     6dc:	80 93 b7 05 	sts	0x05B7, r24
	 display1[13]= 'W';
     6e0:	87 e5       	ldi	r24, 0x57	; 87
     6e2:	80 93 b8 05 	sts	0x05B8, r24
	 display1[14]= 'h';
     6e6:	88 e6       	ldi	r24, 0x68	; 104
     6e8:	80 93 b9 05 	sts	0x05B9, r24
     6ec:	08 95       	ret

000006ee <convert2>:
 }
 
 void convert2(void)
 {
	 display2[5]= '+';
     6ee:	8b e2       	ldi	r24, 0x2B	; 43
     6f0:	80 93 97 05 	sts	0x0597, r24
	 if (power<0) 
     6f4:	80 91 44 05 	lds	r24, 0x0544
     6f8:	90 91 45 05 	lds	r25, 0x0545
     6fc:	a0 91 46 05 	lds	r26, 0x0546
     700:	b0 91 47 05 	lds	r27, 0x0547
     704:	bb 23       	and	r27, r27
     706:	94 f4       	brge	.+36     	; 0x72c <convert2+0x3e>
	 {
		 display2[5]= '-';
     708:	2d e2       	ldi	r18, 0x2D	; 45
     70a:	20 93 97 05 	sts	0x0597, r18
		 power*= -1;
     70e:	b0 95       	com	r27
     710:	a0 95       	com	r26
     712:	90 95       	com	r25
     714:	81 95       	neg	r24
     716:	9f 4f       	sbci	r25, 0xFF	; 255
     718:	af 4f       	sbci	r26, 0xFF	; 255
     71a:	bf 4f       	sbci	r27, 0xFF	; 255
     71c:	80 93 44 05 	sts	0x0544, r24
     720:	90 93 45 05 	sts	0x0545, r25
     724:	a0 93 46 05 	sts	0x0546, r26
     728:	b0 93 47 05 	sts	0x0547, r27
	 }
	 display2[7]= (char)(power/10000 + 48);
     72c:	60 91 44 05 	lds	r22, 0x0544
     730:	70 91 45 05 	lds	r23, 0x0545
     734:	80 91 46 05 	lds	r24, 0x0546
     738:	90 91 47 05 	lds	r25, 0x0547
     73c:	20 e1       	ldi	r18, 0x10	; 16
     73e:	37 e2       	ldi	r19, 0x27	; 39
     740:	40 e0       	ldi	r20, 0x00	; 0
     742:	50 e0       	ldi	r21, 0x00	; 0
     744:	0e 94 c7 11 	call	0x238e	; 0x238e <__divmodsi4>
     748:	20 5d       	subi	r18, 0xD0	; 208
     74a:	20 93 99 05 	sts	0x0599, r18
	 display2[8]= (char)(power%10000/1000 +48);
     74e:	28 ee       	ldi	r18, 0xE8	; 232
     750:	33 e0       	ldi	r19, 0x03	; 3
     752:	40 e0       	ldi	r20, 0x00	; 0
     754:	50 e0       	ldi	r21, 0x00	; 0
     756:	0e 94 c7 11 	call	0x238e	; 0x238e <__divmodsi4>
     75a:	20 5d       	subi	r18, 0xD0	; 208
     75c:	20 93 9a 05 	sts	0x059A, r18
	 display2[9]= '.';
     760:	2e e2       	ldi	r18, 0x2E	; 46
     762:	20 93 9b 05 	sts	0x059B, r18
	 display2[10]= (char)(power%10000%1000/100 +48);
     766:	24 e6       	ldi	r18, 0x64	; 100
     768:	30 e0       	ldi	r19, 0x00	; 0
     76a:	40 e0       	ldi	r20, 0x00	; 0
     76c:	50 e0       	ldi	r21, 0x00	; 0
     76e:	0e 94 c7 11 	call	0x238e	; 0x238e <__divmodsi4>
     772:	20 5d       	subi	r18, 0xD0	; 208
     774:	20 93 9c 05 	sts	0x059C, r18
	 display2[11]= (char)(power%10000%1000%100/10 +48);
     778:	2a e0       	ldi	r18, 0x0A	; 10
     77a:	30 e0       	ldi	r19, 0x00	; 0
     77c:	40 e0       	ldi	r20, 0x00	; 0
     77e:	50 e0       	ldi	r21, 0x00	; 0
     780:	0e 94 c7 11 	call	0x238e	; 0x238e <__divmodsi4>
     784:	20 5d       	subi	r18, 0xD0	; 208
     786:	20 93 9d 05 	sts	0x059D, r18
	 display2[12]= (char)(power%10000%1000%100%10 +48);
     78a:	60 5d       	subi	r22, 0xD0	; 208
     78c:	60 93 9e 05 	sts	0x059E, r22
	 display2[13]= ' ';
     790:	80 e2       	ldi	r24, 0x20	; 32
     792:	80 93 9f 05 	sts	0x059F, r24
	 display2[14]= 'K';
     796:	8b e4       	ldi	r24, 0x4B	; 75
     798:	80 93 a0 05 	sts	0x05A0, r24
	 display2[15]= 'W';
     79c:	87 e5       	ldi	r24, 0x57	; 87
     79e:	80 93 a1 05 	sts	0x05A1, r24
     7a2:	08 95       	ret

000007a4 <displ_energy>:
//*****************************************************************

void displ_energy(void)//LCD Port
{
	
    sprintf(display1, "\1 E                 ");
     7a4:	85 e1       	ldi	r24, 0x15	; 21
     7a6:	e5 ec       	ldi	r30, 0xC5	; 197
     7a8:	f0 e0       	ldi	r31, 0x00	; 0
     7aa:	ab ea       	ldi	r26, 0xAB	; 171
     7ac:	b5 e0       	ldi	r27, 0x05	; 5
     7ae:	01 90       	ld	r0, Z+
     7b0:	0d 92       	st	X+, r0
     7b2:	8a 95       	dec	r24
     7b4:	e1 f7       	brne	.-8      	; 0x7ae <displ_energy+0xa>
    sprintf(display2, "\2 P                 ");
     7b6:	85 e1       	ldi	r24, 0x15	; 21
     7b8:	ea ed       	ldi	r30, 0xDA	; 218
     7ba:	f0 e0       	ldi	r31, 0x00	; 0
     7bc:	a2 e9       	ldi	r26, 0x92	; 146
     7be:	b5 e0       	ldi	r27, 0x05	; 5
     7c0:	01 90       	ld	r0, Z+
     7c2:	0d 92       	st	X+, r0
     7c4:	8a 95       	dec	r24
     7c6:	e1 f7       	brne	.-8      	; 0x7c0 <displ_energy+0x1c>
	convert1();
     7c8:	0e 94 38 03 	call	0x670	; 0x670 <convert1>
	convert2();
     7cc:	0e 94 77 03 	call	0x6ee	; 0x6ee <convert2>
	while (LCD());
     7d0:	0e 94 ff 03 	call	0x7fe	; 0x7fe <LCD>
     7d4:	81 11       	cpse	r24, r1
     7d6:	fc cf       	rjmp	.-8      	; 0x7d0 <displ_energy+0x2c>
	update = false;
     7d8:	10 92 56 05 	sts	0x0556, r1
	displmod++;
     7dc:	80 91 c4 05 	lds	r24, 0x05C4
     7e0:	90 91 c5 05 	lds	r25, 0x05C5
     7e4:	01 96       	adiw	r24, 0x01	; 1
     7e6:	90 93 c5 05 	sts	0x05C5, r25
     7ea:	80 93 c4 05 	sts	0x05C4, r24
	waitsec=4;
     7ee:	84 e0       	ldi	r24, 0x04	; 4
     7f0:	80 93 50 05 	sts	0x0550, r24
	while (waitsec!=0);
     7f4:	80 91 50 05 	lds	r24, 0x0550
     7f8:	81 11       	cpse	r24, r1
     7fa:	fc cf       	rjmp	.-8      	; 0x7f4 <displ_energy+0x50>
}
     7fc:	08 95       	ret

000007fe <LCD>:
				
	unsigned int i;		// buffer index
	bool err = false;
	

	TWCR = (1<<TWINT)|(1<<TWSTA)|(1<<TWEN);		// start transmission
     7fe:	84 ea       	ldi	r24, 0xA4	; 164
     800:	86 bf       	out	0x36, r24	; 54
	
	while (!(TWCR & (1<<TWINT)));
     802:	06 b6       	in	r0, 0x36	; 54
     804:	07 fe       	sbrs	r0, 7
     806:	fd cf       	rjmp	.-6      	; 0x802 <LCD+0x4>
	
	if ((TWSR & 0xF8) == 0x10)	
     808:	81 b1       	in	r24, 0x01	; 1
     80a:	88 7f       	andi	r24, 0xF8	; 248
     80c:	80 31       	cpi	r24, 0x10	; 16
     80e:	11 f4       	brne	.+4      	; 0x814 <LCD+0x16>
	{
		PORTB= 1;		//repeated start LED0	
     810:	81 e0       	ldi	r24, 0x01	; 1
     812:	88 bb       	out	0x18, r24	; 24
	}
	
	
	if ((TWSR & 0xF8) == 0x08 || 0x10)			// status = START 
     814:	81 b1       	in	r24, 0x01	; 1
		{
			TWDR = SLA_W;						// send slave adr
     816:	82 e0       	ldi	r24, 0x02	; 2
     818:	83 b9       	out	0x03, r24	; 3
			TWCR = (1<<TWINT) | (1<<TWEN);		// start transmission
     81a:	84 e8       	ldi	r24, 0x84	; 132
     81c:	86 bf       	out	0x36, r24	; 54
		}
	
	while (!(TWCR & (1<<TWINT)));	// wait for TWINT flag
     81e:	06 b6       	in	r0, 0x36	; 54
     820:	07 fe       	sbrs	r0, 7
     822:	fd cf       	rjmp	.-6      	; 0x81e <LCD+0x20>
	
	
	//*******************************************************************************
		
	if ((TWSR & 0xF8) == 0x20)
     824:	81 b1       	in	r24, 0x01	; 1
     826:	88 7f       	andi	r24, 0xF8	; 248
     828:	80 32       	cpi	r24, 0x20	; 32
     82a:	19 f4       	brne	.+6      	; 0x832 <LCD+0x34>
		{
			PORTB |= (1<<3);			//adr not acknowledged
     82c:	c3 9a       	sbi	0x18, 3	; 24
			err = true;
     82e:	81 e0       	ldi	r24, 0x01	; 1
			goto newstart;					//LED3 
     830:	54 c0       	rjmp	.+168    	; 0x8da <__stack+0x7b>
		}
	if ((TWSR & 0xF8) == 0x38)
     832:	81 b1       	in	r24, 0x01	; 1
     834:	88 7f       	andi	r24, 0xF8	; 248
     836:	88 33       	cpi	r24, 0x38	; 56
     838:	19 f4       	brne	.+6      	; 0x840 <LCD+0x42>
		{
			PORTB |= (1<<3);			// arbitration lost
     83a:	c3 9a       	sbi	0x18, 3	; 24
			err = true;					// LED3
     83c:	81 e0       	ldi	r24, 0x01	; 1
			goto newstart;
     83e:	4d c0       	rjmp	.+154    	; 0x8da <__stack+0x7b>
		}
		//***************************************************************************

	if ((TWSR & 0xF8) == 0x18)			// status = start data LED 1
     840:	81 b1       	in	r24, 0x01	; 1
     842:	88 7f       	andi	r24, 0xF8	; 248
     844:	88 31       	cpi	r24, 0x18	; 24
     846:	09 f0       	breq	.+2      	; 0x84a <LCD+0x4c>
     848:	53 c0       	rjmp	.+166    	; 0x8f0 <__stack+0x91>
		{
			if (cursor)
     84a:	80 91 60 00 	lds	r24, 0x0060
     84e:	88 23       	and	r24, r24
     850:	91 f0       	breq	.+36     	; 0x876 <__stack+0x17>
			{
				TWDR = 0x1b;
     852:	8b e1       	ldi	r24, 0x1B	; 27
     854:	83 b9       	out	0x03, r24	; 3
				TWCR = (1<<TWINT) | (1<<TWEN);		//send
     856:	84 e8       	ldi	r24, 0x84	; 132
     858:	86 bf       	out	0x36, r24	; 54
				while (!(TWCR & (1<<TWINT)));
     85a:	06 b6       	in	r0, 0x36	; 54
     85c:	07 fe       	sbrs	r0, 7
     85e:	fd cf       	rjmp	.-6      	; 0x85a <LCD+0x5c>
				
				TWDR = 0x73;
     860:	83 e7       	ldi	r24, 0x73	; 115
     862:	83 b9       	out	0x03, r24	; 3
				TWCR = (1<<TWINT) | (1<<TWEN);		//send
     864:	84 e8       	ldi	r24, 0x84	; 132
     866:	86 bf       	out	0x36, r24	; 54
				while (!(TWCR & (1<<TWINT)));
     868:	06 b6       	in	r0, 0x36	; 54
     86a:	07 fe       	sbrs	r0, 7
     86c:	fd cf       	rjmp	.-6      	; 0x868 <__stack+0x9>
			
				cursor = false;
     86e:	10 92 60 00 	sts	0x0060, r1
				err= false;
     872:	80 e0       	ldi	r24, 0x00	; 0
				goto newstart;
     874:	32 c0       	rjmp	.+100    	; 0x8da <__stack+0x7b>
			}
			TWDR = display1[0];
     876:	80 91 ab 05 	lds	r24, 0x05AB
     87a:	83 b9       	out	0x03, r24	; 3
			PORTB = 2;								
     87c:	82 e0       	ldi	r24, 0x02	; 2
     87e:	88 bb       	out	0x18, r24	; 24
			TWCR = (1<<TWINT) | (1<<TWEN);		// clear intr flag
     880:	84 e8       	ldi	r24, 0x84	; 132
     882:	86 bf       	out	0x36, r24	; 54
     884:	35 c0       	rjmp	.+106    	; 0x8f0 <__stack+0x91>
		}
		//****************************************************************************
		
	for (i=1;i<17;)
		{
			while (!(TWCR & (1<<TWINT)));
     886:	06 b6       	in	r0, 0x36	; 54
     888:	07 fe       	sbrs	r0, 7
     88a:	fd cf       	rjmp	.-6      	; 0x886 <__stack+0x27>
		
			if ((TWSR & 0xF8) == 0x28)			// status acknowledged data
     88c:	21 b1       	in	r18, 0x01	; 1
     88e:	28 7f       	andi	r18, 0xF8	; 248
     890:	28 32       	cpi	r18, 0x28	; 40
     892:	39 f4       	brne	.+14     	; 0x8a2 <__stack+0x43>
				
				{
					TWDR = display1[i++];
     894:	21 91       	ld	r18, Z+
     896:	23 b9       	out	0x03, r18	; 3
					TWCR = (1<<TWINT) | (1<<TWEN);			// clear intr flag
     898:	36 bf       	out	0x36, r19	; 54
			PORTB = 2;								
			TWCR = (1<<TWINT) | (1<<TWEN);		// clear intr flag
		}
		//****************************************************************************
		
	for (i=1;i<17;)
     89a:	e8 17       	cp	r30, r24
     89c:	f9 07       	cpc	r31, r25
     89e:	99 f7       	brne	.-26     	; 0x886 <__stack+0x27>
     8a0:	04 c0       	rjmp	.+8      	; 0x8aa <__stack+0x4b>
					TWDR = display1[i++];
					TWCR = (1<<TWINT) | (1<<TWEN);			// clear intr flag
				}
			else
				{
					PORTB = (1<<2);						// data not acknowledged
     8a2:	84 e0       	ldi	r24, 0x04	; 4
     8a4:	88 bb       	out	0x18, r24	; 24
					err = true;									// LED2
     8a6:	81 e0       	ldi	r24, 0x01	; 1
					goto newstart;
     8a8:	18 c0       	rjmp	.+48     	; 0x8da <__stack+0x7b>
     8aa:	e2 e9       	ldi	r30, 0x92	; 146
     8ac:	f5 e0       	ldi	r31, 0x05	; 5
     8ae:	83 ea       	ldi	r24, 0xA3	; 163
     8b0:	95 e0       	ldi	r25, 0x05	; 5
			
			if ((TWSR & 0xF8) == 0x28)						// status acknowledged data
			
			{
				TWDR = display2[i++];
				TWCR = (1<<TWINT) | (1<<TWEN);			// clear intr flag
     8b2:	34 e8       	ldi	r19, 0x84	; 132
		}
		
			
		for (i=0;i<17;)
		{
			while (!(TWCR & (1<<TWINT)));
     8b4:	06 b6       	in	r0, 0x36	; 54
     8b6:	07 fe       	sbrs	r0, 7
     8b8:	fd cf       	rjmp	.-6      	; 0x8b4 <__stack+0x55>
			
			if ((TWSR & 0xF8) == 0x28)						// status acknowledged data
     8ba:	21 b1       	in	r18, 0x01	; 1
     8bc:	28 7f       	andi	r18, 0xF8	; 248
     8be:	28 32       	cpi	r18, 0x28	; 40
     8c0:	39 f4       	brne	.+14     	; 0x8d0 <__stack+0x71>
			
			{
				TWDR = display2[i++];
     8c2:	21 91       	ld	r18, Z+
     8c4:	23 b9       	out	0x03, r18	; 3
				TWCR = (1<<TWINT) | (1<<TWEN);			// clear intr flag
     8c6:	36 bf       	out	0x36, r19	; 54
					goto newstart;
				}
		}
		
			
		for (i=0;i<17;)
     8c8:	e8 17       	cp	r30, r24
     8ca:	f9 07       	cpc	r31, r25
     8cc:	99 f7       	brne	.-26     	; 0x8b4 <__stack+0x55>
     8ce:	04 c0       	rjmp	.+8      	; 0x8d8 <__stack+0x79>
				TWDR = display2[i++];
				TWCR = (1<<TWINT) | (1<<TWEN);			// clear intr flag
			}
			else
			{
				PORTB = (1<<2);						// data not acknowledged
     8d0:	84 e0       	ldi	r24, 0x04	; 4
     8d2:	88 bb       	out	0x18, r24	; 24
				err = true;									// LED2
     8d4:	81 e0       	ldi	r24, 0x01	; 1
				goto newstart;
     8d6:	01 c0       	rjmp	.+2      	; 0x8da <__stack+0x7b>

bool LCD (void)			// outputs 1 line of 16 characters from Buffer
{
				
	unsigned int i;		// buffer index
	bool err = false;
     8d8:	80 e0       	ldi	r24, 0x00	; 0
				goto newstart;
			}
		}
newstart:

	TWCR = (1<<TWINT)|(1<<TWEN)|(1<<TWSTO);				// stop transmission
     8da:	94 e9       	ldi	r25, 0x94	; 148
     8dc:	96 bf       	out	0x36, r25	; 54
	#else
		//round up by default
		__ticks_dc = (uint32_t)(ceil(fabs(__tmp)));
	#endif

	__builtin_avr_delay_cycles(__ticks_dc);
     8de:	ef e3       	ldi	r30, 0x3F	; 63
     8e0:	fc e9       	ldi	r31, 0x9C	; 156
     8e2:	31 97       	sbiw	r30, 0x01	; 1
     8e4:	f1 f7       	brne	.-4      	; 0x8e2 <__stack+0x83>
     8e6:	00 c0       	rjmp	.+0      	; 0x8e8 <__stack+0x89>
     8e8:	00 00       	nop
	_delay_ms(10);
	TWCR = 0;
     8ea:	16 be       	out	0x36, r1	; 54
	PORTB = 0;		// turn of status LEDs
     8ec:	18 ba       	out	0x18, r1	; 24
     8ee:	08 95       	ret
     8f0:	ec ea       	ldi	r30, 0xAC	; 172
     8f2:	f5 e0       	ldi	r31, 0x05	; 5
     8f4:	8c eb       	ldi	r24, 0xBC	; 188
     8f6:	95 e0       	ldi	r25, 0x05	; 5
		
			if ((TWSR & 0xF8) == 0x28)			// status acknowledged data
				
				{
					TWDR = display1[i++];
					TWCR = (1<<TWINT) | (1<<TWEN);			// clear intr flag
     8f8:	34 e8       	ldi	r19, 0x84	; 132
     8fa:	c5 cf       	rjmp	.-118    	; 0x886 <__stack+0x27>

000008fc <displayT>:
//************************************************************
// displays two temperatures in pairs of buffer displ mode 0-19
// called by display function
//*****************************************************************
char displayT(unsigned int i)
{
     8fc:	cf 93       	push	r28
     8fe:	df 93       	push	r29
     900:	ec 01       	movw	r28, r24
	char t,dP;
	t= store[i];
     902:	fc 01       	movw	r30, r24
     904:	ea 53       	subi	r30, 0x3A	; 58
     906:	fa 4f       	sbci	r31, 0xFA	; 250
     908:	80 81       	ld	r24, Z
	if (t&1) dP = 5;
     90a:	80 ff       	sbrs	r24, 0
     90c:	02 c0       	rjmp	.+4      	; 0x912 <displayT+0x16>
     90e:	95 e0       	ldi	r25, 0x05	; 5
     910:	01 c0       	rjmp	.+2      	; 0x914 <displayT+0x18>
	else dP=0;
     912:	90 e0       	ldi	r25, 0x00	; 0
	t>>=1;
	sprintf(display1,"\1 T%2d = %2d.%1d C   ",i,t,dP);
     914:	1f 92       	push	r1
     916:	9f 93       	push	r25
{
	char t,dP;
	t= store[i];
	if (t&1) dP = 5;
	else dP=0;
	t>>=1;
     918:	86 95       	lsr	r24
	sprintf(display1,"\1 T%2d = %2d.%1d C   ",i,t,dP);
     91a:	1f 92       	push	r1
     91c:	8f 93       	push	r24
     91e:	df 93       	push	r29
     920:	cf 93       	push	r28
     922:	8f ee       	ldi	r24, 0xEF	; 239
     924:	90 e0       	ldi	r25, 0x00	; 0
     926:	9f 93       	push	r25
     928:	8f 93       	push	r24
     92a:	8b ea       	ldi	r24, 0xAB	; 171
     92c:	95 e0       	ldi	r25, 0x05	; 5
     92e:	9f 93       	push	r25
     930:	8f 93       	push	r24
     932:	0e 94 3c 12 	call	0x2478	; 0x2478 <sprintf>
	i++;
     936:	ce 01       	movw	r24, r28
     938:	01 96       	adiw	r24, 0x01	; 1
	t= store[i];
     93a:	fc 01       	movw	r30, r24
     93c:	ea 53       	subi	r30, 0x3A	; 58
     93e:	fa 4f       	sbci	r31, 0xFA	; 250
     940:	20 81       	ld	r18, Z
	if (t&1) dP = 5;
     942:	4d b7       	in	r20, 0x3d	; 61
     944:	5e b7       	in	r21, 0x3e	; 62
     946:	46 5f       	subi	r20, 0xF6	; 246
     948:	5f 4f       	sbci	r21, 0xFF	; 255
     94a:	0f b6       	in	r0, 0x3f	; 63
     94c:	f8 94       	cli
     94e:	5e bf       	out	0x3e, r21	; 62
     950:	0f be       	out	0x3f, r0	; 63
     952:	4d bf       	out	0x3d, r20	; 61
     954:	20 ff       	sbrs	r18, 0
     956:	02 c0       	rjmp	.+4      	; 0x95c <displayT+0x60>
     958:	35 e0       	ldi	r19, 0x05	; 5
     95a:	01 c0       	rjmp	.+2      	; 0x95e <displayT+0x62>
	else dP=0;
     95c:	30 e0       	ldi	r19, 0x00	; 0
	t>>=1;
	sprintf(display2,"\2 T%2d = %2d.%1d C   ",i,t,dP);
     95e:	1f 92       	push	r1
     960:	3f 93       	push	r19
	sprintf(display1,"\1 T%2d = %2d.%1d C   ",i,t,dP);
	i++;
	t= store[i];
	if (t&1) dP = 5;
	else dP=0;
	t>>=1;
     962:	26 95       	lsr	r18
	sprintf(display2,"\2 T%2d = %2d.%1d C   ",i,t,dP);
     964:	1f 92       	push	r1
     966:	2f 93       	push	r18
     968:	9f 93       	push	r25
     96a:	8f 93       	push	r24
     96c:	85 e0       	ldi	r24, 0x05	; 5
     96e:	91 e0       	ldi	r25, 0x01	; 1
     970:	9f 93       	push	r25
     972:	8f 93       	push	r24
     974:	82 e9       	ldi	r24, 0x92	; 146
     976:	95 e0       	ldi	r25, 0x05	; 5
     978:	9f 93       	push	r25
     97a:	8f 93       	push	r24
     97c:	0e 94 3c 12 	call	0x2478	; 0x2478 <sprintf>
	i++;
     980:	22 96       	adiw	r28, 0x02	; 2
	while(LCD());
     982:	8d b7       	in	r24, 0x3d	; 61
     984:	9e b7       	in	r25, 0x3e	; 62
     986:	0a 96       	adiw	r24, 0x0a	; 10
     988:	0f b6       	in	r0, 0x3f	; 63
     98a:	f8 94       	cli
     98c:	9e bf       	out	0x3e, r25	; 62
     98e:	0f be       	out	0x3f, r0	; 63
     990:	8d bf       	out	0x3d, r24	; 61
     992:	0e 94 ff 03 	call	0x7fe	; 0x7fe <LCD>
     996:	81 11       	cpse	r24, r1
     998:	fc cf       	rjmp	.-8      	; 0x992 <displayT+0x96>
	waitsec=2;
     99a:	82 e0       	ldi	r24, 0x02	; 2
     99c:	80 93 50 05 	sts	0x0550, r24
	while (waitsec!=0);
     9a0:	80 91 50 05 	lds	r24, 0x0550
     9a4:	81 11       	cpse	r24, r1
     9a6:	fc cf       	rjmp	.-8      	; 0x9a0 <displayT+0xa4>
	return (char)i;
}
     9a8:	8c 2f       	mov	r24, r28
     9aa:	df 91       	pop	r29
     9ac:	cf 91       	pop	r28
     9ae:	08 95       	ret

000009b0 <display>:
// every display cycle or the single device is read in singlemode. 
//---------------------------------------------------------------------

void display(void)
{
        if (displmod<20) displmod = displayT(displmod);		
     9b0:	80 91 c4 05 	lds	r24, 0x05C4
     9b4:	90 91 c5 05 	lds	r25, 0x05C5
     9b8:	44 97       	sbiw	r24, 0x14	; 20
     9ba:	60 f4       	brcc	.+24     	; 0x9d4 <display+0x24>
     9bc:	80 91 c4 05 	lds	r24, 0x05C4
     9c0:	90 91 c5 05 	lds	r25, 0x05C5
     9c4:	0e 94 7e 04 	call	0x8fc	; 0x8fc <displayT>
     9c8:	90 e0       	ldi	r25, 0x00	; 0
     9ca:	90 93 c5 05 	sts	0x05C5, r25
     9ce:	80 93 c4 05 	sts	0x05C4, r24
     9d2:	08 95       	ret
		
        else if (displmod==20) displ_energy();
     9d4:	80 91 c4 05 	lds	r24, 0x05C4
     9d8:	90 91 c5 05 	lds	r25, 0x05C5
     9dc:	44 97       	sbiw	r24, 0x14	; 20
     9de:	19 f4       	brne	.+6      	; 0x9e6 <display+0x36>
     9e0:	0e 94 d2 03 	call	0x7a4	; 0x7a4 <displ_energy>
     9e4:	08 95       	ret
				 
        else if (displmod==21) 
     9e6:	80 91 c4 05 	lds	r24, 0x05C4
     9ea:	90 91 c5 05 	lds	r25, 0x05C5
     9ee:	45 97       	sbiw	r24, 0x15	; 21
     9f0:	f9 f4       	brne	.+62     	; 0xa30 <display+0x80>
		{
            if (entries>=sample_rate) displ_Trend();
     9f2:	40 91 65 00 	lds	r20, 0x0065
     9f6:	50 e0       	ldi	r21, 0x00	; 0
     9f8:	60 e0       	ldi	r22, 0x00	; 0
     9fa:	70 e0       	ldi	r23, 0x00	; 0
     9fc:	80 91 61 00 	lds	r24, 0x0061
     a00:	90 91 62 00 	lds	r25, 0x0062
     a04:	a0 91 63 00 	lds	r26, 0x0063
     a08:	b0 91 64 00 	lds	r27, 0x0064
     a0c:	84 17       	cp	r24, r20
     a0e:	95 07       	cpc	r25, r21
     a10:	a6 07       	cpc	r26, r22
     a12:	b7 07       	cpc	r27, r23
     a14:	18 f0       	brcs	.+6      	; 0xa1c <display+0x6c>
     a16:	0e 94 ac 02 	call	0x558	; 0x558 <displ_Trend>
     a1a:	08 95       	ret
			else displmod++;
     a1c:	80 91 c4 05 	lds	r24, 0x05C4
     a20:	90 91 c5 05 	lds	r25, 0x05C5
     a24:	01 96       	adiw	r24, 0x01	; 1
     a26:	90 93 c5 05 	sts	0x05C5, r25
     a2a:	80 93 c4 05 	sts	0x05C4, r24
     a2e:	08 95       	ret
		}
		else if (displmod >= 22)
     a30:	80 91 c4 05 	lds	r24, 0x05C4
     a34:	90 91 c5 05 	lds	r25, 0x05C5
     a38:	46 97       	sbiw	r24, 0x16	; 22
     a3a:	88 f0       	brcs	.+34     	; 0xa5e <display+0xae>
		{
			if (NBM || singlemode)
     a3c:	80 91 55 05 	lds	r24, 0x0555
     a40:	81 11       	cpse	r24, r1
     a42:	04 c0       	rjmp	.+8      	; 0xa4c <display+0x9c>
     a44:	80 91 51 05 	lds	r24, 0x0551
     a48:	88 23       	and	r24, r24
     a4a:	29 f0       	breq	.+10     	; 0xa56 <display+0xa6>
			{
				read = true;		// start with new dummies
     a4c:	81 e0       	ldi	r24, 0x01	; 1
     a4e:	80 93 58 05 	sts	0x0558, r24
				update = false;
     a52:	10 92 56 05 	sts	0x0556, r1
			}
			displmod = 0;
     a56:	10 92 c5 05 	sts	0x05C5, r1
     a5a:	10 92 c4 05 	sts	0x05C4, r1
     a5e:	08 95       	ret

00000a60 <start>:
}

//**********************************************************************
void start (void)		// start bit 2us 
{
	DDRD |= (1<<7);		//set outp mode
     a60:	8f 9a       	sbi	0x11, 7	; 17
	PORTD &= ~(1<<7);	//set low
     a62:	97 98       	cbi	0x12, 7	; 18
	#else
		//round up by default
		__ticks_dc = (uint32_t)(ceil(fabs(__tmp)));
	#endif

	__builtin_avr_delay_cycles(__ticks_dc);
     a64:	8a e0       	ldi	r24, 0x0A	; 10
     a66:	8a 95       	dec	r24
     a68:	f1 f7       	brne	.-4      	; 0xa66 <start+0x6>
     a6a:	00 c0       	rjmp	.+0      	; 0xa6c <start+0xc>
     a6c:	08 95       	ret

00000a6e <write>:
// parameter: command (char)
// this issues commands to the devices
//****************************************************

void write(char c)  
{
     a6e:	cf 93       	push	r28
     a70:	df 93       	push	r29
     a72:	d8 2f       	mov	r29, r24
    char count,y;					
    cli();
     a74:	f8 94       	cli
     a76:	c8 e0       	ldi	r28, 0x08	; 8
    for (count=8;count>0;count--)
    {
        start();				// outp mode low
     a78:	0e 94 30 05 	call	0xa60	; 0xa60 <start>
        y=c;
        // mask byte and check bit0
        if ((y&= 1)==1)					// bit0 = 1?
     a7c:	d0 ff       	sbrs	r29, 0
     a7e:	08 c0       	rjmp	.+16     	; 0xa90 <write+0x22>
        {
            DDRD &= ~(1<<7);			//inp mode
     a80:	8f 98       	cbi	0x11, 7	; 17
     a82:	87 ee       	ldi	r24, 0xE7	; 231
     a84:	90 e0       	ldi	r25, 0x00	; 0
     a86:	01 97       	sbiw	r24, 0x01	; 1
     a88:	f1 f7       	brne	.-4      	; 0xa86 <write+0x18>
     a8a:	00 c0       	rjmp	.+0      	; 0xa8c <write+0x1e>
     a8c:	00 00       	nop
     a8e:	0b c0       	rjmp	.+22     	; 0xaa6 <write+0x38>
     a90:	87 ed       	ldi	r24, 0xD7	; 215
     a92:	90 e0       	ldi	r25, 0x00	; 0
     a94:	01 97       	sbiw	r24, 0x01	; 1
     a96:	f1 f7       	brne	.-4      	; 0xa94 <write+0x26>
     a98:	00 c0       	rjmp	.+0      	; 0xa9a <write+0x2c>
     a9a:	00 00       	nop
            _delay_us(58);				// transmit 1
        }
        else
        {
             _delay_us(54);			// transmit 0
            DDRD  &= ~(1<<7);		// release
     a9c:	8f 98       	cbi	0x11, 7	; 17
     a9e:	95 e1       	ldi	r25, 0x15	; 21
     aa0:	9a 95       	dec	r25
     aa2:	f1 f7       	brne	.-4      	; 0xaa0 <write+0x32>
     aa4:	00 00       	nop
			_delay_us(4);
        }
        //shift byte
        c>>=1;      // next bit
     aa6:	d6 95       	lsr	r29
     aa8:	c1 50       	subi	r28, 0x01	; 1

void write(char c)  
{
    char count,y;					
    cli();
    for (count=8;count>0;count--)
     aaa:	31 f7       	brne	.-52     	; 0xa78 <write+0xa>
			_delay_us(4);
        }
        //shift byte
        c>>=1;      // next bit
    }
	sei();
     aac:	78 94       	sei
}
     aae:	df 91       	pop	r29
     ab0:	cf 91       	pop	r28
     ab2:	08 95       	ret

00000ab4 <resetL>:
//***********************************************

bool resetL(void)  //returns 1 if ACK
{
	bool ACK =false;
    start();					// outp mode low
     ab4:	0e 94 30 05 	call	0xa60	; 0xa60 <start>
     ab8:	8f e5       	ldi	r24, 0x5F	; 95
     aba:	99 e0       	ldi	r25, 0x09	; 9
     abc:	01 97       	sbiw	r24, 0x01	; 1
     abe:	f1 f7       	brne	.-4      	; 0xabc <resetL+0x8>
     ac0:	00 c0       	rjmp	.+0      	; 0xac2 <resetL+0xe>
     ac2:	00 00       	nop
    _delay_us(600);				// reset pulse
    DDRD &= ~(1<<7);			//release
     ac4:	8f 98       	cbi	0x11, 7	; 17
     ac6:	e7 ee       	ldi	r30, 0xE7	; 231
     ac8:	f0 e0       	ldi	r31, 0x00	; 0
     aca:	31 97       	sbiw	r30, 0x01	; 1
     acc:	f1 f7       	brne	.-4      	; 0xaca <resetL+0x16>
     ace:	00 c0       	rjmp	.+0      	; 0xad0 <resetL+0x1c>
     ad0:	00 00       	nop
     _delay_us(58);
    if (PIND & (1<<7)) ACK =false;
     ad2:	80 b3       	in	r24, 0x10	; 16
     ad4:	ef e3       	ldi	r30, 0x3F	; 63
     ad6:	f6 e0       	ldi	r31, 0x06	; 6
     ad8:	31 97       	sbiw	r30, 0x01	; 1
     ada:	f1 f7       	brne	.-4      	; 0xad8 <resetL+0x24>
     adc:	00 c0       	rjmp	.+0      	; 0xade <resetL+0x2a>
     ade:	00 00       	nop
     ae0:	80 95       	com	r24
    else ACK = true;			// yes
	_delay_us(400);
	return ACK;
}
     ae2:	88 1f       	adc	r24, r24
     ae4:	88 27       	eor	r24, r24
     ae6:	88 1f       	adc	r24, r24
     ae8:	08 95       	ret

00000aea <match_rom>:
// called by read_deviceT
// is followed by read_T
//---------------------------------------------------------
 
void match_rom(int b)   // address device
{
     aea:	0f 93       	push	r16
     aec:	1f 93       	push	r17
     aee:	cf 93       	push	r28
     af0:	df 93       	push	r29
     af2:	8c 01       	movw	r16, r24
    int t;
	int count;
    start();
     af4:	0e 94 30 05 	call	0xa60	; 0xa60 <start>
    write(match); 
     af8:	85 e5       	ldi	r24, 0x55	; 85
     afa:	0e 94 37 05 	call	0xa6e	; 0xa6e <write>
     afe:	00 0f       	add	r16, r16
     b00:	11 1f       	adc	r17, r17
     b02:	00 0f       	add	r16, r16
     b04:	11 1f       	adc	r17, r17
     b06:	00 0f       	add	r16, r16
     b08:	11 1f       	adc	r17, r17
    for (count=0;count<8;count++)
     b0a:	c0 e0       	ldi	r28, 0x00	; 0
     b0c:	d0 e0       	ldi	r29, 0x00	; 0
     b0e:	02 5d       	subi	r16, 0xD2	; 210
     b10:	1e 4f       	sbci	r17, 0xFE	; 254
     b12:	f8 01       	movw	r30, r16
     b14:	ec 0f       	add	r30, r28
     b16:	fd 1f       	adc	r31, r29
    {
        t = pgm_read_byte_near(&ID[b][count]);   //transmit ID 64 bit
     b18:	84 91       	lpm	r24, Z
        write(t);
     b1a:	0e 94 37 05 	call	0xa6e	; 0xa6e <write>
{
    int t;
	int count;
    start();
    write(match); 
    for (count=0;count<8;count++)
     b1e:	21 96       	adiw	r28, 0x01	; 1
     b20:	c8 30       	cpi	r28, 0x08	; 8
     b22:	d1 05       	cpc	r29, r1
     b24:	b1 f7       	brne	.-20     	; 0xb12 <match_rom+0x28>
    {
        t = pgm_read_byte_near(&ID[b][count]);   //transmit ID 64 bit
        write(t);
    }
}
     b26:	df 91       	pop	r29
     b28:	cf 91       	pop	r28
     b2a:	1f 91       	pop	r17
     b2c:	0f 91       	pop	r16
     b2e:	08 95       	ret

00000b30 <read_T>:
// general read temperature routine 8bit, single device
// after match Rom command
// called by read_deviceT
//----------------------------------------------------
char read_T (void) 
{
     b30:	cf 93       	push	r28
     b32:	df 93       	push	r29
    char input;
    char count;
    
	cli();
     b34:	f8 94       	cli
     b36:	c8 e0       	ldi	r28, 0x08	; 8
    for (input=0,count=8;count>0;count--)   // 8 bits
     b38:	d0 e0       	ldi	r29, 0x00	; 0
    {
        start();					// set outp mode
     b3a:	0e 94 30 05 	call	0xa60	; 0xa60 <start>
        DDRD &= ~(1<<7);			//set high
     b3e:	8f 98       	cbi	0x11, 7	; 17
     b40:	85 e3       	ldi	r24, 0x35	; 53
     b42:	8a 95       	dec	r24
     b44:	f1 f7       	brne	.-4      	; 0xb42 <read_T+0x12>
     b46:	00 00       	nop
        _delay_us(10);
        input>>=1;                  // shift a zero in  
     b48:	d6 95       	lsr	r29
        if (PIND & (1<<7)) input|= 0x80;  // make 1
     b4a:	87 99       	sbic	0x10, 7	; 16
     b4c:	d0 68       	ori	r29, 0x80	; 128
     b4e:	83 ec       	ldi	r24, 0xC3	; 195
     b50:	90 e0       	ldi	r25, 0x00	; 0
     b52:	01 97       	sbiw	r24, 0x01	; 1
     b54:	f1 f7       	brne	.-4      	; 0xb52 <read_T+0x22>
     b56:	00 c0       	rjmp	.+0      	; 0xb58 <read_T+0x28>
     b58:	00 00       	nop
     b5a:	c1 50       	subi	r28, 0x01	; 1
{
    char input;
    char count;
    
	cli();
    for (input=0,count=8;count>0;count--)   // 8 bits
     b5c:	71 f7       	brne	.-36     	; 0xb3a <read_T+0xa>
        _delay_us(10);
        input>>=1;                  // shift a zero in  
        if (PIND & (1<<7)) input|= 0x80;  // make 1
        _delay_us(49);
    }
	sei();
     b5e:	78 94       	sei
    return input; 	
}
     b60:	8d 2f       	mov	r24, r29
     b62:	df 91       	pop	r29
     b64:	cf 91       	pop	r28
     b66:	08 95       	ret

00000b68 <convert_T>:
// called by read_deviceT
// returns 1 if ACK received
//----------------------------------------------

bool convert_T(void)
{
     b68:	cf 93       	push	r28
    if (resetL())
     b6a:	0e 94 5a 05 	call	0xab4	; 0xab4 <resetL>
     b6e:	c8 2f       	mov	r28, r24
     b70:	88 23       	and	r24, r24
     b72:	31 f0       	breq	.+12     	; 0xb80 <convert_T+0x18>
    {
        write(skipR);
     b74:	8c ec       	ldi	r24, 0xCC	; 204
     b76:	0e 94 37 05 	call	0xa6e	; 0xa6e <write>
        write(convert);
     b7a:	84 e4       	ldi	r24, 0x44	; 68
     b7c:	0e 94 37 05 	call	0xa6e	; 0xa6e <write>
        return true;
    }
    else 
    return false;
}
     b80:	8c 2f       	mov	r24, r28
     b82:	cf 91       	pop	r28
     b84:	08 95       	ret

00000b86 <read_deviceT>:
// returns number of devices read
// it contains the entire protocol
// and stores the entries in an array.
//**************************************************************
void read_deviceT(void)
{
     b86:	9f 92       	push	r9
     b88:	af 92       	push	r10
     b8a:	bf 92       	push	r11
     b8c:	cf 92       	push	r12
     b8e:	df 92       	push	r13
     b90:	ef 92       	push	r14
     b92:	ff 92       	push	r15
     b94:	0f 93       	push	r16
     b96:	1f 93       	push	r17
     b98:	cf 93       	push	r28
     b9a:	df 93       	push	r29
    char reads,faults;     
    unsigned int a;         // device counter

    if (convert_T())
     b9c:	0e 94 b4 05 	call	0xb68	; 0xb68 <convert_T>
     ba0:	88 23       	and	r24, r24
     ba2:	09 f4       	brne	.+2      	; 0xba6 <read_deviceT+0x20>
     ba4:	89 c0       	rjmp	.+274    	; 0xcb8 <read_deviceT+0x132>
    {
        
        sprintf (display1,"\1  Reading Temp  ");
     ba6:	82 e1       	ldi	r24, 0x12	; 18
     ba8:	eb e1       	ldi	r30, 0x1B	; 27
     baa:	f1 e0       	ldi	r31, 0x01	; 1
     bac:	ab ea       	ldi	r26, 0xAB	; 171
     bae:	b5 e0       	ldi	r27, 0x05	; 5
     bb0:	01 90       	ld	r0, Z+
     bb2:	0d 92       	st	X+, r0
     bb4:	8a 95       	dec	r24
     bb6:	e1 f7       	brne	.-8      	; 0xbb0 <read_deviceT+0x2a>
        sprintf (display2,"\2  %2u HRS %2u MIN   ",hour,min);   
     bb8:	90 91 6c 00 	lds	r25, 0x006C
     bbc:	80 91 6b 00 	lds	r24, 0x006B
     bc0:	1f 92       	push	r1
     bc2:	9f 93       	push	r25
     bc4:	1f 92       	push	r1
     bc6:	8f 93       	push	r24
     bc8:	8d e2       	ldi	r24, 0x2D	; 45
     bca:	91 e0       	ldi	r25, 0x01	; 1
     bcc:	9f 93       	push	r25
     bce:	8f 93       	push	r24
     bd0:	82 e9       	ldi	r24, 0x92	; 146
     bd2:	95 e0       	ldi	r25, 0x05	; 5
     bd4:	9f 93       	push	r25
     bd6:	8f 93       	push	r24
     bd8:	0e 94 3c 12 	call	0x2478	; 0x2478 <sprintf>
		while(LCD());
     bdc:	8d b7       	in	r24, 0x3d	; 61
     bde:	9e b7       	in	r25, 0x3e	; 62
     be0:	08 96       	adiw	r24, 0x08	; 8
     be2:	0f b6       	in	r0, 0x3f	; 63
     be4:	f8 94       	cli
     be6:	9e bf       	out	0x3e, r25	; 62
     be8:	0f be       	out	0x3f, r0	; 63
     bea:	8d bf       	out	0x3d, r24	; 61
     bec:	0e 94 ff 03 	call	0x7fe	; 0x7fe <LCD>
     bf0:	81 11       	cpse	r24, r1
     bf2:	fc cf       	rjmp	.-8      	; 0xbec <read_deviceT+0x66>
		
        waitsec=2;
     bf4:	82 e0       	ldi	r24, 0x02	; 2
     bf6:	80 93 50 05 	sts	0x0550, r24
        while (waitsec!=0);
     bfa:	80 91 50 05 	lds	r24, 0x0550
     bfe:	81 11       	cpse	r24, r1
     c00:	fc cf       	rjmp	.-8      	; 0xbfa <read_deviceT+0x74>
     c02:	c0 e0       	ldi	r28, 0x00	; 0
     c04:	d0 e0       	ldi	r29, 0x00	; 0
     c06:	c1 2c       	mov	r12, r1
                }
				
				
                store[a]= reads;     // store in orig format 8 bit
            }
            else NBM=true;     
     c08:	dd 24       	eor	r13, r13
     c0a:	d3 94       	inc	r13
                write(read_scratch);
                reads = read_T();
                if (reads==255) 
                {
                    faults++;
                    sprintf(display1,"\1  device %2d     ",a);
     c0c:	0f 2e       	mov	r0, r31
     c0e:	f3 e4       	ldi	r31, 0x43	; 67
     c10:	ef 2e       	mov	r14, r31
     c12:	f1 e0       	ldi	r31, 0x01	; 1
     c14:	ff 2e       	mov	r15, r31
     c16:	f0 2d       	mov	r31, r0
     c18:	0b ea       	ldi	r16, 0xAB	; 171
     c1a:	15 e0       	ldi	r17, 0x05	; 5
                    sprintf(display2,"\2     faulty!    ");  
     c1c:	0f 2e       	mov	r0, r31
     c1e:	f2 e1       	ldi	r31, 0x12	; 18
     c20:	9f 2e       	mov	r9, r31
     c22:	f0 2d       	mov	r31, r0
					while(LCD());            

                    waitsec=2;
     c24:	68 94       	set
     c26:	aa 24       	eor	r10, r10
     c28:	a1 f8       	bld	r10, 1
                    while (waitsec!=0); 
                    reads=0;
     c2a:	b1 2c       	mov	r11, r1
        waitsec=2;
        while (waitsec!=0);
         
        for (a=0, faults=0; a< maxdevices;a++)
        {
            if (resetL())               //repeated reset for each device entries
     c2c:	0e 94 5a 05 	call	0xab4	; 0xab4 <resetL>
     c30:	88 23       	and	r24, r24
     c32:	91 f1       	breq	.+100    	; 0xc98 <read_deviceT+0x112>
            {
                match_rom(a);
     c34:	ce 01       	movw	r24, r28
     c36:	0e 94 75 05 	call	0xaea	; 0xaea <match_rom>
                write(read_scratch);
     c3a:	8e eb       	ldi	r24, 0xBE	; 190
     c3c:	0e 94 37 05 	call	0xa6e	; 0xa6e <write>
                reads = read_T();
     c40:	0e 94 98 05 	call	0xb30	; 0xb30 <read_T>
                if (reads==255) 
     c44:	8f 3f       	cpi	r24, 0xFF	; 255
     c46:	19 f5       	brne	.+70     	; 0xc8e <read_deviceT+0x108>
                {
                    faults++;
     c48:	c3 94       	inc	r12
                    sprintf(display1,"\1  device %2d     ",a);
     c4a:	df 93       	push	r29
     c4c:	cf 93       	push	r28
     c4e:	ff 92       	push	r15
     c50:	ef 92       	push	r14
     c52:	1f 93       	push	r17
     c54:	0f 93       	push	r16
     c56:	0e 94 3c 12 	call	0x2478	; 0x2478 <sprintf>
                    sprintf(display2,"\2     faulty!    ");  
     c5a:	e6 e5       	ldi	r30, 0x56	; 86
     c5c:	f1 e0       	ldi	r31, 0x01	; 1
     c5e:	a2 e9       	ldi	r26, 0x92	; 146
     c60:	b5 e0       	ldi	r27, 0x05	; 5
     c62:	89 2d       	mov	r24, r9
     c64:	01 90       	ld	r0, Z+
     c66:	0d 92       	st	X+, r0
     c68:	8a 95       	dec	r24
     c6a:	e1 f7       	brne	.-8      	; 0xc64 <read_deviceT+0xde>
					while(LCD());            
     c6c:	0f 90       	pop	r0
     c6e:	0f 90       	pop	r0
     c70:	0f 90       	pop	r0
     c72:	0f 90       	pop	r0
     c74:	0f 90       	pop	r0
     c76:	0f 90       	pop	r0
     c78:	0e 94 ff 03 	call	0x7fe	; 0x7fe <LCD>
     c7c:	81 11       	cpse	r24, r1
     c7e:	fc cf       	rjmp	.-8      	; 0xc78 <read_deviceT+0xf2>

                    waitsec=2;
     c80:	a0 92 50 05 	sts	0x0550, r10
                    while (waitsec!=0); 
     c84:	80 91 50 05 	lds	r24, 0x0550
     c88:	81 11       	cpse	r24, r1
     c8a:	fc cf       	rjmp	.-8      	; 0xc84 <read_deviceT+0xfe>
                    reads=0;
     c8c:	8b 2d       	mov	r24, r11
     c8e:	fe 01       	movw	r30, r28
     c90:	ea 53       	subi	r30, 0x3A	; 58
     c92:	fa 4f       	sbci	r31, 0xFA	; 250
                }
				
				
                store[a]= reads;     // store in orig format 8 bit
     c94:	80 83       	st	Z, r24
     c96:	02 c0       	rjmp	.+4      	; 0xc9c <read_deviceT+0x116>
            }
            else NBM=true;     
     c98:	d0 92 55 05 	sts	0x0555, r13
		while(LCD());
		
        waitsec=2;
        while (waitsec!=0);
         
        for (a=0, faults=0; a< maxdevices;a++)
     c9c:	21 96       	adiw	r28, 0x01	; 1
     c9e:	c4 31       	cpi	r28, 0x14	; 20
     ca0:	d1 05       	cpc	r29, r1
     ca2:	21 f6       	brne	.-120    	; 0xc2c <read_deviceT+0xa6>
				
                store[a]= reads;     // store in orig format 8 bit
            }
            else NBM=true;     
        }
		if (faults==maxdevices) singlemode=true;
     ca4:	94 e1       	ldi	r25, 0x14	; 20
     ca6:	c9 12       	cpse	r12, r25
     ca8:	04 c0       	rjmp	.+8      	; 0xcb2 <read_deviceT+0x12c>
     caa:	81 e0       	ldi	r24, 0x01	; 1
     cac:	80 93 51 05 	sts	0x0551, r24
     cb0:	06 c0       	rjmp	.+12     	; 0xcbe <read_deviceT+0x138>
		else singlemode= false;
     cb2:	10 92 51 05 	sts	0x0551, r1
     cb6:	03 c0       	rjmp	.+6      	; 0xcbe <read_deviceT+0x138>
    }
    else NBM=true;
     cb8:	81 e0       	ldi	r24, 0x01	; 1
     cba:	80 93 55 05 	sts	0x0555, r24
    
}   
     cbe:	df 91       	pop	r29
     cc0:	cf 91       	pop	r28
     cc2:	1f 91       	pop	r17
     cc4:	0f 91       	pop	r16
     cc6:	ff 90       	pop	r15
     cc8:	ef 90       	pop	r14
     cca:	df 90       	pop	r13
     ccc:	cf 90       	pop	r12
     cce:	bf 90       	pop	r11
     cd0:	af 90       	pop	r10
     cd2:	9f 90       	pop	r9
     cd4:	08 95       	ret

00000cd6 <main>:

//*******************************************************************************
int main(void)
{
	
    Init();
     cd6:	0e 94 09 07 	call	0xe12	; 0xe12 <Init>
	
    if (~PB & 7) ds_read_id();        // read ID of single device after reset and PB pressed
     cda:	89 b3       	in	r24, 0x19	; 25
     cdc:	90 e0       	ldi	r25, 0x00	; 0
     cde:	80 95       	com	r24
     ce0:	90 95       	com	r25
     ce2:	87 70       	andi	r24, 0x07	; 7
     ce4:	99 27       	eor	r25, r25
     ce6:	89 2b       	or	r24, r25
     ce8:	11 f0       	breq	.+4      	; 0xcee <main+0x18>
     cea:	0e 94 f4 0c 	call	0x19e8	; 0x19e8 <ds_read_id>
    
	
    displ_calendar();           //start off with displaying calendar
     cee:	0e 94 c1 0e 	call	0x1d82	; 0x1d82 <displ_calendar>
    
    waitsec=2;
     cf2:	82 e0       	ldi	r24, 0x02	; 2
     cf4:	80 93 50 05 	sts	0x0550, r24
    while (waitsec!=0);    
     cf8:	80 91 50 05 	lds	r24, 0x0550
     cfc:	81 11       	cpse	r24, r1
     cfe:	fc cf       	rjmp	.-8      	; 0xcf8 <main+0x22>
	base= 50;
     d00:	82 e3       	ldi	r24, 0x32	; 50
     d02:	80 93 7b 00 	sts	0x007B, r24
	    
    if (!resetL())              // Ack response?
     d06:	0e 94 5a 05 	call	0xab4	; 0xab4 <resetL>
     d0a:	81 11       	cpse	r24, r1
     d0c:	21 c0       	rjmp	.+66     	; 0xd50 <main+0x7a>
    {
        NBM=true;
     d0e:	81 e0       	ldi	r24, 0x01	; 1
     d10:	80 93 55 05 	sts	0x0555, r24
		sprintf(display1,"\1 No Bus Mode    " );	    
     d14:	82 e1       	ldi	r24, 0x12	; 18
     d16:	e8 e6       	ldi	r30, 0x68	; 104
     d18:	f1 e0       	ldi	r31, 0x01	; 1
     d1a:	ab ea       	ldi	r26, 0xAB	; 171
     d1c:	b5 e0       	ldi	r27, 0x05	; 5
     d1e:	01 90       	ld	r0, Z+
     d20:	0d 92       	st	X+, r0
     d22:	8a 95       	dec	r24
     d24:	e1 f7       	brne	.-8      	; 0xd1e <main+0x48>
		
        sprintf(display2,"\2                ");
     d26:	82 e1       	ldi	r24, 0x12	; 18
     d28:	ea e7       	ldi	r30, 0x7A	; 122
     d2a:	f1 e0       	ldi	r31, 0x01	; 1
     d2c:	a2 e9       	ldi	r26, 0x92	; 146
     d2e:	b5 e0       	ldi	r27, 0x05	; 5
     d30:	01 90       	ld	r0, Z+
     d32:	0d 92       	st	X+, r0
     d34:	8a 95       	dec	r24
     d36:	e1 f7       	brne	.-8      	; 0xd30 <main+0x5a>
		while(LCD());
     d38:	0e 94 ff 03 	call	0x7fe	; 0x7fe <LCD>
     d3c:	81 11       	cpse	r24, r1
     d3e:	fc cf       	rjmp	.-8      	; 0xd38 <main+0x62>
		
        waitsec=2;
     d40:	82 e0       	ldi	r24, 0x02	; 2
     d42:	80 93 50 05 	sts	0x0550, r24
        while (waitsec!=0); 
     d46:	80 91 50 05 	lds	r24, 0x0550
     d4a:	81 11       	cpse	r24, r1
     d4c:	fc cf       	rjmp	.-8      	; 0xd46 <main+0x70>
     d4e:	03 c0       	rjmp	.+6      	; 0xd56 <main+0x80>
    }
    else read=true;
     d50:	81 e0       	ldi	r24, 0x01	; 1
     d52:	80 93 58 05 	sts	0x0558, r24
				}					
                else  
                {   
					NBM=true;
				
                    sprintf (display1,"\1   generating   ");
     d56:	d2 e1       	ldi	r29, 0x12	; 18
                compute_P();                                // computation

                if (entries>=sample_rate)compute_Trend();   // computation
                
                transfer();    
                update = true; 
     d58:	c1 e0       	ldi	r28, 0x01	; 1
    }
    else read=true;
    
    for(;;)
    {
		if (keyin) keyp_exe();
     d5a:	80 91 57 05 	lds	r24, 0x0557
     d5e:	81 11       	cpse	r24, r1
     d60:	0e 94 51 07 	call	0xea2	; 0xea2 <keyp_exe>
        if (modus==0)           // menu mode keypad
     d64:	80 91 53 05 	lds	r24, 0x0553
     d68:	81 11       	cpse	r24, r1
     d6a:	f7 cf       	rjmp	.-18     	; 0xd5a <main+0x84>
        {            
            if (read)
     d6c:	80 91 58 05 	lds	r24, 0x0558
     d70:	88 23       	and	r24, r24
     d72:	09 f4       	brne	.+2      	; 0xd76 <main+0xa0>
     d74:	46 c0       	rjmp	.+140    	; 0xe02 <main+0x12c>
            {
                if (resetL())           // repeat checking bus          
     d76:	0e 94 5a 05 	call	0xab4	; 0xab4 <resetL>
     d7a:	88 23       	and	r24, r24
     d7c:	61 f0       	breq	.+24     	; 0xd96 <main+0xc0>
                {
                    NBM=false;
     d7e:	10 92 55 05 	sts	0x0555, r1
					if (singlemode) readSdeviceT();
     d82:	80 91 51 05 	lds	r24, 0x0551
     d86:	88 23       	and	r24, r24
     d88:	19 f0       	breq	.+6      	; 0xd90 <main+0xba>
     d8a:	0e 94 9c 0b 	call	0x1738	; 0x1738 <readSdeviceT>
     d8e:	1d c0       	rjmp	.+58     	; 0xdca <main+0xf4>
                    else read_deviceT();      
     d90:	0e 94 c3 05 	call	0xb86	; 0xb86 <read_deviceT>
     d94:	1a c0       	rjmp	.+52     	; 0xdca <main+0xf4>
                    //waitsec=2;
                    //while (waitsec!=0);
				}					
                else  
                {   
					NBM=true;
     d96:	c0 93 55 05 	sts	0x0555, r28
				
                    sprintf (display1,"\1   generating   ");
     d9a:	ec e8       	ldi	r30, 0x8C	; 140
     d9c:	f1 e0       	ldi	r31, 0x01	; 1
     d9e:	ab ea       	ldi	r26, 0xAB	; 171
     da0:	b5 e0       	ldi	r27, 0x05	; 5
     da2:	8d 2f       	mov	r24, r29
     da4:	01 90       	ld	r0, Z+
     da6:	0d 92       	st	X+, r0
     da8:	8a 95       	dec	r24
     daa:	e1 f7       	brne	.-8      	; 0xda4 <main+0xce>
					
                    sprintf (display2,"\2    dummies     ");
     dac:	ee e9       	ldi	r30, 0x9E	; 158
     dae:	f1 e0       	ldi	r31, 0x01	; 1
     db0:	a2 e9       	ldi	r26, 0x92	; 146
     db2:	b5 e0       	ldi	r27, 0x05	; 5
     db4:	8d 2f       	mov	r24, r29
     db6:	01 90       	ld	r0, Z+
     db8:	0d 92       	st	X+, r0
     dba:	8a 95       	dec	r24
     dbc:	e1 f7       	brne	.-8      	; 0xdb6 <main+0xe0>
                    while(LCD());
     dbe:	0e 94 ff 03 	call	0x7fe	; 0x7fe <LCD>
     dc2:	81 11       	cpse	r24, r1
     dc4:	fc cf       	rjmp	.-8      	; 0xdbe <main+0xe8>
					
					generate();                        // dummies (in file storage)
     dc6:	0e 94 fb 0e 	call	0x1df6	; 0x1df6 <generate>
                    //waitsec=2;
                    //while (waitsec!=0);           
                }
                compute_E();                                // computation
     dca:	0e 94 06 01 	call	0x20c	; 0x20c <compute_E>
				
                compute_P();                                // computation
     dce:	0e 94 00 03 	call	0x600	; 0x600 <compute_P>

                if (entries>=sample_rate)compute_Trend();   // computation
     dd2:	40 91 65 00 	lds	r20, 0x0065
     dd6:	50 e0       	ldi	r21, 0x00	; 0
     dd8:	60 e0       	ldi	r22, 0x00	; 0
     dda:	70 e0       	ldi	r23, 0x00	; 0
     ddc:	80 91 61 00 	lds	r24, 0x0061
     de0:	90 91 62 00 	lds	r25, 0x0062
     de4:	a0 91 63 00 	lds	r26, 0x0063
     de8:	b0 91 64 00 	lds	r27, 0x0064
     dec:	84 17       	cp	r24, r20
     dee:	95 07       	cpc	r25, r21
     df0:	a6 07       	cpc	r26, r22
     df2:	b7 07       	cpc	r27, r23
     df4:	10 f0       	brcs	.+4      	; 0xdfa <main+0x124>
     df6:	0e 94 18 02 	call	0x430	; 0x430 <compute_Trend>
                
                transfer();    
     dfa:	0e 94 32 0f 	call	0x1e64	; 0x1e64 <transfer>
                update = true; 
     dfe:	c0 93 56 05 	sts	0x0556, r28
				//waitsec=2;
				//while (waitsec!=0);               
            }
             
            if (update) display();    
     e02:	80 91 56 05 	lds	r24, 0x0556
     e06:	88 23       	and	r24, r24
     e08:	09 f4       	brne	.+2      	; 0xe0c <main+0x136>
     e0a:	a7 cf       	rjmp	.-178    	; 0xd5a <main+0x84>
     e0c:	0e 94 d8 04 	call	0x9b0	; 0x9b0 <display>
     e10:	a4 cf       	rjmp	.-184    	; 0xd5a <main+0x84>

00000e12 <Init>:
	// PORTA3 for 1: __PA3 as Input with pullups - Reserved for pin PA3
	// PORTA4 for 1: __PA4 as Input with pullups - Reserved for pin PA4
	// PORTA5 for 1: __PA5 as Input with pullups - Key
	// PORTA6 for 1: __PA6 as Input with pullups - key
	// PORTA7 for 1: __PA7 as Input with pullups - key
	PORTA = 0xFF;	// pullups
     e12:	8f ef       	ldi	r24, 0xFF	; 255
     e14:	8b bb       	out	0x1b, r24	; 27


	//
	// PORTB  LEDs1-3 status indicator TWI for debugging

	DDRB = 0xFF;
     e16:	87 bb       	out	0x17, r24	; 23
	PORTB = 0;
     e18:	18 ba       	out	0x18, r1	; 24
	//
	// PORTC IC2 Bus Display
	//
	// PORTC0 for 1: __SCL as Input - Reserved for pin SCL
	// PORTC1 for 1: __SDA as Input - Reserved for pin SDA
	PORTC = 3;						// pullups
     e1a:	83 e0       	ldi	r24, 0x03	; 3
     e1c:	85 bb       	out	0x15, r24	; 21
	// PORTD1 for 1: __TXD as Output - Reserved for pin TXD
	// PORTD5 for 1: __PD5 as Output - close file
	// PORTD6 for 1: __PD6 as Output - LED 1 sec
	// PORTD7 for 1: __PD7 as Input - 1 wire bus
	
	DDRD = 0b01100010;	//98
     e1e:	82 e6       	ldi	r24, 0x62	; 98
     e20:	81 bb       	out	0x11, r24	; 17
	PORTD = 98;
     e22:	82 bb       	out	0x12, r24	; 18
	//
	// Clock Select = clk / 8 (From prescaler) 2Mhz
	// Output Compare Register A = 50000	
	// Output Compare Match Interrupt Enable A = Enabled
	// Output Compare Register A Time = 25 msec  40Hz
	TIMSK = (1<<OCIE1A);
     e24:	80 e1       	ldi	r24, 0x10	; 16
     e26:	89 bf       	out	0x39, r24	; 57
	TCCR1B = (1<<CS11)|(1<<WGM12);	// CTC mode OCR1A
     e28:	8a e0       	ldi	r24, 0x0A	; 10
     e2a:	8e bd       	out	0x2e, r24	; 46
	OCR1A = 0xC350;
     e2c:	80 e5       	ldi	r24, 0x50	; 80
     e2e:	93 ec       	ldi	r25, 0xC3	; 195
     e30:	9b bd       	out	0x2b, r25	; 43
     e32:	8a bd       	out	0x2a, r24	; 42
	//
	// TIMER_COUNTER_2 -  not used
	//
	// Clock Select = clk / 8 (From prescaler)
	// Counts per Second = 2,0 MHz
	TCCR2 = 8;		//WGM21
     e34:	88 e0       	ldi	r24, 0x08	; 8
     e36:	85 bd       	out	0x25, r24	; 37
	//
	// SCL Clock Frequency = 9.9khz
	// Prescaler = 4
	// Bitrate = 100
	// F = 16Mhz/16+(2*100)*4
	TWBR = 100;
     e38:	94 e6       	ldi	r25, 0x64	; 100
     e3a:	90 b9       	out	0x00, r25	; 0
	TWSR = 1;		// prescaler value = 4
     e3c:	91 e0       	ldi	r25, 0x01	; 1
     e3e:	91 b9       	out	0x01, r25	; 1
	TWCR = 0x04;	// (1<<TWEN)
     e40:	94 e0       	ldi	r25, 0x04	; 4
     e42:	96 bf       	out	0x36, r25	; 54
	// USART0
	//
	// Transmitter Enable = Enabled
	// Baud Rate Register = 51
	//     (9600 baud, 0,2 %error)
	UCSRC = 0b10000110;		// 8bit,1STbit
     e44:	96 e8       	ldi	r25, 0x86	; 134
     e46:	90 bd       	out	0x20, r25	; 32
	
	UBRRL = 103;		// RSEL,baud rate .2% error
     e48:	97 e6       	ldi	r25, 0x67	; 103
     e4a:	99 b9       	out	0x09, r25	; 9
	UCSRB = 0x08;	// (1<<TXEN0)
     e4c:	8a b9       	out	0x0a, r24	; 10
	sei();
     e4e:	78 94       	sei
     e50:	08 95       	ret

00000e52 <rateset>:


void rateset(signed char x)
{  
	
    rate+=x;                       // add +1 or -1
     e52:	90 91 52 05 	lds	r25, 0x0552
     e56:	89 0f       	add	r24, r25
     e58:	80 93 52 05 	sts	0x0552, r24
    if (rate==255)rate = 3;			// if decremented from zero
     e5c:	8f 3f       	cpi	r24, 0xFF	; 255
     e5e:	21 f4       	brne	.+8      	; 0xe68 <rateset+0x16>
     e60:	83 e0       	ldi	r24, 0x03	; 3
     e62:	80 93 52 05 	sts	0x0552, r24
     e66:	19 c0       	rjmp	.+50     	; 0xe9a <rateset+0x48>
    else if (rate>3)rate = 0;
     e68:	84 30       	cpi	r24, 0x04	; 4
     e6a:	18 f0       	brcs	.+6      	; 0xe72 <rateset+0x20>
     e6c:	10 92 52 05 	sts	0x0552, r1
     e70:	08 c0       	rjmp	.+16     	; 0xe82 <rateset+0x30>
    
    switch (rate)
     e72:	81 30       	cpi	r24, 0x01	; 1
     e74:	51 f0       	breq	.+20     	; 0xe8a <rateset+0x38>
     e76:	28 f0       	brcs	.+10     	; 0xe82 <rateset+0x30>
     e78:	82 30       	cpi	r24, 0x02	; 2
     e7a:	59 f0       	breq	.+22     	; 0xe92 <rateset+0x40>
     e7c:	83 30       	cpi	r24, 0x03	; 3
     e7e:	81 f4       	brne	.+32     	; 0xea0 <rateset+0x4e>
     e80:	0c c0       	rjmp	.+24     	; 0xe9a <rateset+0x48>
    {
        case 0: sample_rate=fivemin;    
     e82:	8c e0       	ldi	r24, 0x0C	; 12
     e84:	80 93 65 00 	sts	0x0065, r24
        break;
     e88:	08 95       	ret
        case 1: sample_rate=tenmin; 
     e8a:	86 e0       	ldi	r24, 0x06	; 6
     e8c:	80 93 65 00 	sts	0x0065, r24
        break;
     e90:	08 95       	ret
        case 2: sample_rate=fifteenmin; 
     e92:	84 e0       	ldi	r24, 0x04	; 4
     e94:	80 93 65 00 	sts	0x0065, r24
        break;
     e98:	08 95       	ret
        case 3: sample_rate=twentymin;         
     e9a:	83 e0       	ldi	r24, 0x03	; 3
     e9c:	80 93 65 00 	sts	0x0065, r24
     ea0:	08 95       	ret

00000ea2 <keyp_exe>:
{ 
    bool changed=false;                 //flag
    signed char t;                      // inc and decr
       
    
    switch (modus)
     ea2:	80 91 53 05 	lds	r24, 0x0553
     ea6:	90 e0       	ldi	r25, 0x00	; 0
     ea8:	88 30       	cpi	r24, 0x08	; 8
     eaa:	91 05       	cpc	r25, r1
     eac:	08 f0       	brcs	.+2      	; 0xeb0 <keyp_exe+0xe>
     eae:	b6 c3       	rjmp	.+1900   	; 0x161c <keyp_exe+0x77a>
     eb0:	fc 01       	movw	r30, r24
     eb2:	e6 5d       	subi	r30, 0xD6	; 214
     eb4:	ff 4f       	sbci	r31, 0xFF	; 255
     eb6:	0c 94 e6 11 	jmp	0x23cc	; 0x23cc <__tablejump2__>
    {
        case 0:                         // start with any key
            sprintf (display1,"\1 remove stick? ");
     eba:	81 e1       	ldi	r24, 0x11	; 17
     ebc:	e0 eb       	ldi	r30, 0xB0	; 176
     ebe:	f1 e0       	ldi	r31, 0x01	; 1
     ec0:	ab ea       	ldi	r26, 0xAB	; 171
     ec2:	b5 e0       	ldi	r27, 0x05	; 5
     ec4:	01 90       	ld	r0, Z+
     ec6:	0d 92       	st	X+, r0
     ec8:	8a 95       	dec	r24
     eca:	e1 f7       	brne	.-8      	; 0xec4 <keyp_exe+0x22>
			while(LCD());
     ecc:	0e 94 ff 03 	call	0x7fe	; 0x7fe <LCD>
     ed0:	81 11       	cpse	r24, r1
     ed2:	fc cf       	rjmp	.-8      	; 0xecc <keyp_exe+0x2a>
			waitsec = 1;
     ed4:	81 e0       	ldi	r24, 0x01	; 1
     ed6:	80 93 50 05 	sts	0x0550, r24
			while (waitsec!=0);  
     eda:	80 91 50 05 	lds	r24, 0x0550
     ede:	81 11       	cpse	r24, r1
     ee0:	fc cf       	rjmp	.-8      	; 0xeda <keyp_exe+0x38>
            sprintf (display2,"\2nxt   yes    ret");
     ee2:	82 e1       	ldi	r24, 0x12	; 18
     ee4:	e1 ec       	ldi	r30, 0xC1	; 193
     ee6:	f1 e0       	ldi	r31, 0x01	; 1
     ee8:	a2 e9       	ldi	r26, 0x92	; 146
     eea:	b5 e0       	ldi	r27, 0x05	; 5
     eec:	01 90       	ld	r0, Z+
     eee:	0d 92       	st	X+, r0
     ef0:	8a 95       	dec	r24
     ef2:	e1 f7       	brne	.-8      	; 0xeec <keyp_exe+0x4a>
			while(LCD());
     ef4:	0e 94 ff 03 	call	0x7fe	; 0x7fe <LCD>
     ef8:	81 11       	cpse	r24, r1
     efa:	fc cf       	rjmp	.-8      	; 0xef4 <keyp_exe+0x52>
            modus++;  
     efc:	80 91 53 05 	lds	r24, 0x0553
     f00:	8f 5f       	subi	r24, 0xFF	; 255
     f02:	80 93 53 05 	sts	0x0553, r24
        break;
     f06:	8a c3       	rjmp	.+1812   	; 0x161c <keyp_exe+0x77a>
        case 1:                         //set year:
             if (keys==next)
     f08:	80 91 e2 05 	lds	r24, 0x05E2
     f0c:	82 30       	cpi	r24, 0x02	; 2
     f0e:	01 f5       	brne	.+64     	; 0xf50 <keyp_exe+0xae>
            {
                sprintf (display1,"\1   Set year     ");
     f10:	82 e1       	ldi	r24, 0x12	; 18
     f12:	e3 ed       	ldi	r30, 0xD3	; 211
     f14:	f1 e0       	ldi	r31, 0x01	; 1
     f16:	ab ea       	ldi	r26, 0xAB	; 171
     f18:	b5 e0       	ldi	r27, 0x05	; 5
     f1a:	01 90       	ld	r0, Z+
     f1c:	0d 92       	st	X+, r0
     f1e:	8a 95       	dec	r24
     f20:	e1 f7       	brne	.-8      	; 0xf1a <keyp_exe+0x78>
				while(LCD());
     f22:	0e 94 ff 03 	call	0x7fe	; 0x7fe <LCD>
     f26:	81 11       	cpse	r24, r1
     f28:	fc cf       	rjmp	.-8      	; 0xf22 <keyp_exe+0x80>
                sprintf (display2,"\2nxt    +      - ");
     f2a:	82 e1       	ldi	r24, 0x12	; 18
     f2c:	e5 ee       	ldi	r30, 0xE5	; 229
     f2e:	f1 e0       	ldi	r31, 0x01	; 1
     f30:	a2 e9       	ldi	r26, 0x92	; 146
     f32:	b5 e0       	ldi	r27, 0x05	; 5
     f34:	01 90       	ld	r0, Z+
     f36:	0d 92       	st	X+, r0
     f38:	8a 95       	dec	r24
     f3a:	e1 f7       	brne	.-8      	; 0xf34 <keyp_exe+0x92>
				while(LCD());
     f3c:	0e 94 ff 03 	call	0x7fe	; 0x7fe <LCD>
     f40:	81 11       	cpse	r24, r1
     f42:	fc cf       	rjmp	.-8      	; 0xf3c <keyp_exe+0x9a>
                modus++;
     f44:	80 91 53 05 	lds	r24, 0x0553
     f48:	8f 5f       	subi	r24, 0xFF	; 255
     f4a:	80 93 53 05 	sts	0x0553, r24
     f4e:	66 c3       	rjmp	.+1740   	; 0x161c <keyp_exe+0x77a>
            }
            else if (keys==yes) 
     f50:	80 91 e2 05 	lds	r24, 0x05E2
     f54:	81 30       	cpi	r24, 0x01	; 1
     f56:	09 f0       	breq	.+2      	; 0xf5a <keyp_exe+0xb8>
     f58:	40 c0       	rjmp	.+128    	; 0xfda <keyp_exe+0x138>
            {
                PORTD &= ~(1<<5);	//reset close file
     f5a:	95 98       	cbi	0x12, 5	; 18
	#else
		//round up by default
		__ticks_dc = (uint32_t)(ceil(fabs(__tmp)));
	#endif

	__builtin_avr_delay_cycles(__ticks_dc);
     f5c:	8f ef       	ldi	r24, 0xFF	; 255
     f5e:	99 ef       	ldi	r25, 0xF9	; 249
     f60:	01 97       	sbiw	r24, 0x01	; 1
     f62:	f1 f7       	brne	.-4      	; 0xf60 <keyp_exe+0xbe>
     f64:	00 c0       	rjmp	.+0      	; 0xf66 <keyp_exe+0xc4>
     f66:	00 00       	nop
				_delay_ms(16);
                PORTD |= (1<<5);	// set
     f68:	95 9a       	sbi	0x12, 5	; 18
     f6a:	9f ef       	ldi	r25, 0xFF	; 255
     f6c:	27 ea       	ldi	r18, 0xA7	; 167
     f6e:	81 e6       	ldi	r24, 0x61	; 97
     f70:	91 50       	subi	r25, 0x01	; 1
     f72:	20 40       	sbci	r18, 0x00	; 0
     f74:	80 40       	sbci	r24, 0x00	; 0
     f76:	e1 f7       	brne	.-8      	; 0xf70 <keyp_exe+0xce>
     f78:	00 c0       	rjmp	.+0      	; 0xf7a <keyp_exe+0xd8>
     f7a:	00 00       	nop
				_delay_ms(2000);
                sprintf (display1,"\1  remove stick   ");
     f7c:	83 e1       	ldi	r24, 0x13	; 19
     f7e:	e7 ef       	ldi	r30, 0xF7	; 247
     f80:	f1 e0       	ldi	r31, 0x01	; 1
     f82:	ab ea       	ldi	r26, 0xAB	; 171
     f84:	b5 e0       	ldi	r27, 0x05	; 5
     f86:	01 90       	ld	r0, Z+
     f88:	0d 92       	st	X+, r0
     f8a:	8a 95       	dec	r24
     f8c:	e1 f7       	brne	.-8      	; 0xf86 <keyp_exe+0xe4>
				sprintf (display2,"\2                 ");
     f8e:	83 e1       	ldi	r24, 0x13	; 19
     f90:	ea e0       	ldi	r30, 0x0A	; 10
     f92:	f2 e0       	ldi	r31, 0x02	; 2
     f94:	a2 e9       	ldi	r26, 0x92	; 146
     f96:	b5 e0       	ldi	r27, 0x05	; 5
     f98:	01 90       	ld	r0, Z+
     f9a:	0d 92       	st	X+, r0
     f9c:	8a 95       	dec	r24
     f9e:	e1 f7       	brne	.-8      	; 0xf98 <keyp_exe+0xf6>
				while(LCD());
     fa0:	0e 94 ff 03 	call	0x7fe	; 0x7fe <LCD>
     fa4:	81 11       	cpse	r24, r1
     fa6:	fc cf       	rjmp	.-8      	; 0xfa0 <keyp_exe+0xfe>
				waitsec=5;
     fa8:	85 e0       	ldi	r24, 0x05	; 5
     faa:	80 93 50 05 	sts	0x0550, r24
				while (waitsec!=0);
     fae:	80 91 50 05 	lds	r24, 0x0550
     fb2:	81 11       	cpse	r24, r1
     fb4:	fc cf       	rjmp	.-8      	; 0xfae <keyp_exe+0x10c>
				
                modus=0;                 
     fb6:	10 92 53 05 	sts	0x0553, r1
                update=true;
     fba:	81 e0       	ldi	r24, 0x01	; 1
     fbc:	80 93 56 05 	sts	0x0556, r24
                displmod=0;
     fc0:	10 92 c5 05 	sts	0x05C5, r1
     fc4:	10 92 c4 05 	sts	0x05C4, r1
                entries=0;
     fc8:	10 92 61 00 	sts	0x0061, r1
     fcc:	10 92 62 00 	sts	0x0062, r1
     fd0:	10 92 63 00 	sts	0x0063, r1
     fd4:	10 92 64 00 	sts	0x0064, r1
     fd8:	21 c3       	rjmp	.+1602   	; 0x161c <keyp_exe+0x77a>
            }
            else if (keys==ret)
     fda:	80 91 e2 05 	lds	r24, 0x05E2
     fde:	84 30       	cpi	r24, 0x04	; 4
     fe0:	09 f0       	breq	.+2      	; 0xfe4 <keyp_exe+0x142>
     fe2:	1c c3       	rjmp	.+1592   	; 0x161c <keyp_exe+0x77a>
            {
                modus=0;                   
     fe4:	10 92 53 05 	sts	0x0553, r1
                update=true;
     fe8:	81 e0       	ldi	r24, 0x01	; 1
     fea:	80 93 56 05 	sts	0x0556, r24
                displmod=0;
     fee:	10 92 c5 05 	sts	0x05C5, r1
     ff2:	10 92 c4 05 	sts	0x05C4, r1
     ff6:	12 c3       	rjmp	.+1572   	; 0x161c <keyp_exe+0x77a>
            }   
        break;
        case 2:                         //set month:
            if (keys==next)
     ff8:	80 91 e2 05 	lds	r24, 0x05E2
     ffc:	82 30       	cpi	r24, 0x02	; 2
     ffe:	e1 f4       	brne	.+56     	; 0x1038 <keyp_exe+0x196>
            {
                sprintf (display1,"\1   Set month    ");
    1000:	82 e1       	ldi	r24, 0x12	; 18
    1002:	ed e1       	ldi	r30, 0x1D	; 29
    1004:	f2 e0       	ldi	r31, 0x02	; 2
    1006:	ab ea       	ldi	r26, 0xAB	; 171
    1008:	b5 e0       	ldi	r27, 0x05	; 5
    100a:	01 90       	ld	r0, Z+
    100c:	0d 92       	st	X+, r0
    100e:	8a 95       	dec	r24
    1010:	e1 f7       	brne	.-8      	; 0x100a <keyp_exe+0x168>
                sprintf (display2,"\2nxt    +      - ");
    1012:	82 e1       	ldi	r24, 0x12	; 18
    1014:	e5 ee       	ldi	r30, 0xE5	; 229
    1016:	f1 e0       	ldi	r31, 0x01	; 1
    1018:	a2 e9       	ldi	r26, 0x92	; 146
    101a:	b5 e0       	ldi	r27, 0x05	; 5
    101c:	01 90       	ld	r0, Z+
    101e:	0d 92       	st	X+, r0
    1020:	8a 95       	dec	r24
    1022:	e1 f7       	brne	.-8      	; 0x101c <keyp_exe+0x17a>
				while(LCD());
    1024:	0e 94 ff 03 	call	0x7fe	; 0x7fe <LCD>
    1028:	81 11       	cpse	r24, r1
    102a:	fc cf       	rjmp	.-8      	; 0x1024 <keyp_exe+0x182>
                if (changed) setFebruary();
                changed = false;                        
                modus++;
    102c:	80 91 53 05 	lds	r24, 0x0553
    1030:	8f 5f       	subi	r24, 0xFF	; 255
    1032:	80 93 53 05 	sts	0x0553, r24
    1036:	f2 c2       	rjmp	.+1508   	; 0x161c <keyp_exe+0x77a>
            }
            else if (keys == inc)
    1038:	80 91 e2 05 	lds	r24, 0x05E2
    103c:	81 30       	cpi	r24, 0x01	; 1
    103e:	79 f5       	brne	.+94     	; 0x109e <keyp_exe+0x1fc>
            {   
                if (++year>49)year=10;
    1040:	80 91 67 00 	lds	r24, 0x0067
    1044:	8f 5f       	subi	r24, 0xFF	; 255
    1046:	80 93 67 00 	sts	0x0067, r24
    104a:	82 33       	cpi	r24, 0x32	; 50
    104c:	18 f0       	brcs	.+6      	; 0x1054 <keyp_exe+0x1b2>
    104e:	8a e0       	ldi	r24, 0x0A	; 10
    1050:	80 93 67 00 	sts	0x0067, r24
                sprintf (display1,"\1 year %4d      ",(unsigned int)year+2000);
    1054:	80 91 67 00 	lds	r24, 0x0067
    1058:	90 e0       	ldi	r25, 0x00	; 0
    105a:	80 53       	subi	r24, 0x30	; 48
    105c:	98 4f       	sbci	r25, 0xF8	; 248
    105e:	9f 93       	push	r25
    1060:	8f 93       	push	r24
    1062:	8f e2       	ldi	r24, 0x2F	; 47
    1064:	92 e0       	ldi	r25, 0x02	; 2
    1066:	9f 93       	push	r25
    1068:	8f 93       	push	r24
    106a:	8b ea       	ldi	r24, 0xAB	; 171
    106c:	95 e0       	ldi	r25, 0x05	; 5
    106e:	9f 93       	push	r25
    1070:	8f 93       	push	r24
    1072:	0e 94 3c 12 	call	0x2478	; 0x2478 <sprintf>
                sprintf (display2,"\2nxt    +      - ");
    1076:	82 e1       	ldi	r24, 0x12	; 18
    1078:	e5 ee       	ldi	r30, 0xE5	; 229
    107a:	f1 e0       	ldi	r31, 0x01	; 1
    107c:	a2 e9       	ldi	r26, 0x92	; 146
    107e:	b5 e0       	ldi	r27, 0x05	; 5
    1080:	01 90       	ld	r0, Z+
    1082:	0d 92       	st	X+, r0
    1084:	8a 95       	dec	r24
    1086:	e1 f7       	brne	.-8      	; 0x1080 <keyp_exe+0x1de>
				while(LCD());
    1088:	0f 90       	pop	r0
    108a:	0f 90       	pop	r0
    108c:	0f 90       	pop	r0
    108e:	0f 90       	pop	r0
    1090:	0f 90       	pop	r0
    1092:	0f 90       	pop	r0
    1094:	0e 94 ff 03 	call	0x7fe	; 0x7fe <LCD>
    1098:	81 11       	cpse	r24, r1
    109a:	fc cf       	rjmp	.-8      	; 0x1094 <keyp_exe+0x1f2>
    109c:	bf c2       	rjmp	.+1406   	; 0x161c <keyp_exe+0x77a>
                changed=true;               
            }
            else if (keys== dec)
    109e:	80 91 e2 05 	lds	r24, 0x05E2
    10a2:	84 30       	cpi	r24, 0x04	; 4
    10a4:	09 f0       	breq	.+2      	; 0x10a8 <keyp_exe+0x206>
    10a6:	ba c2       	rjmp	.+1396   	; 0x161c <keyp_exe+0x77a>
            {
                if (--year<10)year=49;
    10a8:	80 91 67 00 	lds	r24, 0x0067
    10ac:	81 50       	subi	r24, 0x01	; 1
    10ae:	80 93 67 00 	sts	0x0067, r24
    10b2:	8a 30       	cpi	r24, 0x0A	; 10
    10b4:	18 f4       	brcc	.+6      	; 0x10bc <keyp_exe+0x21a>
    10b6:	81 e3       	ldi	r24, 0x31	; 49
    10b8:	80 93 67 00 	sts	0x0067, r24
                sprintf (display1,"\1 year %4d      ",(unsigned int)year+2000);
    10bc:	80 91 67 00 	lds	r24, 0x0067
    10c0:	90 e0       	ldi	r25, 0x00	; 0
    10c2:	80 53       	subi	r24, 0x30	; 48
    10c4:	98 4f       	sbci	r25, 0xF8	; 248
    10c6:	9f 93       	push	r25
    10c8:	8f 93       	push	r24
    10ca:	8f e2       	ldi	r24, 0x2F	; 47
    10cc:	92 e0       	ldi	r25, 0x02	; 2
    10ce:	9f 93       	push	r25
    10d0:	8f 93       	push	r24
    10d2:	8b ea       	ldi	r24, 0xAB	; 171
    10d4:	95 e0       	ldi	r25, 0x05	; 5
    10d6:	9f 93       	push	r25
    10d8:	8f 93       	push	r24
    10da:	0e 94 3c 12 	call	0x2478	; 0x2478 <sprintf>
                sprintf (display2,"\2nxt    +      - "); 
    10de:	82 e1       	ldi	r24, 0x12	; 18
    10e0:	e5 ee       	ldi	r30, 0xE5	; 229
    10e2:	f1 e0       	ldi	r31, 0x01	; 1
    10e4:	a2 e9       	ldi	r26, 0x92	; 146
    10e6:	b5 e0       	ldi	r27, 0x05	; 5
    10e8:	01 90       	ld	r0, Z+
    10ea:	0d 92       	st	X+, r0
    10ec:	8a 95       	dec	r24
    10ee:	e1 f7       	brne	.-8      	; 0x10e8 <keyp_exe+0x246>
				while(LCD());               
    10f0:	0f 90       	pop	r0
    10f2:	0f 90       	pop	r0
    10f4:	0f 90       	pop	r0
    10f6:	0f 90       	pop	r0
    10f8:	0f 90       	pop	r0
    10fa:	0f 90       	pop	r0
    10fc:	0e 94 ff 03 	call	0x7fe	; 0x7fe <LCD>
    1100:	81 11       	cpse	r24, r1
    1102:	fc cf       	rjmp	.-8      	; 0x10fc <keyp_exe+0x25a>
    1104:	8b c2       	rjmp	.+1302   	; 0x161c <keyp_exe+0x77a>
                changed=true;                               
            }
        break;                
        case 3:                             // set date:
            if (keys ==next)
    1106:	80 91 e2 05 	lds	r24, 0x05E2
    110a:	82 30       	cpi	r24, 0x02	; 2
    110c:	f9 f4       	brne	.+62     	; 0x114c <keyp_exe+0x2aa>
            {
                sprintf (display1,"\1   Set date     ");
    110e:	82 e1       	ldi	r24, 0x12	; 18
    1110:	e0 e4       	ldi	r30, 0x40	; 64
    1112:	f2 e0       	ldi	r31, 0x02	; 2
    1114:	ab ea       	ldi	r26, 0xAB	; 171
    1116:	b5 e0       	ldi	r27, 0x05	; 5
    1118:	01 90       	ld	r0, Z+
    111a:	0d 92       	st	X+, r0
    111c:	8a 95       	dec	r24
    111e:	e1 f7       	brne	.-8      	; 0x1118 <keyp_exe+0x276>
                sprintf (display2,"\2nxt    +      - ");
    1120:	82 e1       	ldi	r24, 0x12	; 18
    1122:	e5 ee       	ldi	r30, 0xE5	; 229
    1124:	f1 e0       	ldi	r31, 0x01	; 1
    1126:	a2 e9       	ldi	r26, 0x92	; 146
    1128:	b5 e0       	ldi	r27, 0x05	; 5
    112a:	01 90       	ld	r0, Z+
    112c:	0d 92       	st	X+, r0
    112e:	8a 95       	dec	r24
    1130:	e1 f7       	brne	.-8      	; 0x112a <keyp_exe+0x288>
				while(LCD());
    1132:	0e 94 ff 03 	call	0x7fe	; 0x7fe <LCD>
    1136:	81 11       	cpse	r24, r1
    1138:	fc cf       	rjmp	.-8      	; 0x1132 <keyp_exe+0x290>
                modus++;
    113a:	80 91 53 05 	lds	r24, 0x0553
    113e:	8f 5f       	subi	r24, 0xFF	; 255
    1140:	80 93 53 05 	sts	0x0553, r24
                day=1;
    1144:	81 e0       	ldi	r24, 0x01	; 1
    1146:	80 93 6a 00 	sts	0x006A, r24
    114a:	68 c2       	rjmp	.+1232   	; 0x161c <keyp_exe+0x77a>
            }
            else if (keys==inc)
    114c:	80 91 e2 05 	lds	r24, 0x05E2
    1150:	81 30       	cpi	r24, 0x01	; 1
    1152:	a9 f5       	brne	.+106    	; 0x11be <keyp_exe+0x31c>
            {
                if (++month>12) month=1;
    1154:	80 91 68 00 	lds	r24, 0x0068
    1158:	90 91 69 00 	lds	r25, 0x0069
    115c:	01 96       	adiw	r24, 0x01	; 1
    115e:	90 93 69 00 	sts	0x0069, r25
    1162:	80 93 68 00 	sts	0x0068, r24
    1166:	0d 97       	sbiw	r24, 0x0d	; 13
    1168:	30 f0       	brcs	.+12     	; 0x1176 <keyp_exe+0x2d4>
    116a:	81 e0       	ldi	r24, 0x01	; 1
    116c:	90 e0       	ldi	r25, 0x00	; 0
    116e:	90 93 69 00 	sts	0x0069, r25
    1172:	80 93 68 00 	sts	0x0068, r24
                sprintf (display1,"\1 month %2d       ", month);
    1176:	80 91 68 00 	lds	r24, 0x0068
    117a:	90 91 69 00 	lds	r25, 0x0069
    117e:	9f 93       	push	r25
    1180:	8f 93       	push	r24
    1182:	82 e5       	ldi	r24, 0x52	; 82
    1184:	92 e0       	ldi	r25, 0x02	; 2
    1186:	9f 93       	push	r25
    1188:	8f 93       	push	r24
    118a:	8b ea       	ldi	r24, 0xAB	; 171
    118c:	95 e0       	ldi	r25, 0x05	; 5
    118e:	9f 93       	push	r25
    1190:	8f 93       	push	r24
    1192:	0e 94 3c 12 	call	0x2478	; 0x2478 <sprintf>
                sprintf (display2,"\2 nxt    +       - ");
    1196:	84 e1       	ldi	r24, 0x14	; 20
    1198:	e5 e6       	ldi	r30, 0x65	; 101
    119a:	f2 e0       	ldi	r31, 0x02	; 2
    119c:	a2 e9       	ldi	r26, 0x92	; 146
    119e:	b5 e0       	ldi	r27, 0x05	; 5
    11a0:	01 90       	ld	r0, Z+
    11a2:	0d 92       	st	X+, r0
    11a4:	8a 95       	dec	r24
    11a6:	e1 f7       	brne	.-8      	; 0x11a0 <keyp_exe+0x2fe>
				while(LCD()); 
    11a8:	0f 90       	pop	r0
    11aa:	0f 90       	pop	r0
    11ac:	0f 90       	pop	r0
    11ae:	0f 90       	pop	r0
    11b0:	0f 90       	pop	r0
    11b2:	0f 90       	pop	r0
    11b4:	0e 94 ff 03 	call	0x7fe	; 0x7fe <LCD>
    11b8:	81 11       	cpse	r24, r1
    11ba:	fc cf       	rjmp	.-8      	; 0x11b4 <keyp_exe+0x312>
    11bc:	2f c2       	rjmp	.+1118   	; 0x161c <keyp_exe+0x77a>
                changed=true;           
            }
            else if (keys==dec)
    11be:	80 91 e2 05 	lds	r24, 0x05E2
    11c2:	84 30       	cpi	r24, 0x04	; 4
    11c4:	09 f0       	breq	.+2      	; 0x11c8 <keyp_exe+0x326>
    11c6:	2a c2       	rjmp	.+1108   	; 0x161c <keyp_exe+0x77a>
            {
                if (--month==0) month=12;
    11c8:	80 91 68 00 	lds	r24, 0x0068
    11cc:	90 91 69 00 	lds	r25, 0x0069
    11d0:	01 97       	sbiw	r24, 0x01	; 1
    11d2:	90 93 69 00 	sts	0x0069, r25
    11d6:	80 93 68 00 	sts	0x0068, r24
    11da:	89 2b       	or	r24, r25
    11dc:	31 f4       	brne	.+12     	; 0x11ea <keyp_exe+0x348>
    11de:	8c e0       	ldi	r24, 0x0C	; 12
    11e0:	90 e0       	ldi	r25, 0x00	; 0
    11e2:	90 93 69 00 	sts	0x0069, r25
    11e6:	80 93 68 00 	sts	0x0068, r24
                sprintf (display1,"\1 month %2d       ",month);
    11ea:	80 91 68 00 	lds	r24, 0x0068
    11ee:	90 91 69 00 	lds	r25, 0x0069
    11f2:	9f 93       	push	r25
    11f4:	8f 93       	push	r24
    11f6:	82 e5       	ldi	r24, 0x52	; 82
    11f8:	92 e0       	ldi	r25, 0x02	; 2
    11fa:	9f 93       	push	r25
    11fc:	8f 93       	push	r24
    11fe:	8b ea       	ldi	r24, 0xAB	; 171
    1200:	95 e0       	ldi	r25, 0x05	; 5
    1202:	9f 93       	push	r25
    1204:	8f 93       	push	r24
    1206:	0e 94 3c 12 	call	0x2478	; 0x2478 <sprintf>
                sprintf (display2,"\2nxt    +      - "); 
    120a:	82 e1       	ldi	r24, 0x12	; 18
    120c:	e5 ee       	ldi	r30, 0xE5	; 229
    120e:	f1 e0       	ldi	r31, 0x01	; 1
    1210:	a2 e9       	ldi	r26, 0x92	; 146
    1212:	b5 e0       	ldi	r27, 0x05	; 5
    1214:	01 90       	ld	r0, Z+
    1216:	0d 92       	st	X+, r0
    1218:	8a 95       	dec	r24
    121a:	e1 f7       	brne	.-8      	; 0x1214 <keyp_exe+0x372>
				while(LCD());
    121c:	0f 90       	pop	r0
    121e:	0f 90       	pop	r0
    1220:	0f 90       	pop	r0
    1222:	0f 90       	pop	r0
    1224:	0f 90       	pop	r0
    1226:	0f 90       	pop	r0
    1228:	0e 94 ff 03 	call	0x7fe	; 0x7fe <LCD>
    122c:	81 11       	cpse	r24, r1
    122e:	fc cf       	rjmp	.-8      	; 0x1228 <keyp_exe+0x386>
    1230:	f5 c1       	rjmp	.+1002   	; 0x161c <keyp_exe+0x77a>
                changed=true;               
            }                
         break;        
         case 4:                        //set hours:
            if (keys ==next)
    1232:	80 91 e2 05 	lds	r24, 0x05E2
    1236:	82 30       	cpi	r24, 0x02	; 2
    1238:	e1 f4       	brne	.+56     	; 0x1272 <keyp_exe+0x3d0>
            {
                sprintf (display1,"\1   Set hours    ");
    123a:	82 e1       	ldi	r24, 0x12	; 18
    123c:	e9 e7       	ldi	r30, 0x79	; 121
    123e:	f2 e0       	ldi	r31, 0x02	; 2
    1240:	ab ea       	ldi	r26, 0xAB	; 171
    1242:	b5 e0       	ldi	r27, 0x05	; 5
    1244:	01 90       	ld	r0, Z+
    1246:	0d 92       	st	X+, r0
    1248:	8a 95       	dec	r24
    124a:	e1 f7       	brne	.-8      	; 0x1244 <keyp_exe+0x3a2>
                sprintf (display2,"\2nxt   +       - ");
    124c:	82 e1       	ldi	r24, 0x12	; 18
    124e:	eb e8       	ldi	r30, 0x8B	; 139
    1250:	f2 e0       	ldi	r31, 0x02	; 2
    1252:	a2 e9       	ldi	r26, 0x92	; 146
    1254:	b5 e0       	ldi	r27, 0x05	; 5
    1256:	01 90       	ld	r0, Z+
    1258:	0d 92       	st	X+, r0
    125a:	8a 95       	dec	r24
    125c:	e1 f7       	brne	.-8      	; 0x1256 <keyp_exe+0x3b4>
				while(LCD());
    125e:	0e 94 ff 03 	call	0x7fe	; 0x7fe <LCD>
    1262:	81 11       	cpse	r24, r1
    1264:	fc cf       	rjmp	.-8      	; 0x125e <keyp_exe+0x3bc>
                modus++;  
    1266:	80 91 53 05 	lds	r24, 0x0553
    126a:	8f 5f       	subi	r24, 0xFF	; 255
    126c:	80 93 53 05 	sts	0x0553, r24
    1270:	d5 c1       	rjmp	.+938    	; 0x161c <keyp_exe+0x77a>
            }
            else if (keys==inc)
    1272:	80 91 e2 05 	lds	r24, 0x05E2
    1276:	81 30       	cpi	r24, 0x01	; 1
    1278:	99 f5       	brne	.+102    	; 0x12e0 <keyp_exe+0x43e>
            {
                if (++day>mdays[month])day=1;
    127a:	80 91 6a 00 	lds	r24, 0x006A
    127e:	8f 5f       	subi	r24, 0xFF	; 255
    1280:	80 93 6a 00 	sts	0x006A, r24
    1284:	e0 91 68 00 	lds	r30, 0x0068
    1288:	f0 91 69 00 	lds	r31, 0x0069
    128c:	e3 59       	subi	r30, 0x93	; 147
    128e:	ff 4f       	sbci	r31, 0xFF	; 255
    1290:	90 81       	ld	r25, Z
    1292:	98 17       	cp	r25, r24
    1294:	18 f4       	brcc	.+6      	; 0x129c <keyp_exe+0x3fa>
    1296:	81 e0       	ldi	r24, 0x01	; 1
    1298:	80 93 6a 00 	sts	0x006A, r24
                sprintf (display1,"\1 day %2d        ", day);
    129c:	80 91 6a 00 	lds	r24, 0x006A
    12a0:	1f 92       	push	r1
    12a2:	8f 93       	push	r24
    12a4:	8d e9       	ldi	r24, 0x9D	; 157
    12a6:	92 e0       	ldi	r25, 0x02	; 2
    12a8:	9f 93       	push	r25
    12aa:	8f 93       	push	r24
    12ac:	8b ea       	ldi	r24, 0xAB	; 171
    12ae:	95 e0       	ldi	r25, 0x05	; 5
    12b0:	9f 93       	push	r25
    12b2:	8f 93       	push	r24
    12b4:	0e 94 3c 12 	call	0x2478	; 0x2478 <sprintf>
                sprintf (display2,"\2nxt    +      - "); 
    12b8:	82 e1       	ldi	r24, 0x12	; 18
    12ba:	e5 ee       	ldi	r30, 0xE5	; 229
    12bc:	f1 e0       	ldi	r31, 0x01	; 1
    12be:	a2 e9       	ldi	r26, 0x92	; 146
    12c0:	b5 e0       	ldi	r27, 0x05	; 5
    12c2:	01 90       	ld	r0, Z+
    12c4:	0d 92       	st	X+, r0
    12c6:	8a 95       	dec	r24
    12c8:	e1 f7       	brne	.-8      	; 0x12c2 <keyp_exe+0x420>
				while(LCD());                              
    12ca:	0f 90       	pop	r0
    12cc:	0f 90       	pop	r0
    12ce:	0f 90       	pop	r0
    12d0:	0f 90       	pop	r0
    12d2:	0f 90       	pop	r0
    12d4:	0f 90       	pop	r0
    12d6:	0e 94 ff 03 	call	0x7fe	; 0x7fe <LCD>
    12da:	81 11       	cpse	r24, r1
    12dc:	fc cf       	rjmp	.-8      	; 0x12d6 <keyp_exe+0x434>
    12de:	9e c1       	rjmp	.+828    	; 0x161c <keyp_exe+0x77a>
            }
            else if (keys==dec)
    12e0:	80 91 e2 05 	lds	r24, 0x05E2
    12e4:	84 30       	cpi	r24, 0x04	; 4
    12e6:	09 f0       	breq	.+2      	; 0x12ea <keyp_exe+0x448>
    12e8:	99 c1       	rjmp	.+818    	; 0x161c <keyp_exe+0x77a>
            {
                if (--day>mdays[month])day=1;
    12ea:	80 91 6a 00 	lds	r24, 0x006A
    12ee:	81 50       	subi	r24, 0x01	; 1
    12f0:	80 93 6a 00 	sts	0x006A, r24
    12f4:	e0 91 68 00 	lds	r30, 0x0068
    12f8:	f0 91 69 00 	lds	r31, 0x0069
    12fc:	e3 59       	subi	r30, 0x93	; 147
    12fe:	ff 4f       	sbci	r31, 0xFF	; 255
    1300:	90 81       	ld	r25, Z
    1302:	98 17       	cp	r25, r24
    1304:	18 f4       	brcc	.+6      	; 0x130c <keyp_exe+0x46a>
    1306:	81 e0       	ldi	r24, 0x01	; 1
    1308:	80 93 6a 00 	sts	0x006A, r24
                sprintf (display1,"\1 day %2d         ",day);
    130c:	80 91 6a 00 	lds	r24, 0x006A
    1310:	1f 92       	push	r1
    1312:	8f 93       	push	r24
    1314:	8f ea       	ldi	r24, 0xAF	; 175
    1316:	92 e0       	ldi	r25, 0x02	; 2
    1318:	9f 93       	push	r25
    131a:	8f 93       	push	r24
    131c:	8b ea       	ldi	r24, 0xAB	; 171
    131e:	95 e0       	ldi	r25, 0x05	; 5
    1320:	9f 93       	push	r25
    1322:	8f 93       	push	r24
    1324:	0e 94 3c 12 	call	0x2478	; 0x2478 <sprintf>
                sprintf (display2,"\2nxt    +       - "); 
    1328:	83 e1       	ldi	r24, 0x13	; 19
    132a:	e2 ec       	ldi	r30, 0xC2	; 194
    132c:	f2 e0       	ldi	r31, 0x02	; 2
    132e:	a2 e9       	ldi	r26, 0x92	; 146
    1330:	b5 e0       	ldi	r27, 0x05	; 5
    1332:	01 90       	ld	r0, Z+
    1334:	0d 92       	st	X+, r0
    1336:	8a 95       	dec	r24
    1338:	e1 f7       	brne	.-8      	; 0x1332 <keyp_exe+0x490>
				while(LCD());                               
    133a:	0f 90       	pop	r0
    133c:	0f 90       	pop	r0
    133e:	0f 90       	pop	r0
    1340:	0f 90       	pop	r0
    1342:	0f 90       	pop	r0
    1344:	0f 90       	pop	r0
    1346:	0e 94 ff 03 	call	0x7fe	; 0x7fe <LCD>
    134a:	81 11       	cpse	r24, r1
    134c:	fc cf       	rjmp	.-8      	; 0x1346 <keyp_exe+0x4a4>
    134e:	66 c1       	rjmp	.+716    	; 0x161c <keyp_exe+0x77a>
            }                
        break;       
        case 5:                     //set minutes:
            if (keys ==next)
    1350:	80 91 e2 05 	lds	r24, 0x05E2
    1354:	82 30       	cpi	r24, 0x02	; 2
    1356:	e1 f4       	brne	.+56     	; 0x1390 <keyp_exe+0x4ee>
            {
                sprintf (display1,"\1  Set minutes   ");
    1358:	82 e1       	ldi	r24, 0x12	; 18
    135a:	e5 ed       	ldi	r30, 0xD5	; 213
    135c:	f2 e0       	ldi	r31, 0x02	; 2
    135e:	ab ea       	ldi	r26, 0xAB	; 171
    1360:	b5 e0       	ldi	r27, 0x05	; 5
    1362:	01 90       	ld	r0, Z+
    1364:	0d 92       	st	X+, r0
    1366:	8a 95       	dec	r24
    1368:	e1 f7       	brne	.-8      	; 0x1362 <keyp_exe+0x4c0>
                sprintf (display2,"\2nxt    +      - ");
    136a:	82 e1       	ldi	r24, 0x12	; 18
    136c:	e5 ee       	ldi	r30, 0xE5	; 229
    136e:	f1 e0       	ldi	r31, 0x01	; 1
    1370:	a2 e9       	ldi	r26, 0x92	; 146
    1372:	b5 e0       	ldi	r27, 0x05	; 5
    1374:	01 90       	ld	r0, Z+
    1376:	0d 92       	st	X+, r0
    1378:	8a 95       	dec	r24
    137a:	e1 f7       	brne	.-8      	; 0x1374 <keyp_exe+0x4d2>
				while(LCD());
    137c:	0e 94 ff 03 	call	0x7fe	; 0x7fe <LCD>
    1380:	81 11       	cpse	r24, r1
    1382:	fc cf       	rjmp	.-8      	; 0x137c <keyp_exe+0x4da>
                modus++;              
    1384:	80 91 53 05 	lds	r24, 0x0553
    1388:	8f 5f       	subi	r24, 0xFF	; 255
    138a:	80 93 53 05 	sts	0x0553, r24
    138e:	46 c1       	rjmp	.+652    	; 0x161c <keyp_exe+0x77a>
            }
            else if (keys == inc)
    1390:	80 91 e2 05 	lds	r24, 0x05E2
    1394:	81 30       	cpi	r24, 0x01	; 1
    1396:	59 f5       	brne	.+86     	; 0x13ee <keyp_exe+0x54c>
            {   
                if (++hour>=24) hour = 0;
    1398:	80 91 6b 00 	lds	r24, 0x006B
    139c:	8f 5f       	subi	r24, 0xFF	; 255
    139e:	80 93 6b 00 	sts	0x006B, r24
    13a2:	88 31       	cpi	r24, 0x18	; 24
    13a4:	10 f0       	brcs	.+4      	; 0x13aa <keyp_exe+0x508>
    13a6:	10 92 6b 00 	sts	0x006B, r1
                sprintf (display1,"\1 %2d hours        ",hour);
    13aa:	80 91 6b 00 	lds	r24, 0x006B
    13ae:	1f 92       	push	r1
    13b0:	8f 93       	push	r24
    13b2:	87 ee       	ldi	r24, 0xE7	; 231
    13b4:	92 e0       	ldi	r25, 0x02	; 2
    13b6:	9f 93       	push	r25
    13b8:	8f 93       	push	r24
    13ba:	8b ea       	ldi	r24, 0xAB	; 171
    13bc:	95 e0       	ldi	r25, 0x05	; 5
    13be:	9f 93       	push	r25
    13c0:	8f 93       	push	r24
    13c2:	0e 94 3c 12 	call	0x2478	; 0x2478 <sprintf>
                sprintf (display2,"\2nxt    +      - ");
    13c6:	82 e1       	ldi	r24, 0x12	; 18
    13c8:	e5 ee       	ldi	r30, 0xE5	; 229
    13ca:	f1 e0       	ldi	r31, 0x01	; 1
    13cc:	a2 e9       	ldi	r26, 0x92	; 146
    13ce:	b5 e0       	ldi	r27, 0x05	; 5
    13d0:	01 90       	ld	r0, Z+
    13d2:	0d 92       	st	X+, r0
    13d4:	8a 95       	dec	r24
    13d6:	e1 f7       	brne	.-8      	; 0x13d0 <keyp_exe+0x52e>
				while(LCD());
    13d8:	0f 90       	pop	r0
    13da:	0f 90       	pop	r0
    13dc:	0f 90       	pop	r0
    13de:	0f 90       	pop	r0
    13e0:	0f 90       	pop	r0
    13e2:	0f 90       	pop	r0
    13e4:	0e 94 ff 03 	call	0x7fe	; 0x7fe <LCD>
    13e8:	81 11       	cpse	r24, r1
    13ea:	fc cf       	rjmp	.-8      	; 0x13e4 <keyp_exe+0x542>
    13ec:	17 c1       	rjmp	.+558    	; 0x161c <keyp_exe+0x77a>
            }
            else if (keys== dec)
    13ee:	80 91 e2 05 	lds	r24, 0x05E2
    13f2:	84 30       	cpi	r24, 0x04	; 4
    13f4:	09 f0       	breq	.+2      	; 0x13f8 <keyp_exe+0x556>
    13f6:	12 c1       	rjmp	.+548    	; 0x161c <keyp_exe+0x77a>
            {
                if (--hour>24) hour = 24;
    13f8:	80 91 6b 00 	lds	r24, 0x006B
    13fc:	81 50       	subi	r24, 0x01	; 1
    13fe:	80 93 6b 00 	sts	0x006B, r24
    1402:	89 31       	cpi	r24, 0x19	; 25
    1404:	18 f0       	brcs	.+6      	; 0x140c <keyp_exe+0x56a>
    1406:	88 e1       	ldi	r24, 0x18	; 24
    1408:	80 93 6b 00 	sts	0x006B, r24
                sprintf (display1,"\1 %2d hours       ",hour);
    140c:	80 91 6b 00 	lds	r24, 0x006B
    1410:	1f 92       	push	r1
    1412:	8f 93       	push	r24
    1414:	8b ef       	ldi	r24, 0xFB	; 251
    1416:	92 e0       	ldi	r25, 0x02	; 2
    1418:	9f 93       	push	r25
    141a:	8f 93       	push	r24
    141c:	8b ea       	ldi	r24, 0xAB	; 171
    141e:	95 e0       	ldi	r25, 0x05	; 5
    1420:	9f 93       	push	r25
    1422:	8f 93       	push	r24
    1424:	0e 94 3c 12 	call	0x2478	; 0x2478 <sprintf>
                sprintf (display2,"\2nxt    +     - "); 
    1428:	81 e1       	ldi	r24, 0x11	; 17
    142a:	ee e0       	ldi	r30, 0x0E	; 14
    142c:	f3 e0       	ldi	r31, 0x03	; 3
    142e:	a2 e9       	ldi	r26, 0x92	; 146
    1430:	b5 e0       	ldi	r27, 0x05	; 5
    1432:	01 90       	ld	r0, Z+
    1434:	0d 92       	st	X+, r0
    1436:	8a 95       	dec	r24
    1438:	e1 f7       	brne	.-8      	; 0x1432 <keyp_exe+0x590>
				while(LCD());
    143a:	0f 90       	pop	r0
    143c:	0f 90       	pop	r0
    143e:	0f 90       	pop	r0
    1440:	0f 90       	pop	r0
    1442:	0f 90       	pop	r0
    1444:	0f 90       	pop	r0
    1446:	0e 94 ff 03 	call	0x7fe	; 0x7fe <LCD>
    144a:	81 11       	cpse	r24, r1
    144c:	fc cf       	rjmp	.-8      	; 0x1446 <keyp_exe+0x5a4>
    144e:	e6 c0       	rjmp	.+460    	; 0x161c <keyp_exe+0x77a>
            }
        break;      
        case 6:                     //set rate?
            if (keys ==next)
    1450:	80 91 e2 05 	lds	r24, 0x05E2
    1454:	82 30       	cpi	r24, 0x02	; 2
    1456:	e1 f4       	brne	.+56     	; 0x1490 <keyp_exe+0x5ee>
            {
                sprintf (display1,"\1Set sample rate?");
    1458:	82 e1       	ldi	r24, 0x12	; 18
    145a:	ef e1       	ldi	r30, 0x1F	; 31
    145c:	f3 e0       	ldi	r31, 0x03	; 3
    145e:	ab ea       	ldi	r26, 0xAB	; 171
    1460:	b5 e0       	ldi	r27, 0x05	; 5
    1462:	01 90       	ld	r0, Z+
    1464:	0d 92       	st	X+, r0
    1466:	8a 95       	dec	r24
    1468:	e1 f7       	brne	.-8      	; 0x1462 <keyp_exe+0x5c0>
                sprintf (display2,"\2nxt     +     - ");
    146a:	82 e1       	ldi	r24, 0x12	; 18
    146c:	e1 e3       	ldi	r30, 0x31	; 49
    146e:	f3 e0       	ldi	r31, 0x03	; 3
    1470:	a2 e9       	ldi	r26, 0x92	; 146
    1472:	b5 e0       	ldi	r27, 0x05	; 5
    1474:	01 90       	ld	r0, Z+
    1476:	0d 92       	st	X+, r0
    1478:	8a 95       	dec	r24
    147a:	e1 f7       	brne	.-8      	; 0x1474 <keyp_exe+0x5d2>
				while(LCD());
    147c:	0e 94 ff 03 	call	0x7fe	; 0x7fe <LCD>
    1480:	81 11       	cpse	r24, r1
    1482:	fc cf       	rjmp	.-8      	; 0x147c <keyp_exe+0x5da>
                modus++;
    1484:	80 91 53 05 	lds	r24, 0x0553
    1488:	8f 5f       	subi	r24, 0xFF	; 255
    148a:	80 93 53 05 	sts	0x0553, r24
    148e:	c6 c0       	rjmp	.+396    	; 0x161c <keyp_exe+0x77a>
            }
            else if (keys == inc)
    1490:	80 91 e2 05 	lds	r24, 0x05E2
    1494:	81 30       	cpi	r24, 0x01	; 1
    1496:	59 f5       	brne	.+86     	; 0x14ee <keyp_exe+0x64c>
            {   
                if(++min>=60)min=0;
    1498:	80 91 6c 00 	lds	r24, 0x006C
    149c:	8f 5f       	subi	r24, 0xFF	; 255
    149e:	80 93 6c 00 	sts	0x006C, r24
    14a2:	8c 33       	cpi	r24, 0x3C	; 60
    14a4:	10 f0       	brcs	.+4      	; 0x14aa <keyp_exe+0x608>
    14a6:	10 92 6c 00 	sts	0x006C, r1
                sprintf (display1,"\1 %2d  min       ",min);
    14aa:	80 91 6c 00 	lds	r24, 0x006C
    14ae:	1f 92       	push	r1
    14b0:	8f 93       	push	r24
    14b2:	83 e4       	ldi	r24, 0x43	; 67
    14b4:	93 e0       	ldi	r25, 0x03	; 3
    14b6:	9f 93       	push	r25
    14b8:	8f 93       	push	r24
    14ba:	8b ea       	ldi	r24, 0xAB	; 171
    14bc:	95 e0       	ldi	r25, 0x05	; 5
    14be:	9f 93       	push	r25
    14c0:	8f 93       	push	r24
    14c2:	0e 94 3c 12 	call	0x2478	; 0x2478 <sprintf>
                sprintf (display2,"\2nxt    +      - "); 
    14c6:	82 e1       	ldi	r24, 0x12	; 18
    14c8:	e5 ee       	ldi	r30, 0xE5	; 229
    14ca:	f1 e0       	ldi	r31, 0x01	; 1
    14cc:	a2 e9       	ldi	r26, 0x92	; 146
    14ce:	b5 e0       	ldi	r27, 0x05	; 5
    14d0:	01 90       	ld	r0, Z+
    14d2:	0d 92       	st	X+, r0
    14d4:	8a 95       	dec	r24
    14d6:	e1 f7       	brne	.-8      	; 0x14d0 <keyp_exe+0x62e>
				while(LCD());                               
    14d8:	0f 90       	pop	r0
    14da:	0f 90       	pop	r0
    14dc:	0f 90       	pop	r0
    14de:	0f 90       	pop	r0
    14e0:	0f 90       	pop	r0
    14e2:	0f 90       	pop	r0
    14e4:	0e 94 ff 03 	call	0x7fe	; 0x7fe <LCD>
    14e8:	81 11       	cpse	r24, r1
    14ea:	fc cf       	rjmp	.-8      	; 0x14e4 <keyp_exe+0x642>
    14ec:	97 c0       	rjmp	.+302    	; 0x161c <keyp_exe+0x77a>
            }
            else if (keys== dec)
    14ee:	80 91 e2 05 	lds	r24, 0x05E2
    14f2:	84 30       	cpi	r24, 0x04	; 4
    14f4:	09 f0       	breq	.+2      	; 0x14f8 <keyp_exe+0x656>
    14f6:	92 c0       	rjmp	.+292    	; 0x161c <keyp_exe+0x77a>
            {
                if (--min>=60)min=0;
    14f8:	80 91 6c 00 	lds	r24, 0x006C
    14fc:	81 50       	subi	r24, 0x01	; 1
    14fe:	80 93 6c 00 	sts	0x006C, r24
    1502:	8c 33       	cpi	r24, 0x3C	; 60
    1504:	10 f0       	brcs	.+4      	; 0x150a <keyp_exe+0x668>
    1506:	10 92 6c 00 	sts	0x006C, r1
                sprintf (display1,"\1 %2d min        ",min);
    150a:	80 91 6c 00 	lds	r24, 0x006C
    150e:	1f 92       	push	r1
    1510:	8f 93       	push	r24
    1512:	85 e5       	ldi	r24, 0x55	; 85
    1514:	93 e0       	ldi	r25, 0x03	; 3
    1516:	9f 93       	push	r25
    1518:	8f 93       	push	r24
    151a:	8b ea       	ldi	r24, 0xAB	; 171
    151c:	95 e0       	ldi	r25, 0x05	; 5
    151e:	9f 93       	push	r25
    1520:	8f 93       	push	r24
    1522:	0e 94 3c 12 	call	0x2478	; 0x2478 <sprintf>
                sprintf (display2,"\2nxt    +      - ");
    1526:	82 e1       	ldi	r24, 0x12	; 18
    1528:	e5 ee       	ldi	r30, 0xE5	; 229
    152a:	f1 e0       	ldi	r31, 0x01	; 1
    152c:	a2 e9       	ldi	r26, 0x92	; 146
    152e:	b5 e0       	ldi	r27, 0x05	; 5
    1530:	01 90       	ld	r0, Z+
    1532:	0d 92       	st	X+, r0
    1534:	8a 95       	dec	r24
    1536:	e1 f7       	brne	.-8      	; 0x1530 <keyp_exe+0x68e>
				while(LCD());                                
    1538:	0f 90       	pop	r0
    153a:	0f 90       	pop	r0
    153c:	0f 90       	pop	r0
    153e:	0f 90       	pop	r0
    1540:	0f 90       	pop	r0
    1542:	0f 90       	pop	r0
    1544:	0e 94 ff 03 	call	0x7fe	; 0x7fe <LCD>
    1548:	81 11       	cpse	r24, r1
    154a:	fc cf       	rjmp	.-8      	; 0x1544 <keyp_exe+0x6a2>
    154c:	67 c0       	rjmp	.+206    	; 0x161c <keyp_exe+0x77a>
            }
         break;
         case 7:                        
              if (keys==next)
    154e:	80 91 e2 05 	lds	r24, 0x05E2
    1552:	82 30       	cpi	r24, 0x02	; 2
    1554:	99 f4       	brne	.+38     	; 0x157c <keyp_exe+0x6da>
              {
                 modus=0;               
    1556:	10 92 53 05 	sts	0x0553, r1
                 update=1;
    155a:	81 e0       	ldi	r24, 0x01	; 1
    155c:	80 93 56 05 	sts	0x0556, r24
                 displmod=0;
    1560:	10 92 c5 05 	sts	0x05C5, r1
    1564:	10 92 c4 05 	sts	0x05C4, r1
                 displ_calendar();
    1568:	0e 94 c1 0e 	call	0x1d82	; 0x1d82 <displ_calendar>
    
                 waitsec = 4;			
    156c:	84 e0       	ldi	r24, 0x04	; 4
    156e:	80 93 50 05 	sts	0x0550, r24
                 while (waitsec!=0); 
    1572:	80 91 50 05 	lds	r24, 0x0550
    1576:	81 11       	cpse	r24, r1
    1578:	fc cf       	rjmp	.-8      	; 0x1572 <keyp_exe+0x6d0>
    157a:	50 c0       	rjmp	.+160    	; 0x161c <keyp_exe+0x77a>
              }              
             
             else if (keys==dec)
    157c:	80 91 e2 05 	lds	r24, 0x05E2
    1580:	84 30       	cpi	r24, 0x04	; 4
    1582:	29 f5       	brne	.+74     	; 0x15ce <keyp_exe+0x72c>
             {
                 t= -1;
                 rateset(t);
    1584:	8f ef       	ldi	r24, 0xFF	; 255
    1586:	0e 94 29 07 	call	0xe52	; 0xe52 <rateset>
                 sprintf (display1,"\1     %d Sph     ",sample_rate);
    158a:	80 91 65 00 	lds	r24, 0x0065
    158e:	1f 92       	push	r1
    1590:	8f 93       	push	r24
    1592:	87 e6       	ldi	r24, 0x67	; 103
    1594:	93 e0       	ldi	r25, 0x03	; 3
    1596:	9f 93       	push	r25
    1598:	8f 93       	push	r24
    159a:	8b ea       	ldi	r24, 0xAB	; 171
    159c:	95 e0       	ldi	r25, 0x05	; 5
    159e:	9f 93       	push	r25
    15a0:	8f 93       	push	r24
    15a2:	0e 94 3c 12 	call	0x2478	; 0x2478 <sprintf>
                 sprintf (display2,"\2nxt    +      - ");
    15a6:	82 e1       	ldi	r24, 0x12	; 18
    15a8:	e5 ee       	ldi	r30, 0xE5	; 229
    15aa:	f1 e0       	ldi	r31, 0x01	; 1
    15ac:	a2 e9       	ldi	r26, 0x92	; 146
    15ae:	b5 e0       	ldi	r27, 0x05	; 5
    15b0:	01 90       	ld	r0, Z+
    15b2:	0d 92       	st	X+, r0
    15b4:	8a 95       	dec	r24
    15b6:	e1 f7       	brne	.-8      	; 0x15b0 <keyp_exe+0x70e>
				 while(LCD());                                
    15b8:	0f 90       	pop	r0
    15ba:	0f 90       	pop	r0
    15bc:	0f 90       	pop	r0
    15be:	0f 90       	pop	r0
    15c0:	0f 90       	pop	r0
    15c2:	0f 90       	pop	r0
    15c4:	0e 94 ff 03 	call	0x7fe	; 0x7fe <LCD>
    15c8:	81 11       	cpse	r24, r1
    15ca:	fc cf       	rjmp	.-8      	; 0x15c4 <keyp_exe+0x722>
    15cc:	27 c0       	rjmp	.+78     	; 0x161c <keyp_exe+0x77a>
             }
             else if (keys==inc)
    15ce:	80 91 e2 05 	lds	r24, 0x05E2
    15d2:	81 30       	cpi	r24, 0x01	; 1
    15d4:	19 f5       	brne	.+70     	; 0x161c <keyp_exe+0x77a>
             {
                 t= 1; 
                 rateset(t);
    15d6:	0e 94 29 07 	call	0xe52	; 0xe52 <rateset>
                 sprintf (display1,"\1     %d Sph     ",sample_rate); 
    15da:	80 91 65 00 	lds	r24, 0x0065
    15de:	1f 92       	push	r1
    15e0:	8f 93       	push	r24
    15e2:	87 e6       	ldi	r24, 0x67	; 103
    15e4:	93 e0       	ldi	r25, 0x03	; 3
    15e6:	9f 93       	push	r25
    15e8:	8f 93       	push	r24
    15ea:	8b ea       	ldi	r24, 0xAB	; 171
    15ec:	95 e0       	ldi	r25, 0x05	; 5
    15ee:	9f 93       	push	r25
    15f0:	8f 93       	push	r24
    15f2:	0e 94 3c 12 	call	0x2478	; 0x2478 <sprintf>
                 sprintf (display2,"\2nxt    +      - ");
    15f6:	82 e1       	ldi	r24, 0x12	; 18
    15f8:	e5 ee       	ldi	r30, 0xE5	; 229
    15fa:	f1 e0       	ldi	r31, 0x01	; 1
    15fc:	a2 e9       	ldi	r26, 0x92	; 146
    15fe:	b5 e0       	ldi	r27, 0x05	; 5
    1600:	01 90       	ld	r0, Z+
    1602:	0d 92       	st	X+, r0
    1604:	8a 95       	dec	r24
    1606:	e1 f7       	brne	.-8      	; 0x1600 <keyp_exe+0x75e>
				 while(LCD());                                                                                
    1608:	0f 90       	pop	r0
    160a:	0f 90       	pop	r0
    160c:	0f 90       	pop	r0
    160e:	0f 90       	pop	r0
    1610:	0f 90       	pop	r0
    1612:	0f 90       	pop	r0
    1614:	0e 94 ff 03 	call	0x7fe	; 0x7fe <LCD>
    1618:	81 11       	cpse	r24, r1
    161a:	fc cf       	rjmp	.-8      	; 0x1614 <keyp_exe+0x772>
             }
          break;
       
        }
        keyin=false;                     
    161c:	10 92 57 05 	sts	0x0557, r1
    1620:	08 95       	ret

00001622 <read_rom>:
// returns number of bytes read (8)
// called by ds_read_id();
//--------------------------------------------------

char read_rom (void)
{
    1622:	4f 92       	push	r4
    1624:	5f 92       	push	r5
    1626:	6f 92       	push	r6
    1628:	7f 92       	push	r7
    162a:	8f 92       	push	r8
    162c:	9f 92       	push	r9
    162e:	af 92       	push	r10
    1630:	bf 92       	push	r11
    1632:	cf 92       	push	r12
    1634:	df 92       	push	r13
    1636:	ef 92       	push	r14
    1638:	ff 92       	push	r15
    163a:	0f 93       	push	r16
    163c:	1f 93       	push	r17
    163e:	cf 93       	push	r28
    1640:	df 93       	push	r29
    1642:	0f 2e       	mov	r0, r31
    1644:	fa ed       	ldi	r31, 0xDA	; 218
    1646:	ef 2e       	mov	r14, r31
    1648:	f5 e0       	ldi	r31, 0x05	; 5
    164a:	ff 2e       	mov	r15, r31
    164c:	f0 2d       	mov	r31, r0
	unsigned int count;
	char input;     // read input
	unsigned int bnum;      // byte number
	
	for (bnum =0;bnum<8;bnum++)					// 8 bytes ID
    164e:	00 e0       	ldi	r16, 0x00	; 0
    1650:	10 e0       	ldi	r17, 0x00	; 0
// returns number of bytes read (8)
// called by ds_read_id();
//--------------------------------------------------

char read_rom (void)
{
    1652:	68 94       	set
    1654:	66 24       	eor	r6, r6
    1656:	63 f8       	bld	r6, 3
    1658:	71 2c       	mov	r7, r1
    165a:	81 2c       	mov	r8, r1
			_delay_us(49);	
		}
		IDX[bnum]=input;						//store byte
		if (input==255)
		{
			sprintf(display1,"\1  read fault    ");
    165c:	0f 2e       	mov	r0, r31
    165e:	f2 e1       	ldi	r31, 0x12	; 18
    1660:	4f 2e       	mov	r4, r31
    1662:	f0 2d       	mov	r31, r0
			sprintf(display2,"\2  byte %d      ",bnum);
    1664:	0f 2e       	mov	r0, r31
    1666:	fb e8       	ldi	r31, 0x8B	; 139
    1668:	af 2e       	mov	r10, r31
    166a:	f3 e0       	ldi	r31, 0x03	; 3
    166c:	bf 2e       	mov	r11, r31
    166e:	f0 2d       	mov	r31, r0
    1670:	0f 2e       	mov	r0, r31
    1672:	f2 e9       	ldi	r31, 0x92	; 146
    1674:	cf 2e       	mov	r12, r31
    1676:	f5 e0       	ldi	r31, 0x05	; 5
    1678:	df 2e       	mov	r13, r31
    167a:	f0 2d       	mov	r31, r0
			while(LCD());
			waitsec=2;
    167c:	68 94       	set
    167e:	55 24       	eor	r5, r5
    1680:	51 f8       	bld	r5, 1
    1682:	42 c0       	rjmp	.+132    	; 0x1708 <read_rom+0xe6>
	
	for (bnum =0;bnum<8;bnum++)					// 8 bytes ID
	{
		for (input=0,count=8;count>0;count--)	//8 bits
		{
			start();
    1684:	0e 94 30 05 	call	0xa60	; 0xa60 <start>
			DDRD &= ~(1<<7);					// set high
    1688:	8f 98       	cbi	0x11, 7	; 17
	#else
		//round up by default
		__ticks_dc = (uint32_t)(ceil(fabs(__tmp)));
	#endif

	__builtin_avr_delay_cycles(__ticks_dc);
    168a:	85 e3       	ldi	r24, 0x35	; 53
    168c:	8a 95       	dec	r24
    168e:	f1 f7       	brne	.-4      	; 0x168c <read_rom+0x6a>
    1690:	00 00       	nop
			_delay_us(10);	;
			input>>=1;							// shift zero in
    1692:	96 94       	lsr	r9
			if (PIND & (1<<7)) input|= 0x80;	// input 1
    1694:	87 9b       	sbis	0x10, 7	; 16
    1696:	03 c0       	rjmp	.+6      	; 0x169e <read_rom+0x7c>
    1698:	99 2d       	mov	r25, r9
    169a:	90 68       	ori	r25, 0x80	; 128
    169c:	99 2e       	mov	r9, r25
    169e:	e3 ec       	ldi	r30, 0xC3	; 195
    16a0:	f0 e0       	ldi	r31, 0x00	; 0
    16a2:	31 97       	sbiw	r30, 0x01	; 1
    16a4:	f1 f7       	brne	.-4      	; 0x16a2 <read_rom+0x80>
    16a6:	00 c0       	rjmp	.+0      	; 0x16a8 <read_rom+0x86>
    16a8:	00 00       	nop
    16aa:	21 97       	sbiw	r28, 0x01	; 1
	char input;     // read input
	unsigned int bnum;      // byte number
	
	for (bnum =0;bnum<8;bnum++)					// 8 bytes ID
	{
		for (input=0,count=8;count>0;count--)	//8 bits
    16ac:	20 97       	sbiw	r28, 0x00	; 0
    16ae:	51 f7       	brne	.-44     	; 0x1684 <read_rom+0x62>
			_delay_us(10);	;
			input>>=1;							// shift zero in
			if (PIND & (1<<7)) input|= 0x80;	// input 1
			_delay_us(49);	
		}
		IDX[bnum]=input;						//store byte
    16b0:	f7 01       	movw	r30, r14
    16b2:	91 92       	st	Z+, r9
    16b4:	7f 01       	movw	r14, r30
		if (input==255)
    16b6:	ff ef       	ldi	r31, 0xFF	; 255
    16b8:	9f 12       	cpse	r9, r31
    16ba:	21 c0       	rjmp	.+66     	; 0x16fe <read_rom+0xdc>
		{
			sprintf(display1,"\1  read fault    ");
    16bc:	e9 e7       	ldi	r30, 0x79	; 121
    16be:	f3 e0       	ldi	r31, 0x03	; 3
    16c0:	ab ea       	ldi	r26, 0xAB	; 171
    16c2:	b5 e0       	ldi	r27, 0x05	; 5
    16c4:	84 2d       	mov	r24, r4
    16c6:	01 90       	ld	r0, Z+
    16c8:	0d 92       	st	X+, r0
    16ca:	8a 95       	dec	r24
    16cc:	e1 f7       	brne	.-8      	; 0x16c6 <read_rom+0xa4>
			sprintf(display2,"\2  byte %d      ",bnum);
    16ce:	1f 93       	push	r17
    16d0:	0f 93       	push	r16
    16d2:	bf 92       	push	r11
    16d4:	af 92       	push	r10
    16d6:	df 92       	push	r13
    16d8:	cf 92       	push	r12
    16da:	0e 94 3c 12 	call	0x2478	; 0x2478 <sprintf>
			while(LCD());
    16de:	0f 90       	pop	r0
    16e0:	0f 90       	pop	r0
    16e2:	0f 90       	pop	r0
    16e4:	0f 90       	pop	r0
    16e6:	0f 90       	pop	r0
    16e8:	0f 90       	pop	r0
    16ea:	0e 94 ff 03 	call	0x7fe	; 0x7fe <LCD>
    16ee:	81 11       	cpse	r24, r1
    16f0:	fc cf       	rjmp	.-8      	; 0x16ea <read_rom+0xc8>
			waitsec=2;
    16f2:	50 92 50 05 	sts	0x0550, r5
			while (waitsec!=0);
    16f6:	80 91 50 05 	lds	r24, 0x0550
    16fa:	81 11       	cpse	r24, r1
    16fc:	fc cf       	rjmp	.-8      	; 0x16f6 <read_rom+0xd4>
{
	unsigned int count;
	char input;     // read input
	unsigned int bnum;      // byte number
	
	for (bnum =0;bnum<8;bnum++)					// 8 bytes ID
    16fe:	0f 5f       	subi	r16, 0xFF	; 255
    1700:	1f 4f       	sbci	r17, 0xFF	; 255
    1702:	08 30       	cpi	r16, 0x08	; 8
    1704:	11 05       	cpc	r17, r1
    1706:	21 f0       	breq	.+8      	; 0x1710 <read_rom+0xee>
// returns number of bytes read (8)
// called by ds_read_id();
//--------------------------------------------------

char read_rom (void)
{
    1708:	c6 2d       	mov	r28, r6
    170a:	d7 2d       	mov	r29, r7
    170c:	98 2c       	mov	r9, r8
    170e:	ba cf       	rjmp	.-140    	; 0x1684 <read_rom+0x62>
			while(LCD());
			waitsec=2;
			while (waitsec!=0);
		}
	}
	resetL();
    1710:	0e 94 5a 05 	call	0xab4	; 0xab4 <resetL>
	return bnum;
}
    1714:	88 e0       	ldi	r24, 0x08	; 8
    1716:	df 91       	pop	r29
    1718:	cf 91       	pop	r28
    171a:	1f 91       	pop	r17
    171c:	0f 91       	pop	r16
    171e:	ff 90       	pop	r15
    1720:	ef 90       	pop	r14
    1722:	df 90       	pop	r13
    1724:	cf 90       	pop	r12
    1726:	bf 90       	pop	r11
    1728:	af 90       	pop	r10
    172a:	9f 90       	pop	r9
    172c:	8f 90       	pop	r8
    172e:	7f 90       	pop	r7
    1730:	6f 90       	pop	r6
    1732:	5f 90       	pop	r5
    1734:	4f 90       	pop	r4
    1736:	08 95       	ret

00001738 <readSdeviceT>:
// reads temperature of a single device without ROM addressing
// called by main on singlemode 
//*******************************************************************

void readSdeviceT(void)
{
    1738:	cf 93       	push	r28
	char reads,dP;
	unsigned int a, t;
	
	if(convert_T())
    173a:	0e 94 b4 05 	call	0xb68	; 0xb68 <convert_T>
    173e:	88 23       	and	r24, r24
    1740:	09 f4       	brne	.+2      	; 0x1744 <readSdeviceT+0xc>
    1742:	8b c0       	rjmp	.+278    	; 0x185a <readSdeviceT+0x122>
	{	
		sprintf (display1,"\1  Single Mode   ");
    1744:	82 e1       	ldi	r24, 0x12	; 18
    1746:	ec e9       	ldi	r30, 0x9C	; 156
    1748:	f3 e0       	ldi	r31, 0x03	; 3
    174a:	ab ea       	ldi	r26, 0xAB	; 171
    174c:	b5 e0       	ldi	r27, 0x05	; 5
    174e:	01 90       	ld	r0, Z+
    1750:	0d 92       	st	X+, r0
    1752:	8a 95       	dec	r24
    1754:	e1 f7       	brne	.-8      	; 0x174e <readSdeviceT+0x16>
		sprintf (display2,"\2   Reading     ");
    1756:	81 e1       	ldi	r24, 0x11	; 17
    1758:	ee ea       	ldi	r30, 0xAE	; 174
    175a:	f3 e0       	ldi	r31, 0x03	; 3
    175c:	a2 e9       	ldi	r26, 0x92	; 146
    175e:	b5 e0       	ldi	r27, 0x05	; 5
    1760:	01 90       	ld	r0, Z+
    1762:	0d 92       	st	X+, r0
    1764:	8a 95       	dec	r24
    1766:	e1 f7       	brne	.-8      	; 0x1760 <readSdeviceT+0x28>
		while(LCD());	
    1768:	0e 94 ff 03 	call	0x7fe	; 0x7fe <LCD>
    176c:	81 11       	cpse	r24, r1
    176e:	fc cf       	rjmp	.-8      	; 0x1768 <readSdeviceT+0x30>
		waitsec=2;
    1770:	82 e0       	ldi	r24, 0x02	; 2
    1772:	80 93 50 05 	sts	0x0550, r24
		while (waitsec!=0);
    1776:	80 91 50 05 	lds	r24, 0x0550
    177a:	81 11       	cpse	r24, r1
    177c:	fc cf       	rjmp	.-8      	; 0x1776 <readSdeviceT+0x3e>
		
			resetL();
    177e:	0e 94 5a 05 	call	0xab4	; 0xab4 <resetL>
			write(skipR);	
    1782:	8c ec       	ldi	r24, 0xCC	; 204
    1784:	0e 94 37 05 	call	0xa6e	; 0xa6e <write>
			write(read_scratch);
    1788:	8e eb       	ldi	r24, 0xBE	; 190
    178a:	0e 94 37 05 	call	0xa6e	; 0xa6e <write>
			reads = read_T();
    178e:	0e 94 98 05 	call	0xb30	; 0xb30 <read_T>
    1792:	c8 2f       	mov	r28, r24
			resetL();		
    1794:	0e 94 5a 05 	call	0xab4	; 0xab4 <resetL>
			if (reads==255)
    1798:	cf 3f       	cpi	r28, 0xFF	; 255
    179a:	f1 f4       	brne	.+60     	; 0x17d8 <readSdeviceT+0xa0>
			{
				
				sprintf(display1,"\1     device     ");
    179c:	82 e1       	ldi	r24, 0x12	; 18
    179e:	ef eb       	ldi	r30, 0xBF	; 191
    17a0:	f3 e0       	ldi	r31, 0x03	; 3
    17a2:	ab ea       	ldi	r26, 0xAB	; 171
    17a4:	b5 e0       	ldi	r27, 0x05	; 5
    17a6:	01 90       	ld	r0, Z+
    17a8:	0d 92       	st	X+, r0
    17aa:	8a 95       	dec	r24
    17ac:	e1 f7       	brne	.-8      	; 0x17a6 <readSdeviceT+0x6e>
				sprintf(display2,"\2     faulty!    ");
    17ae:	82 e1       	ldi	r24, 0x12	; 18
    17b0:	e6 e5       	ldi	r30, 0x56	; 86
    17b2:	f1 e0       	ldi	r31, 0x01	; 1
    17b4:	a2 e9       	ldi	r26, 0x92	; 146
    17b6:	b5 e0       	ldi	r27, 0x05	; 5
    17b8:	01 90       	ld	r0, Z+
    17ba:	0d 92       	st	X+, r0
    17bc:	8a 95       	dec	r24
    17be:	e1 f7       	brne	.-8      	; 0x17b8 <readSdeviceT+0x80>
				while(LCD());
    17c0:	0e 94 ff 03 	call	0x7fe	; 0x7fe <LCD>
    17c4:	81 11       	cpse	r24, r1
    17c6:	fc cf       	rjmp	.-8      	; 0x17c0 <readSdeviceT+0x88>

				waitsec=2;
    17c8:	82 e0       	ldi	r24, 0x02	; 2
    17ca:	80 93 50 05 	sts	0x0550, r24
				while (waitsec!=0);
    17ce:	80 91 50 05 	lds	r24, 0x0550
    17d2:	81 11       	cpse	r24, r1
    17d4:	fc cf       	rjmp	.-8      	; 0x17ce <readSdeviceT+0x96>
    17d6:	59 c0       	rjmp	.+178    	; 0x188a <readSdeviceT+0x152>
				reads = 0;
			}
		
			else
			{
				store[0]= reads;
    17d8:	c0 93 c6 05 	sts	0x05C6, r28
    17dc:	92 e0       	ldi	r25, 0x02	; 2
    17de:	9c 0f       	add	r25, r28
    17e0:	e7 ec       	ldi	r30, 0xC7	; 199
    17e2:	f5 e0       	ldi	r31, 0x05	; 5
    17e4:	2a ed       	ldi	r18, 0xDA	; 218
    17e6:	35 e0       	ldi	r19, 0x05	; 5
				t=reads;
				for(a=1;a<maxdevices;a++)	// fill up all device temp
				{
					t+=2;					//add temperature increase 1
					store[a]= t;
    17e8:	91 93       	st	Z+, r25
    17ea:	9e 5f       	subi	r25, 0xFE	; 254
		
			else
			{
				store[0]= reads;
				t=reads;
				for(a=1;a<maxdevices;a++)	// fill up all device temp
    17ec:	e2 17       	cp	r30, r18
    17ee:	f3 07       	cpc	r31, r19
    17f0:	d9 f7       	brne	.-10     	; 0x17e8 <readSdeviceT+0xb0>
					t+=2;					//add temperature increase 1
					store[a]= t;
				}
			}	
		
			if (reads>0)
    17f2:	cc 23       	and	r28, r28
    17f4:	09 f4       	brne	.+2      	; 0x17f8 <readSdeviceT+0xc0>
    17f6:	49 c0       	rjmp	.+146    	; 0x188a <readSdeviceT+0x152>
			{
				sprintf(display1,"\1  Device Temp   ");
    17f8:	82 e1       	ldi	r24, 0x12	; 18
    17fa:	e1 ed       	ldi	r30, 0xD1	; 209
    17fc:	f3 e0       	ldi	r31, 0x03	; 3
    17fe:	ab ea       	ldi	r26, 0xAB	; 171
    1800:	b5 e0       	ldi	r27, 0x05	; 5
    1802:	01 90       	ld	r0, Z+
    1804:	0d 92       	st	X+, r0
    1806:	8a 95       	dec	r24
    1808:	e1 f7       	brne	.-8      	; 0x1802 <readSdeviceT+0xca>

				if (reads&1) dP = 5;
    180a:	c0 ff       	sbrs	r28, 0
    180c:	02 c0       	rjmp	.+4      	; 0x1812 <readSdeviceT+0xda>
    180e:	85 e0       	ldi	r24, 0x05	; 5
    1810:	01 c0       	rjmp	.+2      	; 0x1814 <readSdeviceT+0xdc>
				else dP=0;
    1812:	80 e0       	ldi	r24, 0x00	; 0
				reads>>=1;
				
				sprintf(display2,"\2     %d.%1d C     ",reads,dP);
    1814:	1f 92       	push	r1
    1816:	8f 93       	push	r24
			{
				sprintf(display1,"\1  Device Temp   ");

				if (reads&1) dP = 5;
				else dP=0;
				reads>>=1;
    1818:	c6 95       	lsr	r28
				
				sprintf(display2,"\2     %d.%1d C     ",reads,dP);
    181a:	1f 92       	push	r1
    181c:	cf 93       	push	r28
    181e:	83 ee       	ldi	r24, 0xE3	; 227
    1820:	93 e0       	ldi	r25, 0x03	; 3
    1822:	9f 93       	push	r25
    1824:	8f 93       	push	r24
    1826:	82 e9       	ldi	r24, 0x92	; 146
    1828:	95 e0       	ldi	r25, 0x05	; 5
    182a:	9f 93       	push	r25
    182c:	8f 93       	push	r24
    182e:	0e 94 3c 12 	call	0x2478	; 0x2478 <sprintf>
				while(LCD());
    1832:	8d b7       	in	r24, 0x3d	; 61
    1834:	9e b7       	in	r25, 0x3e	; 62
    1836:	08 96       	adiw	r24, 0x08	; 8
    1838:	0f b6       	in	r0, 0x3f	; 63
    183a:	f8 94       	cli
    183c:	9e bf       	out	0x3e, r25	; 62
    183e:	0f be       	out	0x3f, r0	; 63
    1840:	8d bf       	out	0x3d, r24	; 61
    1842:	0e 94 ff 03 	call	0x7fe	; 0x7fe <LCD>
    1846:	81 11       	cpse	r24, r1
    1848:	fc cf       	rjmp	.-8      	; 0x1842 <readSdeviceT+0x10a>
				waitsec=2;
    184a:	82 e0       	ldi	r24, 0x02	; 2
    184c:	80 93 50 05 	sts	0x0550, r24
				while (waitsec!=0);
    1850:	80 91 50 05 	lds	r24, 0x0550
    1854:	81 11       	cpse	r24, r1
    1856:	fc cf       	rjmp	.-8      	; 0x1850 <readSdeviceT+0x118>
    1858:	18 c0       	rjmp	.+48     	; 0x188a <readSdeviceT+0x152>
			}
			
	}		
	else
	{
		sprintf (display1,"\1  Device fault ");
    185a:	81 e1       	ldi	r24, 0x11	; 17
    185c:	e7 ef       	ldi	r30, 0xF7	; 247
    185e:	f3 e0       	ldi	r31, 0x03	; 3
    1860:	ab ea       	ldi	r26, 0xAB	; 171
    1862:	b5 e0       	ldi	r27, 0x05	; 5
    1864:	01 90       	ld	r0, Z+
    1866:	0d 92       	st	X+, r0
    1868:	8a 95       	dec	r24
    186a:	e1 f7       	brne	.-8      	; 0x1864 <readSdeviceT+0x12c>
		sprintf (display2,"\2    no ACK     ");
    186c:	81 e1       	ldi	r24, 0x11	; 17
    186e:	e8 e0       	ldi	r30, 0x08	; 8
    1870:	f4 e0       	ldi	r31, 0x04	; 4
    1872:	a2 e9       	ldi	r26, 0x92	; 146
    1874:	b5 e0       	ldi	r27, 0x05	; 5
    1876:	01 90       	ld	r0, Z+
    1878:	0d 92       	st	X+, r0
    187a:	8a 95       	dec	r24
    187c:	e1 f7       	brne	.-8      	; 0x1876 <readSdeviceT+0x13e>
		while(LCD());
    187e:	0e 94 ff 03 	call	0x7fe	; 0x7fe <LCD>
    1882:	81 11       	cpse	r24, r1
    1884:	fc cf       	rjmp	.-8      	; 0x187e <readSdeviceT+0x146>
		singlemode=false;
    1886:	10 92 51 05 	sts	0x0551, r1
	}
}	
    188a:	cf 91       	pop	r28
    188c:	08 95       	ret

0000188e <match_rom1>:
	
}
			

void match_rom1(void)   // address device
{
    188e:	0f 93       	push	r16
    1890:	1f 93       	push	r17
    1892:	cf 93       	push	r28
    1894:	df 93       	push	r29
	char t;
	unsigned int count;
	
	cli();
    1896:	f8 94       	cli
	start();
    1898:	0e 94 30 05 	call	0xa60	; 0xa60 <start>
	write(match);
    189c:	85 e5       	ldi	r24, 0x55	; 85
    189e:	0e 94 37 05 	call	0xa6e	; 0xa6e <write>
    18a2:	ca ed       	ldi	r28, 0xDA	; 218
    18a4:	d5 e0       	ldi	r29, 0x05	; 5
    18a6:	02 ee       	ldi	r16, 0xE2	; 226
    18a8:	15 e0       	ldi	r17, 0x05	; 5
	for (count=0;count<8;count++)
	{
		t = IDX[count];   //transmit ID 64 bit
		write(t);
    18aa:	89 91       	ld	r24, Y+
    18ac:	0e 94 37 05 	call	0xa6e	; 0xa6e <write>
	unsigned int count;
	
	cli();
	start();
	write(match);
	for (count=0;count<8;count++)
    18b0:	c0 17       	cp	r28, r16
    18b2:	d1 07       	cpc	r29, r17
    18b4:	d1 f7       	brne	.-12     	; 0x18aa <match_rom1+0x1c>
	{
		t = IDX[count];   //transmit ID 64 bit
		write(t);
	}
	sei();
    18b6:	78 94       	sei
}
    18b8:	df 91       	pop	r29
    18ba:	cf 91       	pop	r28
    18bc:	1f 91       	pop	r17
    18be:	0f 91       	pop	r16
    18c0:	08 95       	ret

000018c2 <read_RdeviceT>:
//************************************************************ 
void read_RdeviceT(void)
{
	char reads,dP;

	if (convert_T())
    18c2:	0e 94 b4 05 	call	0xb68	; 0xb68 <convert_T>
    18c6:	88 23       	and	r24, r24
    18c8:	09 f4       	brne	.+2      	; 0x18cc <read_RdeviceT+0xa>
    18ca:	77 c0       	rjmp	.+238    	; 0x19ba <read_RdeviceT+0xf8>
	{	
		sprintf (display1,"\1  Reading Temp  ");
    18cc:	82 e1       	ldi	r24, 0x12	; 18
    18ce:	eb e1       	ldi	r30, 0x1B	; 27
    18d0:	f1 e0       	ldi	r31, 0x01	; 1
    18d2:	ab ea       	ldi	r26, 0xAB	; 171
    18d4:	b5 e0       	ldi	r27, 0x05	; 5
    18d6:	01 90       	ld	r0, Z+
    18d8:	0d 92       	st	X+, r0
    18da:	8a 95       	dec	r24
    18dc:	e1 f7       	brne	.-8      	; 0x18d6 <read_RdeviceT+0x14>
		while(LCD());
    18de:	0e 94 ff 03 	call	0x7fe	; 0x7fe <LCD>
    18e2:	81 11       	cpse	r24, r1
    18e4:	fc cf       	rjmp	.-8      	; 0x18de <read_RdeviceT+0x1c>
		sprintf (display2,"\2 addressing Dev ");
    18e6:	82 e1       	ldi	r24, 0x12	; 18
    18e8:	e9 e1       	ldi	r30, 0x19	; 25
    18ea:	f4 e0       	ldi	r31, 0x04	; 4
    18ec:	a2 e9       	ldi	r26, 0x92	; 146
    18ee:	b5 e0       	ldi	r27, 0x05	; 5
    18f0:	01 90       	ld	r0, Z+
    18f2:	0d 92       	st	X+, r0
    18f4:	8a 95       	dec	r24
    18f6:	e1 f7       	brne	.-8      	; 0x18f0 <read_RdeviceT+0x2e>
		while(LCD());
    18f8:	0e 94 ff 03 	call	0x7fe	; 0x7fe <LCD>
    18fc:	81 11       	cpse	r24, r1
    18fe:	fc cf       	rjmp	.-8      	; 0x18f8 <read_RdeviceT+0x36>
		
		waitsec=2;
    1900:	82 e0       	ldi	r24, 0x02	; 2
    1902:	80 93 50 05 	sts	0x0550, r24
		while (waitsec!=0);
    1906:	80 91 50 05 	lds	r24, 0x0550
    190a:	81 11       	cpse	r24, r1
    190c:	fc cf       	rjmp	.-8      	; 0x1906 <read_RdeviceT+0x44>
		
		if (resetL())              
    190e:	0e 94 5a 05 	call	0xab4	; 0xab4 <resetL>
    1912:	88 23       	and	r24, r24
    1914:	09 f4       	brne	.+2      	; 0x1918 <read_RdeviceT+0x56>
    1916:	67 c0       	rjmp	.+206    	; 0x19e6 <read_RdeviceT+0x124>
		{
			match_rom1();
    1918:	0e 94 47 0c 	call	0x188e	; 0x188e <match_rom1>
			write(read_scratch);
    191c:	8e eb       	ldi	r24, 0xBE	; 190
    191e:	0e 94 37 05 	call	0xa6e	; 0xa6e <write>
			reads = read_T();
    1922:	0e 94 98 05 	call	0xb30	; 0xb30 <read_T>
			if (reads==255)
    1926:	8f 3f       	cpi	r24, 0xFF	; 255
    1928:	f1 f4       	brne	.+60     	; 0x1966 <read_RdeviceT+0xa4>
			{
				sprintf(display1,"\1      device    ");
    192a:	82 e1       	ldi	r24, 0x12	; 18
    192c:	eb e2       	ldi	r30, 0x2B	; 43
    192e:	f4 e0       	ldi	r31, 0x04	; 4
    1930:	ab ea       	ldi	r26, 0xAB	; 171
    1932:	b5 e0       	ldi	r27, 0x05	; 5
    1934:	01 90       	ld	r0, Z+
    1936:	0d 92       	st	X+, r0
    1938:	8a 95       	dec	r24
    193a:	e1 f7       	brne	.-8      	; 0x1934 <read_RdeviceT+0x72>
				sprintf(display2,"\2     faulty!    ");
    193c:	82 e1       	ldi	r24, 0x12	; 18
    193e:	e6 e5       	ldi	r30, 0x56	; 86
    1940:	f1 e0       	ldi	r31, 0x01	; 1
    1942:	a2 e9       	ldi	r26, 0x92	; 146
    1944:	b5 e0       	ldi	r27, 0x05	; 5
    1946:	01 90       	ld	r0, Z+
    1948:	0d 92       	st	X+, r0
    194a:	8a 95       	dec	r24
    194c:	e1 f7       	brne	.-8      	; 0x1946 <read_RdeviceT+0x84>
				while(LCD());
    194e:	0e 94 ff 03 	call	0x7fe	; 0x7fe <LCD>
    1952:	81 11       	cpse	r24, r1
    1954:	fc cf       	rjmp	.-8      	; 0x194e <read_RdeviceT+0x8c>

				waitsec=2;
    1956:	82 e0       	ldi	r24, 0x02	; 2
    1958:	80 93 50 05 	sts	0x0550, r24
				while (waitsec!=0);
    195c:	80 91 50 05 	lds	r24, 0x0550
    1960:	81 11       	cpse	r24, r1
    1962:	fc cf       	rjmp	.-8      	; 0x195c <read_RdeviceT+0x9a>
    1964:	08 95       	ret
				reads=0;
			}
			else
			{
				sprintf(display1,"\1  Device Temp   ");
    1966:	92 e1       	ldi	r25, 0x12	; 18
    1968:	e1 ed       	ldi	r30, 0xD1	; 209
    196a:	f3 e0       	ldi	r31, 0x03	; 3
    196c:	ab ea       	ldi	r26, 0xAB	; 171
    196e:	b5 e0       	ldi	r27, 0x05	; 5
    1970:	01 90       	ld	r0, Z+
    1972:	0d 92       	st	X+, r0
    1974:	9a 95       	dec	r25
    1976:	e1 f7       	brne	.-8      	; 0x1970 <read_RdeviceT+0xae>

				if (reads&1) dP = 5;
    1978:	80 ff       	sbrs	r24, 0
    197a:	02 c0       	rjmp	.+4      	; 0x1980 <read_RdeviceT+0xbe>
    197c:	95 e0       	ldi	r25, 0x05	; 5
    197e:	01 c0       	rjmp	.+2      	; 0x1982 <read_RdeviceT+0xc0>
				else dP=0;
    1980:	90 e0       	ldi	r25, 0x00	; 0
				reads>>=1;
				
				sprintf(display2,"\2     %d.%1d C     ",reads,dP);
    1982:	1f 92       	push	r1
    1984:	9f 93       	push	r25
			{
				sprintf(display1,"\1  Device Temp   ");

				if (reads&1) dP = 5;
				else dP=0;
				reads>>=1;
    1986:	86 95       	lsr	r24
				
				sprintf(display2,"\2     %d.%1d C     ",reads,dP);
    1988:	1f 92       	push	r1
    198a:	8f 93       	push	r24
    198c:	83 ee       	ldi	r24, 0xE3	; 227
    198e:	93 e0       	ldi	r25, 0x03	; 3
    1990:	9f 93       	push	r25
    1992:	8f 93       	push	r24
    1994:	82 e9       	ldi	r24, 0x92	; 146
    1996:	95 e0       	ldi	r25, 0x05	; 5
    1998:	9f 93       	push	r25
    199a:	8f 93       	push	r24
    199c:	0e 94 3c 12 	call	0x2478	; 0x2478 <sprintf>
				while(LCD());
    19a0:	8d b7       	in	r24, 0x3d	; 61
    19a2:	9e b7       	in	r25, 0x3e	; 62
    19a4:	08 96       	adiw	r24, 0x08	; 8
    19a6:	0f b6       	in	r0, 0x3f	; 63
    19a8:	f8 94       	cli
    19aa:	9e bf       	out	0x3e, r25	; 62
    19ac:	0f be       	out	0x3f, r0	; 63
    19ae:	8d bf       	out	0x3d, r24	; 61
    19b0:	0e 94 ff 03 	call	0x7fe	; 0x7fe <LCD>
    19b4:	81 11       	cpse	r24, r1
    19b6:	fc cf       	rjmp	.-8      	; 0x19b0 <read_RdeviceT+0xee>
    19b8:	08 95       	ret
			}
		}		
	}					
	else
	{
		sprintf(display1,"\1     No         ");
    19ba:	82 e1       	ldi	r24, 0x12	; 18
    19bc:	ed e3       	ldi	r30, 0x3D	; 61
    19be:	f4 e0       	ldi	r31, 0x04	; 4
    19c0:	ab ea       	ldi	r26, 0xAB	; 171
    19c2:	b5 e0       	ldi	r27, 0x05	; 5
    19c4:	01 90       	ld	r0, Z+
    19c6:	0d 92       	st	X+, r0
    19c8:	8a 95       	dec	r24
    19ca:	e1 f7       	brne	.-8      	; 0x19c4 <read_RdeviceT+0x102>
		sprintf(display2,"\2     ACK        ");
    19cc:	82 e1       	ldi	r24, 0x12	; 18
    19ce:	ef e4       	ldi	r30, 0x4F	; 79
    19d0:	f4 e0       	ldi	r31, 0x04	; 4
    19d2:	a2 e9       	ldi	r26, 0x92	; 146
    19d4:	b5 e0       	ldi	r27, 0x05	; 5
    19d6:	01 90       	ld	r0, Z+
    19d8:	0d 92       	st	X+, r0
    19da:	8a 95       	dec	r24
    19dc:	e1 f7       	brne	.-8      	; 0x19d6 <read_RdeviceT+0x114>
		while(LCD());
    19de:	0e 94 ff 03 	call	0x7fe	; 0x7fe <LCD>
    19e2:	81 11       	cpse	r24, r1
    19e4:	fc cf       	rjmp	.-8      	; 0x19de <read_RdeviceT+0x11c>
    19e6:	08 95       	ret

000019e8 <ds_read_id>:
//------------------------------------------------------
// reads ID of a single only device on bus
//------------------------------------------------------

void ds_read_id(void)
{
    19e8:	7f 92       	push	r7
    19ea:	8f 92       	push	r8
    19ec:	9f 92       	push	r9
    19ee:	af 92       	push	r10
    19f0:	bf 92       	push	r11
    19f2:	cf 92       	push	r12
    19f4:	df 92       	push	r13
    19f6:	ef 92       	push	r14
    19f8:	ff 92       	push	r15
    19fa:	0f 93       	push	r16
    19fc:	1f 93       	push	r17
    19fe:	cf 93       	push	r28
    1a00:	df 93       	push	r29
	unsigned int t;
	unsigned int count;
	
	t=sprintf( display1,"\1  Reading ID    ");
    1a02:	82 e1       	ldi	r24, 0x12	; 18
    1a04:	e1 e6       	ldi	r30, 0x61	; 97
    1a06:	f4 e0       	ldi	r31, 0x04	; 4
    1a08:	ab ea       	ldi	r26, 0xAB	; 171
    1a0a:	b5 e0       	ldi	r27, 0x05	; 5
    1a0c:	01 90       	ld	r0, Z+
    1a0e:	0d 92       	st	X+, r0
    1a10:	8a 95       	dec	r24
    1a12:	e1 f7       	brne	.-8      	; 0x1a0c <ds_read_id+0x24>
	//sprintf( display2,"\2 single device  ");
	
	sprintf( display2,"\2  %d         ",t);
    1a14:	1f 92       	push	r1
    1a16:	81 e1       	ldi	r24, 0x11	; 17
    1a18:	8f 93       	push	r24
    1a1a:	83 e7       	ldi	r24, 0x73	; 115
    1a1c:	94 e0       	ldi	r25, 0x04	; 4
    1a1e:	9f 93       	push	r25
    1a20:	8f 93       	push	r24
    1a22:	82 e9       	ldi	r24, 0x92	; 146
    1a24:	95 e0       	ldi	r25, 0x05	; 5
    1a26:	9f 93       	push	r25
    1a28:	8f 93       	push	r24
    1a2a:	0e 94 3c 12 	call	0x2478	; 0x2478 <sprintf>
	while(LCD());
    1a2e:	0f 90       	pop	r0
    1a30:	0f 90       	pop	r0
    1a32:	0f 90       	pop	r0
    1a34:	0f 90       	pop	r0
    1a36:	0f 90       	pop	r0
    1a38:	0f 90       	pop	r0
    1a3a:	0e 94 ff 03 	call	0x7fe	; 0x7fe <LCD>
    1a3e:	81 11       	cpse	r24, r1
    1a40:	fc cf       	rjmp	.-8      	; 0x1a3a <ds_read_id+0x52>
	
	waitsec=2;
    1a42:	82 e0       	ldi	r24, 0x02	; 2
    1a44:	80 93 50 05 	sts	0x0550, r24
	while (waitsec!=0);
    1a48:	80 91 50 05 	lds	r24, 0x0550
    1a4c:	81 11       	cpse	r24, r1
    1a4e:	fc cf       	rjmp	.-8      	; 0x1a48 <ds_read_id+0x60>
	
	if (resetL())
    1a50:	0e 94 5a 05 	call	0xab4	; 0xab4 <resetL>
    1a54:	88 23       	and	r24, r24
    1a56:	09 f4       	brne	.+2      	; 0x1a5a <ds_read_id+0x72>
    1a58:	7a c0       	rjmp	.+244    	; 0x1b4e <ds_read_id+0x166>
	{
		write (readRom);
    1a5a:	83 e3       	ldi	r24, 0x33	; 51
    1a5c:	0e 94 37 05 	call	0xa6e	; 0xa6e <write>
		
		t=read_rom();                       //read ID
    1a60:	0e 94 11 0b 	call	0x1622	; 0x1622 <read_rom>
		sprintf( display1,"\1 Read bytes  %d  ",t);     //shows failures
    1a64:	1f 92       	push	r1
    1a66:	8f 93       	push	r24
    1a68:	82 e8       	ldi	r24, 0x82	; 130
    1a6a:	94 e0       	ldi	r25, 0x04	; 4
    1a6c:	9f 93       	push	r25
    1a6e:	8f 93       	push	r24
    1a70:	8b ea       	ldi	r24, 0xAB	; 171
    1a72:	95 e0       	ldi	r25, 0x05	; 5
    1a74:	9f 93       	push	r25
    1a76:	8f 93       	push	r24
    1a78:	0e 94 3c 12 	call	0x2478	; 0x2478 <sprintf>
		sprintf( display2,"\2                ");     //shows failures
    1a7c:	82 e1       	ldi	r24, 0x12	; 18
    1a7e:	ea e7       	ldi	r30, 0x7A	; 122
    1a80:	f1 e0       	ldi	r31, 0x01	; 1
    1a82:	a2 e9       	ldi	r26, 0x92	; 146
    1a84:	b5 e0       	ldi	r27, 0x05	; 5
    1a86:	01 90       	ld	r0, Z+
    1a88:	0d 92       	st	X+, r0
    1a8a:	8a 95       	dec	r24
    1a8c:	e1 f7       	brne	.-8      	; 0x1a86 <ds_read_id+0x9e>
		while(LCD());
    1a8e:	0f 90       	pop	r0
    1a90:	0f 90       	pop	r0
    1a92:	0f 90       	pop	r0
    1a94:	0f 90       	pop	r0
    1a96:	0f 90       	pop	r0
    1a98:	0f 90       	pop	r0
    1a9a:	0e 94 ff 03 	call	0x7fe	; 0x7fe <LCD>
    1a9e:	81 11       	cpse	r24, r1
    1aa0:	fc cf       	rjmp	.-8      	; 0x1a9a <ds_read_id+0xb2>
		
		waitsec=2;
    1aa2:	82 e0       	ldi	r24, 0x02	; 2
    1aa4:	80 93 50 05 	sts	0x0550, r24
		while (waitsec!=0);
    1aa8:	80 91 50 05 	lds	r24, 0x0550
    1aac:	81 11       	cpse	r24, r1
    1aae:	fc cf       	rjmp	.-8      	; 0x1aa8 <ds_read_id+0xc0>
    1ab0:	c0 e0       	ldi	r28, 0x00	; 0
    1ab2:	d0 e0       	ldi	r29, 0x00	; 0
			
			for (count=0;count<8;count++)
			{
				sprintf(display1,"\1 %u        D %u ", IDX[count],count);
    1ab4:	0f 2e       	mov	r0, r31
    1ab6:	f5 e9       	ldi	r31, 0x95	; 149
    1ab8:	af 2e       	mov	r10, r31
    1aba:	f4 e0       	ldi	r31, 0x04	; 4
    1abc:	bf 2e       	mov	r11, r31
    1abe:	f0 2d       	mov	r31, r0
    1ac0:	0f 2e       	mov	r0, r31
    1ac2:	fb ea       	ldi	r31, 0xAB	; 171
    1ac4:	cf 2e       	mov	r12, r31
    1ac6:	f5 e0       	ldi	r31, 0x05	; 5
    1ac8:	df 2e       	mov	r13, r31
    1aca:	f0 2d       	mov	r31, r0
				count++;
				sprintf(display2,"\2 %u        D %u ", IDX[count],count);
    1acc:	0f 2e       	mov	r0, r31
    1ace:	f7 ea       	ldi	r31, 0xA7	; 167
    1ad0:	ef 2e       	mov	r14, r31
    1ad2:	f4 e0       	ldi	r31, 0x04	; 4
    1ad4:	ff 2e       	mov	r15, r31
    1ad6:	f0 2d       	mov	r31, r0
    1ad8:	02 e9       	ldi	r16, 0x92	; 146
    1ada:	15 e0       	ldi	r17, 0x05	; 5
				while(LCD());
				waitsec=4;
    1adc:	68 94       	set
    1ade:	77 24       	eor	r7, r7
    1ae0:	72 f8       	bld	r7, 2
		waitsec=2;
		while (waitsec!=0);
			
			for (count=0;count<8;count++)
			{
				sprintf(display1,"\1 %u        D %u ", IDX[count],count);
    1ae2:	df 93       	push	r29
    1ae4:	cf 93       	push	r28
    1ae6:	fe 01       	movw	r30, r28
    1ae8:	e6 52       	subi	r30, 0x26	; 38
    1aea:	fa 4f       	sbci	r31, 0xFA	; 250
    1aec:	4f 01       	movw	r8, r30
    1aee:	80 81       	ld	r24, Z
    1af0:	1f 92       	push	r1
    1af2:	8f 93       	push	r24
    1af4:	bf 92       	push	r11
    1af6:	af 92       	push	r10
    1af8:	df 92       	push	r13
    1afa:	cf 92       	push	r12
    1afc:	0e 94 3c 12 	call	0x2478	; 0x2478 <sprintf>
				count++;
    1b00:	ce 01       	movw	r24, r28
    1b02:	01 96       	adiw	r24, 0x01	; 1
				sprintf(display2,"\2 %u        D %u ", IDX[count],count);
    1b04:	9f 93       	push	r25
    1b06:	8f 93       	push	r24
    1b08:	f4 01       	movw	r30, r8
    1b0a:	81 81       	ldd	r24, Z+1	; 0x01
    1b0c:	1f 92       	push	r1
    1b0e:	8f 93       	push	r24
    1b10:	ff 92       	push	r15
    1b12:	ef 92       	push	r14
    1b14:	1f 93       	push	r17
    1b16:	0f 93       	push	r16
    1b18:	0e 94 3c 12 	call	0x2478	; 0x2478 <sprintf>
				while(LCD());
    1b1c:	8d b7       	in	r24, 0x3d	; 61
    1b1e:	9e b7       	in	r25, 0x3e	; 62
    1b20:	40 96       	adiw	r24, 0x10	; 16
    1b22:	0f b6       	in	r0, 0x3f	; 63
    1b24:	f8 94       	cli
    1b26:	9e bf       	out	0x3e, r25	; 62
    1b28:	0f be       	out	0x3f, r0	; 63
    1b2a:	8d bf       	out	0x3d, r24	; 61
    1b2c:	0e 94 ff 03 	call	0x7fe	; 0x7fe <LCD>
    1b30:	81 11       	cpse	r24, r1
    1b32:	fc cf       	rjmp	.-8      	; 0x1b2c <ds_read_id+0x144>
				waitsec=4;
    1b34:	70 92 50 05 	sts	0x0550, r7
				while (waitsec!=0);
    1b38:	80 91 50 05 	lds	r24, 0x0550
    1b3c:	81 11       	cpse	r24, r1
    1b3e:	fc cf       	rjmp	.-8      	; 0x1b38 <ds_read_id+0x150>
		while(LCD());
		
		waitsec=2;
		while (waitsec!=0);
			
			for (count=0;count<8;count++)
    1b40:	22 96       	adiw	r28, 0x02	; 2
    1b42:	c8 30       	cpi	r28, 0x08	; 8
    1b44:	d1 05       	cpc	r29, r1
    1b46:	69 f6       	brne	.-102    	; 0x1ae2 <ds_read_id+0xfa>
				sprintf(display2,"\2 %u        D %u ", IDX[count],count);
				while(LCD());
				waitsec=4;
				while (waitsec!=0);
			}	
		read_RdeviceT();		
    1b48:	0e 94 61 0c 	call	0x18c2	; 0x18c2 <read_RdeviceT>
    1b4c:	16 c0       	rjmp	.+44     	; 0x1b7a <ds_read_id+0x192>
	}
	else
	{
		sprintf ( display1,"\1 resetL  failure ");
    1b4e:	83 e1       	ldi	r24, 0x13	; 19
    1b50:	e9 eb       	ldi	r30, 0xB9	; 185
    1b52:	f4 e0       	ldi	r31, 0x04	; 4
    1b54:	ab ea       	ldi	r26, 0xAB	; 171
    1b56:	b5 e0       	ldi	r27, 0x05	; 5
    1b58:	01 90       	ld	r0, Z+
    1b5a:	0d 92       	st	X+, r0
    1b5c:	8a 95       	dec	r24
    1b5e:	e1 f7       	brne	.-8      	; 0x1b58 <ds_read_id+0x170>
		sprintf ( display2,"\2                 ");
    1b60:	83 e1       	ldi	r24, 0x13	; 19
    1b62:	ea e0       	ldi	r30, 0x0A	; 10
    1b64:	f2 e0       	ldi	r31, 0x02	; 2
    1b66:	a2 e9       	ldi	r26, 0x92	; 146
    1b68:	b5 e0       	ldi	r27, 0x05	; 5
    1b6a:	01 90       	ld	r0, Z+
    1b6c:	0d 92       	st	X+, r0
    1b6e:	8a 95       	dec	r24
    1b70:	e1 f7       	brne	.-8      	; 0x1b6a <ds_read_id+0x182>
		while(LCD());
    1b72:	0e 94 ff 03 	call	0x7fe	; 0x7fe <LCD>
    1b76:	81 11       	cpse	r24, r1
    1b78:	fc cf       	rjmp	.-8      	; 0x1b72 <ds_read_id+0x18a>
	}	
	waitsec=3;
    1b7a:	83 e0       	ldi	r24, 0x03	; 3
    1b7c:	80 93 50 05 	sts	0x0550, r24
	while (waitsec!=0);
    1b80:	80 91 50 05 	lds	r24, 0x0550
    1b84:	81 11       	cpse	r24, r1
    1b86:	fc cf       	rjmp	.-8      	; 0x1b80 <ds_read_id+0x198>
	
}
    1b88:	df 91       	pop	r29
    1b8a:	cf 91       	pop	r28
    1b8c:	1f 91       	pop	r17
    1b8e:	0f 91       	pop	r16
    1b90:	ff 90       	pop	r15
    1b92:	ef 90       	pop	r14
    1b94:	df 90       	pop	r13
    1b96:	cf 90       	pop	r12
    1b98:	bf 90       	pop	r11
    1b9a:	af 90       	pop	r10
    1b9c:	9f 90       	pop	r9
    1b9e:	8f 90       	pop	r8
    1ba0:	7f 90       	pop	r7
    1ba2:	08 95       	ret

00001ba4 <setFebruary>:
// by setting the number of days for February in the RAM array
//-------------------------------------------------------------------

void setFebruary (void)
{
 mdays[2] = ((2000+year) % 4) != 0? (char)28 : (char)29;
    1ba4:	80 91 67 00 	lds	r24, 0x0067
    1ba8:	83 70       	andi	r24, 0x03	; 3
    1baa:	11 f0       	breq	.+4      	; 0x1bb0 <setFebruary+0xc>
    1bac:	8c e1       	ldi	r24, 0x1C	; 28
    1bae:	01 c0       	rjmp	.+2      	; 0x1bb2 <setFebruary+0xe>
    1bb0:	8d e1       	ldi	r24, 0x1D	; 29
    1bb2:	80 93 6f 00 	sts	0x006F, r24
    1bb6:	08 95       	ret

00001bb8 <calendar>:
// updates calendar in RAM
//----------------------------------------------------------------------

void calendar(void)
{ 
    if (++day > mdays [month])	//last day of month?
    1bb8:	80 91 6a 00 	lds	r24, 0x006A
    1bbc:	8f 5f       	subi	r24, 0xFF	; 255
    1bbe:	80 93 6a 00 	sts	0x006A, r24
    1bc2:	e0 91 68 00 	lds	r30, 0x0068
    1bc6:	f0 91 69 00 	lds	r31, 0x0069
    1bca:	e3 59       	subi	r30, 0x93	; 147
    1bcc:	ff 4f       	sbci	r31, 0xFF	; 255
    1bce:	90 81       	ld	r25, Z
    1bd0:	98 17       	cp	r25, r24
    1bd2:	00 f5       	brcc	.+64     	; 0x1c14 <calendar+0x5c>
    {
        day = 1;   
    1bd4:	81 e0       	ldi	r24, 0x01	; 1
    1bd6:	80 93 6a 00 	sts	0x006A, r24
        if (++month > 12)
    1bda:	80 91 68 00 	lds	r24, 0x0068
    1bde:	90 91 69 00 	lds	r25, 0x0069
    1be2:	01 96       	adiw	r24, 0x01	; 1
    1be4:	90 93 69 00 	sts	0x0069, r25
    1be8:	80 93 68 00 	sts	0x0068, r24
    1bec:	0d 97       	sbiw	r24, 0x0d	; 13
    1bee:	90 f0       	brcs	.+36     	; 0x1c14 <calendar+0x5c>
        {
            month = 1; 
    1bf0:	81 e0       	ldi	r24, 0x01	; 1
    1bf2:	90 e0       	ldi	r25, 0x00	; 0
    1bf4:	90 93 69 00 	sts	0x0069, r25
    1bf8:	80 93 68 00 	sts	0x0068, r24
            if (++year >= 50) year = 11; // max year = 2049!!!
    1bfc:	80 91 67 00 	lds	r24, 0x0067
    1c00:	8f 5f       	subi	r24, 0xFF	; 255
    1c02:	80 93 67 00 	sts	0x0067, r24
    1c06:	82 33       	cpi	r24, 0x32	; 50
    1c08:	18 f0       	brcs	.+6      	; 0x1c10 <calendar+0x58>
    1c0a:	8b e0       	ldi	r24, 0x0B	; 11
    1c0c:	80 93 67 00 	sts	0x0067, r24
            setFebruary();  
    1c10:	0e 94 d2 0d 	call	0x1ba4	; 0x1ba4 <setFebruary>
    1c14:	08 95       	ret

00001c16 <__vector_7>:
//***********************************************************************

//TIMER1_COMPA Timer/Counter1 Compare Match A

ISR (TIMER1_COMPA_vect)		//40Hz
{ 
    1c16:	1f 92       	push	r1
    1c18:	0f 92       	push	r0
    1c1a:	0f b6       	in	r0, 0x3f	; 63
    1c1c:	0f 92       	push	r0
    1c1e:	11 24       	eor	r1, r1
    1c20:	2f 93       	push	r18
    1c22:	3f 93       	push	r19
    1c24:	4f 93       	push	r20
    1c26:	5f 93       	push	r21
    1c28:	6f 93       	push	r22
    1c2a:	7f 93       	push	r23
    1c2c:	8f 93       	push	r24
    1c2e:	9f 93       	push	r25
    1c30:	af 93       	push	r26
    1c32:	bf 93       	push	r27
    1c34:	ef 93       	push	r30
    1c36:	ff 93       	push	r31
    static char d40;
	char mask=16;			
	PORTB ^=mask;		//intr indicator pin5
    1c38:	98 b3       	in	r25, 0x18	; 24
    1c3a:	80 e1       	ldi	r24, 0x10	; 16
    1c3c:	89 27       	eor	r24, r25
    1c3e:	88 bb       	out	0x18, r24	; 24
	
    if (--debounce==0)
    1c40:	80 91 66 00 	lds	r24, 0x0066
    1c44:	81 50       	subi	r24, 0x01	; 1
    1c46:	80 93 66 00 	sts	0x0066, r24
    1c4a:	81 11       	cpse	r24, r1
    1c4c:	18 c0       	rjmp	.+48     	; 0x1c7e <__vector_7+0x68>
    {
        debounce=1;
    1c4e:	81 e0       	ldi	r24, 0x01	; 1
    1c50:	80 93 66 00 	sts	0x0066, r24
        keys =~PINA;					// input and test keys 1,2,4
    1c54:	89 b3       	in	r24, 0x19	; 25
    1c56:	80 95       	com	r24
    1c58:	80 93 e2 05 	sts	0x05E2, r24
        keys &= 0x07;					// mask pin 3-7
    1c5c:	80 91 e2 05 	lds	r24, 0x05E2
    1c60:	87 70       	andi	r24, 0x07	; 7
    1c62:	80 93 e2 05 	sts	0x05E2, r24
        if (keys!=0)                     
    1c66:	80 91 e2 05 	lds	r24, 0x05E2
    1c6a:	88 23       	and	r24, r24
    1c6c:	41 f0       	breq	.+16     	; 0x1c7e <__vector_7+0x68>
        {
            keyin = true;                  // inp flag if key pressed
    1c6e:	81 e0       	ldi	r24, 0x01	; 1
    1c70:	80 93 57 05 	sts	0x0557, r24
            debounce=20;					// 2 inputs per sec permitted
    1c74:	84 e1       	ldi	r24, 0x14	; 20
    1c76:	80 93 66 00 	sts	0x0066, r24
            update=false;                   // stop display state machine
    1c7a:	10 92 56 05 	sts	0x0556, r1
        }
    }        
        
    if (d40==5) PORTD &= ~(1<<6);		//LED off, 12.5% on-time
    1c7e:	80 91 54 05 	lds	r24, 0x0554
    1c82:	85 30       	cpi	r24, 0x05	; 5
    1c84:	09 f4       	brne	.+2      	; 0x1c88 <__vector_7+0x72>
    1c86:	96 98       	cbi	0x12, 6	; 18
    if (++d40  >= 40)					// div by 40 = 1 sec 
    1c88:	80 91 54 05 	lds	r24, 0x0554
    1c8c:	8f 5f       	subi	r24, 0xFF	; 255
    1c8e:	88 32       	cpi	r24, 0x28	; 40
    1c90:	18 f4       	brcc	.+6      	; 0x1c98 <__vector_7+0x82>
    1c92:	80 93 54 05 	sts	0x0554, r24
    1c96:	64 c0       	rjmp	.+200    	; 0x1d60 <__vector_7+0x14a>
    {
        d40=0;
    1c98:	10 92 54 05 	sts	0x0554, r1
        PORTD |= (1<<6);                // LED on sec indicator
    1c9c:	96 9a       	sbi	0x12, 6	; 18
		
		if (waitsec!=0)	waitsec--;		// sec timer for wait delay
    1c9e:	80 91 50 05 	lds	r24, 0x0550
    1ca2:	88 23       	and	r24, r24
    1ca4:	29 f0       	breq	.+10     	; 0x1cb0 <__vector_7+0x9a>
    1ca6:	80 91 50 05 	lds	r24, 0x0550
    1caa:	81 50       	subi	r24, 0x01	; 1
    1cac:	80 93 50 05 	sts	0x0550, r24
		
        if (++sec>= 60)					// sec counter
    1cb0:	80 91 59 05 	lds	r24, 0x0559
    1cb4:	8f 5f       	subi	r24, 0xFF	; 255
    1cb6:	80 93 59 05 	sts	0x0559, r24
    1cba:	8c 33       	cpi	r24, 0x3C	; 60
    1cbc:	b0 f1       	brcs	.+108    	; 0x1d2a <__vector_7+0x114>
        {
            sec=0;
    1cbe:	10 92 59 05 	sts	0x0559, r1
            if (++min >= 60)			// min counter
    1cc2:	80 91 6c 00 	lds	r24, 0x006C
    1cc6:	8f 5f       	subi	r24, 0xFF	; 255
    1cc8:	80 93 6c 00 	sts	0x006C, r24
    1ccc:	8c 33       	cpi	r24, 0x3C	; 60
    1cce:	68 f0       	brcs	.+26     	; 0x1cea <__vector_7+0xd4>
            {
                min = 0;
    1cd0:	10 92 6c 00 	sts	0x006C, r1
                if (++hour >=24)		// hour counter
    1cd4:	80 91 6b 00 	lds	r24, 0x006B
    1cd8:	8f 5f       	subi	r24, 0xFF	; 255
    1cda:	80 93 6b 00 	sts	0x006B, r24
    1cde:	88 31       	cpi	r24, 0x18	; 24
    1ce0:	20 f0       	brcs	.+8      	; 0x1cea <__vector_7+0xd4>
                { 
                    hour = 0;
    1ce2:	10 92 6b 00 	sts	0x006B, r1
                    calendar();
    1ce6:	0e 94 dc 0d 	call	0x1bb8	; 0x1bb8 <calendar>
                }
            }                            
            if (!singlemode && !NBM && ( ( min % (60/sample_rate) ==0) ||min==0) )
    1cea:	80 91 51 05 	lds	r24, 0x0551
    1cee:	81 11       	cpse	r24, r1
    1cf0:	1c c0       	rjmp	.+56     	; 0x1d2a <__vector_7+0x114>
    1cf2:	80 91 55 05 	lds	r24, 0x0555
    1cf6:	81 11       	cpse	r24, r1
    1cf8:	18 c0       	rjmp	.+48     	; 0x1d2a <__vector_7+0x114>
    1cfa:	20 91 6c 00 	lds	r18, 0x006C
    1cfe:	30 e0       	ldi	r19, 0x00	; 0
    1d00:	60 91 65 00 	lds	r22, 0x0065
    1d04:	70 e0       	ldi	r23, 0x00	; 0
    1d06:	8c e3       	ldi	r24, 0x3C	; 60
    1d08:	90 e0       	ldi	r25, 0x00	; 0
    1d0a:	0e 94 b3 11 	call	0x2366	; 0x2366 <__divmodhi4>
    1d0e:	c9 01       	movw	r24, r18
    1d10:	0e 94 b3 11 	call	0x2366	; 0x2366 <__divmodhi4>
    1d14:	89 2b       	or	r24, r25
    1d16:	21 f0       	breq	.+8      	; 0x1d20 <__vector_7+0x10a>
    1d18:	80 91 6c 00 	lds	r24, 0x006C
    1d1c:	81 11       	cpse	r24, r1
    1d1e:	05 c0       	rjmp	.+10     	; 0x1d2a <__vector_7+0x114>
            {
                read=true; // trigger temperature reading according to sample rate
    1d20:	81 e0       	ldi	r24, 0x01	; 1
    1d22:	80 93 58 05 	sts	0x0558, r24
                update=false;
    1d26:	10 92 56 05 	sts	0x0556, r1
            }
        }
        if (!read && waitsec== 0 &&(sec%3==0||sec==0)) update = true;      // trigger next display 3sec interval
    1d2a:	80 91 58 05 	lds	r24, 0x0558
    1d2e:	81 11       	cpse	r24, r1
    1d30:	17 c0       	rjmp	.+46     	; 0x1d60 <__vector_7+0x14a>
    1d32:	80 91 50 05 	lds	r24, 0x0550
    1d36:	81 11       	cpse	r24, r1
    1d38:	13 c0       	rjmp	.+38     	; 0x1d60 <__vector_7+0x14a>
    1d3a:	80 91 59 05 	lds	r24, 0x0559
    1d3e:	9b ea       	ldi	r25, 0xAB	; 171
    1d40:	89 9f       	mul	r24, r25
    1d42:	91 2d       	mov	r25, r1
    1d44:	11 24       	eor	r1, r1
    1d46:	96 95       	lsr	r25
    1d48:	29 2f       	mov	r18, r25
    1d4a:	22 0f       	add	r18, r18
    1d4c:	92 0f       	add	r25, r18
    1d4e:	89 17       	cp	r24, r25
    1d50:	21 f0       	breq	.+8      	; 0x1d5a <__vector_7+0x144>
    1d52:	80 91 59 05 	lds	r24, 0x0559
    1d56:	81 11       	cpse	r24, r1
    1d58:	03 c0       	rjmp	.+6      	; 0x1d60 <__vector_7+0x14a>
    1d5a:	81 e0       	ldi	r24, 0x01	; 1
    1d5c:	80 93 56 05 	sts	0x0556, r24
    }
       
}
    1d60:	ff 91       	pop	r31
    1d62:	ef 91       	pop	r30
    1d64:	bf 91       	pop	r27
    1d66:	af 91       	pop	r26
    1d68:	9f 91       	pop	r25
    1d6a:	8f 91       	pop	r24
    1d6c:	7f 91       	pop	r23
    1d6e:	6f 91       	pop	r22
    1d70:	5f 91       	pop	r21
    1d72:	4f 91       	pop	r20
    1d74:	3f 91       	pop	r19
    1d76:	2f 91       	pop	r18
    1d78:	0f 90       	pop	r0
    1d7a:	0f be       	out	0x3f, r0	; 63
    1d7c:	0f 90       	pop	r0
    1d7e:	1f 90       	pop	r1
    1d80:	18 95       	reti

00001d82 <displ_calendar>:
// called by main and keypad
//-----------------------------------------------------------------

void displ_calendar(void)
{  
    sprintf (display1,"\1 %4d %2d %2d     ",(unsigned int)year+2000,month,day);
    1d82:	90 91 6a 00 	lds	r25, 0x006A
    1d86:	20 91 68 00 	lds	r18, 0x0068
    1d8a:	30 91 69 00 	lds	r19, 0x0069
    1d8e:	80 91 67 00 	lds	r24, 0x0067
    1d92:	1f 92       	push	r1
    1d94:	9f 93       	push	r25
    1d96:	3f 93       	push	r19
    1d98:	2f 93       	push	r18
    1d9a:	90 e0       	ldi	r25, 0x00	; 0
    1d9c:	80 53       	subi	r24, 0x30	; 48
    1d9e:	98 4f       	sbci	r25, 0xF8	; 248
    1da0:	9f 93       	push	r25
    1da2:	8f 93       	push	r24
    1da4:	8c ec       	ldi	r24, 0xCC	; 204
    1da6:	94 e0       	ldi	r25, 0x04	; 4
    1da8:	9f 93       	push	r25
    1daa:	8f 93       	push	r24
    1dac:	8b ea       	ldi	r24, 0xAB	; 171
    1dae:	95 e0       	ldi	r25, 0x05	; 5
    1db0:	9f 93       	push	r25
    1db2:	8f 93       	push	r24
    1db4:	0e 94 3c 12 	call	0x2478	; 0x2478 <sprintf>
    sprintf (display2,"\2 %2d HRS %2d MIN  ",hour,min);
    1db8:	90 91 6c 00 	lds	r25, 0x006C
    1dbc:	80 91 6b 00 	lds	r24, 0x006B
    1dc0:	1f 92       	push	r1
    1dc2:	9f 93       	push	r25
    1dc4:	1f 92       	push	r1
    1dc6:	8f 93       	push	r24
    1dc8:	8f ed       	ldi	r24, 0xDF	; 223
    1dca:	94 e0       	ldi	r25, 0x04	; 4
    1dcc:	9f 93       	push	r25
    1dce:	8f 93       	push	r24
    1dd0:	82 e9       	ldi	r24, 0x92	; 146
    1dd2:	95 e0       	ldi	r25, 0x05	; 5
    1dd4:	9f 93       	push	r25
    1dd6:	8f 93       	push	r24
    1dd8:	0e 94 3c 12 	call	0x2478	; 0x2478 <sprintf>
	while(LCD());
    1ddc:	8d b7       	in	r24, 0x3d	; 61
    1dde:	9e b7       	in	r25, 0x3e	; 62
    1de0:	42 96       	adiw	r24, 0x12	; 18
    1de2:	0f b6       	in	r0, 0x3f	; 63
    1de4:	f8 94       	cli
    1de6:	9e bf       	out	0x3e, r25	; 62
    1de8:	0f be       	out	0x3f, r0	; 63
    1dea:	8d bf       	out	0x3d, r24	; 61
    1dec:	0e 94 ff 03 	call	0x7fe	; 0x7fe <LCD>
    1df0:	81 11       	cpse	r24, r1
    1df2:	fc cf       	rjmp	.-8      	; 0x1dec <displ_calendar+0x6a>
}  
    1df4:	08 95       	ret

00001df6 <generate>:
void generate(void)
{
	unsigned int dev;
    char dummy,stair;
	
	cli();
    1df6:	f8 94       	cli
    for(dev=0,stair=base;dev<maxdevices;dev++)
    1df8:	40 91 7b 00 	lds	r20, 0x007B
    1dfc:	e6 ec       	ldi	r30, 0xC6	; 198
    1dfe:	f5 e0       	ldi	r31, 0x05	; 5
    1e00:	28 e2       	ldi	r18, 0x28	; 40
    1e02:	24 0f       	add	r18, r20
    1e04:	84 2f       	mov	r24, r20
    1e06:	3e eb       	ldi	r19, 0xBE	; 190
    {
        if ((stair+=2)>190) dummy = 190;   //incr by 1C
    1e08:	8e 5f       	subi	r24, 0xFE	; 254
    1e0a:	98 2f       	mov	r25, r24
    1e0c:	8f 3b       	cpi	r24, 0xBF	; 191
    1e0e:	08 f0       	brcs	.+2      	; 0x1e12 <generate+0x1c>
    1e10:	93 2f       	mov	r25, r19
        else dummy = stair;
        store[dev]=dummy;
    1e12:	91 93       	st	Z+, r25
{
	unsigned int dev;
    char dummy,stair;
	
	cli();
    for(dev=0,stair=base;dev<maxdevices;dev++)
    1e14:	82 13       	cpse	r24, r18
    1e16:	f8 cf       	rjmp	.-16     	; 0x1e08 <generate+0x12>
    {
        if ((stair+=2)>190) dummy = 190;   //incr by 1C
        else dummy = stair;
        store[dev]=dummy;
    }
    if (base>=190)up_down=false;       // upper limit 95
    1e18:	4e 3b       	cpi	r20, 0xBE	; 190
    1e1a:	18 f0       	brcs	.+6      	; 0x1e22 <generate+0x2c>
    1e1c:	10 92 7a 00 	sts	0x007A, r1
    1e20:	0e c0       	rjmp	.+28     	; 0x1e3e <generate+0x48>
    else if (base<=40)up_down=true;    // lower limit 20
    1e22:	49 32       	cpi	r20, 0x29	; 41
    1e24:	20 f4       	brcc	.+8      	; 0x1e2e <generate+0x38>
    1e26:	81 e0       	ldi	r24, 0x01	; 1
    1e28:	80 93 7a 00 	sts	0x007A, r24
    1e2c:	04 c0       	rjmp	.+8      	; 0x1e36 <generate+0x40>
    if (up_down)base+= 4;            // inc or dec for next series
    1e2e:	80 91 7a 00 	lds	r24, 0x007A
    1e32:	88 23       	and	r24, r24
    1e34:	21 f0       	breq	.+8      	; 0x1e3e <generate+0x48>
    1e36:	4c 5f       	subi	r20, 0xFC	; 252
    1e38:	40 93 7b 00 	sts	0x007B, r20
    1e3c:	03 c0       	rjmp	.+6      	; 0x1e44 <generate+0x4e>
    else base-= 4;  
    1e3e:	44 50       	subi	r20, 0x04	; 4
    1e40:	40 93 7b 00 	sts	0x007B, r20
	sei(); 
    1e44:	78 94       	sei
    1e46:	08 95       	ret

00001e48 <USB>:
 //*********************************************************** 
 void USB( unsigned int t)
 {
	 unsigned int i;
	 
	 for (i=0;i<t;i++)
    1e48:	00 97       	sbiw	r24, 0x00	; 0
    1e4a:	59 f0       	breq	.+22     	; 0x1e62 <USB+0x1a>
    1e4c:	e3 ee       	ldi	r30, 0xE3	; 227
    1e4e:	f5 e0       	ldi	r31, 0x05	; 5
    1e50:	8d 51       	subi	r24, 0x1D	; 29
    1e52:	9a 4f       	sbci	r25, 0xFA	; 250
	 {
		 while ( !( UCSRA & (1<<UDRE)) );
    1e54:	5d 9b       	sbis	0x0b, 5	; 11
    1e56:	fe cf       	rjmp	.-4      	; 0x1e54 <USB+0xc>
		 UDR = USBbuffer[i];
    1e58:	21 91       	ld	r18, Z+
    1e5a:	2c b9       	out	0x0c, r18	; 12
 //*********************************************************** 
 void USB( unsigned int t)
 {
	 unsigned int i;
	 
	 for (i=0;i<t;i++)
    1e5c:	e8 17       	cp	r30, r24
    1e5e:	f9 07       	cpc	r31, r25
    1e60:	c9 f7       	brne	.-14     	; 0x1e54 <USB+0xc>
    1e62:	08 95       	ret

00001e64 <transfer>:
// storage is done after every reading and computation
// in NBM every minute for testing purpose
//****************************************************
  
void transfer(void) 
{   
    1e64:	cf 92       	push	r12
    1e66:	df 92       	push	r13
    1e68:	ef 92       	push	r14
    1e6a:	ff 92       	push	r15
    1e6c:	0f 93       	push	r16
    1e6e:	1f 93       	push	r17
    1e70:	cf 93       	push	r28
    1e72:	df 93       	push	r29
	unsigned int i,z;
    char a8;
  
	sprintf (display1,"\1Writing USBStick");
    1e74:	82 e1       	ldi	r24, 0x12	; 18
    1e76:	e3 ef       	ldi	r30, 0xF3	; 243
    1e78:	f4 e0       	ldi	r31, 0x04	; 4
    1e7a:	ab ea       	ldi	r26, 0xAB	; 171
    1e7c:	b5 e0       	ldi	r27, 0x05	; 5
    1e7e:	01 90       	ld	r0, Z+
    1e80:	0d 92       	st	X+, r0
    1e82:	8a 95       	dec	r24
    1e84:	e1 f7       	brne	.-8      	; 0x1e7e <transfer+0x1a>
	sprintf (display2,"\2                ");
    1e86:	82 e1       	ldi	r24, 0x12	; 18
    1e88:	ea e7       	ldi	r30, 0x7A	; 122
    1e8a:	f1 e0       	ldi	r31, 0x01	; 1
    1e8c:	a2 e9       	ldi	r26, 0x92	; 146
    1e8e:	b5 e0       	ldi	r27, 0x05	; 5
    1e90:	01 90       	ld	r0, Z+
    1e92:	0d 92       	st	X+, r0
    1e94:	8a 95       	dec	r24
    1e96:	e1 f7       	brne	.-8      	; 0x1e90 <transfer+0x2c>
	while(LCD());
    1e98:	0e 94 ff 03 	call	0x7fe	; 0x7fe <LCD>
    1e9c:	81 11       	cpse	r24, r1
    1e9e:	fc cf       	rjmp	.-8      	; 0x1e98 <transfer+0x34>
	waitsec=2;
    1ea0:	82 e0       	ldi	r24, 0x02	; 2
    1ea2:	80 93 50 05 	sts	0x0550, r24
	while (waitsec!=0);
    1ea6:	80 91 50 05 	lds	r24, 0x0550
    1eaa:	81 11       	cpse	r24, r1
    1eac:	fc cf       	rjmp	.-8      	; 0x1ea6 <transfer+0x42>

      //UART USB
        i=sprintf (USBbuffer,"%4d.",2000+year);
    1eae:	80 91 67 00 	lds	r24, 0x0067
    1eb2:	90 e0       	ldi	r25, 0x00	; 0
    1eb4:	80 53       	subi	r24, 0x30	; 48
    1eb6:	98 4f       	sbci	r25, 0xF8	; 248
    1eb8:	9f 93       	push	r25
    1eba:	8f 93       	push	r24
    1ebc:	85 e0       	ldi	r24, 0x05	; 5
    1ebe:	95 e0       	ldi	r25, 0x05	; 5
    1ec0:	9f 93       	push	r25
    1ec2:	8f 93       	push	r24
    1ec4:	c3 ee       	ldi	r28, 0xE3	; 227
    1ec6:	d5 e0       	ldi	r29, 0x05	; 5
    1ec8:	df 93       	push	r29
    1eca:	cf 93       	push	r28
    1ecc:	0e 94 3c 12 	call	0x2478	; 0x2478 <sprintf>
		USB (i);
    1ed0:	0e 94 24 0f 	call	0x1e48	; 0x1e48 <USB>
        // month, day
        i=sprintf (USBbuffer,"%2d.%2d.",month,day);
    1ed4:	90 91 6a 00 	lds	r25, 0x006A
    1ed8:	80 91 68 00 	lds	r24, 0x0068
    1edc:	1f 92       	push	r1
    1ede:	9f 93       	push	r25
    1ee0:	1f 92       	push	r1
    1ee2:	8f 93       	push	r24
    1ee4:	8a e0       	ldi	r24, 0x0A	; 10
    1ee6:	95 e0       	ldi	r25, 0x05	; 5
    1ee8:	9f 93       	push	r25
    1eea:	8f 93       	push	r24
    1eec:	df 93       	push	r29
    1eee:	cf 93       	push	r28
    1ef0:	0e 94 3c 12 	call	0x2478	; 0x2478 <sprintf>
        USB (i);       
    1ef4:	0e 94 24 0f 	call	0x1e48	; 0x1e48 <USB>
        // hour min
        i=sprintf (USBbuffer,"%2d:%2d\t",hour,min);
    1ef8:	90 91 6c 00 	lds	r25, 0x006C
    1efc:	80 91 6b 00 	lds	r24, 0x006B
    1f00:	1f 92       	push	r1
    1f02:	9f 93       	push	r25
    1f04:	1f 92       	push	r1
    1f06:	8f 93       	push	r24
    1f08:	83 e1       	ldi	r24, 0x13	; 19
    1f0a:	95 e0       	ldi	r25, 0x05	; 5
    1f0c:	9f 93       	push	r25
    1f0e:	8f 93       	push	r24
    1f10:	df 93       	push	r29
    1f12:	cf 93       	push	r28
    1f14:	0e 94 3c 12 	call	0x2478	; 0x2478 <sprintf>
        USB (i);      
    1f18:	0e 94 24 0f 	call	0x1e48	; 0x1e48 <USB>
        //energy
    
        i=sprintf (USBbuffer,"%ld\t",energy);
    1f1c:	80 91 4f 05 	lds	r24, 0x054F
    1f20:	8f 93       	push	r24
    1f22:	80 91 4e 05 	lds	r24, 0x054E
    1f26:	8f 93       	push	r24
    1f28:	80 91 4d 05 	lds	r24, 0x054D
    1f2c:	8f 93       	push	r24
    1f2e:	80 91 4c 05 	lds	r24, 0x054C
    1f32:	8f 93       	push	r24
    1f34:	8c e1       	ldi	r24, 0x1C	; 28
    1f36:	95 e0       	ldi	r25, 0x05	; 5
    1f38:	9f 93       	push	r25
    1f3a:	8f 93       	push	r24
    1f3c:	df 93       	push	r29
    1f3e:	cf 93       	push	r28
    1f40:	0e 94 3c 12 	call	0x2478	; 0x2478 <sprintf>
        USB (i);     
    1f44:	0e 94 24 0f 	call	0x1e48	; 0x1e48 <USB>
    1f48:	c6 ec       	ldi	r28, 0xC6	; 198
    1f4a:	d5 e0       	ldi	r29, 0x05	; 5
    1f4c:	0f 2e       	mov	r0, r31
    1f4e:	fa ed       	ldi	r31, 0xDA	; 218
    1f50:	cf 2e       	mov	r12, r31
    1f52:	f5 e0       	ldi	r31, 0x05	; 5
    1f54:	df 2e       	mov	r13, r31
    1f56:	f0 2d       	mov	r31, r0
    1f58:	8d b7       	in	r24, 0x3d	; 61
    1f5a:	9e b7       	in	r25, 0x3e	; 62
    1f5c:	4e 96       	adiw	r24, 0x1e	; 30
    1f5e:	0f b6       	in	r0, 0x3f	; 63
    1f60:	f8 94       	cli
    1f62:	9e bf       	out	0x3e, r25	; 62
    1f64:	0f be       	out	0x3f, r0	; 63
    1f66:	8d bf       	out	0x3d, r24	; 61
        // temperature values
        for (z=0;z<20;z++) 
        {
            a8 = store[z];
			a8<<=1;
            i=sprintf (USBbuffer,"%2d\t",a8);
    1f68:	0f 2e       	mov	r0, r31
    1f6a:	f7 e1       	ldi	r31, 0x17	; 23
    1f6c:	ef 2e       	mov	r14, r31
    1f6e:	f5 e0       	ldi	r31, 0x05	; 5
    1f70:	ff 2e       	mov	r15, r31
    1f72:	f0 2d       	mov	r31, r0
    1f74:	03 ee       	ldi	r16, 0xE3	; 227
    1f76:	15 e0       	ldi	r17, 0x05	; 5
        i=sprintf (USBbuffer,"%ld\t",energy);
        USB (i);     
        // temperature values
        for (z=0;z<20;z++) 
        {
            a8 = store[z];
    1f78:	89 91       	ld	r24, Y+
			a8<<=1;
    1f7a:	88 0f       	add	r24, r24
            i=sprintf (USBbuffer,"%2d\t",a8);
    1f7c:	1f 92       	push	r1
    1f7e:	8f 93       	push	r24
    1f80:	ff 92       	push	r15
    1f82:	ef 92       	push	r14
    1f84:	1f 93       	push	r17
    1f86:	0f 93       	push	r16
    1f88:	0e 94 3c 12 	call	0x2478	; 0x2478 <sprintf>
			USB (i);
    1f8c:	0e 94 24 0f 	call	0x1e48	; 0x1e48 <USB>
        //energy
    
        i=sprintf (USBbuffer,"%ld\t",energy);
        USB (i);     
        // temperature values
        for (z=0;z<20;z++) 
    1f90:	0f 90       	pop	r0
    1f92:	0f 90       	pop	r0
    1f94:	0f 90       	pop	r0
    1f96:	0f 90       	pop	r0
    1f98:	0f 90       	pop	r0
    1f9a:	0f 90       	pop	r0
    1f9c:	cc 15       	cp	r28, r12
    1f9e:	dd 05       	cpc	r29, r13
    1fa0:	59 f7       	brne	.-42     	; 0x1f78 <transfer+0x114>
            a8 = store[z];
			a8<<=1;
            i=sprintf (USBbuffer,"%2d\t",a8);
			USB (i);
        }
		i=sprintf (USBbuffer,"\n");
    1fa2:	8a e0       	ldi	r24, 0x0A	; 10
    1fa4:	90 e0       	ldi	r25, 0x00	; 0
    1fa6:	90 93 e4 05 	sts	0x05E4, r25
    1faa:	80 93 e3 05 	sts	0x05E3, r24
		USB(i);
    1fae:	81 e0       	ldi	r24, 0x01	; 1
    1fb0:	90 e0       	ldi	r25, 0x00	; 0
    1fb2:	0e 94 24 0f 	call	0x1e48	; 0x1e48 <USB>
	sei();	
    1fb6:	78 94       	sei
	sprintf (display1,"\1    Entries     ");
    1fb8:	82 e1       	ldi	r24, 0x12	; 18
    1fba:	e1 e2       	ldi	r30, 0x21	; 33
    1fbc:	f5 e0       	ldi	r31, 0x05	; 5
    1fbe:	ab ea       	ldi	r26, 0xAB	; 171
    1fc0:	b5 e0       	ldi	r27, 0x05	; 5
    1fc2:	01 90       	ld	r0, Z+
    1fc4:	0d 92       	st	X+, r0
    1fc6:	8a 95       	dec	r24
    1fc8:	e1 f7       	brne	.-8      	; 0x1fc2 <transfer+0x15e>
	sprintf (display2,"\2     %6lu     ",entries);
    1fca:	80 91 64 00 	lds	r24, 0x0064
    1fce:	8f 93       	push	r24
    1fd0:	80 91 63 00 	lds	r24, 0x0063
    1fd4:	8f 93       	push	r24
    1fd6:	80 91 62 00 	lds	r24, 0x0062
    1fda:	8f 93       	push	r24
    1fdc:	80 91 61 00 	lds	r24, 0x0061
    1fe0:	8f 93       	push	r24
    1fe2:	83 e3       	ldi	r24, 0x33	; 51
    1fe4:	95 e0       	ldi	r25, 0x05	; 5
    1fe6:	9f 93       	push	r25
    1fe8:	8f 93       	push	r24
    1fea:	82 e9       	ldi	r24, 0x92	; 146
    1fec:	95 e0       	ldi	r25, 0x05	; 5
    1fee:	9f 93       	push	r25
    1ff0:	8f 93       	push	r24
    1ff2:	0e 94 3c 12 	call	0x2478	; 0x2478 <sprintf>
	
	while(LCD ());
    1ff6:	8d b7       	in	r24, 0x3d	; 61
    1ff8:	9e b7       	in	r25, 0x3e	; 62
    1ffa:	08 96       	adiw	r24, 0x08	; 8
    1ffc:	0f b6       	in	r0, 0x3f	; 63
    1ffe:	f8 94       	cli
    2000:	9e bf       	out	0x3e, r25	; 62
    2002:	0f be       	out	0x3f, r0	; 63
    2004:	8d bf       	out	0x3d, r24	; 61
    2006:	0e 94 ff 03 	call	0x7fe	; 0x7fe <LCD>
    200a:	81 11       	cpse	r24, r1
    200c:	fc cf       	rjmp	.-8      	; 0x2006 <transfer+0x1a2>
    entries++;
    200e:	80 91 61 00 	lds	r24, 0x0061
    2012:	90 91 62 00 	lds	r25, 0x0062
    2016:	a0 91 63 00 	lds	r26, 0x0063
    201a:	b0 91 64 00 	lds	r27, 0x0064
    201e:	01 96       	adiw	r24, 0x01	; 1
    2020:	a1 1d       	adc	r26, r1
    2022:	b1 1d       	adc	r27, r1
    2024:	80 93 61 00 	sts	0x0061, r24
    2028:	90 93 62 00 	sts	0x0062, r25
    202c:	a0 93 63 00 	sts	0x0063, r26
    2030:	b0 93 64 00 	sts	0x0064, r27
    read = false;
    2034:	10 92 58 05 	sts	0x0558, r1
    displmod = 0;
    2038:	10 92 c5 05 	sts	0x05C5, r1
    203c:	10 92 c4 05 	sts	0x05C4, r1
}
    2040:	df 91       	pop	r29
    2042:	cf 91       	pop	r28
    2044:	1f 91       	pop	r17
    2046:	0f 91       	pop	r16
    2048:	ff 90       	pop	r15
    204a:	ef 90       	pop	r14
    204c:	df 90       	pop	r13
    204e:	cf 90       	pop	r12
    2050:	08 95       	ret

00002052 <__divsf3>:
    2052:	0c d0       	rcall	.+24     	; 0x206c <__divsf3x>
    2054:	eb c0       	rjmp	.+470    	; 0x222c <__fp_round>
    2056:	e3 d0       	rcall	.+454    	; 0x221e <__fp_pscB>
    2058:	40 f0       	brcs	.+16     	; 0x206a <__divsf3+0x18>
    205a:	da d0       	rcall	.+436    	; 0x2210 <__fp_pscA>
    205c:	30 f0       	brcs	.+12     	; 0x206a <__divsf3+0x18>
    205e:	21 f4       	brne	.+8      	; 0x2068 <__divsf3+0x16>
    2060:	5f 3f       	cpi	r21, 0xFF	; 255
    2062:	19 f0       	breq	.+6      	; 0x206a <__divsf3+0x18>
    2064:	cc c0       	rjmp	.+408    	; 0x21fe <__fp_inf>
    2066:	51 11       	cpse	r21, r1
    2068:	15 c1       	rjmp	.+554    	; 0x2294 <__fp_szero>
    206a:	cf c0       	rjmp	.+414    	; 0x220a <__fp_nan>

0000206c <__divsf3x>:
    206c:	f0 d0       	rcall	.+480    	; 0x224e <__fp_split3>
    206e:	98 f3       	brcs	.-26     	; 0x2056 <__divsf3+0x4>

00002070 <__divsf3_pse>:
    2070:	99 23       	and	r25, r25
    2072:	c9 f3       	breq	.-14     	; 0x2066 <__divsf3+0x14>
    2074:	55 23       	and	r21, r21
    2076:	b1 f3       	breq	.-20     	; 0x2064 <__divsf3+0x12>
    2078:	95 1b       	sub	r25, r21
    207a:	55 0b       	sbc	r21, r21
    207c:	bb 27       	eor	r27, r27
    207e:	aa 27       	eor	r26, r26
    2080:	62 17       	cp	r22, r18
    2082:	73 07       	cpc	r23, r19
    2084:	84 07       	cpc	r24, r20
    2086:	38 f0       	brcs	.+14     	; 0x2096 <__divsf3_pse+0x26>
    2088:	9f 5f       	subi	r25, 0xFF	; 255
    208a:	5f 4f       	sbci	r21, 0xFF	; 255
    208c:	22 0f       	add	r18, r18
    208e:	33 1f       	adc	r19, r19
    2090:	44 1f       	adc	r20, r20
    2092:	aa 1f       	adc	r26, r26
    2094:	a9 f3       	breq	.-22     	; 0x2080 <__divsf3_pse+0x10>
    2096:	33 d0       	rcall	.+102    	; 0x20fe <__divsf3_pse+0x8e>
    2098:	0e 2e       	mov	r0, r30
    209a:	3a f0       	brmi	.+14     	; 0x20aa <__divsf3_pse+0x3a>
    209c:	e0 e8       	ldi	r30, 0x80	; 128
    209e:	30 d0       	rcall	.+96     	; 0x2100 <__divsf3_pse+0x90>
    20a0:	91 50       	subi	r25, 0x01	; 1
    20a2:	50 40       	sbci	r21, 0x00	; 0
    20a4:	e6 95       	lsr	r30
    20a6:	00 1c       	adc	r0, r0
    20a8:	ca f7       	brpl	.-14     	; 0x209c <__divsf3_pse+0x2c>
    20aa:	29 d0       	rcall	.+82     	; 0x20fe <__divsf3_pse+0x8e>
    20ac:	fe 2f       	mov	r31, r30
    20ae:	27 d0       	rcall	.+78     	; 0x20fe <__divsf3_pse+0x8e>
    20b0:	66 0f       	add	r22, r22
    20b2:	77 1f       	adc	r23, r23
    20b4:	88 1f       	adc	r24, r24
    20b6:	bb 1f       	adc	r27, r27
    20b8:	26 17       	cp	r18, r22
    20ba:	37 07       	cpc	r19, r23
    20bc:	48 07       	cpc	r20, r24
    20be:	ab 07       	cpc	r26, r27
    20c0:	b0 e8       	ldi	r27, 0x80	; 128
    20c2:	09 f0       	breq	.+2      	; 0x20c6 <__divsf3_pse+0x56>
    20c4:	bb 0b       	sbc	r27, r27
    20c6:	80 2d       	mov	r24, r0
    20c8:	bf 01       	movw	r22, r30
    20ca:	ff 27       	eor	r31, r31
    20cc:	93 58       	subi	r25, 0x83	; 131
    20ce:	5f 4f       	sbci	r21, 0xFF	; 255
    20d0:	2a f0       	brmi	.+10     	; 0x20dc <__divsf3_pse+0x6c>
    20d2:	9e 3f       	cpi	r25, 0xFE	; 254
    20d4:	51 05       	cpc	r21, r1
    20d6:	68 f0       	brcs	.+26     	; 0x20f2 <__divsf3_pse+0x82>
    20d8:	92 c0       	rjmp	.+292    	; 0x21fe <__fp_inf>
    20da:	dc c0       	rjmp	.+440    	; 0x2294 <__fp_szero>
    20dc:	5f 3f       	cpi	r21, 0xFF	; 255
    20de:	ec f3       	brlt	.-6      	; 0x20da <__divsf3_pse+0x6a>
    20e0:	98 3e       	cpi	r25, 0xE8	; 232
    20e2:	dc f3       	brlt	.-10     	; 0x20da <__divsf3_pse+0x6a>
    20e4:	86 95       	lsr	r24
    20e6:	77 95       	ror	r23
    20e8:	67 95       	ror	r22
    20ea:	b7 95       	ror	r27
    20ec:	f7 95       	ror	r31
    20ee:	9f 5f       	subi	r25, 0xFF	; 255
    20f0:	c9 f7       	brne	.-14     	; 0x20e4 <__divsf3_pse+0x74>
    20f2:	88 0f       	add	r24, r24
    20f4:	91 1d       	adc	r25, r1
    20f6:	96 95       	lsr	r25
    20f8:	87 95       	ror	r24
    20fa:	97 f9       	bld	r25, 7
    20fc:	08 95       	ret
    20fe:	e1 e0       	ldi	r30, 0x01	; 1
    2100:	66 0f       	add	r22, r22
    2102:	77 1f       	adc	r23, r23
    2104:	88 1f       	adc	r24, r24
    2106:	bb 1f       	adc	r27, r27
    2108:	62 17       	cp	r22, r18
    210a:	73 07       	cpc	r23, r19
    210c:	84 07       	cpc	r24, r20
    210e:	ba 07       	cpc	r27, r26
    2110:	20 f0       	brcs	.+8      	; 0x211a <__divsf3_pse+0xaa>
    2112:	62 1b       	sub	r22, r18
    2114:	73 0b       	sbc	r23, r19
    2116:	84 0b       	sbc	r24, r20
    2118:	ba 0b       	sbc	r27, r26
    211a:	ee 1f       	adc	r30, r30
    211c:	88 f7       	brcc	.-30     	; 0x2100 <__divsf3_pse+0x90>
    211e:	e0 95       	com	r30
    2120:	08 95       	ret

00002122 <__fixsfsi>:
    2122:	04 d0       	rcall	.+8      	; 0x212c <__fixunssfsi>
    2124:	68 94       	set
    2126:	b1 11       	cpse	r27, r1
    2128:	b5 c0       	rjmp	.+362    	; 0x2294 <__fp_szero>
    212a:	08 95       	ret

0000212c <__fixunssfsi>:
    212c:	98 d0       	rcall	.+304    	; 0x225e <__fp_splitA>
    212e:	88 f0       	brcs	.+34     	; 0x2152 <__fixunssfsi+0x26>
    2130:	9f 57       	subi	r25, 0x7F	; 127
    2132:	90 f0       	brcs	.+36     	; 0x2158 <__fixunssfsi+0x2c>
    2134:	b9 2f       	mov	r27, r25
    2136:	99 27       	eor	r25, r25
    2138:	b7 51       	subi	r27, 0x17	; 23
    213a:	a0 f0       	brcs	.+40     	; 0x2164 <__fixunssfsi+0x38>
    213c:	d1 f0       	breq	.+52     	; 0x2172 <__fixunssfsi+0x46>
    213e:	66 0f       	add	r22, r22
    2140:	77 1f       	adc	r23, r23
    2142:	88 1f       	adc	r24, r24
    2144:	99 1f       	adc	r25, r25
    2146:	1a f0       	brmi	.+6      	; 0x214e <__fixunssfsi+0x22>
    2148:	ba 95       	dec	r27
    214a:	c9 f7       	brne	.-14     	; 0x213e <__fixunssfsi+0x12>
    214c:	12 c0       	rjmp	.+36     	; 0x2172 <__fixunssfsi+0x46>
    214e:	b1 30       	cpi	r27, 0x01	; 1
    2150:	81 f0       	breq	.+32     	; 0x2172 <__fixunssfsi+0x46>
    2152:	9f d0       	rcall	.+318    	; 0x2292 <__fp_zero>
    2154:	b1 e0       	ldi	r27, 0x01	; 1
    2156:	08 95       	ret
    2158:	9c c0       	rjmp	.+312    	; 0x2292 <__fp_zero>
    215a:	67 2f       	mov	r22, r23
    215c:	78 2f       	mov	r23, r24
    215e:	88 27       	eor	r24, r24
    2160:	b8 5f       	subi	r27, 0xF8	; 248
    2162:	39 f0       	breq	.+14     	; 0x2172 <__fixunssfsi+0x46>
    2164:	b9 3f       	cpi	r27, 0xF9	; 249
    2166:	cc f3       	brlt	.-14     	; 0x215a <__fixunssfsi+0x2e>
    2168:	86 95       	lsr	r24
    216a:	77 95       	ror	r23
    216c:	67 95       	ror	r22
    216e:	b3 95       	inc	r27
    2170:	d9 f7       	brne	.-10     	; 0x2168 <__fixunssfsi+0x3c>
    2172:	3e f4       	brtc	.+14     	; 0x2182 <__fixunssfsi+0x56>
    2174:	90 95       	com	r25
    2176:	80 95       	com	r24
    2178:	70 95       	com	r23
    217a:	61 95       	neg	r22
    217c:	7f 4f       	sbci	r23, 0xFF	; 255
    217e:	8f 4f       	sbci	r24, 0xFF	; 255
    2180:	9f 4f       	sbci	r25, 0xFF	; 255
    2182:	08 95       	ret

00002184 <__floatunsisf>:
    2184:	e8 94       	clt
    2186:	09 c0       	rjmp	.+18     	; 0x219a <__floatsisf+0x12>

00002188 <__floatsisf>:
    2188:	97 fb       	bst	r25, 7
    218a:	3e f4       	brtc	.+14     	; 0x219a <__floatsisf+0x12>
    218c:	90 95       	com	r25
    218e:	80 95       	com	r24
    2190:	70 95       	com	r23
    2192:	61 95       	neg	r22
    2194:	7f 4f       	sbci	r23, 0xFF	; 255
    2196:	8f 4f       	sbci	r24, 0xFF	; 255
    2198:	9f 4f       	sbci	r25, 0xFF	; 255
    219a:	99 23       	and	r25, r25
    219c:	a9 f0       	breq	.+42     	; 0x21c8 <__floatsisf+0x40>
    219e:	f9 2f       	mov	r31, r25
    21a0:	96 e9       	ldi	r25, 0x96	; 150
    21a2:	bb 27       	eor	r27, r27
    21a4:	93 95       	inc	r25
    21a6:	f6 95       	lsr	r31
    21a8:	87 95       	ror	r24
    21aa:	77 95       	ror	r23
    21ac:	67 95       	ror	r22
    21ae:	b7 95       	ror	r27
    21b0:	f1 11       	cpse	r31, r1
    21b2:	f8 cf       	rjmp	.-16     	; 0x21a4 <__floatsisf+0x1c>
    21b4:	fa f4       	brpl	.+62     	; 0x21f4 <__floatsisf+0x6c>
    21b6:	bb 0f       	add	r27, r27
    21b8:	11 f4       	brne	.+4      	; 0x21be <__floatsisf+0x36>
    21ba:	60 ff       	sbrs	r22, 0
    21bc:	1b c0       	rjmp	.+54     	; 0x21f4 <__floatsisf+0x6c>
    21be:	6f 5f       	subi	r22, 0xFF	; 255
    21c0:	7f 4f       	sbci	r23, 0xFF	; 255
    21c2:	8f 4f       	sbci	r24, 0xFF	; 255
    21c4:	9f 4f       	sbci	r25, 0xFF	; 255
    21c6:	16 c0       	rjmp	.+44     	; 0x21f4 <__floatsisf+0x6c>
    21c8:	88 23       	and	r24, r24
    21ca:	11 f0       	breq	.+4      	; 0x21d0 <__floatsisf+0x48>
    21cc:	96 e9       	ldi	r25, 0x96	; 150
    21ce:	11 c0       	rjmp	.+34     	; 0x21f2 <__floatsisf+0x6a>
    21d0:	77 23       	and	r23, r23
    21d2:	21 f0       	breq	.+8      	; 0x21dc <__floatsisf+0x54>
    21d4:	9e e8       	ldi	r25, 0x8E	; 142
    21d6:	87 2f       	mov	r24, r23
    21d8:	76 2f       	mov	r23, r22
    21da:	05 c0       	rjmp	.+10     	; 0x21e6 <__floatsisf+0x5e>
    21dc:	66 23       	and	r22, r22
    21de:	71 f0       	breq	.+28     	; 0x21fc <__floatsisf+0x74>
    21e0:	96 e8       	ldi	r25, 0x86	; 134
    21e2:	86 2f       	mov	r24, r22
    21e4:	70 e0       	ldi	r23, 0x00	; 0
    21e6:	60 e0       	ldi	r22, 0x00	; 0
    21e8:	2a f0       	brmi	.+10     	; 0x21f4 <__floatsisf+0x6c>
    21ea:	9a 95       	dec	r25
    21ec:	66 0f       	add	r22, r22
    21ee:	77 1f       	adc	r23, r23
    21f0:	88 1f       	adc	r24, r24
    21f2:	da f7       	brpl	.-10     	; 0x21ea <__floatsisf+0x62>
    21f4:	88 0f       	add	r24, r24
    21f6:	96 95       	lsr	r25
    21f8:	87 95       	ror	r24
    21fa:	97 f9       	bld	r25, 7
    21fc:	08 95       	ret

000021fe <__fp_inf>:
    21fe:	97 f9       	bld	r25, 7
    2200:	9f 67       	ori	r25, 0x7F	; 127
    2202:	80 e8       	ldi	r24, 0x80	; 128
    2204:	70 e0       	ldi	r23, 0x00	; 0
    2206:	60 e0       	ldi	r22, 0x00	; 0
    2208:	08 95       	ret

0000220a <__fp_nan>:
    220a:	9f ef       	ldi	r25, 0xFF	; 255
    220c:	80 ec       	ldi	r24, 0xC0	; 192
    220e:	08 95       	ret

00002210 <__fp_pscA>:
    2210:	00 24       	eor	r0, r0
    2212:	0a 94       	dec	r0
    2214:	16 16       	cp	r1, r22
    2216:	17 06       	cpc	r1, r23
    2218:	18 06       	cpc	r1, r24
    221a:	09 06       	cpc	r0, r25
    221c:	08 95       	ret

0000221e <__fp_pscB>:
    221e:	00 24       	eor	r0, r0
    2220:	0a 94       	dec	r0
    2222:	12 16       	cp	r1, r18
    2224:	13 06       	cpc	r1, r19
    2226:	14 06       	cpc	r1, r20
    2228:	05 06       	cpc	r0, r21
    222a:	08 95       	ret

0000222c <__fp_round>:
    222c:	09 2e       	mov	r0, r25
    222e:	03 94       	inc	r0
    2230:	00 0c       	add	r0, r0
    2232:	11 f4       	brne	.+4      	; 0x2238 <__fp_round+0xc>
    2234:	88 23       	and	r24, r24
    2236:	52 f0       	brmi	.+20     	; 0x224c <__fp_round+0x20>
    2238:	bb 0f       	add	r27, r27
    223a:	40 f4       	brcc	.+16     	; 0x224c <__fp_round+0x20>
    223c:	bf 2b       	or	r27, r31
    223e:	11 f4       	brne	.+4      	; 0x2244 <__fp_round+0x18>
    2240:	60 ff       	sbrs	r22, 0
    2242:	04 c0       	rjmp	.+8      	; 0x224c <__fp_round+0x20>
    2244:	6f 5f       	subi	r22, 0xFF	; 255
    2246:	7f 4f       	sbci	r23, 0xFF	; 255
    2248:	8f 4f       	sbci	r24, 0xFF	; 255
    224a:	9f 4f       	sbci	r25, 0xFF	; 255
    224c:	08 95       	ret

0000224e <__fp_split3>:
    224e:	57 fd       	sbrc	r21, 7
    2250:	90 58       	subi	r25, 0x80	; 128
    2252:	44 0f       	add	r20, r20
    2254:	55 1f       	adc	r21, r21
    2256:	59 f0       	breq	.+22     	; 0x226e <__fp_splitA+0x10>
    2258:	5f 3f       	cpi	r21, 0xFF	; 255
    225a:	71 f0       	breq	.+28     	; 0x2278 <__fp_splitA+0x1a>
    225c:	47 95       	ror	r20

0000225e <__fp_splitA>:
    225e:	88 0f       	add	r24, r24
    2260:	97 fb       	bst	r25, 7
    2262:	99 1f       	adc	r25, r25
    2264:	61 f0       	breq	.+24     	; 0x227e <__fp_splitA+0x20>
    2266:	9f 3f       	cpi	r25, 0xFF	; 255
    2268:	79 f0       	breq	.+30     	; 0x2288 <__fp_splitA+0x2a>
    226a:	87 95       	ror	r24
    226c:	08 95       	ret
    226e:	12 16       	cp	r1, r18
    2270:	13 06       	cpc	r1, r19
    2272:	14 06       	cpc	r1, r20
    2274:	55 1f       	adc	r21, r21
    2276:	f2 cf       	rjmp	.-28     	; 0x225c <__fp_split3+0xe>
    2278:	46 95       	lsr	r20
    227a:	f1 df       	rcall	.-30     	; 0x225e <__fp_splitA>
    227c:	08 c0       	rjmp	.+16     	; 0x228e <__fp_splitA+0x30>
    227e:	16 16       	cp	r1, r22
    2280:	17 06       	cpc	r1, r23
    2282:	18 06       	cpc	r1, r24
    2284:	99 1f       	adc	r25, r25
    2286:	f1 cf       	rjmp	.-30     	; 0x226a <__fp_splitA+0xc>
    2288:	86 95       	lsr	r24
    228a:	71 05       	cpc	r23, r1
    228c:	61 05       	cpc	r22, r1
    228e:	08 94       	sec
    2290:	08 95       	ret

00002292 <__fp_zero>:
    2292:	e8 94       	clt

00002294 <__fp_szero>:
    2294:	bb 27       	eor	r27, r27
    2296:	66 27       	eor	r22, r22
    2298:	77 27       	eor	r23, r23
    229a:	cb 01       	movw	r24, r22
    229c:	97 f9       	bld	r25, 7
    229e:	08 95       	ret

000022a0 <__mulsf3>:
    22a0:	0b d0       	rcall	.+22     	; 0x22b8 <__mulsf3x>
    22a2:	c4 cf       	rjmp	.-120    	; 0x222c <__fp_round>
    22a4:	b5 df       	rcall	.-150    	; 0x2210 <__fp_pscA>
    22a6:	28 f0       	brcs	.+10     	; 0x22b2 <__mulsf3+0x12>
    22a8:	ba df       	rcall	.-140    	; 0x221e <__fp_pscB>
    22aa:	18 f0       	brcs	.+6      	; 0x22b2 <__mulsf3+0x12>
    22ac:	95 23       	and	r25, r21
    22ae:	09 f0       	breq	.+2      	; 0x22b2 <__mulsf3+0x12>
    22b0:	a6 cf       	rjmp	.-180    	; 0x21fe <__fp_inf>
    22b2:	ab cf       	rjmp	.-170    	; 0x220a <__fp_nan>
    22b4:	11 24       	eor	r1, r1
    22b6:	ee cf       	rjmp	.-36     	; 0x2294 <__fp_szero>

000022b8 <__mulsf3x>:
    22b8:	ca df       	rcall	.-108    	; 0x224e <__fp_split3>
    22ba:	a0 f3       	brcs	.-24     	; 0x22a4 <__mulsf3+0x4>

000022bc <__mulsf3_pse>:
    22bc:	95 9f       	mul	r25, r21
    22be:	d1 f3       	breq	.-12     	; 0x22b4 <__mulsf3+0x14>
    22c0:	95 0f       	add	r25, r21
    22c2:	50 e0       	ldi	r21, 0x00	; 0
    22c4:	55 1f       	adc	r21, r21
    22c6:	62 9f       	mul	r22, r18
    22c8:	f0 01       	movw	r30, r0
    22ca:	72 9f       	mul	r23, r18
    22cc:	bb 27       	eor	r27, r27
    22ce:	f0 0d       	add	r31, r0
    22d0:	b1 1d       	adc	r27, r1
    22d2:	63 9f       	mul	r22, r19
    22d4:	aa 27       	eor	r26, r26
    22d6:	f0 0d       	add	r31, r0
    22d8:	b1 1d       	adc	r27, r1
    22da:	aa 1f       	adc	r26, r26
    22dc:	64 9f       	mul	r22, r20
    22de:	66 27       	eor	r22, r22
    22e0:	b0 0d       	add	r27, r0
    22e2:	a1 1d       	adc	r26, r1
    22e4:	66 1f       	adc	r22, r22
    22e6:	82 9f       	mul	r24, r18
    22e8:	22 27       	eor	r18, r18
    22ea:	b0 0d       	add	r27, r0
    22ec:	a1 1d       	adc	r26, r1
    22ee:	62 1f       	adc	r22, r18
    22f0:	73 9f       	mul	r23, r19
    22f2:	b0 0d       	add	r27, r0
    22f4:	a1 1d       	adc	r26, r1
    22f6:	62 1f       	adc	r22, r18
    22f8:	83 9f       	mul	r24, r19
    22fa:	a0 0d       	add	r26, r0
    22fc:	61 1d       	adc	r22, r1
    22fe:	22 1f       	adc	r18, r18
    2300:	74 9f       	mul	r23, r20
    2302:	33 27       	eor	r19, r19
    2304:	a0 0d       	add	r26, r0
    2306:	61 1d       	adc	r22, r1
    2308:	23 1f       	adc	r18, r19
    230a:	84 9f       	mul	r24, r20
    230c:	60 0d       	add	r22, r0
    230e:	21 1d       	adc	r18, r1
    2310:	82 2f       	mov	r24, r18
    2312:	76 2f       	mov	r23, r22
    2314:	6a 2f       	mov	r22, r26
    2316:	11 24       	eor	r1, r1
    2318:	9f 57       	subi	r25, 0x7F	; 127
    231a:	50 40       	sbci	r21, 0x00	; 0
    231c:	8a f0       	brmi	.+34     	; 0x2340 <__mulsf3_pse+0x84>
    231e:	e1 f0       	breq	.+56     	; 0x2358 <__mulsf3_pse+0x9c>
    2320:	88 23       	and	r24, r24
    2322:	4a f0       	brmi	.+18     	; 0x2336 <__mulsf3_pse+0x7a>
    2324:	ee 0f       	add	r30, r30
    2326:	ff 1f       	adc	r31, r31
    2328:	bb 1f       	adc	r27, r27
    232a:	66 1f       	adc	r22, r22
    232c:	77 1f       	adc	r23, r23
    232e:	88 1f       	adc	r24, r24
    2330:	91 50       	subi	r25, 0x01	; 1
    2332:	50 40       	sbci	r21, 0x00	; 0
    2334:	a9 f7       	brne	.-22     	; 0x2320 <__mulsf3_pse+0x64>
    2336:	9e 3f       	cpi	r25, 0xFE	; 254
    2338:	51 05       	cpc	r21, r1
    233a:	70 f0       	brcs	.+28     	; 0x2358 <__mulsf3_pse+0x9c>
    233c:	60 cf       	rjmp	.-320    	; 0x21fe <__fp_inf>
    233e:	aa cf       	rjmp	.-172    	; 0x2294 <__fp_szero>
    2340:	5f 3f       	cpi	r21, 0xFF	; 255
    2342:	ec f3       	brlt	.-6      	; 0x233e <__mulsf3_pse+0x82>
    2344:	98 3e       	cpi	r25, 0xE8	; 232
    2346:	dc f3       	brlt	.-10     	; 0x233e <__mulsf3_pse+0x82>
    2348:	86 95       	lsr	r24
    234a:	77 95       	ror	r23
    234c:	67 95       	ror	r22
    234e:	b7 95       	ror	r27
    2350:	f7 95       	ror	r31
    2352:	e7 95       	ror	r30
    2354:	9f 5f       	subi	r25, 0xFF	; 255
    2356:	c1 f7       	brne	.-16     	; 0x2348 <__mulsf3_pse+0x8c>
    2358:	fe 2b       	or	r31, r30
    235a:	88 0f       	add	r24, r24
    235c:	91 1d       	adc	r25, r1
    235e:	96 95       	lsr	r25
    2360:	87 95       	ror	r24
    2362:	97 f9       	bld	r25, 7
    2364:	08 95       	ret

00002366 <__divmodhi4>:
    2366:	97 fb       	bst	r25, 7
    2368:	07 2e       	mov	r0, r23
    236a:	16 f4       	brtc	.+4      	; 0x2370 <__divmodhi4+0xa>
    236c:	00 94       	com	r0
    236e:	07 d0       	rcall	.+14     	; 0x237e <__divmodhi4_neg1>
    2370:	77 fd       	sbrc	r23, 7
    2372:	09 d0       	rcall	.+18     	; 0x2386 <__divmodhi4_neg2>
    2374:	0e 94 06 12 	call	0x240c	; 0x240c <__udivmodhi4>
    2378:	07 fc       	sbrc	r0, 7
    237a:	05 d0       	rcall	.+10     	; 0x2386 <__divmodhi4_neg2>
    237c:	3e f4       	brtc	.+14     	; 0x238c <__divmodhi4_exit>

0000237e <__divmodhi4_neg1>:
    237e:	90 95       	com	r25
    2380:	81 95       	neg	r24
    2382:	9f 4f       	sbci	r25, 0xFF	; 255
    2384:	08 95       	ret

00002386 <__divmodhi4_neg2>:
    2386:	70 95       	com	r23
    2388:	61 95       	neg	r22
    238a:	7f 4f       	sbci	r23, 0xFF	; 255

0000238c <__divmodhi4_exit>:
    238c:	08 95       	ret

0000238e <__divmodsi4>:
    238e:	05 2e       	mov	r0, r21
    2390:	97 fb       	bst	r25, 7
    2392:	1e f4       	brtc	.+6      	; 0x239a <__divmodsi4+0xc>
    2394:	00 94       	com	r0
    2396:	0e 94 de 11 	call	0x23bc	; 0x23bc <__negsi2>
    239a:	57 fd       	sbrc	r21, 7
    239c:	07 d0       	rcall	.+14     	; 0x23ac <__divmodsi4_neg2>
    239e:	0e 94 1a 12 	call	0x2434	; 0x2434 <__udivmodsi4>
    23a2:	07 fc       	sbrc	r0, 7
    23a4:	03 d0       	rcall	.+6      	; 0x23ac <__divmodsi4_neg2>
    23a6:	4e f4       	brtc	.+18     	; 0x23ba <__divmodsi4_exit>
    23a8:	0c 94 de 11 	jmp	0x23bc	; 0x23bc <__negsi2>

000023ac <__divmodsi4_neg2>:
    23ac:	50 95       	com	r21
    23ae:	40 95       	com	r20
    23b0:	30 95       	com	r19
    23b2:	21 95       	neg	r18
    23b4:	3f 4f       	sbci	r19, 0xFF	; 255
    23b6:	4f 4f       	sbci	r20, 0xFF	; 255
    23b8:	5f 4f       	sbci	r21, 0xFF	; 255

000023ba <__divmodsi4_exit>:
    23ba:	08 95       	ret

000023bc <__negsi2>:
    23bc:	90 95       	com	r25
    23be:	80 95       	com	r24
    23c0:	70 95       	com	r23
    23c2:	61 95       	neg	r22
    23c4:	7f 4f       	sbci	r23, 0xFF	; 255
    23c6:	8f 4f       	sbci	r24, 0xFF	; 255
    23c8:	9f 4f       	sbci	r25, 0xFF	; 255
    23ca:	08 95       	ret

000023cc <__tablejump2__>:
    23cc:	ee 0f       	add	r30, r30
    23ce:	ff 1f       	adc	r31, r31

000023d0 <__tablejump__>:
    23d0:	05 90       	lpm	r0, Z+
    23d2:	f4 91       	lpm	r31, Z
    23d4:	e0 2d       	mov	r30, r0
    23d6:	09 94       	ijmp

000023d8 <__umulhisi3>:
    23d8:	a2 9f       	mul	r26, r18
    23da:	b0 01       	movw	r22, r0
    23dc:	b3 9f       	mul	r27, r19
    23de:	c0 01       	movw	r24, r0
    23e0:	a3 9f       	mul	r26, r19
    23e2:	70 0d       	add	r23, r0
    23e4:	81 1d       	adc	r24, r1
    23e6:	11 24       	eor	r1, r1
    23e8:	91 1d       	adc	r25, r1
    23ea:	b2 9f       	mul	r27, r18
    23ec:	70 0d       	add	r23, r0
    23ee:	81 1d       	adc	r24, r1
    23f0:	11 24       	eor	r1, r1
    23f2:	91 1d       	adc	r25, r1
    23f4:	08 95       	ret

000023f6 <__muluhisi3>:
    23f6:	0e 94 ec 11 	call	0x23d8	; 0x23d8 <__umulhisi3>
    23fa:	a5 9f       	mul	r26, r21
    23fc:	90 0d       	add	r25, r0
    23fe:	b4 9f       	mul	r27, r20
    2400:	90 0d       	add	r25, r0
    2402:	a4 9f       	mul	r26, r20
    2404:	80 0d       	add	r24, r0
    2406:	91 1d       	adc	r25, r1
    2408:	11 24       	eor	r1, r1
    240a:	08 95       	ret

0000240c <__udivmodhi4>:
    240c:	aa 1b       	sub	r26, r26
    240e:	bb 1b       	sub	r27, r27
    2410:	51 e1       	ldi	r21, 0x11	; 17
    2412:	07 c0       	rjmp	.+14     	; 0x2422 <__udivmodhi4_ep>

00002414 <__udivmodhi4_loop>:
    2414:	aa 1f       	adc	r26, r26
    2416:	bb 1f       	adc	r27, r27
    2418:	a6 17       	cp	r26, r22
    241a:	b7 07       	cpc	r27, r23
    241c:	10 f0       	brcs	.+4      	; 0x2422 <__udivmodhi4_ep>
    241e:	a6 1b       	sub	r26, r22
    2420:	b7 0b       	sbc	r27, r23

00002422 <__udivmodhi4_ep>:
    2422:	88 1f       	adc	r24, r24
    2424:	99 1f       	adc	r25, r25
    2426:	5a 95       	dec	r21
    2428:	a9 f7       	brne	.-22     	; 0x2414 <__udivmodhi4_loop>
    242a:	80 95       	com	r24
    242c:	90 95       	com	r25
    242e:	bc 01       	movw	r22, r24
    2430:	cd 01       	movw	r24, r26
    2432:	08 95       	ret

00002434 <__udivmodsi4>:
    2434:	a1 e2       	ldi	r26, 0x21	; 33
    2436:	1a 2e       	mov	r1, r26
    2438:	aa 1b       	sub	r26, r26
    243a:	bb 1b       	sub	r27, r27
    243c:	fd 01       	movw	r30, r26
    243e:	0d c0       	rjmp	.+26     	; 0x245a <__udivmodsi4_ep>

00002440 <__udivmodsi4_loop>:
    2440:	aa 1f       	adc	r26, r26
    2442:	bb 1f       	adc	r27, r27
    2444:	ee 1f       	adc	r30, r30
    2446:	ff 1f       	adc	r31, r31
    2448:	a2 17       	cp	r26, r18
    244a:	b3 07       	cpc	r27, r19
    244c:	e4 07       	cpc	r30, r20
    244e:	f5 07       	cpc	r31, r21
    2450:	20 f0       	brcs	.+8      	; 0x245a <__udivmodsi4_ep>
    2452:	a2 1b       	sub	r26, r18
    2454:	b3 0b       	sbc	r27, r19
    2456:	e4 0b       	sbc	r30, r20
    2458:	f5 0b       	sbc	r31, r21

0000245a <__udivmodsi4_ep>:
    245a:	66 1f       	adc	r22, r22
    245c:	77 1f       	adc	r23, r23
    245e:	88 1f       	adc	r24, r24
    2460:	99 1f       	adc	r25, r25
    2462:	1a 94       	dec	r1
    2464:	69 f7       	brne	.-38     	; 0x2440 <__udivmodsi4_loop>
    2466:	60 95       	com	r22
    2468:	70 95       	com	r23
    246a:	80 95       	com	r24
    246c:	90 95       	com	r25
    246e:	9b 01       	movw	r18, r22
    2470:	ac 01       	movw	r20, r24
    2472:	bd 01       	movw	r22, r26
    2474:	cf 01       	movw	r24, r30
    2476:	08 95       	ret

00002478 <sprintf>:
    2478:	ae e0       	ldi	r26, 0x0E	; 14
    247a:	b0 e0       	ldi	r27, 0x00	; 0
    247c:	e2 e4       	ldi	r30, 0x42	; 66
    247e:	f2 e1       	ldi	r31, 0x12	; 18
    2480:	0c 94 e4 14 	jmp	0x29c8	; 0x29c8 <__prologue_saves__+0x1c>
    2484:	0d 89       	ldd	r16, Y+21	; 0x15
    2486:	1e 89       	ldd	r17, Y+22	; 0x16
    2488:	86 e0       	ldi	r24, 0x06	; 6
    248a:	8c 83       	std	Y+4, r24	; 0x04
    248c:	1a 83       	std	Y+2, r17	; 0x02
    248e:	09 83       	std	Y+1, r16	; 0x01
    2490:	8f ef       	ldi	r24, 0xFF	; 255
    2492:	9f e7       	ldi	r25, 0x7F	; 127
    2494:	9e 83       	std	Y+6, r25	; 0x06
    2496:	8d 83       	std	Y+5, r24	; 0x05
    2498:	ae 01       	movw	r20, r28
    249a:	47 5e       	subi	r20, 0xE7	; 231
    249c:	5f 4f       	sbci	r21, 0xFF	; 255
    249e:	6f 89       	ldd	r22, Y+23	; 0x17
    24a0:	78 8d       	ldd	r23, Y+24	; 0x18
    24a2:	ce 01       	movw	r24, r28
    24a4:	01 96       	adiw	r24, 0x01	; 1
    24a6:	0e 94 5e 12 	call	0x24bc	; 0x24bc <vfprintf>
    24aa:	ef 81       	ldd	r30, Y+7	; 0x07
    24ac:	f8 85       	ldd	r31, Y+8	; 0x08
    24ae:	e0 0f       	add	r30, r16
    24b0:	f1 1f       	adc	r31, r17
    24b2:	10 82       	st	Z, r1
    24b4:	2e 96       	adiw	r28, 0x0e	; 14
    24b6:	e4 e0       	ldi	r30, 0x04	; 4
    24b8:	0c 94 00 15 	jmp	0x2a00	; 0x2a00 <__epilogue_restores__+0x1c>

000024bc <vfprintf>:
    24bc:	ac e0       	ldi	r26, 0x0C	; 12
    24be:	b0 e0       	ldi	r27, 0x00	; 0
    24c0:	e4 e6       	ldi	r30, 0x64	; 100
    24c2:	f2 e1       	ldi	r31, 0x12	; 18
    24c4:	0c 94 d6 14 	jmp	0x29ac	; 0x29ac <__prologue_saves__>
    24c8:	7c 01       	movw	r14, r24
    24ca:	6b 01       	movw	r12, r22
    24cc:	8a 01       	movw	r16, r20
    24ce:	fc 01       	movw	r30, r24
    24d0:	17 82       	std	Z+7, r1	; 0x07
    24d2:	16 82       	std	Z+6, r1	; 0x06
    24d4:	83 81       	ldd	r24, Z+3	; 0x03
    24d6:	81 ff       	sbrs	r24, 1
    24d8:	bd c1       	rjmp	.+890    	; 0x2854 <vfprintf+0x398>
    24da:	ce 01       	movw	r24, r28
    24dc:	01 96       	adiw	r24, 0x01	; 1
    24de:	4c 01       	movw	r8, r24
    24e0:	f7 01       	movw	r30, r14
    24e2:	93 81       	ldd	r25, Z+3	; 0x03
    24e4:	f6 01       	movw	r30, r12
    24e6:	93 fd       	sbrc	r25, 3
    24e8:	85 91       	lpm	r24, Z+
    24ea:	93 ff       	sbrs	r25, 3
    24ec:	81 91       	ld	r24, Z+
    24ee:	6f 01       	movw	r12, r30
    24f0:	88 23       	and	r24, r24
    24f2:	09 f4       	brne	.+2      	; 0x24f6 <vfprintf+0x3a>
    24f4:	ab c1       	rjmp	.+854    	; 0x284c <vfprintf+0x390>
    24f6:	85 32       	cpi	r24, 0x25	; 37
    24f8:	39 f4       	brne	.+14     	; 0x2508 <vfprintf+0x4c>
    24fa:	93 fd       	sbrc	r25, 3
    24fc:	85 91       	lpm	r24, Z+
    24fe:	93 ff       	sbrs	r25, 3
    2500:	81 91       	ld	r24, Z+
    2502:	6f 01       	movw	r12, r30
    2504:	85 32       	cpi	r24, 0x25	; 37
    2506:	29 f4       	brne	.+10     	; 0x2512 <vfprintf+0x56>
    2508:	b7 01       	movw	r22, r14
    250a:	90 e0       	ldi	r25, 0x00	; 0
    250c:	0e 94 46 14 	call	0x288c	; 0x288c <fputc>
    2510:	e7 cf       	rjmp	.-50     	; 0x24e0 <vfprintf+0x24>
    2512:	51 2c       	mov	r5, r1
    2514:	31 2c       	mov	r3, r1
    2516:	20 e0       	ldi	r18, 0x00	; 0
    2518:	20 32       	cpi	r18, 0x20	; 32
    251a:	a0 f4       	brcc	.+40     	; 0x2544 <vfprintf+0x88>
    251c:	8b 32       	cpi	r24, 0x2B	; 43
    251e:	69 f0       	breq	.+26     	; 0x253a <vfprintf+0x7e>
    2520:	30 f4       	brcc	.+12     	; 0x252e <vfprintf+0x72>
    2522:	80 32       	cpi	r24, 0x20	; 32
    2524:	59 f0       	breq	.+22     	; 0x253c <vfprintf+0x80>
    2526:	83 32       	cpi	r24, 0x23	; 35
    2528:	69 f4       	brne	.+26     	; 0x2544 <vfprintf+0x88>
    252a:	20 61       	ori	r18, 0x10	; 16
    252c:	2c c0       	rjmp	.+88     	; 0x2586 <vfprintf+0xca>
    252e:	8d 32       	cpi	r24, 0x2D	; 45
    2530:	39 f0       	breq	.+14     	; 0x2540 <vfprintf+0x84>
    2532:	80 33       	cpi	r24, 0x30	; 48
    2534:	39 f4       	brne	.+14     	; 0x2544 <vfprintf+0x88>
    2536:	21 60       	ori	r18, 0x01	; 1
    2538:	26 c0       	rjmp	.+76     	; 0x2586 <vfprintf+0xca>
    253a:	22 60       	ori	r18, 0x02	; 2
    253c:	24 60       	ori	r18, 0x04	; 4
    253e:	23 c0       	rjmp	.+70     	; 0x2586 <vfprintf+0xca>
    2540:	28 60       	ori	r18, 0x08	; 8
    2542:	21 c0       	rjmp	.+66     	; 0x2586 <vfprintf+0xca>
    2544:	27 fd       	sbrc	r18, 7
    2546:	27 c0       	rjmp	.+78     	; 0x2596 <vfprintf+0xda>
    2548:	30 ed       	ldi	r19, 0xD0	; 208
    254a:	38 0f       	add	r19, r24
    254c:	3a 30       	cpi	r19, 0x0A	; 10
    254e:	78 f4       	brcc	.+30     	; 0x256e <vfprintf+0xb2>
    2550:	26 ff       	sbrs	r18, 6
    2552:	06 c0       	rjmp	.+12     	; 0x2560 <vfprintf+0xa4>
    2554:	fa e0       	ldi	r31, 0x0A	; 10
    2556:	5f 9e       	mul	r5, r31
    2558:	30 0d       	add	r19, r0
    255a:	11 24       	eor	r1, r1
    255c:	53 2e       	mov	r5, r19
    255e:	13 c0       	rjmp	.+38     	; 0x2586 <vfprintf+0xca>
    2560:	8a e0       	ldi	r24, 0x0A	; 10
    2562:	38 9e       	mul	r3, r24
    2564:	30 0d       	add	r19, r0
    2566:	11 24       	eor	r1, r1
    2568:	33 2e       	mov	r3, r19
    256a:	20 62       	ori	r18, 0x20	; 32
    256c:	0c c0       	rjmp	.+24     	; 0x2586 <vfprintf+0xca>
    256e:	8e 32       	cpi	r24, 0x2E	; 46
    2570:	21 f4       	brne	.+8      	; 0x257a <vfprintf+0xbe>
    2572:	26 fd       	sbrc	r18, 6
    2574:	6b c1       	rjmp	.+726    	; 0x284c <vfprintf+0x390>
    2576:	20 64       	ori	r18, 0x40	; 64
    2578:	06 c0       	rjmp	.+12     	; 0x2586 <vfprintf+0xca>
    257a:	8c 36       	cpi	r24, 0x6C	; 108
    257c:	11 f4       	brne	.+4      	; 0x2582 <vfprintf+0xc6>
    257e:	20 68       	ori	r18, 0x80	; 128
    2580:	02 c0       	rjmp	.+4      	; 0x2586 <vfprintf+0xca>
    2582:	88 36       	cpi	r24, 0x68	; 104
    2584:	41 f4       	brne	.+16     	; 0x2596 <vfprintf+0xda>
    2586:	f6 01       	movw	r30, r12
    2588:	93 fd       	sbrc	r25, 3
    258a:	85 91       	lpm	r24, Z+
    258c:	93 ff       	sbrs	r25, 3
    258e:	81 91       	ld	r24, Z+
    2590:	6f 01       	movw	r12, r30
    2592:	81 11       	cpse	r24, r1
    2594:	c1 cf       	rjmp	.-126    	; 0x2518 <vfprintf+0x5c>
    2596:	98 2f       	mov	r25, r24
    2598:	9f 7d       	andi	r25, 0xDF	; 223
    259a:	95 54       	subi	r25, 0x45	; 69
    259c:	93 30       	cpi	r25, 0x03	; 3
    259e:	28 f4       	brcc	.+10     	; 0x25aa <vfprintf+0xee>
    25a0:	0c 5f       	subi	r16, 0xFC	; 252
    25a2:	1f 4f       	sbci	r17, 0xFF	; 255
    25a4:	ff e3       	ldi	r31, 0x3F	; 63
    25a6:	f9 83       	std	Y+1, r31	; 0x01
    25a8:	0d c0       	rjmp	.+26     	; 0x25c4 <vfprintf+0x108>
    25aa:	83 36       	cpi	r24, 0x63	; 99
    25ac:	31 f0       	breq	.+12     	; 0x25ba <vfprintf+0xfe>
    25ae:	83 37       	cpi	r24, 0x73	; 115
    25b0:	71 f0       	breq	.+28     	; 0x25ce <vfprintf+0x112>
    25b2:	83 35       	cpi	r24, 0x53	; 83
    25b4:	09 f0       	breq	.+2      	; 0x25b8 <vfprintf+0xfc>
    25b6:	5b c0       	rjmp	.+182    	; 0x266e <vfprintf+0x1b2>
    25b8:	22 c0       	rjmp	.+68     	; 0x25fe <vfprintf+0x142>
    25ba:	f8 01       	movw	r30, r16
    25bc:	80 81       	ld	r24, Z
    25be:	89 83       	std	Y+1, r24	; 0x01
    25c0:	0e 5f       	subi	r16, 0xFE	; 254
    25c2:	1f 4f       	sbci	r17, 0xFF	; 255
    25c4:	44 24       	eor	r4, r4
    25c6:	43 94       	inc	r4
    25c8:	51 2c       	mov	r5, r1
    25ca:	54 01       	movw	r10, r8
    25cc:	15 c0       	rjmp	.+42     	; 0x25f8 <vfprintf+0x13c>
    25ce:	38 01       	movw	r6, r16
    25d0:	f2 e0       	ldi	r31, 0x02	; 2
    25d2:	6f 0e       	add	r6, r31
    25d4:	71 1c       	adc	r7, r1
    25d6:	f8 01       	movw	r30, r16
    25d8:	a0 80       	ld	r10, Z
    25da:	b1 80       	ldd	r11, Z+1	; 0x01
    25dc:	26 ff       	sbrs	r18, 6
    25de:	03 c0       	rjmp	.+6      	; 0x25e6 <vfprintf+0x12a>
    25e0:	65 2d       	mov	r22, r5
    25e2:	70 e0       	ldi	r23, 0x00	; 0
    25e4:	02 c0       	rjmp	.+4      	; 0x25ea <vfprintf+0x12e>
    25e6:	6f ef       	ldi	r22, 0xFF	; 255
    25e8:	7f ef       	ldi	r23, 0xFF	; 255
    25ea:	c5 01       	movw	r24, r10
    25ec:	2c 87       	std	Y+12, r18	; 0x0c
    25ee:	0e 94 3b 14 	call	0x2876	; 0x2876 <strnlen>
    25f2:	2c 01       	movw	r4, r24
    25f4:	83 01       	movw	r16, r6
    25f6:	2c 85       	ldd	r18, Y+12	; 0x0c
    25f8:	2f 77       	andi	r18, 0x7F	; 127
    25fa:	22 2e       	mov	r2, r18
    25fc:	17 c0       	rjmp	.+46     	; 0x262c <vfprintf+0x170>
    25fe:	38 01       	movw	r6, r16
    2600:	f2 e0       	ldi	r31, 0x02	; 2
    2602:	6f 0e       	add	r6, r31
    2604:	71 1c       	adc	r7, r1
    2606:	f8 01       	movw	r30, r16
    2608:	a0 80       	ld	r10, Z
    260a:	b1 80       	ldd	r11, Z+1	; 0x01
    260c:	26 ff       	sbrs	r18, 6
    260e:	03 c0       	rjmp	.+6      	; 0x2616 <vfprintf+0x15a>
    2610:	65 2d       	mov	r22, r5
    2612:	70 e0       	ldi	r23, 0x00	; 0
    2614:	02 c0       	rjmp	.+4      	; 0x261a <vfprintf+0x15e>
    2616:	6f ef       	ldi	r22, 0xFF	; 255
    2618:	7f ef       	ldi	r23, 0xFF	; 255
    261a:	c5 01       	movw	r24, r10
    261c:	2c 87       	std	Y+12, r18	; 0x0c
    261e:	0e 94 30 14 	call	0x2860	; 0x2860 <strnlen_P>
    2622:	2c 01       	movw	r4, r24
    2624:	2c 85       	ldd	r18, Y+12	; 0x0c
    2626:	20 68       	ori	r18, 0x80	; 128
    2628:	22 2e       	mov	r2, r18
    262a:	83 01       	movw	r16, r6
    262c:	23 fc       	sbrc	r2, 3
    262e:	1b c0       	rjmp	.+54     	; 0x2666 <vfprintf+0x1aa>
    2630:	83 2d       	mov	r24, r3
    2632:	90 e0       	ldi	r25, 0x00	; 0
    2634:	48 16       	cp	r4, r24
    2636:	59 06       	cpc	r5, r25
    2638:	b0 f4       	brcc	.+44     	; 0x2666 <vfprintf+0x1aa>
    263a:	b7 01       	movw	r22, r14
    263c:	80 e2       	ldi	r24, 0x20	; 32
    263e:	90 e0       	ldi	r25, 0x00	; 0
    2640:	0e 94 46 14 	call	0x288c	; 0x288c <fputc>
    2644:	3a 94       	dec	r3
    2646:	f4 cf       	rjmp	.-24     	; 0x2630 <vfprintf+0x174>
    2648:	f5 01       	movw	r30, r10
    264a:	27 fc       	sbrc	r2, 7
    264c:	85 91       	lpm	r24, Z+
    264e:	27 fe       	sbrs	r2, 7
    2650:	81 91       	ld	r24, Z+
    2652:	5f 01       	movw	r10, r30
    2654:	b7 01       	movw	r22, r14
    2656:	90 e0       	ldi	r25, 0x00	; 0
    2658:	0e 94 46 14 	call	0x288c	; 0x288c <fputc>
    265c:	31 10       	cpse	r3, r1
    265e:	3a 94       	dec	r3
    2660:	f1 e0       	ldi	r31, 0x01	; 1
    2662:	4f 1a       	sub	r4, r31
    2664:	51 08       	sbc	r5, r1
    2666:	41 14       	cp	r4, r1
    2668:	51 04       	cpc	r5, r1
    266a:	71 f7       	brne	.-36     	; 0x2648 <vfprintf+0x18c>
    266c:	e5 c0       	rjmp	.+458    	; 0x2838 <vfprintf+0x37c>
    266e:	84 36       	cpi	r24, 0x64	; 100
    2670:	11 f0       	breq	.+4      	; 0x2676 <vfprintf+0x1ba>
    2672:	89 36       	cpi	r24, 0x69	; 105
    2674:	39 f5       	brne	.+78     	; 0x26c4 <vfprintf+0x208>
    2676:	f8 01       	movw	r30, r16
    2678:	27 ff       	sbrs	r18, 7
    267a:	07 c0       	rjmp	.+14     	; 0x268a <vfprintf+0x1ce>
    267c:	60 81       	ld	r22, Z
    267e:	71 81       	ldd	r23, Z+1	; 0x01
    2680:	82 81       	ldd	r24, Z+2	; 0x02
    2682:	93 81       	ldd	r25, Z+3	; 0x03
    2684:	0c 5f       	subi	r16, 0xFC	; 252
    2686:	1f 4f       	sbci	r17, 0xFF	; 255
    2688:	08 c0       	rjmp	.+16     	; 0x269a <vfprintf+0x1de>
    268a:	60 81       	ld	r22, Z
    268c:	71 81       	ldd	r23, Z+1	; 0x01
    268e:	88 27       	eor	r24, r24
    2690:	77 fd       	sbrc	r23, 7
    2692:	80 95       	com	r24
    2694:	98 2f       	mov	r25, r24
    2696:	0e 5f       	subi	r16, 0xFE	; 254
    2698:	1f 4f       	sbci	r17, 0xFF	; 255
    269a:	2f 76       	andi	r18, 0x6F	; 111
    269c:	b2 2e       	mov	r11, r18
    269e:	97 ff       	sbrs	r25, 7
    26a0:	09 c0       	rjmp	.+18     	; 0x26b4 <vfprintf+0x1f8>
    26a2:	90 95       	com	r25
    26a4:	80 95       	com	r24
    26a6:	70 95       	com	r23
    26a8:	61 95       	neg	r22
    26aa:	7f 4f       	sbci	r23, 0xFF	; 255
    26ac:	8f 4f       	sbci	r24, 0xFF	; 255
    26ae:	9f 4f       	sbci	r25, 0xFF	; 255
    26b0:	20 68       	ori	r18, 0x80	; 128
    26b2:	b2 2e       	mov	r11, r18
    26b4:	2a e0       	ldi	r18, 0x0A	; 10
    26b6:	30 e0       	ldi	r19, 0x00	; 0
    26b8:	a4 01       	movw	r20, r8
    26ba:	0e 94 78 14 	call	0x28f0	; 0x28f0 <__ultoa_invert>
    26be:	a8 2e       	mov	r10, r24
    26c0:	a8 18       	sub	r10, r8
    26c2:	44 c0       	rjmp	.+136    	; 0x274c <vfprintf+0x290>
    26c4:	85 37       	cpi	r24, 0x75	; 117
    26c6:	29 f4       	brne	.+10     	; 0x26d2 <vfprintf+0x216>
    26c8:	2f 7e       	andi	r18, 0xEF	; 239
    26ca:	b2 2e       	mov	r11, r18
    26cc:	2a e0       	ldi	r18, 0x0A	; 10
    26ce:	30 e0       	ldi	r19, 0x00	; 0
    26d0:	25 c0       	rjmp	.+74     	; 0x271c <vfprintf+0x260>
    26d2:	f2 2f       	mov	r31, r18
    26d4:	f9 7f       	andi	r31, 0xF9	; 249
    26d6:	bf 2e       	mov	r11, r31
    26d8:	8f 36       	cpi	r24, 0x6F	; 111
    26da:	c1 f0       	breq	.+48     	; 0x270c <vfprintf+0x250>
    26dc:	18 f4       	brcc	.+6      	; 0x26e4 <vfprintf+0x228>
    26de:	88 35       	cpi	r24, 0x58	; 88
    26e0:	79 f0       	breq	.+30     	; 0x2700 <vfprintf+0x244>
    26e2:	b4 c0       	rjmp	.+360    	; 0x284c <vfprintf+0x390>
    26e4:	80 37       	cpi	r24, 0x70	; 112
    26e6:	19 f0       	breq	.+6      	; 0x26ee <vfprintf+0x232>
    26e8:	88 37       	cpi	r24, 0x78	; 120
    26ea:	21 f0       	breq	.+8      	; 0x26f4 <vfprintf+0x238>
    26ec:	af c0       	rjmp	.+350    	; 0x284c <vfprintf+0x390>
    26ee:	2f 2f       	mov	r18, r31
    26f0:	20 61       	ori	r18, 0x10	; 16
    26f2:	b2 2e       	mov	r11, r18
    26f4:	b4 fe       	sbrs	r11, 4
    26f6:	0d c0       	rjmp	.+26     	; 0x2712 <vfprintf+0x256>
    26f8:	8b 2d       	mov	r24, r11
    26fa:	84 60       	ori	r24, 0x04	; 4
    26fc:	b8 2e       	mov	r11, r24
    26fe:	09 c0       	rjmp	.+18     	; 0x2712 <vfprintf+0x256>
    2700:	24 ff       	sbrs	r18, 4
    2702:	0a c0       	rjmp	.+20     	; 0x2718 <vfprintf+0x25c>
    2704:	9f 2f       	mov	r25, r31
    2706:	96 60       	ori	r25, 0x06	; 6
    2708:	b9 2e       	mov	r11, r25
    270a:	06 c0       	rjmp	.+12     	; 0x2718 <vfprintf+0x25c>
    270c:	28 e0       	ldi	r18, 0x08	; 8
    270e:	30 e0       	ldi	r19, 0x00	; 0
    2710:	05 c0       	rjmp	.+10     	; 0x271c <vfprintf+0x260>
    2712:	20 e1       	ldi	r18, 0x10	; 16
    2714:	30 e0       	ldi	r19, 0x00	; 0
    2716:	02 c0       	rjmp	.+4      	; 0x271c <vfprintf+0x260>
    2718:	20 e1       	ldi	r18, 0x10	; 16
    271a:	32 e0       	ldi	r19, 0x02	; 2
    271c:	f8 01       	movw	r30, r16
    271e:	b7 fe       	sbrs	r11, 7
    2720:	07 c0       	rjmp	.+14     	; 0x2730 <vfprintf+0x274>
    2722:	60 81       	ld	r22, Z
    2724:	71 81       	ldd	r23, Z+1	; 0x01
    2726:	82 81       	ldd	r24, Z+2	; 0x02
    2728:	93 81       	ldd	r25, Z+3	; 0x03
    272a:	0c 5f       	subi	r16, 0xFC	; 252
    272c:	1f 4f       	sbci	r17, 0xFF	; 255
    272e:	06 c0       	rjmp	.+12     	; 0x273c <vfprintf+0x280>
    2730:	60 81       	ld	r22, Z
    2732:	71 81       	ldd	r23, Z+1	; 0x01
    2734:	80 e0       	ldi	r24, 0x00	; 0
    2736:	90 e0       	ldi	r25, 0x00	; 0
    2738:	0e 5f       	subi	r16, 0xFE	; 254
    273a:	1f 4f       	sbci	r17, 0xFF	; 255
    273c:	a4 01       	movw	r20, r8
    273e:	0e 94 78 14 	call	0x28f0	; 0x28f0 <__ultoa_invert>
    2742:	a8 2e       	mov	r10, r24
    2744:	a8 18       	sub	r10, r8
    2746:	fb 2d       	mov	r31, r11
    2748:	ff 77       	andi	r31, 0x7F	; 127
    274a:	bf 2e       	mov	r11, r31
    274c:	b6 fe       	sbrs	r11, 6
    274e:	0b c0       	rjmp	.+22     	; 0x2766 <vfprintf+0x2aa>
    2750:	2b 2d       	mov	r18, r11
    2752:	2e 7f       	andi	r18, 0xFE	; 254
    2754:	a5 14       	cp	r10, r5
    2756:	50 f4       	brcc	.+20     	; 0x276c <vfprintf+0x2b0>
    2758:	b4 fe       	sbrs	r11, 4
    275a:	0a c0       	rjmp	.+20     	; 0x2770 <vfprintf+0x2b4>
    275c:	b2 fc       	sbrc	r11, 2
    275e:	08 c0       	rjmp	.+16     	; 0x2770 <vfprintf+0x2b4>
    2760:	2b 2d       	mov	r18, r11
    2762:	2e 7e       	andi	r18, 0xEE	; 238
    2764:	05 c0       	rjmp	.+10     	; 0x2770 <vfprintf+0x2b4>
    2766:	7a 2c       	mov	r7, r10
    2768:	2b 2d       	mov	r18, r11
    276a:	03 c0       	rjmp	.+6      	; 0x2772 <vfprintf+0x2b6>
    276c:	7a 2c       	mov	r7, r10
    276e:	01 c0       	rjmp	.+2      	; 0x2772 <vfprintf+0x2b6>
    2770:	75 2c       	mov	r7, r5
    2772:	24 ff       	sbrs	r18, 4
    2774:	0d c0       	rjmp	.+26     	; 0x2790 <vfprintf+0x2d4>
    2776:	fe 01       	movw	r30, r28
    2778:	ea 0d       	add	r30, r10
    277a:	f1 1d       	adc	r31, r1
    277c:	80 81       	ld	r24, Z
    277e:	80 33       	cpi	r24, 0x30	; 48
    2780:	11 f4       	brne	.+4      	; 0x2786 <vfprintf+0x2ca>
    2782:	29 7e       	andi	r18, 0xE9	; 233
    2784:	09 c0       	rjmp	.+18     	; 0x2798 <vfprintf+0x2dc>
    2786:	22 ff       	sbrs	r18, 2
    2788:	06 c0       	rjmp	.+12     	; 0x2796 <vfprintf+0x2da>
    278a:	73 94       	inc	r7
    278c:	73 94       	inc	r7
    278e:	04 c0       	rjmp	.+8      	; 0x2798 <vfprintf+0x2dc>
    2790:	82 2f       	mov	r24, r18
    2792:	86 78       	andi	r24, 0x86	; 134
    2794:	09 f0       	breq	.+2      	; 0x2798 <vfprintf+0x2dc>
    2796:	73 94       	inc	r7
    2798:	23 fd       	sbrc	r18, 3
    279a:	13 c0       	rjmp	.+38     	; 0x27c2 <vfprintf+0x306>
    279c:	20 ff       	sbrs	r18, 0
    279e:	06 c0       	rjmp	.+12     	; 0x27ac <vfprintf+0x2f0>
    27a0:	5a 2c       	mov	r5, r10
    27a2:	73 14       	cp	r7, r3
    27a4:	18 f4       	brcc	.+6      	; 0x27ac <vfprintf+0x2f0>
    27a6:	53 0c       	add	r5, r3
    27a8:	57 18       	sub	r5, r7
    27aa:	73 2c       	mov	r7, r3
    27ac:	73 14       	cp	r7, r3
    27ae:	68 f4       	brcc	.+26     	; 0x27ca <vfprintf+0x30e>
    27b0:	b7 01       	movw	r22, r14
    27b2:	80 e2       	ldi	r24, 0x20	; 32
    27b4:	90 e0       	ldi	r25, 0x00	; 0
    27b6:	2c 87       	std	Y+12, r18	; 0x0c
    27b8:	0e 94 46 14 	call	0x288c	; 0x288c <fputc>
    27bc:	73 94       	inc	r7
    27be:	2c 85       	ldd	r18, Y+12	; 0x0c
    27c0:	f5 cf       	rjmp	.-22     	; 0x27ac <vfprintf+0x2f0>
    27c2:	73 14       	cp	r7, r3
    27c4:	10 f4       	brcc	.+4      	; 0x27ca <vfprintf+0x30e>
    27c6:	37 18       	sub	r3, r7
    27c8:	01 c0       	rjmp	.+2      	; 0x27cc <vfprintf+0x310>
    27ca:	31 2c       	mov	r3, r1
    27cc:	24 ff       	sbrs	r18, 4
    27ce:	12 c0       	rjmp	.+36     	; 0x27f4 <vfprintf+0x338>
    27d0:	b7 01       	movw	r22, r14
    27d2:	80 e3       	ldi	r24, 0x30	; 48
    27d4:	90 e0       	ldi	r25, 0x00	; 0
    27d6:	2c 87       	std	Y+12, r18	; 0x0c
    27d8:	0e 94 46 14 	call	0x288c	; 0x288c <fputc>
    27dc:	2c 85       	ldd	r18, Y+12	; 0x0c
    27de:	22 ff       	sbrs	r18, 2
    27e0:	17 c0       	rjmp	.+46     	; 0x2810 <vfprintf+0x354>
    27e2:	21 ff       	sbrs	r18, 1
    27e4:	03 c0       	rjmp	.+6      	; 0x27ec <vfprintf+0x330>
    27e6:	88 e5       	ldi	r24, 0x58	; 88
    27e8:	90 e0       	ldi	r25, 0x00	; 0
    27ea:	02 c0       	rjmp	.+4      	; 0x27f0 <vfprintf+0x334>
    27ec:	88 e7       	ldi	r24, 0x78	; 120
    27ee:	90 e0       	ldi	r25, 0x00	; 0
    27f0:	b7 01       	movw	r22, r14
    27f2:	0c c0       	rjmp	.+24     	; 0x280c <vfprintf+0x350>
    27f4:	82 2f       	mov	r24, r18
    27f6:	86 78       	andi	r24, 0x86	; 134
    27f8:	59 f0       	breq	.+22     	; 0x2810 <vfprintf+0x354>
    27fa:	21 fd       	sbrc	r18, 1
    27fc:	02 c0       	rjmp	.+4      	; 0x2802 <vfprintf+0x346>
    27fe:	80 e2       	ldi	r24, 0x20	; 32
    2800:	01 c0       	rjmp	.+2      	; 0x2804 <vfprintf+0x348>
    2802:	8b e2       	ldi	r24, 0x2B	; 43
    2804:	27 fd       	sbrc	r18, 7
    2806:	8d e2       	ldi	r24, 0x2D	; 45
    2808:	b7 01       	movw	r22, r14
    280a:	90 e0       	ldi	r25, 0x00	; 0
    280c:	0e 94 46 14 	call	0x288c	; 0x288c <fputc>
    2810:	a5 14       	cp	r10, r5
    2812:	38 f4       	brcc	.+14     	; 0x2822 <vfprintf+0x366>
    2814:	b7 01       	movw	r22, r14
    2816:	80 e3       	ldi	r24, 0x30	; 48
    2818:	90 e0       	ldi	r25, 0x00	; 0
    281a:	0e 94 46 14 	call	0x288c	; 0x288c <fputc>
    281e:	5a 94       	dec	r5
    2820:	f7 cf       	rjmp	.-18     	; 0x2810 <vfprintf+0x354>
    2822:	aa 94       	dec	r10
    2824:	f4 01       	movw	r30, r8
    2826:	ea 0d       	add	r30, r10
    2828:	f1 1d       	adc	r31, r1
    282a:	80 81       	ld	r24, Z
    282c:	b7 01       	movw	r22, r14
    282e:	90 e0       	ldi	r25, 0x00	; 0
    2830:	0e 94 46 14 	call	0x288c	; 0x288c <fputc>
    2834:	a1 10       	cpse	r10, r1
    2836:	f5 cf       	rjmp	.-22     	; 0x2822 <vfprintf+0x366>
    2838:	33 20       	and	r3, r3
    283a:	09 f4       	brne	.+2      	; 0x283e <vfprintf+0x382>
    283c:	51 ce       	rjmp	.-862    	; 0x24e0 <vfprintf+0x24>
    283e:	b7 01       	movw	r22, r14
    2840:	80 e2       	ldi	r24, 0x20	; 32
    2842:	90 e0       	ldi	r25, 0x00	; 0
    2844:	0e 94 46 14 	call	0x288c	; 0x288c <fputc>
    2848:	3a 94       	dec	r3
    284a:	f6 cf       	rjmp	.-20     	; 0x2838 <vfprintf+0x37c>
    284c:	f7 01       	movw	r30, r14
    284e:	86 81       	ldd	r24, Z+6	; 0x06
    2850:	97 81       	ldd	r25, Z+7	; 0x07
    2852:	02 c0       	rjmp	.+4      	; 0x2858 <vfprintf+0x39c>
    2854:	8f ef       	ldi	r24, 0xFF	; 255
    2856:	9f ef       	ldi	r25, 0xFF	; 255
    2858:	2c 96       	adiw	r28, 0x0c	; 12
    285a:	e2 e1       	ldi	r30, 0x12	; 18
    285c:	0c 94 f2 14 	jmp	0x29e4	; 0x29e4 <__epilogue_restores__>

00002860 <strnlen_P>:
    2860:	fc 01       	movw	r30, r24
    2862:	05 90       	lpm	r0, Z+
    2864:	61 50       	subi	r22, 0x01	; 1
    2866:	70 40       	sbci	r23, 0x00	; 0
    2868:	01 10       	cpse	r0, r1
    286a:	d8 f7       	brcc	.-10     	; 0x2862 <strnlen_P+0x2>
    286c:	80 95       	com	r24
    286e:	90 95       	com	r25
    2870:	8e 0f       	add	r24, r30
    2872:	9f 1f       	adc	r25, r31
    2874:	08 95       	ret

00002876 <strnlen>:
    2876:	fc 01       	movw	r30, r24
    2878:	61 50       	subi	r22, 0x01	; 1
    287a:	70 40       	sbci	r23, 0x00	; 0
    287c:	01 90       	ld	r0, Z+
    287e:	01 10       	cpse	r0, r1
    2880:	d8 f7       	brcc	.-10     	; 0x2878 <strnlen+0x2>
    2882:	80 95       	com	r24
    2884:	90 95       	com	r25
    2886:	8e 0f       	add	r24, r30
    2888:	9f 1f       	adc	r25, r31
    288a:	08 95       	ret

0000288c <fputc>:
    288c:	0f 93       	push	r16
    288e:	1f 93       	push	r17
    2890:	cf 93       	push	r28
    2892:	df 93       	push	r29
    2894:	18 2f       	mov	r17, r24
    2896:	09 2f       	mov	r16, r25
    2898:	eb 01       	movw	r28, r22
    289a:	8b 81       	ldd	r24, Y+3	; 0x03
    289c:	81 fd       	sbrc	r24, 1
    289e:	03 c0       	rjmp	.+6      	; 0x28a6 <fputc+0x1a>
    28a0:	8f ef       	ldi	r24, 0xFF	; 255
    28a2:	9f ef       	ldi	r25, 0xFF	; 255
    28a4:	20 c0       	rjmp	.+64     	; 0x28e6 <fputc+0x5a>
    28a6:	82 ff       	sbrs	r24, 2
    28a8:	10 c0       	rjmp	.+32     	; 0x28ca <fputc+0x3e>
    28aa:	4e 81       	ldd	r20, Y+6	; 0x06
    28ac:	5f 81       	ldd	r21, Y+7	; 0x07
    28ae:	2c 81       	ldd	r18, Y+4	; 0x04
    28b0:	3d 81       	ldd	r19, Y+5	; 0x05
    28b2:	42 17       	cp	r20, r18
    28b4:	53 07       	cpc	r21, r19
    28b6:	7c f4       	brge	.+30     	; 0x28d6 <fputc+0x4a>
    28b8:	e8 81       	ld	r30, Y
    28ba:	f9 81       	ldd	r31, Y+1	; 0x01
    28bc:	9f 01       	movw	r18, r30
    28be:	2f 5f       	subi	r18, 0xFF	; 255
    28c0:	3f 4f       	sbci	r19, 0xFF	; 255
    28c2:	39 83       	std	Y+1, r19	; 0x01
    28c4:	28 83       	st	Y, r18
    28c6:	10 83       	st	Z, r17
    28c8:	06 c0       	rjmp	.+12     	; 0x28d6 <fputc+0x4a>
    28ca:	e8 85       	ldd	r30, Y+8	; 0x08
    28cc:	f9 85       	ldd	r31, Y+9	; 0x09
    28ce:	81 2f       	mov	r24, r17
    28d0:	09 95       	icall
    28d2:	89 2b       	or	r24, r25
    28d4:	29 f7       	brne	.-54     	; 0x28a0 <fputc+0x14>
    28d6:	2e 81       	ldd	r18, Y+6	; 0x06
    28d8:	3f 81       	ldd	r19, Y+7	; 0x07
    28da:	2f 5f       	subi	r18, 0xFF	; 255
    28dc:	3f 4f       	sbci	r19, 0xFF	; 255
    28de:	3f 83       	std	Y+7, r19	; 0x07
    28e0:	2e 83       	std	Y+6, r18	; 0x06
    28e2:	81 2f       	mov	r24, r17
    28e4:	90 2f       	mov	r25, r16
    28e6:	df 91       	pop	r29
    28e8:	cf 91       	pop	r28
    28ea:	1f 91       	pop	r17
    28ec:	0f 91       	pop	r16
    28ee:	08 95       	ret

000028f0 <__ultoa_invert>:
    28f0:	fa 01       	movw	r30, r20
    28f2:	aa 27       	eor	r26, r26
    28f4:	28 30       	cpi	r18, 0x08	; 8
    28f6:	51 f1       	breq	.+84     	; 0x294c <__ultoa_invert+0x5c>
    28f8:	20 31       	cpi	r18, 0x10	; 16
    28fa:	81 f1       	breq	.+96     	; 0x295c <__ultoa_invert+0x6c>
    28fc:	e8 94       	clt
    28fe:	6f 93       	push	r22
    2900:	6e 7f       	andi	r22, 0xFE	; 254
    2902:	6e 5f       	subi	r22, 0xFE	; 254
    2904:	7f 4f       	sbci	r23, 0xFF	; 255
    2906:	8f 4f       	sbci	r24, 0xFF	; 255
    2908:	9f 4f       	sbci	r25, 0xFF	; 255
    290a:	af 4f       	sbci	r26, 0xFF	; 255
    290c:	b1 e0       	ldi	r27, 0x01	; 1
    290e:	3e d0       	rcall	.+124    	; 0x298c <__ultoa_invert+0x9c>
    2910:	b4 e0       	ldi	r27, 0x04	; 4
    2912:	3c d0       	rcall	.+120    	; 0x298c <__ultoa_invert+0x9c>
    2914:	67 0f       	add	r22, r23
    2916:	78 1f       	adc	r23, r24
    2918:	89 1f       	adc	r24, r25
    291a:	9a 1f       	adc	r25, r26
    291c:	a1 1d       	adc	r26, r1
    291e:	68 0f       	add	r22, r24
    2920:	79 1f       	adc	r23, r25
    2922:	8a 1f       	adc	r24, r26
    2924:	91 1d       	adc	r25, r1
    2926:	a1 1d       	adc	r26, r1
    2928:	6a 0f       	add	r22, r26
    292a:	71 1d       	adc	r23, r1
    292c:	81 1d       	adc	r24, r1
    292e:	91 1d       	adc	r25, r1
    2930:	a1 1d       	adc	r26, r1
    2932:	20 d0       	rcall	.+64     	; 0x2974 <__ultoa_invert+0x84>
    2934:	09 f4       	brne	.+2      	; 0x2938 <__ultoa_invert+0x48>
    2936:	68 94       	set
    2938:	3f 91       	pop	r19
    293a:	2a e0       	ldi	r18, 0x0A	; 10
    293c:	26 9f       	mul	r18, r22
    293e:	11 24       	eor	r1, r1
    2940:	30 19       	sub	r19, r0
    2942:	30 5d       	subi	r19, 0xD0	; 208
    2944:	31 93       	st	Z+, r19
    2946:	de f6       	brtc	.-74     	; 0x28fe <__ultoa_invert+0xe>
    2948:	cf 01       	movw	r24, r30
    294a:	08 95       	ret
    294c:	46 2f       	mov	r20, r22
    294e:	47 70       	andi	r20, 0x07	; 7
    2950:	40 5d       	subi	r20, 0xD0	; 208
    2952:	41 93       	st	Z+, r20
    2954:	b3 e0       	ldi	r27, 0x03	; 3
    2956:	0f d0       	rcall	.+30     	; 0x2976 <__ultoa_invert+0x86>
    2958:	c9 f7       	brne	.-14     	; 0x294c <__ultoa_invert+0x5c>
    295a:	f6 cf       	rjmp	.-20     	; 0x2948 <__ultoa_invert+0x58>
    295c:	46 2f       	mov	r20, r22
    295e:	4f 70       	andi	r20, 0x0F	; 15
    2960:	40 5d       	subi	r20, 0xD0	; 208
    2962:	4a 33       	cpi	r20, 0x3A	; 58
    2964:	18 f0       	brcs	.+6      	; 0x296c <__ultoa_invert+0x7c>
    2966:	49 5d       	subi	r20, 0xD9	; 217
    2968:	31 fd       	sbrc	r19, 1
    296a:	40 52       	subi	r20, 0x20	; 32
    296c:	41 93       	st	Z+, r20
    296e:	02 d0       	rcall	.+4      	; 0x2974 <__ultoa_invert+0x84>
    2970:	a9 f7       	brne	.-22     	; 0x295c <__ultoa_invert+0x6c>
    2972:	ea cf       	rjmp	.-44     	; 0x2948 <__ultoa_invert+0x58>
    2974:	b4 e0       	ldi	r27, 0x04	; 4
    2976:	a6 95       	lsr	r26
    2978:	97 95       	ror	r25
    297a:	87 95       	ror	r24
    297c:	77 95       	ror	r23
    297e:	67 95       	ror	r22
    2980:	ba 95       	dec	r27
    2982:	c9 f7       	brne	.-14     	; 0x2976 <__ultoa_invert+0x86>
    2984:	00 97       	sbiw	r24, 0x00	; 0
    2986:	61 05       	cpc	r22, r1
    2988:	71 05       	cpc	r23, r1
    298a:	08 95       	ret
    298c:	9b 01       	movw	r18, r22
    298e:	ac 01       	movw	r20, r24
    2990:	0a 2e       	mov	r0, r26
    2992:	06 94       	lsr	r0
    2994:	57 95       	ror	r21
    2996:	47 95       	ror	r20
    2998:	37 95       	ror	r19
    299a:	27 95       	ror	r18
    299c:	ba 95       	dec	r27
    299e:	c9 f7       	brne	.-14     	; 0x2992 <__ultoa_invert+0xa2>
    29a0:	62 0f       	add	r22, r18
    29a2:	73 1f       	adc	r23, r19
    29a4:	84 1f       	adc	r24, r20
    29a6:	95 1f       	adc	r25, r21
    29a8:	a0 1d       	adc	r26, r0
    29aa:	08 95       	ret

000029ac <__prologue_saves__>:
    29ac:	2f 92       	push	r2
    29ae:	3f 92       	push	r3
    29b0:	4f 92       	push	r4
    29b2:	5f 92       	push	r5
    29b4:	6f 92       	push	r6
    29b6:	7f 92       	push	r7
    29b8:	8f 92       	push	r8
    29ba:	9f 92       	push	r9
    29bc:	af 92       	push	r10
    29be:	bf 92       	push	r11
    29c0:	cf 92       	push	r12
    29c2:	df 92       	push	r13
    29c4:	ef 92       	push	r14
    29c6:	ff 92       	push	r15
    29c8:	0f 93       	push	r16
    29ca:	1f 93       	push	r17
    29cc:	cf 93       	push	r28
    29ce:	df 93       	push	r29
    29d0:	cd b7       	in	r28, 0x3d	; 61
    29d2:	de b7       	in	r29, 0x3e	; 62
    29d4:	ca 1b       	sub	r28, r26
    29d6:	db 0b       	sbc	r29, r27
    29d8:	0f b6       	in	r0, 0x3f	; 63
    29da:	f8 94       	cli
    29dc:	de bf       	out	0x3e, r29	; 62
    29de:	0f be       	out	0x3f, r0	; 63
    29e0:	cd bf       	out	0x3d, r28	; 61
    29e2:	09 94       	ijmp

000029e4 <__epilogue_restores__>:
    29e4:	2a 88       	ldd	r2, Y+18	; 0x12
    29e6:	39 88       	ldd	r3, Y+17	; 0x11
    29e8:	48 88       	ldd	r4, Y+16	; 0x10
    29ea:	5f 84       	ldd	r5, Y+15	; 0x0f
    29ec:	6e 84       	ldd	r6, Y+14	; 0x0e
    29ee:	7d 84       	ldd	r7, Y+13	; 0x0d
    29f0:	8c 84       	ldd	r8, Y+12	; 0x0c
    29f2:	9b 84       	ldd	r9, Y+11	; 0x0b
    29f4:	aa 84       	ldd	r10, Y+10	; 0x0a
    29f6:	b9 84       	ldd	r11, Y+9	; 0x09
    29f8:	c8 84       	ldd	r12, Y+8	; 0x08
    29fa:	df 80       	ldd	r13, Y+7	; 0x07
    29fc:	ee 80       	ldd	r14, Y+6	; 0x06
    29fe:	fd 80       	ldd	r15, Y+5	; 0x05
    2a00:	0c 81       	ldd	r16, Y+4	; 0x04
    2a02:	1b 81       	ldd	r17, Y+3	; 0x03
    2a04:	aa 81       	ldd	r26, Y+2	; 0x02
    2a06:	b9 81       	ldd	r27, Y+1	; 0x01
    2a08:	ce 0f       	add	r28, r30
    2a0a:	d1 1d       	adc	r29, r1
    2a0c:	0f b6       	in	r0, 0x3f	; 63
    2a0e:	f8 94       	cli
    2a10:	de bf       	out	0x3e, r29	; 62
    2a12:	0f be       	out	0x3f, r0	; 63
    2a14:	cd bf       	out	0x3d, r28	; 61
    2a16:	ed 01       	movw	r28, r26
    2a18:	08 95       	ret

00002a1a <_exit>:
    2a1a:	f8 94       	cli

00002a1c <__stop_program>:
    2a1c:	ff cf       	rjmp	.-2      	; 0x2a1c <__stop_program>
