Archive member included because of file (symbol)

c:/winavr-201001100/bin/../lib/gcc/avr/4.3.3/avrxmega7\libgcc.a(_mulsi3.o)
                              ./Functions.o (__mulsi3)
c:/winavr-201001100/bin/../lib/gcc/avr/4.3.3/avrxmega7\libgcc.a(_udivmodsi4.o)
                              ./hd44780.o (__udivmodsi4)
c:/winavr-201001100/bin/../lib/gcc/avr/4.3.3/avrxmega7\libgcc.a(_exit.o)
                              c:/winavr-201001100/bin/../lib/gcc/avr/4.3.3/../../../../avr/lib/avrxmega7/crtx128a1.o (exit)
c:/winavr-201001100/bin/../lib/gcc/avr/4.3.3/avrxmega7\libgcc.a(_clear_bss.o)
                              ./Functions.o (__do_clear_bss)

Allocating common symbols
Common symbol       size              file

Receive_2           0x2               ./Globals_Defs.o
D                   0x2               ./Globals_Defs.o
A                   0x2               ./Globals_Defs.o
TxBuf               0x20              ./Globals_Defs.o
StepsAmount         0x2               ./Globals_Defs.o
B                   0x2               ./Globals_Defs.o
usart_buffer        0x64              ./Globals_Defs.o
AdcSetAxis          0x1               ./Globals_Defs.o
C                   0x2               ./Globals_Defs.o
Counter_Value       0x2               ./Globals_Defs.o
AdcBuf              0x10              ./Globals_Defs.o
SelectedEngine      0x1               ./Globals_Defs.o
Pid                 0x24c             ./Globals_Defs.o
SeqArray            0x640             ./Globals_Defs.o
RxBuf               0xc8              ./Globals_Defs.o
E                   0x2               ./Globals_Defs.o
usart_i             0x1               ./Globals_Defs.o
Receive_1           0x2               ./Globals_Defs.o
F                   0x2               ./Globals_Defs.o

Memory Configuration

Name             Origin             Length             Attributes
text             0x00000000         0x00100000         xr
data             0x00802000         0x0000ffa0         rw !x
eeprom           0x00810000         0x00010000         rw !x
fuse             0x00820000         0x00000400         rw !x
lock             0x00830000         0x00000400         rw !x
signature        0x00840000         0x00000400         rw !x
*default*        0x00000000         0xffffffff

Linker script and memory map

LOAD c:/winavr-201001100/bin/../lib/gcc/avr/4.3.3/../../../../avr/lib/avrxmega7/crtx128a1.o
LOAD ./AVR1315/eeprom_driver.o
LOAD ./Adc.o
LOAD ./Functions.o
LOAD ./Globals_Defs.o
LOAD ./Init.o
LOAD ./Menu.o
LOAD ./PcComands.o
LOAD ./dma_driver.o
LOAD ./hd44780.o
LOAD ./interrupts.o
LOAD ./main.o
LOAD ./usart.o
LOAD ./wdt_driver.o
LOAD c:/winavr-201001100/bin/../lib/gcc/avr/4.3.3/avrxmega7\libgcc.a
LOAD c:/winavr-201001100/bin/../lib/gcc/avr/4.3.3/../../../../avr/lib/avrxmega7\libc.a
LOAD c:/winavr-201001100/bin/../lib/gcc/avr/4.3.3/avrxmega7\libgcc.a

.hash
 *(.hash)

.dynsym
 *(.dynsym)

.dynstr
 *(.dynstr)

.gnu.version
 *(.gnu.version)

.gnu.version_d
 *(.gnu.version_d)

.gnu.version_r
 *(.gnu.version_r)

.rel.init
 *(.rel.init)

.rela.init
 *(.rela.init)

.rel.text
 *(.rel.text)
 *(.rel.text.*)
 *(.rel.gnu.linkonce.t*)

.rela.text
 *(.rela.text)
 *(.rela.text.*)
 *(.rela.gnu.linkonce.t*)

.rel.fini
 *(.rel.fini)

.rela.fini
 *(.rela.fini)

.rel.rodata
 *(.rel.rodata)
 *(.rel.rodata.*)
 *(.rel.gnu.linkonce.r*)

.rela.rodata
 *(.rela.rodata)
 *(.rela.rodata.*)
 *(.rela.gnu.linkonce.r*)

.rel.data
 *(.rel.data)
 *(.rel.data.*)
 *(.rel.gnu.linkonce.d*)

.rela.data
 *(.rela.data)
 *(.rela.data.*)
 *(.rela.gnu.linkonce.d*)

.rel.ctors
 *(.rel.ctors)

.rela.ctors
 *(.rela.ctors)

.rel.dtors
 *(.rel.dtors)

.rela.dtors
 *(.rela.dtors)

.rel.got
 *(.rel.got)

.rela.got
 *(.rela.got)

.rel.bss
 *(.rel.bss)

.rela.bss
 *(.rela.bss)

.rel.plt
 *(.rel.plt)

.rela.plt
 *(.rela.plt)

.text           0x00000000     0x5d0a
 *(.vectors)
 .vectors       0x00000000      0x1f4 c:/winavr-201001100/bin/../lib/gcc/avr/4.3.3/../../../../avr/lib/avrxmega7/crtx128a1.o
                0x00000000                __vectors
                0x00000000                __vector_default
 *(.vectors)
 *(.progmem.gcc*)
 *(.progmem*)
                0x000001f4                . = ALIGN (0x2)
                0x000001f4                __trampolines_start = .
 *(.trampolines)
 .trampolines   0x000001f4        0x0 linker stubs
 *(.trampolines*)
                0x000001f4                __trampolines_end = .
 *(.jumptables)
 *(.jumptables*)
 *(.lowtext)
 *(.lowtext*)
                0x000001f4                __ctors_start = .
 *(.ctors)
                0x000001f4                __ctors_end = .
                0x000001f4                __dtors_start = .
 *(.dtors)
                0x000001f4                __dtors_end = .
 SORT(*)(.ctors)
 SORT(*)(.dtors)
 *(.init0)
 .init0         0x000001f4        0x0 c:/winavr-201001100/bin/../lib/gcc/avr/4.3.3/../../../../avr/lib/avrxmega7/crtx128a1.o
                0x000001f4                __init
 *(.init0)
 *(.init1)
 *(.init1)
 *(.init2)
 .init2         0x000001f4       0x18 c:/winavr-201001100/bin/../lib/gcc/avr/4.3.3/../../../../avr/lib/avrxmega7/crtx128a1.o
 *(.init2)
 *(.init3)
 *(.init3)
 *(.init4)
 .init4         0x0000020c       0x1c c:/winavr-201001100/bin/../lib/gcc/avr/4.3.3/../../../../avr/lib/avrxmega7/crtx128a1.o
                0x0000020c                __do_copy_data
 .init4         0x00000228       0x10 c:/winavr-201001100/bin/../lib/gcc/avr/4.3.3/avrxmega7\libgcc.a(_clear_bss.o)
                0x00000228                __do_clear_bss
 *(.init4)
 *(.init5)
 *(.init5)
 *(.init6)
 *(.init6)
 *(.init7)
 *(.init7)
 *(.init8)
 *(.init8)
 *(.init9)
 .init9         0x00000238        0x8 c:/winavr-201001100/bin/../lib/gcc/avr/4.3.3/../../../../avr/lib/avrxmega7/crtx128a1.o
 *(.init9)
 *(.text)
 .text          0x00000240        0x4 c:/winavr-201001100/bin/../lib/gcc/avr/4.3.3/../../../../avr/lib/avrxmega7/crtx128a1.o
                0x00000240                __vector_38
                0x00000240                __vector_104
                0x00000240                __vector_22
                0x00000240                __vector_63
                0x00000240                __vector_67
                0x00000240                __vector_1
                0x00000240                __vector_119
                0x00000240                __vector_32
                0x00000240                __vector_75
                0x00000240                __vector_71
                0x00000240                __vector_91
                0x00000240                __vector_34
                0x00000240                __vector_62
                0x00000240                __vector_102
                0x00000240                __vector_24
                0x00000240                __vector_12
                0x00000240                __vector_55
                0x00000240                __vector_69
                0x00000240                __vector_81
                0x00000240                __vector_90
                0x00000240                __vector_46
                0x00000240                __bad_interrupt
                0x00000240                __vector_122
                0x00000240                __vector_72
                0x00000240                __vector_114
                0x00000240                __vector_6
                0x00000240                __vector_110
                0x00000240                __vector_31
                0x00000240                __vector_92
                0x00000240                __vector_35
                0x00000240                __vector_78
                0x00000240                __vector_74
                0x00000240                __vector_117
                0x00000240                __vector_39
                0x00000240                __vector_107
                0x00000240                __vector_3
                0x00000240                __vector_105
                0x00000240                __vector_23
                0x00000240                __vector_68
                0x00000240                __vector_30
                0x00000240                __vector_73
                0x00000240                __vector_45
                0x00000240                __vector_25
                0x00000240                __vector_93
                0x00000240                __vector_61
                0x00000240                __vector_11
                0x00000240                __vector_54
                0x00000240                __vector_99
                0x00000240                __vector_13
                0x00000240                __vector_17
                0x00000240                __vector_19
                0x00000240                __vector_56
                0x00000240                __vector_7
                0x00000240                __vector_49
                0x00000240                __vector_123
                0x00000240                __vector_41
                0x00000240                __vector_86
                0x00000240                __vector_101
                0x00000240                __vector_64
                0x00000240                __vector_88
                0x00000240                __vector_109
                0x00000240                __vector_43
                0x00000240                __vector_27
                0x00000240                __vector_113
                0x00000240                __vector_33
                0x00000240                __vector_76
                0x00000240                __vector_115
                0x00000240                __vector_47
                0x00000240                __vector_52
                0x00000240                __vector_37
                0x00000240                __vector_95
                0x00000240                __vector_103
                0x00000240                __vector_89
                0x00000240                __vector_108
                0x00000240                __vector_44
                0x00000240                __vector_82
                0x00000240                __vector_106
                0x00000240                __vector_118
                0x00000240                __vector_51
                0x00000240                __vector_9
                0x00000240                __vector_2
                0x00000240                __vector_21
                0x00000240                __vector_15
                0x00000240                __vector_66
                0x00000240                __vector_36
                0x00000240                __vector_79
                0x00000240                __vector_58
                0x00000240                __vector_70
                0x00000240                __vector_83
                0x00000240                __vector_29
                0x00000240                __vector_60
                0x00000240                __vector_121
                0x00000240                __vector_40
                0x00000240                __vector_85
                0x00000240                __vector_26
                0x00000240                __vector_48
                0x00000240                __vector_124
                0x00000240                __vector_116
                0x00000240                __vector_112
                0x00000240                __vector_111
                0x00000240                __vector_80
                0x00000240                __vector_14
                0x00000240                __vector_84
                0x00000240                __vector_57
                0x00000240                __vector_53
                0x00000240                __vector_10
                0x00000240                __vector_50
                0x00000240                __vector_16
                0x00000240                __vector_59
                0x00000240                __vector_18
                0x00000240                __vector_97
                0x00000240                __vector_42
                0x00000240                __vector_87
                0x00000240                __vector_65
                0x00000240                __vector_120
 .text          0x00000244      0x256 ./AVR1315/eeprom_driver.o
                0x00000244                EEPROM_ReadByte
                0x0000029e                EEPROM_WaitForNVM
                0x00000348                EEPROM_LoadByte
                0x00000422                EEPROM_SplitWritePage
                0x0000038e                EEPROM_AtomicWritePage
                0x00000366                EEPROM_LoadPage
                0x0000046c                EEPROM_EraseAll
                0x000002a8                EEPROM_FlushBuffer
                0x000003d8                EEPROM_ErasePage
                0x000002de                EEPROM_WriteByte
 .text          0x0000049a        0x0 ./Adc.o
 .text          0x0000049a        0x0 ./Functions.o
 .text          0x0000049a        0x0 ./Globals_Defs.o
 .text          0x0000049a        0x0 ./Init.o
 .text          0x0000049a        0x0 ./Menu.o
 .text          0x0000049a        0x0 ./PcComands.o
 .text          0x0000049a      0x116 ./dma_driver.o
                0x0000058c                DMA_EnableSingleShot
                0x000004da                DMA_ReturnStatus_non_blocking
                0x000004a8                DMA_SetPriority
                0x000004fc                DMA_DisableChannel
                0x00000506                DMA_ResetChannel
                0x000005a6                DMA_StartTransfer
                0x000004be                DMA_IsOngoing
                0x000004b6                DMA_CH_IsOngoing
                0x000005a0                DMA_SetTriggerSource
                0x000004d0                DMA_IsPending
                0x00000596                DMA_DisableSingleShot
                0x000004c8                DMA_CH_IsPending
                0x0000049a                DMA_ConfigDoubleBuffering
                0x000004e2                DMA_ReturnStatus_blocking
                0x000004f2                DMA_EnableChannel
                0x0000052a                DMA_SetupBlock
                0x0000051c                DMA_SetIntLevel
 .text          0x000005b0        0x0 ./hd44780.o
 .text          0x000005b0        0x0 ./interrupts.o
 .text          0x000005b0        0x0 ./main.o
 .text          0x000005b0        0x0 ./usart.o
 .text          0x000005b0       0xa0 ./wdt_driver.o
                0x000005b0                WDT_Enable
                0x000005c8                WDT_EnableAndSetTimeout
                0x0000061e                WDT_EnableWindowModeAndSetTimeout
                0x000005dc                WDT_Disable
                0x000005ee                WDT_IsWindowModeEnabled
                0x0000063e                WDT_DisableWindowMode
                0x000005fa                WDT_EnableWindowMode
 .text          0x00000650        0x0 c:/winavr-201001100/bin/../lib/gcc/avr/4.3.3/avrxmega7\libgcc.a(_mulsi3.o)
 .text          0x00000650        0x0 c:/winavr-201001100/bin/../lib/gcc/avr/4.3.3/avrxmega7\libgcc.a(_udivmodsi4.o)
 .text          0x00000650        0x0 c:/winavr-201001100/bin/../lib/gcc/avr/4.3.3/avrxmega7\libgcc.a(_exit.o)
 .text          0x00000650        0x0 c:/winavr-201001100/bin/../lib/gcc/avr/4.3.3/avrxmega7\libgcc.a(_clear_bss.o)
                0x00000650                . = ALIGN (0x2)
 *(.text.*)
 .text.ReadCalibrationByte
                0x00000650       0x14 ./Adc.o
                0x00000650                ReadCalibrationByte
 .text.AdcRead  0x00000664       0x30 ./Adc.o
                0x00000664                AdcRead
 .text.ABS      0x00000694       0x10 ./Functions.o
                0x00000694                ABS
 .text.PID      0x000006a4      0xad6 ./Functions.o
                0x000006a4                PID
 .text.Onlinecontrol
                0x0000117a      0x3be ./Functions.o
                0x0000117a                Onlinecontrol
 .text.PIDParameters
                0x00001538      0x100 ./Functions.o
                0x00001538                PIDParameters
 .text.PIDDefParameters
                0x00001638      0x592 ./Functions.o
                0x00001638                PIDDefParameters
 .text.EngineStatus6
                0x00001bca      0x12a ./Functions.o
                0x00001bca                EngineStatus6
 .text.EngineStatus5
                0x00001cf4       0xfa ./Functions.o
                0x00001cf4                EngineStatus5
 .text.Calibration
                0x00001dee      0x608 ./Functions.o
                0x00001dee                Calibration
 .text.FL_Pidparameters
                0x000023f6       0x6c ./Functions.o
                0x000023f6                FL_Pidparameters
 .text.Vodka    0x00002462       0x50 ./Functions.o
                0x00002462                Vodka
 .text.GripperWork
                0x000024b2       0xf2 ./Functions.o
                0x000024b2                GripperWork
 .text.DmaChangeLength
                0x000025a4       0x3a ./Functions.o
                0x000025a4                DmaChangeLength
 .text.SendData
                0x000025de       0x2c ./Functions.o
                0x000025de                SendData
 .text.SafeRobot
                0x0000260a      0x3a2 ./Functions.o
                0x0000260a                SafeRobot
 .text.Excitation
                0x000029ac       0xfa ./Functions.o
                0x000029ac                Excitation
 .text.setClockTo32MHz
                0x00002aa6       0x48 ./Init.o
                0x00002aa6                setClockTo32MHz
 .text.TimerConfing
                0x00002aee       0x76 ./Init.o
                0x00002aee                TimerConfing
 .text.PortConfing
                0x00002b64      0x1e6 ./Init.o
                0x00002b64                PortConfing
 .text.InterruptConfing
                0x00002d4a       0x64 ./Init.o
                0x00002d4a                InterruptConfing
 .text.DmaConfig
                0x00002dae       0xbe ./Init.o
                0x00002dae                DmaConfig
 .text.AdcConfig
                0x00002e6c       0x4a ./Init.o
                0x00002e6c                AdcConfig
 .text.UsartInit
                0x00002eb6       0x3a ./Init.o
                0x00002eb6                UsartInit
 .text.LedLight
                0x00002ef0       0x58 ./Menu.o
                0x00002ef0                LedLight
 .text.ButtonState
                0x00002f48      0x24c ./Menu.o
                0x00002f48                ButtonState
 .text.InternalControl
                0x00003194       0x4c ./Menu.o
                0x00003194                InternalControl
 .text.LCDWelcomeTxt
                0x000031e0       0x1e ./Menu.o
                0x000031e0                LCDWelcomeTxt
 .text.LCDDisplay
                0x000031fe      0x25a ./Menu.o
                0x000031fe                LCDDisplay
 .text.ExternalControl
                0x00003458     0x1a9c ./PcComands.o
                0x00003458                ExternalControl
 .text._lcd_OutNibble
                0x00004ef4       0x5c ./hd44780.o
                0x00004ef4                _lcd_OutNibble
 .text._lcd_Write
                0x00004f50       0x46 ./hd44780.o
                0x00004f50                _lcd_Write
 .text.LcdCommand
                0x00004f96        0xe ./hd44780.o
                0x00004f96                LcdCommand
 .text.LcdData  0x00004fa4        0xe ./hd44780.o
                0x00004fa4                LcdData
 .text.LcdWrite
                0x00004fb2       0x1a ./hd44780.o
                0x00004fb2                LcdWrite
 .text.LcdWriteProgmem
                0x00004fcc       0x1c ./hd44780.o
                0x00004fcc                LcdWriteProgmem
 .text.LcdGoto  0x00004fe8       0x14 ./hd44780.o
                0x00004fe8                LcdGoto
 .text.LcdClear
                0x00004ffc       0x10 ./hd44780.o
                0x00004ffc                LcdClear
 .text.LcdInit  0x0000500c       0xb0 ./hd44780.o
                0x0000500c                LcdInit
 .text.LcdDec   0x000050bc       0xc2 ./hd44780.o
                0x000050bc                LcdDec
 .text.__vector_5
                0x0000517e       0x4c ./interrupts.o
                0x0000517e                __vector_5
 .text.__vector_4
                0x000051ca       0x4c ./interrupts.o
                0x000051ca                __vector_4
 .text.__vector_96
                0x00005216       0x4c ./interrupts.o
                0x00005216                __vector_96
 .text.__vector_98
                0x00005262       0x4c ./interrupts.o
                0x00005262                __vector_98
 .text.__vector_94
                0x000052ae       0x4c ./interrupts.o
                0x000052ae                __vector_94
 .text.__vector_100
                0x000052fa       0x4c ./interrupts.o
                0x000052fa                __vector_100
 .text.__vector_20
                0x00005346       0x56 ./interrupts.o
                0x00005346                __vector_20
 .text.__vector_77
                0x0000539c       0x6c ./interrupts.o
                0x0000539c                __vector_77
 .text.__vector_8
                0x00005408       0xb4 ./interrupts.o
                0x00005408                __vector_8
 .text.__vector_28
                0x000054bc       0x66 ./interrupts.o
                0x000054bc                __vector_28
 .text.main     0x00005522      0x23e ./main.o
                0x00005522                main
 .text.usart_set_baudrate
                0x00005760      0x1e8 ./usart.o
                0x00005760                usart_set_baudrate
 .text.USART_putchar
                0x00005948        0xc ./usart.o
                0x00005948                USART_putchar
 .text.USART_send
                0x00005954       0x1c ./usart.o
                0x00005954                USART_send
 .text.USART_send_F
                0x00005970       0x1c ./usart.o
                0x00005970                USART_send_F
 .text.USART_send_block
                0x0000598c       0x1e ./usart.o
                0x0000598c                USART_send_block
 .text.USART_send_block_F
                0x000059aa       0x1e ./usart.o
                0x000059aa                USART_send_block_F
 .text.USART_send_int
                0x000059c8       0x1a ./usart.o
                0x000059c8                USART_send_int
 .text.Error    0x000059e2        0xe ./usart.o
                0x000059e2                Error
 .text.USART_MergingData
                0x000059f0      0x294 ./usart.o
                0x000059f0                USART_MergingData
 .text.libgcc   0x00005c84       0x3e c:/winavr-201001100/bin/../lib/gcc/avr/4.3.3/avrxmega7\libgcc.a(_mulsi3.o)
                0x00005c84                __mulsi3
 .text.libgcc   0x00005cc2       0x44 c:/winavr-201001100/bin/../lib/gcc/avr/4.3.3/avrxmega7\libgcc.a(_udivmodsi4.o)
                0x00005cc2                __udivmodsi4
 .text.libgcc   0x00005d06        0x0 c:/winavr-201001100/bin/../lib/gcc/avr/4.3.3/avrxmega7\libgcc.a(_exit.o)
 .text.libgcc   0x00005d06        0x0 c:/winavr-201001100/bin/../lib/gcc/avr/4.3.3/avrxmega7\libgcc.a(_clear_bss.o)
                0x00005d06                . = ALIGN (0x2)
 *(.fini9)
 .fini9         0x00005d06        0x0 c:/winavr-201001100/bin/../lib/gcc/avr/4.3.3/avrxmega7\libgcc.a(_exit.o)
                0x00005d06                exit
                0x00005d06                _exit
 *(.fini9)
 *(.fini8)
 *(.fini8)
 *(.fini7)
 *(.fini7)
 *(.fini6)
 *(.fini6)
 *(.fini5)
 *(.fini5)
 *(.fini4)
 *(.fini4)
 *(.fini3)
 *(.fini3)
 *(.fini2)
 *(.fini2)
 *(.fini1)
 *(.fini1)
 *(.fini0)
 .fini0         0x00005d06        0x4 c:/winavr-201001100/bin/../lib/gcc/avr/4.3.3/avrxmega7\libgcc.a(_exit.o)
 *(.fini0)
                0x00005d0a                _etext = .

.data           0x00802000      0x146 load address 0x00005d0a
                0x00802000                PROVIDE (__data_start, .)
 *(.data)
 .data          0x00802000        0x0 c:/winavr-201001100/bin/../lib/gcc/avr/4.3.3/../../../../avr/lib/avrxmega7/crtx128a1.o
 .data          0x00802000        0x0 ./AVR1315/eeprom_driver.o
 .data          0x00802000        0x0 ./Adc.o
 .data          0x00802000       0x32 ./Functions.o
 .data          0x00802032        0x0 ./Globals_Defs.o
 .data          0x00802032        0x0 ./Init.o
 .data          0x00802032       0xec ./Menu.o
 .data          0x0080211e        0x0 ./PcComands.o
 .data          0x0080211e        0x0 ./dma_driver.o
 .data          0x0080211e        0x0 ./hd44780.o
 .data          0x0080211e        0x0 ./interrupts.o
 .data          0x0080211e        0x0 ./main.o
 .data          0x0080211e       0x1e ./usart.o
 .data          0x0080213c        0x0 ./wdt_driver.o
 .data          0x0080213c        0x0 c:/winavr-201001100/bin/../lib/gcc/avr/4.3.3/avrxmega7\libgcc.a(_mulsi3.o)
 .data          0x0080213c        0x0 c:/winavr-201001100/bin/../lib/gcc/avr/4.3.3/avrxmega7\libgcc.a(_udivmodsi4.o)
 .data          0x0080213c        0x0 c:/winavr-201001100/bin/../lib/gcc/avr/4.3.3/avrxmega7\libgcc.a(_exit.o)
 .data          0x0080213c        0x0 c:/winavr-201001100/bin/../lib/gcc/avr/4.3.3/avrxmega7\libgcc.a(_clear_bss.o)
 *(.data*)
 .data.PozRefSaveFlag.4218
                0x0080213c        0x1 ./Functions.o
 .data.ResetDelayFlag
                0x0080213d        0x1 ./Globals_Defs.o
                0x0080213d                ResetDelayFlag
 .data.takse    0x0080213e        0x1 ./Globals_Defs.o
                0x0080213e                takse
 .data.test     0x0080213f        0x2 ./Globals_Defs.o
                0x0080213f                test
 .data.Menulvl  0x00802141        0x3 ./Globals_Defs.o
                0x00802141                Menulvl
 .data.AnyButtonChange
                0x00802144        0x1 ./Globals_Defs.o
                0x00802144                AnyButtonChange
 .data.NewSequenceFlag.3578
                0x00802145        0x1 ./PcComands.o
 *(.rodata)
 *(.rodata*)
 *(.gnu.linkonce.d*)
                0x00802146                . = ALIGN (0x2)
                0x00802146                _edata = .
                0x00802146                PROVIDE (__data_end, .)

.bss            0x00802146      0xa37
                0x00802146                PROVIDE (__bss_start, .)
 *(.bss)
 .bss           0x00802146        0x0 c:/winavr-201001100/bin/../lib/gcc/avr/4.3.3/../../../../avr/lib/avrxmega7/crtx128a1.o
 .bss           0x00802146        0x0 ./AVR1315/eeprom_driver.o
 .bss           0x00802146        0x0 ./Adc.o
 .bss           0x00802146        0x0 ./Functions.o
 .bss           0x00802146        0x0 ./Globals_Defs.o
 .bss           0x00802146        0x0 ./Init.o
 .bss           0x00802146        0x0 ./Menu.o
 .bss           0x00802146        0x0 ./PcComands.o
 .bss           0x00802146        0x0 ./dma_driver.o
 .bss           0x00802146        0x0 ./hd44780.o
 .bss           0x00802146        0x0 ./interrupts.o
 .bss           0x00802146        0x0 ./main.o
 .bss           0x00802146        0x0 ./usart.o
 .bss           0x00802146        0x0 ./wdt_driver.o
 .bss           0x00802146        0x0 c:/winavr-201001100/bin/../lib/gcc/avr/4.3.3/avrxmega7\libgcc.a(_mulsi3.o)
 .bss           0x00802146        0x0 c:/winavr-201001100/bin/../lib/gcc/avr/4.3.3/avrxmega7\libgcc.a(_udivmodsi4.o)
 .bss           0x00802146        0x0 c:/winavr-201001100/bin/../lib/gcc/avr/4.3.3/avrxmega7\libgcc.a(_exit.o)
 .bss           0x00802146        0x0 c:/winavr-201001100/bin/../lib/gcc/avr/4.3.3/avrxmega7\libgcc.a(_clear_bss.o)
 *(.bss*)
 .bss.AdcValue.4238
                0x00802146        0x2 ./Functions.o
 .bss.Engine.4237
                0x00802148        0x1 ./Functions.o
 .bss.TimeOut.4219
                0x00802149        0x2 ./Functions.o
 .bss.PreviousLength.4208
                0x0080214b        0x1 ./Functions.o
 .bss.flag.4170
                0x0080214c        0x1 ./Functions.o
 .bss.Flag6EnginesReady.4050
                0x0080214d        0x1 ./Functions.o
 .bss.Flag5EnginesReady.4049
                0x0080214e        0x1 ./Functions.o
 .bss.Engine6Flag.4048
                0x0080214f        0x1 ./Functions.o
 .bss.CalibrationFlag.4047
                0x00802150        0x1 ./Functions.o
 .bss.index.3758
                0x00802151        0x1 ./Functions.o
 .bss.Conversion
                0x00802152        0x1 ./Globals_Defs.o
                0x00802152                Conversion
 .bss.WaitTime  0x00802153        0x2 ./Globals_Defs.o
                0x00802153                WaitTime
 .bss.AdcMeasurmentEnableFlag
                0x00802155        0x1 ./Globals_Defs.o
                0x00802155                AdcMeasurmentEnableFlag
 .bss.Engine6Status
                0x00802156        0x1 ./Globals_Defs.o
                0x00802156                Engine6Status
 .bss.DelayFlag
                0x00802157        0x1 ./Globals_Defs.o
                0x00802157                DelayFlag
 .bss.Flag10ms  0x00802158        0x1 ./Globals_Defs.o
                0x00802158                Flag10ms
 .bss.Counter_Flag10ms
                0x00802159        0x2 ./Globals_Defs.o
                0x00802159                Counter_Flag10ms
 .bss.ButtonWork
                0x0080215b        0x1 ./Globals_Defs.o
                0x0080215b                ButtonWork
 .bss.ControlType
                0x0080215c        0x1 ./Globals_Defs.o
                0x0080215c                ControlType
 .bss.SequencesQuantity
                0x0080215d        0x1 ./Globals_Defs.o
                0x0080215d                SequencesQuantity
 .bss.ExcitationEnable
                0x0080215e        0x1 ./Globals_Defs.o
                0x0080215e                ExcitationEnable
 .bss.ReceiveFlag
                0x0080215f        0x1 ./Globals_Defs.o
                0x0080215f                ReceiveFlag
 .bss.l         0x00802160        0x1 ./Globals_Defs.o
                0x00802160                l
 .bss.i         0x00802161        0x1 ./Globals_Defs.o
                0x00802161                i
 .bss.GripperBusy
                0x00802162        0x1 ./Globals_Defs.o
                0x00802162                GripperBusy
 .bss.VodkaTimeOut
                0x00802163        0x2 ./Globals_Defs.o
                0x00802163                VodkaTimeOut
 .bss.CalibrationStatus
                0x00802165        0x1 ./Globals_Defs.o
                0x00802165                CalibrationStatus
 .bss.VodkaStatus
                0x00802166        0x1 ./Globals_Defs.o
                0x00802166                VodkaStatus
 .bss.GripperStatus
                0x00802167        0x1 ./Globals_Defs.o
                0x00802167                GripperStatus
 .bss.GripperForce
                0x00802168        0x2 ./Globals_Defs.o
                0x00802168                GripperForce
 .bss.GripperSpeed
                0x0080216a        0x2 ./Globals_Defs.o
                0x0080216a                GripperSpeed
 .bss.buf_index
                0x0080216c        0x1 ./Globals_Defs.o
                0x0080216c                buf_index
 .bss.DelaySkipFlag.3579
                0x0080216d        0x1 ./PcComands.o
 .bss.SkipLoop.3577
                0x0080216e        0x1 ./PcComands.o
 .bss.EchoEnable.3572
                0x0080216f        0x1 ./PcComands.o
 .bss.ReceiveCounter.3571
                0x00802170        0x1 ./PcComands.o
 .bss.SafeFlag.3646
                0x00802171        0x1 ./main.o
 .bss.AdcTimeFlag.3645
                0x00802172        0x1 ./main.o
 .bss.PidFlag.3644
                0x00802173        0x1 ./main.o
 .bss.ExcitationTimeFlag.3643
                0x00802174        0x1 ./main.o
 .bss.Counter_SafeFlag.3642
                0x00802175        0x2 ./main.o
 .bss.Counter_AdcTimeFlag.3641
                0x00802177        0x2 ./main.o
 .bss.Counter_PidFlag.3640
                0x00802179        0x1 ./main.o
 .bss.Counter_ExcitationTimeFlag.3639
                0x0080217a        0x2 ./main.o
 .bss.usart_data.3595
                0x0080217c        0x2 ./usart.o
 *(COMMON)
 COMMON         0x0080217e      0x9ff ./Globals_Defs.o
                0x0080217e                Receive_2
                0x00802180                D
                0x00802182                A
                0x00802184                TxBuf
                0x008021a4                StepsAmount
                0x008021a6                B
                0x008021a8                usart_buffer
                0x0080220c                AdcSetAxis
                0x0080220d                C
                0x0080220f                Counter_Value
                0x00802211                AdcBuf
                0x00802221                SelectedEngine
                0x00802222                Pid
                0x0080246e                SeqArray
                0x00802aae                RxBuf
                0x00802b76                E
                0x00802b78                usart_i
                0x00802b79                Receive_1
                0x00802b7b                F
                0x00802b7d                PROVIDE (__bss_end, .)
                0x00005d0a                __data_load_start = LOADADDR (.data)
                0x00005e50                __data_load_end = (__data_load_start + SIZEOF (.data))

.noinit         0x00802b7d        0x0
                0x00802b7d                PROVIDE (__noinit_start, .)
 *(.noinit*)
                0x00802b7d                PROVIDE (__noinit_end, .)
                0x00802b7d                _end = .
                0x00802b7d                PROVIDE (__heap_start, .)

.eeprom         0x00810000        0x0
 *(.eeprom*)
                0x00810000                __eeprom_end = .

.fuse
 *(.fuse)
 *(.lfuse)
 *(.hfuse)
 *(.efuse)

.lock
 *(.lock*)

.signature
 *(.signature*)

.stab
 *(.stab)

.stabstr
 *(.stabstr)

.stab.excl
 *(.stab.excl)

.stab.exclstr
 *(.stab.exclstr)

.stab.index
 *(.stab.index)

.stab.indexstr
 *(.stab.indexstr)

.comment
 *(.comment)

.debug
 *(.debug)

.line
 *(.line)

.debug_srcinfo
 *(.debug_srcinfo)

.debug_sfnames
 *(.debug_sfnames)

.debug_aranges
 *(.debug_aranges)

.debug_pubnames
 *(.debug_pubnames)

.debug_info
 *(.debug_info)
 *(.gnu.linkonce.wi.*)

.debug_abbrev
 *(.debug_abbrev)

.debug_line
 *(.debug_line)

.debug_frame
 *(.debug_frame)

.debug_str
 *(.debug_str)

.debug_loc
 *(.debug_loc)

.debug_macinfo
 *(.debug_macinfo)
OUTPUT(Manipulator.elf elf32-avr)
LOAD linker stubs
