   1               		.file	"writer.c"
   2               	__SREG__ = 0x3f
   3               	__SP_H__ = 0x3e
   4               	__SP_L__ = 0x3d
   5               	__CCP__  = 0x34
   6               	__tmp_reg__ = 0
   7               	__zero_reg__ = 1
  15               	.Ltext0:
  16               		.data
  17               	.LC0:
  18 0000 5265 7472 		.string	"Retrying\r\n"
  18      7969 6E67 
  18      0D0A 00
  19               		.text
  20               	.global	write_page
  22               	write_page:
  23               	.LFB16:
  24               	.LM1:
  25 0000 DF92      		push r13
  26 0002 EF92      		push r14
  27 0004 FF92      		push r15
  28 0006 0F93      		push r16
  29 0008 1F93      		push r17
  30 000a CF93      		push r28
  31 000c DF93      		push r29
  32               	/* prologue: function */
  33               	/* frame size = 0 */
  34               	.LM2:
  35 000e 1AE0      		ldi r17,lo8(10)
  36               	.LVL0:
  37               	.LBB17:
  38               	.LM3:
  39 0010 DD24      		clr r13
  40 0012 D394      		inc r13
  41               	.LBE17:
  42               	.LBB22:
  43               	.LM4:
  44 0014 93E0      		ldi r25,lo8(3)
  45 0016 E92E      		mov r14,r25
  46               	.LBE22:
  47               	.LBB27:
  48               	.LM5:
  49 0018 85E0      		ldi r24,lo8(5)
  50 001a F82E      		mov r15,r24
  51               	.LBE27:
  52               	.LM6:
  53 001c 01E1      		ldi r16,lo8(17)
  54               	.LVL1:
  55               	.L8:
  56               	.LM7:
  57 001e 2091 0000 		lds r18,current_page
  58 0022 3091 0000 		lds r19,(current_page)+1
  59               	.LVL2:
  60 0026 A0E0      		ldi r26,lo8(buffer_verify)
  61 0028 B0E0      		ldi r27,hi8(buffer_verify)
  62               	.L2:
  63               	.LM8:
  64 002a 1196      		adiw r26,1
  65 002c DC91      		ld r29,X
  66 002e 1197      		sbiw r26,1
  67 0030 C0E0      		ldi r28,lo8(0)
  68               	.LBB32:
  69               	.LBB18:
  70               	.LBB19:
  71               	.LM9:
  72               	/* #APP */
  73               	 ;  50 "e:/winavr-20100110/lib/gcc/../../avr/include/util/atomic.h" 1
  74 0032 F894      		cli
  75               	 ;  0 "" 2
  76               	/* #NOAPP */
  77               	.LBE19:
  78               	.LBE18:
  79               	.LM10:
  80 0034 8C91      		ld r24,X
  81               	.LVL3:
  82 0036 AE01      		movw r20,r28
  83 0038 480F      		add r20,r24
  84 003a 511D      		adc r21,__zero_reg__
  85 003c F901      		movw r30,r18
  86               	/* #APP */
  87               	 ;  71 "writer.c" 1
  88 003e 0A01      		movw  r0, r20
  89 0040 D092 6800 		sts 104, r13
  90 0044 E895      		spm
  91 0046 1124      		clr  r1
  92               		
  93               	 ;  0 "" 2
  94               	/* #NOAPP */
  95               	.LBB20:
  96               	.LBB21:
  97               	.LM11:
  98               	/* #APP */
  99               	 ;  56 "e:/winavr-20100110/lib/gcc/../../avr/include/util/atomic.h" 1
 100 0048 7894      		sei
 101               	 ;  0 "" 2
 102               	.LM12:
 103               	/* #NOAPP */
 104               	.LBE21:
 105               	.LBE20:
 106               	.LBE32:
 107               	.LM13:
 108 004a 2E5F      		subi r18,lo8(-(2))
 109 004c 3F4F      		sbci r19,hi8(-(2))
 110 004e 1296      		adiw r26,2
 111               	.LM14:
 112 0050 F0E0      		ldi r31,hi8(buffer_verify+256)
 113 0052 A030      		cpi r26,lo8(buffer_verify+256)
 114 0054 BF07      		cpc r27,r31
 115 0056 01F4      		brne .L2
 116               	.LBB33:
 117               	.LBB23:
 118               	.LBB24:
 119               	.LM15:
 120               	/* #APP */
 121               	 ;  50 "e:/winavr-20100110/lib/gcc/../../avr/include/util/atomic.h" 1
 122 0058 F894      		cli
 123               	 ;  0 "" 2
 124               	/* #NOAPP */
 125               	.LBE24:
 126               	.LBE23:
 127               	.LM16:
 128 005a E091 0000 		lds r30,current_page
 129 005e F091 0000 		lds r31,(current_page)+1
 130               	/* #APP */
 131               	 ;  79 "writer.c" 1
 132 0062 E092 6800 		sts 104, r14
 133 0066 E895      		spm
 134               		
 135               	 ;  0 "" 2
 136               	/* #NOAPP */
 137               	.LBB25:
 138               	.LBB26:
 139               	.LM17:
 140               	/* #APP */
 141               	 ;  56 "e:/winavr-20100110/lib/gcc/../../avr/include/util/atomic.h" 1
 142 0068 7894      		sei
 143               	 ;  0 "" 2
 144               	.LM18:
 145               	/* #NOAPP */
 146               	.L3:
 147               	.LBE26:
 148               	.LBE25:
 149               	.LBE33:
 150               	.LM19:
 151 006a 8091 6800 		lds r24,104
 152 006e 80FD      		sbrc r24,0
 153 0070 00C0      		rjmp .L3
 154               	.LBB34:
 155               	.LBB28:
 156               	.LBB29:
 157               	.LM20:
 158               	/* #APP */
 159               	 ;  50 "e:/winavr-20100110/lib/gcc/../../avr/include/util/atomic.h" 1
 160 0072 F894      		cli
 161               	 ;  0 "" 2
 162               	/* #NOAPP */
 163               	.LBE29:
 164               	.LBE28:
 165               	.LM21:
 166 0074 E091 0000 		lds r30,current_page
 167 0078 F091 0000 		lds r31,(current_page)+1
 168               	/* #APP */
 169               	 ;  84 "writer.c" 1
 170 007c F092 6800 		sts 104, r15
 171 0080 E895      		spm
 172               		
 173               	 ;  0 "" 2
 174               	/* #NOAPP */
 175               	.LBB30:
 176               	.LBB31:
 177               	.LM22:
 178               	/* #APP */
 179               	 ;  56 "e:/winavr-20100110/lib/gcc/../../avr/include/util/atomic.h" 1
 180 0082 7894      		sei
 181               	 ;  0 "" 2
 182               	.LM23:
 183               	/* #NOAPP */
 184               	.L4:
 185               	.LBE31:
 186               	.LBE30:
 187               	.LBE34:
 188               	.LM24:
 189 0084 8091 6800 		lds r24,104
 190 0088 80FD      		sbrc r24,0
 191 008a 00C0      		rjmp .L4
 192               	.LM25:
 193               	/* #APP */
 194               	 ;  89 "writer.c" 1
 195 008c 0093 6800 		sts 104, r16
 196 0090 E895      		spm
 197               		
 198               	 ;  0 "" 2
 199               	.LM26:
 200               	/* #NOAPP */
 201 0092 6091 0000 		lds r22,current_page
 202 0096 7091 0000 		lds r23,(current_page)+1
 203 009a 80E0      		ldi r24,lo8(buffer_verify)
 204 009c 90E0      		ldi r25,hi8(buffer_verify)
 205 009e 40E0      		ldi r20,lo8(256)
 206 00a0 51E0      		ldi r21,hi8(256)
 207 00a2 0E94 0000 		call memcmp_P
 208               	.LVL4:
 209 00a6 892B      		or r24,r25
 210 00a8 01F4      		brne .L5
 211 00aa 81E0      		ldi r24,lo8(1)
 212               	.LVL5:
 213 00ac 00C0      		rjmp .L6
 214               	.LVL6:
 215               	.L5:
 216               	.LM27:
 217 00ae 80E0      		ldi r24,lo8(.LC0)
 218 00b0 90E0      		ldi r25,hi8(.LC0)
 219 00b2 0E94 0000 		call uart_write_string
 220               	.LM28:
 221 00b6 1150      		subi r17,lo8(-(-1))
 222 00b8 80E0      		ldi r24,lo8(0)
 223               	.LVL7:
 224               	.L6:
 225               	.LM29:
 226 00ba 1123      		tst r17
 227 00bc 01F0      		breq .L7
 228 00be 8823      		tst r24
 229 00c0 01F4      		brne .+2
 230 00c2 00C0      		rjmp .L8
 231 00c4 00C0      		rjmp .L10
 232               	.L7:
 233               	.LM30:
 234 00c6 8823      		tst r24
 235 00c8 01F4      		brne .L10
 236               	.LM31:
 237 00ca 81E0      		ldi r24,lo8(1)
 238               	.LVL8:
 239 00cc 8093 0000 		sts writer_failed,r24
 240               	.LVL9:
 241               	.L10:
 242               	/* epilogue start */
 243               	.LM32:
 244 00d0 DF91      		pop r29
 245               	.LVL10:
 246 00d2 CF91      		pop r28
 247               	.LVL11:
 248 00d4 1F91      		pop r17
 249               	.LVL12:
 250 00d6 0F91      		pop r16
 251 00d8 FF90      		pop r15
 252 00da EF90      		pop r14
 253 00dc DF90      		pop r13
 254 00de 0895      		ret
 255               	.LFE16:
 257               	.global	flash_finish
 259               	flash_finish:
 260               	.LFB15:
 261               	.LM33:
 262               	/* prologue: function */
 263               	/* frame size = 0 */
 264               	.LM34:
 265 00e0 0E94 0000 		call write_page
 266               	/* epilogue start */
 267               	.LM35:
 268 00e4 0895      		ret
 269               	.LFE15:
 271               		.data
 272               	.LC1:
 273 000b 5041 4745 		.string	"PAGE "
 273      2000 
 274               	.LC2:
 275 0011 0D0A 00   		.string	"\r\n"
 276               		.text
 277               	.global	flash_byte
 279               	flash_byte:
 280               	.LFB14:
 281               	.LM36:
 282               	.LVL13:
 283 00e6 DF92      		push r13
 284 00e8 EF92      		push r14
 285 00ea FF92      		push r15
 286 00ec 0F93      		push r16
 287 00ee 1F93      		push r17
 288 00f0 DF93      		push r29
 289 00f2 CF93      		push r28
 290 00f4 CDB7      		in r28,__SP_L__
 291 00f6 DEB7      		in r29,__SP_H__
 292 00f8 2A97      		sbiw r28,10
 293 00fa 0FB6      		in __tmp_reg__,__SREG__
 294 00fc F894      		cli
 295 00fe DEBF      		out __SP_H__,r29
 296 0100 0FBE      		out __SREG__,__tmp_reg__
 297 0102 CDBF      		out __SP_L__,r28
 298               	/* prologue: function */
 299               	/* frame size = 10 */
 300 0104 7B01      		movw r14,r22
 301 0106 8C01      		movw r16,r24
 302 0108 D42E      		mov r13,r20
 303               	.LM37:
 304 010a 9B01      		movw r18,r22
 305 010c AC01      		movw r20,r24
 306 010e 2070      		andi r18,lo8(65280)
 307 0110 4070      		andi r20,hlo8(65280)
 308 0112 5070      		andi r21,hhi8(65280)
 309 0114 8091 0000 		lds r24,current_page
 310 0118 9091 0000 		lds r25,(current_page)+1
 311 011c A0E0      		ldi r26,lo8(0)
 312 011e B0E0      		ldi r27,hi8(0)
 313 0120 2817      		cp r18,r24
 314 0122 3907      		cpc r19,r25
 315 0124 4A07      		cpc r20,r26
 316 0126 5B07      		cpc r21,r27
 317 0128 01F0      		breq .L18
 318               	.LVL14:
 319               	.LM38:
 320 012a 8091 0000 		lds r24,write_needed.2013
 321 012e 8823      		tst r24
 322 0130 01F0      		breq .L19
 323               	.LM39:
 324 0132 0E94 0000 		call write_page
 325               	.LVL15:
 326               	.L19:
 327               	.LM40:
 328 0136 C701      		movw r24,r14
 329               	.LVL16:
 330 0138 8070      		andi r24,lo8(-256)
 331 013a 9093 0000 		sts (current_page)+1,r25
 332 013e 8093 0000 		sts current_page,r24
 333               	.LM41:
 334 0142 80E0      		ldi r24,lo8(.LC1)
 335 0144 90E0      		ldi r25,hi8(.LC1)
 336 0146 0E94 0000 		call uart_write_string
 337               	.LVL17:
 338               	.LM42:
 339 014a 6091 0000 		lds r22,current_page
 340 014e 7091 0000 		lds r23,(current_page)+1
 341 0152 80E0      		ldi r24,lo8(0)
 342 0154 90E0      		ldi r25,hi8(0)
 343 0156 AE01      		movw r20,r28
 344 0158 4F5F      		subi r20,lo8(-(1))
 345 015a 5F4F      		sbci r21,hi8(-(1))
 346 015c 20E1      		ldi r18,lo8(16)
 347 015e 30E0      		ldi r19,hi8(16)
 348 0160 0E94 0000 		call ltoa
 349 0164 0E94 0000 		call uart_write_string
 350               	.LM43:
 351 0168 80E0      		ldi r24,lo8(.LC2)
 352 016a 90E0      		ldi r25,hi8(.LC2)
 353 016c 0E94 0000 		call uart_write_string
 354               	.LM44:
 355 0170 E091 0000 		lds r30,current_page
 356 0174 F091 0000 		lds r31,(current_page)+1
 357               	.LVL18:
 358 0178 A0E0      		ldi r26,lo8(buffer_verify)
 359 017a B0E0      		ldi r27,hi8(buffer_verify)
 360               	.LVL19:
 361               	.L20:
 362               	.LBB35:
 363               	.LM45:
 364 017c 9F01      		movw r18,r30
 365 017e 2F5F      		subi r18,lo8(-(1))
 366 0180 3F4F      		sbci r19,hi8(-(1))
 367               	.LVL20:
 368               	/* #APP */
 369               	 ;  40 "writer.c" 1
 370 0182 8491      		lpm r24, Z
 371               		
 372               	 ;  0 "" 2
 373               	.LVL21:
 374               	/* #NOAPP */
 375               	.LBE35:
 376 0184 8D93      		st X+,r24
 377               	.LM46:
 378 0186 80E0      		ldi r24,hi8(buffer_verify+256)
 379 0188 A030      		cpi r26,lo8(buffer_verify+256)
 380 018a B807      		cpc r27,r24
 381               	.LVL22:
 382 018c 01F0      		breq .L18
 383               	.LVL23:
 384 018e F901      		movw r30,r18
 385 0190 00C0      		rjmp .L20
 386               	.LVL24:
 387               	.L18:
 388               	.LM47:
 389 0192 F701      		movw r30,r14
 390               	.LVL25:
 391 0194 F070      		andi r31,hi8(255)
 392 0196 E050      		subi r30,lo8(-(buffer_verify))
 393 0198 F040      		sbci r31,hi8(-(buffer_verify))
 394 019a D082      		st Z,r13
 395               	.LM48:
 396 019c 81E0      		ldi r24,lo8(1)
 397 019e 8093 0000 		sts write_needed.2013,r24
 398               	/* epilogue start */
 399               	.LM49:
 400 01a2 2A96      		adiw r28,10
 401 01a4 0FB6      		in __tmp_reg__,__SREG__
 402 01a6 F894      		cli
 403 01a8 DEBF      		out __SP_H__,r29
 404 01aa 0FBE      		out __SREG__,__tmp_reg__
 405 01ac CDBF      		out __SP_L__,r28
 406 01ae CF91      		pop r28
 407 01b0 DF91      		pop r29
 408 01b2 1F91      		pop r17
 409 01b4 0F91      		pop r16
 410 01b6 FF90      		pop r15
 411 01b8 EF90      		pop r14
 412 01ba DF90      		pop r13
 413               	.LVL26:
 414 01bc 0895      		ret
 415               	.LFE14:
 417               	.global	writer_failed
 418               	.global	writer_failed
 419               		.section .bss
 422               	writer_failed:
 423 0000 00        		.skip 1,0
 424               	.global	current_page
 425               		.data
 428               	current_page:
 429 0014 FFFF      		.word	-1
 430               		.lcomm write_needed.2013,1
 431               		.comm buffer_verify,256,1
 472               	.Letext0:
DEFINED SYMBOLS
                            *ABS*:00000000 writer.c
E:\DOCUME~1\Michael\LOCALS~1\Temp/ccJPwzyW.s:2      *ABS*:0000003f __SREG__
E:\DOCUME~1\Michael\LOCALS~1\Temp/ccJPwzyW.s:3      *ABS*:0000003e __SP_H__
E:\DOCUME~1\Michael\LOCALS~1\Temp/ccJPwzyW.s:4      *ABS*:0000003d __SP_L__
E:\DOCUME~1\Michael\LOCALS~1\Temp/ccJPwzyW.s:5      *ABS*:00000034 __CCP__
E:\DOCUME~1\Michael\LOCALS~1\Temp/ccJPwzyW.s:6      *ABS*:00000000 __tmp_reg__
E:\DOCUME~1\Michael\LOCALS~1\Temp/ccJPwzyW.s:7      *ABS*:00000001 __zero_reg__
E:\DOCUME~1\Michael\LOCALS~1\Temp/ccJPwzyW.s:22     .text:00000000 write_page
E:\DOCUME~1\Michael\LOCALS~1\Temp/ccJPwzyW.s:428    .data:00000014 current_page
                            *COM*:00000100 buffer_verify
E:\DOCUME~1\Michael\LOCALS~1\Temp/ccJPwzyW.s:422    .bss:00000000 writer_failed
E:\DOCUME~1\Michael\LOCALS~1\Temp/ccJPwzyW.s:259    .text:000000e0 flash_finish
E:\DOCUME~1\Michael\LOCALS~1\Temp/ccJPwzyW.s:279    .text:000000e6 flash_byte
                             .bss:00000001 write_needed.2013

UNDEFINED SYMBOLS
memcmp_P
uart_write_string
ltoa
__do_copy_data
__do_clear_bss
