
st7920_v3.elf:     file format elf32-avr

Sections:
Idx Name          Size      VMA       LMA       File off  Algn
  0 .text         00000aa2  00000000  00000000  00000094  2**1
                  CONTENTS, ALLOC, LOAD, READONLY, CODE
  1 .data         00000086  00800060  00000aa2  00000b36  2**0
                  CONTENTS, ALLOC, LOAD, DATA
  2 .bss          00000008  008000e6  008000e6  00000bbc  2**0
                  ALLOC
  3 .stab         000009e4  00000000  00000000  00000bbc  2**2
                  CONTENTS, READONLY, DEBUGGING
  4 .stabstr      0000048b  00000000  00000000  000015a0  2**0
                  CONTENTS, READONLY, DEBUGGING
  5 .comment      00000011  00000000  00000000  00001a2b  2**0
                  CONTENTS, READONLY

Disassembly of section .text:

00000000 <__vectors>:
   0:	12 c0       	rjmp	.+36     	; 0x26 <__ctors_end>
   2:	2c c0       	rjmp	.+88     	; 0x5c <__bad_interrupt>
   4:	2b c0       	rjmp	.+86     	; 0x5c <__bad_interrupt>
   6:	2a c0       	rjmp	.+84     	; 0x5c <__bad_interrupt>
   8:	29 c0       	rjmp	.+82     	; 0x5c <__bad_interrupt>
   a:	28 c0       	rjmp	.+80     	; 0x5c <__bad_interrupt>
   c:	27 c0       	rjmp	.+78     	; 0x5c <__bad_interrupt>
   e:	26 c0       	rjmp	.+76     	; 0x5c <__bad_interrupt>
  10:	25 c0       	rjmp	.+74     	; 0x5c <__bad_interrupt>
  12:	24 c0       	rjmp	.+72     	; 0x5c <__bad_interrupt>
  14:	23 c0       	rjmp	.+70     	; 0x5c <__bad_interrupt>
  16:	22 c0       	rjmp	.+68     	; 0x5c <__bad_interrupt>
  18:	21 c0       	rjmp	.+66     	; 0x5c <__bad_interrupt>
  1a:	20 c0       	rjmp	.+64     	; 0x5c <__bad_interrupt>
  1c:	1f c0       	rjmp	.+62     	; 0x5c <__bad_interrupt>
  1e:	1e c0       	rjmp	.+60     	; 0x5c <__bad_interrupt>
  20:	1d c0       	rjmp	.+58     	; 0x5c <__bad_interrupt>
  22:	1c c0       	rjmp	.+56     	; 0x5c <__bad_interrupt>
  24:	1b c0       	rjmp	.+54     	; 0x5c <__bad_interrupt>

00000026 <__ctors_end>:
  26:	11 24       	eor	r1, r1
  28:	1f be       	out	0x3f, r1	; 63
  2a:	cf e5       	ldi	r28, 0x5F	; 95
  2c:	d4 e0       	ldi	r29, 0x04	; 4
  2e:	de bf       	out	0x3e, r29	; 62
  30:	cd bf       	out	0x3d, r28	; 61

00000032 <__do_copy_data>:
  32:	10 e0       	ldi	r17, 0x00	; 0
  34:	a0 e6       	ldi	r26, 0x60	; 96
  36:	b0 e0       	ldi	r27, 0x00	; 0
  38:	e2 ea       	ldi	r30, 0xA2	; 162
  3a:	fa e0       	ldi	r31, 0x0A	; 10
  3c:	02 c0       	rjmp	.+4      	; 0x42 <__SREG__+0x3>
  3e:	05 90       	lpm	r0, Z+
  40:	0d 92       	st	X+, r0
  42:	a6 3e       	cpi	r26, 0xE6	; 230
  44:	b1 07       	cpc	r27, r17
  46:	d9 f7       	brne	.-10     	; 0x3e <__SP_H__>

00000048 <__do_clear_bss>:
  48:	10 e0       	ldi	r17, 0x00	; 0
  4a:	a6 ee       	ldi	r26, 0xE6	; 230
  4c:	b0 e0       	ldi	r27, 0x00	; 0
  4e:	01 c0       	rjmp	.+2      	; 0x52 <.do_clear_bss_start>

00000050 <.do_clear_bss_loop>:
  50:	1d 92       	st	X+, r1

00000052 <.do_clear_bss_start>:
  52:	ae 3e       	cpi	r26, 0xEE	; 238
  54:	b1 07       	cpc	r27, r17
  56:	e1 f7       	brne	.-8      	; 0x50 <.do_clear_bss_loop>
  58:	71 d3       	rcall	.+1762   	; 0x73c <main>
  5a:	21 c5       	rjmp	.+2626   	; 0xa9e <_exit>

0000005c <__bad_interrupt>:
  5c:	d1 cf       	rjmp	.-94     	; 0x0 <__vectors>

0000005e <rs_hi>:
  5e:	a8 9a       	sbi	0x15, 0	; 21
  60:	85 ed       	ldi	r24, 0xD5	; 213
  62:	8a 95       	dec	r24
  64:	f1 f7       	brne	.-4      	; 0x62 <rs_hi+0x4>
  66:	00 00       	nop
  68:	08 95       	ret

0000006a <rs_lo>:
  6a:	a8 98       	cbi	0x15, 0	; 21
  6c:	85 ed       	ldi	r24, 0xD5	; 213
  6e:	8a 95       	dec	r24
  70:	f1 f7       	brne	.-4      	; 0x6e <rs_lo+0x4>
  72:	00 00       	nop
  74:	08 95       	ret

00000076 <rw_hi>:
  76:	a9 9a       	sbi	0x15, 1	; 21
  78:	85 ed       	ldi	r24, 0xD5	; 213
  7a:	8a 95       	dec	r24
  7c:	f1 f7       	brne	.-4      	; 0x7a <rw_hi+0x4>
  7e:	00 00       	nop
  80:	08 95       	ret

00000082 <rw_lo>:
  82:	a9 98       	cbi	0x15, 1	; 21
  84:	85 ed       	ldi	r24, 0xD5	; 213
  86:	8a 95       	dec	r24
  88:	f1 f7       	brne	.-4      	; 0x86 <rw_lo+0x4>
  8a:	00 00       	nop
  8c:	08 95       	ret

0000008e <e_hi>:
  8e:	aa 9a       	sbi	0x15, 2	; 21
  90:	85 ed       	ldi	r24, 0xD5	; 213
  92:	8a 95       	dec	r24
  94:	f1 f7       	brne	.-4      	; 0x92 <e_hi+0x4>
  96:	00 00       	nop
  98:	08 95       	ret

0000009a <e_lo>:
  9a:	aa 98       	cbi	0x15, 2	; 21
  9c:	85 ed       	ldi	r24, 0xD5	; 213
  9e:	8a 95       	dec	r24
  a0:	f1 f7       	brne	.-4      	; 0x9e <e_lo+0x4>
  a2:	00 00       	nop
  a4:	08 95       	ret

000000a6 <read_word>:
  a6:	0f 93       	push	r16
  a8:	1f 93       	push	r17
  aa:	cf 93       	push	r28
  ac:	df 93       	push	r29
  ae:	1f 92       	push	r1
  b0:	cd b7       	in	r28, 0x3d	; 61
  b2:	de b7       	in	r29, 0x3e	; 62
  b4:	17 ba       	out	0x17, r1	; 23
  b6:	18 ba       	out	0x18, r1	; 24
  b8:	89 83       	std	Y+1, r24	; 0x01
  ba:	ef df       	rcall	.-34     	; 0x9a <e_lo>
  bc:	89 81       	ldd	r24, Y+1	; 0x01
  be:	81 11       	cpse	r24, r1
  c0:	02 c0       	rjmp	.+4      	; 0xc6 <read_word+0x20>
  c2:	d3 df       	rcall	.-90     	; 0x6a <rs_lo>
  c4:	01 c0       	rjmp	.+2      	; 0xc8 <read_word+0x22>
  c6:	cb df       	rcall	.-106    	; 0x5e <rs_hi>
  c8:	d6 df       	rcall	.-84     	; 0x76 <rw_hi>
  ca:	e1 df       	rcall	.-62     	; 0x8e <e_hi>
  cc:	86 b3       	in	r24, 0x16	; 22
  ce:	e5 df       	rcall	.-54     	; 0x9a <e_lo>
  d0:	de df       	rcall	.-68     	; 0x8e <e_hi>
  d2:	06 b3       	in	r16, 0x16	; 22
  d4:	e2 df       	rcall	.-60     	; 0x9a <e_lo>
  d6:	8f ec       	ldi	r24, 0xCF	; 207
  d8:	97 e0       	ldi	r25, 0x07	; 7
  da:	01 97       	sbiw	r24, 0x01	; 1
  dc:	f1 f7       	brne	.-4      	; 0xda <read_word+0x34>
  de:	00 c0       	rjmp	.+0      	; 0xe0 <read_word+0x3a>
  e0:	00 00       	nop
  e2:	d5 df       	rcall	.-86     	; 0x8e <e_hi>
  e4:	16 b3       	in	r17, 0x16	; 22
  e6:	d9 df       	rcall	.-78     	; 0x9a <e_lo>
  e8:	90 2f       	mov	r25, r16
  ea:	80 e0       	ldi	r24, 0x00	; 0
  ec:	9c 01       	movw	r18, r24
  ee:	21 2b       	or	r18, r17
  f0:	c9 01       	movw	r24, r18
  f2:	0f 90       	pop	r0
  f4:	df 91       	pop	r29
  f6:	cf 91       	pop	r28
  f8:	1f 91       	pop	r17
  fa:	0f 91       	pop	r16
  fc:	08 95       	ret

000000fe <toggle_E>:
  fe:	c7 df       	rcall	.-114    	; 0x8e <e_hi>
 100:	cc cf       	rjmp	.-104    	; 0x9a <e_lo>

00000102 <write_word>:
 102:	ef 92       	push	r14
 104:	ff 92       	push	r15
 106:	0f 93       	push	r16
 108:	1f 93       	push	r17
 10a:	cf 93       	push	r28
 10c:	df 93       	push	r29
 10e:	8c 01       	movw	r16, r24
 110:	eb 01       	movw	r28, r22
 112:	f4 2e       	mov	r15, r20
 114:	e5 2e       	mov	r14, r21
 116:	8f ef       	ldi	r24, 0xFF	; 255
 118:	87 bb       	out	0x17, r24	; 23
 11a:	bf df       	rcall	.-130    	; 0x9a <e_lo>
 11c:	a6 df       	rcall	.-180    	; 0x6a <rs_lo>
 11e:	b1 df       	rcall	.-158    	; 0x82 <rw_lo>
 120:	c0 32       	cpi	r28, 0x20	; 32
 122:	d1 05       	cpc	r29, r1
 124:	1c f0       	brlt	.+6      	; 0x12c <write_word+0x2a>
 126:	a0 97       	sbiw	r28, 0x20	; 32
 128:	08 5f       	subi	r16, 0xF8	; 248
 12a:	1f 4f       	sbci	r17, 0xFF	; 255
 12c:	c0 68       	ori	r28, 0x80	; 128
 12e:	c8 bb       	out	0x18, r28	; 24
 130:	e6 df       	rcall	.-52     	; 0xfe <toggle_E>
 132:	00 68       	ori	r16, 0x80	; 128
 134:	08 bb       	out	0x18, r16	; 24
 136:	e3 df       	rcall	.-58     	; 0xfe <toggle_E>
 138:	92 df       	rcall	.-220    	; 0x5e <rs_hi>
 13a:	e8 ba       	out	0x18, r14	; 24
 13c:	e0 df       	rcall	.-64     	; 0xfe <toggle_E>
 13e:	f8 ba       	out	0x18, r15	; 24
 140:	df 91       	pop	r29
 142:	cf 91       	pop	r28
 144:	1f 91       	pop	r17
 146:	0f 91       	pop	r16
 148:	ff 90       	pop	r15
 14a:	ef 90       	pop	r14
 14c:	d8 cf       	rjmp	.-80     	; 0xfe <toggle_E>

0000014e <clcd_init>:
 14e:	cf 93       	push	r28
 150:	8f ef       	ldi	r24, 0xFF	; 255
 152:	87 bb       	out	0x17, r24	; 23
 154:	a2 df       	rcall	.-188    	; 0x9a <e_lo>
 156:	89 df       	rcall	.-238    	; 0x6a <rs_lo>
 158:	94 df       	rcall	.-216    	; 0x82 <rw_lo>
 15a:	c0 e3       	ldi	r28, 0x30	; 48
 15c:	c8 bb       	out	0x18, r28	; 24
 15e:	cf df       	rcall	.-98     	; 0xfe <toggle_E>
 160:	8f ec       	ldi	r24, 0xCF	; 207
 162:	97 e0       	ldi	r25, 0x07	; 7
 164:	01 97       	sbiw	r24, 0x01	; 1
 166:	f1 f7       	brne	.-4      	; 0x164 <clcd_init+0x16>
 168:	00 c0       	rjmp	.+0      	; 0x16a <clcd_init+0x1c>
 16a:	00 00       	nop
 16c:	c8 bb       	out	0x18, r28	; 24
 16e:	c7 df       	rcall	.-114    	; 0xfe <toggle_E>
 170:	8c e0       	ldi	r24, 0x0C	; 12
 172:	88 bb       	out	0x18, r24	; 24
 174:	c4 df       	rcall	.-120    	; 0xfe <toggle_E>
 176:	81 e0       	ldi	r24, 0x01	; 1
 178:	88 bb       	out	0x18, r24	; 24
 17a:	c1 df       	rcall	.-126    	; 0xfe <toggle_E>
 17c:	86 e0       	ldi	r24, 0x06	; 6
 17e:	88 bb       	out	0x18, r24	; 24
 180:	cf 91       	pop	r28
 182:	bd cf       	rjmp	.-134    	; 0xfe <toggle_E>

00000184 <set_cgram_address>:
 184:	cf 93       	push	r28
 186:	df 93       	push	r29
 188:	00 d0       	rcall	.+0      	; 0x18a <set_cgram_address+0x6>
 18a:	cd b7       	in	r28, 0x3d	; 61
 18c:	de b7       	in	r29, 0x3e	; 62
 18e:	6a 83       	std	Y+2, r22	; 0x02
 190:	89 83       	std	Y+1, r24	; 0x01
 192:	83 df       	rcall	.-250    	; 0x9a <e_lo>
 194:	6a df       	rcall	.-300    	; 0x6a <rs_lo>
 196:	75 df       	rcall	.-278    	; 0x82 <rw_lo>
 198:	9f ef       	ldi	r25, 0xFF	; 255
 19a:	97 bb       	out	0x17, r25	; 23
 19c:	89 81       	ldd	r24, Y+1	; 0x01
 19e:	80 64       	ori	r24, 0x40	; 64
 1a0:	88 bb       	out	0x18, r24	; 24
 1a2:	ad df       	rcall	.-166    	; 0xfe <toggle_E>
 1a4:	6a 81       	ldd	r22, Y+2	; 0x02
 1a6:	60 64       	ori	r22, 0x40	; 64
 1a8:	68 bb       	out	0x18, r22	; 24
 1aa:	0f 90       	pop	r0
 1ac:	0f 90       	pop	r0
 1ae:	df 91       	pop	r29
 1b0:	cf 91       	pop	r28
 1b2:	a5 cf       	rjmp	.-182    	; 0xfe <toggle_E>

000001b4 <glcd_enable>:
 1b4:	8f ef       	ldi	r24, 0xFF	; 255
 1b6:	87 bb       	out	0x17, r24	; 23
 1b8:	70 df       	rcall	.-288    	; 0x9a <e_lo>
 1ba:	57 df       	rcall	.-338    	; 0x6a <rs_lo>
 1bc:	62 df       	rcall	.-316    	; 0x82 <rw_lo>
 1be:	80 e3       	ldi	r24, 0x30	; 48
 1c0:	88 bb       	out	0x18, r24	; 24
 1c2:	9d df       	rcall	.-198    	; 0xfe <toggle_E>
 1c4:	8f ec       	ldi	r24, 0xCF	; 207
 1c6:	97 e0       	ldi	r25, 0x07	; 7
 1c8:	01 97       	sbiw	r24, 0x01	; 1
 1ca:	f1 f7       	brne	.-4      	; 0x1c8 <glcd_enable+0x14>
 1cc:	00 c0       	rjmp	.+0      	; 0x1ce <glcd_enable+0x1a>
 1ce:	00 00       	nop
 1d0:	86 e3       	ldi	r24, 0x36	; 54
 1d2:	88 bb       	out	0x18, r24	; 24
 1d4:	94 df       	rcall	.-216    	; 0xfe <toggle_E>
 1d6:	8c e0       	ldi	r24, 0x0C	; 12
 1d8:	88 bb       	out	0x18, r24	; 24
 1da:	91 df       	rcall	.-222    	; 0xfe <toggle_E>
 1dc:	81 e0       	ldi	r24, 0x01	; 1
 1de:	88 bb       	out	0x18, r24	; 24
 1e0:	8e df       	rcall	.-228    	; 0xfe <toggle_E>
 1e2:	86 e0       	ldi	r24, 0x06	; 6
 1e4:	88 bb       	out	0x18, r24	; 24
 1e6:	8b cf       	rjmp	.-234    	; 0xfe <toggle_E>

000001e8 <write_data>:
 1e8:	cf 93       	push	r28
 1ea:	df 93       	push	r29
 1ec:	1f 92       	push	r1
 1ee:	cd b7       	in	r28, 0x3d	; 61
 1f0:	de b7       	in	r29, 0x3e	; 62
 1f2:	9f ef       	ldi	r25, 0xFF	; 255
 1f4:	97 bb       	out	0x17, r25	; 23
 1f6:	89 83       	std	Y+1, r24	; 0x01
 1f8:	50 df       	rcall	.-352    	; 0x9a <e_lo>
 1fa:	31 df       	rcall	.-414    	; 0x5e <rs_hi>
 1fc:	42 df       	rcall	.-380    	; 0x82 <rw_lo>
 1fe:	89 81       	ldd	r24, Y+1	; 0x01
 200:	88 bb       	out	0x18, r24	; 24
 202:	0f 90       	pop	r0
 204:	df 91       	pop	r29
 206:	cf 91       	pop	r28
 208:	7a cf       	rjmp	.-268    	; 0xfe <toggle_E>

0000020a <write_wdata>:
 20a:	cf 93       	push	r28
 20c:	df 93       	push	r29
 20e:	00 d0       	rcall	.+0      	; 0x210 <write_wdata+0x6>
 210:	cd b7       	in	r28, 0x3d	; 61
 212:	de b7       	in	r29, 0x3e	; 62
 214:	2f ef       	ldi	r18, 0xFF	; 255
 216:	27 bb       	out	0x17, r18	; 23
 218:	8a 83       	std	Y+2, r24	; 0x02
 21a:	99 83       	std	Y+1, r25	; 0x01
 21c:	3e df       	rcall	.-388    	; 0x9a <e_lo>
 21e:	1f df       	rcall	.-450    	; 0x5e <rs_hi>
 220:	30 df       	rcall	.-416    	; 0x82 <rw_lo>
 222:	99 81       	ldd	r25, Y+1	; 0x01
 224:	98 bb       	out	0x18, r25	; 24
 226:	6b df       	rcall	.-298    	; 0xfe <toggle_E>
 228:	8a 81       	ldd	r24, Y+2	; 0x02
 22a:	88 bb       	out	0x18, r24	; 24
 22c:	0f 90       	pop	r0
 22e:	0f 90       	pop	r0
 230:	df 91       	pop	r29
 232:	cf 91       	pop	r28
 234:	64 cf       	rjmp	.-312    	; 0xfe <toggle_E>

00000236 <test_ports>:
 236:	1f 93       	push	r17
 238:	cf 93       	push	r28
 23a:	df 93       	push	r29
 23c:	8f ef       	ldi	r24, 0xFF	; 255
 23e:	87 bb       	out	0x17, r24	; 23
 240:	84 bb       	out	0x14, r24	; 20
 242:	ce e1       	ldi	r28, 0x1E	; 30
 244:	d0 e0       	ldi	r29, 0x00	; 0
 246:	1f ef       	ldi	r17, 0xFF	; 255
 248:	28 df       	rcall	.-432    	; 0x9a <e_lo>
 24a:	0f df       	rcall	.-482    	; 0x6a <rs_lo>
 24c:	1a df       	rcall	.-460    	; 0x82 <rw_lo>
 24e:	2f ef       	ldi	r18, 0xFF	; 255
 250:	84 e3       	ldi	r24, 0x34	; 52
 252:	9c e0       	ldi	r25, 0x0C	; 12
 254:	21 50       	subi	r18, 0x01	; 1
 256:	80 40       	sbci	r24, 0x00	; 0
 258:	90 40       	sbci	r25, 0x00	; 0
 25a:	e1 f7       	brne	.-8      	; 0x254 <test_ports+0x1e>
 25c:	00 c0       	rjmp	.+0      	; 0x25e <test_ports+0x28>
 25e:	00 00       	nop
 260:	16 df       	rcall	.-468    	; 0x8e <e_hi>
 262:	fd de       	rcall	.-518    	; 0x5e <rs_hi>
 264:	08 df       	rcall	.-496    	; 0x76 <rw_hi>
 266:	2f ef       	ldi	r18, 0xFF	; 255
 268:	84 e3       	ldi	r24, 0x34	; 52
 26a:	9c e0       	ldi	r25, 0x0C	; 12
 26c:	21 50       	subi	r18, 0x01	; 1
 26e:	80 40       	sbci	r24, 0x00	; 0
 270:	90 40       	sbci	r25, 0x00	; 0
 272:	e1 f7       	brne	.-8      	; 0x26c <test_ports+0x36>
 274:	00 c0       	rjmp	.+0      	; 0x276 <test_ports+0x40>
 276:	00 00       	nop
 278:	18 ba       	out	0x18, r1	; 24
 27a:	2f ef       	ldi	r18, 0xFF	; 255
 27c:	84 e3       	ldi	r24, 0x34	; 52
 27e:	9c e0       	ldi	r25, 0x0C	; 12
 280:	21 50       	subi	r18, 0x01	; 1
 282:	80 40       	sbci	r24, 0x00	; 0
 284:	90 40       	sbci	r25, 0x00	; 0
 286:	e1 f7       	brne	.-8      	; 0x280 <test_ports+0x4a>
 288:	00 c0       	rjmp	.+0      	; 0x28a <test_ports+0x54>
 28a:	00 00       	nop
 28c:	18 bb       	out	0x18, r17	; 24
 28e:	2f ef       	ldi	r18, 0xFF	; 255
 290:	84 e3       	ldi	r24, 0x34	; 52
 292:	9c e0       	ldi	r25, 0x0C	; 12
 294:	21 50       	subi	r18, 0x01	; 1
 296:	80 40       	sbci	r24, 0x00	; 0
 298:	90 40       	sbci	r25, 0x00	; 0
 29a:	e1 f7       	brne	.-8      	; 0x294 <test_ports+0x5e>
 29c:	00 c0       	rjmp	.+0      	; 0x29e <test_ports+0x68>
 29e:	00 00       	nop
 2a0:	21 97       	sbiw	r28, 0x01	; 1
 2a2:	91 f6       	brne	.-92     	; 0x248 <test_ports+0x12>
 2a4:	df 91       	pop	r29
 2a6:	cf 91       	pop	r28
 2a8:	1f 91       	pop	r17
 2aa:	08 95       	ret

000002ac <cdisplay_clear>:
 2ac:	8f ef       	ldi	r24, 0xFF	; 255
 2ae:	87 bb       	out	0x17, r24	; 23
 2b0:	f4 de       	rcall	.-536    	; 0x9a <e_lo>
 2b2:	db de       	rcall	.-586    	; 0x6a <rs_lo>
 2b4:	e6 de       	rcall	.-564    	; 0x82 <rw_lo>
 2b6:	81 e0       	ldi	r24, 0x01	; 1
 2b8:	88 bb       	out	0x18, r24	; 24
 2ba:	21 cf       	rjmp	.-446    	; 0xfe <toggle_E>

000002bc <gotoxy>:
 2bc:	1f 93       	push	r17
 2be:	cf 93       	push	r28
 2c0:	df 93       	push	r29
 2c2:	00 d0       	rcall	.+0      	; 0x2c4 <gotoxy+0x8>
 2c4:	cd b7       	in	r28, 0x3d	; 61
 2c6:	de b7       	in	r29, 0x3e	; 62
 2c8:	9f ef       	ldi	r25, 0xFF	; 255
 2ca:	97 bb       	out	0x17, r25	; 23
 2cc:	6a 83       	std	Y+2, r22	; 0x02
 2ce:	89 83       	std	Y+1, r24	; 0x01
 2d0:	e4 de       	rcall	.-568    	; 0x9a <e_lo>
 2d2:	cb de       	rcall	.-618    	; 0x6a <rs_lo>
 2d4:	d6 de       	rcall	.-596    	; 0x82 <rw_lo>
 2d6:	6a 81       	ldd	r22, Y+2	; 0x02
 2d8:	89 81       	ldd	r24, Y+1	; 0x01
 2da:	60 32       	cpi	r22, 0x20	; 32
 2dc:	10 f0       	brcs	.+4      	; 0x2e2 <gotoxy+0x26>
 2de:	60 52       	subi	r22, 0x20	; 32
 2e0:	88 5f       	subi	r24, 0xF8	; 248
 2e2:	18 2f       	mov	r17, r24
 2e4:	10 68       	ori	r17, 0x80	; 128
 2e6:	60 68       	ori	r22, 0x80	; 128
 2e8:	68 bb       	out	0x18, r22	; 24
 2ea:	09 df       	rcall	.-494    	; 0xfe <toggle_E>
 2ec:	18 bb       	out	0x18, r17	; 24
 2ee:	0f 90       	pop	r0
 2f0:	0f 90       	pop	r0
 2f2:	df 91       	pop	r29
 2f4:	cf 91       	pop	r28
 2f6:	1f 91       	pop	r17
 2f8:	02 cf       	rjmp	.-508    	; 0xfe <toggle_E>

000002fa <glcd_fill>:
 2fa:	ef 92       	push	r14
 2fc:	ff 92       	push	r15
 2fe:	0f 93       	push	r16
 300:	1f 93       	push	r17
 302:	cf 93       	push	r28
 304:	df 93       	push	r29
 306:	7c 01       	movw	r14, r24
 308:	00 e0       	ldi	r16, 0x00	; 0
 30a:	10 e0       	ldi	r17, 0x00	; 0
 30c:	0d c0       	rjmp	.+26     	; 0x328 <glcd_fill+0x2e>
 30e:	a7 01       	movw	r20, r14
 310:	b8 01       	movw	r22, r16
 312:	ce 01       	movw	r24, r28
 314:	f6 de       	rcall	.-532    	; 0x102 <write_word>
 316:	21 96       	adiw	r28, 0x01	; 1
 318:	c8 30       	cpi	r28, 0x08	; 8
 31a:	d1 05       	cpc	r29, r1
 31c:	c1 f7       	brne	.-16     	; 0x30e <glcd_fill+0x14>
 31e:	0f 5f       	subi	r16, 0xFF	; 255
 320:	1f 4f       	sbci	r17, 0xFF	; 255
 322:	00 34       	cpi	r16, 0x40	; 64
 324:	11 05       	cpc	r17, r1
 326:	19 f0       	breq	.+6      	; 0x32e <glcd_fill+0x34>
 328:	c0 e0       	ldi	r28, 0x00	; 0
 32a:	d0 e0       	ldi	r29, 0x00	; 0
 32c:	f0 cf       	rjmp	.-32     	; 0x30e <glcd_fill+0x14>
 32e:	df 91       	pop	r29
 330:	cf 91       	pop	r28
 332:	1f 91       	pop	r17
 334:	0f 91       	pop	r16
 336:	ff 90       	pop	r15
 338:	ef 90       	pop	r14
 33a:	08 95       	ret

0000033c <wait>:
 33c:	08 95       	ret

0000033e <set_pixel>:
 33e:	1f 93       	push	r17
 340:	cf 93       	push	r28
 342:	df 93       	push	r29
 344:	d6 2f       	mov	r29, r22
 346:	c8 2f       	mov	r28, r24
 348:	c2 95       	swap	r28
 34a:	cf 70       	andi	r28, 0x0F	; 15
 34c:	18 2f       	mov	r17, r24
 34e:	1f 70       	andi	r17, 0x0F	; 15
 350:	8c 2f       	mov	r24, r28
 352:	b4 df       	rcall	.-152    	; 0x2bc <gotoxy>
 354:	81 e0       	ldi	r24, 0x01	; 1
 356:	a7 de       	rcall	.-690    	; 0xa6 <read_word>
 358:	40 e0       	ldi	r20, 0x00	; 0
 35a:	50 e8       	ldi	r21, 0x80	; 128
 35c:	02 c0       	rjmp	.+4      	; 0x362 <set_pixel+0x24>
 35e:	56 95       	lsr	r21
 360:	47 95       	ror	r20
 362:	1a 95       	dec	r17
 364:	e2 f7       	brpl	.-8      	; 0x35e <set_pixel+0x20>
 366:	48 2b       	or	r20, r24
 368:	59 2b       	or	r21, r25
 36a:	6d 2f       	mov	r22, r29
 36c:	70 e0       	ldi	r23, 0x00	; 0
 36e:	8c 2f       	mov	r24, r28
 370:	90 e0       	ldi	r25, 0x00	; 0
 372:	df 91       	pop	r29
 374:	cf 91       	pop	r28
 376:	1f 91       	pop	r17
 378:	c4 ce       	rjmp	.-632    	; 0x102 <write_word>

0000037a <clr_pixel>:
 37a:	1f 93       	push	r17
 37c:	cf 93       	push	r28
 37e:	df 93       	push	r29
 380:	d6 2f       	mov	r29, r22
 382:	c8 2f       	mov	r28, r24
 384:	c2 95       	swap	r28
 386:	cf 70       	andi	r28, 0x0F	; 15
 388:	18 2f       	mov	r17, r24
 38a:	1f 70       	andi	r17, 0x0F	; 15
 38c:	8c 2f       	mov	r24, r28
 38e:	96 df       	rcall	.-212    	; 0x2bc <gotoxy>
 390:	81 e0       	ldi	r24, 0x01	; 1
 392:	89 de       	rcall	.-750    	; 0xa6 <read_word>
 394:	4f ef       	ldi	r20, 0xFF	; 255
 396:	5f e7       	ldi	r21, 0x7F	; 127
 398:	02 c0       	rjmp	.+4      	; 0x39e <clr_pixel+0x24>
 39a:	56 95       	lsr	r21
 39c:	47 95       	ror	r20
 39e:	1a 95       	dec	r17
 3a0:	e2 f7       	brpl	.-8      	; 0x39a <clr_pixel+0x20>
 3a2:	48 23       	and	r20, r24
 3a4:	59 23       	and	r21, r25
 3a6:	6d 2f       	mov	r22, r29
 3a8:	70 e0       	ldi	r23, 0x00	; 0
 3aa:	8c 2f       	mov	r24, r28
 3ac:	90 e0       	ldi	r25, 0x00	; 0
 3ae:	df 91       	pop	r29
 3b0:	cf 91       	pop	r28
 3b2:	1f 91       	pop	r17
 3b4:	a6 ce       	rjmp	.-692    	; 0x102 <write_word>

000003b6 <write_number_xy>:
 3b6:	df 92       	push	r13
 3b8:	ef 92       	push	r14
 3ba:	ff 92       	push	r15
 3bc:	0f 93       	push	r16
 3be:	1f 93       	push	r17
 3c0:	cf 93       	push	r28
 3c2:	df 93       	push	r29
 3c4:	d8 2e       	mov	r13, r24
 3c6:	85 e0       	ldi	r24, 0x05	; 5
 3c8:	48 9f       	mul	r20, r24
 3ca:	80 01       	movw	r16, r0
 3cc:	11 24       	eor	r1, r1
 3ce:	0e 59       	subi	r16, 0x9E	; 158
 3d0:	1f 4f       	sbci	r17, 0xFF	; 255
 3d2:	c0 e0       	ldi	r28, 0x00	; 0
 3d4:	d0 e0       	ldi	r29, 0x00	; 0
 3d6:	e6 2e       	mov	r14, r22
 3d8:	f1 2c       	mov	r15, r1
 3da:	f8 01       	movw	r30, r16
 3dc:	ec 0f       	add	r30, r28
 3de:	fd 1f       	adc	r31, r29
 3e0:	50 81       	ld	r21, Z
 3e2:	52 95       	swap	r21
 3e4:	50 7f       	andi	r21, 0xF0	; 240
 3e6:	be 01       	movw	r22, r28
 3e8:	6e 0d       	add	r22, r14
 3ea:	7f 1d       	adc	r23, r15
 3ec:	40 e0       	ldi	r20, 0x00	; 0
 3ee:	8d 2d       	mov	r24, r13
 3f0:	90 e0       	ldi	r25, 0x00	; 0
 3f2:	87 de       	rcall	.-754    	; 0x102 <write_word>
 3f4:	21 96       	adiw	r28, 0x01	; 1
 3f6:	c5 30       	cpi	r28, 0x05	; 5
 3f8:	d1 05       	cpc	r29, r1
 3fa:	79 f7       	brne	.-34     	; 0x3da <write_number_xy+0x24>
 3fc:	df 91       	pop	r29
 3fe:	cf 91       	pop	r28
 400:	1f 91       	pop	r17
 402:	0f 91       	pop	r16
 404:	ff 90       	pop	r15
 406:	ef 90       	pop	r14
 408:	df 90       	pop	r13
 40a:	08 95       	ret

0000040c <write_char>:
 40c:	6f 92       	push	r6
 40e:	7f 92       	push	r7
 410:	8f 92       	push	r8
 412:	9f 92       	push	r9
 414:	af 92       	push	r10
 416:	bf 92       	push	r11
 418:	cf 92       	push	r12
 41a:	df 92       	push	r13
 41c:	ef 92       	push	r14
 41e:	ff 92       	push	r15
 420:	0f 93       	push	r16
 422:	1f 93       	push	r17
 424:	cf 93       	push	r28
 426:	df 93       	push	r29
 428:	cd b7       	in	r28, 0x3d	; 61
 42a:	de b7       	in	r29, 0x3e	; 62
 42c:	2a 97       	sbiw	r28, 0x0a	; 10
 42e:	0f b6       	in	r0, 0x3f	; 63
 430:	f8 94       	cli
 432:	de bf       	out	0x3e, r29	; 62
 434:	0f be       	out	0x3f, r0	; 63
 436:	cd bf       	out	0x3d, r28	; 61
 438:	5c 01       	movw	r10, r24
 43a:	4b 01       	movw	r8, r22
 43c:	cc 24       	eor	r12, r12
 43e:	c3 94       	inc	r12
 440:	d1 2c       	mov	r13, r1
 442:	cc 0e       	add	r12, r28
 444:	dd 1e       	adc	r13, r29
 446:	85 e0       	ldi	r24, 0x05	; 5
 448:	48 9f       	mul	r20, r24
 44a:	b0 01       	movw	r22, r0
 44c:	11 24       	eor	r1, r1
 44e:	6e 59       	subi	r22, 0x9E	; 158
 450:	7f 4f       	sbci	r23, 0xFF	; 255
 452:	a5 e0       	ldi	r26, 0x05	; 5
 454:	2a 9f       	mul	r18, r26
 456:	a0 01       	movw	r20, r0
 458:	11 24       	eor	r1, r1
 45a:	4e 59       	subi	r20, 0x9E	; 158
 45c:	5f 4f       	sbci	r21, 0xFF	; 255
 45e:	b5 e0       	ldi	r27, 0x05	; 5
 460:	0b 9f       	mul	r16, r27
 462:	80 01       	movw	r16, r0
 464:	11 24       	eor	r1, r1
 466:	0e 59       	subi	r16, 0x9E	; 158
 468:	1f 4f       	sbci	r17, 0xFF	; 255
 46a:	e5 e0       	ldi	r30, 0x05	; 5
 46c:	ee 9e       	mul	r14, r30
 46e:	90 01       	movw	r18, r0
 470:	11 24       	eor	r1, r1
 472:	2e 59       	subi	r18, 0x9E	; 158
 474:	3f 4f       	sbci	r19, 0xFF	; 255
 476:	76 01       	movw	r14, r12
 478:	61 2c       	mov	r6, r1
 47a:	71 2c       	mov	r7, r1
 47c:	fb 01       	movw	r30, r22
 47e:	e6 0d       	add	r30, r6
 480:	f7 1d       	adc	r31, r7
 482:	e0 81       	ld	r30, Z
 484:	80 e1       	ldi	r24, 0x10	; 16
 486:	e8 9f       	mul	r30, r24
 488:	f0 01       	movw	r30, r0
 48a:	11 24       	eor	r1, r1
 48c:	ca 01       	movw	r24, r20
 48e:	86 0d       	add	r24, r6
 490:	97 1d       	adc	r25, r7
 492:	dc 01       	movw	r26, r24
 494:	8c 91       	ld	r24, X
 496:	e8 2b       	or	r30, r24
 498:	84 e0       	ldi	r24, 0x04	; 4
 49a:	ee 0f       	add	r30, r30
 49c:	ff 1f       	adc	r31, r31
 49e:	8a 95       	dec	r24
 4a0:	e1 f7       	brne	.-8      	; 0x49a <__stack+0x3b>
 4a2:	c8 01       	movw	r24, r16
 4a4:	86 0d       	add	r24, r6
 4a6:	97 1d       	adc	r25, r7
 4a8:	dc 01       	movw	r26, r24
 4aa:	8c 91       	ld	r24, X
 4ac:	e8 2b       	or	r30, r24
 4ae:	94 e0       	ldi	r25, 0x04	; 4
 4b0:	ee 0f       	add	r30, r30
 4b2:	ff 1f       	adc	r31, r31
 4b4:	9a 95       	dec	r25
 4b6:	e1 f7       	brne	.-8      	; 0x4b0 <__stack+0x51>
 4b8:	c9 01       	movw	r24, r18
 4ba:	86 0d       	add	r24, r6
 4bc:	97 1d       	adc	r25, r7
 4be:	dc 01       	movw	r26, r24
 4c0:	8c 91       	ld	r24, X
 4c2:	e8 2b       	or	r30, r24
 4c4:	d7 01       	movw	r26, r14
 4c6:	ed 93       	st	X+, r30
 4c8:	fd 93       	st	X+, r31
 4ca:	7d 01       	movw	r14, r26
 4cc:	bf ef       	ldi	r27, 0xFF	; 255
 4ce:	6b 1a       	sub	r6, r27
 4d0:	7b 0a       	sbc	r7, r27
 4d2:	e5 e0       	ldi	r30, 0x05	; 5
 4d4:	6e 16       	cp	r6, r30
 4d6:	71 04       	cpc	r7, r1
 4d8:	89 f6       	brne	.-94     	; 0x47c <__stack+0x1d>
 4da:	00 e0       	ldi	r16, 0x00	; 0
 4dc:	10 e0       	ldi	r17, 0x00	; 0
 4de:	d6 01       	movw	r26, r12
 4e0:	4d 91       	ld	r20, X+
 4e2:	5d 91       	ld	r21, X+
 4e4:	6d 01       	movw	r12, r26
 4e6:	b8 01       	movw	r22, r16
 4e8:	68 0d       	add	r22, r8
 4ea:	79 1d       	adc	r23, r9
 4ec:	c5 01       	movw	r24, r10
 4ee:	09 de       	rcall	.-1006   	; 0x102 <write_word>
 4f0:	0f 5f       	subi	r16, 0xFF	; 255
 4f2:	1f 4f       	sbci	r17, 0xFF	; 255
 4f4:	05 30       	cpi	r16, 0x05	; 5
 4f6:	11 05       	cpc	r17, r1
 4f8:	91 f7       	brne	.-28     	; 0x4de <__stack+0x7f>
 4fa:	2a 96       	adiw	r28, 0x0a	; 10
 4fc:	0f b6       	in	r0, 0x3f	; 63
 4fe:	f8 94       	cli
 500:	de bf       	out	0x3e, r29	; 62
 502:	0f be       	out	0x3f, r0	; 63
 504:	cd bf       	out	0x3d, r28	; 61
 506:	df 91       	pop	r29
 508:	cf 91       	pop	r28
 50a:	1f 91       	pop	r17
 50c:	0f 91       	pop	r16
 50e:	ff 90       	pop	r15
 510:	ef 90       	pop	r14
 512:	df 90       	pop	r13
 514:	cf 90       	pop	r12
 516:	bf 90       	pop	r11
 518:	af 90       	pop	r10
 51a:	9f 90       	pop	r9
 51c:	8f 90       	pop	r8
 51e:	7f 90       	pop	r7
 520:	6f 90       	pop	r6
 522:	08 95       	ret

00000524 <write_lnumber_xy>:
 524:	ef 92       	push	r14
 526:	ff 92       	push	r15
 528:	0f 93       	push	r16
 52a:	cf 93       	push	r28
 52c:	df 93       	push	r29
 52e:	c8 2f       	mov	r28, r24
 530:	d6 2f       	mov	r29, r22
 532:	7a 01       	movw	r14, r20
 534:	48 3e       	cpi	r20, 0xE8	; 232
 536:	83 e0       	ldi	r24, 0x03	; 3
 538:	58 07       	cpc	r21, r24
 53a:	88 f0       	brcs	.+34     	; 0x55e <write_lnumber_xy+0x3a>
 53c:	ca 01       	movw	r24, r20
 53e:	68 ee       	ldi	r22, 0xE8	; 232
 540:	73 e0       	ldi	r23, 0x03	; 3
 542:	d1 d1       	rcall	.+930    	; 0x8e6 <__udivmodhi4>
 544:	46 2f       	mov	r20, r22
 546:	a8 e1       	ldi	r26, 0x18	; 24
 548:	bc ef       	ldi	r27, 0xFC	; 252
 54a:	6a 9f       	mul	r22, r26
 54c:	f0 01       	movw	r30, r0
 54e:	6b 9f       	mul	r22, r27
 550:	f0 0d       	add	r31, r0
 552:	7a 9f       	mul	r23, r26
 554:	f0 0d       	add	r31, r0
 556:	11 24       	eor	r1, r1
 558:	ee 0e       	add	r14, r30
 55a:	ff 1e       	adc	r15, r31
 55c:	01 c0       	rjmp	.+2      	; 0x560 <write_lnumber_xy+0x3c>
 55e:	4b e0       	ldi	r20, 0x0B	; 11
 560:	84 e6       	ldi	r24, 0x64	; 100
 562:	e8 16       	cp	r14, r24
 564:	f1 04       	cpc	r15, r1
 566:	58 f0       	brcs	.+22     	; 0x57e <write_lnumber_xy+0x5a>
 568:	c7 01       	movw	r24, r14
 56a:	64 e6       	ldi	r22, 0x64	; 100
 56c:	70 e0       	ldi	r23, 0x00	; 0
 56e:	bb d1       	rcall	.+886    	; 0x8e6 <__udivmodhi4>
 570:	26 2f       	mov	r18, r22
 572:	84 e6       	ldi	r24, 0x64	; 100
 574:	68 9f       	mul	r22, r24
 576:	e0 18       	sub	r14, r0
 578:	f1 08       	sbc	r15, r1
 57a:	11 24       	eor	r1, r1
 57c:	01 c0       	rjmp	.+2      	; 0x580 <write_lnumber_xy+0x5c>
 57e:	20 e0       	ldi	r18, 0x00	; 0
 580:	8a e0       	ldi	r24, 0x0A	; 10
 582:	e8 16       	cp	r14, r24
 584:	f1 04       	cpc	r15, r1
 586:	58 f0       	brcs	.+22     	; 0x59e <write_lnumber_xy+0x7a>
 588:	c7 01       	movw	r24, r14
 58a:	6a e0       	ldi	r22, 0x0A	; 10
 58c:	70 e0       	ldi	r23, 0x00	; 0
 58e:	ab d1       	rcall	.+854    	; 0x8e6 <__udivmodhi4>
 590:	06 2f       	mov	r16, r22
 592:	8a e0       	ldi	r24, 0x0A	; 10
 594:	68 9f       	mul	r22, r24
 596:	e0 18       	sub	r14, r0
 598:	f1 08       	sbc	r15, r1
 59a:	11 24       	eor	r1, r1
 59c:	01 c0       	rjmp	.+2      	; 0x5a0 <write_lnumber_xy+0x7c>
 59e:	00 e0       	ldi	r16, 0x00	; 0
 5a0:	6d 2f       	mov	r22, r29
 5a2:	70 e0       	ldi	r23, 0x00	; 0
 5a4:	8c 2f       	mov	r24, r28
 5a6:	90 e0       	ldi	r25, 0x00	; 0
 5a8:	31 df       	rcall	.-414    	; 0x40c <write_char>
 5aa:	df 91       	pop	r29
 5ac:	cf 91       	pop	r28
 5ae:	0f 91       	pop	r16
 5b0:	ff 90       	pop	r15
 5b2:	ef 90       	pop	r14
 5b4:	08 95       	ret

000005b6 <draw_vertical_line>:
 5b6:	ef 92       	push	r14
 5b8:	ff 92       	push	r15
 5ba:	0f 93       	push	r16
 5bc:	1f 93       	push	r17
 5be:	cf 93       	push	r28
 5c0:	df 93       	push	r29
 5c2:	f8 2e       	mov	r15, r24
 5c4:	e6 2e       	mov	r14, r22
 5c6:	8a 01       	movw	r16, r20
 5c8:	c0 e0       	ldi	r28, 0x00	; 0
 5ca:	d0 e0       	ldi	r29, 0x00	; 0
 5cc:	05 c0       	rjmp	.+10     	; 0x5d8 <draw_vertical_line+0x22>
 5ce:	6e 2d       	mov	r22, r14
 5d0:	8c 2f       	mov	r24, r28
 5d2:	8f 0d       	add	r24, r15
 5d4:	b4 de       	rcall	.-664    	; 0x33e <set_pixel>
 5d6:	21 96       	adiw	r28, 0x01	; 1
 5d8:	c0 17       	cp	r28, r16
 5da:	d1 07       	cpc	r29, r17
 5dc:	c4 f3       	brlt	.-16     	; 0x5ce <draw_vertical_line+0x18>
 5de:	df 91       	pop	r29
 5e0:	cf 91       	pop	r28
 5e2:	1f 91       	pop	r17
 5e4:	0f 91       	pop	r16
 5e6:	ff 90       	pop	r15
 5e8:	ef 90       	pop	r14
 5ea:	08 95       	ret

000005ec <draw_horiz_line>:
 5ec:	ef 92       	push	r14
 5ee:	ff 92       	push	r15
 5f0:	0f 93       	push	r16
 5f2:	1f 93       	push	r17
 5f4:	cf 93       	push	r28
 5f6:	df 93       	push	r29
 5f8:	f8 2e       	mov	r15, r24
 5fa:	e6 2e       	mov	r14, r22
 5fc:	8a 01       	movw	r16, r20
 5fe:	c0 e0       	ldi	r28, 0x00	; 0
 600:	d0 e0       	ldi	r29, 0x00	; 0
 602:	05 c0       	rjmp	.+10     	; 0x60e <draw_horiz_line+0x22>
 604:	6c 2f       	mov	r22, r28
 606:	6e 0d       	add	r22, r14
 608:	8f 2d       	mov	r24, r15
 60a:	99 de       	rcall	.-718    	; 0x33e <set_pixel>
 60c:	21 96       	adiw	r28, 0x01	; 1
 60e:	c0 17       	cp	r28, r16
 610:	d1 07       	cpc	r29, r17
 612:	c4 f3       	brlt	.-16     	; 0x604 <draw_horiz_line+0x18>
 614:	df 91       	pop	r29
 616:	cf 91       	pop	r28
 618:	1f 91       	pop	r17
 61a:	0f 91       	pop	r16
 61c:	ff 90       	pop	r15
 61e:	ef 90       	pop	r14
 620:	08 95       	ret

00000622 <write_char_xy>:
 622:	af 92       	push	r10
 624:	bf 92       	push	r11
 626:	cf 92       	push	r12
 628:	df 92       	push	r13
 62a:	ef 92       	push	r14
 62c:	ff 92       	push	r15
 62e:	0f 93       	push	r16
 630:	1f 93       	push	r17
 632:	cf 93       	push	r28
 634:	df 93       	push	r29
 636:	d8 2e       	mov	r13, r24
 638:	c6 2e       	mov	r12, r22
 63a:	85 e0       	ldi	r24, 0x05	; 5
 63c:	48 9f       	mul	r20, r24
 63e:	80 01       	movw	r16, r0
 640:	11 24       	eor	r1, r1
 642:	0e 59       	subi	r16, 0x9E	; 158
 644:	1f 4f       	sbci	r17, 0xFF	; 255
 646:	c0 e0       	ldi	r28, 0x00	; 0
 648:	d0 e0       	ldi	r29, 0x00	; 0
 64a:	ac 2e       	mov	r10, r28
 64c:	ac 0c       	add	r10, r12
 64e:	f8 01       	movw	r30, r16
 650:	ec 0f       	add	r30, r28
 652:	fd 1f       	adc	r31, r29
 654:	b0 80       	ld	r11, Z
 656:	48 e0       	ldi	r20, 0x08	; 8
 658:	e4 2e       	mov	r14, r20
 65a:	f1 2c       	mov	r15, r1
 65c:	8f 2d       	mov	r24, r15
 65e:	8d 0d       	add	r24, r13
 660:	9e 2d       	mov	r25, r14
 662:	9b 21       	and	r25, r11
 664:	11 f0       	breq	.+4      	; 0x66a <write_char_xy+0x48>
 666:	6a 2d       	mov	r22, r10
 668:	6a de       	rcall	.-812    	; 0x33e <set_pixel>
 66a:	e6 94       	lsr	r14
 66c:	f3 94       	inc	r15
 66e:	83 e0       	ldi	r24, 0x03	; 3
 670:	f8 12       	cpse	r15, r24
 672:	f4 cf       	rjmp	.-24     	; 0x65c <write_char_xy+0x3a>
 674:	21 96       	adiw	r28, 0x01	; 1
 676:	c5 30       	cpi	r28, 0x05	; 5
 678:	d1 05       	cpc	r29, r1
 67a:	39 f7       	brne	.-50     	; 0x64a <write_char_xy+0x28>
 67c:	df 91       	pop	r29
 67e:	cf 91       	pop	r28
 680:	1f 91       	pop	r17
 682:	0f 91       	pop	r16
 684:	ff 90       	pop	r15
 686:	ef 90       	pop	r14
 688:	df 90       	pop	r13
 68a:	cf 90       	pop	r12
 68c:	bf 90       	pop	r11
 68e:	af 90       	pop	r10
 690:	08 95       	ret

00000692 <write_gnumber_xy>:
 692:	ef 92       	push	r14
 694:	ff 92       	push	r15
 696:	0f 93       	push	r16
 698:	1f 93       	push	r17
 69a:	cf 93       	push	r28
 69c:	df 93       	push	r29
 69e:	18 2f       	mov	r17, r24
 6a0:	06 2f       	mov	r16, r22
 6a2:	ea 01       	movw	r28, r20
 6a4:	48 3e       	cpi	r20, 0xE8	; 232
 6a6:	83 e0       	ldi	r24, 0x03	; 3
 6a8:	58 07       	cpc	r21, r24
 6aa:	88 f0       	brcs	.+34     	; 0x6ce <write_gnumber_xy+0x3c>
 6ac:	ca 01       	movw	r24, r20
 6ae:	68 ee       	ldi	r22, 0xE8	; 232
 6b0:	73 e0       	ldi	r23, 0x03	; 3
 6b2:	19 d1       	rcall	.+562    	; 0x8e6 <__udivmodhi4>
 6b4:	46 2f       	mov	r20, r22
 6b6:	a8 e1       	ldi	r26, 0x18	; 24
 6b8:	bc ef       	ldi	r27, 0xFC	; 252
 6ba:	6a 9f       	mul	r22, r26
 6bc:	f0 01       	movw	r30, r0
 6be:	6b 9f       	mul	r22, r27
 6c0:	f0 0d       	add	r31, r0
 6c2:	7a 9f       	mul	r23, r26
 6c4:	f0 0d       	add	r31, r0
 6c6:	11 24       	eor	r1, r1
 6c8:	ce 0f       	add	r28, r30
 6ca:	df 1f       	adc	r29, r31
 6cc:	01 c0       	rjmp	.+2      	; 0x6d0 <write_gnumber_xy+0x3e>
 6ce:	4b e0       	ldi	r20, 0x0B	; 11
 6d0:	c4 36       	cpi	r28, 0x64	; 100
 6d2:	d1 05       	cpc	r29, r1
 6d4:	58 f0       	brcs	.+22     	; 0x6ec <write_gnumber_xy+0x5a>
 6d6:	ce 01       	movw	r24, r28
 6d8:	64 e6       	ldi	r22, 0x64	; 100
 6da:	70 e0       	ldi	r23, 0x00	; 0
 6dc:	04 d1       	rcall	.+520    	; 0x8e6 <__udivmodhi4>
 6de:	f6 2e       	mov	r15, r22
 6e0:	84 e6       	ldi	r24, 0x64	; 100
 6e2:	68 9f       	mul	r22, r24
 6e4:	c0 19       	sub	r28, r0
 6e6:	d1 09       	sbc	r29, r1
 6e8:	11 24       	eor	r1, r1
 6ea:	01 c0       	rjmp	.+2      	; 0x6ee <write_gnumber_xy+0x5c>
 6ec:	f1 2c       	mov	r15, r1
 6ee:	ca 30       	cpi	r28, 0x0A	; 10
 6f0:	d1 05       	cpc	r29, r1
 6f2:	58 f0       	brcs	.+22     	; 0x70a <write_gnumber_xy+0x78>
 6f4:	ce 01       	movw	r24, r28
 6f6:	6a e0       	ldi	r22, 0x0A	; 10
 6f8:	70 e0       	ldi	r23, 0x00	; 0
 6fa:	f5 d0       	rcall	.+490    	; 0x8e6 <__udivmodhi4>
 6fc:	e6 2e       	mov	r14, r22
 6fe:	8a e0       	ldi	r24, 0x0A	; 10
 700:	68 9f       	mul	r22, r24
 702:	c0 19       	sub	r28, r0
 704:	d1 09       	sbc	r29, r1
 706:	11 24       	eor	r1, r1
 708:	01 c0       	rjmp	.+2      	; 0x70c <write_gnumber_xy+0x7a>
 70a:	e1 2c       	mov	r14, r1
 70c:	60 2f       	mov	r22, r16
 70e:	81 2f       	mov	r24, r17
 710:	88 df       	rcall	.-240    	; 0x622 <write_char_xy>
 712:	4f 2d       	mov	r20, r15
 714:	60 2f       	mov	r22, r16
 716:	81 2f       	mov	r24, r17
 718:	8c 5f       	subi	r24, 0xFC	; 252
 71a:	83 df       	rcall	.-250    	; 0x622 <write_char_xy>
 71c:	4e 2d       	mov	r20, r14
 71e:	60 2f       	mov	r22, r16
 720:	81 2f       	mov	r24, r17
 722:	88 5f       	subi	r24, 0xF8	; 248
 724:	7e df       	rcall	.-260    	; 0x622 <write_char_xy>
 726:	4c 2f       	mov	r20, r28
 728:	60 2f       	mov	r22, r16
 72a:	81 2f       	mov	r24, r17
 72c:	84 5f       	subi	r24, 0xF4	; 244
 72e:	df 91       	pop	r29
 730:	cf 91       	pop	r28
 732:	1f 91       	pop	r17
 734:	0f 91       	pop	r16
 736:	ff 90       	pop	r15
 738:	ef 90       	pop	r14
 73a:	73 cf       	rjmp	.-282    	; 0x622 <write_char_xy>

0000073c <main>:
 73c:	bf 92       	push	r11
 73e:	cf 92       	push	r12
 740:	df 92       	push	r13
 742:	ef 92       	push	r14
 744:	ff 92       	push	r15
 746:	0f 93       	push	r16
 748:	1f 93       	push	r17
 74a:	cf 93       	push	r28
 74c:	df 93       	push	r29
 74e:	cd b7       	in	r28, 0x3d	; 61
 750:	de b7       	in	r29, 0x3e	; 62
 752:	c0 54       	subi	r28, 0x40	; 64
 754:	d1 09       	sbc	r29, r1
 756:	0f b6       	in	r0, 0x3f	; 63
 758:	f8 94       	cli
 75a:	de bf       	out	0x3e, r29	; 62
 75c:	0f be       	out	0x3f, r0	; 63
 75e:	cd bf       	out	0x3d, r28	; 61
 760:	80 e1       	ldi	r24, 0x10	; 16
 762:	e2 ea       	ldi	r30, 0xA2	; 162
 764:	f0 e0       	ldi	r31, 0x00	; 0
 766:	de 01       	movw	r26, r28
 768:	d1 96       	adiw	r26, 0x31	; 49
 76a:	01 90       	ld	r0, Z+
 76c:	0d 92       	st	X+, r0
 76e:	8a 95       	dec	r24
 770:	e1 f7       	brne	.-8      	; 0x76a <main+0x2e>
 772:	80 e1       	ldi	r24, 0x10	; 16
 774:	e3 eb       	ldi	r30, 0xB3	; 179
 776:	f0 e0       	ldi	r31, 0x00	; 0
 778:	de 01       	movw	r26, r28
 77a:	91 96       	adiw	r26, 0x21	; 33
 77c:	01 90       	ld	r0, Z+
 77e:	0d 92       	st	X+, r0
 780:	8a 95       	dec	r24
 782:	e1 f7       	brne	.-8      	; 0x77c <main+0x40>
 784:	80 e1       	ldi	r24, 0x10	; 16
 786:	e4 ec       	ldi	r30, 0xC4	; 196
 788:	f0 e0       	ldi	r31, 0x00	; 0
 78a:	de 01       	movw	r26, r28
 78c:	51 96       	adiw	r26, 0x11	; 17
 78e:	01 90       	ld	r0, Z+
 790:	0d 92       	st	X+, r0
 792:	8a 95       	dec	r24
 794:	e1 f7       	brne	.-8      	; 0x78e <main+0x52>
 796:	80 e1       	ldi	r24, 0x10	; 16
 798:	e5 ed       	ldi	r30, 0xD5	; 213
 79a:	f0 e0       	ldi	r31, 0x00	; 0
 79c:	de 01       	movw	r26, r28
 79e:	11 96       	adiw	r26, 0x01	; 1
 7a0:	01 90       	ld	r0, Z+
 7a2:	0d 92       	st	X+, r0
 7a4:	8a 95       	dec	r24
 7a6:	e1 f7       	brne	.-8      	; 0x7a0 <main+0x64>
 7a8:	8f ef       	ldi	r24, 0xFF	; 255
 7aa:	87 bb       	out	0x17, r24	; 23
 7ac:	18 ba       	out	0x18, r1	; 24
 7ae:	87 e0       	ldi	r24, 0x07	; 7
 7b0:	84 bb       	out	0x14, r24	; 20
 7b2:	15 ba       	out	0x15, r1	; 21
 7b4:	cc dc       	rcall	.-1640   	; 0x14e <clcd_init>
 7b6:	7a dd       	rcall	.-1292   	; 0x2ac <cdisplay_clear>
 7b8:	8e 01       	movw	r16, r28
 7ba:	0f 5c       	subi	r16, 0xCF	; 207
 7bc:	1f 4f       	sbci	r17, 0xFF	; 255
 7be:	78 01       	movw	r14, r16
 7c0:	20 e1       	ldi	r18, 0x10	; 16
 7c2:	e2 0e       	add	r14, r18
 7c4:	f1 1c       	adc	r15, r1
 7c6:	f8 01       	movw	r30, r16
 7c8:	81 91       	ld	r24, Z+
 7ca:	8f 01       	movw	r16, r30
 7cc:	0d dd       	rcall	.-1510   	; 0x1e8 <write_data>
 7ce:	0e 15       	cp	r16, r14
 7d0:	1f 05       	cpc	r17, r15
 7d2:	c9 f7       	brne	.-14     	; 0x7c6 <main+0x8a>
 7d4:	8e 01       	movw	r16, r28
 7d6:	0f 5e       	subi	r16, 0xEF	; 239
 7d8:	1f 4f       	sbci	r17, 0xFF	; 255
 7da:	7e 01       	movw	r14, r28
 7dc:	f1 e2       	ldi	r31, 0x21	; 33
 7de:	ef 0e       	add	r14, r31
 7e0:	f1 1c       	adc	r15, r1
 7e2:	f8 01       	movw	r30, r16
 7e4:	81 91       	ld	r24, Z+
 7e6:	8f 01       	movw	r16, r30
 7e8:	ff dc       	rcall	.-1538   	; 0x1e8 <write_data>
 7ea:	0e 15       	cp	r16, r14
 7ec:	1f 05       	cpc	r17, r15
 7ee:	c9 f7       	brne	.-14     	; 0x7e2 <main+0xa6>
 7f0:	8e 01       	movw	r16, r28
 7f2:	0f 5d       	subi	r16, 0xDF	; 223
 7f4:	1f 4f       	sbci	r17, 0xFF	; 255
 7f6:	7e 01       	movw	r14, r28
 7f8:	f1 e3       	ldi	r31, 0x31	; 49
 7fa:	ef 0e       	add	r14, r31
 7fc:	f1 1c       	adc	r15, r1
 7fe:	f8 01       	movw	r30, r16
 800:	81 91       	ld	r24, Z+
 802:	8f 01       	movw	r16, r30
 804:	f1 dc       	rcall	.-1566   	; 0x1e8 <write_data>
 806:	0e 15       	cp	r16, r14
 808:	1f 05       	cpc	r17, r15
 80a:	c9 f7       	brne	.-14     	; 0x7fe <main+0xc2>
 80c:	8e 01       	movw	r16, r28
 80e:	0f 5f       	subi	r16, 0xFF	; 255
 810:	1f 4f       	sbci	r17, 0xFF	; 255
 812:	7e 01       	movw	r14, r28
 814:	f1 e1       	ldi	r31, 0x11	; 17
 816:	ef 0e       	add	r14, r31
 818:	f1 1c       	adc	r15, r1
 81a:	f8 01       	movw	r30, r16
 81c:	81 91       	ld	r24, Z+
 81e:	8f 01       	movw	r16, r30
 820:	e3 dc       	rcall	.-1594   	; 0x1e8 <write_data>
 822:	0e 15       	cp	r16, r14
 824:	1f 05       	cpc	r17, r15
 826:	c9 f7       	brne	.-14     	; 0x81a <main+0xde>
 828:	ff ef       	ldi	r31, 0xFF	; 255
 82a:	2d e3       	ldi	r18, 0x3D	; 61
 82c:	89 e4       	ldi	r24, 0x49	; 73
 82e:	f1 50       	subi	r31, 0x01	; 1
 830:	20 40       	sbci	r18, 0x00	; 0
 832:	80 40       	sbci	r24, 0x00	; 0
 834:	e1 f7       	brne	.-8      	; 0x82e <main+0xf2>
 836:	00 c0       	rjmp	.+0      	; 0x838 <main+0xfc>
 838:	00 00       	nop
 83a:	38 dd       	rcall	.-1424   	; 0x2ac <cdisplay_clear>
 83c:	bb dc       	rcall	.-1674   	; 0x1b4 <glcd_enable>
 83e:	80 e0       	ldi	r24, 0x00	; 0
 840:	90 e0       	ldi	r25, 0x00	; 0
 842:	5b dd       	rcall	.-1354   	; 0x2fa <glcd_fill>
 844:	40 e0       	ldi	r20, 0x00	; 0
 846:	6b e3       	ldi	r22, 0x3B	; 59
 848:	87 e0       	ldi	r24, 0x07	; 7
 84a:	eb de       	rcall	.-554    	; 0x622 <write_char_xy>
 84c:	44 e6       	ldi	r20, 0x64	; 100
 84e:	50 e0       	ldi	r21, 0x00	; 0
 850:	6b e3       	ldi	r22, 0x3B	; 59
 852:	81 e7       	ldi	r24, 0x71	; 113
 854:	1e df       	rcall	.-452    	; 0x692 <write_gnumber_xy>
 856:	49 e0       	ldi	r20, 0x09	; 9
 858:	60 e0       	ldi	r22, 0x00	; 0
 85a:	80 e0       	ldi	r24, 0x00	; 0
 85c:	e2 de       	rcall	.-572    	; 0x622 <write_char_xy>
 85e:	40 e0       	ldi	r20, 0x00	; 0
 860:	65 e3       	ldi	r22, 0x35	; 53
 862:	80 e0       	ldi	r24, 0x00	; 0
 864:	de de       	rcall	.-580    	; 0x622 <write_char_xy>
 866:	49 e7       	ldi	r20, 0x79	; 121
 868:	50 e0       	ldi	r21, 0x00	; 0
 86a:	69 e3       	ldi	r22, 0x39	; 57
 86c:	70 e0       	ldi	r23, 0x00	; 0
 86e:	86 e0       	ldi	r24, 0x06	; 6
 870:	90 e0       	ldi	r25, 0x00	; 0
 872:	a1 de       	rcall	.-702    	; 0x5b6 <draw_vertical_line>
 874:	49 e3       	ldi	r20, 0x39	; 57
 876:	50 e0       	ldi	r21, 0x00	; 0
 878:	60 e0       	ldi	r22, 0x00	; 0
 87a:	70 e0       	ldi	r23, 0x00	; 0
 87c:	86 e0       	ldi	r24, 0x06	; 6
 87e:	90 e0       	ldi	r25, 0x00	; 0
 880:	b5 de       	rcall	.-662    	; 0x5ec <draw_horiz_line>
 882:	57 e0       	ldi	r21, 0x07	; 7
 884:	b5 2e       	mov	r11, r21
 886:	00 e2       	ldi	r16, 0x20	; 32
 888:	10 e0       	ldi	r17, 0x00	; 0
 88a:	63 e0       	ldi	r22, 0x03	; 3
 88c:	c6 2e       	mov	r12, r22
 88e:	d1 2c       	mov	r13, r1
 890:	9e d0       	rcall	.+316    	; 0x9ce <rand>
 892:	b6 01       	movw	r22, r12
 894:	3c d0       	rcall	.+120    	; 0x90e <__divmodhi4>
 896:	7c 01       	movw	r14, r24
 898:	60 2f       	mov	r22, r16
 89a:	8b 2d       	mov	r24, r11
 89c:	50 dd       	rcall	.-1376   	; 0x33e <set_pixel>
 89e:	91 e0       	ldi	r25, 0x01	; 1
 8a0:	e9 16       	cp	r14, r25
 8a2:	f1 04       	cpc	r15, r1
 8a4:	19 f4       	brne	.+6      	; 0x8ac <main+0x170>
 8a6:	01 50       	subi	r16, 0x01	; 1
 8a8:	11 09       	sbc	r17, r1
 8aa:	06 c0       	rjmp	.+12     	; 0x8b8 <main+0x17c>
 8ac:	e2 e0       	ldi	r30, 0x02	; 2
 8ae:	ee 16       	cp	r14, r30
 8b0:	f1 04       	cpc	r15, r1
 8b2:	11 f4       	brne	.+4      	; 0x8b8 <main+0x17c>
 8b4:	0f 5f       	subi	r16, 0xFF	; 255
 8b6:	1f 4f       	sbci	r17, 0xFF	; 255
 8b8:	b3 94       	inc	r11
 8ba:	f0 e8       	ldi	r31, 0x80	; 128
 8bc:	bf 12       	cpse	r11, r31
 8be:	e8 cf       	rjmp	.-48     	; 0x890 <main+0x154>
 8c0:	80 e0       	ldi	r24, 0x00	; 0
 8c2:	90 e0       	ldi	r25, 0x00	; 0
 8c4:	c0 5c       	subi	r28, 0xC0	; 192
 8c6:	df 4f       	sbci	r29, 0xFF	; 255
 8c8:	0f b6       	in	r0, 0x3f	; 63
 8ca:	f8 94       	cli
 8cc:	de bf       	out	0x3e, r29	; 62
 8ce:	0f be       	out	0x3f, r0	; 63
 8d0:	cd bf       	out	0x3d, r28	; 61
 8d2:	df 91       	pop	r29
 8d4:	cf 91       	pop	r28
 8d6:	1f 91       	pop	r17
 8d8:	0f 91       	pop	r16
 8da:	ff 90       	pop	r15
 8dc:	ef 90       	pop	r14
 8de:	df 90       	pop	r13
 8e0:	cf 90       	pop	r12
 8e2:	bf 90       	pop	r11
 8e4:	08 95       	ret

000008e6 <__udivmodhi4>:
 8e6:	aa 1b       	sub	r26, r26
 8e8:	bb 1b       	sub	r27, r27
 8ea:	51 e1       	ldi	r21, 0x11	; 17
 8ec:	07 c0       	rjmp	.+14     	; 0x8fc <__udivmodhi4_ep>

000008ee <__udivmodhi4_loop>:
 8ee:	aa 1f       	adc	r26, r26
 8f0:	bb 1f       	adc	r27, r27
 8f2:	a6 17       	cp	r26, r22
 8f4:	b7 07       	cpc	r27, r23
 8f6:	10 f0       	brcs	.+4      	; 0x8fc <__udivmodhi4_ep>
 8f8:	a6 1b       	sub	r26, r22
 8fa:	b7 0b       	sbc	r27, r23

000008fc <__udivmodhi4_ep>:
 8fc:	88 1f       	adc	r24, r24
 8fe:	99 1f       	adc	r25, r25
 900:	5a 95       	dec	r21
 902:	a9 f7       	brne	.-22     	; 0x8ee <__udivmodhi4_loop>
 904:	80 95       	com	r24
 906:	90 95       	com	r25
 908:	bc 01       	movw	r22, r24
 90a:	cd 01       	movw	r24, r26
 90c:	08 95       	ret

0000090e <__divmodhi4>:
 90e:	97 fb       	bst	r25, 7
 910:	07 2e       	mov	r0, r23
 912:	16 f4       	brtc	.+4      	; 0x918 <__divmodhi4+0xa>
 914:	00 94       	com	r0
 916:	06 d0       	rcall	.+12     	; 0x924 <__divmodhi4_neg1>
 918:	77 fd       	sbrc	r23, 7
 91a:	08 d0       	rcall	.+16     	; 0x92c <__divmodhi4_neg2>
 91c:	e4 df       	rcall	.-56     	; 0x8e6 <__udivmodhi4>
 91e:	07 fc       	sbrc	r0, 7
 920:	05 d0       	rcall	.+10     	; 0x92c <__divmodhi4_neg2>
 922:	3e f4       	brtc	.+14     	; 0x932 <__divmodhi4_exit>

00000924 <__divmodhi4_neg1>:
 924:	90 95       	com	r25
 926:	81 95       	neg	r24
 928:	9f 4f       	sbci	r25, 0xFF	; 255
 92a:	08 95       	ret

0000092c <__divmodhi4_neg2>:
 92c:	70 95       	com	r23
 92e:	61 95       	neg	r22
 930:	7f 4f       	sbci	r23, 0xFF	; 255

00000932 <__divmodhi4_exit>:
 932:	08 95       	ret

00000934 <do_rand>:
 934:	8f 92       	push	r8
 936:	9f 92       	push	r9
 938:	af 92       	push	r10
 93a:	bf 92       	push	r11
 93c:	cf 92       	push	r12
 93e:	df 92       	push	r13
 940:	ef 92       	push	r14
 942:	ff 92       	push	r15
 944:	cf 93       	push	r28
 946:	df 93       	push	r29
 948:	ec 01       	movw	r28, r24
 94a:	68 81       	ld	r22, Y
 94c:	79 81       	ldd	r23, Y+1	; 0x01
 94e:	8a 81       	ldd	r24, Y+2	; 0x02
 950:	9b 81       	ldd	r25, Y+3	; 0x03
 952:	61 15       	cp	r22, r1
 954:	71 05       	cpc	r23, r1
 956:	81 05       	cpc	r24, r1
 958:	91 05       	cpc	r25, r1
 95a:	21 f4       	brne	.+8      	; 0x964 <do_rand+0x30>
 95c:	64 e2       	ldi	r22, 0x24	; 36
 95e:	79 ed       	ldi	r23, 0xD9	; 217
 960:	8b e5       	ldi	r24, 0x5B	; 91
 962:	97 e0       	ldi	r25, 0x07	; 7
 964:	2d e1       	ldi	r18, 0x1D	; 29
 966:	33 ef       	ldi	r19, 0xF3	; 243
 968:	41 e0       	ldi	r20, 0x01	; 1
 96a:	50 e0       	ldi	r21, 0x00	; 0
 96c:	4f d0       	rcall	.+158    	; 0xa0c <__divmodsi4>
 96e:	49 01       	movw	r8, r18
 970:	5a 01       	movw	r10, r20
 972:	9b 01       	movw	r18, r22
 974:	ac 01       	movw	r20, r24
 976:	a7 ea       	ldi	r26, 0xA7	; 167
 978:	b1 e4       	ldi	r27, 0x41	; 65
 97a:	38 d0       	rcall	.+112    	; 0x9ec <__muluhisi3>
 97c:	6b 01       	movw	r12, r22
 97e:	7c 01       	movw	r14, r24
 980:	ac ee       	ldi	r26, 0xEC	; 236
 982:	b4 ef       	ldi	r27, 0xF4	; 244
 984:	a5 01       	movw	r20, r10
 986:	94 01       	movw	r18, r8
 988:	3d d0       	rcall	.+122    	; 0xa04 <__mulohisi3>
 98a:	c6 0e       	add	r12, r22
 98c:	d7 1e       	adc	r13, r23
 98e:	e8 1e       	adc	r14, r24
 990:	f9 1e       	adc	r15, r25
 992:	f7 fe       	sbrs	r15, 7
 994:	06 c0       	rjmp	.+12     	; 0x9a2 <do_rand+0x6e>
 996:	81 e0       	ldi	r24, 0x01	; 1
 998:	c8 1a       	sub	r12, r24
 99a:	d1 08       	sbc	r13, r1
 99c:	e1 08       	sbc	r14, r1
 99e:	80 e8       	ldi	r24, 0x80	; 128
 9a0:	f8 0a       	sbc	r15, r24
 9a2:	c8 82       	st	Y, r12
 9a4:	d9 82       	std	Y+1, r13	; 0x01
 9a6:	ea 82       	std	Y+2, r14	; 0x02
 9a8:	fb 82       	std	Y+3, r15	; 0x03
 9aa:	e8 94       	clt
 9ac:	d7 f8       	bld	r13, 7
 9ae:	ee 24       	eor	r14, r14
 9b0:	ff 24       	eor	r15, r15
 9b2:	c6 01       	movw	r24, r12
 9b4:	df 91       	pop	r29
 9b6:	cf 91       	pop	r28
 9b8:	ff 90       	pop	r15
 9ba:	ef 90       	pop	r14
 9bc:	df 90       	pop	r13
 9be:	cf 90       	pop	r12
 9c0:	bf 90       	pop	r11
 9c2:	af 90       	pop	r10
 9c4:	9f 90       	pop	r9
 9c6:	8f 90       	pop	r8
 9c8:	08 95       	ret

000009ca <rand_r>:
 9ca:	b4 df       	rcall	.-152    	; 0x934 <do_rand>
 9cc:	08 95       	ret

000009ce <rand>:
 9ce:	8e e9       	ldi	r24, 0x9E	; 158
 9d0:	90 e0       	ldi	r25, 0x00	; 0
 9d2:	b0 df       	rcall	.-160    	; 0x934 <do_rand>
 9d4:	08 95       	ret

000009d6 <srand>:
 9d6:	a0 e0       	ldi	r26, 0x00	; 0
 9d8:	b0 e0       	ldi	r27, 0x00	; 0
 9da:	80 93 9e 00 	sts	0x009E, r24
 9de:	90 93 9f 00 	sts	0x009F, r25
 9e2:	a0 93 a0 00 	sts	0x00A0, r26
 9e6:	b0 93 a1 00 	sts	0x00A1, r27
 9ea:	08 95       	ret

000009ec <__muluhisi3>:
 9ec:	2a d0       	rcall	.+84     	; 0xa42 <__umulhisi3>
 9ee:	a5 9f       	mul	r26, r21
 9f0:	90 0d       	add	r25, r0
 9f2:	b4 9f       	mul	r27, r20
 9f4:	90 0d       	add	r25, r0
 9f6:	a4 9f       	mul	r26, r20
 9f8:	80 0d       	add	r24, r0
 9fa:	91 1d       	adc	r25, r1
 9fc:	11 24       	eor	r1, r1
 9fe:	08 95       	ret

00000a00 <__mulshisi3>:
 a00:	b7 ff       	sbrs	r27, 7
 a02:	f4 cf       	rjmp	.-24     	; 0x9ec <__muluhisi3>

00000a04 <__mulohisi3>:
 a04:	f3 df       	rcall	.-26     	; 0x9ec <__muluhisi3>
 a06:	82 1b       	sub	r24, r18
 a08:	93 0b       	sbc	r25, r19
 a0a:	08 95       	ret

00000a0c <__divmodsi4>:
 a0c:	05 2e       	mov	r0, r21
 a0e:	97 fb       	bst	r25, 7
 a10:	16 f4       	brtc	.+4      	; 0xa16 <__divmodsi4+0xa>
 a12:	00 94       	com	r0
 a14:	06 d0       	rcall	.+12     	; 0xa22 <__divmodsi4_neg1>
 a16:	57 fd       	sbrc	r21, 7
 a18:	0c d0       	rcall	.+24     	; 0xa32 <__divmodsi4_neg2>
 a1a:	1f d0       	rcall	.+62     	; 0xa5a <__udivmodsi4>
 a1c:	07 fc       	sbrc	r0, 7
 a1e:	09 d0       	rcall	.+18     	; 0xa32 <__divmodsi4_neg2>
 a20:	7e f4       	brtc	.+30     	; 0xa40 <__divmodsi4_exit>

00000a22 <__divmodsi4_neg1>:
 a22:	90 95       	com	r25
 a24:	80 95       	com	r24
 a26:	70 95       	com	r23
 a28:	61 95       	neg	r22
 a2a:	7f 4f       	sbci	r23, 0xFF	; 255
 a2c:	8f 4f       	sbci	r24, 0xFF	; 255
 a2e:	9f 4f       	sbci	r25, 0xFF	; 255
 a30:	08 95       	ret

00000a32 <__divmodsi4_neg2>:
 a32:	50 95       	com	r21
 a34:	40 95       	com	r20
 a36:	30 95       	com	r19
 a38:	21 95       	neg	r18
 a3a:	3f 4f       	sbci	r19, 0xFF	; 255
 a3c:	4f 4f       	sbci	r20, 0xFF	; 255
 a3e:	5f 4f       	sbci	r21, 0xFF	; 255

00000a40 <__divmodsi4_exit>:
 a40:	08 95       	ret

00000a42 <__umulhisi3>:
 a42:	a2 9f       	mul	r26, r18
 a44:	b0 01       	movw	r22, r0
 a46:	b3 9f       	mul	r27, r19
 a48:	c0 01       	movw	r24, r0
 a4a:	a3 9f       	mul	r26, r19
 a4c:	01 d0       	rcall	.+2      	; 0xa50 <__umulhisi3+0xe>
 a4e:	b2 9f       	mul	r27, r18
 a50:	70 0d       	add	r23, r0
 a52:	81 1d       	adc	r24, r1
 a54:	11 24       	eor	r1, r1
 a56:	91 1d       	adc	r25, r1
 a58:	08 95       	ret

00000a5a <__udivmodsi4>:
 a5a:	a1 e2       	ldi	r26, 0x21	; 33
 a5c:	1a 2e       	mov	r1, r26
 a5e:	aa 1b       	sub	r26, r26
 a60:	bb 1b       	sub	r27, r27
 a62:	fd 01       	movw	r30, r26
 a64:	0d c0       	rjmp	.+26     	; 0xa80 <__udivmodsi4_ep>

00000a66 <__udivmodsi4_loop>:
 a66:	aa 1f       	adc	r26, r26
 a68:	bb 1f       	adc	r27, r27
 a6a:	ee 1f       	adc	r30, r30
 a6c:	ff 1f       	adc	r31, r31
 a6e:	a2 17       	cp	r26, r18
 a70:	b3 07       	cpc	r27, r19
 a72:	e4 07       	cpc	r30, r20
 a74:	f5 07       	cpc	r31, r21
 a76:	20 f0       	brcs	.+8      	; 0xa80 <__udivmodsi4_ep>
 a78:	a2 1b       	sub	r26, r18
 a7a:	b3 0b       	sbc	r27, r19
 a7c:	e4 0b       	sbc	r30, r20
 a7e:	f5 0b       	sbc	r31, r21

00000a80 <__udivmodsi4_ep>:
 a80:	66 1f       	adc	r22, r22
 a82:	77 1f       	adc	r23, r23
 a84:	88 1f       	adc	r24, r24
 a86:	99 1f       	adc	r25, r25
 a88:	1a 94       	dec	r1
 a8a:	69 f7       	brne	.-38     	; 0xa66 <__udivmodsi4_loop>
 a8c:	60 95       	com	r22
 a8e:	70 95       	com	r23
 a90:	80 95       	com	r24
 a92:	90 95       	com	r25
 a94:	9b 01       	movw	r18, r22
 a96:	ac 01       	movw	r20, r24
 a98:	bd 01       	movw	r22, r26
 a9a:	cf 01       	movw	r24, r30
 a9c:	08 95       	ret

00000a9e <_exit>:
 a9e:	f8 94       	cli

00000aa0 <__stop_program>:
 aa0:	ff cf       	rjmp	.-2      	; 0xaa0 <__stop_program>
