
;CodeVisionAVR C Compiler V2.05.3 Standard
;(C) Copyright 1998-2011 Pavel Haiduc, HP InfoTech s.r.l.
;http://www.hpinfotech.com

;Chip type                : ATmega16
;Program type             : Application
;Clock frequency          : 12.000000 MHz
;Memory model             : Small
;Optimize for             : Size
;(s)printf features       : int, width
;(s)scanf features        : int, width
;External RAM size        : 0
;Data Stack size          : 256 byte(s)
;Heap size                : 0 byte(s)
;Promote 'char' to 'int'  : Yes
;'char' is unsigned       : Yes
;8 bit enums              : Yes
;Global 'const' stored in FLASH     : No
;Enhanced function parameter passing: Yes
;Enhanced core instructions         : On
;Smart register allocation          : On
;Automatic register allocation      : On

	#pragma AVRPART ADMIN PART_NAME ATmega16
	#pragma AVRPART MEMORY PROG_FLASH 16384
	#pragma AVRPART MEMORY EEPROM 512
	#pragma AVRPART MEMORY INT_SRAM SIZE 1119
	#pragma AVRPART MEMORY INT_SRAM START_ADDR 0x60

	#define CALL_SUPPORTED 1

	.LISTMAC
	.EQU UDRE=0x5
	.EQU RXC=0x7
	.EQU USR=0xB
	.EQU UDR=0xC
	.EQU SPSR=0xE
	.EQU SPDR=0xF
	.EQU EERE=0x0
	.EQU EEWE=0x1
	.EQU EEMWE=0x2
	.EQU EECR=0x1C
	.EQU EEDR=0x1D
	.EQU EEARL=0x1E
	.EQU EEARH=0x1F
	.EQU WDTCR=0x21
	.EQU MCUCR=0x35
	.EQU GICR=0x3B
	.EQU SPL=0x3D
	.EQU SPH=0x3E
	.EQU SREG=0x3F

	.DEF R0X0=R0
	.DEF R0X1=R1
	.DEF R0X2=R2
	.DEF R0X3=R3
	.DEF R0X4=R4
	.DEF R0X5=R5
	.DEF R0X6=R6
	.DEF R0X7=R7
	.DEF R0X8=R8
	.DEF R0X9=R9
	.DEF R0XA=R10
	.DEF R0XB=R11
	.DEF R0XC=R12
	.DEF R0XD=R13
	.DEF R0XE=R14
	.DEF R0XF=R15
	.DEF R0X10=R16
	.DEF R0X11=R17
	.DEF R0X12=R18
	.DEF R0X13=R19
	.DEF R0X14=R20
	.DEF R0X15=R21
	.DEF R0X16=R22
	.DEF R0X17=R23
	.DEF R0X18=R24
	.DEF R0X19=R25
	.DEF R0X1A=R26
	.DEF R0X1B=R27
	.DEF R0X1C=R28
	.DEF R0X1D=R29
	.DEF R0X1E=R30
	.DEF R0X1F=R31

	.EQU __SRAM_START=0x0060
	.EQU __SRAM_END=0x045F
	.EQU __DSTACK_SIZE=0x0100
	.EQU __HEAP_SIZE=0x0000
	.EQU __CLEAR_SRAM_SIZE=__SRAM_END-__SRAM_START+1

	.MACRO __CPD1N
	CPI  R30,LOW(@0)
	LDI  R26,HIGH(@0)
	CPC  R31,R26
	LDI  R26,BYTE3(@0)
	CPC  R22,R26
	LDI  R26,BYTE4(@0)
	CPC  R23,R26
	.ENDM

	.MACRO __CPD2N
	CPI  R26,LOW(@0)
	LDI  R30,HIGH(@0)
	CPC  R27,R30
	LDI  R30,BYTE3(@0)
	CPC  R24,R30
	LDI  R30,BYTE4(@0)
	CPC  R25,R30
	.ENDM

	.MACRO __CPWRR
	CP   R@0,R@2
	CPC  R@1,R@3
	.ENDM

	.MACRO __CPWRN
	CPI  R@0,LOW(@2)
	LDI  R30,HIGH(@2)
	CPC  R@1,R30
	.ENDM

	.MACRO __ADDB1MN
	SUBI R30,LOW(-@0-(@1))
	.ENDM

	.MACRO __ADDB2MN
	SUBI R26,LOW(-@0-(@1))
	.ENDM

	.MACRO __ADDW1MN
	SUBI R30,LOW(-@0-(@1))
	SBCI R31,HIGH(-@0-(@1))
	.ENDM

	.MACRO __ADDW2MN
	SUBI R26,LOW(-@0-(@1))
	SBCI R27,HIGH(-@0-(@1))
	.ENDM

	.MACRO __ADDW1FN
	SUBI R30,LOW(-2*@0-(@1))
	SBCI R31,HIGH(-2*@0-(@1))
	.ENDM

	.MACRO __ADDD1FN
	SUBI R30,LOW(-2*@0-(@1))
	SBCI R31,HIGH(-2*@0-(@1))
	SBCI R22,BYTE3(-2*@0-(@1))
	.ENDM

	.MACRO __ADDD1N
	SUBI R30,LOW(-@0)
	SBCI R31,HIGH(-@0)
	SBCI R22,BYTE3(-@0)
	SBCI R23,BYTE4(-@0)
	.ENDM

	.MACRO __ADDD2N
	SUBI R26,LOW(-@0)
	SBCI R27,HIGH(-@0)
	SBCI R24,BYTE3(-@0)
	SBCI R25,BYTE4(-@0)
	.ENDM

	.MACRO __SUBD1N
	SUBI R30,LOW(@0)
	SBCI R31,HIGH(@0)
	SBCI R22,BYTE3(@0)
	SBCI R23,BYTE4(@0)
	.ENDM

	.MACRO __SUBD2N
	SUBI R26,LOW(@0)
	SBCI R27,HIGH(@0)
	SBCI R24,BYTE3(@0)
	SBCI R25,BYTE4(@0)
	.ENDM

	.MACRO __ANDBMNN
	LDS  R30,@0+(@1)
	ANDI R30,LOW(@2)
	STS  @0+(@1),R30
	.ENDM

	.MACRO __ANDWMNN
	LDS  R30,@0+(@1)
	ANDI R30,LOW(@2)
	STS  @0+(@1),R30
	LDS  R30,@0+(@1)+1
	ANDI R30,HIGH(@2)
	STS  @0+(@1)+1,R30
	.ENDM

	.MACRO __ANDD1N
	ANDI R30,LOW(@0)
	ANDI R31,HIGH(@0)
	ANDI R22,BYTE3(@0)
	ANDI R23,BYTE4(@0)
	.ENDM

	.MACRO __ANDD2N
	ANDI R26,LOW(@0)
	ANDI R27,HIGH(@0)
	ANDI R24,BYTE3(@0)
	ANDI R25,BYTE4(@0)
	.ENDM

	.MACRO __ORBMNN
	LDS  R30,@0+(@1)
	ORI  R30,LOW(@2)
	STS  @0+(@1),R30
	.ENDM

	.MACRO __ORWMNN
	LDS  R30,@0+(@1)
	ORI  R30,LOW(@2)
	STS  @0+(@1),R30
	LDS  R30,@0+(@1)+1
	ORI  R30,HIGH(@2)
	STS  @0+(@1)+1,R30
	.ENDM

	.MACRO __ORD1N
	ORI  R30,LOW(@0)
	ORI  R31,HIGH(@0)
	ORI  R22,BYTE3(@0)
	ORI  R23,BYTE4(@0)
	.ENDM

	.MACRO __ORD2N
	ORI  R26,LOW(@0)
	ORI  R27,HIGH(@0)
	ORI  R24,BYTE3(@0)
	ORI  R25,BYTE4(@0)
	.ENDM

	.MACRO __DELAY_USB
	LDI  R24,LOW(@0)
__DELAY_USB_LOOP:
	DEC  R24
	BRNE __DELAY_USB_LOOP
	.ENDM

	.MACRO __DELAY_USW
	LDI  R24,LOW(@0)
	LDI  R25,HIGH(@0)
__DELAY_USW_LOOP:
	SBIW R24,1
	BRNE __DELAY_USW_LOOP
	.ENDM

	.MACRO __GETD1S
	LDD  R30,Y+@0
	LDD  R31,Y+@0+1
	LDD  R22,Y+@0+2
	LDD  R23,Y+@0+3
	.ENDM

	.MACRO __GETD2S
	LDD  R26,Y+@0
	LDD  R27,Y+@0+1
	LDD  R24,Y+@0+2
	LDD  R25,Y+@0+3
	.ENDM

	.MACRO __PUTD1S
	STD  Y+@0,R30
	STD  Y+@0+1,R31
	STD  Y+@0+2,R22
	STD  Y+@0+3,R23
	.ENDM

	.MACRO __PUTD2S
	STD  Y+@0,R26
	STD  Y+@0+1,R27
	STD  Y+@0+2,R24
	STD  Y+@0+3,R25
	.ENDM

	.MACRO __PUTDZ2
	STD  Z+@0,R26
	STD  Z+@0+1,R27
	STD  Z+@0+2,R24
	STD  Z+@0+3,R25
	.ENDM

	.MACRO __CLRD1S
	STD  Y+@0,R30
	STD  Y+@0+1,R30
	STD  Y+@0+2,R30
	STD  Y+@0+3,R30
	.ENDM

	.MACRO __POINTB1MN
	LDI  R30,LOW(@0+(@1))
	.ENDM

	.MACRO __POINTW1MN
	LDI  R30,LOW(@0+(@1))
	LDI  R31,HIGH(@0+(@1))
	.ENDM

	.MACRO __POINTD1M
	LDI  R30,LOW(@0)
	LDI  R31,HIGH(@0)
	LDI  R22,BYTE3(@0)
	LDI  R23,BYTE4(@0)
	.ENDM

	.MACRO __POINTW1FN
	LDI  R30,LOW(2*@0+(@1))
	LDI  R31,HIGH(2*@0+(@1))
	.ENDM

	.MACRO __POINTD1FN
	LDI  R30,LOW(2*@0+(@1))
	LDI  R31,HIGH(2*@0+(@1))
	LDI  R22,BYTE3(2*@0+(@1))
	LDI  R23,BYTE4(2*@0+(@1))
	.ENDM

	.MACRO __POINTB2MN
	LDI  R26,LOW(@0+(@1))
	.ENDM

	.MACRO __POINTW2MN
	LDI  R26,LOW(@0+(@1))
	LDI  R27,HIGH(@0+(@1))
	.ENDM

	.MACRO __POINTW2FN
	LDI  R26,LOW(2*@0+(@1))
	LDI  R27,HIGH(2*@0+(@1))
	.ENDM

	.MACRO __POINTD2FN
	LDI  R26,LOW(2*@0+(@1))
	LDI  R27,HIGH(2*@0+(@1))
	LDI  R24,BYTE3(2*@0+(@1))
	LDI  R25,BYTE4(2*@0+(@1))
	.ENDM

	.MACRO __POINTBRM
	LDI  R@0,LOW(@1)
	.ENDM

	.MACRO __POINTWRM
	LDI  R@0,LOW(@2)
	LDI  R@1,HIGH(@2)
	.ENDM

	.MACRO __POINTBRMN
	LDI  R@0,LOW(@1+(@2))
	.ENDM

	.MACRO __POINTWRMN
	LDI  R@0,LOW(@2+(@3))
	LDI  R@1,HIGH(@2+(@3))
	.ENDM

	.MACRO __POINTWRFN
	LDI  R@0,LOW(@2*2+(@3))
	LDI  R@1,HIGH(@2*2+(@3))
	.ENDM

	.MACRO __GETD1N
	LDI  R30,LOW(@0)
	LDI  R31,HIGH(@0)
	LDI  R22,BYTE3(@0)
	LDI  R23,BYTE4(@0)
	.ENDM

	.MACRO __GETD2N
	LDI  R26,LOW(@0)
	LDI  R27,HIGH(@0)
	LDI  R24,BYTE3(@0)
	LDI  R25,BYTE4(@0)
	.ENDM

	.MACRO __GETB1MN
	LDS  R30,@0+(@1)
	.ENDM

	.MACRO __GETB1HMN
	LDS  R31,@0+(@1)
	.ENDM

	.MACRO __GETW1MN
	LDS  R30,@0+(@1)
	LDS  R31,@0+(@1)+1
	.ENDM

	.MACRO __GETD1MN
	LDS  R30,@0+(@1)
	LDS  R31,@0+(@1)+1
	LDS  R22,@0+(@1)+2
	LDS  R23,@0+(@1)+3
	.ENDM

	.MACRO __GETBRMN
	LDS  R@0,@1+(@2)
	.ENDM

	.MACRO __GETWRMN
	LDS  R@0,@2+(@3)
	LDS  R@1,@2+(@3)+1
	.ENDM

	.MACRO __GETWRZ
	LDD  R@0,Z+@2
	LDD  R@1,Z+@2+1
	.ENDM

	.MACRO __GETD2Z
	LDD  R26,Z+@0
	LDD  R27,Z+@0+1
	LDD  R24,Z+@0+2
	LDD  R25,Z+@0+3
	.ENDM

	.MACRO __GETB2MN
	LDS  R26,@0+(@1)
	.ENDM

	.MACRO __GETW2MN
	LDS  R26,@0+(@1)
	LDS  R27,@0+(@1)+1
	.ENDM

	.MACRO __GETD2MN
	LDS  R26,@0+(@1)
	LDS  R27,@0+(@1)+1
	LDS  R24,@0+(@1)+2
	LDS  R25,@0+(@1)+3
	.ENDM

	.MACRO __PUTB1MN
	STS  @0+(@1),R30
	.ENDM

	.MACRO __PUTW1MN
	STS  @0+(@1),R30
	STS  @0+(@1)+1,R31
	.ENDM

	.MACRO __PUTD1MN
	STS  @0+(@1),R30
	STS  @0+(@1)+1,R31
	STS  @0+(@1)+2,R22
	STS  @0+(@1)+3,R23
	.ENDM

	.MACRO __PUTB1EN
	LDI  R26,LOW(@0+(@1))
	LDI  R27,HIGH(@0+(@1))
	CALL __EEPROMWRB
	.ENDM

	.MACRO __PUTW1EN
	LDI  R26,LOW(@0+(@1))
	LDI  R27,HIGH(@0+(@1))
	CALL __EEPROMWRW
	.ENDM

	.MACRO __PUTD1EN
	LDI  R26,LOW(@0+(@1))
	LDI  R27,HIGH(@0+(@1))
	CALL __EEPROMWRD
	.ENDM

	.MACRO __PUTBR0MN
	STS  @0+(@1),R0
	.ENDM

	.MACRO __PUTBMRN
	STS  @0+(@1),R@2
	.ENDM

	.MACRO __PUTWMRN
	STS  @0+(@1),R@2
	STS  @0+(@1)+1,R@3
	.ENDM

	.MACRO __PUTBZR
	STD  Z+@1,R@0
	.ENDM

	.MACRO __PUTWZR
	STD  Z+@2,R@0
	STD  Z+@2+1,R@1
	.ENDM

	.MACRO __GETW1R
	MOV  R30,R@0
	MOV  R31,R@1
	.ENDM

	.MACRO __GETW2R
	MOV  R26,R@0
	MOV  R27,R@1
	.ENDM

	.MACRO __GETWRN
	LDI  R@0,LOW(@2)
	LDI  R@1,HIGH(@2)
	.ENDM

	.MACRO __PUTW1R
	MOV  R@0,R30
	MOV  R@1,R31
	.ENDM

	.MACRO __PUTW2R
	MOV  R@0,R26
	MOV  R@1,R27
	.ENDM

	.MACRO __ADDWRN
	SUBI R@0,LOW(-@2)
	SBCI R@1,HIGH(-@2)
	.ENDM

	.MACRO __ADDWRR
	ADD  R@0,R@2
	ADC  R@1,R@3
	.ENDM

	.MACRO __SUBWRN
	SUBI R@0,LOW(@2)
	SBCI R@1,HIGH(@2)
	.ENDM

	.MACRO __SUBWRR
	SUB  R@0,R@2
	SBC  R@1,R@3
	.ENDM

	.MACRO __ANDWRN
	ANDI R@0,LOW(@2)
	ANDI R@1,HIGH(@2)
	.ENDM

	.MACRO __ANDWRR
	AND  R@0,R@2
	AND  R@1,R@3
	.ENDM

	.MACRO __ORWRN
	ORI  R@0,LOW(@2)
	ORI  R@1,HIGH(@2)
	.ENDM

	.MACRO __ORWRR
	OR   R@0,R@2
	OR   R@1,R@3
	.ENDM

	.MACRO __EORWRR
	EOR  R@0,R@2
	EOR  R@1,R@3
	.ENDM

	.MACRO __GETWRS
	LDD  R@0,Y+@2
	LDD  R@1,Y+@2+1
	.ENDM

	.MACRO __PUTBSR
	STD  Y+@1,R@0
	.ENDM

	.MACRO __PUTWSR
	STD  Y+@2,R@0
	STD  Y+@2+1,R@1
	.ENDM

	.MACRO __MOVEWRR
	MOV  R@0,R@2
	MOV  R@1,R@3
	.ENDM

	.MACRO __INWR
	IN   R@0,@2
	IN   R@1,@2+1
	.ENDM

	.MACRO __OUTWR
	OUT  @2+1,R@1
	OUT  @2,R@0
	.ENDM

	.MACRO __CALL1MN
	LDS  R30,@0+(@1)
	LDS  R31,@0+(@1)+1
	ICALL
	.ENDM

	.MACRO __CALL1FN
	LDI  R30,LOW(2*@0+(@1))
	LDI  R31,HIGH(2*@0+(@1))
	CALL __GETW1PF
	ICALL
	.ENDM

	.MACRO __CALL2EN
	LDI  R26,LOW(@0+(@1))
	LDI  R27,HIGH(@0+(@1))
	CALL __EEPROMRDW
	ICALL
	.ENDM

	.MACRO __GETW1STACK
	IN   R26,SPL
	IN   R27,SPH
	ADIW R26,@0+1
	LD   R30,X+
	LD   R31,X
	.ENDM

	.MACRO __GETD1STACK
	IN   R26,SPL
	IN   R27,SPH
	ADIW R26,@0+1
	LD   R30,X+
	LD   R31,X+
	LD   R22,X
	.ENDM

	.MACRO __NBST
	BST  R@0,@1
	IN   R30,SREG
	LDI  R31,0x40
	EOR  R30,R31
	OUT  SREG,R30
	.ENDM


	.MACRO __PUTB1SN
	LDD  R26,Y+@0
	LDD  R27,Y+@0+1
	SUBI R26,LOW(-@1)
	SBCI R27,HIGH(-@1)
	ST   X,R30
	.ENDM

	.MACRO __PUTW1SN
	LDD  R26,Y+@0
	LDD  R27,Y+@0+1
	SUBI R26,LOW(-@1)
	SBCI R27,HIGH(-@1)
	ST   X+,R30
	ST   X,R31
	.ENDM

	.MACRO __PUTD1SN
	LDD  R26,Y+@0
	LDD  R27,Y+@0+1
	SUBI R26,LOW(-@1)
	SBCI R27,HIGH(-@1)
	CALL __PUTDP1
	.ENDM

	.MACRO __PUTB1SNS
	LDD  R26,Y+@0
	LDD  R27,Y+@0+1
	ADIW R26,@1
	ST   X,R30
	.ENDM

	.MACRO __PUTW1SNS
	LDD  R26,Y+@0
	LDD  R27,Y+@0+1
	ADIW R26,@1
	ST   X+,R30
	ST   X,R31
	.ENDM

	.MACRO __PUTD1SNS
	LDD  R26,Y+@0
	LDD  R27,Y+@0+1
	ADIW R26,@1
	CALL __PUTDP1
	.ENDM

	.MACRO __PUTB1PMN
	LDS  R26,@0
	LDS  R27,@0+1
	SUBI R26,LOW(-@1)
	SBCI R27,HIGH(-@1)
	ST   X,R30
	.ENDM

	.MACRO __PUTW1PMN
	LDS  R26,@0
	LDS  R27,@0+1
	SUBI R26,LOW(-@1)
	SBCI R27,HIGH(-@1)
	ST   X+,R30
	ST   X,R31
	.ENDM

	.MACRO __PUTD1PMN
	LDS  R26,@0
	LDS  R27,@0+1
	SUBI R26,LOW(-@1)
	SBCI R27,HIGH(-@1)
	CALL __PUTDP1
	.ENDM

	.MACRO __PUTB1PMNS
	LDS  R26,@0
	LDS  R27,@0+1
	ADIW R26,@1
	ST   X,R30
	.ENDM

	.MACRO __PUTW1PMNS
	LDS  R26,@0
	LDS  R27,@0+1
	ADIW R26,@1
	ST   X+,R30
	ST   X,R31
	.ENDM

	.MACRO __PUTD1PMNS
	LDS  R26,@0
	LDS  R27,@0+1
	ADIW R26,@1
	CALL __PUTDP1
	.ENDM

	.MACRO __PUTB1RN
	MOVW R26,R@0
	SUBI R26,LOW(-@1)
	SBCI R27,HIGH(-@1)
	ST   X,R30
	.ENDM

	.MACRO __PUTW1RN
	MOVW R26,R@0
	SUBI R26,LOW(-@1)
	SBCI R27,HIGH(-@1)
	ST   X+,R30
	ST   X,R31
	.ENDM

	.MACRO __PUTD1RN
	MOVW R26,R@0
	SUBI R26,LOW(-@1)
	SBCI R27,HIGH(-@1)
	CALL __PUTDP1
	.ENDM

	.MACRO __PUTB1RNS
	MOVW R26,R@0
	ADIW R26,@1
	ST   X,R30
	.ENDM

	.MACRO __PUTW1RNS
	MOVW R26,R@0
	ADIW R26,@1
	ST   X+,R30
	ST   X,R31
	.ENDM

	.MACRO __PUTD1RNS
	MOVW R26,R@0
	ADIW R26,@1
	CALL __PUTDP1
	.ENDM

	.MACRO __PUTB1RON
	MOV  R26,R@0
	MOV  R27,R@1
	SUBI R26,LOW(-@2)
	SBCI R27,HIGH(-@2)
	ST   X,R30
	.ENDM

	.MACRO __PUTW1RON
	MOV  R26,R@0
	MOV  R27,R@1
	SUBI R26,LOW(-@2)
	SBCI R27,HIGH(-@2)
	ST   X+,R30
	ST   X,R31
	.ENDM

	.MACRO __PUTD1RON
	MOV  R26,R@0
	MOV  R27,R@1
	SUBI R26,LOW(-@2)
	SBCI R27,HIGH(-@2)
	CALL __PUTDP1
	.ENDM

	.MACRO __PUTB1RONS
	MOV  R26,R@0
	MOV  R27,R@1
	ADIW R26,@2
	ST   X,R30
	.ENDM

	.MACRO __PUTW1RONS
	MOV  R26,R@0
	MOV  R27,R@1
	ADIW R26,@2
	ST   X+,R30
	ST   X,R31
	.ENDM

	.MACRO __PUTD1RONS
	MOV  R26,R@0
	MOV  R27,R@1
	ADIW R26,@2
	CALL __PUTDP1
	.ENDM


	.MACRO __GETB1SX
	MOVW R30,R28
	SUBI R30,LOW(-@0)
	SBCI R31,HIGH(-@0)
	LD   R30,Z
	.ENDM

	.MACRO __GETB1HSX
	MOVW R30,R28
	SUBI R30,LOW(-@0)
	SBCI R31,HIGH(-@0)
	LD   R31,Z
	.ENDM

	.MACRO __GETW1SX
	MOVW R30,R28
	SUBI R30,LOW(-@0)
	SBCI R31,HIGH(-@0)
	LD   R0,Z+
	LD   R31,Z
	MOV  R30,R0
	.ENDM

	.MACRO __GETD1SX
	MOVW R30,R28
	SUBI R30,LOW(-@0)
	SBCI R31,HIGH(-@0)
	LD   R0,Z+
	LD   R1,Z+
	LD   R22,Z+
	LD   R23,Z
	MOVW R30,R0
	.ENDM

	.MACRO __GETB2SX
	MOVW R26,R28
	SUBI R26,LOW(-@0)
	SBCI R27,HIGH(-@0)
	LD   R26,X
	.ENDM

	.MACRO __GETW2SX
	MOVW R26,R28
	SUBI R26,LOW(-@0)
	SBCI R27,HIGH(-@0)
	LD   R0,X+
	LD   R27,X
	MOV  R26,R0
	.ENDM

	.MACRO __GETD2SX
	MOVW R26,R28
	SUBI R26,LOW(-@0)
	SBCI R27,HIGH(-@0)
	LD   R0,X+
	LD   R1,X+
	LD   R24,X+
	LD   R25,X
	MOVW R26,R0
	.ENDM

	.MACRO __GETBRSX
	MOVW R30,R28
	SUBI R30,LOW(-@1)
	SBCI R31,HIGH(-@1)
	LD   R@0,Z
	.ENDM

	.MACRO __GETWRSX
	MOVW R30,R28
	SUBI R30,LOW(-@2)
	SBCI R31,HIGH(-@2)
	LD   R@0,Z+
	LD   R@1,Z
	.ENDM

	.MACRO __GETBRSX2
	MOVW R26,R28
	SUBI R26,LOW(-@1)
	SBCI R27,HIGH(-@1)
	LD   R@0,X
	.ENDM

	.MACRO __GETWRSX2
	MOVW R26,R28
	SUBI R26,LOW(-@2)
	SBCI R27,HIGH(-@2)
	LD   R@0,X+
	LD   R@1,X
	.ENDM

	.MACRO __LSLW8SX
	MOVW R30,R28
	SUBI R30,LOW(-@0)
	SBCI R31,HIGH(-@0)
	LD   R31,Z
	CLR  R30
	.ENDM

	.MACRO __PUTB1SX
	MOVW R26,R28
	SUBI R26,LOW(-@0)
	SBCI R27,HIGH(-@0)
	ST   X,R30
	.ENDM

	.MACRO __PUTW1SX
	MOVW R26,R28
	SUBI R26,LOW(-@0)
	SBCI R27,HIGH(-@0)
	ST   X+,R30
	ST   X,R31
	.ENDM

	.MACRO __PUTD1SX
	MOVW R26,R28
	SUBI R26,LOW(-@0)
	SBCI R27,HIGH(-@0)
	ST   X+,R30
	ST   X+,R31
	ST   X+,R22
	ST   X,R23
	.ENDM

	.MACRO __CLRW1SX
	MOVW R26,R28
	SUBI R26,LOW(-@0)
	SBCI R27,HIGH(-@0)
	ST   X+,R30
	ST   X,R30
	.ENDM

	.MACRO __CLRD1SX
	MOVW R26,R28
	SUBI R26,LOW(-@0)
	SBCI R27,HIGH(-@0)
	ST   X+,R30
	ST   X+,R30
	ST   X+,R30
	ST   X,R30
	.ENDM

	.MACRO __PUTB2SX
	MOVW R30,R28
	SUBI R30,LOW(-@0)
	SBCI R31,HIGH(-@0)
	ST   Z,R26
	.ENDM

	.MACRO __PUTW2SX
	MOVW R30,R28
	SUBI R30,LOW(-@0)
	SBCI R31,HIGH(-@0)
	ST   Z+,R26
	ST   Z,R27
	.ENDM

	.MACRO __PUTD2SX
	MOVW R30,R28
	SUBI R30,LOW(-@0)
	SBCI R31,HIGH(-@0)
	ST   Z+,R26
	ST   Z+,R27
	ST   Z+,R24
	ST   Z,R25
	.ENDM

	.MACRO __PUTBSRX
	MOVW R30,R28
	SUBI R30,LOW(-@1)
	SBCI R31,HIGH(-@1)
	ST   Z,R@0
	.ENDM

	.MACRO __PUTWSRX
	MOVW R30,R28
	SUBI R30,LOW(-@2)
	SBCI R31,HIGH(-@2)
	ST   Z+,R@0
	ST   Z,R@1
	.ENDM

	.MACRO __PUTB1SNX
	MOVW R26,R28
	SUBI R26,LOW(-@0)
	SBCI R27,HIGH(-@0)
	LD   R0,X+
	LD   R27,X
	MOV  R26,R0
	SUBI R26,LOW(-@1)
	SBCI R27,HIGH(-@1)
	ST   X,R30
	.ENDM

	.MACRO __PUTW1SNX
	MOVW R26,R28
	SUBI R26,LOW(-@0)
	SBCI R27,HIGH(-@0)
	LD   R0,X+
	LD   R27,X
	MOV  R26,R0
	SUBI R26,LOW(-@1)
	SBCI R27,HIGH(-@1)
	ST   X+,R30
	ST   X,R31
	.ENDM

	.MACRO __PUTD1SNX
	MOVW R26,R28
	SUBI R26,LOW(-@0)
	SBCI R27,HIGH(-@0)
	LD   R0,X+
	LD   R27,X
	MOV  R26,R0
	SUBI R26,LOW(-@1)
	SBCI R27,HIGH(-@1)
	ST   X+,R30
	ST   X+,R31
	ST   X+,R22
	ST   X,R23
	.ENDM

	.MACRO __MULBRR
	MULS R@0,R@1
	MOVW R30,R0
	.ENDM

	.MACRO __MULBRRU
	MUL  R@0,R@1
	MOVW R30,R0
	.ENDM

	.MACRO __MULBRR0
	MULS R@0,R@1
	.ENDM

	.MACRO __MULBRRU0
	MUL  R@0,R@1
	.ENDM

	.MACRO __MULBNWRU
	LDI  R26,@2
	MUL  R26,R@0
	MOVW R30,R0
	MUL  R26,R@1
	ADD  R31,R0
	.ENDM

;NAME DEFINITIONS FOR GLOBAL VARIABLES ALLOCATED TO REGISTERS
	.DEF _count=R5
	.DEF _indeks=R4
	.DEF _detik=R7
	.DEF _menit=R6
	.DEF _jam=R9
	.DEF __lcd_x=R8
	.DEF __lcd_y=R11
	.DEF __lcd_maxx=R10

	.CSEG
	.ORG 0x00

;START OF CODE MARKER
__START_OF_CODE:

;INTERRUPT VECTORS
	JMP  __RESET
	JMP  0x00
	JMP  0x00
	JMP  0x00
	JMP  0x00
	JMP  0x00
	JMP  0x00
	JMP  0x00
	JMP  0x00
	JMP  _timer0_ovf_isr
	JMP  0x00
	JMP  0x00
	JMP  0x00
	JMP  0x00
	JMP  0x00
	JMP  0x00
	JMP  0x00
	JMP  0x00
	JMP  0x00
	JMP  0x00
	JMP  0x00

_tbl10_G100:
	.DB  0x10,0x27,0xE8,0x3,0x64,0x0,0xA,0x0
	.DB  0x1,0x0
_tbl16_G100:
	.DB  0x0,0x10,0x0,0x1,0x10,0x0,0x1,0x0

_0x18:
	.DB  0x0,0x0,0x0,0x0,0x0,0x0
_0x0:
	.DB  0x54,0x69,0x6D,0x65,0x72,0x20,0x25,0x64
	.DB  0x3A,0x25,0x64,0x3A,0x25,0x64,0x3A,0x25
	.DB  0x64,0x0,0x53,0x54,0x41,0x52,0x54,0x0
	.DB  0x53,0x54,0x4F,0x50,0x0,0x53,0x54,0x41
	.DB  0x52,0x54,0x20,0x20,0x20,0x20,0x20,0x20
	.DB  0x52,0x45,0x53,0x45,0x54,0x0,0x20,0x20
	.DB  0x20,0x20,0x4C,0x6F,0x61,0x64,0x69,0x6E
	.DB  0x67,0x21,0x20,0x20,0x0,0x2E,0x2E,0x2E
	.DB  0x2E,0x0,0x2E,0x2E,0x2E,0x2E,0x2E,0x2E
	.DB  0x2E,0x2E,0x0,0x2E,0x2E,0x2E,0x2E,0x2E
	.DB  0x2E,0x2E,0x2E,0x2E,0x2E,0x2E,0x2E,0x0
	.DB  0x2E,0x2E,0x2E,0x2E,0x2E,0x2E,0x2E,0x2E
	.DB  0x2E,0x2E,0x2E,0x2E,0x2E,0x2E,0x2E,0x0
_0x2020060:
	.DB  0x1
_0x2020000:
	.DB  0x2D,0x4E,0x41,0x4E,0x0,0x49,0x4E,0x46
	.DB  0x0
_0x2040003:
	.DB  0x80,0xC0

__GLOBAL_INI_TBL:
	.DW  0x06
	.DW  0x04
	.DW  _0x18*2

	.DW  0x01
	.DW  __seed_G101
	.DW  _0x2020060*2

	.DW  0x02
	.DW  __base_y_G102
	.DW  _0x2040003*2

_0xFFFFFFFF:
	.DW  0

__RESET:
	CLI
	CLR  R30
	OUT  EECR,R30

;INTERRUPT VECTORS ARE PLACED
;AT THE START OF FLASH
	LDI  R31,1
	OUT  GICR,R31
	OUT  GICR,R30
	OUT  MCUCR,R30

;DISABLE WATCHDOG
	LDI  R31,0x18
	OUT  WDTCR,R31
	OUT  WDTCR,R30

;CLEAR R2-R14
	LDI  R24,(14-2)+1
	LDI  R26,2
	CLR  R27
__CLEAR_REG:
	ST   X+,R30
	DEC  R24
	BRNE __CLEAR_REG

;CLEAR SRAM
	LDI  R24,LOW(__CLEAR_SRAM_SIZE)
	LDI  R25,HIGH(__CLEAR_SRAM_SIZE)
	LDI  R26,__SRAM_START
__CLEAR_SRAM:
	ST   X+,R30
	SBIW R24,1
	BRNE __CLEAR_SRAM

;GLOBAL VARIABLES INITIALIZATION
	LDI  R30,LOW(__GLOBAL_INI_TBL*2)
	LDI  R31,HIGH(__GLOBAL_INI_TBL*2)
__GLOBAL_INI_NEXT:
	LPM  R24,Z+
	LPM  R25,Z+
	SBIW R24,0
	BREQ __GLOBAL_INI_END
	LPM  R26,Z+
	LPM  R27,Z+
	LPM  R0,Z+
	LPM  R1,Z+
	MOVW R22,R30
	MOVW R30,R0
__GLOBAL_INI_LOOP:
	LPM  R0,Z+
	ST   X+,R0
	SBIW R24,1
	BRNE __GLOBAL_INI_LOOP
	MOVW R30,R22
	RJMP __GLOBAL_INI_NEXT
__GLOBAL_INI_END:

;HARDWARE STACK POINTER INITIALIZATION
	LDI  R30,LOW(__SRAM_END-__HEAP_SIZE)
	OUT  SPL,R30
	LDI  R30,HIGH(__SRAM_END-__HEAP_SIZE)
	OUT  SPH,R30

;DATA STACK POINTER INITIALIZATION
	LDI  R28,LOW(__SRAM_START+__DSTACK_SIZE)
	LDI  R29,HIGH(__SRAM_START+__DSTACK_SIZE)

	JMP  _main

	.ESEG
	.ORG 0

	.DSEG
	.ORG 0x160

	.CSEG
;/*****************************************************
;This program was produced by the
;CodeWizardAVR V2.05.3 Standard
;Automatic Program Generator
;© Copyright 1998-2011 Pavel Haiduc, HP InfoTech s.r.l.
;http://www.hpinfotech.com
;
;Project :
;Version :
;Date    : 6/5/2012
;Author  : PerTic@n
;Company : If You Like This Software,Buy It
;Comments:
;
;
;Chip type               : ATmega16
;Program type            : Application
;AVR Core Clock frequency: 12.000000 MHz
;Memory model            : Small
;External RAM size       : 0
;Data Stack size         : 256
;*****************************************************/
;
;unsigned char count, temp[16], indeks=0;
;unsigned char detik=0, menit=0, jam=0;
;
;#include <mega16.h>
	#ifndef __SLEEP_DEFINED__
	#define __SLEEP_DEFINED__
	.EQU __se_bit=0x40
	.EQU __sm_mask=0xB0
	.EQU __sm_powerdown=0x20
	.EQU __sm_powersave=0x30
	.EQU __sm_standby=0xA0
	.EQU __sm_ext_standby=0xB0
	.EQU __sm_adc_noise_red=0x10
	.SET power_ctrl_reg=mcucr
	#endif
;#include <delay.h>
;#include <stdio.h>
;#include <stdlib.h>
;
;// Alphanumeric LCD functions
;#asm
        .equ __lcd_port=0x15 ;PORTC
; 0000 0023 #endasm
;
;#include <alcd.h>
;
;
;// Timer 0 overflow interrupt service routine
;interrupt [TIM0_OVF] void timer0_ovf_isr(void)
; 0000 002A {

	.CSEG
_timer0_ovf_isr:
	ST   -Y,R30
	IN   R30,SREG
	ST   -Y,R30
; 0000 002B // Reinitialize Timer 0 value
; 0000 002C TCNT0=0x8A;
	LDI  R30,LOW(138)
	OUT  0x32,R30
; 0000 002D count++;
	INC  R5
; 0000 002E }
	LD   R30,Y+
	OUT  SREG,R30
	LD   R30,Y+
	RETI
;//-------------------------------------------------------
;
;//subrutin hitung waktu
;void hitung_waktu()
; 0000 0033 {
_hitung_waktu:
; 0000 0034 if (count>=100)
	LDI  R30,LOW(100)
	CP   R5,R30
	BRLO _0x3
; 0000 0035     {
; 0000 0036     lcd_clear();
	CALL _lcd_clear
; 0000 0037     detik++;
	INC  R7
; 0000 0038     count=0;
	CLR  R5
; 0000 0039     }
; 0000 003A 
; 0000 003B if (detik>=60)
_0x3:
	LDI  R30,LOW(60)
	CP   R7,R30
	BRLO _0x4
; 0000 003C     {
; 0000 003D     menit++;
	INC  R6
; 0000 003E     detik=0;
	CLR  R7
; 0000 003F     }
; 0000 0040 
; 0000 0041 if (menit>=60)
_0x4:
	LDI  R30,LOW(60)
	CP   R6,R30
	BRLO _0x5
; 0000 0042     {
; 0000 0043     jam++;
	INC  R9
; 0000 0044     menit=0;
	CLR  R6
; 0000 0045     }
; 0000 0046 }
_0x5:
	RET
;//-------------------------------------------------------
;
;//subrutin input tombol
;void detek_tombol()
; 0000 004B {
_detek_tombol:
; 0000 004C if (PINA.0==0 && (indeks==0 || indeks==2))//run timer
	LDI  R26,0
	SBIC 0x19,0
	LDI  R26,1
	CPI  R26,LOW(0x0)
	BRNE _0x7
	LDI  R30,LOW(0)
	CP   R30,R4
	BREQ _0x8
	LDI  R30,LOW(2)
	CP   R30,R4
	BRNE _0x7
_0x8:
	RJMP _0xA
_0x7:
	RJMP _0x6
_0xA:
; 0000 004D     {
; 0000 004E     indeks=1;
	LDI  R30,LOW(1)
	MOV  R4,R30
; 0000 004F     TIMSK=0x01;
	OUT  0x39,R30
; 0000 0050     lcd_clear();
	CALL _lcd_clear
; 0000 0051     }
; 0000 0052 
; 0000 0053 if (PINA.1==0 && indeks==1)//stop timer
_0x6:
	LDI  R26,0
	SBIC 0x19,1
	LDI  R26,1
	CPI  R26,LOW(0x0)
	BRNE _0xC
	LDI  R30,LOW(1)
	CP   R30,R4
	BREQ _0xD
_0xC:
	RJMP _0xB
_0xD:
; 0000 0054     {
; 0000 0055     indeks=2;
	LDI  R30,LOW(2)
	MOV  R4,R30
; 0000 0056     TIMSK=0x00;
	LDI  R30,LOW(0)
	OUT  0x39,R30
; 0000 0057     lcd_clear();
	CALL _lcd_clear
; 0000 0058     }
; 0000 0059 
; 0000 005A if (PINA.2==0 && indeks==2)//reset timer
_0xB:
	LDI  R26,0
	SBIC 0x19,2
	LDI  R26,1
	CPI  R26,LOW(0x0)
	BRNE _0xF
	LDI  R30,LOW(2)
	CP   R30,R4
	BREQ _0x10
_0xF:
	RJMP _0xE
_0x10:
; 0000 005B     {
; 0000 005C     indeks=0;
	CLR  R4
; 0000 005D     count=0;
	CLR  R5
; 0000 005E     detik=0;
	CLR  R7
; 0000 005F     menit=0;
	CLR  R6
; 0000 0060     jam=0;
	CLR  R9
; 0000 0061     lcd_clear();
	CALL _lcd_clear
; 0000 0062     }
; 0000 0063 }
_0xE:
	RET
;//-------------------------------------------------------
;
;//subrutin tampil ke lcd
;void tampil_lcd()
; 0000 0068 {
_tampil_lcd:
; 0000 0069 lcd_gotoxy(0,0);
	LDI  R30,LOW(0)
	ST   -Y,R30
	LDI  R26,LOW(0)
	CALL _lcd_gotoxy
; 0000 006A sprintf(temp,"Timer %d:%d:%d:%d",jam,menit,detik,count);
	LDI  R30,LOW(_temp)
	LDI  R31,HIGH(_temp)
	ST   -Y,R31
	ST   -Y,R30
	__POINTW1FN _0x0,0
	ST   -Y,R31
	ST   -Y,R30
	MOV  R30,R9
	CALL SUBOPT_0x0
	MOV  R30,R6
	CALL SUBOPT_0x0
	MOV  R30,R7
	CALL SUBOPT_0x0
	MOV  R30,R5
	CALL SUBOPT_0x0
	LDI  R24,16
	CALL _sprintf
	ADIW R28,20
; 0000 006B lcd_puts(temp);//tampilkan waktu di LCD baris pertama
	LDI  R26,LOW(_temp)
	LDI  R27,HIGH(_temp)
	CALL _lcd_puts
; 0000 006C 
; 0000 006D if (indeks==0)
	TST  R4
	BRNE _0x11
; 0000 006E     {
; 0000 006F     lcd_gotoxy(0,1);
	CALL SUBOPT_0x1
; 0000 0070     lcd_putsf("START");
	__POINTW2FN _0x0,18
	CALL _lcd_putsf
; 0000 0071     }
; 0000 0072 
; 0000 0073 if (indeks==1)
_0x11:
	LDI  R30,LOW(1)
	CP   R30,R4
	BRNE _0x12
; 0000 0074     {
; 0000 0075     lcd_gotoxy(0,1);
	CALL SUBOPT_0x1
; 0000 0076     lcd_putsf("STOP");
	__POINTW2FN _0x0,24
	CALL _lcd_putsf
; 0000 0077     }
; 0000 0078 
; 0000 0079 if (indeks==2)
_0x12:
	LDI  R30,LOW(2)
	CP   R30,R4
	BRNE _0x13
; 0000 007A     {
; 0000 007B     lcd_gotoxy(0,1);
	CALL SUBOPT_0x1
; 0000 007C     lcd_putsf("START      RESET");
	__POINTW2FN _0x0,29
	CALL _lcd_putsf
; 0000 007D     }
; 0000 007E }
_0x13:
	RET
;//-------------------------------------------------------
;
;// Declare your global variables here
;void main(void)
; 0000 0083 {
_main:
; 0000 0084 //--------------------------------------------------------
; 0000 0085 // Declare your local variables here
; 0000 0086 PORTA=0x0f;
	LDI  R30,LOW(15)
	OUT  0x1B,R30
; 0000 0087 DDRA=0x00;
	LDI  R30,LOW(0)
	OUT  0x1A,R30
; 0000 0088 
; 0000 0089 // Timer/Counter 0 initialization
; 0000 008A // Clock source: System Clock
; 0000 008B // Clock value: 11.719 kHz
; 0000 008C // Mode: Normal top=FFh
; 0000 008D // OC0 output: Disconnected
; 0000 008E TCCR0=0x05;
	LDI  R30,LOW(5)
	OUT  0x33,R30
; 0000 008F TCNT0=0x8A;
	LDI  R30,LOW(138)
	OUT  0x32,R30
; 0000 0090 OCR0=0x00;
	LDI  R30,LOW(0)
	OUT  0x3C,R30
; 0000 0091 
; 0000 0092 // Timer(s)/Counter(s) Interrupt(s) initialization
; 0000 0093 //TIMSK=0x00;
; 0000 0094 
; 0000 0095 // Analog Comparator initialization
; 0000 0096 // Analog Comparator: Off
; 0000 0097 // Analog Comparator Input Capture by Timer/Counter 1: Off
; 0000 0098 ACSR=0x80;
	LDI  R30,LOW(128)
	OUT  0x8,R30
; 0000 0099 SFIOR=0x00;
	LDI  R30,LOW(0)
	OUT  0x30,R30
; 0000 009A //------------------------------------------------------------
; 0000 009B // Alphanumeric LCD initialization
; 0000 009C // Connections are specified in the
; 0000 009D // Project|Configure|C Compiler|Libraries|Alphanumeric LCD menu:
; 0000 009E // RS - PORTC Bit 0
; 0000 009F // RD - PORTC Bit 1
; 0000 00A0 // EN - PORTC Bit 2
; 0000 00A1 // D4 - PORTC Bit 4
; 0000 00A2 // D5 - PORTC Bit 5
; 0000 00A3 // D6 - PORTC Bit 6
; 0000 00A4 // D7 - PORTC Bit 7
; 0000 00A5 // Characters/line: 16
; 0000 00A6 lcd_init(16);
	LDI  R26,LOW(16)
	CALL _lcd_init
; 0000 00A7         lcd_clear();
	CALL _lcd_clear
; 0000 00A8         lcd_gotoxy(0,0);
	LDI  R30,LOW(0)
	ST   -Y,R30
	LDI  R26,LOW(0)
	CALL _lcd_gotoxy
; 0000 00A9         lcd_putsf("    Loading!  ");
	__POINTW2FN _0x0,46
	CALL _lcd_putsf
; 0000 00AA         lcd_gotoxy(0,1);
	CALL SUBOPT_0x1
; 0000 00AB         lcd_putsf("....");
	__POINTW2FN _0x0,61
	CALL SUBOPT_0x2
; 0000 00AC         delay_ms(3000);
; 0000 00AD         lcd_putsf("........");
	__POINTW2FN _0x0,66
	CALL SUBOPT_0x2
; 0000 00AE         delay_ms(3000);
; 0000 00AF         lcd_putsf("............");
	__POINTW2FN _0x0,75
	CALL SUBOPT_0x2
; 0000 00B0         delay_ms(3000);
; 0000 00B1         lcd_putsf("...............");
	__POINTW2FN _0x0,88
	CALL SUBOPT_0x2
; 0000 00B2         delay_ms(3000);lcd_clear();
	CALL _lcd_clear
; 0000 00B3 
; 0000 00B4 // Global enable interrupts
; 0000 00B5 #asm("sei")
	sei
; 0000 00B6 
; 0000 00B7 
; 0000 00B8 while (1)
_0x14:
; 0000 00B9       {
; 0000 00BA       // Place your code here
; 0000 00BB       detek_tombol();
	RCALL _detek_tombol
; 0000 00BC       hitung_waktu();
	RCALL _hitung_waktu
; 0000 00BD       tampil_lcd();
	RCALL _tampil_lcd
; 0000 00BE       }
	RJMP _0x14
; 0000 00BF }
_0x17:
	RJMP _0x17
	#ifndef __SLEEP_DEFINED__
	#define __SLEEP_DEFINED__
	.EQU __se_bit=0x40
	.EQU __sm_mask=0xB0
	.EQU __sm_powerdown=0x20
	.EQU __sm_powersave=0x30
	.EQU __sm_standby=0xA0
	.EQU __sm_ext_standby=0xB0
	.EQU __sm_adc_noise_red=0x10
	.SET power_ctrl_reg=mcucr
	#endif

	.CSEG
_put_buff_G100:
	ST   -Y,R27
	ST   -Y,R26
	ST   -Y,R17
	ST   -Y,R16
	LDD  R26,Y+2
	LDD  R27,Y+2+1
	ADIW R26,2
	CALL __GETW1P
	SBIW R30,0
	BREQ _0x2000010
	LDD  R26,Y+2
	LDD  R27,Y+2+1
	ADIW R26,4
	CALL __GETW1P
	MOVW R16,R30
	SBIW R30,0
	BREQ _0x2000012
	__CPWRN 16,17,2
	BRLO _0x2000013
	MOVW R30,R16
	SBIW R30,1
	MOVW R16,R30
	__PUTW1SNS 2,4
_0x2000012:
	LDD  R26,Y+2
	LDD  R27,Y+2+1
	ADIW R26,2
	LD   R30,X+
	LD   R31,X+
	ADIW R30,1
	ST   -X,R31
	ST   -X,R30
	SBIW R30,1
	LDD  R26,Y+4
	STD  Z+0,R26
	LDD  R26,Y+2
	LDD  R27,Y+2+1
	CALL __GETW1P
	TST  R31
	BRMI _0x2000014
	LD   R30,X+
	LD   R31,X+
	ADIW R30,1
	ST   -X,R31
	ST   -X,R30
_0x2000014:
_0x2000013:
	RJMP _0x2000015
_0x2000010:
	LDD  R26,Y+2
	LDD  R27,Y+2+1
	LDI  R30,LOW(65535)
	LDI  R31,HIGH(65535)
	ST   X+,R30
	ST   X,R31
_0x2000015:
	LDD  R17,Y+1
	LDD  R16,Y+0
	ADIW R28,5
	RET
__print_G100:
	ST   -Y,R27
	ST   -Y,R26
	SBIW R28,6
	CALL __SAVELOCR6
	LDI  R17,0
	LDD  R26,Y+12
	LDD  R27,Y+12+1
	LDI  R30,LOW(0)
	LDI  R31,HIGH(0)
	ST   X+,R30
	ST   X,R31
_0x2000016:
	LDD  R30,Y+18
	LDD  R31,Y+18+1
	ADIW R30,1
	STD  Y+18,R30
	STD  Y+18+1,R31
	SBIW R30,1
	LPM  R30,Z
	MOV  R18,R30
	CPI  R30,0
	BRNE PC+3
	JMP _0x2000018
	MOV  R30,R17
	CPI  R30,0
	BRNE _0x200001C
	CPI  R18,37
	BRNE _0x200001D
	LDI  R17,LOW(1)
	RJMP _0x200001E
_0x200001D:
	CALL SUBOPT_0x3
_0x200001E:
	RJMP _0x200001B
_0x200001C:
	CPI  R30,LOW(0x1)
	BRNE _0x200001F
	CPI  R18,37
	BRNE _0x2000020
	CALL SUBOPT_0x3
	RJMP _0x20000C9
_0x2000020:
	LDI  R17,LOW(2)
	LDI  R20,LOW(0)
	LDI  R16,LOW(0)
	CPI  R18,45
	BRNE _0x2000021
	LDI  R16,LOW(1)
	RJMP _0x200001B
_0x2000021:
	CPI  R18,43
	BRNE _0x2000022
	LDI  R20,LOW(43)
	RJMP _0x200001B
_0x2000022:
	CPI  R18,32
	BRNE _0x2000023
	LDI  R20,LOW(32)
	RJMP _0x200001B
_0x2000023:
	RJMP _0x2000024
_0x200001F:
	CPI  R30,LOW(0x2)
	BRNE _0x2000025
_0x2000024:
	LDI  R21,LOW(0)
	LDI  R17,LOW(3)
	CPI  R18,48
	BRNE _0x2000026
	ORI  R16,LOW(128)
	RJMP _0x200001B
_0x2000026:
	RJMP _0x2000027
_0x2000025:
	CPI  R30,LOW(0x3)
	BREQ PC+3
	JMP _0x200001B
_0x2000027:
	CPI  R18,48
	BRLO _0x200002A
	CPI  R18,58
	BRLO _0x200002B
_0x200002A:
	RJMP _0x2000029
_0x200002B:
	LDI  R26,LOW(10)
	MUL  R21,R26
	MOV  R21,R0
	MOV  R30,R18
	SUBI R30,LOW(48)
	ADD  R21,R30
	RJMP _0x200001B
_0x2000029:
	MOV  R30,R18
	CPI  R30,LOW(0x63)
	BRNE _0x200002F
	CALL SUBOPT_0x4
	LDD  R30,Y+16
	LDD  R31,Y+16+1
	LDD  R26,Z+4
	ST   -Y,R26
	CALL SUBOPT_0x5
	RJMP _0x2000030
_0x200002F:
	CPI  R30,LOW(0x73)
	BRNE _0x2000032
	CALL SUBOPT_0x4
	CALL SUBOPT_0x6
	CALL _strlen
	MOV  R17,R30
	RJMP _0x2000033
_0x2000032:
	CPI  R30,LOW(0x70)
	BRNE _0x2000035
	CALL SUBOPT_0x4
	CALL SUBOPT_0x6
	CALL _strlenf
	MOV  R17,R30
	ORI  R16,LOW(8)
_0x2000033:
	ORI  R16,LOW(2)
	ANDI R16,LOW(127)
	LDI  R19,LOW(0)
	RJMP _0x2000036
_0x2000035:
	CPI  R30,LOW(0x64)
	BREQ _0x2000039
	CPI  R30,LOW(0x69)
	BRNE _0x200003A
_0x2000039:
	ORI  R16,LOW(4)
	RJMP _0x200003B
_0x200003A:
	CPI  R30,LOW(0x75)
	BRNE _0x200003C
_0x200003B:
	LDI  R30,LOW(_tbl10_G100*2)
	LDI  R31,HIGH(_tbl10_G100*2)
	STD  Y+6,R30
	STD  Y+6+1,R31
	LDI  R17,LOW(5)
	RJMP _0x200003D
_0x200003C:
	CPI  R30,LOW(0x58)
	BRNE _0x200003F
	ORI  R16,LOW(8)
	RJMP _0x2000040
_0x200003F:
	CPI  R30,LOW(0x78)
	BREQ PC+3
	JMP _0x2000071
_0x2000040:
	LDI  R30,LOW(_tbl16_G100*2)
	LDI  R31,HIGH(_tbl16_G100*2)
	STD  Y+6,R30
	STD  Y+6+1,R31
	LDI  R17,LOW(4)
_0x200003D:
	SBRS R16,2
	RJMP _0x2000042
	CALL SUBOPT_0x4
	CALL SUBOPT_0x7
	LDD  R26,Y+11
	TST  R26
	BRPL _0x2000043
	LDD  R30,Y+10
	LDD  R31,Y+10+1
	CALL __ANEGW1
	STD  Y+10,R30
	STD  Y+10+1,R31
	LDI  R20,LOW(45)
_0x2000043:
	CPI  R20,0
	BREQ _0x2000044
	SUBI R17,-LOW(1)
	RJMP _0x2000045
_0x2000044:
	ANDI R16,LOW(251)
_0x2000045:
	RJMP _0x2000046
_0x2000042:
	CALL SUBOPT_0x4
	CALL SUBOPT_0x7
_0x2000046:
_0x2000036:
	SBRC R16,0
	RJMP _0x2000047
_0x2000048:
	CP   R17,R21
	BRSH _0x200004A
	SBRS R16,7
	RJMP _0x200004B
	SBRS R16,2
	RJMP _0x200004C
	ANDI R16,LOW(251)
	MOV  R18,R20
	SUBI R17,LOW(1)
	RJMP _0x200004D
_0x200004C:
	LDI  R18,LOW(48)
_0x200004D:
	RJMP _0x200004E
_0x200004B:
	LDI  R18,LOW(32)
_0x200004E:
	CALL SUBOPT_0x3
	SUBI R21,LOW(1)
	RJMP _0x2000048
_0x200004A:
_0x2000047:
	MOV  R19,R17
	SBRS R16,1
	RJMP _0x200004F
_0x2000050:
	CPI  R19,0
	BREQ _0x2000052
	SBRS R16,3
	RJMP _0x2000053
	LDD  R30,Y+6
	LDD  R31,Y+6+1
	LPM  R18,Z+
	STD  Y+6,R30
	STD  Y+6+1,R31
	RJMP _0x2000054
_0x2000053:
	LDD  R26,Y+6
	LDD  R27,Y+6+1
	LD   R18,X+
	STD  Y+6,R26
	STD  Y+6+1,R27
_0x2000054:
	CALL SUBOPT_0x3
	CPI  R21,0
	BREQ _0x2000055
	SUBI R21,LOW(1)
_0x2000055:
	SUBI R19,LOW(1)
	RJMP _0x2000050
_0x2000052:
	RJMP _0x2000056
_0x200004F:
_0x2000058:
	LDI  R18,LOW(48)
	LDD  R30,Y+6
	LDD  R31,Y+6+1
	CALL __GETW1PF
	STD  Y+8,R30
	STD  Y+8+1,R31
	LDD  R30,Y+6
	LDD  R31,Y+6+1
	ADIW R30,2
	STD  Y+6,R30
	STD  Y+6+1,R31
_0x200005A:
	LDD  R30,Y+8
	LDD  R31,Y+8+1
	LDD  R26,Y+10
	LDD  R27,Y+10+1
	CP   R26,R30
	CPC  R27,R31
	BRLO _0x200005C
	SUBI R18,-LOW(1)
	LDD  R26,Y+8
	LDD  R27,Y+8+1
	LDD  R30,Y+10
	LDD  R31,Y+10+1
	SUB  R30,R26
	SBC  R31,R27
	STD  Y+10,R30
	STD  Y+10+1,R31
	RJMP _0x200005A
_0x200005C:
	CPI  R18,58
	BRLO _0x200005D
	SBRS R16,3
	RJMP _0x200005E
	SUBI R18,-LOW(7)
	RJMP _0x200005F
_0x200005E:
	SUBI R18,-LOW(39)
_0x200005F:
_0x200005D:
	SBRC R16,4
	RJMP _0x2000061
	CPI  R18,49
	BRSH _0x2000063
	LDD  R26,Y+8
	LDD  R27,Y+8+1
	SBIW R26,1
	BRNE _0x2000062
_0x2000063:
	RJMP _0x20000CA
_0x2000062:
	CP   R21,R19
	BRLO _0x2000067
	SBRS R16,0
	RJMP _0x2000068
_0x2000067:
	RJMP _0x2000066
_0x2000068:
	LDI  R18,LOW(32)
	SBRS R16,7
	RJMP _0x2000069
	LDI  R18,LOW(48)
_0x20000CA:
	ORI  R16,LOW(16)
	SBRS R16,2
	RJMP _0x200006A
	ANDI R16,LOW(251)
	ST   -Y,R20
	CALL SUBOPT_0x5
	CPI  R21,0
	BREQ _0x200006B
	SUBI R21,LOW(1)
_0x200006B:
_0x200006A:
_0x2000069:
_0x2000061:
	CALL SUBOPT_0x3
	CPI  R21,0
	BREQ _0x200006C
	SUBI R21,LOW(1)
_0x200006C:
_0x2000066:
	SUBI R19,LOW(1)
	LDD  R26,Y+8
	LDD  R27,Y+8+1
	SBIW R26,2
	BRLO _0x2000059
	RJMP _0x2000058
_0x2000059:
_0x2000056:
	SBRS R16,0
	RJMP _0x200006D
_0x200006E:
	CPI  R21,0
	BREQ _0x2000070
	SUBI R21,LOW(1)
	LDI  R30,LOW(32)
	ST   -Y,R30
	CALL SUBOPT_0x5
	RJMP _0x200006E
_0x2000070:
_0x200006D:
_0x2000071:
_0x2000030:
_0x20000C9:
	LDI  R17,LOW(0)
_0x200001B:
	RJMP _0x2000016
_0x2000018:
	LDD  R26,Y+12
	LDD  R27,Y+12+1
	CALL __GETW1P
	CALL __LOADLOCR6
	ADIW R28,20
	RET
_sprintf:
	PUSH R15
	MOV  R15,R24
	SBIW R28,6
	CALL __SAVELOCR4
	CALL SUBOPT_0x8
	SBIW R30,0
	BRNE _0x2000072
	LDI  R30,LOW(65535)
	LDI  R31,HIGH(65535)
	RJMP _0x20C0003
_0x2000072:
	MOVW R26,R28
	ADIW R26,6
	CALL __ADDW2R15
	MOVW R16,R26
	CALL SUBOPT_0x8
	STD  Y+6,R30
	STD  Y+6+1,R31
	LDI  R30,LOW(0)
	STD  Y+8,R30
	STD  Y+8+1,R30
	MOVW R26,R28
	ADIW R26,10
	CALL __ADDW2R15
	CALL __GETW1P
	ST   -Y,R31
	ST   -Y,R30
	ST   -Y,R17
	ST   -Y,R16
	LDI  R30,LOW(_put_buff_G100)
	LDI  R31,HIGH(_put_buff_G100)
	ST   -Y,R31
	ST   -Y,R30
	MOVW R26,R28
	ADIW R26,10
	RCALL __print_G100
	MOVW R18,R30
	LDD  R26,Y+6
	LDD  R27,Y+6+1
	LDI  R30,LOW(0)
	ST   X,R30
	MOVW R30,R18
_0x20C0003:
	CALL __LOADLOCR4
	ADIW R28,10
	POP  R15
	RET

	.CSEG

	.DSEG

	.CSEG
	#ifndef __SLEEP_DEFINED__
	#define __SLEEP_DEFINED__
	.EQU __se_bit=0x40
	.EQU __sm_mask=0xB0
	.EQU __sm_powerdown=0x20
	.EQU __sm_powersave=0x30
	.EQU __sm_standby=0xA0
	.EQU __sm_ext_standby=0xB0
	.EQU __sm_adc_noise_red=0x10
	.SET power_ctrl_reg=mcucr
	#endif

	.DSEG

	.CSEG
__lcd_write_nibble_G102:
	ST   -Y,R26
	IN   R30,0x15
	ANDI R30,LOW(0xF)
	MOV  R26,R30
	LD   R30,Y
	ANDI R30,LOW(0xF0)
	OR   R30,R26
	OUT  0x15,R30
	__DELAY_USB 8
	SBI  0x15,2
	__DELAY_USB 20
	CBI  0x15,2
	__DELAY_USB 20
	RJMP _0x20C0001
__lcd_write_data:
	ST   -Y,R26
	LD   R26,Y
	RCALL __lcd_write_nibble_G102
    ld    r30,y
    swap  r30
    st    y,r30
	LD   R26,Y
	RCALL __lcd_write_nibble_G102
	__DELAY_USB 200
	RJMP _0x20C0001
_lcd_gotoxy:
	ST   -Y,R26
	LD   R30,Y
	LDI  R31,0
	SUBI R30,LOW(-__base_y_G102)
	SBCI R31,HIGH(-__base_y_G102)
	LD   R30,Z
	LDD  R26,Y+1
	ADD  R26,R30
	RCALL __lcd_write_data
	LDD  R8,Y+1
	LDD  R11,Y+0
	ADIW R28,2
	RET
_lcd_clear:
	LDI  R26,LOW(2)
	CALL SUBOPT_0x9
	LDI  R26,LOW(12)
	RCALL __lcd_write_data
	LDI  R26,LOW(1)
	CALL SUBOPT_0x9
	LDI  R30,LOW(0)
	MOV  R11,R30
	MOV  R8,R30
	RET
_lcd_putchar:
	ST   -Y,R26
	LD   R26,Y
	CPI  R26,LOW(0xA)
	BREQ _0x2040005
	CP   R8,R10
	BRLO _0x2040004
_0x2040005:
	LDI  R30,LOW(0)
	ST   -Y,R30
	INC  R11
	MOV  R26,R11
	RCALL _lcd_gotoxy
	LD   R26,Y
	CPI  R26,LOW(0xA)
	BRNE _0x2040007
	RJMP _0x20C0001
_0x2040007:
_0x2040004:
	INC  R8
	SBI  0x15,0
	LD   R26,Y
	RCALL __lcd_write_data
	CBI  0x15,0
	RJMP _0x20C0001
_lcd_puts:
	ST   -Y,R27
	ST   -Y,R26
	ST   -Y,R17
_0x2040008:
	LDD  R26,Y+1
	LDD  R27,Y+1+1
	LD   R30,X+
	STD  Y+1,R26
	STD  Y+1+1,R27
	MOV  R17,R30
	CPI  R30,0
	BREQ _0x204000A
	MOV  R26,R17
	RCALL _lcd_putchar
	RJMP _0x2040008
_0x204000A:
	RJMP _0x20C0002
_lcd_putsf:
	ST   -Y,R27
	ST   -Y,R26
	ST   -Y,R17
_0x204000B:
	LDD  R30,Y+1
	LDD  R31,Y+1+1
	ADIW R30,1
	STD  Y+1,R30
	STD  Y+1+1,R31
	SBIW R30,1
	LPM  R30,Z
	MOV  R17,R30
	CPI  R30,0
	BREQ _0x204000D
	MOV  R26,R17
	RCALL _lcd_putchar
	RJMP _0x204000B
_0x204000D:
_0x20C0002:
	LDD  R17,Y+0
	ADIW R28,3
	RET
_lcd_init:
	ST   -Y,R26
	IN   R30,0x14
	ORI  R30,LOW(0xF0)
	OUT  0x14,R30
	SBI  0x14,2
	SBI  0x14,0
	SBI  0x14,1
	CBI  0x15,2
	CBI  0x15,0
	CBI  0x15,1
	LDD  R10,Y+0
	LD   R30,Y
	SUBI R30,-LOW(128)
	__PUTB1MN __base_y_G102,2
	LD   R30,Y
	SUBI R30,-LOW(192)
	__PUTB1MN __base_y_G102,3
	LDI  R26,LOW(20)
	LDI  R27,0
	CALL _delay_ms
	CALL SUBOPT_0xA
	CALL SUBOPT_0xA
	CALL SUBOPT_0xA
	LDI  R26,LOW(32)
	RCALL __lcd_write_nibble_G102
	__DELAY_USW 300
	LDI  R26,LOW(40)
	RCALL __lcd_write_data
	LDI  R26,LOW(4)
	RCALL __lcd_write_data
	LDI  R26,LOW(133)
	RCALL __lcd_write_data
	LDI  R26,LOW(6)
	RCALL __lcd_write_data
	RCALL _lcd_clear
_0x20C0001:
	ADIW R28,1
	RET

	.CSEG

	.CSEG
_strlen:
	ST   -Y,R27
	ST   -Y,R26
    ld   r26,y+
    ld   r27,y+
    clr  r30
    clr  r31
strlen0:
    ld   r22,x+
    tst  r22
    breq strlen1
    adiw r30,1
    rjmp strlen0
strlen1:
    ret
_strlenf:
	ST   -Y,R27
	ST   -Y,R26
    clr  r26
    clr  r27
    ld   r30,y+
    ld   r31,y+
strlenf0:
	lpm  r0,z+
    tst  r0
    breq strlenf1
    adiw r26,1
    rjmp strlenf0
strlenf1:
    movw r30,r26
    ret

	.CSEG

	.DSEG
_temp:
	.BYTE 0x10
__seed_G101:
	.BYTE 0x4
__base_y_G102:
	.BYTE 0x4

	.CSEG
;OPTIMIZER ADDED SUBROUTINE, CALLED 4 TIMES, CODE SIZE REDUCTION:6 WORDS
SUBOPT_0x0:
	CLR  R31
	CLR  R22
	CLR  R23
	CALL __PUTPARD1
	RET

;OPTIMIZER ADDED SUBROUTINE, CALLED 4 TIMES, CODE SIZE REDUCTION:6 WORDS
SUBOPT_0x1:
	LDI  R30,LOW(0)
	ST   -Y,R30
	LDI  R26,LOW(1)
	JMP  _lcd_gotoxy

;OPTIMIZER ADDED SUBROUTINE, CALLED 4 TIMES, CODE SIZE REDUCTION:9 WORDS
SUBOPT_0x2:
	CALL _lcd_putsf
	LDI  R26,LOW(3000)
	LDI  R27,HIGH(3000)
	JMP  _delay_ms

;OPTIMIZER ADDED SUBROUTINE, CALLED 5 TIMES, CODE SIZE REDUCTION:13 WORDS
SUBOPT_0x3:
	ST   -Y,R18
	LDD  R26,Y+13
	LDD  R27,Y+13+1
	LDD  R30,Y+15
	LDD  R31,Y+15+1
	ICALL
	RET

;OPTIMIZER ADDED SUBROUTINE, CALLED 5 TIMES, CODE SIZE REDUCTION:9 WORDS
SUBOPT_0x4:
	LDD  R30,Y+16
	LDD  R31,Y+16+1
	SBIW R30,4
	STD  Y+16,R30
	STD  Y+16+1,R31
	RET

;OPTIMIZER ADDED SUBROUTINE, CALLED 3 TIMES, CODE SIZE REDUCTION:3 WORDS
SUBOPT_0x5:
	LDD  R26,Y+13
	LDD  R27,Y+13+1
	LDD  R30,Y+15
	LDD  R31,Y+15+1
	ICALL
	RET

;OPTIMIZER ADDED SUBROUTINE, CALLED 2 TIMES, CODE SIZE REDUCTION:4 WORDS
SUBOPT_0x6:
	LDD  R26,Y+16
	LDD  R27,Y+16+1
	ADIW R26,4
	CALL __GETW1P
	STD  Y+6,R30
	STD  Y+6+1,R31
	LDD  R26,Y+6
	LDD  R27,Y+6+1
	RET

;OPTIMIZER ADDED SUBROUTINE, CALLED 2 TIMES, CODE SIZE REDUCTION:2 WORDS
SUBOPT_0x7:
	LDD  R26,Y+16
	LDD  R27,Y+16+1
	ADIW R26,4
	CALL __GETW1P
	STD  Y+10,R30
	STD  Y+10+1,R31
	RET

;OPTIMIZER ADDED SUBROUTINE, CALLED 2 TIMES, CODE SIZE REDUCTION:1 WORDS
SUBOPT_0x8:
	MOVW R26,R28
	ADIW R26,12
	CALL __ADDW2R15
	CALL __GETW1P
	RET

;OPTIMIZER ADDED SUBROUTINE, CALLED 2 TIMES, CODE SIZE REDUCTION:3 WORDS
SUBOPT_0x9:
	CALL __lcd_write_data
	LDI  R26,LOW(3)
	LDI  R27,0
	JMP  _delay_ms

;OPTIMIZER ADDED SUBROUTINE, CALLED 3 TIMES, CODE SIZE REDUCTION:7 WORDS
SUBOPT_0xA:
	LDI  R26,LOW(48)
	CALL __lcd_write_nibble_G102
	__DELAY_USW 300
	RET


	.CSEG
_delay_ms:
	adiw r26,0
	breq __delay_ms1
__delay_ms0:
	__DELAY_USW 0xBB8
	wdr
	sbiw r26,1
	brne __delay_ms0
__delay_ms1:
	ret

__ADDW2R15:
	CLR  R0
	ADD  R26,R15
	ADC  R27,R0
	RET

__ANEGW1:
	NEG  R31
	NEG  R30
	SBCI R31,0
	RET

__GETW1P:
	LD   R30,X+
	LD   R31,X
	SBIW R26,1
	RET

__GETW1PF:
	LPM  R0,Z+
	LPM  R31,Z
	MOV  R30,R0
	RET

__PUTPARD1:
	ST   -Y,R23
	ST   -Y,R22
	ST   -Y,R31
	ST   -Y,R30
	RET

__SAVELOCR6:
	ST   -Y,R21
__SAVELOCR5:
	ST   -Y,R20
__SAVELOCR4:
	ST   -Y,R19
__SAVELOCR3:
	ST   -Y,R18
__SAVELOCR2:
	ST   -Y,R17
	ST   -Y,R16
	RET

__LOADLOCR6:
	LDD  R21,Y+5
__LOADLOCR5:
	LDD  R20,Y+4
__LOADLOCR4:
	LDD  R19,Y+3
__LOADLOCR3:
	LDD  R18,Y+2
__LOADLOCR2:
	LDD  R17,Y+1
	LD   R16,Y
	RET

;END OF CODE MARKER
__END_OF_CODE:
