
USART1.elf:     file format elf32-avr

Sections:
Idx Name          Size      VMA       LMA       File off  Algn
  0 .text         00001330  00000000  00000000  00000094  2**0
                  CONTENTS, ALLOC, LOAD, READONLY, CODE
  1 .data         00000034  00800060  00001330  000013c4  2**0
                  CONTENTS, ALLOC, LOAD, DATA
  2 .bss          0000000a  00800094  00800094  000013f8  2**0
                  ALLOC
  3 .noinit       00000000  0080009e  0080009e  000013f8  2**0
                  CONTENTS
  4 .eeprom       00000000  00810000  00810000  000013f8  2**0
                  CONTENTS
  5 .stab         000008ac  00000000  00000000  000013f8  2**2
                  CONTENTS, READONLY, DEBUGGING
  6 .stabstr      00000963  00000000  00000000  00001ca4  2**0
                  CONTENTS, READONLY, DEBUGGING
  7 .debug_aranges 00000014  00000000  00000000  00002607  2**0
                  CONTENTS, READONLY, DEBUGGING
  8 .debug_pubnames 0000001b  00000000  00000000  0000261b  2**0
                  CONTENTS, READONLY, DEBUGGING
  9 .debug_info   0000016e  00000000  00000000  00002636  2**0
                  CONTENTS, READONLY, DEBUGGING
 10 .debug_abbrev 000000e9  00000000  00000000  000027a4  2**0
                  CONTENTS, READONLY, DEBUGGING
 11 .debug_line   000000ec  00000000  00000000  0000288d  2**0
                  CONTENTS, READONLY, DEBUGGING
 12 .debug_str    00000095  00000000  00000000  00002979  2**0
                  CONTENTS, READONLY, DEBUGGING
Disassembly of section .text:

00000000 <__vectors>:
       0:	12 c0       	rjmp	.+36     	; 0x26 <__ctors_end>
       2:	2b c0       	rjmp	.+86     	; 0x5a <__bad_interrupt>
       4:	2a c0       	rjmp	.+84     	; 0x5a <__bad_interrupt>
       6:	29 c0       	rjmp	.+82     	; 0x5a <__bad_interrupt>
       8:	28 c0       	rjmp	.+80     	; 0x5a <__bad_interrupt>
       a:	27 c0       	rjmp	.+78     	; 0x5a <__bad_interrupt>
       c:	26 c0       	rjmp	.+76     	; 0x5a <__bad_interrupt>
       e:	25 c0       	rjmp	.+74     	; 0x5a <__bad_interrupt>
      10:	24 c0       	rjmp	.+72     	; 0x5a <__bad_interrupt>
      12:	23 c0       	rjmp	.+70     	; 0x5a <__bad_interrupt>
      14:	22 c0       	rjmp	.+68     	; 0x5a <__bad_interrupt>
      16:	21 c0       	rjmp	.+66     	; 0x5a <__bad_interrupt>
      18:	20 c0       	rjmp	.+64     	; 0x5a <__bad_interrupt>
      1a:	1f c0       	rjmp	.+62     	; 0x5a <__bad_interrupt>
      1c:	1e c0       	rjmp	.+60     	; 0x5a <__bad_interrupt>
      1e:	1d c0       	rjmp	.+58     	; 0x5a <__bad_interrupt>
      20:	1c c0       	rjmp	.+56     	; 0x5a <__bad_interrupt>
      22:	1b c0       	rjmp	.+54     	; 0x5a <__bad_interrupt>
      24:	1a c0       	rjmp	.+52     	; 0x5a <__bad_interrupt>

00000026 <__ctors_end>:
      26:	11 24       	eor	r1, r1
      28:	1f be       	out	0x3f, r1	; 63
      2a:	cf e5       	ldi	r28, 0x5F	; 95
      2c:	d4 e0       	ldi	r29, 0x04	; 4
      2e:	de bf       	out	0x3e, r29	; 62
      30:	cd bf       	out	0x3d, r28	; 61

00000032 <__do_copy_data>:
      32:	10 e0       	ldi	r17, 0x00	; 0
      34:	a0 e6       	ldi	r26, 0x60	; 96
      36:	b0 e0       	ldi	r27, 0x00	; 0
      38:	e0 e3       	ldi	r30, 0x30	; 48
      3a:	f3 e1       	ldi	r31, 0x13	; 19
      3c:	02 c0       	rjmp	.+4      	; 0x42 <.do_copy_data_start>

0000003e <.do_copy_data_loop>:
      3e:	05 90       	lpm	r0, Z+
      40:	0d 92       	st	X+, r0

00000042 <.do_copy_data_start>:
      42:	a4 39       	cpi	r26, 0x94	; 148
      44:	b1 07       	cpc	r27, r17
      46:	d9 f7       	brne	.-10     	; 0x3e <__SP_H__>

00000048 <__do_clear_bss>:
      48:	10 e0       	ldi	r17, 0x00	; 0
      4a:	a4 e9       	ldi	r26, 0x94	; 148
      4c:	b0 e0       	ldi	r27, 0x00	; 0
      4e:	01 c0       	rjmp	.+2      	; 0x52 <.do_clear_bss_start>

00000050 <.do_clear_bss_loop>:
      50:	1d 92       	st	X+, r1

00000052 <.do_clear_bss_start>:
      52:	ae 39       	cpi	r26, 0x9E	; 158
      54:	b1 07       	cpc	r27, r17
      56:	e1 f7       	brne	.-8      	; 0x50 <.do_clear_bss_loop>
      58:	01 c0       	rjmp	.+2      	; 0x5c <main>

0000005a <__bad_interrupt>:
      5a:	d2 cf       	rjmp	.-92     	; 0x0 <__heap_end>

0000005c <main>:
#include "FE_Lib_USART_100.h"

 

int main(void) {
      5c:	cf e5       	ldi	r28, 0x5F	; 95
      5e:	d4 e0       	ldi	r29, 0x04	; 4
      60:	de bf       	out	0x3e, r29	; 62
      62:	cd bf       	out	0x3d, r28	; 61

    // Variables

        char c;   

 

    // Initialize Flying Electron USART Library

    // for operating at 9600bps @ 8Mhz

        USART_Init(115200, 8);
      64:	20 e0       	ldi	r18, 0x00	; 0
      66:	30 e0       	ldi	r19, 0x00	; 0
      68:	40 e0       	ldi	r20, 0x00	; 0
      6a:	51 e4       	ldi	r21, 0x41	; 65
      6c:	60 e0       	ldi	r22, 0x00	; 0
      6e:	72 ec       	ldi	r23, 0xC2	; 194
      70:	81 e0       	ldi	r24, 0x01	; 1
      72:	90 e0       	ldi	r25, 0x00	; 0
      74:	24 d0       	rcall	.+72     	; 0xbe <USART_Init>

 

    // Transmit welcome message out serial port

        printf("Flying Electron USART Library Ready!\n");
      76:	80 e6       	ldi	r24, 0x60	; 96
      78:	90 e0       	ldi	r25, 0x00	; 0
      7a:	d6 d7       	rcall	.+4012   	; 0x1028 <puts>

 

    // Loop forever

        while (1) {

            // Wait for a character to be received

                while (USART_DataReady() == false) {
      7c:	19 d0       	rcall	.+50     	; 0xb0 <USART_DataReady>
      7e:	88 23       	and	r24, r24
      80:	e9 f3       	breq	.-6      	; 0x7c <main+0x20>

                    // Do nothing 

                }

 

            // Read the character from the serial port

                c = getchar();
      82:	80 91 94 00 	lds	r24, 0x0094
      86:	90 91 95 00 	lds	r25, 0x0095
      8a:	5e d7       	rcall	.+3772   	; 0xf48 <fgetc>

 

            // Transmit the character that was just received

            // back to the PC

                putchar(c);
      8c:	60 91 96 00 	lds	r22, 0x0096
      90:	70 91 97 00 	lds	r23, 0x0097
      94:	99 27       	eor	r25, r25
      96:	9b d7       	rcall	.+3894   	; 0xfce <fputc>
      98:	f1 cf       	rjmp	.-30     	; 0x7c <main+0x20>

0000009a <USART__GetChar>:
      9a:	5f 9b       	sbis	0x0b, 7	; 11
      9c:	fe cf       	rjmp	.-4      	; 0x9a <USART__GetChar>
      9e:	8c b1       	in	r24, 0x0c	; 12
      a0:	99 27       	eor	r25, r25
      a2:	08 95       	ret

000000a4 <USART__PutChar>:
      a4:	5d 9b       	sbis	0x0b, 5	; 11
      a6:	fe cf       	rjmp	.-4      	; 0xa4 <USART__PutChar>
      a8:	8c b9       	out	0x0c, r24	; 12
      aa:	80 e0       	ldi	r24, 0x00	; 0
      ac:	90 e0       	ldi	r25, 0x00	; 0
      ae:	08 95       	ret

000000b0 <USART_DataReady>:
      b0:	80 e0       	ldi	r24, 0x00	; 0
      b2:	90 e0       	ldi	r25, 0x00	; 0
      b4:	5f 9b       	sbis	0x0b, 7	; 11
      b6:	02 c0       	rjmp	.+4      	; 0xbc <USART_DataReady+0xc>
      b8:	81 e0       	ldi	r24, 0x01	; 1
      ba:	90 e0       	ldi	r25, 0x00	; 0
      bc:	08 95       	ret

000000be <USART_Init>:
      be:	6f 92       	push	r6
      c0:	7f 92       	push	r7
      c2:	8f 92       	push	r8
      c4:	9f 92       	push	r9
      c6:	af 92       	push	r10
      c8:	bf 92       	push	r11
      ca:	cf 92       	push	r12
      cc:	df 92       	push	r13
      ce:	ef 92       	push	r14
      d0:	ff 92       	push	r15
      d2:	0f 93       	push	r16
      d4:	1f 93       	push	r17
      d6:	5b 01       	movw	r10, r22
      d8:	6c 01       	movw	r12, r24
      da:	39 01       	movw	r6, r18
      dc:	4a 01       	movw	r8, r20
      de:	20 e0       	ldi	r18, 0x00	; 0
      e0:	34 e2       	ldi	r19, 0x24	; 36
      e2:	44 e7       	ldi	r20, 0x74	; 116
      e4:	59 e4       	ldi	r21, 0x49	; 73
      e6:	c4 01       	movw	r24, r8
      e8:	b3 01       	movw	r22, r6
      ea:	0e 94 e9 02 	call	0x5d2 <__mulsf3>
      ee:	3b 01       	movw	r6, r22
      f0:	4c 01       	movw	r8, r24
      f2:	c6 01       	movw	r24, r12
      f4:	b5 01       	movw	r22, r10
      f6:	a3 e0       	ldi	r26, 0x03	; 3
      f8:	66 0f       	add	r22, r22
      fa:	77 1f       	adc	r23, r23
      fc:	88 1f       	adc	r24, r24
      fe:	99 1f       	adc	r25, r25
     100:	aa 95       	dec	r26
     102:	d1 f7       	brne	.-12     	; 0xf8 <USART_Init+0x3a>
     104:	d4 fc       	sbrc	r13, 4
     106:	03 c0       	rjmp	.+6      	; 0x10e <USART_Init+0x50>
     108:	0e 94 db 04 	call	0x9b6 <__floatsisf>
     10c:	0a c0       	rjmp	.+20     	; 0x122 <USART_Init+0x64>
     10e:	96 95       	lsr	r25
     110:	87 95       	ror	r24
     112:	77 95       	ror	r23
     114:	67 95       	ror	r22
     116:	0e 94 db 04 	call	0x9b6 <__floatsisf>
     11a:	9b 01       	movw	r18, r22
     11c:	ac 01       	movw	r20, r24
     11e:	0e 94 8f 02 	call	0x51e <__addsf3>
     122:	9b 01       	movw	r18, r22
     124:	ac 01       	movw	r20, r24
     126:	c4 01       	movw	r24, r8
     128:	b3 01       	movw	r22, r6
     12a:	0e 94 ff 03 	call	0x7fe <__divsf3>
     12e:	dc 01       	movw	r26, r24
     130:	cb 01       	movw	r24, r22
     132:	20 e0       	ldi	r18, 0x00	; 0
     134:	30 e0       	ldi	r19, 0x00	; 0
     136:	40 e8       	ldi	r20, 0x80	; 128
     138:	5f e3       	ldi	r21, 0x3F	; 63
     13a:	bc 01       	movw	r22, r24
     13c:	cd 01       	movw	r24, r26
     13e:	0e 94 ba 02 	call	0x574 <__subsf3>
     142:	dc 01       	movw	r26, r24
     144:	cb 01       	movw	r24, r22
     146:	20 e0       	ldi	r18, 0x00	; 0
     148:	30 e0       	ldi	r19, 0x00	; 0
     14a:	40 e0       	ldi	r20, 0x00	; 0
     14c:	5f e3       	ldi	r21, 0x3F	; 63
     14e:	bc 01       	movw	r22, r24
     150:	cd 01       	movw	r24, r26
     152:	0e 94 8f 02 	call	0x51e <__addsf3>
     156:	dc 01       	movw	r26, r24
     158:	cb 01       	movw	r24, r22
     15a:	bc 01       	movw	r22, r24
     15c:	cd 01       	movw	r24, r26
     15e:	0e 94 47 01 	call	0x28e <__fixunssfsi>
     162:	dc 01       	movw	r26, r24
     164:	cb 01       	movw	r24, r22
     166:	8c 01       	movw	r16, r24
     168:	89 2f       	mov	r24, r25
     16a:	99 27       	eor	r25, r25
     16c:	80 bd       	out	0x20, r24	; 32
     16e:	09 b9       	out	0x09, r16	; 9
     170:	82 e0       	ldi	r24, 0x02	; 2
     172:	8b b9       	out	0x0b, r24	; 11
     174:	88 e1       	ldi	r24, 0x18	; 24
     176:	8a b9       	out	0x0a, r24	; 10
     178:	8e e8       	ldi	r24, 0x8E	; 142
     17a:	80 bd       	out	0x20, r24	; 32
     17c:	6d e4       	ldi	r22, 0x4D	; 77
     17e:	70 e0       	ldi	r23, 0x00	; 0
     180:	82 e5       	ldi	r24, 0x52	; 82
     182:	90 e0       	ldi	r25, 0x00	; 0
     184:	0e 94 5e 07 	call	0xebc <fdevopen>
     188:	98 01       	movw	r18, r16
     18a:	44 27       	eor	r20, r20
     18c:	55 27       	eor	r21, r21
     18e:	73 e0       	ldi	r23, 0x03	; 3
     190:	22 0f       	add	r18, r18
     192:	33 1f       	adc	r19, r19
     194:	44 1f       	adc	r20, r20
     196:	55 1f       	adc	r21, r21
     198:	7a 95       	dec	r23
     19a:	d1 f7       	brne	.-12     	; 0x190 <USART_Init+0xd2>
     19c:	28 5f       	subi	r18, 0xF8	; 248
     19e:	3f 4f       	sbci	r19, 0xFF	; 255
     1a0:	4f 4f       	sbci	r20, 0xFF	; 255
     1a2:	5f 4f       	sbci	r21, 0xFF	; 255
     1a4:	ca 01       	movw	r24, r20
     1a6:	b9 01       	movw	r22, r18
     1a8:	0e 94 db 04 	call	0x9b6 <__floatsisf>
     1ac:	dc 01       	movw	r26, r24
     1ae:	cb 01       	movw	r24, r22
     1b0:	9c 01       	movw	r18, r24
     1b2:	ad 01       	movw	r20, r26
     1b4:	c4 01       	movw	r24, r8
     1b6:	b3 01       	movw	r22, r6
     1b8:	0e 94 ff 03 	call	0x7fe <__divsf3>
     1bc:	dc 01       	movw	r26, r24
     1be:	cb 01       	movw	r24, r22
     1c0:	bc 01       	movw	r22, r24
     1c2:	cd 01       	movw	r24, r26
     1c4:	0e 94 47 01 	call	0x28e <__fixunssfsi>
     1c8:	9b 01       	movw	r18, r22
     1ca:	ac 01       	movw	r20, r24
     1cc:	97 fd       	sbrc	r25, 7
     1ce:	03 c0       	rjmp	.+6      	; 0x1d6 <USART_Init+0x118>
     1d0:	0e 94 db 04 	call	0x9b6 <__floatsisf>
     1d4:	16 c0       	rjmp	.+44     	; 0x202 <USART_Init+0x144>
     1d6:	dc 01       	movw	r26, r24
     1d8:	cb 01       	movw	r24, r22
     1da:	81 70       	andi	r24, 0x01	; 1
     1dc:	90 70       	andi	r25, 0x00	; 0
     1de:	a0 70       	andi	r26, 0x00	; 0
     1e0:	b0 70       	andi	r27, 0x00	; 0
     1e2:	56 95       	lsr	r21
     1e4:	47 95       	ror	r20
     1e6:	37 95       	ror	r19
     1e8:	27 95       	ror	r18
     1ea:	82 2b       	or	r24, r18
     1ec:	93 2b       	or	r25, r19
     1ee:	a4 2b       	or	r26, r20
     1f0:	b5 2b       	or	r27, r21
     1f2:	bc 01       	movw	r22, r24
     1f4:	cd 01       	movw	r24, r26
     1f6:	0e 94 db 04 	call	0x9b6 <__floatsisf>
     1fa:	9b 01       	movw	r18, r22
     1fc:	ac 01       	movw	r20, r24
     1fe:	0e 94 8f 02 	call	0x51e <__addsf3>
     202:	7b 01       	movw	r14, r22
     204:	8c 01       	movw	r16, r24
     206:	d7 fc       	sbrc	r13, 7
     208:	05 c0       	rjmp	.+10     	; 0x214 <USART_Init+0x156>
     20a:	c6 01       	movw	r24, r12
     20c:	b5 01       	movw	r22, r10
     20e:	0e 94 db 04 	call	0x9b6 <__floatsisf>
     212:	16 c0       	rjmp	.+44     	; 0x240 <USART_Init+0x182>
     214:	d6 01       	movw	r26, r12
     216:	c5 01       	movw	r24, r10
     218:	81 70       	andi	r24, 0x01	; 1
     21a:	90 70       	andi	r25, 0x00	; 0
     21c:	a0 70       	andi	r26, 0x00	; 0
     21e:	b0 70       	andi	r27, 0x00	; 0
     220:	d6 94       	lsr	r13
     222:	c7 94       	ror	r12
     224:	b7 94       	ror	r11
     226:	a7 94       	ror	r10
     228:	8a 29       	or	r24, r10
     22a:	9b 29       	or	r25, r11
     22c:	ac 29       	or	r26, r12
     22e:	bd 29       	or	r27, r13
     230:	bc 01       	movw	r22, r24
     232:	cd 01       	movw	r24, r26
     234:	0e 94 db 04 	call	0x9b6 <__floatsisf>
     238:	9b 01       	movw	r18, r22
     23a:	ac 01       	movw	r20, r24
     23c:	0e 94 8f 02 	call	0x51e <__addsf3>
     240:	9b 01       	movw	r18, r22
     242:	ac 01       	movw	r20, r24
     244:	c8 01       	movw	r24, r16
     246:	b7 01       	movw	r22, r14
     248:	0e 94 ff 03 	call	0x7fe <__divsf3>
     24c:	dc 01       	movw	r26, r24
     24e:	cb 01       	movw	r24, r22
     250:	20 e0       	ldi	r18, 0x00	; 0
     252:	30 e0       	ldi	r19, 0x00	; 0
     254:	40 e8       	ldi	r20, 0x80	; 128
     256:	5f e3       	ldi	r21, 0x3F	; 63
     258:	bc 01       	movw	r22, r24
     25a:	cd 01       	movw	r24, r26
     25c:	0e 94 ba 02 	call	0x574 <__subsf3>
     260:	dc 01       	movw	r26, r24
     262:	cb 01       	movw	r24, r22
     264:	20 e0       	ldi	r18, 0x00	; 0
     266:	30 e0       	ldi	r19, 0x00	; 0
     268:	48 ec       	ldi	r20, 0xC8	; 200
     26a:	52 e4       	ldi	r21, 0x42	; 66
     26c:	bc 01       	movw	r22, r24
     26e:	cd 01       	movw	r24, r26
     270:	0e 94 e9 02 	call	0x5d2 <__mulsf3>
     274:	1f 91       	pop	r17
     276:	0f 91       	pop	r16
     278:	ff 90       	pop	r15
     27a:	ef 90       	pop	r14
     27c:	df 90       	pop	r13
     27e:	cf 90       	pop	r12
     280:	bf 90       	pop	r11
     282:	af 90       	pop	r10
     284:	9f 90       	pop	r9
     286:	8f 90       	pop	r8
     288:	7f 90       	pop	r7
     28a:	6f 90       	pop	r6
     28c:	08 95       	ret

0000028e <__fixunssfsi>:
     28e:	ef 92       	push	r14
     290:	ff 92       	push	r15
     292:	0f 93       	push	r16
     294:	1f 93       	push	r17
     296:	7b 01       	movw	r14, r22
     298:	8c 01       	movw	r16, r24
     29a:	20 e0       	ldi	r18, 0x00	; 0
     29c:	30 e0       	ldi	r19, 0x00	; 0
     29e:	40 e0       	ldi	r20, 0x00	; 0
     2a0:	5f e4       	ldi	r21, 0x4F	; 79
     2a2:	58 d3       	rcall	.+1712   	; 0x954 <__gesf2>
     2a4:	88 23       	and	r24, r24
     2a6:	8c f0       	brlt	.+34     	; 0x2ca <__fixunssfsi+0x3c>
     2a8:	20 e0       	ldi	r18, 0x00	; 0
     2aa:	30 e0       	ldi	r19, 0x00	; 0
     2ac:	40 e0       	ldi	r20, 0x00	; 0
     2ae:	5f ec       	ldi	r21, 0xCF	; 207
     2b0:	c8 01       	movw	r24, r16
     2b2:	b7 01       	movw	r22, r14
     2b4:	34 d1       	rcall	.+616    	; 0x51e <__addsf3>
     2b6:	dc 01       	movw	r26, r24
     2b8:	cb 01       	movw	r24, r22
     2ba:	bc 01       	movw	r22, r24
     2bc:	cd 01       	movw	r24, r26
     2be:	dc d3       	rcall	.+1976   	; 0xa78 <__fixsfsi>
     2c0:	60 50       	subi	r22, 0x00	; 0
     2c2:	70 40       	sbci	r23, 0x00	; 0
     2c4:	80 40       	sbci	r24, 0x00	; 0
     2c6:	90 48       	sbci	r25, 0x80	; 128
     2c8:	03 c0       	rjmp	.+6      	; 0x2d0 <__fixunssfsi+0x42>
     2ca:	c8 01       	movw	r24, r16
     2cc:	b7 01       	movw	r22, r14
     2ce:	d4 d3       	rcall	.+1960   	; 0xa78 <__fixsfsi>
     2d0:	1f 91       	pop	r17
     2d2:	0f 91       	pop	r16
     2d4:	ff 90       	pop	r15
     2d6:	ef 90       	pop	r14
     2d8:	08 95       	ret

000002da <_fpadd_parts>:
     2da:	a0 e0       	ldi	r26, 0x00	; 0
     2dc:	b0 e0       	ldi	r27, 0x00	; 0
     2de:	e2 e7       	ldi	r30, 0x72	; 114
     2e0:	f1 e0       	ldi	r31, 0x01	; 1
     2e2:	ef c7       	rjmp	.+4062   	; 0x12c2 <__prologue_saves__>
     2e4:	8c 01       	movw	r16, r24
     2e6:	7b 01       	movw	r14, r22
     2e8:	5a 01       	movw	r10, r20
     2ea:	dc 01       	movw	r26, r24
     2ec:	8c 91       	ld	r24, X
     2ee:	82 30       	cpi	r24, 0x02	; 2
     2f0:	58 f0       	brcs	.+22     	; 0x308 <_fpadd_parts+0x2e>
     2f2:	fb 01       	movw	r30, r22
     2f4:	90 81       	ld	r25, Z
     2f6:	92 30       	cpi	r25, 0x02	; 2
     2f8:	10 f4       	brcc	.+4      	; 0x2fe <_fpadd_parts+0x24>
     2fa:	a7 01       	movw	r20, r14
     2fc:	0b c1       	rjmp	.+534    	; 0x514 <__stack+0xb5>
     2fe:	84 30       	cpi	r24, 0x04	; 4
     300:	29 f4       	brne	.+10     	; 0x30c <_fpadd_parts+0x32>
     302:	94 30       	cpi	r25, 0x04	; 4
     304:	09 f4       	brne	.+2      	; 0x308 <_fpadd_parts+0x2e>
     306:	a6 c0       	rjmp	.+332    	; 0x454 <_fpadd_parts+0x17a>
     308:	a8 01       	movw	r20, r16
     30a:	04 c1       	rjmp	.+520    	; 0x514 <__stack+0xb5>
     30c:	94 30       	cpi	r25, 0x04	; 4
     30e:	a9 f3       	breq	.-22     	; 0x2fa <_fpadd_parts+0x20>
     310:	92 30       	cpi	r25, 0x02	; 2
     312:	09 f4       	brne	.+2      	; 0x316 <_fpadd_parts+0x3c>
     314:	a9 c0       	rjmp	.+338    	; 0x468 <__stack+0x9>
     316:	82 30       	cpi	r24, 0x02	; 2
     318:	81 f3       	breq	.-32     	; 0x2fa <_fpadd_parts+0x20>
     31a:	f8 01       	movw	r30, r16
     31c:	c2 80       	ldd	r12, Z+2	; 0x02
     31e:	d3 80       	ldd	r13, Z+3	; 0x03
     320:	fb 01       	movw	r30, r22
     322:	62 81       	ldd	r22, Z+2	; 0x02
     324:	73 81       	ldd	r23, Z+3	; 0x03
     326:	f8 01       	movw	r30, r16
     328:	24 81       	ldd	r18, Z+4	; 0x04
     32a:	35 81       	ldd	r19, Z+5	; 0x05
     32c:	46 81       	ldd	r20, Z+6	; 0x06
     32e:	57 81       	ldd	r21, Z+7	; 0x07
     330:	f7 01       	movw	r30, r14
     332:	64 80       	ldd	r6, Z+4	; 0x04
     334:	75 80       	ldd	r7, Z+5	; 0x05
     336:	86 80       	ldd	r8, Z+6	; 0x06
     338:	97 80       	ldd	r9, Z+7	; 0x07
     33a:	c6 01       	movw	r24, r12
     33c:	86 1b       	sub	r24, r22
     33e:	97 0b       	sbc	r25, r23
     340:	97 fd       	sbrc	r25, 7
     342:	d8 c0       	rjmp	.+432    	; 0x4f4 <__stack+0x95>
     344:	80 97       	sbiw	r24, 0x20	; 32
     346:	0c f4       	brge	.+2      	; 0x34a <_fpadd_parts+0x70>
     348:	6c c0       	rjmp	.+216    	; 0x422 <_fpadd_parts+0x148>
     34a:	6c 15       	cp	r22, r12
     34c:	7d 05       	cpc	r23, r13
     34e:	0c f0       	brlt	.+2      	; 0x352 <_fpadd_parts+0x78>
     350:	ad c0       	rjmp	.+346    	; 0x4ac <__stack+0x4d>
     352:	66 24       	eor	r6, r6
     354:	77 24       	eor	r7, r7
     356:	43 01       	movw	r8, r6
     358:	f8 01       	movw	r30, r16
     35a:	61 81       	ldd	r22, Z+1	; 0x01
     35c:	f7 01       	movw	r30, r14
     35e:	81 81       	ldd	r24, Z+1	; 0x01
     360:	68 17       	cp	r22, r24
     362:	09 f4       	brne	.+2      	; 0x366 <_fpadd_parts+0x8c>
     364:	99 c0       	rjmp	.+306    	; 0x498 <__stack+0x39>
     366:	66 23       	and	r22, r22
     368:	09 f4       	brne	.+2      	; 0x36c <_fpadd_parts+0x92>
     36a:	91 c0       	rjmp	.+290    	; 0x48e <__stack+0x2f>
     36c:	62 1a       	sub	r6, r18
     36e:	73 0a       	sbc	r7, r19
     370:	84 0a       	sbc	r8, r20
     372:	95 0a       	sbc	r9, r21
     374:	a4 01       	movw	r20, r8
     376:	93 01       	movw	r18, r6
     378:	57 fd       	sbrc	r21, 7
     37a:	c0 c0       	rjmp	.+384    	; 0x4fc <__stack+0x9d>
     37c:	f5 01       	movw	r30, r10
     37e:	11 82       	std	Z+1, r1	; 0x01
     380:	b6 01       	movw	r22, r12
     382:	19 01       	movw	r2, r18
     384:	2a 01       	movw	r4, r20
     386:	79 01       	movw	r14, r18
     388:	8a 01       	movw	r16, r20
     38a:	39 01       	movw	r6, r18
     38c:	4a 01       	movw	r8, r20
     38e:	08 94       	sec
     390:	61 08       	sbc	r6, r1
     392:	71 08       	sbc	r7, r1
     394:	81 08       	sbc	r8, r1
     396:	91 08       	sbc	r9, r1
     398:	ff ef       	ldi	r31, 0xFF	; 255
     39a:	6f 16       	cp	r6, r31
     39c:	ff ef       	ldi	r31, 0xFF	; 255
     39e:	7f 06       	cpc	r7, r31
     3a0:	ff ef       	ldi	r31, 0xFF	; 255
     3a2:	8f 06       	cpc	r8, r31
     3a4:	ff e3       	ldi	r31, 0x3F	; 63
     3a6:	9f 06       	cpc	r9, r31
     3a8:	f0 f4       	brcc	.+60     	; 0x3e6 <_fpadd_parts+0x10c>
     3aa:	a8 01       	movw	r20, r16
     3ac:	97 01       	movw	r18, r14
     3ae:	22 0f       	add	r18, r18
     3b0:	33 1f       	adc	r19, r19
     3b2:	44 1f       	adc	r20, r20
     3b4:	55 1f       	adc	r21, r21
     3b6:	19 01       	movw	r2, r18
     3b8:	2a 01       	movw	r4, r20
     3ba:	b6 01       	movw	r22, r12
     3bc:	61 50       	subi	r22, 0x01	; 1
     3be:	70 40       	sbci	r23, 0x00	; 0
     3c0:	6b 01       	movw	r12, r22
     3c2:	79 01       	movw	r14, r18
     3c4:	8a 01       	movw	r16, r20
     3c6:	39 01       	movw	r6, r18
     3c8:	4a 01       	movw	r8, r20
     3ca:	08 94       	sec
     3cc:	61 08       	sbc	r6, r1
     3ce:	71 08       	sbc	r7, r1
     3d0:	81 08       	sbc	r8, r1
     3d2:	91 08       	sbc	r9, r1
     3d4:	8f ef       	ldi	r24, 0xFF	; 255
     3d6:	68 16       	cp	r6, r24
     3d8:	8f ef       	ldi	r24, 0xFF	; 255
     3da:	78 06       	cpc	r7, r24
     3dc:	8f ef       	ldi	r24, 0xFF	; 255
     3de:	88 06       	cpc	r8, r24
     3e0:	8f e3       	ldi	r24, 0x3F	; 63
     3e2:	98 06       	cpc	r9, r24
     3e4:	10 f3       	brcs	.-60     	; 0x3aa <_fpadd_parts+0xd0>
     3e6:	83 e0       	ldi	r24, 0x03	; 3
     3e8:	d5 01       	movw	r26, r10
     3ea:	8c 93       	st	X, r24
     3ec:	57 fc       	sbrc	r5, 7
     3ee:	64 c0       	rjmp	.+200    	; 0x4b8 <__stack+0x59>
     3f0:	f5 01       	movw	r30, r10
     3f2:	24 83       	std	Z+4, r18	; 0x04
     3f4:	35 83       	std	Z+5, r19	; 0x05
     3f6:	46 83       	std	Z+6, r20	; 0x06
     3f8:	57 83       	std	Z+7, r21	; 0x07
     3fa:	73 83       	std	Z+3, r23	; 0x03
     3fc:	62 83       	std	Z+2, r22	; 0x02
     3fe:	a5 01       	movw	r20, r10
     400:	89 c0       	rjmp	.+274    	; 0x514 <__stack+0xb5>
     402:	6f 5f       	subi	r22, 0xFF	; 255
     404:	7f 4f       	sbci	r23, 0xFF	; 255
     406:	d4 01       	movw	r26, r8
     408:	c3 01       	movw	r24, r6
     40a:	81 70       	andi	r24, 0x01	; 1
     40c:	90 70       	andi	r25, 0x00	; 0
     40e:	a0 70       	andi	r26, 0x00	; 0
     410:	b0 70       	andi	r27, 0x00	; 0
     412:	96 94       	lsr	r9
     414:	87 94       	ror	r8
     416:	77 94       	ror	r7
     418:	67 94       	ror	r6
     41a:	68 2a       	or	r6, r24
     41c:	79 2a       	or	r7, r25
     41e:	8a 2a       	or	r8, r26
     420:	9b 2a       	or	r9, r27
     422:	6c 15       	cp	r22, r12
     424:	7d 05       	cpc	r23, r13
     426:	6c f3       	brlt	.-38     	; 0x402 <_fpadd_parts+0x128>
     428:	11 c0       	rjmp	.+34     	; 0x44c <_fpadd_parts+0x172>
     42a:	08 94       	sec
     42c:	c1 1c       	adc	r12, r1
     42e:	d1 1c       	adc	r13, r1
     430:	da 01       	movw	r26, r20
     432:	c9 01       	movw	r24, r18
     434:	81 70       	andi	r24, 0x01	; 1
     436:	90 70       	andi	r25, 0x00	; 0
     438:	a0 70       	andi	r26, 0x00	; 0
     43a:	b0 70       	andi	r27, 0x00	; 0
     43c:	56 95       	lsr	r21
     43e:	47 95       	ror	r20
     440:	37 95       	ror	r19
     442:	27 95       	ror	r18
     444:	28 2b       	or	r18, r24
     446:	39 2b       	or	r19, r25
     448:	4a 2b       	or	r20, r26
     44a:	5b 2b       	or	r21, r27
     44c:	c6 16       	cp	r12, r22
     44e:	d7 06       	cpc	r13, r23
     450:	64 f3       	brlt	.-40     	; 0x42a <_fpadd_parts+0x150>
     452:	82 cf       	rjmp	.-252    	; 0x358 <_fpadd_parts+0x7e>
     454:	f8 01       	movw	r30, r16
     456:	91 81       	ldd	r25, Z+1	; 0x01
     458:	fb 01       	movw	r30, r22
     45a:	81 81       	ldd	r24, Z+1	; 0x01
     45c:	98 17       	cp	r25, r24
     45e:	09 f4       	brne	.+2      	; 0x462 <__stack+0x3>
     460:	53 cf       	rjmp	.-346    	; 0x308 <_fpadd_parts+0x2e>
     462:	45 e8       	ldi	r20, 0x85	; 133
     464:	50 e0       	ldi	r21, 0x00	; 0
     466:	56 c0       	rjmp	.+172    	; 0x514 <__stack+0xb5>
     468:	82 30       	cpi	r24, 0x02	; 2
     46a:	09 f0       	breq	.+2      	; 0x46e <__stack+0xf>
     46c:	4d cf       	rjmp	.-358    	; 0x308 <_fpadd_parts+0x2e>
     46e:	88 e0       	ldi	r24, 0x08	; 8
     470:	da 01       	movw	r26, r20
     472:	f8 01       	movw	r30, r16
     474:	01 90       	ld	r0, Z+
     476:	0d 92       	st	X+, r0
     478:	8a 95       	dec	r24
     47a:	e1 f7       	brne	.-8      	; 0x474 <__stack+0x15>
     47c:	f8 01       	movw	r30, r16
     47e:	81 81       	ldd	r24, Z+1	; 0x01
     480:	fb 01       	movw	r30, r22
     482:	91 81       	ldd	r25, Z+1	; 0x01
     484:	89 23       	and	r24, r25
     486:	fa 01       	movw	r30, r20
     488:	81 83       	std	Z+1, r24	; 0x01
     48a:	a5 01       	movw	r20, r10
     48c:	43 c0       	rjmp	.+134    	; 0x514 <__stack+0xb5>
     48e:	26 19       	sub	r18, r6
     490:	37 09       	sbc	r19, r7
     492:	48 09       	sbc	r20, r8
     494:	59 09       	sbc	r21, r9
     496:	70 cf       	rjmp	.-288    	; 0x378 <_fpadd_parts+0x9e>
     498:	f5 01       	movw	r30, r10
     49a:	61 83       	std	Z+1, r22	; 0x01
     49c:	b6 01       	movw	r22, r12
     49e:	26 0d       	add	r18, r6
     4a0:	37 1d       	adc	r19, r7
     4a2:	48 1d       	adc	r20, r8
     4a4:	59 1d       	adc	r21, r9
     4a6:	19 01       	movw	r2, r18
     4a8:	2a 01       	movw	r4, r20
     4aa:	9d cf       	rjmp	.-198    	; 0x3e6 <_fpadd_parts+0x10c>
     4ac:	6b 01       	movw	r12, r22
     4ae:	20 e0       	ldi	r18, 0x00	; 0
     4b0:	30 e0       	ldi	r19, 0x00	; 0
     4b2:	40 e0       	ldi	r20, 0x00	; 0
     4b4:	50 e0       	ldi	r21, 0x00	; 0
     4b6:	50 cf       	rjmp	.-352    	; 0x358 <_fpadd_parts+0x7e>
     4b8:	d2 01       	movw	r26, r4
     4ba:	c1 01       	movw	r24, r2
     4bc:	b6 95       	lsr	r27
     4be:	a7 95       	ror	r26
     4c0:	97 95       	ror	r25
     4c2:	87 95       	ror	r24
     4c4:	21 e0       	ldi	r18, 0x01	; 1
     4c6:	30 e0       	ldi	r19, 0x00	; 0
     4c8:	40 e0       	ldi	r20, 0x00	; 0
     4ca:	50 e0       	ldi	r21, 0x00	; 0
     4cc:	22 22       	and	r2, r18
     4ce:	33 22       	and	r3, r19
     4d0:	44 22       	and	r4, r20
     4d2:	55 22       	and	r5, r21
     4d4:	28 2a       	or	r2, r24
     4d6:	39 2a       	or	r3, r25
     4d8:	4a 2a       	or	r4, r26
     4da:	5b 2a       	or	r5, r27
     4dc:	f5 01       	movw	r30, r10
     4de:	24 82       	std	Z+4, r2	; 0x04
     4e0:	35 82       	std	Z+5, r3	; 0x05
     4e2:	46 82       	std	Z+6, r4	; 0x06
     4e4:	57 82       	std	Z+7, r5	; 0x07
     4e6:	08 94       	sec
     4e8:	c1 1c       	adc	r12, r1
     4ea:	d1 1c       	adc	r13, r1
     4ec:	d3 82       	std	Z+3, r13	; 0x03
     4ee:	c2 82       	std	Z+2, r12	; 0x02
     4f0:	a5 01       	movw	r20, r10
     4f2:	10 c0       	rjmp	.+32     	; 0x514 <__stack+0xb5>
     4f4:	90 95       	com	r25
     4f6:	81 95       	neg	r24
     4f8:	9f 4f       	sbci	r25, 0xFF	; 255
     4fa:	24 cf       	rjmp	.-440    	; 0x344 <_fpadd_parts+0x6a>
     4fc:	81 e0       	ldi	r24, 0x01	; 1
     4fe:	f5 01       	movw	r30, r10
     500:	81 83       	std	Z+1, r24	; 0x01
     502:	b6 01       	movw	r22, r12
     504:	50 95       	com	r21
     506:	40 95       	com	r20
     508:	30 95       	com	r19
     50a:	21 95       	neg	r18
     50c:	3f 4f       	sbci	r19, 0xFF	; 255
     50e:	4f 4f       	sbci	r20, 0xFF	; 255
     510:	5f 4f       	sbci	r21, 0xFF	; 255
     512:	37 cf       	rjmp	.-402    	; 0x382 <_fpadd_parts+0xa8>
     514:	ca 01       	movw	r24, r20
     516:	e2 e1       	ldi	r30, 0x12	; 18
     518:	cd b7       	in	r28, 0x3d	; 61
     51a:	de b7       	in	r29, 0x3e	; 62
     51c:	ee c6       	rjmp	.+3548   	; 0x12fa <__epilogue_restores__>

0000051e <__addsf3>:
     51e:	a0 e2       	ldi	r26, 0x20	; 32
     520:	b0 e0       	ldi	r27, 0x00	; 0
     522:	e4 e9       	ldi	r30, 0x94	; 148
     524:	f2 e0       	ldi	r31, 0x02	; 2
     526:	db c6       	rjmp	.+3510   	; 0x12de <__prologue_saves__+0x1c>
     528:	dc 01       	movw	r26, r24
     52a:	cb 01       	movw	r24, r22
     52c:	89 8f       	std	Y+25, r24	; 0x19
     52e:	9a 8f       	std	Y+26, r25	; 0x1a
     530:	ab 8f       	std	Y+27, r26	; 0x1b
     532:	bc 8f       	std	Y+28, r27	; 0x1c
     534:	2d 8f       	std	Y+29, r18	; 0x1d
     536:	3e 8f       	std	Y+30, r19	; 0x1e
     538:	4f 8f       	std	Y+31, r20	; 0x1f
     53a:	58 a3       	std	Y+32, r21	; 0x20
     53c:	be 01       	movw	r22, r28
     53e:	6f 5f       	subi	r22, 0xFF	; 255
     540:	7f 4f       	sbci	r23, 0xFF	; 255
     542:	ce 01       	movw	r24, r28
     544:	49 96       	adiw	r24, 0x19	; 25
     546:	cd d3       	rcall	.+1946   	; 0xce2 <__unpack_f>
     548:	8e 01       	movw	r16, r28
     54a:	07 5f       	subi	r16, 0xF7	; 247
     54c:	1f 4f       	sbci	r17, 0xFF	; 255
     54e:	b8 01       	movw	r22, r16
     550:	ce 01       	movw	r24, r28
     552:	4d 96       	adiw	r24, 0x1d	; 29
     554:	c6 d3       	rcall	.+1932   	; 0xce2 <__unpack_f>
     556:	ae 01       	movw	r20, r28
     558:	4f 5e       	subi	r20, 0xEF	; 239
     55a:	5f 4f       	sbci	r21, 0xFF	; 255
     55c:	b8 01       	movw	r22, r16
     55e:	ce 01       	movw	r24, r28
     560:	01 96       	adiw	r24, 0x01	; 1
     562:	bb de       	rcall	.-650    	; 0x2da <_fpadd_parts>
     564:	d8 d2       	rcall	.+1456   	; 0xb16 <__pack_f>
     566:	dc 01       	movw	r26, r24
     568:	cb 01       	movw	r24, r22
     56a:	bc 01       	movw	r22, r24
     56c:	cd 01       	movw	r24, r26
     56e:	e4 e0       	ldi	r30, 0x04	; 4
     570:	a0 96       	adiw	r28, 0x20	; 32
     572:	d1 c6       	rjmp	.+3490   	; 0x1316 <__epilogue_restores__+0x1c>

00000574 <__subsf3>:
     574:	a0 e2       	ldi	r26, 0x20	; 32
     576:	b0 e0       	ldi	r27, 0x00	; 0
     578:	ef eb       	ldi	r30, 0xBF	; 191
     57a:	f2 e0       	ldi	r31, 0x02	; 2
     57c:	b0 c6       	rjmp	.+3424   	; 0x12de <__prologue_saves__+0x1c>
     57e:	dc 01       	movw	r26, r24
     580:	cb 01       	movw	r24, r22
     582:	89 8f       	std	Y+25, r24	; 0x19
     584:	9a 8f       	std	Y+26, r25	; 0x1a
     586:	ab 8f       	std	Y+27, r26	; 0x1b
     588:	bc 8f       	std	Y+28, r27	; 0x1c
     58a:	2d 8f       	std	Y+29, r18	; 0x1d
     58c:	3e 8f       	std	Y+30, r19	; 0x1e
     58e:	4f 8f       	std	Y+31, r20	; 0x1f
     590:	58 a3       	std	Y+32, r21	; 0x20
     592:	be 01       	movw	r22, r28
     594:	6f 5f       	subi	r22, 0xFF	; 255
     596:	7f 4f       	sbci	r23, 0xFF	; 255
     598:	ce 01       	movw	r24, r28
     59a:	49 96       	adiw	r24, 0x19	; 25
     59c:	a2 d3       	rcall	.+1860   	; 0xce2 <__unpack_f>
     59e:	8e 01       	movw	r16, r28
     5a0:	07 5f       	subi	r16, 0xF7	; 247
     5a2:	1f 4f       	sbci	r17, 0xFF	; 255
     5a4:	b8 01       	movw	r22, r16
     5a6:	ce 01       	movw	r24, r28
     5a8:	4d 96       	adiw	r24, 0x1d	; 29
     5aa:	9b d3       	rcall	.+1846   	; 0xce2 <__unpack_f>
     5ac:	8a 85       	ldd	r24, Y+10	; 0x0a
     5ae:	91 e0       	ldi	r25, 0x01	; 1
     5b0:	89 27       	eor	r24, r25
     5b2:	8a 87       	std	Y+10, r24	; 0x0a
     5b4:	ae 01       	movw	r20, r28
     5b6:	4f 5e       	subi	r20, 0xEF	; 239
     5b8:	5f 4f       	sbci	r21, 0xFF	; 255
     5ba:	b8 01       	movw	r22, r16
     5bc:	ce 01       	movw	r24, r28
     5be:	01 96       	adiw	r24, 0x01	; 1
     5c0:	8c de       	rcall	.-744    	; 0x2da <_fpadd_parts>
     5c2:	a9 d2       	rcall	.+1362   	; 0xb16 <__pack_f>
     5c4:	dc 01       	movw	r26, r24
     5c6:	cb 01       	movw	r24, r22
     5c8:	bc 01       	movw	r22, r24
     5ca:	cd 01       	movw	r24, r26
     5cc:	e4 e0       	ldi	r30, 0x04	; 4
     5ce:	a0 96       	adiw	r28, 0x20	; 32
     5d0:	a2 c6       	rjmp	.+3396   	; 0x1316 <__epilogue_restores__+0x1c>

000005d2 <__mulsf3>:
     5d2:	a0 e2       	ldi	r26, 0x20	; 32
     5d4:	b0 e0       	ldi	r27, 0x00	; 0
     5d6:	ee ee       	ldi	r30, 0xEE	; 238
     5d8:	f2 e0       	ldi	r31, 0x02	; 2
     5da:	73 c6       	rjmp	.+3302   	; 0x12c2 <__prologue_saves__>
     5dc:	dc 01       	movw	r26, r24
     5de:	cb 01       	movw	r24, r22
     5e0:	89 8f       	std	Y+25, r24	; 0x19
     5e2:	9a 8f       	std	Y+26, r25	; 0x1a
     5e4:	ab 8f       	std	Y+27, r26	; 0x1b
     5e6:	bc 8f       	std	Y+28, r27	; 0x1c
     5e8:	2d 8f       	std	Y+29, r18	; 0x1d
     5ea:	3e 8f       	std	Y+30, r19	; 0x1e
     5ec:	4f 8f       	std	Y+31, r20	; 0x1f
     5ee:	58 a3       	std	Y+32, r21	; 0x20
     5f0:	be 01       	movw	r22, r28
     5f2:	6f 5f       	subi	r22, 0xFF	; 255
     5f4:	7f 4f       	sbci	r23, 0xFF	; 255
     5f6:	ce 01       	movw	r24, r28
     5f8:	49 96       	adiw	r24, 0x19	; 25
     5fa:	73 d3       	rcall	.+1766   	; 0xce2 <__unpack_f>
     5fc:	69 e0       	ldi	r22, 0x09	; 9
     5fe:	70 e0       	ldi	r23, 0x00	; 0
     600:	6c 0f       	add	r22, r28
     602:	7d 1f       	adc	r23, r29
     604:	ce 01       	movw	r24, r28
     606:	4d 96       	adiw	r24, 0x1d	; 29
     608:	6c d3       	rcall	.+1752   	; 0xce2 <__unpack_f>
     60a:	fe 01       	movw	r30, r28
     60c:	31 96       	adiw	r30, 0x01	; 1
     60e:	66 24       	eor	r6, r6
     610:	77 24       	eor	r7, r7
     612:	43 01       	movw	r8, r6
     614:	13 01       	movw	r2, r6
     616:	24 01       	movw	r4, r8
     618:	89 81       	ldd	r24, Y+1	; 0x01
     61a:	82 30       	cpi	r24, 0x02	; 2
     61c:	98 f0       	brcs	.+38     	; 0x644 <__mulsf3+0x72>
     61e:	99 85       	ldd	r25, Y+9	; 0x09
     620:	92 30       	cpi	r25, 0x02	; 2
     622:	58 f4       	brcc	.+22     	; 0x63a <__mulsf3+0x68>
     624:	20 e0       	ldi	r18, 0x00	; 0
     626:	91 81       	ldd	r25, Z+1	; 0x01
     628:	8a 85       	ldd	r24, Y+10	; 0x0a
     62a:	98 13       	cpse	r25, r24
     62c:	21 e0       	ldi	r18, 0x01	; 1
     62e:	2a 87       	std	Y+10, r18	; 0x0a
     630:	69 e0       	ldi	r22, 0x09	; 9
     632:	70 e0       	ldi	r23, 0x00	; 0
     634:	6c 0f       	add	r22, r28
     636:	7d 1f       	adc	r23, r29
     638:	d9 c0       	rjmp	.+434    	; 0x7ec <__mulsf3+0x21a>
     63a:	84 30       	cpi	r24, 0x04	; 4
     63c:	59 f4       	brne	.+22     	; 0x654 <__mulsf3+0x82>
     63e:	92 30       	cpi	r25, 0x02	; 2
     640:	09 f4       	brne	.+2      	; 0x644 <__mulsf3+0x72>
     642:	5b c0       	rjmp	.+182    	; 0x6fa <__mulsf3+0x128>
     644:	20 e0       	ldi	r18, 0x00	; 0
     646:	91 81       	ldd	r25, Z+1	; 0x01
     648:	8a 85       	ldd	r24, Y+10	; 0x0a
     64a:	98 13       	cpse	r25, r24
     64c:	21 e0       	ldi	r18, 0x01	; 1
     64e:	21 83       	std	Z+1, r18	; 0x01
     650:	bf 01       	movw	r22, r30
     652:	cc c0       	rjmp	.+408    	; 0x7ec <__mulsf3+0x21a>
     654:	94 30       	cpi	r25, 0x04	; 4
     656:	09 f4       	brne	.+2      	; 0x65a <__mulsf3+0x88>
     658:	4d c0       	rjmp	.+154    	; 0x6f4 <__mulsf3+0x122>
     65a:	82 30       	cpi	r24, 0x02	; 2
     65c:	99 f3       	breq	.-26     	; 0x644 <__mulsf3+0x72>
     65e:	92 30       	cpi	r25, 0x02	; 2
     660:	09 f3       	breq	.-62     	; 0x624 <__mulsf3+0x52>
     662:	ed 80       	ldd	r14, Y+5	; 0x05
     664:	fe 80       	ldd	r15, Y+6	; 0x06
     666:	0f 81       	ldd	r16, Y+7	; 0x07
     668:	18 85       	ldd	r17, Y+8	; 0x08
     66a:	2d 85       	ldd	r18, Y+13	; 0x0d
     66c:	3e 85       	ldd	r19, Y+14	; 0x0e
     66e:	4f 85       	ldd	r20, Y+15	; 0x0f
     670:	58 89       	ldd	r21, Y+16	; 0x10
     672:	64 01       	movw	r12, r8
     674:	53 01       	movw	r10, r6
     676:	6f e1       	ldi	r22, 0x1F	; 31
     678:	70 e0       	ldi	r23, 0x00	; 0
     67a:	0c c0       	rjmp	.+24     	; 0x694 <__mulsf3+0xc2>
     67c:	22 0f       	add	r18, r18
     67e:	33 1f       	adc	r19, r19
     680:	44 1f       	adc	r20, r20
     682:	55 1f       	adc	r21, r21
     684:	16 95       	lsr	r17
     686:	07 95       	ror	r16
     688:	f7 94       	ror	r15
     68a:	e7 94       	ror	r14
     68c:	61 50       	subi	r22, 0x01	; 1
     68e:	70 40       	sbci	r23, 0x00	; 0
     690:	77 fd       	sbrc	r23, 7
     692:	36 c0       	rjmp	.+108    	; 0x700 <__mulsf3+0x12e>
     694:	d8 01       	movw	r26, r16
     696:	c7 01       	movw	r24, r14
     698:	81 70       	andi	r24, 0x01	; 1
     69a:	90 70       	andi	r25, 0x00	; 0
     69c:	a0 70       	andi	r26, 0x00	; 0
     69e:	b0 70       	andi	r27, 0x00	; 0
     6a0:	89 2b       	or	r24, r25
     6a2:	c9 f0       	breq	.+50     	; 0x6d6 <__mulsf3+0x104>
     6a4:	80 e0       	ldi	r24, 0x00	; 0
     6a6:	90 e0       	ldi	r25, 0x00	; 0
     6a8:	22 0e       	add	r2, r18
     6aa:	33 1e       	adc	r3, r19
     6ac:	44 1e       	adc	r4, r20
     6ae:	55 1e       	adc	r5, r21
     6b0:	22 16       	cp	r2, r18
     6b2:	33 06       	cpc	r3, r19
     6b4:	44 06       	cpc	r4, r20
     6b6:	55 06       	cpc	r5, r21
     6b8:	10 f4       	brcc	.+4      	; 0x6be <__mulsf3+0xec>
     6ba:	81 e0       	ldi	r24, 0x01	; 1
     6bc:	90 e0       	ldi	r25, 0x00	; 0
     6be:	aa 27       	eor	r26, r26
     6c0:	97 fd       	sbrc	r25, 7
     6c2:	a0 95       	com	r26
     6c4:	ba 2f       	mov	r27, r26
     6c6:	8a 0d       	add	r24, r10
     6c8:	9b 1d       	adc	r25, r11
     6ca:	ac 1d       	adc	r26, r12
     6cc:	bd 1d       	adc	r27, r13
     6ce:	68 0e       	add	r6, r24
     6d0:	79 1e       	adc	r7, r25
     6d2:	8a 1e       	adc	r8, r26
     6d4:	9b 1e       	adc	r9, r27
     6d6:	aa 0c       	add	r10, r10
     6d8:	bb 1c       	adc	r11, r11
     6da:	cc 1c       	adc	r12, r12
     6dc:	dd 1c       	adc	r13, r13
     6de:	57 ff       	sbrs	r21, 7
     6e0:	cd cf       	rjmp	.-102    	; 0x67c <__mulsf3+0xaa>
     6e2:	81 e0       	ldi	r24, 0x01	; 1
     6e4:	90 e0       	ldi	r25, 0x00	; 0
     6e6:	a0 e0       	ldi	r26, 0x00	; 0
     6e8:	b0 e0       	ldi	r27, 0x00	; 0
     6ea:	a8 2a       	or	r10, r24
     6ec:	b9 2a       	or	r11, r25
     6ee:	ca 2a       	or	r12, r26
     6f0:	db 2a       	or	r13, r27
     6f2:	c4 cf       	rjmp	.-120    	; 0x67c <__mulsf3+0xaa>
     6f4:	82 30       	cpi	r24, 0x02	; 2
     6f6:	09 f0       	breq	.+2      	; 0x6fa <__mulsf3+0x128>
     6f8:	95 cf       	rjmp	.-214    	; 0x624 <__mulsf3+0x52>
     6fa:	65 e8       	ldi	r22, 0x85	; 133
     6fc:	70 e0       	ldi	r23, 0x00	; 0
     6fe:	76 c0       	rjmp	.+236    	; 0x7ec <__mulsf3+0x21a>
     700:	22 81       	ldd	r18, Z+2	; 0x02
     702:	33 81       	ldd	r19, Z+3	; 0x03
     704:	8b 85       	ldd	r24, Y+11	; 0x0b
     706:	9c 85       	ldd	r25, Y+12	; 0x0c
     708:	28 0f       	add	r18, r24
     70a:	39 1f       	adc	r19, r25
     70c:	2e 5f       	subi	r18, 0xFE	; 254
     70e:	3f 4f       	sbci	r19, 0xFF	; 255
     710:	a9 01       	movw	r20, r18
     712:	60 e0       	ldi	r22, 0x00	; 0
     714:	91 81       	ldd	r25, Z+1	; 0x01
     716:	8a 85       	ldd	r24, Y+10	; 0x0a
     718:	98 13       	cpse	r25, r24
     71a:	61 e0       	ldi	r22, 0x01	; 1
     71c:	6a 8b       	std	Y+18, r22	; 0x12
     71e:	97 fe       	sbrs	r9, 7
     720:	0f c0       	rjmp	.+30     	; 0x740 <__mulsf3+0x16e>
     722:	2f c0       	rjmp	.+94     	; 0x782 <__mulsf3+0x1b0>
     724:	ca 01       	movw	r24, r20
     726:	01 97       	sbiw	r24, 0x01	; 1
     728:	ac 01       	movw	r20, r24
     72a:	9c 01       	movw	r18, r24
     72c:	66 0c       	add	r6, r6
     72e:	77 1c       	adc	r7, r7
     730:	88 1c       	adc	r8, r8
     732:	99 1c       	adc	r9, r9
     734:	57 fc       	sbrc	r5, 7
     736:	41 c0       	rjmp	.+130    	; 0x7ba <__mulsf3+0x1e8>
     738:	22 0c       	add	r2, r2
     73a:	33 1c       	adc	r3, r3
     73c:	44 1c       	adc	r4, r4
     73e:	55 1c       	adc	r5, r5
     740:	90 e0       	ldi	r25, 0x00	; 0
     742:	69 16       	cp	r6, r25
     744:	90 e0       	ldi	r25, 0x00	; 0
     746:	79 06       	cpc	r7, r25
     748:	90 e0       	ldi	r25, 0x00	; 0
     74a:	89 06       	cpc	r8, r25
     74c:	90 e4       	ldi	r25, 0x40	; 64
     74e:	99 06       	cpc	r9, r25
     750:	48 f3       	brcs	.-46     	; 0x724 <__mulsf3+0x152>
     752:	3c 8b       	std	Y+20, r19	; 0x14
     754:	2b 8b       	std	Y+19, r18	; 0x13
     756:	d4 01       	movw	r26, r8
     758:	c3 01       	movw	r24, r6
     75a:	8f 77       	andi	r24, 0x7F	; 127
     75c:	90 70       	andi	r25, 0x00	; 0
     75e:	a0 70       	andi	r26, 0x00	; 0
     760:	b0 70       	andi	r27, 0x00	; 0
     762:	80 34       	cpi	r24, 0x40	; 64
     764:	91 05       	cpc	r25, r1
     766:	a1 05       	cpc	r26, r1
     768:	b1 05       	cpc	r27, r1
     76a:	81 f1       	breq	.+96     	; 0x7cc <__mulsf3+0x1fa>
     76c:	6d 8a       	std	Y+21, r6	; 0x15
     76e:	7e 8a       	std	Y+22, r7	; 0x16
     770:	8f 8a       	std	Y+23, r8	; 0x17
     772:	98 8e       	std	Y+24, r9	; 0x18
     774:	83 e0       	ldi	r24, 0x03	; 3
     776:	89 8b       	std	Y+17, r24	; 0x11
     778:	61 e1       	ldi	r22, 0x11	; 17
     77a:	70 e0       	ldi	r23, 0x00	; 0
     77c:	6c 0f       	add	r22, r28
     77e:	7d 1f       	adc	r23, r29
     780:	35 c0       	rjmp	.+106    	; 0x7ec <__mulsf3+0x21a>
     782:	2f 5f       	subi	r18, 0xFF	; 255
     784:	3f 4f       	sbci	r19, 0xFF	; 255
     786:	a9 01       	movw	r20, r18
     788:	d4 01       	movw	r26, r8
     78a:	c3 01       	movw	r24, r6
     78c:	81 70       	andi	r24, 0x01	; 1
     78e:	90 70       	andi	r25, 0x00	; 0
     790:	a0 70       	andi	r26, 0x00	; 0
     792:	b0 70       	andi	r27, 0x00	; 0
     794:	89 2b       	or	r24, r25
     796:	61 f0       	breq	.+24     	; 0x7b0 <__mulsf3+0x1de>
     798:	56 94       	lsr	r5
     79a:	47 94       	ror	r4
     79c:	37 94       	ror	r3
     79e:	27 94       	ror	r2
     7a0:	80 e0       	ldi	r24, 0x00	; 0
     7a2:	90 e0       	ldi	r25, 0x00	; 0
     7a4:	a0 e0       	ldi	r26, 0x00	; 0
     7a6:	b0 e8       	ldi	r27, 0x80	; 128
     7a8:	28 2a       	or	r2, r24
     7aa:	39 2a       	or	r3, r25
     7ac:	4a 2a       	or	r4, r26
     7ae:	5b 2a       	or	r5, r27
     7b0:	96 94       	lsr	r9
     7b2:	87 94       	ror	r8
     7b4:	77 94       	ror	r7
     7b6:	67 94       	ror	r6
     7b8:	c3 cf       	rjmp	.-122    	; 0x740 <__mulsf3+0x16e>
     7ba:	81 e0       	ldi	r24, 0x01	; 1
     7bc:	90 e0       	ldi	r25, 0x00	; 0
     7be:	a0 e0       	ldi	r26, 0x00	; 0
     7c0:	b0 e0       	ldi	r27, 0x00	; 0
     7c2:	68 2a       	or	r6, r24
     7c4:	79 2a       	or	r7, r25
     7c6:	8a 2a       	or	r8, r26
     7c8:	9b 2a       	or	r9, r27
     7ca:	b6 cf       	rjmp	.-148    	; 0x738 <__mulsf3+0x166>
     7cc:	67 fc       	sbrc	r6, 7
     7ce:	05 c0       	rjmp	.+10     	; 0x7da <__mulsf3+0x208>
     7d0:	21 14       	cp	r2, r1
     7d2:	31 04       	cpc	r3, r1
     7d4:	41 04       	cpc	r4, r1
     7d6:	51 04       	cpc	r5, r1
     7d8:	49 f2       	breq	.-110    	; 0x76c <__mulsf3+0x19a>
     7da:	80 e4       	ldi	r24, 0x40	; 64
     7dc:	90 e0       	ldi	r25, 0x00	; 0
     7de:	a0 e0       	ldi	r26, 0x00	; 0
     7e0:	b0 e0       	ldi	r27, 0x00	; 0
     7e2:	68 0e       	add	r6, r24
     7e4:	79 1e       	adc	r7, r25
     7e6:	8a 1e       	adc	r8, r26
     7e8:	9b 1e       	adc	r9, r27
     7ea:	c0 cf       	rjmp	.-128    	; 0x76c <__mulsf3+0x19a>
     7ec:	cb 01       	movw	r24, r22
     7ee:	93 d1       	rcall	.+806    	; 0xb16 <__pack_f>
     7f0:	dc 01       	movw	r26, r24
     7f2:	cb 01       	movw	r24, r22
     7f4:	bc 01       	movw	r22, r24
     7f6:	cd 01       	movw	r24, r26
     7f8:	e2 e1       	ldi	r30, 0x12	; 18
     7fa:	a0 96       	adiw	r28, 0x20	; 32
     7fc:	7e c5       	rjmp	.+2812   	; 0x12fa <__epilogue_restores__>

000007fe <__divsf3>:
     7fe:	a8 e1       	ldi	r26, 0x18	; 24
     800:	b0 e0       	ldi	r27, 0x00	; 0
     802:	e4 e0       	ldi	r30, 0x04	; 4
     804:	f4 e0       	ldi	r31, 0x04	; 4
     806:	65 c5       	rjmp	.+2762   	; 0x12d2 <__prologue_saves__+0x10>
     808:	dc 01       	movw	r26, r24
     80a:	cb 01       	movw	r24, r22
     80c:	89 8b       	std	Y+17, r24	; 0x11
     80e:	9a 8b       	std	Y+18, r25	; 0x12
     810:	ab 8b       	std	Y+19, r26	; 0x13
     812:	bc 8b       	std	Y+20, r27	; 0x14
     814:	2d 8b       	std	Y+21, r18	; 0x15
     816:	3e 8b       	std	Y+22, r19	; 0x16
     818:	4f 8b       	std	Y+23, r20	; 0x17
     81a:	58 8f       	std	Y+24, r21	; 0x18
     81c:	be 01       	movw	r22, r28
     81e:	6f 5f       	subi	r22, 0xFF	; 255
     820:	7f 4f       	sbci	r23, 0xFF	; 255
     822:	ce 01       	movw	r24, r28
     824:	41 96       	adiw	r24, 0x11	; 17
     826:	5d d2       	rcall	.+1210   	; 0xce2 <__unpack_f>
     828:	8e 01       	movw	r16, r28
     82a:	07 5f       	subi	r16, 0xF7	; 247
     82c:	1f 4f       	sbci	r17, 0xFF	; 255
     82e:	b8 01       	movw	r22, r16
     830:	ce 01       	movw	r24, r28
     832:	45 96       	adiw	r24, 0x15	; 21
     834:	56 d2       	rcall	.+1196   	; 0xce2 <__unpack_f>
     836:	fe 01       	movw	r30, r28
     838:	31 96       	adiw	r30, 0x01	; 1
     83a:	29 81       	ldd	r18, Y+1	; 0x01
     83c:	22 30       	cpi	r18, 0x02	; 2
     83e:	08 f4       	brcc	.+2      	; 0x842 <__divsf3+0x44>
     840:	5f c0       	rjmp	.+190    	; 0x900 <__divsf3+0x102>
     842:	39 85       	ldd	r19, Y+9	; 0x09
     844:	32 30       	cpi	r19, 0x02	; 2
     846:	10 f4       	brcc	.+4      	; 0x84c <__divsf3+0x4e>
     848:	b8 01       	movw	r22, r16
     84a:	7b c0       	rjmp	.+246    	; 0x942 <__divsf3+0x144>
     84c:	81 81       	ldd	r24, Z+1	; 0x01
     84e:	9a 85       	ldd	r25, Y+10	; 0x0a
     850:	89 27       	eor	r24, r25
     852:	81 83       	std	Z+1, r24	; 0x01
     854:	24 30       	cpi	r18, 0x04	; 4
     856:	09 f4       	brne	.+2      	; 0x85a <__divsf3+0x5c>
     858:	55 c0       	rjmp	.+170    	; 0x904 <__divsf3+0x106>
     85a:	22 30       	cpi	r18, 0x02	; 2
     85c:	09 f4       	brne	.+2      	; 0x860 <__divsf3+0x62>
     85e:	52 c0       	rjmp	.+164    	; 0x904 <__divsf3+0x106>
     860:	34 30       	cpi	r19, 0x04	; 4
     862:	09 f4       	brne	.+2      	; 0x866 <__divsf3+0x68>
     864:	54 c0       	rjmp	.+168    	; 0x90e <__divsf3+0x110>
     866:	32 30       	cpi	r19, 0x02	; 2
     868:	09 f4       	brne	.+2      	; 0x86c <__divsf3+0x6e>
     86a:	58 c0       	rjmp	.+176    	; 0x91c <__divsf3+0x11e>
     86c:	6b 81       	ldd	r22, Y+3	; 0x03
     86e:	7c 81       	ldd	r23, Y+4	; 0x04
     870:	8b 85       	ldd	r24, Y+11	; 0x0b
     872:	9c 85       	ldd	r25, Y+12	; 0x0c
     874:	68 1b       	sub	r22, r24
     876:	79 0b       	sbc	r23, r25
     878:	2d 81       	ldd	r18, Y+5	; 0x05
     87a:	3e 81       	ldd	r19, Y+6	; 0x06
     87c:	4f 81       	ldd	r20, Y+7	; 0x07
     87e:	58 85       	ldd	r21, Y+8	; 0x08
     880:	ed 84       	ldd	r14, Y+13	; 0x0d
     882:	fe 84       	ldd	r15, Y+14	; 0x0e
     884:	0f 85       	ldd	r16, Y+15	; 0x0f
     886:	18 89       	ldd	r17, Y+16	; 0x10
     888:	2e 15       	cp	r18, r14
     88a:	3f 05       	cpc	r19, r15
     88c:	40 07       	cpc	r20, r16
     88e:	51 07       	cpc	r21, r17
     890:	30 f4       	brcc	.+12     	; 0x89e <__divsf3+0xa0>
     892:	22 0f       	add	r18, r18
     894:	33 1f       	adc	r19, r19
     896:	44 1f       	adc	r20, r20
     898:	55 1f       	adc	r21, r21
     89a:	61 50       	subi	r22, 0x01	; 1
     89c:	70 40       	sbci	r23, 0x00	; 0
     89e:	7c 83       	std	Y+4, r23	; 0x04
     8a0:	6b 83       	std	Y+3, r22	; 0x03
     8a2:	80 e0       	ldi	r24, 0x00	; 0
     8a4:	90 e0       	ldi	r25, 0x00	; 0
     8a6:	a0 e0       	ldi	r26, 0x00	; 0
     8a8:	b0 e4       	ldi	r27, 0x40	; 64
     8aa:	aa 24       	eor	r10, r10
     8ac:	bb 24       	eor	r11, r11
     8ae:	65 01       	movw	r12, r10
     8b0:	2e 15       	cp	r18, r14
     8b2:	3f 05       	cpc	r19, r15
     8b4:	40 07       	cpc	r20, r16
     8b6:	51 07       	cpc	r21, r17
     8b8:	40 f0       	brcs	.+16     	; 0x8ca <__divsf3+0xcc>
     8ba:	a8 2a       	or	r10, r24
     8bc:	b9 2a       	or	r11, r25
     8be:	ca 2a       	or	r12, r26
     8c0:	db 2a       	or	r13, r27
     8c2:	2e 19       	sub	r18, r14
     8c4:	3f 09       	sbc	r19, r15
     8c6:	40 0b       	sbc	r20, r16
     8c8:	51 0b       	sbc	r21, r17
     8ca:	b6 95       	lsr	r27
     8cc:	a7 95       	ror	r26
     8ce:	97 95       	ror	r25
     8d0:	87 95       	ror	r24
     8d2:	22 0f       	add	r18, r18
     8d4:	33 1f       	adc	r19, r19
     8d6:	44 1f       	adc	r20, r20
     8d8:	55 1f       	adc	r21, r21
     8da:	00 97       	sbiw	r24, 0x00	; 0
     8dc:	a1 05       	cpc	r26, r1
     8de:	b1 05       	cpc	r27, r1
     8e0:	39 f7       	brne	.-50     	; 0x8b0 <__divsf3+0xb2>
     8e2:	d6 01       	movw	r26, r12
     8e4:	c5 01       	movw	r24, r10
     8e6:	8f 77       	andi	r24, 0x7F	; 127
     8e8:	90 70       	andi	r25, 0x00	; 0
     8ea:	a0 70       	andi	r26, 0x00	; 0
     8ec:	b0 70       	andi	r27, 0x00	; 0
     8ee:	80 34       	cpi	r24, 0x40	; 64
     8f0:	91 05       	cpc	r25, r1
     8f2:	a1 05       	cpc	r26, r1
     8f4:	b1 05       	cpc	r27, r1
     8f6:	a9 f0       	breq	.+42     	; 0x922 <__divsf3+0x124>
     8f8:	a4 82       	std	Z+4, r10	; 0x04
     8fa:	b5 82       	std	Z+5, r11	; 0x05
     8fc:	c6 82       	std	Z+6, r12	; 0x06
     8fe:	d7 82       	std	Z+7, r13	; 0x07
     900:	bf 01       	movw	r22, r30
     902:	1f c0       	rjmp	.+62     	; 0x942 <__divsf3+0x144>
     904:	23 17       	cp	r18, r19
     906:	e1 f7       	brne	.-8      	; 0x900 <__divsf3+0x102>
     908:	65 e8       	ldi	r22, 0x85	; 133
     90a:	70 e0       	ldi	r23, 0x00	; 0
     90c:	1a c0       	rjmp	.+52     	; 0x942 <__divsf3+0x144>
     90e:	1d 82       	std	Y+5, r1	; 0x05
     910:	1e 82       	std	Y+6, r1	; 0x06
     912:	1f 82       	std	Y+7, r1	; 0x07
     914:	18 86       	std	Y+8, r1	; 0x08
     916:	1c 82       	std	Y+4, r1	; 0x04
     918:	1b 82       	std	Y+3, r1	; 0x03
     91a:	f2 cf       	rjmp	.-28     	; 0x900 <__divsf3+0x102>
     91c:	84 e0       	ldi	r24, 0x04	; 4
     91e:	89 83       	std	Y+1, r24	; 0x01
     920:	ef cf       	rjmp	.-34     	; 0x900 <__divsf3+0x102>
     922:	a7 fc       	sbrc	r10, 7
     924:	05 c0       	rjmp	.+10     	; 0x930 <__divsf3+0x132>
     926:	21 15       	cp	r18, r1
     928:	31 05       	cpc	r19, r1
     92a:	41 05       	cpc	r20, r1
     92c:	51 05       	cpc	r21, r1
     92e:	21 f3       	breq	.-56     	; 0x8f8 <__divsf3+0xfa>
     930:	80 e4       	ldi	r24, 0x40	; 64
     932:	90 e0       	ldi	r25, 0x00	; 0
     934:	a0 e0       	ldi	r26, 0x00	; 0
     936:	b0 e0       	ldi	r27, 0x00	; 0
     938:	a8 0e       	add	r10, r24
     93a:	b9 1e       	adc	r11, r25
     93c:	ca 1e       	adc	r12, r26
     93e:	db 1e       	adc	r13, r27
     940:	db cf       	rjmp	.-74     	; 0x8f8 <__divsf3+0xfa>
     942:	cb 01       	movw	r24, r22
     944:	e8 d0       	rcall	.+464    	; 0xb16 <__pack_f>
     946:	dc 01       	movw	r26, r24
     948:	cb 01       	movw	r24, r22
     94a:	bc 01       	movw	r22, r24
     94c:	cd 01       	movw	r24, r26
     94e:	ea e0       	ldi	r30, 0x0A	; 10
     950:	68 96       	adiw	r28, 0x18	; 24
     952:	db c4       	rjmp	.+2486   	; 0x130a <__epilogue_restores__+0x10>

00000954 <__gesf2>:
     954:	a8 e1       	ldi	r26, 0x18	; 24
     956:	b0 e0       	ldi	r27, 0x00	; 0
     958:	ef ea       	ldi	r30, 0xAF	; 175
     95a:	f4 e0       	ldi	r31, 0x04	; 4
     95c:	c0 c4       	rjmp	.+2432   	; 0x12de <__prologue_saves__+0x1c>
     95e:	dc 01       	movw	r26, r24
     960:	cb 01       	movw	r24, r22
     962:	89 8b       	std	Y+17, r24	; 0x11
     964:	9a 8b       	std	Y+18, r25	; 0x12
     966:	ab 8b       	std	Y+19, r26	; 0x13
     968:	bc 8b       	std	Y+20, r27	; 0x14
     96a:	2d 8b       	std	Y+21, r18	; 0x15
     96c:	3e 8b       	std	Y+22, r19	; 0x16
     96e:	4f 8b       	std	Y+23, r20	; 0x17
     970:	58 8f       	std	Y+24, r21	; 0x18
     972:	be 01       	movw	r22, r28
     974:	6f 5f       	subi	r22, 0xFF	; 255
     976:	7f 4f       	sbci	r23, 0xFF	; 255
     978:	ce 01       	movw	r24, r28
     97a:	41 96       	adiw	r24, 0x11	; 17
     97c:	b2 d1       	rcall	.+868    	; 0xce2 <__unpack_f>
     97e:	8e 01       	movw	r16, r28
     980:	07 5f       	subi	r16, 0xF7	; 247
     982:	1f 4f       	sbci	r17, 0xFF	; 255
     984:	b8 01       	movw	r22, r16
     986:	ce 01       	movw	r24, r28
     988:	45 96       	adiw	r24, 0x15	; 21
     98a:	ab d1       	rcall	.+854    	; 0xce2 <__unpack_f>
     98c:	89 81       	ldd	r24, Y+1	; 0x01
     98e:	82 30       	cpi	r24, 0x02	; 2
     990:	18 f0       	brcs	.+6      	; 0x998 <__gesf2+0x44>
     992:	89 85       	ldd	r24, Y+9	; 0x09
     994:	82 30       	cpi	r24, 0x02	; 2
     996:	18 f4       	brcc	.+6      	; 0x99e <__gesf2+0x4a>
     998:	2f ef       	ldi	r18, 0xFF	; 255
     99a:	3f ef       	ldi	r19, 0xFF	; 255
     99c:	08 c0       	rjmp	.+16     	; 0x9ae <__gesf2+0x5a>
     99e:	b8 01       	movw	r22, r16
     9a0:	ce 01       	movw	r24, r28
     9a2:	01 96       	adiw	r24, 0x01	; 1
     9a4:	18 d2       	rcall	.+1072   	; 0xdd6 <__fpcmp_parts_f>
     9a6:	28 2f       	mov	r18, r24
     9a8:	33 27       	eor	r19, r19
     9aa:	27 fd       	sbrc	r18, 7
     9ac:	30 95       	com	r19
     9ae:	c9 01       	movw	r24, r18
     9b0:	e4 e0       	ldi	r30, 0x04	; 4
     9b2:	68 96       	adiw	r28, 0x18	; 24
     9b4:	b0 c4       	rjmp	.+2400   	; 0x1316 <__epilogue_restores__+0x1c>

000009b6 <__floatsisf>:
     9b6:	a8 e0       	ldi	r26, 0x08	; 8
     9b8:	b0 e0       	ldi	r27, 0x00	; 0
     9ba:	e0 ee       	ldi	r30, 0xE0	; 224
     9bc:	f4 e0       	ldi	r31, 0x04	; 4
     9be:	8d c4       	rjmp	.+2330   	; 0x12da <__prologue_saves__+0x18>
     9c0:	9b 01       	movw	r18, r22
     9c2:	ac 01       	movw	r20, r24
     9c4:	7b 01       	movw	r14, r22
     9c6:	8c 01       	movw	r16, r24
     9c8:	ee 24       	eor	r14, r14
     9ca:	17 fd       	sbrc	r17, 7
     9cc:	e3 94       	inc	r14
     9ce:	ff 24       	eor	r15, r15
     9d0:	00 27       	eor	r16, r16
     9d2:	11 27       	eor	r17, r17
     9d4:	ea 82       	std	Y+2, r14	; 0x02
     9d6:	21 15       	cp	r18, r1
     9d8:	31 05       	cpc	r19, r1
     9da:	41 05       	cpc	r20, r1
     9dc:	51 05       	cpc	r21, r1
     9de:	31 f4       	brne	.+12     	; 0x9ec <__floatsisf+0x36>
     9e0:	82 e0       	ldi	r24, 0x02	; 2
     9e2:	89 83       	std	Y+1, r24	; 0x01
     9e4:	ce 01       	movw	r24, r28
     9e6:	01 96       	adiw	r24, 0x01	; 1
     9e8:	96 d0       	rcall	.+300    	; 0xb16 <__pack_f>
     9ea:	43 c0       	rjmp	.+134    	; 0xa72 <__floatsisf+0xbc>
     9ec:	83 e0       	ldi	r24, 0x03	; 3
     9ee:	89 83       	std	Y+1, r24	; 0x01
     9f0:	6e e1       	ldi	r22, 0x1E	; 30
     9f2:	70 e0       	ldi	r23, 0x00	; 0
     9f4:	cb 01       	movw	r24, r22
     9f6:	ee 20       	and	r14, r14
     9f8:	31 f5       	brne	.+76     	; 0xa46 <__floatsisf+0x90>
     9fa:	79 01       	movw	r14, r18
     9fc:	8a 01       	movw	r16, r20
     9fe:	a8 01       	movw	r20, r16
     a00:	97 01       	movw	r18, r14
     a02:	20 30       	cpi	r18, 0x00	; 0
     a04:	e0 e0       	ldi	r30, 0x00	; 0
     a06:	3e 07       	cpc	r19, r30
     a08:	e0 e0       	ldi	r30, 0x00	; 0
     a0a:	4e 07       	cpc	r20, r30
     a0c:	e0 e4       	ldi	r30, 0x40	; 64
     a0e:	5e 07       	cpc	r21, r30
     a10:	98 f4       	brcc	.+38     	; 0xa38 <__floatsisf+0x82>
     a12:	79 01       	movw	r14, r18
     a14:	8a 01       	movw	r16, r20
     a16:	ee 0c       	add	r14, r14
     a18:	ff 1c       	adc	r15, r15
     a1a:	00 1f       	adc	r16, r16
     a1c:	11 1f       	adc	r17, r17
     a1e:	01 97       	sbiw	r24, 0x01	; 1
     a20:	bc 01       	movw	r22, r24
     a22:	a8 01       	movw	r20, r16
     a24:	97 01       	movw	r18, r14
     a26:	e0 e0       	ldi	r30, 0x00	; 0
     a28:	ee 16       	cp	r14, r30
     a2a:	e0 e0       	ldi	r30, 0x00	; 0
     a2c:	fe 06       	cpc	r15, r30
     a2e:	e0 e0       	ldi	r30, 0x00	; 0
     a30:	0e 07       	cpc	r16, r30
     a32:	e0 e4       	ldi	r30, 0x40	; 64
     a34:	1e 07       	cpc	r17, r30
     a36:	68 f3       	brcs	.-38     	; 0xa12 <__floatsisf+0x5c>
     a38:	ed 82       	std	Y+5, r14	; 0x05
     a3a:	fe 82       	std	Y+6, r15	; 0x06
     a3c:	0f 83       	std	Y+7, r16	; 0x07
     a3e:	18 87       	std	Y+8, r17	; 0x08
     a40:	7c 83       	std	Y+4, r23	; 0x04
     a42:	6b 83       	std	Y+3, r22	; 0x03
     a44:	cf cf       	rjmp	.-98     	; 0x9e4 <__floatsisf+0x2e>
     a46:	20 30       	cpi	r18, 0x00	; 0
     a48:	e0 e0       	ldi	r30, 0x00	; 0
     a4a:	3e 07       	cpc	r19, r30
     a4c:	e0 e0       	ldi	r30, 0x00	; 0
     a4e:	4e 07       	cpc	r20, r30
     a50:	e0 e8       	ldi	r30, 0x80	; 128
     a52:	5e 07       	cpc	r21, r30
     a54:	41 f0       	breq	.+16     	; 0xa66 <__floatsisf+0xb0>
     a56:	ee 24       	eor	r14, r14
     a58:	ff 24       	eor	r15, r15
     a5a:	87 01       	movw	r16, r14
     a5c:	e2 1a       	sub	r14, r18
     a5e:	f3 0a       	sbc	r15, r19
     a60:	04 0b       	sbc	r16, r20
     a62:	15 0b       	sbc	r17, r21
     a64:	cc cf       	rjmp	.-104    	; 0x9fe <__floatsisf+0x48>
     a66:	7c 83       	std	Y+4, r23	; 0x04
     a68:	6b 83       	std	Y+3, r22	; 0x03
     a6a:	60 e0       	ldi	r22, 0x00	; 0
     a6c:	70 e0       	ldi	r23, 0x00	; 0
     a6e:	80 e0       	ldi	r24, 0x00	; 0
     a70:	9f ec       	ldi	r25, 0xCF	; 207
     a72:	e6 e0       	ldi	r30, 0x06	; 6
     a74:	28 96       	adiw	r28, 0x08	; 8
     a76:	4d c4       	rjmp	.+2202   	; 0x1312 <__epilogue_restores__+0x18>

00000a78 <__fixsfsi>:
     a78:	ac e0       	ldi	r26, 0x0C	; 12
     a7a:	b0 e0       	ldi	r27, 0x00	; 0
     a7c:	e1 e4       	ldi	r30, 0x41	; 65
     a7e:	f5 e0       	ldi	r31, 0x05	; 5
     a80:	30 c4       	rjmp	.+2144   	; 0x12e2 <__prologue_saves__+0x20>
     a82:	dc 01       	movw	r26, r24
     a84:	cb 01       	movw	r24, r22
     a86:	89 87       	std	Y+9, r24	; 0x09
     a88:	9a 87       	std	Y+10, r25	; 0x0a
     a8a:	ab 87       	std	Y+11, r26	; 0x0b
     a8c:	bc 87       	std	Y+12, r27	; 0x0c
     a8e:	be 01       	movw	r22, r28
     a90:	6f 5f       	subi	r22, 0xFF	; 255
     a92:	7f 4f       	sbci	r23, 0xFF	; 255
     a94:	ce 01       	movw	r24, r28
     a96:	09 96       	adiw	r24, 0x09	; 9
     a98:	24 d1       	rcall	.+584    	; 0xce2 <__unpack_f>
     a9a:	89 81       	ldd	r24, Y+1	; 0x01
     a9c:	82 30       	cpi	r24, 0x02	; 2
     a9e:	11 f0       	breq	.+4      	; 0xaa4 <__fixsfsi+0x2c>
     aa0:	82 30       	cpi	r24, 0x02	; 2
     aa2:	28 f4       	brcc	.+10     	; 0xaae <__fixsfsi+0x36>
     aa4:	60 e0       	ldi	r22, 0x00	; 0
     aa6:	70 e0       	ldi	r23, 0x00	; 0
     aa8:	80 e0       	ldi	r24, 0x00	; 0
     aaa:	90 e0       	ldi	r25, 0x00	; 0
     aac:	31 c0       	rjmp	.+98     	; 0xb10 <__fixsfsi+0x98>
     aae:	84 30       	cpi	r24, 0x04	; 4
     ab0:	39 f0       	breq	.+14     	; 0xac0 <__fixsfsi+0x48>
     ab2:	2b 81       	ldd	r18, Y+3	; 0x03
     ab4:	3c 81       	ldd	r19, Y+4	; 0x04
     ab6:	37 fd       	sbrc	r19, 7
     ab8:	f5 cf       	rjmp	.-22     	; 0xaa4 <__fixsfsi+0x2c>
     aba:	2f 31       	cpi	r18, 0x1F	; 31
     abc:	31 05       	cpc	r19, r1
     abe:	6c f0       	brlt	.+26     	; 0xada <__fixsfsi+0x62>
     ac0:	8a 81       	ldd	r24, Y+2	; 0x02
     ac2:	88 23       	and	r24, r24
     ac4:	29 f0       	breq	.+10     	; 0xad0 <__fixsfsi+0x58>
     ac6:	60 e0       	ldi	r22, 0x00	; 0
     ac8:	70 e0       	ldi	r23, 0x00	; 0
     aca:	80 e0       	ldi	r24, 0x00	; 0
     acc:	90 e8       	ldi	r25, 0x80	; 128
     ace:	20 c0       	rjmp	.+64     	; 0xb10 <__fixsfsi+0x98>
     ad0:	6f ef       	ldi	r22, 0xFF	; 255
     ad2:	7f ef       	ldi	r23, 0xFF	; 255
     ad4:	8f ef       	ldi	r24, 0xFF	; 255
     ad6:	9f e7       	ldi	r25, 0x7F	; 127
     ad8:	1b c0       	rjmp	.+54     	; 0xb10 <__fixsfsi+0x98>
     ada:	8e e1       	ldi	r24, 0x1E	; 30
     adc:	90 e0       	ldi	r25, 0x00	; 0
     ade:	82 1b       	sub	r24, r18
     ae0:	93 0b       	sbc	r25, r19
     ae2:	2d 81       	ldd	r18, Y+5	; 0x05
     ae4:	3e 81       	ldd	r19, Y+6	; 0x06
     ae6:	4f 81       	ldd	r20, Y+7	; 0x07
     ae8:	58 85       	ldd	r21, Y+8	; 0x08
     aea:	04 c0       	rjmp	.+8      	; 0xaf4 <__fixsfsi+0x7c>
     aec:	56 95       	lsr	r21
     aee:	47 95       	ror	r20
     af0:	37 95       	ror	r19
     af2:	27 95       	ror	r18
     af4:	8a 95       	dec	r24
     af6:	d2 f7       	brpl	.-12     	; 0xaec <__fixsfsi+0x74>
     af8:	8a 81       	ldd	r24, Y+2	; 0x02
     afa:	88 23       	and	r24, r24
     afc:	39 f0       	breq	.+14     	; 0xb0c <__fixsfsi+0x94>
     afe:	50 95       	com	r21
     b00:	40 95       	com	r20
     b02:	30 95       	com	r19
     b04:	21 95       	neg	r18
     b06:	3f 4f       	sbci	r19, 0xFF	; 255
     b08:	4f 4f       	sbci	r20, 0xFF	; 255
     b0a:	5f 4f       	sbci	r21, 0xFF	; 255
     b0c:	ca 01       	movw	r24, r20
     b0e:	b9 01       	movw	r22, r18
     b10:	e2 e0       	ldi	r30, 0x02	; 2
     b12:	2c 96       	adiw	r28, 0x0c	; 12
     b14:	02 c4       	rjmp	.+2052   	; 0x131a <__epilogue_restores__+0x20>

00000b16 <__pack_f>:
     b16:	a0 e0       	ldi	r26, 0x00	; 0
     b18:	b0 e0       	ldi	r27, 0x00	; 0
     b1a:	e0 e9       	ldi	r30, 0x90	; 144
     b1c:	f5 e0       	ldi	r31, 0x05	; 5
     b1e:	d7 c3       	rjmp	.+1966   	; 0x12ce <__prologue_saves__+0xc>
     b20:	88 24       	eor	r8, r8
     b22:	99 24       	eor	r9, r9
     b24:	54 01       	movw	r10, r8
     b26:	dc 01       	movw	r26, r24
     b28:	fc 01       	movw	r30, r24
     b2a:	24 81       	ldd	r18, Z+4	; 0x04
     b2c:	35 81       	ldd	r19, Z+5	; 0x05
     b2e:	46 81       	ldd	r20, Z+6	; 0x06
     b30:	57 81       	ldd	r21, Z+7	; 0x07
     b32:	81 81       	ldd	r24, Z+1	; 0x01
     b34:	08 2f       	mov	r16, r24
     b36:	11 27       	eor	r17, r17
     b38:	60 e0       	ldi	r22, 0x00	; 0
     b3a:	70 e0       	ldi	r23, 0x00	; 0
     b3c:	8c 91       	ld	r24, X
     b3e:	82 30       	cpi	r24, 0x02	; 2
     b40:	20 f4       	brcc	.+8      	; 0xb4a <__pack_f+0x34>
     b42:	6f ef       	ldi	r22, 0xFF	; 255
     b44:	70 e0       	ldi	r23, 0x00	; 0
     b46:	40 61       	ori	r20, 0x10	; 16
     b48:	a4 c0       	rjmp	.+328    	; 0xc92 <__pack_f+0x17c>
     b4a:	84 30       	cpi	r24, 0x04	; 4
     b4c:	09 f4       	brne	.+2      	; 0xb50 <__pack_f+0x3a>
     b4e:	64 c0       	rjmp	.+200    	; 0xc18 <__pack_f+0x102>
     b50:	82 30       	cpi	r24, 0x02	; 2
     b52:	09 f4       	brne	.+2      	; 0xb56 <__pack_f+0x40>
     b54:	63 c0       	rjmp	.+198    	; 0xc1c <__pack_f+0x106>
     b56:	21 15       	cp	r18, r1
     b58:	31 05       	cpc	r19, r1
     b5a:	41 05       	cpc	r20, r1
     b5c:	51 05       	cpc	r21, r1
     b5e:	09 f4       	brne	.+2      	; 0xb62 <__pack_f+0x4c>
     b60:	98 c0       	rjmp	.+304    	; 0xc92 <__pack_f+0x17c>
     b62:	fd 01       	movw	r30, r26
     b64:	82 81       	ldd	r24, Z+2	; 0x02
     b66:	93 81       	ldd	r25, Z+3	; 0x03
     b68:	ff ef       	ldi	r31, 0xFF	; 255
     b6a:	82 38       	cpi	r24, 0x82	; 130
     b6c:	9f 07       	cpc	r25, r31
     b6e:	0c f0       	brlt	.+2      	; 0xb72 <__pack_f+0x5c>
     b70:	50 c0       	rjmp	.+160    	; 0xc12 <__pack_f+0xfc>
     b72:	a2 e8       	ldi	r26, 0x82	; 130
     b74:	ea 2e       	mov	r14, r26
     b76:	af ef       	ldi	r26, 0xFF	; 255
     b78:	fa 2e       	mov	r15, r26
     b7a:	e8 1a       	sub	r14, r24
     b7c:	f9 0a       	sbc	r15, r25
     b7e:	8a e1       	ldi	r24, 0x1A	; 26
     b80:	e8 16       	cp	r14, r24
     b82:	f1 04       	cpc	r15, r1
     b84:	0c f0       	brlt	.+2      	; 0xb88 <__pack_f+0x72>
     b86:	6b c0       	rjmp	.+214    	; 0xc5e <__pack_f+0x148>
     b88:	6b 01       	movw	r12, r22
     b8a:	81 e0       	ldi	r24, 0x01	; 1
     b8c:	90 e0       	ldi	r25, 0x00	; 0
     b8e:	a0 e0       	ldi	r26, 0x00	; 0
     b90:	b0 e0       	ldi	r27, 0x00	; 0
     b92:	0e 2c       	mov	r0, r14
     b94:	04 c0       	rjmp	.+8      	; 0xb9e <__pack_f+0x88>
     b96:	88 0f       	add	r24, r24
     b98:	99 1f       	adc	r25, r25
     b9a:	aa 1f       	adc	r26, r26
     b9c:	bb 1f       	adc	r27, r27
     b9e:	0a 94       	dec	r0
     ba0:	d2 f7       	brpl	.-12     	; 0xb96 <__pack_f+0x80>
     ba2:	01 97       	sbiw	r24, 0x01	; 1
     ba4:	a1 09       	sbc	r26, r1
     ba6:	b1 09       	sbc	r27, r1
     ba8:	82 23       	and	r24, r18
     baa:	93 23       	and	r25, r19
     bac:	a4 23       	and	r26, r20
     bae:	b5 23       	and	r27, r21
     bb0:	00 97       	sbiw	r24, 0x00	; 0
     bb2:	a1 05       	cpc	r26, r1
     bb4:	b1 05       	cpc	r27, r1
     bb6:	19 f0       	breq	.+6      	; 0xbbe <__pack_f+0xa8>
     bb8:	f1 e0       	ldi	r31, 0x01	; 1
     bba:	cf 2e       	mov	r12, r31
     bbc:	d1 2c       	mov	r13, r1
     bbe:	04 c0       	rjmp	.+8      	; 0xbc8 <__pack_f+0xb2>
     bc0:	56 95       	lsr	r21
     bc2:	47 95       	ror	r20
     bc4:	37 95       	ror	r19
     bc6:	27 95       	ror	r18
     bc8:	ea 94       	dec	r14
     bca:	d2 f7       	brpl	.-12     	; 0xbc0 <__pack_f+0xaa>
     bcc:	c6 01       	movw	r24, r12
     bce:	aa 27       	eor	r26, r26
     bd0:	97 fd       	sbrc	r25, 7
     bd2:	a0 95       	com	r26
     bd4:	ba 2f       	mov	r27, r26
     bd6:	28 2b       	or	r18, r24
     bd8:	39 2b       	or	r19, r25
     bda:	4a 2b       	or	r20, r26
     bdc:	5b 2b       	or	r21, r27
     bde:	da 01       	movw	r26, r20
     be0:	c9 01       	movw	r24, r18
     be2:	8f 77       	andi	r24, 0x7F	; 127
     be4:	90 70       	andi	r25, 0x00	; 0
     be6:	a0 70       	andi	r26, 0x00	; 0
     be8:	b0 70       	andi	r27, 0x00	; 0
     bea:	80 34       	cpi	r24, 0x40	; 64
     bec:	91 05       	cpc	r25, r1
     bee:	a1 05       	cpc	r26, r1
     bf0:	b1 05       	cpc	r27, r1
     bf2:	d1 f1       	breq	.+116    	; 0xc68 <__pack_f+0x152>
     bf4:	21 5c       	subi	r18, 0xC1	; 193
     bf6:	3f 4f       	sbci	r19, 0xFF	; 255
     bf8:	4f 4f       	sbci	r20, 0xFF	; 255
     bfa:	5f 4f       	sbci	r21, 0xFF	; 255
     bfc:	20 30       	cpi	r18, 0x00	; 0
     bfe:	e0 e0       	ldi	r30, 0x00	; 0
     c00:	3e 07       	cpc	r19, r30
     c02:	e0 e0       	ldi	r30, 0x00	; 0
     c04:	4e 07       	cpc	r20, r30
     c06:	e0 e4       	ldi	r30, 0x40	; 64
     c08:	5e 07       	cpc	r21, r30
     c0a:	08 f1       	brcs	.+66     	; 0xc4e <__pack_f+0x138>
     c0c:	61 e0       	ldi	r22, 0x01	; 1
     c0e:	70 e0       	ldi	r23, 0x00	; 0
     c10:	1e c0       	rjmp	.+60     	; 0xc4e <__pack_f+0x138>
     c12:	80 38       	cpi	r24, 0x80	; 128
     c14:	91 05       	cpc	r25, r1
     c16:	3c f0       	brlt	.+14     	; 0xc26 <__pack_f+0x110>
     c18:	6f ef       	ldi	r22, 0xFF	; 255
     c1a:	70 e0       	ldi	r23, 0x00	; 0
     c1c:	20 e0       	ldi	r18, 0x00	; 0
     c1e:	30 e0       	ldi	r19, 0x00	; 0
     c20:	40 e0       	ldi	r20, 0x00	; 0
     c22:	50 e0       	ldi	r21, 0x00	; 0
     c24:	36 c0       	rjmp	.+108    	; 0xc92 <__pack_f+0x17c>
     c26:	bc 01       	movw	r22, r24
     c28:	61 58       	subi	r22, 0x81	; 129
     c2a:	7f 4f       	sbci	r23, 0xFF	; 255
     c2c:	da 01       	movw	r26, r20
     c2e:	c9 01       	movw	r24, r18
     c30:	8f 77       	andi	r24, 0x7F	; 127
     c32:	90 70       	andi	r25, 0x00	; 0
     c34:	a0 70       	andi	r26, 0x00	; 0
     c36:	b0 70       	andi	r27, 0x00	; 0
     c38:	80 34       	cpi	r24, 0x40	; 64
     c3a:	91 05       	cpc	r25, r1
     c3c:	a1 05       	cpc	r26, r1
     c3e:	b1 05       	cpc	r27, r1
     c40:	d1 f0       	breq	.+52     	; 0xc76 <__pack_f+0x160>
     c42:	21 5c       	subi	r18, 0xC1	; 193
     c44:	3f 4f       	sbci	r19, 0xFF	; 255
     c46:	4f 4f       	sbci	r20, 0xFF	; 255
     c48:	5f 4f       	sbci	r21, 0xFF	; 255
     c4a:	57 fd       	sbrc	r21, 7
     c4c:	1b c0       	rjmp	.+54     	; 0xc84 <__pack_f+0x16e>
     c4e:	97 e0       	ldi	r25, 0x07	; 7
     c50:	56 95       	lsr	r21
     c52:	47 95       	ror	r20
     c54:	37 95       	ror	r19
     c56:	27 95       	ror	r18
     c58:	9a 95       	dec	r25
     c5a:	d1 f7       	brne	.-12     	; 0xc50 <__pack_f+0x13a>
     c5c:	1a c0       	rjmp	.+52     	; 0xc92 <__pack_f+0x17c>
     c5e:	20 e0       	ldi	r18, 0x00	; 0
     c60:	30 e0       	ldi	r19, 0x00	; 0
     c62:	40 e0       	ldi	r20, 0x00	; 0
     c64:	50 e0       	ldi	r21, 0x00	; 0
     c66:	bb cf       	rjmp	.-138    	; 0xbde <__pack_f+0xc8>
     c68:	27 ff       	sbrs	r18, 7
     c6a:	c8 cf       	rjmp	.-112    	; 0xbfc <__pack_f+0xe6>
     c6c:	20 5c       	subi	r18, 0xC0	; 192
     c6e:	3f 4f       	sbci	r19, 0xFF	; 255
     c70:	4f 4f       	sbci	r20, 0xFF	; 255
     c72:	5f 4f       	sbci	r21, 0xFF	; 255
     c74:	c3 cf       	rjmp	.-122    	; 0xbfc <__pack_f+0xe6>
     c76:	27 ff       	sbrs	r18, 7
     c78:	e8 cf       	rjmp	.-48     	; 0xc4a <__pack_f+0x134>
     c7a:	20 5c       	subi	r18, 0xC0	; 192
     c7c:	3f 4f       	sbci	r19, 0xFF	; 255
     c7e:	4f 4f       	sbci	r20, 0xFF	; 255
     c80:	5f 4f       	sbci	r21, 0xFF	; 255
     c82:	e3 cf       	rjmp	.-58     	; 0xc4a <__pack_f+0x134>
     c84:	56 95       	lsr	r21
     c86:	47 95       	ror	r20
     c88:	37 95       	ror	r19
     c8a:	27 95       	ror	r18
     c8c:	6f 5f       	subi	r22, 0xFF	; 255
     c8e:	7f 4f       	sbci	r23, 0xFF	; 255
     c90:	de cf       	rjmp	.-68     	; 0xc4e <__pack_f+0x138>
     c92:	82 2e       	mov	r8, r18
     c94:	93 2e       	mov	r9, r19
     c96:	94 2f       	mov	r25, r20
     c98:	9f 77       	andi	r25, 0x7F	; 127
     c9a:	8a 2d       	mov	r24, r10
     c9c:	80 78       	andi	r24, 0x80	; 128
     c9e:	a8 2e       	mov	r10, r24
     ca0:	a9 2a       	or	r10, r25
     ca2:	96 2f       	mov	r25, r22
     ca4:	97 95       	ror	r25
     ca6:	99 27       	eor	r25, r25
     ca8:	97 95       	ror	r25
     caa:	8a 2d       	mov	r24, r10
     cac:	8f 77       	andi	r24, 0x7F	; 127
     cae:	a8 2e       	mov	r10, r24
     cb0:	a9 2a       	or	r10, r25
     cb2:	76 95       	lsr	r23
     cb4:	67 95       	ror	r22
     cb6:	96 2f       	mov	r25, r22
     cb8:	9f 77       	andi	r25, 0x7F	; 127
     cba:	8b 2d       	mov	r24, r11
     cbc:	80 78       	andi	r24, 0x80	; 128
     cbe:	b8 2e       	mov	r11, r24
     cc0:	b9 2a       	or	r11, r25
     cc2:	90 2f       	mov	r25, r16
     cc4:	97 95       	ror	r25
     cc6:	99 27       	eor	r25, r25
     cc8:	97 95       	ror	r25
     cca:	8b 2d       	mov	r24, r11
     ccc:	8f 77       	andi	r24, 0x7F	; 127
     cce:	b8 2e       	mov	r11, r24
     cd0:	b9 2a       	or	r11, r25
     cd2:	d5 01       	movw	r26, r10
     cd4:	c4 01       	movw	r24, r8
     cd6:	bc 01       	movw	r22, r24
     cd8:	cd 01       	movw	r24, r26
     cda:	ec e0       	ldi	r30, 0x0C	; 12
     cdc:	cd b7       	in	r28, 0x3d	; 61
     cde:	de b7       	in	r29, 0x3e	; 62
     ce0:	12 c3       	rjmp	.+1572   	; 0x1306 <__epilogue_restores__+0xc>

00000ce2 <__unpack_f>:
     ce2:	cf 93       	push	r28
     ce4:	df 93       	push	r29
     ce6:	fc 01       	movw	r30, r24
     ce8:	db 01       	movw	r26, r22
     cea:	40 81       	ld	r20, Z
     cec:	51 81       	ldd	r21, Z+1	; 0x01
     cee:	22 81       	ldd	r18, Z+2	; 0x02
     cf0:	62 2f       	mov	r22, r18
     cf2:	6f 77       	andi	r22, 0x7F	; 127
     cf4:	70 e0       	ldi	r23, 0x00	; 0
     cf6:	22 1f       	adc	r18, r18
     cf8:	22 27       	eor	r18, r18
     cfa:	22 1f       	adc	r18, r18
     cfc:	93 81       	ldd	r25, Z+3	; 0x03
     cfe:	89 2f       	mov	r24, r25
     d00:	88 0f       	add	r24, r24
     d02:	82 2b       	or	r24, r18
     d04:	28 2f       	mov	r18, r24
     d06:	33 27       	eor	r19, r19
     d08:	99 1f       	adc	r25, r25
     d0a:	99 27       	eor	r25, r25
     d0c:	99 1f       	adc	r25, r25
     d0e:	ed 01       	movw	r28, r26
     d10:	99 83       	std	Y+1, r25	; 0x01
     d12:	21 15       	cp	r18, r1
     d14:	31 05       	cpc	r19, r1
     d16:	41 f4       	brne	.+16     	; 0xd28 <__unpack_f+0x46>
     d18:	41 15       	cp	r20, r1
     d1a:	51 05       	cpc	r21, r1
     d1c:	61 05       	cpc	r22, r1
     d1e:	71 05       	cpc	r23, r1
     d20:	e1 f4       	brne	.+56     	; 0xd5a <__unpack_f+0x78>
     d22:	82 e0       	ldi	r24, 0x02	; 2
     d24:	8c 93       	st	X, r24
     d26:	54 c0       	rjmp	.+168    	; 0xdd0 <__unpack_f+0xee>
     d28:	2f 3f       	cpi	r18, 0xFF	; 255
     d2a:	31 05       	cpc	r19, r1
     d2c:	09 f4       	brne	.+2      	; 0xd30 <__unpack_f+0x4e>
     d2e:	41 c0       	rjmp	.+130    	; 0xdb2 <__unpack_f+0xd0>
     d30:	2f 57       	subi	r18, 0x7F	; 127
     d32:	30 40       	sbci	r19, 0x00	; 0
     d34:	fd 01       	movw	r30, r26
     d36:	33 83       	std	Z+3, r19	; 0x03
     d38:	22 83       	std	Z+2, r18	; 0x02
     d3a:	83 e0       	ldi	r24, 0x03	; 3
     d3c:	8c 93       	st	X, r24
     d3e:	87 e0       	ldi	r24, 0x07	; 7
     d40:	44 0f       	add	r20, r20
     d42:	55 1f       	adc	r21, r21
     d44:	66 1f       	adc	r22, r22
     d46:	77 1f       	adc	r23, r23
     d48:	8a 95       	dec	r24
     d4a:	d1 f7       	brne	.-12     	; 0xd40 <__unpack_f+0x5e>
     d4c:	70 64       	ori	r23, 0x40	; 64
     d4e:	ed 01       	movw	r28, r26
     d50:	4c 83       	std	Y+4, r20	; 0x04
     d52:	5d 83       	std	Y+5, r21	; 0x05
     d54:	6e 83       	std	Y+6, r22	; 0x06
     d56:	7f 83       	std	Y+7, r23	; 0x07
     d58:	3b c0       	rjmp	.+118    	; 0xdd0 <__unpack_f+0xee>
     d5a:	22 e8       	ldi	r18, 0x82	; 130
     d5c:	3f ef       	ldi	r19, 0xFF	; 255
     d5e:	f9 01       	movw	r30, r18
     d60:	c7 e0       	ldi	r28, 0x07	; 7
     d62:	44 0f       	add	r20, r20
     d64:	55 1f       	adc	r21, r21
     d66:	66 1f       	adc	r22, r22
     d68:	77 1f       	adc	r23, r23
     d6a:	ca 95       	dec	r28
     d6c:	d1 f7       	brne	.-12     	; 0xd62 <__unpack_f+0x80>
     d6e:	83 e0       	ldi	r24, 0x03	; 3
     d70:	8c 93       	st	X, r24
     d72:	40 30       	cpi	r20, 0x00	; 0
     d74:	80 e0       	ldi	r24, 0x00	; 0
     d76:	58 07       	cpc	r21, r24
     d78:	80 e0       	ldi	r24, 0x00	; 0
     d7a:	68 07       	cpc	r22, r24
     d7c:	80 e4       	ldi	r24, 0x40	; 64
     d7e:	78 07       	cpc	r23, r24
     d80:	78 f4       	brcc	.+30     	; 0xda0 <__unpack_f+0xbe>
     d82:	44 0f       	add	r20, r20
     d84:	55 1f       	adc	r21, r21
     d86:	66 1f       	adc	r22, r22
     d88:	77 1f       	adc	r23, r23
     d8a:	21 50       	subi	r18, 0x01	; 1
     d8c:	30 40       	sbci	r19, 0x00	; 0
     d8e:	f9 01       	movw	r30, r18
     d90:	40 30       	cpi	r20, 0x00	; 0
     d92:	c0 e0       	ldi	r28, 0x00	; 0
     d94:	5c 07       	cpc	r21, r28
     d96:	c0 e0       	ldi	r28, 0x00	; 0
     d98:	6c 07       	cpc	r22, r28
     d9a:	c0 e4       	ldi	r28, 0x40	; 64
     d9c:	7c 07       	cpc	r23, r28
     d9e:	88 f3       	brcs	.-30     	; 0xd82 <__unpack_f+0xa0>
     da0:	ed 01       	movw	r28, r26
     da2:	fb 83       	std	Y+3, r31	; 0x03
     da4:	ea 83       	std	Y+2, r30	; 0x02
     da6:	fd 01       	movw	r30, r26
     da8:	44 83       	std	Z+4, r20	; 0x04
     daa:	55 83       	std	Z+5, r21	; 0x05
     dac:	66 83       	std	Z+6, r22	; 0x06
     dae:	77 83       	std	Z+7, r23	; 0x07
     db0:	0f c0       	rjmp	.+30     	; 0xdd0 <__unpack_f+0xee>
     db2:	41 15       	cp	r20, r1
     db4:	51 05       	cpc	r21, r1
     db6:	61 05       	cpc	r22, r1
     db8:	71 05       	cpc	r23, r1
     dba:	19 f4       	brne	.+6      	; 0xdc2 <__unpack_f+0xe0>
     dbc:	84 e0       	ldi	r24, 0x04	; 4
     dbe:	8c 93       	st	X, r24
     dc0:	07 c0       	rjmp	.+14     	; 0xdd0 <__unpack_f+0xee>
     dc2:	64 ff       	sbrs	r22, 4
     dc4:	03 c0       	rjmp	.+6      	; 0xdcc <__unpack_f+0xea>
     dc6:	81 e0       	ldi	r24, 0x01	; 1
     dc8:	8c 93       	st	X, r24
     dca:	c1 cf       	rjmp	.-126    	; 0xd4e <__unpack_f+0x6c>
     dcc:	1c 92       	st	X, r1
     dce:	bf cf       	rjmp	.-130    	; 0xd4e <__unpack_f+0x6c>
     dd0:	df 91       	pop	r29
     dd2:	cf 91       	pop	r28
     dd4:	08 95       	ret

00000dd6 <__fpcmp_parts_f>:
     dd6:	0f 93       	push	r16
     dd8:	1f 93       	push	r17
     dda:	cf 93       	push	r28
     ddc:	df 93       	push	r29
     dde:	fc 01       	movw	r30, r24
     de0:	db 01       	movw	r26, r22
     de2:	80 81       	ld	r24, Z
     de4:	82 30       	cpi	r24, 0x02	; 2
     de6:	18 f0       	brcs	.+6      	; 0xdee <__fpcmp_parts_f+0x18>
     de8:	9c 91       	ld	r25, X
     dea:	92 30       	cpi	r25, 0x02	; 2
     dec:	18 f4       	brcc	.+6      	; 0xdf4 <__fpcmp_parts_f+0x1e>
     dee:	61 e0       	ldi	r22, 0x01	; 1
     df0:	70 e0       	ldi	r23, 0x00	; 0
     df2:	5e c0       	rjmp	.+188    	; 0xeb0 <__fpcmp_parts_f+0xda>
     df4:	84 30       	cpi	r24, 0x04	; 4
     df6:	c1 f0       	breq	.+48     	; 0xe28 <__fpcmp_parts_f+0x52>
     df8:	84 30       	cpi	r24, 0x04	; 4
     dfa:	01 f1       	breq	.+64     	; 0xe3c <__fpcmp_parts_f+0x66>
     dfc:	94 30       	cpi	r25, 0x04	; 4
     dfe:	09 f4       	brne	.+2      	; 0xe02 <__fpcmp_parts_f+0x2c>
     e00:	47 c0       	rjmp	.+142    	; 0xe90 <__fpcmp_parts_f+0xba>
     e02:	82 30       	cpi	r24, 0x02	; 2
     e04:	09 f4       	brne	.+2      	; 0xe08 <__fpcmp_parts_f+0x32>
     e06:	4b c0       	rjmp	.+150    	; 0xe9e <__fpcmp_parts_f+0xc8>
     e08:	82 30       	cpi	r24, 0x02	; 2
     e0a:	09 f4       	brne	.+2      	; 0xe0e <__fpcmp_parts_f+0x38>
     e0c:	4e c0       	rjmp	.+156    	; 0xeaa <__fpcmp_parts_f+0xd4>
     e0e:	92 30       	cpi	r25, 0x02	; 2
     e10:	a9 f0       	breq	.+42     	; 0xe3c <__fpcmp_parts_f+0x66>
     e12:	41 81       	ldd	r20, Z+1	; 0x01
     e14:	ed 01       	movw	r28, r26
     e16:	89 81       	ldd	r24, Y+1	; 0x01
     e18:	48 17       	cp	r20, r24
     e1a:	b9 f0       	breq	.+46     	; 0xe4a <__fpcmp_parts_f+0x74>
     e1c:	44 23       	and	r20, r20
     e1e:	89 f0       	breq	.+34     	; 0xe42 <__fpcmp_parts_f+0x6c>
     e20:	8f ef       	ldi	r24, 0xFF	; 255
     e22:	9f ef       	ldi	r25, 0xFF	; 255
     e24:	bc 01       	movw	r22, r24
     e26:	44 c0       	rjmp	.+136    	; 0xeb0 <__fpcmp_parts_f+0xda>
     e28:	94 30       	cpi	r25, 0x04	; 4
     e2a:	31 f7       	brne	.-52     	; 0xdf8 <__fpcmp_parts_f+0x22>
     e2c:	eb 01       	movw	r28, r22
     e2e:	89 81       	ldd	r24, Y+1	; 0x01
     e30:	68 2f       	mov	r22, r24
     e32:	77 27       	eor	r23, r23
     e34:	81 81       	ldd	r24, Z+1	; 0x01
     e36:	68 1b       	sub	r22, r24
     e38:	71 09       	sbc	r23, r1
     e3a:	3a c0       	rjmp	.+116    	; 0xeb0 <__fpcmp_parts_f+0xda>
     e3c:	81 81       	ldd	r24, Z+1	; 0x01
     e3e:	88 23       	and	r24, r24
     e40:	79 f7       	brne	.-34     	; 0xe20 <__fpcmp_parts_f+0x4a>
     e42:	81 e0       	ldi	r24, 0x01	; 1
     e44:	90 e0       	ldi	r25, 0x00	; 0
     e46:	bc 01       	movw	r22, r24
     e48:	33 c0       	rjmp	.+102    	; 0xeb0 <__fpcmp_parts_f+0xda>
     e4a:	22 81       	ldd	r18, Z+2	; 0x02
     e4c:	33 81       	ldd	r19, Z+3	; 0x03
     e4e:	ed 01       	movw	r28, r26
     e50:	8a 81       	ldd	r24, Y+2	; 0x02
     e52:	9b 81       	ldd	r25, Y+3	; 0x03
     e54:	82 17       	cp	r24, r18
     e56:	93 07       	cpc	r25, r19
     e58:	0c f3       	brlt	.-62     	; 0xe1c <__fpcmp_parts_f+0x46>
     e5a:	28 17       	cp	r18, r24
     e5c:	39 07       	cpc	r19, r25
     e5e:	9c f0       	brlt	.+38     	; 0xe86 <__fpcmp_parts_f+0xb0>
     e60:	04 81       	ldd	r16, Z+4	; 0x04
     e62:	15 81       	ldd	r17, Z+5	; 0x05
     e64:	26 81       	ldd	r18, Z+6	; 0x06
     e66:	37 81       	ldd	r19, Z+7	; 0x07
     e68:	fd 01       	movw	r30, r26
     e6a:	64 81       	ldd	r22, Z+4	; 0x04
     e6c:	75 81       	ldd	r23, Z+5	; 0x05
     e6e:	86 81       	ldd	r24, Z+6	; 0x06
     e70:	97 81       	ldd	r25, Z+7	; 0x07
     e72:	60 17       	cp	r22, r16
     e74:	71 07       	cpc	r23, r17
     e76:	82 07       	cpc	r24, r18
     e78:	93 07       	cpc	r25, r19
     e7a:	80 f2       	brcs	.-96     	; 0xe1c <__fpcmp_parts_f+0x46>
     e7c:	06 17       	cp	r16, r22
     e7e:	17 07       	cpc	r17, r23
     e80:	28 07       	cpc	r18, r24
     e82:	39 07       	cpc	r19, r25
     e84:	78 f4       	brcc	.+30     	; 0xea4 <__fpcmp_parts_f+0xce>
     e86:	44 23       	and	r20, r20
     e88:	59 f2       	breq	.-106    	; 0xe20 <__fpcmp_parts_f+0x4a>
     e8a:	81 e0       	ldi	r24, 0x01	; 1
     e8c:	90 e0       	ldi	r25, 0x00	; 0
     e8e:	db cf       	rjmp	.-74     	; 0xe46 <__fpcmp_parts_f+0x70>
     e90:	fd 01       	movw	r30, r26
     e92:	81 81       	ldd	r24, Z+1	; 0x01
     e94:	88 23       	and	r24, r24
     e96:	21 f2       	breq	.-120    	; 0xe20 <__fpcmp_parts_f+0x4a>
     e98:	81 e0       	ldi	r24, 0x01	; 1
     e9a:	90 e0       	ldi	r25, 0x00	; 0
     e9c:	d4 cf       	rjmp	.-88     	; 0xe46 <__fpcmp_parts_f+0x70>
     e9e:	92 30       	cpi	r25, 0x02	; 2
     ea0:	09 f0       	breq	.+2      	; 0xea4 <__fpcmp_parts_f+0xce>
     ea2:	b2 cf       	rjmp	.-156    	; 0xe08 <__fpcmp_parts_f+0x32>
     ea4:	60 e0       	ldi	r22, 0x00	; 0
     ea6:	70 e0       	ldi	r23, 0x00	; 0
     ea8:	03 c0       	rjmp	.+6      	; 0xeb0 <__fpcmp_parts_f+0xda>
     eaa:	ed 01       	movw	r28, r26
     eac:	89 81       	ldd	r24, Y+1	; 0x01
     eae:	f2 cf       	rjmp	.-28     	; 0xe94 <__fpcmp_parts_f+0xbe>
     eb0:	cb 01       	movw	r24, r22
     eb2:	df 91       	pop	r29
     eb4:	cf 91       	pop	r28
     eb6:	1f 91       	pop	r17
     eb8:	0f 91       	pop	r16
     eba:	08 95       	ret

00000ebc <fdevopen>:
     ebc:	0f 93       	push	r16
     ebe:	1f 93       	push	r17
     ec0:	cf 93       	push	r28
     ec2:	df 93       	push	r29
     ec4:	8c 01       	movw	r16, r24
     ec6:	eb 01       	movw	r28, r22
     ec8:	00 97       	sbiw	r24, 0x00	; 0
     eca:	11 f4       	brne	.+4      	; 0xed0 <fdevopen+0x14>
     ecc:	67 2b       	or	r22, r23
     ece:	b9 f1       	breq	.+110    	; 0xf3e <fdevopen+0x82>
     ed0:	6e e0       	ldi	r22, 0x0E	; 14
     ed2:	70 e0       	ldi	r23, 0x00	; 0
     ed4:	81 e0       	ldi	r24, 0x01	; 1
     ed6:	90 e0       	ldi	r25, 0x00	; 0
     ed8:	dd d0       	rcall	.+442    	; 0x1094 <calloc>
     eda:	fc 01       	movw	r30, r24
     edc:	89 2b       	or	r24, r25
     ede:	71 f1       	breq	.+92     	; 0xf3c <fdevopen+0x80>
     ee0:	80 e8       	ldi	r24, 0x80	; 128
     ee2:	83 83       	std	Z+3, r24	; 0x03
     ee4:	20 97       	sbiw	r28, 0x00	; 0
     ee6:	71 f0       	breq	.+28     	; 0xf04 <fdevopen+0x48>
     ee8:	d3 87       	std	Z+11, r29	; 0x0b
     eea:	c2 87       	std	Z+10, r28	; 0x0a
     eec:	81 e8       	ldi	r24, 0x81	; 129
     eee:	83 83       	std	Z+3, r24	; 0x03
     ef0:	80 91 94 00 	lds	r24, 0x0094
     ef4:	90 91 95 00 	lds	r25, 0x0095
     ef8:	89 2b       	or	r24, r25
     efa:	21 f4       	brne	.+8      	; 0xf04 <fdevopen+0x48>
     efc:	f0 93 95 00 	sts	0x0095, r31
     f00:	e0 93 94 00 	sts	0x0094, r30
     f04:	01 15       	cp	r16, r1
     f06:	11 05       	cpc	r17, r1
     f08:	c9 f0       	breq	.+50     	; 0xf3c <fdevopen+0x80>
     f0a:	11 87       	std	Z+9, r17	; 0x09
     f0c:	00 87       	std	Z+8, r16	; 0x08
     f0e:	83 81       	ldd	r24, Z+3	; 0x03
     f10:	82 60       	ori	r24, 0x02	; 2
     f12:	83 83       	std	Z+3, r24	; 0x03
     f14:	80 91 96 00 	lds	r24, 0x0096
     f18:	90 91 97 00 	lds	r25, 0x0097
     f1c:	89 2b       	or	r24, r25
     f1e:	71 f4       	brne	.+28     	; 0xf3c <fdevopen+0x80>
     f20:	f0 93 97 00 	sts	0x0097, r31
     f24:	e0 93 96 00 	sts	0x0096, r30
     f28:	80 91 98 00 	lds	r24, 0x0098
     f2c:	90 91 99 00 	lds	r25, 0x0099
     f30:	89 2b       	or	r24, r25
     f32:	21 f4       	brne	.+8      	; 0xf3c <fdevopen+0x80>
     f34:	f0 93 99 00 	sts	0x0099, r31
     f38:	e0 93 98 00 	sts	0x0098, r30
     f3c:	cf 01       	movw	r24, r30
     f3e:	df 91       	pop	r29
     f40:	cf 91       	pop	r28
     f42:	1f 91       	pop	r17
     f44:	0f 91       	pop	r16
     f46:	08 95       	ret

00000f48 <fgetc>:
     f48:	cf 93       	push	r28
     f4a:	df 93       	push	r29
     f4c:	ec 01       	movw	r28, r24
     f4e:	4b 81       	ldd	r20, Y+3	; 0x03
     f50:	84 2f       	mov	r24, r20
     f52:	99 27       	eor	r25, r25
     f54:	80 ff       	sbrs	r24, 0
     f56:	2e c0       	rjmp	.+92     	; 0xfb4 <fgetc+0x6c>
     f58:	86 ff       	sbrs	r24, 6
     f5a:	09 c0       	rjmp	.+18     	; 0xf6e <fgetc+0x26>
     f5c:	4f 7b       	andi	r20, 0xBF	; 191
     f5e:	4b 83       	std	Y+3, r20	; 0x03
     f60:	8e 81       	ldd	r24, Y+6	; 0x06
     f62:	9f 81       	ldd	r25, Y+7	; 0x07
     f64:	01 96       	adiw	r24, 0x01	; 1
     f66:	9f 83       	std	Y+7, r25	; 0x07
     f68:	8e 83       	std	Y+6, r24	; 0x06
     f6a:	8a 81       	ldd	r24, Y+2	; 0x02
     f6c:	2c c0       	rjmp	.+88     	; 0xfc6 <fgetc+0x7e>
     f6e:	82 ff       	sbrs	r24, 2
     f70:	11 c0       	rjmp	.+34     	; 0xf94 <fgetc+0x4c>
     f72:	e8 81       	ld	r30, Y
     f74:	f9 81       	ldd	r31, Y+1	; 0x01
     f76:	80 81       	ld	r24, Z
     f78:	28 2f       	mov	r18, r24
     f7a:	33 27       	eor	r19, r19
     f7c:	27 fd       	sbrc	r18, 7
     f7e:	30 95       	com	r19
     f80:	21 15       	cp	r18, r1
     f82:	31 05       	cpc	r19, r1
     f84:	19 f4       	brne	.+6      	; 0xf8c <fgetc+0x44>
     f86:	40 62       	ori	r20, 0x20	; 32
     f88:	4b 83       	std	Y+3, r20	; 0x03
     f8a:	14 c0       	rjmp	.+40     	; 0xfb4 <fgetc+0x6c>
     f8c:	31 96       	adiw	r30, 0x01	; 1
     f8e:	f9 83       	std	Y+1, r31	; 0x01
     f90:	e8 83       	st	Y, r30
     f92:	13 c0       	rjmp	.+38     	; 0xfba <fgetc+0x72>
     f94:	ea 85       	ldd	r30, Y+10	; 0x0a
     f96:	fb 85       	ldd	r31, Y+11	; 0x0b
     f98:	ce 01       	movw	r24, r28
     f9a:	09 95       	icall
     f9c:	9c 01       	movw	r18, r24
     f9e:	97 ff       	sbrs	r25, 7
     fa0:	0c c0       	rjmp	.+24     	; 0xfba <fgetc+0x72>
     fa2:	8b 81       	ldd	r24, Y+3	; 0x03
     fa4:	99 27       	eor	r25, r25
     fa6:	2f 5f       	subi	r18, 0xFF	; 255
     fa8:	3f 4f       	sbci	r19, 0xFF	; 255
     faa:	11 f4       	brne	.+4      	; 0xfb0 <fgetc+0x68>
     fac:	80 61       	ori	r24, 0x10	; 16
     fae:	01 c0       	rjmp	.+2      	; 0xfb2 <fgetc+0x6a>
     fb0:	80 62       	ori	r24, 0x20	; 32
     fb2:	8b 83       	std	Y+3, r24	; 0x03
     fb4:	8f ef       	ldi	r24, 0xFF	; 255
     fb6:	9f ef       	ldi	r25, 0xFF	; 255
     fb8:	07 c0       	rjmp	.+14     	; 0xfc8 <fgetc+0x80>
     fba:	8e 81       	ldd	r24, Y+6	; 0x06
     fbc:	9f 81       	ldd	r25, Y+7	; 0x07
     fbe:	01 96       	adiw	r24, 0x01	; 1
     fc0:	9f 83       	std	Y+7, r25	; 0x07
     fc2:	8e 83       	std	Y+6, r24	; 0x06
     fc4:	82 2f       	mov	r24, r18
     fc6:	99 27       	eor	r25, r25
     fc8:	df 91       	pop	r29
     fca:	cf 91       	pop	r28
     fcc:	08 95       	ret

00000fce <fputc>:
     fce:	0f 93       	push	r16
     fd0:	1f 93       	push	r17
     fd2:	cf 93       	push	r28
     fd4:	df 93       	push	r29
     fd6:	8c 01       	movw	r16, r24
     fd8:	eb 01       	movw	r28, r22
     fda:	8b 81       	ldd	r24, Y+3	; 0x03
     fdc:	99 27       	eor	r25, r25
     fde:	81 ff       	sbrs	r24, 1
     fe0:	1c c0       	rjmp	.+56     	; 0x101a <fputc+0x4c>
     fe2:	82 ff       	sbrs	r24, 2
     fe4:	0d c0       	rjmp	.+26     	; 0x1000 <fputc+0x32>
     fe6:	2e 81       	ldd	r18, Y+6	; 0x06
     fe8:	3f 81       	ldd	r19, Y+7	; 0x07
     fea:	8c 81       	ldd	r24, Y+4	; 0x04
     fec:	9d 81       	ldd	r25, Y+5	; 0x05
     fee:	28 17       	cp	r18, r24
     ff0:	39 07       	cpc	r19, r25
     ff2:	64 f4       	brge	.+24     	; 0x100c <fputc+0x3e>
     ff4:	e8 81       	ld	r30, Y
     ff6:	f9 81       	ldd	r31, Y+1	; 0x01
     ff8:	01 93       	st	Z+, r16
     ffa:	f9 83       	std	Y+1, r31	; 0x01
     ffc:	e8 83       	st	Y, r30
     ffe:	06 c0       	rjmp	.+12     	; 0x100c <fputc+0x3e>
    1000:	e8 85       	ldd	r30, Y+8	; 0x08
    1002:	f9 85       	ldd	r31, Y+9	; 0x09
    1004:	80 2f       	mov	r24, r16
    1006:	09 95       	icall
    1008:	89 2b       	or	r24, r25
    100a:	39 f4       	brne	.+14     	; 0x101a <fputc+0x4c>
    100c:	8e 81       	ldd	r24, Y+6	; 0x06
    100e:	9f 81       	ldd	r25, Y+7	; 0x07
    1010:	01 96       	adiw	r24, 0x01	; 1
    1012:	9f 83       	std	Y+7, r25	; 0x07
    1014:	8e 83       	std	Y+6, r24	; 0x06
    1016:	c8 01       	movw	r24, r16
    1018:	02 c0       	rjmp	.+4      	; 0x101e <fputc+0x50>
    101a:	8f ef       	ldi	r24, 0xFF	; 255
    101c:	9f ef       	ldi	r25, 0xFF	; 255
    101e:	df 91       	pop	r29
    1020:	cf 91       	pop	r28
    1022:	1f 91       	pop	r17
    1024:	0f 91       	pop	r16
    1026:	08 95       	ret

00001028 <puts>:
    1028:	0f 93       	push	r16
    102a:	1f 93       	push	r17
    102c:	cf 93       	push	r28
    102e:	df 93       	push	r29
    1030:	ec 01       	movw	r28, r24
    1032:	00 e0       	ldi	r16, 0x00	; 0
    1034:	10 e0       	ldi	r17, 0x00	; 0
    1036:	e0 91 96 00 	lds	r30, 0x0096
    103a:	f0 91 97 00 	lds	r31, 0x0097
    103e:	83 81       	ldd	r24, Z+3	; 0x03
    1040:	81 fd       	sbrc	r24, 1
    1042:	03 c0       	rjmp	.+6      	; 0x104a <puts+0x22>
    1044:	8f ef       	ldi	r24, 0xFF	; 255
    1046:	9f ef       	ldi	r25, 0xFF	; 255
    1048:	20 c0       	rjmp	.+64     	; 0x108a <puts+0x62>
    104a:	89 91       	ld	r24, Y+
    104c:	88 23       	and	r24, r24
    104e:	71 f0       	breq	.+28     	; 0x106c <puts+0x44>
    1050:	e0 91 96 00 	lds	r30, 0x0096
    1054:	f0 91 97 00 	lds	r31, 0x0097
    1058:	20 85       	ldd	r18, Z+8	; 0x08
    105a:	31 85       	ldd	r19, Z+9	; 0x09
    105c:	bf 01       	movw	r22, r30
    105e:	f9 01       	movw	r30, r18
    1060:	09 95       	icall
    1062:	89 2b       	or	r24, r25
    1064:	91 f3       	breq	.-28     	; 0x104a <puts+0x22>
    1066:	0f ef       	ldi	r16, 0xFF	; 255
    1068:	1f ef       	ldi	r17, 0xFF	; 255
    106a:	ef cf       	rjmp	.-34     	; 0x104a <puts+0x22>
    106c:	e0 91 96 00 	lds	r30, 0x0096
    1070:	f0 91 97 00 	lds	r31, 0x0097
    1074:	20 85       	ldd	r18, Z+8	; 0x08
    1076:	31 85       	ldd	r19, Z+9	; 0x09
    1078:	bf 01       	movw	r22, r30
    107a:	8a e0       	ldi	r24, 0x0A	; 10
    107c:	f9 01       	movw	r30, r18
    107e:	09 95       	icall
    1080:	89 2b       	or	r24, r25
    1082:	11 f0       	breq	.+4      	; 0x1088 <puts+0x60>
    1084:	0f ef       	ldi	r16, 0xFF	; 255
    1086:	1f ef       	ldi	r17, 0xFF	; 255
    1088:	c8 01       	movw	r24, r16
    108a:	df 91       	pop	r29
    108c:	cf 91       	pop	r28
    108e:	1f 91       	pop	r17
    1090:	0f 91       	pop	r16
    1092:	08 95       	ret

00001094 <calloc>:
    1094:	0f 93       	push	r16
    1096:	1f 93       	push	r17
    1098:	cf 93       	push	r28
    109a:	df 93       	push	r29
    109c:	86 9f       	mul	r24, r22
    109e:	80 01       	movw	r16, r0
    10a0:	87 9f       	mul	r24, r23
    10a2:	10 0d       	add	r17, r0
    10a4:	96 9f       	mul	r25, r22
    10a6:	10 0d       	add	r17, r0
    10a8:	11 24       	eor	r1, r1
    10aa:	c8 01       	movw	r24, r16
    10ac:	0d d0       	rcall	.+26     	; 0x10c8 <malloc>
    10ae:	ec 01       	movw	r28, r24
    10b0:	00 97       	sbiw	r24, 0x00	; 0
    10b2:	21 f0       	breq	.+8      	; 0x10bc <calloc+0x28>
    10b4:	a8 01       	movw	r20, r16
    10b6:	60 e0       	ldi	r22, 0x00	; 0
    10b8:	70 e0       	ldi	r23, 0x00	; 0
    10ba:	fc d0       	rcall	.+504    	; 0x12b4 <memset>
    10bc:	ce 01       	movw	r24, r28
    10be:	df 91       	pop	r29
    10c0:	cf 91       	pop	r28
    10c2:	1f 91       	pop	r17
    10c4:	0f 91       	pop	r16
    10c6:	08 95       	ret

000010c8 <malloc>:
    10c8:	cf 93       	push	r28
    10ca:	df 93       	push	r29
    10cc:	ac 01       	movw	r20, r24
    10ce:	02 97       	sbiw	r24, 0x02	; 2
    10d0:	10 f4       	brcc	.+4      	; 0x10d6 <malloc+0xe>
    10d2:	42 e0       	ldi	r20, 0x02	; 2
    10d4:	50 e0       	ldi	r21, 0x00	; 0
    10d6:	20 e0       	ldi	r18, 0x00	; 0
    10d8:	30 e0       	ldi	r19, 0x00	; 0
    10da:	a0 91 9c 00 	lds	r26, 0x009C
    10de:	b0 91 9d 00 	lds	r27, 0x009D
    10e2:	bd 01       	movw	r22, r26
    10e4:	f9 01       	movw	r30, r18
    10e6:	10 97       	sbiw	r26, 0x00	; 0
    10e8:	09 f4       	brne	.+2      	; 0x10ec <malloc+0x24>
    10ea:	4c c0       	rjmp	.+152    	; 0x1184 <malloc+0xbc>
    10ec:	8d 91       	ld	r24, X+
    10ee:	9c 91       	ld	r25, X
    10f0:	11 97       	sbiw	r26, 0x01	; 1
    10f2:	84 17       	cp	r24, r20
    10f4:	95 07       	cpc	r25, r21
    10f6:	31 f1       	breq	.+76     	; 0x1144 <malloc+0x7c>
    10f8:	48 17       	cp	r20, r24
    10fa:	59 07       	cpc	r21, r25
    10fc:	38 f4       	brcc	.+14     	; 0x110c <malloc+0x44>
    10fe:	21 15       	cp	r18, r1
    1100:	31 05       	cpc	r19, r1
    1102:	19 f0       	breq	.+6      	; 0x110a <malloc+0x42>
    1104:	82 17       	cp	r24, r18
    1106:	93 07       	cpc	r25, r19
    1108:	08 f4       	brcc	.+2      	; 0x110c <malloc+0x44>
    110a:	9c 01       	movw	r18, r24
    110c:	fd 01       	movw	r30, r26
    110e:	a2 81       	ldd	r26, Z+2	; 0x02
    1110:	b3 81       	ldd	r27, Z+3	; 0x03
    1112:	10 97       	sbiw	r26, 0x00	; 0
    1114:	59 f7       	brne	.-42     	; 0x10ec <malloc+0x24>
    1116:	21 15       	cp	r18, r1
    1118:	31 05       	cpc	r19, r1
    111a:	a1 f1       	breq	.+104    	; 0x1184 <malloc+0xbc>
    111c:	c9 01       	movw	r24, r18
    111e:	84 1b       	sub	r24, r20
    1120:	95 0b       	sbc	r25, r21
    1122:	04 97       	sbiw	r24, 0x04	; 4
    1124:	08 f4       	brcc	.+2      	; 0x1128 <malloc+0x60>
    1126:	a9 01       	movw	r20, r18
    1128:	db 01       	movw	r26, r22
    112a:	e0 e0       	ldi	r30, 0x00	; 0
    112c:	f0 e0       	ldi	r31, 0x00	; 0
    112e:	10 97       	sbiw	r26, 0x00	; 0
    1130:	49 f1       	breq	.+82     	; 0x1184 <malloc+0xbc>
    1132:	8d 91       	ld	r24, X+
    1134:	9c 91       	ld	r25, X
    1136:	11 97       	sbiw	r26, 0x01	; 1
    1138:	82 17       	cp	r24, r18
    113a:	93 07       	cpc	r25, r19
    113c:	f9 f4       	brne	.+62     	; 0x117c <malloc+0xb4>
    113e:	42 17       	cp	r20, r18
    1140:	53 07       	cpc	r21, r19
    1142:	79 f4       	brne	.+30     	; 0x1162 <malloc+0x9a>
    1144:	ed 01       	movw	r28, r26
    1146:	8a 81       	ldd	r24, Y+2	; 0x02
    1148:	9b 81       	ldd	r25, Y+3	; 0x03
    114a:	30 97       	sbiw	r30, 0x00	; 0
    114c:	19 f0       	breq	.+6      	; 0x1154 <malloc+0x8c>
    114e:	93 83       	std	Z+3, r25	; 0x03
    1150:	82 83       	std	Z+2, r24	; 0x02
    1152:	04 c0       	rjmp	.+8      	; 0x115c <malloc+0x94>
    1154:	90 93 9d 00 	sts	0x009D, r25
    1158:	80 93 9c 00 	sts	0x009C, r24
    115c:	cd 01       	movw	r24, r26
    115e:	02 96       	adiw	r24, 0x02	; 2
    1160:	4a c0       	rjmp	.+148    	; 0x11f6 <malloc+0x12e>
    1162:	24 1b       	sub	r18, r20
    1164:	35 0b       	sbc	r19, r21
    1166:	fd 01       	movw	r30, r26
    1168:	e2 0f       	add	r30, r18
    116a:	f3 1f       	adc	r31, r19
    116c:	41 93       	st	Z+, r20
    116e:	51 93       	st	Z+, r21
    1170:	22 50       	subi	r18, 0x02	; 2
    1172:	30 40       	sbci	r19, 0x00	; 0
    1174:	2d 93       	st	X+, r18
    1176:	3c 93       	st	X, r19
    1178:	cf 01       	movw	r24, r30
    117a:	3d c0       	rjmp	.+122    	; 0x11f6 <malloc+0x12e>
    117c:	fd 01       	movw	r30, r26
    117e:	a2 81       	ldd	r26, Z+2	; 0x02
    1180:	b3 81       	ldd	r27, Z+3	; 0x03
    1182:	d5 cf       	rjmp	.-86     	; 0x112e <malloc+0x66>
    1184:	80 91 9a 00 	lds	r24, 0x009A
    1188:	90 91 9b 00 	lds	r25, 0x009B
    118c:	89 2b       	or	r24, r25
    118e:	41 f4       	brne	.+16     	; 0x11a0 <malloc+0xd8>
    1190:	80 91 8f 00 	lds	r24, 0x008F
    1194:	90 91 90 00 	lds	r25, 0x0090
    1198:	90 93 9b 00 	sts	0x009B, r25
    119c:	80 93 9a 00 	sts	0x009A, r24
    11a0:	e0 91 8d 00 	lds	r30, 0x008D
    11a4:	f0 91 8e 00 	lds	r31, 0x008E
    11a8:	30 97       	sbiw	r30, 0x00	; 0
    11aa:	41 f4       	brne	.+16     	; 0x11bc <malloc+0xf4>
    11ac:	ed b7       	in	r30, 0x3d	; 61
    11ae:	fe b7       	in	r31, 0x3e	; 62
    11b0:	80 91 91 00 	lds	r24, 0x0091
    11b4:	90 91 92 00 	lds	r25, 0x0092
    11b8:	e8 1b       	sub	r30, r24
    11ba:	f9 0b       	sbc	r31, r25
    11bc:	a0 91 9a 00 	lds	r26, 0x009A
    11c0:	b0 91 9b 00 	lds	r27, 0x009B
    11c4:	9f 01       	movw	r18, r30
    11c6:	2a 1b       	sub	r18, r26
    11c8:	3b 0b       	sbc	r19, r27
    11ca:	24 17       	cp	r18, r20
    11cc:	35 07       	cpc	r19, r21
    11ce:	88 f0       	brcs	.+34     	; 0x11f2 <malloc+0x12a>
    11d0:	ca 01       	movw	r24, r20
    11d2:	02 96       	adiw	r24, 0x02	; 2
    11d4:	28 17       	cp	r18, r24
    11d6:	39 07       	cpc	r19, r25
    11d8:	60 f0       	brcs	.+24     	; 0x11f2 <malloc+0x12a>
    11da:	cd 01       	movw	r24, r26
    11dc:	84 0f       	add	r24, r20
    11de:	95 1f       	adc	r25, r21
    11e0:	02 96       	adiw	r24, 0x02	; 2
    11e2:	90 93 9b 00 	sts	0x009B, r25
    11e6:	80 93 9a 00 	sts	0x009A, r24
    11ea:	4d 93       	st	X+, r20
    11ec:	5d 93       	st	X+, r21
    11ee:	cd 01       	movw	r24, r26
    11f0:	02 c0       	rjmp	.+4      	; 0x11f6 <malloc+0x12e>
    11f2:	80 e0       	ldi	r24, 0x00	; 0
    11f4:	90 e0       	ldi	r25, 0x00	; 0
    11f6:	df 91       	pop	r29
    11f8:	cf 91       	pop	r28
    11fa:	08 95       	ret

000011fc <free>:
    11fc:	cf 93       	push	r28
    11fe:	df 93       	push	r29
    1200:	00 97       	sbiw	r24, 0x00	; 0
    1202:	09 f4       	brne	.+2      	; 0x1206 <free+0xa>
    1204:	54 c0       	rjmp	.+168    	; 0x12ae <free+0xb2>
    1206:	dc 01       	movw	r26, r24
    1208:	12 97       	sbiw	r26, 0x02	; 2
    120a:	ed 01       	movw	r28, r26
    120c:	1b 82       	std	Y+3, r1	; 0x03
    120e:	1a 82       	std	Y+2, r1	; 0x02
    1210:	80 91 9c 00 	lds	r24, 0x009C
    1214:	90 91 9d 00 	lds	r25, 0x009D
    1218:	00 97       	sbiw	r24, 0x00	; 0
    121a:	21 f1       	breq	.+72     	; 0x1264 <free+0x68>
    121c:	fc 01       	movw	r30, r24
    121e:	40 e0       	ldi	r20, 0x00	; 0
    1220:	50 e0       	ldi	r21, 0x00	; 0
    1222:	ea 17       	cp	r30, r26
    1224:	fb 07       	cpc	r31, r27
    1226:	18 f1       	brcs	.+70     	; 0x126e <free+0x72>
    1228:	ed 01       	movw	r28, r26
    122a:	fb 83       	std	Y+3, r31	; 0x03
    122c:	ea 83       	std	Y+2, r30	; 0x02
    122e:	2d 91       	ld	r18, X+
    1230:	3c 91       	ld	r19, X
    1232:	11 97       	sbiw	r26, 0x01	; 1
    1234:	c2 0f       	add	r28, r18
    1236:	d3 1f       	adc	r29, r19
    1238:	ce 01       	movw	r24, r28
    123a:	02 96       	adiw	r24, 0x02	; 2
    123c:	8e 17       	cp	r24, r30
    123e:	9f 07       	cpc	r25, r31
    1240:	71 f4       	brne	.+28     	; 0x125e <free+0x62>
    1242:	8a 81       	ldd	r24, Y+2	; 0x02
    1244:	9b 81       	ldd	r25, Y+3	; 0x03
    1246:	28 0f       	add	r18, r24
    1248:	39 1f       	adc	r19, r25
    124a:	2e 5f       	subi	r18, 0xFE	; 254
    124c:	3f 4f       	sbci	r19, 0xFF	; 255
    124e:	11 96       	adiw	r26, 0x01	; 1
    1250:	3c 93       	st	X, r19
    1252:	2e 93       	st	-X, r18
    1254:	82 81       	ldd	r24, Z+2	; 0x02
    1256:	93 81       	ldd	r25, Z+3	; 0x03
    1258:	fd 01       	movw	r30, r26
    125a:	93 83       	std	Z+3, r25	; 0x03
    125c:	82 83       	std	Z+2, r24	; 0x02
    125e:	41 15       	cp	r20, r1
    1260:	51 05       	cpc	r21, r1
    1262:	59 f4       	brne	.+22     	; 0x127a <free+0x7e>
    1264:	b0 93 9d 00 	sts	0x009D, r27
    1268:	a0 93 9c 00 	sts	0x009C, r26
    126c:	20 c0       	rjmp	.+64     	; 0x12ae <free+0xb2>
    126e:	af 01       	movw	r20, r30
    1270:	02 80       	ldd	r0, Z+2	; 0x02
    1272:	f3 81       	ldd	r31, Z+3	; 0x03
    1274:	e0 2d       	mov	r30, r0
    1276:	30 97       	sbiw	r30, 0x00	; 0
    1278:	a1 f6       	brne	.-88     	; 0x1222 <free+0x26>
    127a:	ea 01       	movw	r28, r20
    127c:	bb 83       	std	Y+3, r27	; 0x03
    127e:	aa 83       	std	Y+2, r26	; 0x02
    1280:	ca 01       	movw	r24, r20
    1282:	02 96       	adiw	r24, 0x02	; 2
    1284:	28 81       	ld	r18, Y
    1286:	39 81       	ldd	r19, Y+1	; 0x01
    1288:	82 0f       	add	r24, r18
    128a:	93 1f       	adc	r25, r19
    128c:	8a 17       	cp	r24, r26
    128e:	9b 07       	cpc	r25, r27
    1290:	71 f4       	brne	.+28     	; 0x12ae <free+0xb2>
    1292:	8d 91       	ld	r24, X+
    1294:	9c 91       	ld	r25, X
    1296:	11 97       	sbiw	r26, 0x01	; 1
    1298:	28 0f       	add	r18, r24
    129a:	39 1f       	adc	r19, r25
    129c:	2e 5f       	subi	r18, 0xFE	; 254
    129e:	3f 4f       	sbci	r19, 0xFF	; 255
    12a0:	39 83       	std	Y+1, r19	; 0x01
    12a2:	28 83       	st	Y, r18
    12a4:	fd 01       	movw	r30, r26
    12a6:	82 81       	ldd	r24, Z+2	; 0x02
    12a8:	93 81       	ldd	r25, Z+3	; 0x03
    12aa:	9b 83       	std	Y+3, r25	; 0x03
    12ac:	8a 83       	std	Y+2, r24	; 0x02
    12ae:	df 91       	pop	r29
    12b0:	cf 91       	pop	r28
    12b2:	08 95       	ret

000012b4 <memset>:
    12b4:	dc 01       	movw	r26, r24
    12b6:	01 c0       	rjmp	.+2      	; 0x12ba <memset+0x6>
    12b8:	6d 93       	st	X+, r22
    12ba:	41 50       	subi	r20, 0x01	; 1
    12bc:	50 40       	sbci	r21, 0x00	; 0
    12be:	e0 f7       	brcc	.-8      	; 0x12b8 <memset+0x4>
    12c0:	08 95       	ret

000012c2 <__prologue_saves__>:
    12c2:	2f 92       	push	r2
    12c4:	3f 92       	push	r3
    12c6:	4f 92       	push	r4
    12c8:	5f 92       	push	r5
    12ca:	6f 92       	push	r6
    12cc:	7f 92       	push	r7
    12ce:	8f 92       	push	r8
    12d0:	9f 92       	push	r9
    12d2:	af 92       	push	r10
    12d4:	bf 92       	push	r11
    12d6:	cf 92       	push	r12
    12d8:	df 92       	push	r13
    12da:	ef 92       	push	r14
    12dc:	ff 92       	push	r15
    12de:	0f 93       	push	r16
    12e0:	1f 93       	push	r17
    12e2:	cf 93       	push	r28
    12e4:	df 93       	push	r29
    12e6:	cd b7       	in	r28, 0x3d	; 61
    12e8:	de b7       	in	r29, 0x3e	; 62
    12ea:	ca 1b       	sub	r28, r26
    12ec:	db 0b       	sbc	r29, r27
    12ee:	0f b6       	in	r0, 0x3f	; 63
    12f0:	f8 94       	cli
    12f2:	de bf       	out	0x3e, r29	; 62
    12f4:	0f be       	out	0x3f, r0	; 63
    12f6:	cd bf       	out	0x3d, r28	; 61
    12f8:	09 94       	ijmp

000012fa <__epilogue_restores__>:
    12fa:	2a 88       	ldd	r2, Y+18	; 0x12
    12fc:	39 88       	ldd	r3, Y+17	; 0x11
    12fe:	48 88       	ldd	r4, Y+16	; 0x10
    1300:	5f 84       	ldd	r5, Y+15	; 0x0f
    1302:	6e 84       	ldd	r6, Y+14	; 0x0e
    1304:	7d 84       	ldd	r7, Y+13	; 0x0d
    1306:	8c 84       	ldd	r8, Y+12	; 0x0c
    1308:	9b 84       	ldd	r9, Y+11	; 0x0b
    130a:	aa 84       	ldd	r10, Y+10	; 0x0a
    130c:	b9 84       	ldd	r11, Y+9	; 0x09
    130e:	c8 84       	ldd	r12, Y+8	; 0x08
    1310:	df 80       	ldd	r13, Y+7	; 0x07
    1312:	ee 80       	ldd	r14, Y+6	; 0x06
    1314:	fd 80       	ldd	r15, Y+5	; 0x05
    1316:	0c 81       	ldd	r16, Y+4	; 0x04
    1318:	1b 81       	ldd	r17, Y+3	; 0x03
    131a:	aa 81       	ldd	r26, Y+2	; 0x02
    131c:	b9 81       	ldd	r27, Y+1	; 0x01
    131e:	ce 0f       	add	r28, r30
    1320:	d1 1d       	adc	r29, r1
    1322:	0f b6       	in	r0, 0x3f	; 63
    1324:	f8 94       	cli
    1326:	de bf       	out	0x3e, r29	; 62
    1328:	0f be       	out	0x3f, r0	; 63
    132a:	cd bf       	out	0x3d, r28	; 61
    132c:	ed 01       	movw	r28, r26
    132e:	08 95       	ret
