   1               		.file	"OWI.c"
   2               	__SREG__ = 0x3f
   3               	__SP_H__ = 0x3e
   4               	__SP_L__ = 0x3d
   5               	__CCP__  = 0x34
   6               	__tmp_reg__ = 0
   7               	__zero_reg__ = 1
   8               		.global __do_copy_data
   9               		.global __do_clear_bss
  17               	.Ltext0:
  18               	.global	OWI_Init
  20               	OWI_Init:
  21               	.LFB6:
  22               	.LM1:
  23               	.LVL0:
  24               	/* prologue: function */
  25               	/* frame size = 0 */
  26               	.LM2:
  27 0000 94B3      		in r25,52-32
  28 0002 8095      		com r24
  29               	.LVL1:
  30 0004 9823      		and r25,r24
  31 0006 94BB      		out 52-32,r25
  32 0008 95B3      		in r25,53-32
  33 000a 9823      		and r25,r24
  34 000c 95BB      		out 53-32,r25
  35               	.LBB126:
  36               	.LBB127:
  37               	.LBB128:
  38               	.LBB129:
  39               	.LBB130:
  40               	.LBB131:
  41               	.LM3:
  42 000e 80EE      		ldi r24,lo8(480)
  43 0010 91E0      		ldi r25,hi8(480)
  44               	.LVL2:
  45               	/* #APP */
  46               	 ;  105 "c:/winavr-20081205/lib/gcc/../../avr/include/util/delay_basic.h" 1
  47 0012 0197      		1: sbiw r24,1
  48 0014 01F4      		brne 1b
  49               	 ;  0 "" 2
  50               	/* epilogue start */
  51               	/* #NOAPP */
  52               	.LBE131:
  53               	.LBE130:
  54               	.LBE129:
  55               	.LBE128:
  56               	.LBE127:
  57               	.LBE126:
  58               	.LM4:
  59 0016 0895      		ret
  60               	.LFE6:
  62               	.global	OWI_WriteBit1
  64               	OWI_WriteBit1:
  65               	.LFB7:
  66               	.LM5:
  67               	.LVL3:
  68               	/* prologue: function */
  69               	/* frame size = 0 */
  70               	.LM6:
  71 0018 2FB7      		in r18,__SREG__
  72               	.LVL4:
  73               	.LM7:
  74               	/* #APP */
  75               	 ;  40 "OWI.c" 1
  76 001a F894      		cli
  77               	 ;  0 "" 2
  78               	.LM8:
  79               	/* #NOAPP */
  80 001c 94B3      		in r25,52-32
  81 001e 982B      		or r25,r24
  82 0020 94BB      		out 52-32,r25
  83 0022 95B3      		in r25,53-32
  84 0024 8095      		com r24
  85               	.LVL5:
  86 0026 9823      		and r25,r24
  87 0028 95BB      		out 53-32,r25
  88               	.LBB132:
  89               	.LBB133:
  90               	.LBB134:
  91               	.LBB135:
  92               	.LM9:
  93 002a 98E0      		ldi r25,lo8(8)
  94               	.LVL6:
  95               	/* #APP */
  96               	 ;  83 "c:/winavr-20081205/lib/gcc/../../avr/include/util/delay_basic.h" 1
  97 002c 9A95      		1: dec r25
  98 002e 01F4      		brne 1b
  99               	 ;  0 "" 2
 100               	/* #NOAPP */
 101               	.LBE135:
 102               	.LBE134:
 103               	.LBE133:
 104               	.LBE132:
 105               	.LM10:
 106 0030 94B3      		in r25,52-32
 107               	.LVL7:
 108 0032 9823      		and r25,r24
 109 0034 94BB      		out 52-32,r25
 110 0036 95B3      		in r25,53-32
 111 0038 8923      		and r24,r25
 112 003a 85BB      		out 53-32,r24
 113               	.LBB136:
 114               	.LBB137:
 115               	.LBB138:
 116               	.LBB139:
 117               	.LM11:
 118 003c 85E5      		ldi r24,lo8(85)
 119               	.LVL8:
 120               	/* #APP */
 121               	 ;  83 "c:/winavr-20081205/lib/gcc/../../avr/include/util/delay_basic.h" 1
 122 003e 8A95      		1: dec r24
 123 0040 01F4      		brne 1b
 124               	 ;  0 "" 2
 125               	/* #NOAPP */
 126               	.LBE139:
 127               	.LBE138:
 128               	.LBE137:
 129               	.LBE136:
 130               	.LM12:
 131 0042 2FBF      		out __SREG__,r18
 132               	.LM13:
 133               	/* #APP */
 134               	 ;  52 "OWI.c" 1
 135 0044 7894      		sei
 136               	 ;  0 "" 2
 137               	/* epilogue start */
 138               	.LM14:
 139               	/* #NOAPP */
 140 0046 0895      		ret
 141               	.LFE7:
 143               	.global	OWI_WriteBit0
 145               	OWI_WriteBit0:
 146               	.LFB8:
 147               	.LM15:
 148               	.LVL9:
 149               	/* prologue: function */
 150               	/* frame size = 0 */
 151               	.LM16:
 152 0048 2FB7      		in r18,__SREG__
 153               	.LVL10:
 154               	.LM17:
 155               	/* #APP */
 156               	 ;  69 "OWI.c" 1
 157 004a F894      		cli
 158               	 ;  0 "" 2
 159               	.LM18:
 160               	/* #NOAPP */
 161 004c 94B3      		in r25,52-32
 162 004e 982B      		or r25,r24
 163 0050 94BB      		out 52-32,r25
 164 0052 95B3      		in r25,53-32
 165 0054 8095      		com r24
 166               	.LVL11:
 167 0056 9823      		and r25,r24
 168 0058 95BB      		out 53-32,r25
 169               	.LBB140:
 170               	.LBB141:
 171               	.LBB142:
 172               	.LBB143:
 173               	.LM19:
 174 005a 90E5      		ldi r25,lo8(80)
 175               	.LVL12:
 176               	/* #APP */
 177               	 ;  83 "c:/winavr-20081205/lib/gcc/../../avr/include/util/delay_basic.h" 1
 178 005c 9A95      		1: dec r25
 179 005e 01F4      		brne 1b
 180               	 ;  0 "" 2
 181               	/* #NOAPP */
 182               	.LBE143:
 183               	.LBE142:
 184               	.LBE141:
 185               	.LBE140:
 186               	.LM20:
 187 0060 94B3      		in r25,52-32
 188               	.LVL13:
 189 0062 9823      		and r25,r24
 190 0064 94BB      		out 52-32,r25
 191 0066 95B3      		in r25,53-32
 192 0068 8923      		and r24,r25
 193 006a 85BB      		out 53-32,r24
 194               	.LBB144:
 195               	.LBB145:
 196               	.LBB146:
 197               	.LBB147:
 198               	.LM21:
 199 006c 8DE0      		ldi r24,lo8(13)
 200               	.LVL14:
 201               	/* #APP */
 202               	 ;  83 "c:/winavr-20081205/lib/gcc/../../avr/include/util/delay_basic.h" 1
 203 006e 8A95      		1: dec r24
 204 0070 01F4      		brne 1b
 205               	 ;  0 "" 2
 206               	/* #NOAPP */
 207               	.LBE147:
 208               	.LBE146:
 209               	.LBE145:
 210               	.LBE144:
 211               	.LM22:
 212 0072 2FBF      		out __SREG__,r18
 213               	.LM23:
 214               	/* #APP */
 215               	 ;  81 "OWI.c" 1
 216 0074 7894      		sei
 217               	 ;  0 "" 2
 218               	/* epilogue start */
 219               	.LM24:
 220               	/* #NOAPP */
 221 0076 0895      		ret
 222               	.LFE8:
 224               	.global	OWI_ReadBit
 226               	OWI_ReadBit:
 227               	.LFB9:
 228               	.LM25:
 229               	.LVL15:
 230               	/* prologue: function */
 231               	/* frame size = 0 */
 232               	.LM26:
 233 0078 3FB7      		in r19,__SREG__
 234               	.LVL16:
 235               	.LM27:
 236               	/* #APP */
 237               	 ;  100 "OWI.c" 1
 238 007a F894      		cli
 239               	 ;  0 "" 2
 240               	.LM28:
 241               	/* #NOAPP */
 242 007c 94B3      		in r25,52-32
 243 007e 982B      		or r25,r24
 244 0080 94BB      		out 52-32,r25
 245 0082 95B3      		in r25,53-32
 246 0084 282F      		mov r18,r24
 247 0086 2095      		com r18
 248 0088 9223      		and r25,r18
 249 008a 95BB      		out 53-32,r25
 250               	.LBB148:
 251               	.LBB149:
 252               	.LBB150:
 253               	.LBB151:
 254               	.LM29:
 255 008c 98E0      		ldi r25,lo8(8)
 256               	.LVL17:
 257               	/* #APP */
 258               	 ;  83 "c:/winavr-20081205/lib/gcc/../../avr/include/util/delay_basic.h" 1
 259 008e 9A95      		1: dec r25
 260 0090 01F4      		brne 1b
 261               	 ;  0 "" 2
 262               	/* #NOAPP */
 263               	.LBE151:
 264               	.LBE150:
 265               	.LBE149:
 266               	.LBE148:
 267               	.LM30:
 268 0092 94B3      		in r25,52-32
 269               	.LVL18:
 270 0094 9223      		and r25,r18
 271 0096 94BB      		out 52-32,r25
 272 0098 95B3      		in r25,53-32
 273 009a 2923      		and r18,r25
 274 009c 25BB      		out 53-32,r18
 275               	.LBB152:
 276               	.LBB153:
 277               	.LBB154:
 278               	.LBB155:
 279               	.LM31:
 280 009e 9CE0      		ldi r25,lo8(12)
 281               	.LVL19:
 282               	/* #APP */
 283               	 ;  83 "c:/winavr-20081205/lib/gcc/../../avr/include/util/delay_basic.h" 1
 284 00a0 9A95      		1: dec r25
 285 00a2 01F4      		brne 1b
 286               	 ;  0 "" 2
 287               	/* #NOAPP */
 288               	.LBE155:
 289               	.LBE154:
 290               	.LBE153:
 291               	.LBE152:
 292               	.LM32:
 293 00a4 93B3      		in r25,51-32
 294               	.LVL20:
 295               	.LBB156:
 296               	.LBB157:
 297               	.LBB158:
 298               	.LBB159:
 299               	.LM33:
 300 00a6 29E4      		ldi r18,lo8(73)
 301               	.LVL21:
 302               	/* #APP */
 303               	 ;  83 "c:/winavr-20081205/lib/gcc/../../avr/include/util/delay_basic.h" 1
 304 00a8 2A95      		1: dec r18
 305 00aa 01F4      		brne 1b
 306               	 ;  0 "" 2
 307               	/* #NOAPP */
 308               	.LBE159:
 309               	.LBE158:
 310               	.LBE157:
 311               	.LBE156:
 312               	.LM34:
 313 00ac 3FBF      		out __SREG__,r19
 314               	.LM35:
 315               	/* #APP */
 316               	 ;  116 "OWI.c" 1
 317 00ae 7894      		sei
 318               	 ;  0 "" 2
 319               	.LM36:
 320               	/* #NOAPP */
 321 00b0 8923      		and r24,r25
 322               	.LVL22:
 323               	/* epilogue start */
 324 00b2 0895      		ret
 325               	.LFE9:
 327               	.global	OWI_DetectPresence
 329               	OWI_DetectPresence:
 330               	.LFB10:
 331               	.LM37:
 332               	.LVL23:
 333               	/* prologue: function */
 334               	/* frame size = 0 */
 335               	.LM38:
 336 00b4 3FB7      		in r19,__SREG__
 337               	.LVL24:
 338               	.LM39:
 339               	/* #APP */
 340               	 ;  139 "OWI.c" 1
 341 00b6 F894      		cli
 342               	 ;  0 "" 2
 343               	.LM40:
 344               	/* #NOAPP */
 345 00b8 94B3      		in r25,52-32
 346 00ba 982B      		or r25,r24
 347 00bc 94BB      		out 52-32,r25
 348 00be 95B3      		in r25,53-32
 349 00c0 282F      		mov r18,r24
 350 00c2 2095      		com r18
 351 00c4 9223      		and r25,r18
 352 00c6 95BB      		out 53-32,r25
 353               	.LBB160:
 354               	.LBB161:
 355               	.LBB162:
 356               	.LBB163:
 357               	.LBB164:
 358               	.LBB165:
 359               	.LM41:
 360 00c8 E0EE      		ldi r30,lo8(480)
 361 00ca F1E0      		ldi r31,hi8(480)
 362               	.LVL25:
 363               	/* #APP */
 364               	 ;  105 "c:/winavr-20081205/lib/gcc/../../avr/include/util/delay_basic.h" 1
 365 00cc 3197      		1: sbiw r30,1
 366 00ce 01F4      		brne 1b
 367               	 ;  0 "" 2
 368               	/* #NOAPP */
 369               	.LBE165:
 370               	.LBE164:
 371               	.LBE163:
 372               	.LBE162:
 373               	.LBE161:
 374               	.LBE160:
 375               	.LM42:
 376 00d0 94B3      		in r25,52-32
 377 00d2 9223      		and r25,r18
 378 00d4 94BB      		out 52-32,r25
 379 00d6 95B3      		in r25,53-32
 380 00d8 2923      		and r18,r25
 381 00da 25BB      		out 53-32,r18
 382               	.LBB166:
 383               	.LBB167:
 384               	.LBB168:
 385               	.LBB169:
 386               	.LM43:
 387 00dc 9DE5      		ldi r25,lo8(93)
 388               	.LVL26:
 389               	/* #APP */
 390               	 ;  83 "c:/winavr-20081205/lib/gcc/../../avr/include/util/delay_basic.h" 1
 391 00de 9A95      		1: dec r25
 392 00e0 01F4      		brne 1b
 393               	 ;  0 "" 2
 394               	/* #NOAPP */
 395               	.LBE169:
 396               	.LBE168:
 397               	.LBE167:
 398               	.LBE166:
 399               	.LM44:
 400 00e2 93B3      		in r25,51-32
 401               	.LVL27:
 402               	.LBB170:
 403               	.LBB171:
 404               	.LBB172:
 405               	.LBB173:
 406               	.LBB174:
 407               	.LBB175:
 408               	.LM45:
 409 00e4 EAE9      		ldi r30,lo8(410)
 410 00e6 F1E0      		ldi r31,hi8(410)
 411               	.LVL28:
 412               	/* #APP */
 413               	 ;  105 "c:/winavr-20081205/lib/gcc/../../avr/include/util/delay_basic.h" 1
 414 00e8 3197      		1: sbiw r30,1
 415 00ea 01F4      		brne 1b
 416               	 ;  0 "" 2
 417               	/* #NOAPP */
 418               	.LBE175:
 419               	.LBE174:
 420               	.LBE173:
 421               	.LBE172:
 422               	.LBE171:
 423               	.LBE170:
 424               	.LM46:
 425 00ec 3FBF      		out __SREG__,r19
 426               	.LM47:
 427               	/* #APP */
 428               	 ;  155 "OWI.c" 1
 429 00ee 7894      		sei
 430               	 ;  0 "" 2
 431               	/* #NOAPP */
 432 00f0 9095      		com r25
 433               	.LM48:
 434 00f2 8923      		and r24,r25
 435               	.LVL29:
 436               	/* epilogue start */
 437 00f4 0895      		ret
 438               	.LFE10:
 440               	.global	OWI_SendByte
 442               	OWI_SendByte:
 443               	.LFB11:
 444               	.LM49:
 445               	.LVL30:
 446 00f6 FF92      		push r15
 447 00f8 0F93      		push r16
 448 00fa 1F93      		push r17
 449               	/* prologue: function */
 450               	/* frame size = 0 */
 451 00fc 082F      		mov r16,r24
 452 00fe F62E      		mov r15,r22
 453               	.LM50:
 454 0100 10E0      		ldi r17,lo8(0)
 455               	.LVL31:
 456               	.L15:
 457               	.LM51:
 458 0102 00FF      		sbrs r16,0
 459 0104 00C0      		rjmp .L12
 460               	.LM52:
 461 0106 8F2D      		mov r24,r15
 462 0108 00D0      		rcall OWI_WriteBit1
 463 010a 00C0      		rjmp .L13
 464               	.LVL32:
 465               	.L12:
 466               	.LM53:
 467 010c 8F2D      		mov r24,r15
 468 010e 00D0      		rcall OWI_WriteBit0
 469               	.L13:
 470               	.LM54:
 471 0110 1F5F      		subi r17,lo8(-(1))
 472 0112 1830      		cpi r17,lo8(8)
 473 0114 01F0      		breq .L16
 474               	.LM55:
 475 0116 0695      		lsr r16
 476 0118 00C0      		rjmp .L15
 477               	.L16:
 478               	/* epilogue start */
 479               	.LM56:
 480 011a 1F91      		pop r17
 481               	.LVL33:
 482 011c 0F91      		pop r16
 483               	.LVL34:
 484 011e FF90      		pop r15
 485               	.LVL35:
 486 0120 0895      		ret
 487               	.LFE11:
 489               	.global	OWI_ReceiveByte
 491               	OWI_ReceiveByte:
 492               	.LFB12:
 493               	.LM57:
 494               	.LVL36:
 495 0122 FF92      		push r15
 496 0124 0F93      		push r16
 497 0126 1F93      		push r17
 498               	/* prologue: function */
 499               	/* frame size = 0 */
 500 0128 F82E      		mov r15,r24
 501               	.LM58:
 502 012a 10E0      		ldi r17,lo8(0)
 503               	.LVL37:
 504 012c 00E0      		ldi r16,lo8(0)
 505               	.LVL38:
 506               	.L19:
 507               	.LM59:
 508 012e 1695      		lsr r17
 509               	.LM60:
 510 0130 8F2D      		mov r24,r15
 511 0132 00D0      		rcall OWI_ReadBit
 512 0134 8111      		cpse r24,__zero_reg__
 513               	.LM61:
 514 0136 1068      		ori r17,lo8(-128)
 515               	.L18:
 516               	.LM62:
 517 0138 0F5F      		subi r16,lo8(-(1))
 518 013a 0830      		cpi r16,lo8(8)
 519 013c 01F4      		brne .L19
 520               	.LM63:
 521 013e 812F      		mov r24,r17
 522               	/* epilogue start */
 523 0140 1F91      		pop r17
 524               	.LVL39:
 525 0142 0F91      		pop r16
 526               	.LVL40:
 527 0144 FF90      		pop r15
 528               	.LVL41:
 529 0146 0895      		ret
 530               	.LFE12:
 532               	.global	OWI_SkipRom
 534               	OWI_SkipRom:
 535               	.LFB13:
 536               	.LM64:
 537               	.LVL42:
 538               	/* prologue: function */
 539               	/* frame size = 0 */
 540 0148 682F      		mov r22,r24
 541               	.LM65:
 542 014a 8CEC      		ldi r24,lo8(-52)
 543               	.LVL43:
 544 014c 00D0      		rcall OWI_SendByte
 545               	.LVL44:
 546               	/* epilogue start */
 547               	.LM66:
 548 014e 0895      		ret
 549               	.LFE13:
 551               	.global	OWI_ReadRom
 553               	OWI_ReadRom:
 554               	.LFB14:
 555               	.LM67:
 556               	.LVL45:
 557 0150 0F93      		push r16
 558 0152 1F93      		push r17
 559 0154 CF93      		push r28
 560 0156 DF93      		push r29
 561               	/* prologue: function */
 562               	/* frame size = 0 */
 563 0158 EC01      		movw r28,r24
 564 015a 062F      		mov r16,r22
 565               	.LM68:
 566 015c 83E3      		ldi r24,lo8(51)
 567               	.LVL46:
 568 015e 00D0      		rcall OWI_SendByte
 569               	.LVL47:
 570 0160 18E0      		ldi r17,lo8(8)
 571               	.LVL48:
 572               	.L25:
 573               	.LM69:
 574 0162 802F      		mov r24,r16
 575 0164 00D0      		rcall OWI_ReceiveByte
 576 0166 8993      		st Y+,r24
 577               	.LM70:
 578 0168 1150      		subi r17,lo8(-(-1))
 579               	.LM71:
 580 016a 01F4      		brne .L25
 581               	/* epilogue start */
 582               	.LM72:
 583 016c DF91      		pop r29
 584 016e CF91      		pop r28
 585               	.LVL49:
 586 0170 1F91      		pop r17
 587               	.LVL50:
 588 0172 0F91      		pop r16
 589               	.LVL51:
 590 0174 0895      		ret
 591               	.LFE14:
 593               	.global	OWI_ComputeCRC8
 595               	OWI_ComputeCRC8:
 596               	.LFB15:
 597               	.LM73:
 598               	.LVL52:
 599               	/* prologue: function */
 600               	/* frame size = 0 */
 601 0176 282F      		mov r18,r24
 602               	.LM74:
 603 0178 98E0      		ldi r25,lo8(8)
 604               	.LVL53:
 605               	.LM75:
 606 017a 38E1      		ldi r19,lo8(24)
 607               	.LVL54:
 608               	.L32:
 609               	.LM76:
 610 017c 862F      		mov r24,r22
 611 017e 8227      		eor r24,r18
 612 0180 80FD      		sbrc r24,0
 613 0182 00C0      		rjmp .L29
 614               	.LM77:
 615 0184 6695      		lsr r22
 616               	.LVL55:
 617 0186 00C0      		rjmp .L30
 618               	.L29:
 619               	.LM78:
 620 0188 6327      		eor r22,r19
 621               	.LVL56:
 622               	.LM79:
 623 018a 6695      		lsr r22
 624               	.LM80:
 625 018c 6068      		ori r22,lo8(-128)
 626               	.L30:
 627               	.LM81:
 628 018e 9150      		subi r25,lo8(-(-1))
 629 0190 01F0      		breq .L31
 630               	.LM82:
 631 0192 2695      		lsr r18
 632 0194 00C0      		rjmp .L32
 633               	.L31:
 634               	.LM83:
 635 0196 862F      		mov r24,r22
 636               	/* epilogue start */
 637 0198 0895      		ret
 638               	.LFE15:
 640               	.global	OWI_ComputeCRC16
 642               	OWI_ComputeCRC16:
 643               	.LFB16:
 644               	.LM84:
 645               	.LVL57:
 646               	/* prologue: function */
 647               	/* frame size = 0 */
 648 019a 282F      		mov r18,r24
 649               	.LM85:
 650 019c 98E0      		ldi r25,lo8(8)
 651               	.LVL58:
 652               	.LM86:
 653 019e 42E0      		ldi r20,lo8(16386)
 654 01a0 50E4      		ldi r21,hi8(16386)
 655               	.LVL59:
 656               	.L38:
 657               	.LM87:
 658 01a2 822F      		mov r24,r18
 659 01a4 8627      		eor r24,r22
 660 01a6 80FD      		sbrc r24,0
 661 01a8 00C0      		rjmp .L35
 662               	.LM88:
 663 01aa 7695      		lsr r23
 664 01ac 6795      		ror r22
 665               	.LVL60:
 666 01ae 00C0      		rjmp .L36
 667               	.L35:
 668               	.LM89:
 669 01b0 6427      		eor r22,r20
 670 01b2 7527      		eor r23,r21
 671               	.LVL61:
 672               	.LM90:
 673 01b4 7695      		lsr r23
 674 01b6 6795      		ror r22
 675               	.LM91:
 676 01b8 7068      		ori r23,hi8(-32768)
 677               	.L36:
 678               	.LM92:
 679 01ba 9150      		subi r25,lo8(-(-1))
 680 01bc 01F0      		breq .L37
 681               	.LM93:
 682 01be 2695      		lsr r18
 683 01c0 00C0      		rjmp .L38
 684               	.L37:
 685               	.LM94:
 686 01c2 CB01      		movw r24,r22
 687               	.LVL62:
 688               	/* epilogue start */
 689 01c4 0895      		ret
 690               	.LFE16:
 692               	.global	OWI_CheckRomCRC
 694               	OWI_CheckRomCRC:
 695               	.LFB17:
 696               	.LM95:
 697               	.LVL63:
 698               	/* prologue: function */
 699               	/* frame size = 0 */
 700 01c6 DC01      		movw r26,r24
 701               	.LM96:
 702 01c8 FC01      		movw r30,r24
 703 01ca 40E0      		ldi r20,lo8(0)
 704               	.LVL64:
 705 01cc 20E0      		ldi r18,lo8(0)
 706               	.LVL65:
 707               	.LBB176:
 708               	.LBB177:
 709               	.LM97:
 710 01ce 58E1      		ldi r21,lo8(24)
 711               	.LVL66:
 712               	.L45:
 713               	.LBE177:
 714               	.LBE176:
 715               	.LM98:
 716 01d0 3081      		ld r19,Z
 717 01d2 98E0      		ldi r25,lo8(8)
 718               	.L44:
 719               	.LBB179:
 720               	.LBB178:
 721               	.LM99:
 722 01d4 832F      		mov r24,r19
 723 01d6 8227      		eor r24,r18
 724 01d8 80FD      		sbrc r24,0
 725 01da 00C0      		rjmp .L41
 726               	.LM100:
 727 01dc 2695      		lsr r18
 728 01de 00C0      		rjmp .L42
 729               	.L41:
 730               	.LM101:
 731 01e0 2527      		eor r18,r21
 732               	.LM102:
 733 01e2 2695      		lsr r18
 734 01e4 2068      		ori r18,lo8(-128)
 735               	.L42:
 736               	.LM103:
 737 01e6 9150      		subi r25,lo8(-(-1))
 738 01e8 01F0      		breq .L43
 739               	.LM104:
 740 01ea 3695      		lsr r19
 741 01ec 00C0      		rjmp .L44
 742               	.L43:
 743               	.LBE178:
 744               	.LBE179:
 745               	.LM105:
 746 01ee 3196      		adiw r30,1
 747               	.LM106:
 748 01f0 4F5F      		subi r20,lo8(-(1))
 749 01f2 4730      		cpi r20,lo8(7)
 750 01f4 01F4      		brne .L45
 751 01f6 90E0      		ldi r25,lo8(0)
 752               	.LVL67:
 753 01f8 1796      		adiw r26,7
 754 01fa 8C91      		ld r24,X
 755 01fc 2813      		cpse r18,r24
 756               	.LVL68:
 757 01fe 91E0      		ldi r25,lo8(1)
 758               	.L46:
 759               	.LM107:
 760 0200 892F      		mov r24,r25
 761               	/* epilogue start */
 762 0202 0895      		ret
 763               	.LFE17:
 877               	.Letext0:
DEFINED SYMBOLS
                            *ABS*:00000000 OWI.c
C:\DOCUME~1\Gedas\LOCALS~1\Temp/cczWkxOh.s:2      *ABS*:0000003f __SREG__
C:\DOCUME~1\Gedas\LOCALS~1\Temp/cczWkxOh.s:3      *ABS*:0000003e __SP_H__
C:\DOCUME~1\Gedas\LOCALS~1\Temp/cczWkxOh.s:4      *ABS*:0000003d __SP_L__
C:\DOCUME~1\Gedas\LOCALS~1\Temp/cczWkxOh.s:5      *ABS*:00000034 __CCP__
C:\DOCUME~1\Gedas\LOCALS~1\Temp/cczWkxOh.s:6      *ABS*:00000000 __tmp_reg__
C:\DOCUME~1\Gedas\LOCALS~1\Temp/cczWkxOh.s:7      *ABS*:00000001 __zero_reg__
C:\DOCUME~1\Gedas\LOCALS~1\Temp/cczWkxOh.s:20     .text:00000000 OWI_Init
C:\DOCUME~1\Gedas\LOCALS~1\Temp/cczWkxOh.s:64     .text:00000018 OWI_WriteBit1
C:\DOCUME~1\Gedas\LOCALS~1\Temp/cczWkxOh.s:145    .text:00000048 OWI_WriteBit0
C:\DOCUME~1\Gedas\LOCALS~1\Temp/cczWkxOh.s:226    .text:00000078 OWI_ReadBit
C:\DOCUME~1\Gedas\LOCALS~1\Temp/cczWkxOh.s:329    .text:000000b4 OWI_DetectPresence
C:\DOCUME~1\Gedas\LOCALS~1\Temp/cczWkxOh.s:442    .text:000000f6 OWI_SendByte
C:\DOCUME~1\Gedas\LOCALS~1\Temp/cczWkxOh.s:491    .text:00000122 OWI_ReceiveByte
C:\DOCUME~1\Gedas\LOCALS~1\Temp/cczWkxOh.s:534    .text:00000148 OWI_SkipRom
C:\DOCUME~1\Gedas\LOCALS~1\Temp/cczWkxOh.s:553    .text:00000150 OWI_ReadRom
C:\DOCUME~1\Gedas\LOCALS~1\Temp/cczWkxOh.s:595    .text:00000176 OWI_ComputeCRC8
C:\DOCUME~1\Gedas\LOCALS~1\Temp/cczWkxOh.s:642    .text:0000019a OWI_ComputeCRC16
C:\DOCUME~1\Gedas\LOCALS~1\Temp/cczWkxOh.s:694    .text:000001c6 OWI_CheckRomCRC

UNDEFINED SYMBOLS
__do_copy_data
__do_clear_bss
