Archive member included       because of file (symbol)

D:\Develop\avrgcc\bin\..\lib\gcc-lib\avr\3.0.2\libgcc.a(_mulhi3.o)
                              ../../obj/avr/ui.o (__mulhi3)
D:\Develop\avrgcc\bin\..\lib\gcc-lib\avr\3.0.2\libgcc.a(_mulsi3.o)
                              ../../obj/avr/ui.o (__mulsi3)
D:\Develop\avrgcc\bin\..\lib\gcc-lib\avr\3.0.2\libgcc.a(_udivmodqi4.o)
                              ../../obj/avr/ui.o (__udivmodqi4)
D:\Develop\avrgcc\bin\..\lib\gcc-lib\avr\3.0.2\libgcc.a(_udivmodsi4.o)
                              ../../obj/avr/serial_avr.o (__udivmodsi4)
D:\Develop\avrgcc\bin\..\lib\gcc-lib\avr\3.0.2\libgcc.a(_divmodsi4.o)
                              ../../obj/avr/ui.o (__divmodsi4)
D:\Develop\avrgcc\bin\..\lib\gcc-lib\avr\3.0.2\..\..\..\..\avr\lib\libc.a(itoa.o)
                              ../../obj/avr/ui.o (itoa)
D:\Develop\avrgcc\bin\..\lib\gcc-lib\avr\3.0.2\libgcc.a(_udivmodhi4.o)
                              D:\Develop\avrgcc\bin\..\lib\gcc-lib\avr\3.0.2\..\..\..\..\avr\lib\libc.a(itoa.o) (__udivmodhi4)

Allocating common symbols
Common symbol       size              file

uart_receivedChar   0x1               ../../obj/avr/serial_avr.o
uart_rxChar         0x1               ../../obj/avr/serial_avr.o
pBuffer             0x2               ../../obj/avr/serial_avr.o
uart_ready          0x1               ../../obj/avr/serial_avr.o

Memory Configuration

Name             Origin             Length             Attributes
text             0x00000000         0x00002000         xr
data             0x00800060         0x00000200         rw !x
eeprom           0x00810000         0x00000200         rw !x
*default*        0x00000000         0xffffffff

Linker script and memory map

LOAD D:\Develop\avrgcc\bin\..\lib\gcc-lib\avr\3.0.2\..\..\..\..\avr\lib\crts8515.o
LOAD ../../obj/avr/serial_avr.o
LOAD ../../obj/avr/ide_avr.o
LOAD ../../obj/avr/ide.o
LOAD ../../obj/avr/timer_avr.o
LOAD ../../obj/avr/ui.o
LOAD ../../obj/avr/monitor.o
LOAD D:\Develop\avrgcc\bin\..\lib\gcc-lib\avr\3.0.2\libgcc.a
LOAD D:\Develop\avrgcc\bin\..\lib\gcc-lib\avr\3.0.2\..\..\..\..\avr\lib\libc.a
LOAD D:\Develop\avrgcc\bin\..\lib\gcc-lib\avr\3.0.2\libgcc.a

.hash
 *(.hash)

.dynsym
 *(.dynsym)

.dynstr
 *(.dynstr)

.gnu.version
 *(.gnu.version)

.gnu.version_d
 *(.gnu.version_d)

.gnu.version_r
 *(.gnu.version_r)

.rel.init
 *(.rel.init)

.rela.init
 *(.rela.init)

.rel.text
 *(.rel.text)
 *(.rel.text.*)
 *(.rel.gnu.linkonce.t*)

.rela.text
 *(.rela.text)
 *(.rela.text.*)
 *(.rela.gnu.linkonce.t*)

.rel.fini
 *(.rel.fini)

.rela.fini
 *(.rela.fini)

.rel.rodata
 *(.rel.rodata)
 *(.rel.rodata.*)
 *(.rel.gnu.linkonce.r*)

.rela.rodata
 *(.rela.rodata)
 *(.rela.rodata.*)
 *(.rela.gnu.linkonce.r*)

.rel.data
 *(.rel.data)
 *(.rel.data.*)
 *(.rel.gnu.linkonce.d*)

.rela.data
 *(.rela.data)
 *(.rela.data.*)
 *(.rela.gnu.linkonce.d*)

.rel.ctors
 *(.rel.ctors)

.rela.ctors
 *(.rela.ctors)

.rel.dtors
 *(.rel.dtors)

.rela.dtors
 *(.rela.dtors)

.rel.got
 *(.rel.got)

.rela.got
 *(.rela.got)

.rel.bss
 *(.rel.bss)

.rela.bss
 *(.rela.bss)

.rel.plt
 *(.rel.plt)

.rela.plt
 *(.rela.plt)

.text           0x00000000     0x15f8
 *(.init)
 .init          0x00000000       0x1a D:\Develop\avrgcc\bin\..\lib\gcc-lib\avr\3.0.2\..\..\..\..\avr\lib\crts8515.o
 *(.progmem.gcc*)
 .progmem.gcc_sw_table
                0x0000001a       0x16 ../../obj/avr/ide.o
 .progmem.gcc_sw_table
                0x00000030       0x68 ../../obj/avr/ui.o
 *(.progmem*)
 .progmem.data  0x00000098        0x3 ../../obj/avr/serial_avr.o
                0x00000098                uart_endOfLine
 .progmem.data  0x0000009b      0x362 ../../obj/avr/ui.o
 *fill*         0x000003fd        0x1
                0x000003fe                .=ALIGN(0x2)
 *(.text)
 .text          0x000003fe       0x3c D:\Develop\avrgcc\bin\..\lib\gcc-lib\avr\3.0.2\..\..\..\..\avr\lib\crts8515.o
                0x00000436                _overflow1_
                0x00000436                _interrupt1_
                0x00000436                _spi_
                0x000003fe                _init_
                0x00000436                _output_compare1b_
                0x00000436                _uart_data_
                0x00000438                _unexpected_
                0x00000436                _comparator_
                0x00000436                _interrupt0_
                0x00000436                _output_compare1a_
                0x00000436                _input_capture1_
                0x000003fe                _real_init_
 .text          0x0000043a      0x11e ../../obj/avr/serial_avr.o
                0x0000043a                _uart_trans_
                0x000004cc                uart_receiveByte
                0x00000500                uart_printEndOfLine
                0x00000520                uart_init
                0x00000492                _uart_recv_
                0x000004ba                uart_sendByte
                0x000004e0                uart_printProgString
 .text          0x00000558      0x14a ../../obj/avr/ide_avr.o
                0x00000558                ide_ioctl
                0x000005fe                ide_outbyte
                0x0000062e                ide_inbyte
                0x000005c2                ide_outword
                0x00000660                ide_inword
 .text          0x000006a2       0xee ../../obj/avr/ide.o
                0x000006b0                ide_softreset
                0x000006be                ide_status
                0x000006d2                ide_read
                0x0000077c                ide_read_data
                0x00000784                ide_write_data
                0x000006a2                ide_hardreset
                0x000006c8                ide_error
                0x00000728                ide_write
 .text          0x00000790       0x8e ../../obj/avr/timer_avr.o
                0x000007e2                startTimer
                0x00000790                _overflow0_
                0x00000804                getTimer
                0x00000800                stopTimer
 .text          0x0000081e      0xc4a ../../obj/avr/ui.o
                0x00000dd8                SurfaceTest
                0x00000954                print
                0x00000a3c                show_menu
                0x00000996                startup
                0x0000081e                ansi_clrscr
                0x00000dbc                Sleep
                0x00000dca                Wakeup
                0x000008ec                ansi_fg
                0x000009de                menu_main
                0x00000930                printn
                0x00000a80                DeviceDiagnostics
                0x0000088c                ansi_curpos
                0x0000090e                ansi_bg
                0x00000b38                IdentifyHarddisk
 .text          0x00001468       0x20 ../../obj/avr/monitor.o
                0x00001468                main
 .text          0x00001488       0x4e D:\Develop\avrgcc\bin\..\lib\gcc-lib\avr\3.0.2\..\..\..\..\avr\lib\libc.a(itoa.o)
                0x00001488                itoa
                0x000014d6                .=ALIGN(0x2)
 *(.text.*)
 .text.libgcc   0x000014d6       0x24 D:\Develop\avrgcc\bin\..\lib\gcc-lib\avr\3.0.2\libgcc.a(_mulhi3.o)
                0x000014d6                __mulhi3
 .text.libgcc   0x000014fa       0x36 D:\Develop\avrgcc\bin\..\lib\gcc-lib\avr\3.0.2\libgcc.a(_mulsi3.o)
                0x000014fa                __mulsi3
 .text.libgcc   0x00001530       0x18 D:\Develop\avrgcc\bin\..\lib\gcc-lib\avr\3.0.2\libgcc.a(_udivmodqi4.o)
                0x00001530                __udivmodqi4
 .text.libgcc   0x00001548       0x4e D:\Develop\avrgcc\bin\..\lib\gcc-lib\avr\3.0.2\libgcc.a(_udivmodsi4.o)
                0x00001548                __udivmodsi4
 .text.libgcc   0x00001596       0x36 D:\Develop\avrgcc\bin\..\lib\gcc-lib\avr\3.0.2\libgcc.a(_divmodsi4.o)
                0x00001596                __divmodsi4
 .text.libgcc   0x000015cc       0x2c D:\Develop\avrgcc\bin\..\lib\gcc-lib\avr\3.0.2\libgcc.a(_udivmodhi4.o)
                0x000015cc                __udivmodhi4
                0x000015f8                .=ALIGN(0x2)
 *(.fini)
                0x000015f8                _etext=.

.data           0x00800060        0x6 load address 0x000015f8
                0x00800060                PROVIDE (__data_start, .)
 *(.data)
 .data          0x00800060        0x6 ../../obj/avr/timer_avr.o
                0x00800064                _tick
                0x00800060                _timer
 *(.gnu.linkonce.d*)
                0x00800066                .=ALIGN(0x2)
                0x00800066                _edata=.

.bss            0x00800066        0x5
                0x00800066                PROVIDE (__bss_start, .)
 *(.bss)
 *(COMMON)
 COMMON         0x00800066        0x5 ../../obj/avr/serial_avr.o
                                  0x0 (size before relaxing)
                0x00800066                uart_receivedChar
                0x00800067                uart_rxChar
                0x00800068                pBuffer
                0x0080006a                uart_ready
                0x0080006b                PROVIDE (__bss_end, .)
                0x0080006b                _end=.

.eeprom         0x00810000        0x0 load address 0x000015fe
 *(.eeprom*)
                0x00810000                __eeprom_end=.

.stab           0x00000000     0x363c
 *(.stab)
 .stab          0x00000000      0x324 D:\Develop\avrgcc\bin\..\lib\gcc-lib\avr\3.0.2\..\..\..\..\avr\lib\crts8515.o
 .stab          0x00000324      0x708 ../../obj/avr/serial_avr.o
                                0x744 (size before relaxing)
 .stab          0x00000a2c      0x7a4 ../../obj/avr/ide_avr.o
                                0x984 (size before relaxing)
 .stab          0x000011d0      0x5a0 ../../obj/avr/ide.o
                                0x7a4 (size before relaxing)
 .stab          0x00001770      0x39c ../../obj/avr/timer_avr.o
                                0x510 (size before relaxing)
 .stab          0x00001b0c     0x15e4 ../../obj/avr/ui.o
                               0x186c (size before relaxing)
 .stab          0x000030f0      0x33c ../../obj/avr/monitor.o
                                0x630 (size before relaxing)
 .stab          0x0000342c      0x210 D:\Develop\avrgcc\bin\..\lib\gcc-lib\avr\3.0.2\..\..\..\..\avr\lib\libc.a(itoa.o)
                                0x21c (size before relaxing)

.stabstr        0x00000000     0x1cee
 *(.stabstr)
 .stabstr       0x00000000     0x1cee D:\Develop\avrgcc\bin\..\lib\gcc-lib\avr\3.0.2\..\..\..\..\avr\lib\crts8515.o
                                  0x0 (size before relaxing)

.stab.excl
 *(.stab.excl)

.stab.exclstr
 *(.stab.exclstr)

.stab.index
 *(.stab.index)

.stab.indexstr
 *(.stab.indexstr)

.comment
 *(.comment)

.debug
 *(.debug)

.line
 *(.line)

.debug_srcinfo
 *(.debug_srcinfo)

.debug_sfnames
 *(.debug_sfnames)

.debug_aranges
 *(.debug_aranges)

.debug_pubnames
 *(.debug_pubnames)

.debug_info
 *(.debug_info)
 *(.gnu.linkonce.wi.*)

.debug_abbrev
 *(.debug_abbrev)

.debug_line
 *(.debug_line)

.debug_frame
 *(.debug_frame)

.debug_str
 *(.debug_str)

.debug_loc
 *(.debug_loc)

.debug_macinfo
 *(.debug_macinfo)
                0x0000025f                PROVIDE (__stack, 0x25f)
OUTPUT(../../obj/avr/monitor.elf elf32-avr)

Cross Reference Table

Symbol                                            File
DeviceDiagnostics                                 ../../obj/avr/ui.o
IdentifyHarddisk                                  ../../obj/avr/ui.o
Sleep                                             ../../obj/avr/ui.o
SurfaceTest                                       ../../obj/avr/ui.o
Wakeup                                            ../../obj/avr/ui.o
__bss_end                                         D:\Develop\avrgcc\bin\..\lib\gcc-lib\avr\3.0.2\..\..\..\..\avr\lib\crts8515.o
__bss_start                                       D:\Develop\avrgcc\bin\..\lib\gcc-lib\avr\3.0.2\..\..\..\..\avr\lib\crts8515.o
__data_start                                      D:\Develop\avrgcc\bin\..\lib\gcc-lib\avr\3.0.2\..\..\..\..\avr\lib\crts8515.o
__divmodsi4                                       D:\Develop\avrgcc\bin\..\lib\gcc-lib\avr\3.0.2\libgcc.a(_divmodsi4.o)
                                                  ../../obj/avr/ui.o
__init_emcucr__                                   D:\Develop\avrgcc\bin\..\lib\gcc-lib\avr\3.0.2\..\..\..\..\avr\lib\crts8515.o
__init_mcucr__                                    D:\Develop\avrgcc\bin\..\lib\gcc-lib\avr\3.0.2\..\..\..\..\avr\lib\crts8515.o
__init_wdtcr__                                    D:\Develop\avrgcc\bin\..\lib\gcc-lib\avr\3.0.2\..\..\..\..\avr\lib\crts8515.o
__mulhi3                                          D:\Develop\avrgcc\bin\..\lib\gcc-lib\avr\3.0.2\libgcc.a(_mulhi3.o)
                                                  ../../obj/avr/ui.o
__mulsi3                                          D:\Develop\avrgcc\bin\..\lib\gcc-lib\avr\3.0.2\libgcc.a(_mulsi3.o)
                                                  ../../obj/avr/ui.o
__stack                                           D:\Develop\avrgcc\bin\..\lib\gcc-lib\avr\3.0.2\..\..\..\..\avr\lib\crts8515.o
                                                  ../../obj/avr/monitor.o
__udivmodhi4                                      D:\Develop\avrgcc\bin\..\lib\gcc-lib\avr\3.0.2\libgcc.a(_udivmodhi4.o)
                                                  D:\Develop\avrgcc\bin\..\lib\gcc-lib\avr\3.0.2\..\..\..\..\avr\lib\libc.a(itoa.o)
__udivmodqi4                                      D:\Develop\avrgcc\bin\..\lib\gcc-lib\avr\3.0.2\libgcc.a(_udivmodqi4.o)
                                                  ../../obj/avr/ui.o
__udivmodsi4                                      D:\Develop\avrgcc\bin\..\lib\gcc-lib\avr\3.0.2\libgcc.a(_udivmodsi4.o)
                                                  D:\Develop\avrgcc\bin\..\lib\gcc-lib\avr\3.0.2\libgcc.a(_divmodsi4.o)
                                                  ../../obj/avr/serial_avr.o
_comparator_                                      D:\Develop\avrgcc\bin\..\lib\gcc-lib\avr\3.0.2\..\..\..\..\avr\lib\crts8515.o
_edata                                            D:\Develop\avrgcc\bin\..\lib\gcc-lib\avr\3.0.2\..\..\..\..\avr\lib\crts8515.o
_etext                                            D:\Develop\avrgcc\bin\..\lib\gcc-lib\avr\3.0.2\..\..\..\..\avr\lib\crts8515.o
_init_                                            D:\Develop\avrgcc\bin\..\lib\gcc-lib\avr\3.0.2\..\..\..\..\avr\lib\crts8515.o
_input_capture1_                                  D:\Develop\avrgcc\bin\..\lib\gcc-lib\avr\3.0.2\..\..\..\..\avr\lib\crts8515.o
_interrupt0_                                      D:\Develop\avrgcc\bin\..\lib\gcc-lib\avr\3.0.2\..\..\..\..\avr\lib\crts8515.o
_interrupt1_                                      D:\Develop\avrgcc\bin\..\lib\gcc-lib\avr\3.0.2\..\..\..\..\avr\lib\crts8515.o
_output_compare1a_                                D:\Develop\avrgcc\bin\..\lib\gcc-lib\avr\3.0.2\..\..\..\..\avr\lib\crts8515.o
_output_compare1b_                                D:\Develop\avrgcc\bin\..\lib\gcc-lib\avr\3.0.2\..\..\..\..\avr\lib\crts8515.o
_overflow0_                                       ../../obj/avr/timer_avr.o
                                                  D:\Develop\avrgcc\bin\..\lib\gcc-lib\avr\3.0.2\..\..\..\..\avr\lib\crts8515.o
_overflow1_                                       D:\Develop\avrgcc\bin\..\lib\gcc-lib\avr\3.0.2\..\..\..\..\avr\lib\crts8515.o
_real_init_                                       D:\Develop\avrgcc\bin\..\lib\gcc-lib\avr\3.0.2\..\..\..\..\avr\lib\crts8515.o
_spi_                                             D:\Develop\avrgcc\bin\..\lib\gcc-lib\avr\3.0.2\..\..\..\..\avr\lib\crts8515.o
_tick                                             ../../obj/avr/timer_avr.o
_timer                                            ../../obj/avr/timer_avr.o
_uart_data_                                       D:\Develop\avrgcc\bin\..\lib\gcc-lib\avr\3.0.2\..\..\..\..\avr\lib\crts8515.o
_uart_recv_                                       ../../obj/avr/serial_avr.o
                                                  D:\Develop\avrgcc\bin\..\lib\gcc-lib\avr\3.0.2\..\..\..\..\avr\lib\crts8515.o
_uart_trans_                                      ../../obj/avr/serial_avr.o
                                                  D:\Develop\avrgcc\bin\..\lib\gcc-lib\avr\3.0.2\..\..\..\..\avr\lib\crts8515.o
_unexpected_                                      D:\Develop\avrgcc\bin\..\lib\gcc-lib\avr\3.0.2\..\..\..\..\avr\lib\crts8515.o
ansi_bg                                           ../../obj/avr/ui.o
ansi_clrscr                                       ../../obj/avr/ui.o
ansi_curpos                                       ../../obj/avr/ui.o
ansi_fg                                           ../../obj/avr/ui.o
getTimer                                          ../../obj/avr/timer_avr.o
                                                  ../../obj/avr/ui.o
ide_error                                         ../../obj/avr/ide.o
                                                  ../../obj/avr/ui.o
ide_hardreset                                     ../../obj/avr/ide.o
                                                  ../../obj/avr/monitor.o
ide_inbyte                                        ../../obj/avr/ide_avr.o
                                                  ../../obj/avr/ide.o
ide_inword                                        ../../obj/avr/ide_avr.o
                                                  ../../obj/avr/ide.o
ide_ioctl                                         ../../obj/avr/ide_avr.o
                                                  ../../obj/avr/ide.o
ide_outbyte                                       ../../obj/avr/ide_avr.o
                                                  ../../obj/avr/ide.o
ide_outword                                       ../../obj/avr/ide_avr.o
                                                  ../../obj/avr/ide.o
ide_read                                          ../../obj/avr/ide.o
ide_read_data                                     ../../obj/avr/ide.o
                                                  ../../obj/avr/ui.o
ide_softreset                                     ../../obj/avr/ide.o
ide_status                                        ../../obj/avr/ide.o
                                                  ../../obj/avr/ui.o
ide_write                                         ../../obj/avr/ide.o
                                                  ../../obj/avr/ui.o
ide_write_data                                    ../../obj/avr/ide.o
                                                  ../../obj/avr/ui.o
itoa                                              D:\Develop\avrgcc\bin\..\lib\gcc-lib\avr\3.0.2\..\..\..\..\avr\lib\libc.a(itoa.o)
                                                  ../../obj/avr/ui.o
main                                              ../../obj/avr/monitor.o
                                                  D:\Develop\avrgcc\bin\..\lib\gcc-lib\avr\3.0.2\..\..\..\..\avr\lib\crts8515.o
menu_main                                         ../../obj/avr/ui.o
                                                  ../../obj/avr/monitor.o
pBuffer                                           ../../obj/avr/serial_avr.o
print                                             ../../obj/avr/ui.o
printn                                            ../../obj/avr/ui.o
show_menu                                         ../../obj/avr/ui.o
startTimer                                        ../../obj/avr/timer_avr.o
                                                  ../../obj/avr/monitor.o
startup                                           ../../obj/avr/ui.o
                                                  ../../obj/avr/monitor.o
stopTimer                                         ../../obj/avr/timer_avr.o
uart_endOfLine                                    ../../obj/avr/serial_avr.o
uart_init                                         ../../obj/avr/serial_avr.o
                                                  ../../obj/avr/monitor.o
uart_printEndOfLine                               ../../obj/avr/serial_avr.o
uart_printProgString                              ../../obj/avr/serial_avr.o
                                                  ../../obj/avr/ui.o
uart_ready                                        ../../obj/avr/serial_avr.o
uart_receiveByte                                  ../../obj/avr/serial_avr.o
                                                  ../../obj/avr/ui.o
uart_receivedChar                                 ../../obj/avr/ui.o
                                                  ../../obj/avr/serial_avr.o
uart_rxChar                                       ../../obj/avr/serial_avr.o
uart_sendByte                                     ../../obj/avr/serial_avr.o
                                                  ../../obj/avr/ui.o
