Archive member included to satisfy reference by file (symbol)

c:/program files (x86)/atmel/studio/7.0/toolchain/avr8/avr8-gnu-toolchain/bin/../lib/gcc/avr/4.9.2/avr5\libgcc.a(_exit.o)
                              C:/Program Files (x86)/Atmel/Studio/7.0/Packs/atmel/ATmega_DFP/1.0.90/gcc/dev/atmega328p/avr5/crtatmega328p.o (exit)
c:/program files (x86)/atmel/studio/7.0/toolchain/avr8/avr8-gnu-toolchain/bin/../lib/gcc/avr/4.9.2/avr5\libgcc.a(_copy_data.o)
                              _Feed_Timer_DP7_Seg.o (__do_copy_data)
c:/program files (x86)/atmel/studio/7.0/toolchain/avr8/avr8-gnu-toolchain/bin/../lib/gcc/avr/4.9.2/avr5\libgcc.a(_clear_bss.o)
                              _Feed_Timer_DP7_Seg.o (__do_clear_bss)
c:/program files (x86)/atmel/studio/7.0/toolchain/avr8/avr8-gnu-toolchain/bin/../lib/gcc/avr/4.9.2/avr5\libgcc.a(_ctors.o)
                              _Feed_Timer_DP7_Seg.o (__do_global_ctors)
c:/program files (x86)/atmel/studio/7.0/toolchain/avr8/avr8-gnu-toolchain/bin/../lib/gcc/avr/4.9.2/avr5\libgcc.a(_umulhisi3.o)
                              _Feed_Timer_DP7_Seg.o (__umulhisi3)
c:/program files (x86)/atmel/studio/7.0/toolchain/avr8/avr8-gnu-toolchain/bin/../lib/gcc/avr/4.9.2/avr5\libgcc.a(_tablejump2.o)
                              c:/program files (x86)/atmel/studio/7.0/toolchain/avr8/avr8-gnu-toolchain/bin/../lib/gcc/avr/4.9.2/avr5\libgcc.a(_ctors.o) (__tablejump2__)
c:/program files (x86)/atmel/studio/7.0/toolchain/avr8/avr8-gnu-toolchain/bin/../lib/gcc/avr/4.9.2/../../../../avr/lib/avr5\libc.a(memcmp.o)
                              _Feed_Timer_DP7_Seg.o (memcmp)
c:/program files (x86)/atmel/studio/7.0/toolchain/avr8/avr8-gnu-toolchain/bin/../lib/gcc/avr/4.9.2/../../../../avr/lib/avr5\libc.a(sprintf.o)
                              _Feed_Timer_DP7_Seg.o (sprintf)
c:/program files (x86)/atmel/studio/7.0/toolchain/avr8/avr8-gnu-toolchain/bin/../lib/gcc/avr/4.9.2/../../../../avr/lib/avr5\libc.a(vfprintf_std.o)
                              c:/program files (x86)/atmel/studio/7.0/toolchain/avr8/avr8-gnu-toolchain/bin/../lib/gcc/avr/4.9.2/../../../../avr/lib/avr5\libc.a(sprintf.o) (vfprintf)
c:/program files (x86)/atmel/studio/7.0/toolchain/avr8/avr8-gnu-toolchain/bin/../lib/gcc/avr/4.9.2/../../../../avr/lib/avr5\libc.a(strnlen_P.o)
                              c:/program files (x86)/atmel/studio/7.0/toolchain/avr8/avr8-gnu-toolchain/bin/../lib/gcc/avr/4.9.2/../../../../avr/lib/avr5\libc.a(vfprintf_std.o) (strnlen_P)
c:/program files (x86)/atmel/studio/7.0/toolchain/avr8/avr8-gnu-toolchain/bin/../lib/gcc/avr/4.9.2/../../../../avr/lib/avr5\libc.a(strnlen.o)
                              c:/program files (x86)/atmel/studio/7.0/toolchain/avr8/avr8-gnu-toolchain/bin/../lib/gcc/avr/4.9.2/../../../../avr/lib/avr5\libc.a(vfprintf_std.o) (strnlen)
c:/program files (x86)/atmel/studio/7.0/toolchain/avr8/avr8-gnu-toolchain/bin/../lib/gcc/avr/4.9.2/../../../../avr/lib/avr5\libc.a(fputc.o)
                              c:/program files (x86)/atmel/studio/7.0/toolchain/avr8/avr8-gnu-toolchain/bin/../lib/gcc/avr/4.9.2/../../../../avr/lib/avr5\libc.a(vfprintf_std.o) (fputc)
c:/program files (x86)/atmel/studio/7.0/toolchain/avr8/avr8-gnu-toolchain/bin/../lib/gcc/avr/4.9.2/../../../../avr/lib/avr5\libc.a(ultoa_invert.o)
                              c:/program files (x86)/atmel/studio/7.0/toolchain/avr8/avr8-gnu-toolchain/bin/../lib/gcc/avr/4.9.2/../../../../avr/lib/avr5\libc.a(vfprintf_std.o) (__ultoa_invert)
C:/Program Files (x86)/Atmel/Studio/7.0/Packs/atmel/ATmega_DFP/1.0.90/gcc/dev/atmega328p/avr5\libatmega328p.a(eerd_block.o)
                              _Feed_Timer_DP7_Seg.o (eeprom_read_block)
C:/Program Files (x86)/Atmel/Studio/7.0/Packs/atmel/ATmega_DFP/1.0.90/gcc/dev/atmega328p/avr5\libatmega328p.a(eerd_byte.o)
                              _Feed_Timer_DP7_Seg.o (eeprom_read_byte)
C:/Program Files (x86)/Atmel/Studio/7.0/Packs/atmel/ATmega_DFP/1.0.90/gcc/dev/atmega328p/avr5\libatmega328p.a(eewr_block.o)
                              _Feed_Timer_DP7_Seg.o (eeprom_write_block)
C:/Program Files (x86)/Atmel/Studio/7.0/Packs/atmel/ATmega_DFP/1.0.90/gcc/dev/atmega328p/avr5\libatmega328p.a(eewr_byte.o)
                              _Feed_Timer_DP7_Seg.o (eeprom_write_byte)
c:/program files (x86)/atmel/studio/7.0/toolchain/avr8/avr8-gnu-toolchain/bin/../lib/gcc/avr/4.9.2/avr5\libgcc.a(_prologue.o)
                              c:/program files (x86)/atmel/studio/7.0/toolchain/avr8/avr8-gnu-toolchain/bin/../lib/gcc/avr/4.9.2/../../../../avr/lib/avr5\libc.a(sprintf.o) (__prologue_saves__)
c:/program files (x86)/atmel/studio/7.0/toolchain/avr8/avr8-gnu-toolchain/bin/../lib/gcc/avr/4.9.2/avr5\libgcc.a(_epilogue.o)
                              c:/program files (x86)/atmel/studio/7.0/toolchain/avr8/avr8-gnu-toolchain/bin/../lib/gcc/avr/4.9.2/../../../../avr/lib/avr5\libc.a(sprintf.o) (__epilogue_restores__)

Discarded input sections

 .data          0x00000000        0x0 C:/Program Files (x86)/Atmel/Studio/7.0/Packs/atmel/ATmega_DFP/1.0.90/gcc/dev/atmega328p/avr5/crtatmega328p.o
 .bss           0x00000000        0x0 C:/Program Files (x86)/Atmel/Studio/7.0/Packs/atmel/ATmega_DFP/1.0.90/gcc/dev/atmega328p/avr5/crtatmega328p.o
 .text          0x00000000        0x0 _Feed_Timer_DP7_Seg.o
 .data          0x00000000        0x0 _Feed_Timer_DP7_Seg.o
 .bss           0x00000000        0x0 _Feed_Timer_DP7_Seg.o
 .text._ZN16class_Feed_Timer6ubtoafEa
                0x00000000       0x36 _Feed_Timer_DP7_Seg.o
 .text._ZN16class_Feed_Timer7SetTimeERhS0_S0_S0_
                0x00000000       0x30 _Feed_Timer_DP7_Seg.o
 .text._ZN16class_Feed_Timer13GetWeekDayStrEh
                0x00000000       0x1e _Feed_Timer_DP7_Seg.o
 .text._ZN16class_Feed_Timer14GetMenuItemStrEh
                0x00000000       0x1e _Feed_Timer_DP7_Seg.o
 .text._Z12PumpCallBackhhh
                0x00000000        0x2 _Feed_Timer_DP7_Seg.o
 .data._ZN16class_Feed_Timer8MenuModeE
                0x00000000        0x1 _Feed_Timer_DP7_Seg.o
 .data._ZN16class_Feed_Timer4soutE
                0x00000000        0x4 _Feed_Timer_DP7_Seg.o
 .text          0x00000000        0x0 _Feed_Timer_IO.o
 .data          0x00000000        0x0 _Feed_Timer_IO.o
 .bss           0x00000000        0x0 _Feed_Timer_IO.o
 .text._ZN19class_Display_7_Seg16KeysUnInitializeEv
                0x00000000        0xa _Feed_Timer_IO.o
 .text._ZN19class_Display_7_Seg12UnInitializeEv
                0x00000000       0x26 _Feed_Timer_IO.o
 .text._ZN19class_Display_7_Seg15DispSetSegmentsEhh
                0x00000000       0x14 _Feed_Timer_IO.o
 .text._ZN19class_Display_7_Seg7KeyReadEv
                0x00000000       0xd2 _Feed_Timer_IO.o
 .bss._ZZN19class_Display_7_Seg7KeyReadEvE5first
                0x00000000        0x1 _Feed_Timer_IO.o
 .bss._ZZN19class_Display_7_Seg7KeyReadEvE6repeat
                0x00000000        0x1 _Feed_Timer_IO.o
 .text          0x00000000        0x0 _Time_Lib.o
 .data          0x00000000        0x0 _Time_Lib.o
 .bss           0x00000000        0x0 _Time_Lib.o
 .text._ZN10class_Time12UnInitializeEv
                0x00000000       0x18 _Time_Lib.o
 .text._ZN10class_Time11GetTimeTickEv
                0x00000000       0x12 _Time_Lib.o
 .text._ZN10class_Time15PrepareForSleepEv
                0x00000000       0x10 _Time_Lib.o
 .text._ZN10class_Time16RestoreFromSleepEv
                0x00000000       0x10 _Time_Lib.o
 .text._ZN10class_Time10Delay7NopsEj
                0x00000000        0xa _Time_Lib.o
 .text._ZN10class_Time8DelayMsSEj
                0x00000000       0x1a _Time_Lib.o
 .text._ZN10class_Time10ChronoMarkEv
                0x00000000       0x18 _Time_Lib.o
 .text._ZN10class_Time9ChronoNowEv
                0x00000000       0x28 _Time_Lib.o
 .text._ZN10class_Time20SetTimeClockCallbackEPFvhhhE
                0x00000000        0xa _Time_Lib.o
 .text._ZN10class_Time13SetClockStateEb
                0x00000000        0x6 _Time_Lib.o
 .text._ZN10class_Time13GetClockStateEv
                0x00000000        0x6 _Time_Lib.o
 .text._ZN10class_Time17GetInterruptStateEv
                0x00000000        0x6 _Time_Lib.o
 .text._ZN10class_Time7GetTimeEv
                0x00000000       0x20 _Time_Lib.o
 .text._ZN10class_Time7GetHourEv
                0x00000000        0x6 _Time_Lib.o
 .text._ZN10class_Time9GetMinuteEv
                0x00000000        0x6 _Time_Lib.o
 .text._ZN10class_Time9GetSecondEv
                0x00000000        0x6 _Time_Lib.o
 .text._ZN10class_Time7GetTimeERhS0_S0_
                0x00000000       0x34 _Time_Lib.o
 .text._ZN10class_Time7SetTimeEhhh
                0x00000000       0x12 _Time_Lib.o
 .text._ZN10class_Time7SetHourEh
                0x00000000        0x6 _Time_Lib.o
 .text._ZN10class_Time9SetMinuteEh
                0x00000000        0x6 _Time_Lib.o
 .text._ZN10class_Time9SetSecondEh
                0x00000000        0x6 _Time_Lib.o
 .text._ZN10class_Time7SetTimeEv
                0x00000000       0x20 _Time_Lib.o
 .text          0x00000000        0x0 c:/program files (x86)/atmel/studio/7.0/toolchain/avr8/avr8-gnu-toolchain/bin/../lib/gcc/avr/4.9.2/avr5\libgcc.a(_exit.o)
 .data          0x00000000        0x0 c:/program files (x86)/atmel/studio/7.0/toolchain/avr8/avr8-gnu-toolchain/bin/../lib/gcc/avr/4.9.2/avr5\libgcc.a(_exit.o)
 .bss           0x00000000        0x0 c:/program files (x86)/atmel/studio/7.0/toolchain/avr8/avr8-gnu-toolchain/bin/../lib/gcc/avr/4.9.2/avr5\libgcc.a(_exit.o)
 .text.libgcc.mul
                0x00000000        0x0 c:/program files (x86)/atmel/studio/7.0/toolchain/avr8/avr8-gnu-toolchain/bin/../lib/gcc/avr/4.9.2/avr5\libgcc.a(_exit.o)
 .text.libgcc.div
                0x00000000        0x0 c:/program files (x86)/atmel/studio/7.0/toolchain/avr8/avr8-gnu-toolchain/bin/../lib/gcc/avr/4.9.2/avr5\libgcc.a(_exit.o)
 .text.libgcc   0x00000000        0x0 c:/program files (x86)/atmel/studio/7.0/toolchain/avr8/avr8-gnu-toolchain/bin/../lib/gcc/avr/4.9.2/avr5\libgcc.a(_exit.o)
 .text.libgcc.prologue
                0x00000000        0x0 c:/program files (x86)/atmel/studio/7.0/toolchain/avr8/avr8-gnu-toolchain/bin/../lib/gcc/avr/4.9.2/avr5\libgcc.a(_exit.o)
 .text.libgcc.builtins
                0x00000000        0x0 c:/program files (x86)/atmel/studio/7.0/toolchain/avr8/avr8-gnu-toolchain/bin/../lib/gcc/avr/4.9.2/avr5\libgcc.a(_exit.o)
 .text.libgcc.fmul
                0x00000000        0x0 c:/program files (x86)/atmel/studio/7.0/toolchain/avr8/avr8-gnu-toolchain/bin/../lib/gcc/avr/4.9.2/avr5\libgcc.a(_exit.o)
 .text.libgcc.fixed
                0x00000000        0x0 c:/program files (x86)/atmel/studio/7.0/toolchain/avr8/avr8-gnu-toolchain/bin/../lib/gcc/avr/4.9.2/avr5\libgcc.a(_exit.o)
 .text          0x00000000        0x0 c:/program files (x86)/atmel/studio/7.0/toolchain/avr8/avr8-gnu-toolchain/bin/../lib/gcc/avr/4.9.2/avr5\libgcc.a(_copy_data.o)
 .data          0x00000000        0x0 c:/program files (x86)/atmel/studio/7.0/toolchain/avr8/avr8-gnu-toolchain/bin/../lib/gcc/avr/4.9.2/avr5\libgcc.a(_copy_data.o)
 .bss           0x00000000        0x0 c:/program files (x86)/atmel/studio/7.0/toolchain/avr8/avr8-gnu-toolchain/bin/../lib/gcc/avr/4.9.2/avr5\libgcc.a(_copy_data.o)
 .text.libgcc.mul
                0x00000000        0x0 c:/program files (x86)/atmel/studio/7.0/toolchain/avr8/avr8-gnu-toolchain/bin/../lib/gcc/avr/4.9.2/avr5\libgcc.a(_copy_data.o)
 .text.libgcc.div
                0x00000000        0x0 c:/program files (x86)/atmel/studio/7.0/toolchain/avr8/avr8-gnu-toolchain/bin/../lib/gcc/avr/4.9.2/avr5\libgcc.a(_copy_data.o)
 .text.libgcc   0x00000000        0x0 c:/program files (x86)/atmel/studio/7.0/toolchain/avr8/avr8-gnu-toolchain/bin/../lib/gcc/avr/4.9.2/avr5\libgcc.a(_copy_data.o)
 .text.libgcc.prologue
                0x00000000        0x0 c:/program files (x86)/atmel/studio/7.0/toolchain/avr8/avr8-gnu-toolchain/bin/../lib/gcc/avr/4.9.2/avr5\libgcc.a(_copy_data.o)
 .text.libgcc.builtins
                0x00000000        0x0 c:/program files (x86)/atmel/studio/7.0/toolchain/avr8/avr8-gnu-toolchain/bin/../lib/gcc/avr/4.9.2/avr5\libgcc.a(_copy_data.o)
 .text.libgcc.fmul
                0x00000000        0x0 c:/program files (x86)/atmel/studio/7.0/toolchain/avr8/avr8-gnu-toolchain/bin/../lib/gcc/avr/4.9.2/avr5\libgcc.a(_copy_data.o)
 .text.libgcc.fixed
                0x00000000        0x0 c:/program files (x86)/atmel/studio/7.0/toolchain/avr8/avr8-gnu-toolchain/bin/../lib/gcc/avr/4.9.2/avr5\libgcc.a(_copy_data.o)
 .text          0x00000000        0x0 c:/program files (x86)/atmel/studio/7.0/toolchain/avr8/avr8-gnu-toolchain/bin/../lib/gcc/avr/4.9.2/avr5\libgcc.a(_clear_bss.o)
 .data          0x00000000        0x0 c:/program files (x86)/atmel/studio/7.0/toolchain/avr8/avr8-gnu-toolchain/bin/../lib/gcc/avr/4.9.2/avr5\libgcc.a(_clear_bss.o)
 .bss           0x00000000        0x0 c:/program files (x86)/atmel/studio/7.0/toolchain/avr8/avr8-gnu-toolchain/bin/../lib/gcc/avr/4.9.2/avr5\libgcc.a(_clear_bss.o)
 .text.libgcc.mul
                0x00000000        0x0 c:/program files (x86)/atmel/studio/7.0/toolchain/avr8/avr8-gnu-toolchain/bin/../lib/gcc/avr/4.9.2/avr5\libgcc.a(_clear_bss.o)
 .text.libgcc.div
                0x00000000        0x0 c:/program files (x86)/atmel/studio/7.0/toolchain/avr8/avr8-gnu-toolchain/bin/../lib/gcc/avr/4.9.2/avr5\libgcc.a(_clear_bss.o)
 .text.libgcc   0x00000000        0x0 c:/program files (x86)/atmel/studio/7.0/toolchain/avr8/avr8-gnu-toolchain/bin/../lib/gcc/avr/4.9.2/avr5\libgcc.a(_clear_bss.o)
 .text.libgcc.prologue
                0x00000000        0x0 c:/program files (x86)/atmel/studio/7.0/toolchain/avr8/avr8-gnu-toolchain/bin/../lib/gcc/avr/4.9.2/avr5\libgcc.a(_clear_bss.o)
 .text.libgcc.builtins
                0x00000000        0x0 c:/program files (x86)/atmel/studio/7.0/toolchain/avr8/avr8-gnu-toolchain/bin/../lib/gcc/avr/4.9.2/avr5\libgcc.a(_clear_bss.o)
 .text.libgcc.fmul
                0x00000000        0x0 c:/program files (x86)/atmel/studio/7.0/toolchain/avr8/avr8-gnu-toolchain/bin/../lib/gcc/avr/4.9.2/avr5\libgcc.a(_clear_bss.o)
 .text.libgcc.fixed
                0x00000000        0x0 c:/program files (x86)/atmel/studio/7.0/toolchain/avr8/avr8-gnu-toolchain/bin/../lib/gcc/avr/4.9.2/avr5\libgcc.a(_clear_bss.o)
 .text          0x00000000        0x0 c:/program files (x86)/atmel/studio/7.0/toolchain/avr8/avr8-gnu-toolchain/bin/../lib/gcc/avr/4.9.2/avr5\libgcc.a(_ctors.o)
 .data          0x00000000        0x0 c:/program files (x86)/atmel/studio/7.0/toolchain/avr8/avr8-gnu-toolchain/bin/../lib/gcc/avr/4.9.2/avr5\libgcc.a(_ctors.o)
 .bss           0x00000000        0x0 c:/program files (x86)/atmel/studio/7.0/toolchain/avr8/avr8-gnu-toolchain/bin/../lib/gcc/avr/4.9.2/avr5\libgcc.a(_ctors.o)
 .text.libgcc.mul
                0x00000000        0x0 c:/program files (x86)/atmel/studio/7.0/toolchain/avr8/avr8-gnu-toolchain/bin/../lib/gcc/avr/4.9.2/avr5\libgcc.a(_ctors.o)
 .text.libgcc.div
                0x00000000        0x0 c:/program files (x86)/atmel/studio/7.0/toolchain/avr8/avr8-gnu-toolchain/bin/../lib/gcc/avr/4.9.2/avr5\libgcc.a(_ctors.o)
 .text.libgcc   0x00000000        0x0 c:/program files (x86)/atmel/studio/7.0/toolchain/avr8/avr8-gnu-toolchain/bin/../lib/gcc/avr/4.9.2/avr5\libgcc.a(_ctors.o)
 .text.libgcc.prologue
                0x00000000        0x0 c:/program files (x86)/atmel/studio/7.0/toolchain/avr8/avr8-gnu-toolchain/bin/../lib/gcc/avr/4.9.2/avr5\libgcc.a(_ctors.o)
 .text.libgcc.builtins
                0x00000000        0x0 c:/program files (x86)/atmel/studio/7.0/toolchain/avr8/avr8-gnu-toolchain/bin/../lib/gcc/avr/4.9.2/avr5\libgcc.a(_ctors.o)
 .text.libgcc.fmul
                0x00000000        0x0 c:/program files (x86)/atmel/studio/7.0/toolchain/avr8/avr8-gnu-toolchain/bin/../lib/gcc/avr/4.9.2/avr5\libgcc.a(_ctors.o)
 .text.libgcc.fixed
                0x00000000        0x0 c:/program files (x86)/atmel/studio/7.0/toolchain/avr8/avr8-gnu-toolchain/bin/../lib/gcc/avr/4.9.2/avr5\libgcc.a(_ctors.o)
 .text          0x00000000        0x0 c:/program files (x86)/atmel/studio/7.0/toolchain/avr8/avr8-gnu-toolchain/bin/../lib/gcc/avr/4.9.2/avr5\libgcc.a(_umulhisi3.o)
 .data          0x00000000        0x0 c:/program files (x86)/atmel/studio/7.0/toolchain/avr8/avr8-gnu-toolchain/bin/../lib/gcc/avr/4.9.2/avr5\libgcc.a(_umulhisi3.o)
 .bss           0x00000000        0x0 c:/program files (x86)/atmel/studio/7.0/toolchain/avr8/avr8-gnu-toolchain/bin/../lib/gcc/avr/4.9.2/avr5\libgcc.a(_umulhisi3.o)
 .text.libgcc.div
                0x00000000        0x0 c:/program files (x86)/atmel/studio/7.0/toolchain/avr8/avr8-gnu-toolchain/bin/../lib/gcc/avr/4.9.2/avr5\libgcc.a(_umulhisi3.o)
 .text.libgcc   0x00000000        0x0 c:/program files (x86)/atmel/studio/7.0/toolchain/avr8/avr8-gnu-toolchain/bin/../lib/gcc/avr/4.9.2/avr5\libgcc.a(_umulhisi3.o)
 .text.libgcc.prologue
                0x00000000        0x0 c:/program files (x86)/atmel/studio/7.0/toolchain/avr8/avr8-gnu-toolchain/bin/../lib/gcc/avr/4.9.2/avr5\libgcc.a(_umulhisi3.o)
 .text.libgcc.builtins
                0x00000000        0x0 c:/program files (x86)/atmel/studio/7.0/toolchain/avr8/avr8-gnu-toolchain/bin/../lib/gcc/avr/4.9.2/avr5\libgcc.a(_umulhisi3.o)
 .text.libgcc.fmul
                0x00000000        0x0 c:/program files (x86)/atmel/studio/7.0/toolchain/avr8/avr8-gnu-toolchain/bin/../lib/gcc/avr/4.9.2/avr5\libgcc.a(_umulhisi3.o)
 .text.libgcc.fixed
                0x00000000        0x0 c:/program files (x86)/atmel/studio/7.0/toolchain/avr8/avr8-gnu-toolchain/bin/../lib/gcc/avr/4.9.2/avr5\libgcc.a(_umulhisi3.o)
 .text          0x00000000        0x0 c:/program files (x86)/atmel/studio/7.0/toolchain/avr8/avr8-gnu-toolchain/bin/../lib/gcc/avr/4.9.2/avr5\libgcc.a(_tablejump2.o)
 .data          0x00000000        0x0 c:/program files (x86)/atmel/studio/7.0/toolchain/avr8/avr8-gnu-toolchain/bin/../lib/gcc/avr/4.9.2/avr5\libgcc.a(_tablejump2.o)
 .bss           0x00000000        0x0 c:/program files (x86)/atmel/studio/7.0/toolchain/avr8/avr8-gnu-toolchain/bin/../lib/gcc/avr/4.9.2/avr5\libgcc.a(_tablejump2.o)
 .text.libgcc.mul
                0x00000000        0x0 c:/program files (x86)/atmel/studio/7.0/toolchain/avr8/avr8-gnu-toolchain/bin/../lib/gcc/avr/4.9.2/avr5\libgcc.a(_tablejump2.o)
 .text.libgcc.div
                0x00000000        0x0 c:/program files (x86)/atmel/studio/7.0/toolchain/avr8/avr8-gnu-toolchain/bin/../lib/gcc/avr/4.9.2/avr5\libgcc.a(_tablejump2.o)
 .text.libgcc.prologue
                0x00000000        0x0 c:/program files (x86)/atmel/studio/7.0/toolchain/avr8/avr8-gnu-toolchain/bin/../lib/gcc/avr/4.9.2/avr5\libgcc.a(_tablejump2.o)
 .text.libgcc.builtins
                0x00000000        0x0 c:/program files (x86)/atmel/studio/7.0/toolchain/avr8/avr8-gnu-toolchain/bin/../lib/gcc/avr/4.9.2/avr5\libgcc.a(_tablejump2.o)
 .text.libgcc.fmul
                0x00000000        0x0 c:/program files (x86)/atmel/studio/7.0/toolchain/avr8/avr8-gnu-toolchain/bin/../lib/gcc/avr/4.9.2/avr5\libgcc.a(_tablejump2.o)
 .text.libgcc.fixed
                0x00000000        0x0 c:/program files (x86)/atmel/studio/7.0/toolchain/avr8/avr8-gnu-toolchain/bin/../lib/gcc/avr/4.9.2/avr5\libgcc.a(_tablejump2.o)
 .text          0x00000000        0x0 c:/program files (x86)/atmel/studio/7.0/toolchain/avr8/avr8-gnu-toolchain/bin/../lib/gcc/avr/4.9.2/../../../../avr/lib/avr5\libc.a(memcmp.o)
 .data          0x00000000        0x0 c:/program files (x86)/atmel/studio/7.0/toolchain/avr8/avr8-gnu-toolchain/bin/../lib/gcc/avr/4.9.2/../../../../avr/lib/avr5\libc.a(memcmp.o)
 .bss           0x00000000        0x0 c:/program files (x86)/atmel/studio/7.0/toolchain/avr8/avr8-gnu-toolchain/bin/../lib/gcc/avr/4.9.2/../../../../avr/lib/avr5\libc.a(memcmp.o)
 .text          0x00000000        0x0 c:/program files (x86)/atmel/studio/7.0/toolchain/avr8/avr8-gnu-toolchain/bin/../lib/gcc/avr/4.9.2/../../../../avr/lib/avr5\libc.a(sprintf.o)
 .data          0x00000000        0x0 c:/program files (x86)/atmel/studio/7.0/toolchain/avr8/avr8-gnu-toolchain/bin/../lib/gcc/avr/4.9.2/../../../../avr/lib/avr5\libc.a(sprintf.o)
 .bss           0x00000000        0x0 c:/program files (x86)/atmel/studio/7.0/toolchain/avr8/avr8-gnu-toolchain/bin/../lib/gcc/avr/4.9.2/../../../../avr/lib/avr5\libc.a(sprintf.o)
 .text          0x00000000        0x0 c:/program files (x86)/atmel/studio/7.0/toolchain/avr8/avr8-gnu-toolchain/bin/../lib/gcc/avr/4.9.2/../../../../avr/lib/avr5\libc.a(vfprintf_std.o)
 .data          0x00000000        0x0 c:/program files (x86)/atmel/studio/7.0/toolchain/avr8/avr8-gnu-toolchain/bin/../lib/gcc/avr/4.9.2/../../../../avr/lib/avr5\libc.a(vfprintf_std.o)
 .bss           0x00000000        0x0 c:/program files (x86)/atmel/studio/7.0/toolchain/avr8/avr8-gnu-toolchain/bin/../lib/gcc/avr/4.9.2/../../../../avr/lib/avr5\libc.a(vfprintf_std.o)
 .text          0x00000000        0x0 c:/program files (x86)/atmel/studio/7.0/toolchain/avr8/avr8-gnu-toolchain/bin/../lib/gcc/avr/4.9.2/../../../../avr/lib/avr5\libc.a(strnlen_P.o)
 .data          0x00000000        0x0 c:/program files (x86)/atmel/studio/7.0/toolchain/avr8/avr8-gnu-toolchain/bin/../lib/gcc/avr/4.9.2/../../../../avr/lib/avr5\libc.a(strnlen_P.o)
 .bss           0x00000000        0x0 c:/program files (x86)/atmel/studio/7.0/toolchain/avr8/avr8-gnu-toolchain/bin/../lib/gcc/avr/4.9.2/../../../../avr/lib/avr5\libc.a(strnlen_P.o)
 .text          0x00000000        0x0 c:/program files (x86)/atmel/studio/7.0/toolchain/avr8/avr8-gnu-toolchain/bin/../lib/gcc/avr/4.9.2/../../../../avr/lib/avr5\libc.a(strnlen.o)
 .data          0x00000000        0x0 c:/program files (x86)/atmel/studio/7.0/toolchain/avr8/avr8-gnu-toolchain/bin/../lib/gcc/avr/4.9.2/../../../../avr/lib/avr5\libc.a(strnlen.o)
 .bss           0x00000000        0x0 c:/program files (x86)/atmel/studio/7.0/toolchain/avr8/avr8-gnu-toolchain/bin/../lib/gcc/avr/4.9.2/../../../../avr/lib/avr5\libc.a(strnlen.o)
 .text          0x00000000        0x0 c:/program files (x86)/atmel/studio/7.0/toolchain/avr8/avr8-gnu-toolchain/bin/../lib/gcc/avr/4.9.2/../../../../avr/lib/avr5\libc.a(fputc.o)
 .data          0x00000000        0x0 c:/program files (x86)/atmel/studio/7.0/toolchain/avr8/avr8-gnu-toolchain/bin/../lib/gcc/avr/4.9.2/../../../../avr/lib/avr5\libc.a(fputc.o)
 .bss           0x00000000        0x0 c:/program files (x86)/atmel/studio/7.0/toolchain/avr8/avr8-gnu-toolchain/bin/../lib/gcc/avr/4.9.2/../../../../avr/lib/avr5\libc.a(fputc.o)
 .text          0x00000000        0x0 c:/program files (x86)/atmel/studio/7.0/toolchain/avr8/avr8-gnu-toolchain/bin/../lib/gcc/avr/4.9.2/../../../../avr/lib/avr5\libc.a(ultoa_invert.o)
 .data          0x00000000        0x0 c:/program files (x86)/atmel/studio/7.0/toolchain/avr8/avr8-gnu-toolchain/bin/../lib/gcc/avr/4.9.2/../../../../avr/lib/avr5\libc.a(ultoa_invert.o)
 .bss           0x00000000        0x0 c:/program files (x86)/atmel/studio/7.0/toolchain/avr8/avr8-gnu-toolchain/bin/../lib/gcc/avr/4.9.2/../../../../avr/lib/avr5\libc.a(ultoa_invert.o)
 .text          0x00000000        0x0 C:/Program Files (x86)/Atmel/Studio/7.0/Packs/atmel/ATmega_DFP/1.0.90/gcc/dev/atmega328p/avr5\libatmega328p.a(eerd_block.o)
 .data          0x00000000        0x0 C:/Program Files (x86)/Atmel/Studio/7.0/Packs/atmel/ATmega_DFP/1.0.90/gcc/dev/atmega328p/avr5\libatmega328p.a(eerd_block.o)
 .bss           0x00000000        0x0 C:/Program Files (x86)/Atmel/Studio/7.0/Packs/atmel/ATmega_DFP/1.0.90/gcc/dev/atmega328p/avr5\libatmega328p.a(eerd_block.o)
 .text          0x00000000        0x0 C:/Program Files (x86)/Atmel/Studio/7.0/Packs/atmel/ATmega_DFP/1.0.90/gcc/dev/atmega328p/avr5\libatmega328p.a(eerd_byte.o)
 .data          0x00000000        0x0 C:/Program Files (x86)/Atmel/Studio/7.0/Packs/atmel/ATmega_DFP/1.0.90/gcc/dev/atmega328p/avr5\libatmega328p.a(eerd_byte.o)
 .bss           0x00000000        0x0 C:/Program Files (x86)/Atmel/Studio/7.0/Packs/atmel/ATmega_DFP/1.0.90/gcc/dev/atmega328p/avr5\libatmega328p.a(eerd_byte.o)
 .text          0x00000000        0x0 C:/Program Files (x86)/Atmel/Studio/7.0/Packs/atmel/ATmega_DFP/1.0.90/gcc/dev/atmega328p/avr5\libatmega328p.a(eewr_block.o)
 .data          0x00000000        0x0 C:/Program Files (x86)/Atmel/Studio/7.0/Packs/atmel/ATmega_DFP/1.0.90/gcc/dev/atmega328p/avr5\libatmega328p.a(eewr_block.o)
 .bss           0x00000000        0x0 C:/Program Files (x86)/Atmel/Studio/7.0/Packs/atmel/ATmega_DFP/1.0.90/gcc/dev/atmega328p/avr5\libatmega328p.a(eewr_block.o)
 .text          0x00000000        0x0 C:/Program Files (x86)/Atmel/Studio/7.0/Packs/atmel/ATmega_DFP/1.0.90/gcc/dev/atmega328p/avr5\libatmega328p.a(eewr_byte.o)
 .data          0x00000000        0x0 C:/Program Files (x86)/Atmel/Studio/7.0/Packs/atmel/ATmega_DFP/1.0.90/gcc/dev/atmega328p/avr5\libatmega328p.a(eewr_byte.o)
 .bss           0x00000000        0x0 C:/Program Files (x86)/Atmel/Studio/7.0/Packs/atmel/ATmega_DFP/1.0.90/gcc/dev/atmega328p/avr5\libatmega328p.a(eewr_byte.o)
 .text          0x00000000        0x0 c:/program files (x86)/atmel/studio/7.0/toolchain/avr8/avr8-gnu-toolchain/bin/../lib/gcc/avr/4.9.2/avr5\libgcc.a(_prologue.o)
 .data          0x00000000        0x0 c:/program files (x86)/atmel/studio/7.0/toolchain/avr8/avr8-gnu-toolchain/bin/../lib/gcc/avr/4.9.2/avr5\libgcc.a(_prologue.o)
 .bss           0x00000000        0x0 c:/program files (x86)/atmel/studio/7.0/toolchain/avr8/avr8-gnu-toolchain/bin/../lib/gcc/avr/4.9.2/avr5\libgcc.a(_prologue.o)
 .text.libgcc.mul
                0x00000000        0x0 c:/program files (x86)/atmel/studio/7.0/toolchain/avr8/avr8-gnu-toolchain/bin/../lib/gcc/avr/4.9.2/avr5\libgcc.a(_prologue.o)
 .text.libgcc.div
                0x00000000        0x0 c:/program files (x86)/atmel/studio/7.0/toolchain/avr8/avr8-gnu-toolchain/bin/../lib/gcc/avr/4.9.2/avr5\libgcc.a(_prologue.o)
 .text.libgcc   0x00000000        0x0 c:/program files (x86)/atmel/studio/7.0/toolchain/avr8/avr8-gnu-toolchain/bin/../lib/gcc/avr/4.9.2/avr5\libgcc.a(_prologue.o)
 .text.libgcc.builtins
                0x00000000        0x0 c:/program files (x86)/atmel/studio/7.0/toolchain/avr8/avr8-gnu-toolchain/bin/../lib/gcc/avr/4.9.2/avr5\libgcc.a(_prologue.o)
 .text.libgcc.fmul
                0x00000000        0x0 c:/program files (x86)/atmel/studio/7.0/toolchain/avr8/avr8-gnu-toolchain/bin/../lib/gcc/avr/4.9.2/avr5\libgcc.a(_prologue.o)
 .text.libgcc.fixed
                0x00000000        0x0 c:/program files (x86)/atmel/studio/7.0/toolchain/avr8/avr8-gnu-toolchain/bin/../lib/gcc/avr/4.9.2/avr5\libgcc.a(_prologue.o)
 .text          0x00000000        0x0 c:/program files (x86)/atmel/studio/7.0/toolchain/avr8/avr8-gnu-toolchain/bin/../lib/gcc/avr/4.9.2/avr5\libgcc.a(_epilogue.o)
 .data          0x00000000        0x0 c:/program files (x86)/atmel/studio/7.0/toolchain/avr8/avr8-gnu-toolchain/bin/../lib/gcc/avr/4.9.2/avr5\libgcc.a(_epilogue.o)
 .bss           0x00000000        0x0 c:/program files (x86)/atmel/studio/7.0/toolchain/avr8/avr8-gnu-toolchain/bin/../lib/gcc/avr/4.9.2/avr5\libgcc.a(_epilogue.o)
 .text.libgcc.mul
                0x00000000        0x0 c:/program files (x86)/atmel/studio/7.0/toolchain/avr8/avr8-gnu-toolchain/bin/../lib/gcc/avr/4.9.2/avr5\libgcc.a(_epilogue.o)
 .text.libgcc.div
                0x00000000        0x0 c:/program files (x86)/atmel/studio/7.0/toolchain/avr8/avr8-gnu-toolchain/bin/../lib/gcc/avr/4.9.2/avr5\libgcc.a(_epilogue.o)
 .text.libgcc   0x00000000        0x0 c:/program files (x86)/atmel/studio/7.0/toolchain/avr8/avr8-gnu-toolchain/bin/../lib/gcc/avr/4.9.2/avr5\libgcc.a(_epilogue.o)
 .text.libgcc.builtins
                0x00000000        0x0 c:/program files (x86)/atmel/studio/7.0/toolchain/avr8/avr8-gnu-toolchain/bin/../lib/gcc/avr/4.9.2/avr5\libgcc.a(_epilogue.o)
 .text.libgcc.fmul
                0x00000000        0x0 c:/program files (x86)/atmel/studio/7.0/toolchain/avr8/avr8-gnu-toolchain/bin/../lib/gcc/avr/4.9.2/avr5\libgcc.a(_epilogue.o)
 .text.libgcc.fixed
                0x00000000        0x0 c:/program files (x86)/atmel/studio/7.0/toolchain/avr8/avr8-gnu-toolchain/bin/../lib/gcc/avr/4.9.2/avr5\libgcc.a(_epilogue.o)

Memory Configuration

Name             Origin             Length             Attributes
text             0x00000000         0x00020000         xr
data             0x00800060         0x0000ffa0         rw !x
eeprom           0x00810000         0x00010000         rw !x
fuse             0x00820000         0x00000400         rw !x
lock             0x00830000         0x00000400         rw !x
signature        0x00840000         0x00000400         rw !x
user_signatures  0x00850000         0x00000400         rw !x
*default*        0x00000000         0xffffffff

Linker script and memory map

Address of section .data set to 0x800100
LOAD C:/Program Files (x86)/Atmel/Studio/7.0/Packs/atmel/ATmega_DFP/1.0.90/gcc/dev/atmega328p/avr5/crtatmega328p.o
LOAD _Feed_Timer_DP7_Seg.o
LOAD _Feed_Timer_IO.o
LOAD _Time_Lib.o
START GROUP
LOAD c:/program files (x86)/atmel/studio/7.0/toolchain/avr8/avr8-gnu-toolchain/bin/../lib/gcc/avr/4.9.2/../../../../avr/lib/avr5\libm.a
END GROUP
LOAD c:/program files (x86)/atmel/studio/7.0/toolchain/avr8/avr8-gnu-toolchain/bin/../lib/gcc/avr/4.9.2/avr5\libgcc.a
LOAD c:/program files (x86)/atmel/studio/7.0/toolchain/avr8/avr8-gnu-toolchain/bin/../lib/gcc/avr/4.9.2/../../../../avr/lib/avr5\libm.a
START GROUP
LOAD c:/program files (x86)/atmel/studio/7.0/toolchain/avr8/avr8-gnu-toolchain/bin/../lib/gcc/avr/4.9.2/avr5\libgcc.a
LOAD c:/program files (x86)/atmel/studio/7.0/toolchain/avr8/avr8-gnu-toolchain/bin/../lib/gcc/avr/4.9.2/../../../../avr/lib/avr5\libm.a
LOAD c:/program files (x86)/atmel/studio/7.0/toolchain/avr8/avr8-gnu-toolchain/bin/../lib/gcc/avr/4.9.2/../../../../avr/lib/avr5\libc.a
LOAD C:/Program Files (x86)/Atmel/Studio/7.0/Packs/atmel/ATmega_DFP/1.0.90/gcc/dev/atmega328p/avr5\libatmega328p.a
END GROUP

.hash
 *(.hash)

.dynsym
 *(.dynsym)

.dynstr
 *(.dynstr)

.gnu.version
 *(.gnu.version)

.gnu.version_d
 *(.gnu.version_d)

.gnu.version_r
 *(.gnu.version_r)

.rel.init
 *(.rel.init)

.rela.init
 *(.rela.init)

.rel.text
 *(.rel.text)
 *(.rel.text.*)
 *(.rel.gnu.linkonce.t*)

.rela.text
 *(.rela.text)
 *(.rela.text.*)
 *(.rela.gnu.linkonce.t*)

.rel.fini
 *(.rel.fini)

.rela.fini
 *(.rela.fini)

.rel.rodata
 *(.rel.rodata)
 *(.rel.rodata.*)
 *(.rel.gnu.linkonce.r*)

.rela.rodata
 *(.rela.rodata)
 *(.rela.rodata.*)
 *(.rela.gnu.linkonce.r*)

.rel.data
 *(.rel.data)
 *(.rel.data.*)
 *(.rel.gnu.linkonce.d*)

.rela.data
 *(.rela.data)
 *(.rela.data.*)
 *(.rela.gnu.linkonce.d*)

.rel.ctors
 *(.rel.ctors)

.rela.ctors
 *(.rela.ctors)

.rel.dtors
 *(.rel.dtors)

.rela.dtors
 *(.rela.dtors)

.rel.got
 *(.rel.got)

.rela.got
 *(.rela.got)

.rel.bss
 *(.rel.bss)

.rela.bss
 *(.rela.bss)

.rel.plt
 *(.rel.plt)

.rela.plt
 *(.rela.plt)

.text           0x00000000     0x1d16
 *(.vectors)
 .vectors       0x00000000       0x68 C:/Program Files (x86)/Atmel/Studio/7.0/Packs/atmel/ATmega_DFP/1.0.90/gcc/dev/atmega328p/avr5/crtatmega328p.o
                0x00000000                __vector_default
                0x00000000                __vectors
 *(.vectors)
 *(.progmem.gcc*)
                0x00000068                . = ALIGN (0x2)
                0x00000068                __trampolines_start = .
 *(.trampolines)
 .trampolines   0x00000068        0x0 linker stubs
 *(.trampolines*)
                0x00000068                __trampolines_end = .
 *(.progmem*)
 .progmem.data._ZZ4mainE3__c_3
                0x00000068        0x5 _Feed_Timer_DP7_Seg.o
 .progmem.data._ZZ4mainE3__c_2
                0x0000006d        0x5 _Feed_Timer_DP7_Seg.o
 .progmem.data._ZZ4mainE3__c_1
                0x00000072        0x5 _Feed_Timer_DP7_Seg.o
 .progmem.data._ZZ4mainE3__c_0
                0x00000077        0x5 _Feed_Timer_DP7_Seg.o
 .progmem.data._ZZ4mainE3__c
                0x0000007c        0x5 _Feed_Timer_DP7_Seg.o
 .progmem.data._ZZN16class_Feed_Timer14GetMenuItemStrEhE3__c_4
                0x00000081        0x5 _Feed_Timer_DP7_Seg.o
 .progmem.data._ZZN16class_Feed_Timer14GetMenuItemStrEhE3__c_3
                0x00000086        0x5 _Feed_Timer_DP7_Seg.o
 .progmem.data._ZZN16class_Feed_Timer14GetMenuItemStrEhE3__c_2
                0x0000008b        0x5 _Feed_Timer_DP7_Seg.o
 .progmem.data._ZZN16class_Feed_Timer14GetMenuItemStrEhE3__c_1
                0x00000090        0x5 _Feed_Timer_DP7_Seg.o
 .progmem.data._ZZN16class_Feed_Timer14GetMenuItemStrEhE3__c_0
                0x00000095        0x5 _Feed_Timer_DP7_Seg.o
 .progmem.data._ZZN16class_Feed_Timer14GetMenuItemStrEhE3__c
                0x0000009a        0x5 _Feed_Timer_DP7_Seg.o
 .progmem.data._ZZN16class_Feed_Timer8InitTimeEbE3__c_5
                0x0000009f        0x5 _Feed_Timer_DP7_Seg.o
 .progmem.data._ZZN16class_Feed_Timer8InitTimeEbE3__c_4
                0x000000a4        0x5 _Feed_Timer_DP7_Seg.o
 .progmem.data._ZZN16class_Feed_Timer8InitTimeEbE3__c_3
                0x000000a9        0x5 _Feed_Timer_DP7_Seg.o
 .progmem.data._ZZN16class_Feed_Timer8InitTimeEbE3__c_2
                0x000000ae        0x3 _Feed_Timer_DP7_Seg.o
 .progmem.data._ZZN16class_Feed_Timer8InitTimeEbE3__c_1
                0x000000b1        0x3 _Feed_Timer_DP7_Seg.o
 .progmem.data._ZZN16class_Feed_Timer8InitTimeEbE3__c_0
                0x000000b4        0x5 _Feed_Timer_DP7_Seg.o
 .progmem.data._ZZN16class_Feed_Timer8InitTimeEbE3__c
                0x000000b9        0x3 _Feed_Timer_DP7_Seg.o
 .progmem.data._ZZN16class_Feed_Timer13GetWeekDayStrEhE3__c_6
                0x000000bc        0x5 _Feed_Timer_DP7_Seg.o
 .progmem.data._ZZN16class_Feed_Timer13GetWeekDayStrEhE3__c_5
                0x000000c1        0x5 _Feed_Timer_DP7_Seg.o
 .progmem.data._ZZN16class_Feed_Timer13GetWeekDayStrEhE3__c_4
                0x000000c6        0x5 _Feed_Timer_DP7_Seg.o
 .progmem.data._ZZN16class_Feed_Timer13GetWeekDayStrEhE3__c_3
                0x000000cb        0x5 _Feed_Timer_DP7_Seg.o
 .progmem.data._ZZN16class_Feed_Timer13GetWeekDayStrEhE3__c_2
                0x000000d0        0x5 _Feed_Timer_DP7_Seg.o
 .progmem.data._ZZN16class_Feed_Timer13GetWeekDayStrEhE3__c_1
                0x000000d5        0x5 _Feed_Timer_DP7_Seg.o
 .progmem.data._ZZN16class_Feed_Timer13GetWeekDayStrEhE3__c_0
                0x000000da        0x5 _Feed_Timer_DP7_Seg.o
 .progmem.data._ZZN16class_Feed_Timer13GetWeekDayStrEhE3__c
                0x000000df        0x5 _Feed_Timer_DP7_Seg.o
 .progmem.data._ZZN19class_Display_7_Seg3ClsEvE3__c
                0x000000e4        0x5 _Feed_Timer_IO.o
 .progmem.data._ZL34_FEED_TIMER_DISP_7_SEG_ASCII_Table
                0x000000e9       0x41 _Feed_Timer_IO.o
                0x0000012a                . = ALIGN (0x2)
 *(.jumptables)
 *(.jumptables*)
 *(.lowtext)
 *(.lowtext*)
                0x0000012a                __ctors_start = .
 *(.ctors)
 .ctors         0x0000012a        0x2 _Feed_Timer_DP7_Seg.o
 .ctors         0x0000012c        0x2 _Feed_Timer_IO.o
                0x0000012e                __ctors_end = .
                0x0000012e                __dtors_start = .
 *(.dtors)
                0x0000012e                __dtors_end = .
 SORT(*)(.ctors)
 SORT(*)(.dtors)
 *(.init0)
 .init0         0x0000012e        0x0 C:/Program Files (x86)/Atmel/Studio/7.0/Packs/atmel/ATmega_DFP/1.0.90/gcc/dev/atmega328p/avr5/crtatmega328p.o
                0x0000012e                __init
 *(.init0)
 *(.init1)
 *(.init1)
 *(.init2)
 .init2         0x0000012e        0xc C:/Program Files (x86)/Atmel/Studio/7.0/Packs/atmel/ATmega_DFP/1.0.90/gcc/dev/atmega328p/avr5/crtatmega328p.o
 *(.init2)
 *(.init3)
 *(.init3)
 *(.init4)
 .init4         0x0000013a       0x16 c:/program files (x86)/atmel/studio/7.0/toolchain/avr8/avr8-gnu-toolchain/bin/../lib/gcc/avr/4.9.2/avr5\libgcc.a(_copy_data.o)
                0x0000013a                __do_copy_data
 .init4         0x00000150       0x10 c:/program files (x86)/atmel/studio/7.0/toolchain/avr8/avr8-gnu-toolchain/bin/../lib/gcc/avr/4.9.2/avr5\libgcc.a(_clear_bss.o)
                0x00000150                __do_clear_bss
 *(.init4)
 *(.init5)
 *(.init5)
 *(.init6)
 .init6         0x00000160       0x16 c:/program files (x86)/atmel/studio/7.0/toolchain/avr8/avr8-gnu-toolchain/bin/../lib/gcc/avr/4.9.2/avr5\libgcc.a(_ctors.o)
                0x00000160                __do_global_ctors
 *(.init6)
 *(.init7)
 *(.init7)
 *(.init8)
 *(.init8)
 *(.init9)
 .init9         0x00000176        0x8 C:/Program Files (x86)/Atmel/Studio/7.0/Packs/atmel/ATmega_DFP/1.0.90/gcc/dev/atmega328p/avr5/crtatmega328p.o
 *(.init9)
 *(.text)
 .text          0x0000017e        0x4 C:/Program Files (x86)/Atmel/Studio/7.0/Packs/atmel/ATmega_DFP/1.0.90/gcc/dev/atmega328p/avr5/crtatmega328p.o
                0x0000017e                __vector_22
                0x0000017e                __vector_1
                0x0000017e                __vector_24
                0x0000017e                __vector_12
                0x0000017e                __bad_interrupt
                0x0000017e                __vector_6
                0x0000017e                __vector_3
                0x0000017e                __vector_23
                0x0000017e                __vector_25
                0x0000017e                __vector_11
                0x0000017e                __vector_13
                0x0000017e                __vector_17
                0x0000017e                __vector_19
                0x0000017e                __vector_5
                0x0000017e                __vector_4
                0x0000017e                __vector_9
                0x0000017e                __vector_2
                0x0000017e                __vector_21
                0x0000017e                __vector_15
                0x0000017e                __vector_8
                0x0000017e                __vector_10
                0x0000017e                __vector_16
                0x0000017e                __vector_18
                0x0000017e                __vector_20
                0x00000182                . = ALIGN (0x2)
 *(.text.*)
 .text._ZN16class_Feed_Timer13SetTimer0_OFFEv.isra.2
                0x00000182        0xc _Feed_Timer_DP7_Seg.o
 .text._ZN16class_Feed_Timer13ClockCallBackEv
                0x0000018e      0x254 _Feed_Timer_DP7_Seg.o
                0x0000018e                _ZN16class_Feed_Timer13ClockCallBackEv
 .text._ZN16class_Feed_TimerC2Ev
                0x000003e2        0xc _Feed_Timer_DP7_Seg.o
                0x000003e2                _ZN16class_Feed_TimerC1Ev
                0x000003e2                _ZN16class_Feed_TimerC2Ev
 .text._ZN16class_Feed_Timer7GetTimeERhS0_S0_S0_
                0x000003ee       0x6e _Feed_Timer_DP7_Seg.o
                0x000003ee                _ZN16class_Feed_Timer7GetTimeERhS0_S0_S0_
 .text._ZN16class_Feed_Timer8InitTimeEb
                0x0000045c      0x4a8 _Feed_Timer_DP7_Seg.o
                0x0000045c                _ZN16class_Feed_Timer8InitTimeEb
 .text._ZN16class_Feed_Timer8ShowLIVEEv
                0x00000904       0x60 _Feed_Timer_DP7_Seg.o
                0x00000904                _ZN16class_Feed_Timer8ShowLIVEEv
 .text._ZN16class_Feed_Timer8EventAddER11EventStruct
                0x00000964       0xfe _Feed_Timer_DP7_Seg.o
                0x00000964                _ZN16class_Feed_Timer8EventAddER11EventStruct
 .text._ZN16class_Feed_Timer13ProcessInputsEv
                0x00000a62      0x362 _Feed_Timer_DP7_Seg.o
                0x00000a62                _ZN16class_Feed_Timer13ProcessInputsEv
 .text.startup.main
                0x00000dc4      0x294 _Feed_Timer_DP7_Seg.o
                0x00000dc4                main
 .text.startup._GLOBAL__sub_I_time
                0x00001058       0x10 _Feed_Timer_DP7_Seg.o
 .text._Z11DisplayScanv
                0x00001068       0x8a _Feed_Timer_IO.o
                0x00001068                _Z11DisplayScanv
 .text._ZN19class_Display_7_Seg14KeysInitializeEv
                0x000010f2        0xe _Feed_Timer_IO.o
                0x000010f2                _ZN19class_Display_7_Seg14KeysInitializeEv
 .text._ZN19class_Display_7_Seg18DisplaysInitializeEv
                0x00001100       0x4c _Feed_Timer_IO.o
                0x00001100                _ZN19class_Display_7_Seg18DisplaysInitializeEv
 .text._ZN19class_Display_7_Seg20DisplaysUnInitializeEv
                0x0000114c       0x2c _Feed_Timer_IO.o
                0x0000114c                _ZN19class_Display_7_Seg20DisplaysUnInitializeEv
 .text._ZN19class_Display_7_Seg15MotorInitializeEv
                0x00001178        0x6 _Feed_Timer_IO.o
                0x00001178                _ZN19class_Display_7_Seg15MotorInitializeEv
 .text._ZN19class_Display_7_Seg17MotorUnInitializeEv
                0x0000117e        0x6 _Feed_Timer_IO.o
                0x0000117e                _ZN19class_Display_7_Seg17MotorUnInitializeEv
 .text._ZN19class_Display_7_Seg16Timer2InitializeEv
                0x00001184       0x6e _Feed_Timer_IO.o
                0x00001184                _ZN19class_Display_7_Seg16Timer2InitializeEv
 .text.__vector_7
                0x000011f2       0x52 _Feed_Timer_IO.o
                0x000011f2                __vector_7
 .text._ZN19class_Display_7_Seg10InitializeEv
                0x00001244       0x3a _Feed_Timer_IO.o
                0x00001244                _ZN19class_Display_7_Seg10InitializeEv
 .text._ZN19class_Display_7_SegC2Ev
                0x0000127e       0x14 _Feed_Timer_IO.o
                0x0000127e                _ZN19class_Display_7_SegC1Ev
                0x0000127e                _ZN19class_Display_7_SegC2Ev
 .text._ZN19class_Display_7_Seg12DispSetPointEhb
                0x00001292       0x38 _Feed_Timer_IO.o
                0x00001292                _ZN19class_Display_7_Seg12DispSetPointEhb
 .text._ZN19class_Display_7_Seg12DispSetASCIIEhh
                0x000012ca       0x26 _Feed_Timer_IO.o
                0x000012ca                _ZN19class_Display_7_Seg12DispSetASCIIEhh
 .text._ZN19class_Display_7_Seg4HomeEv
                0x000012f0        0x8 _Feed_Timer_IO.o
                0x000012f0                _ZN19class_Display_7_Seg4HomeEv
 .text._ZN19class_Display_7_Seg6LocateEh
                0x000012f8        0x6 _Feed_Timer_IO.o
                0x000012f8                _ZN19class_Display_7_Seg6LocateEh
 .text._ZN19class_Display_7_Seg4PutCEc
                0x000012fe       0x1c _Feed_Timer_IO.o
                0x000012fe                _ZN19class_Display_7_Seg4PutCEc
 .text._ZN19class_Display_7_Seg4PutSEPKc
                0x0000131a       0x24 _Feed_Timer_IO.o
                0x0000131a                _ZN19class_Display_7_Seg4PutSEPKc
 .text._ZN19class_Display_7_Seg5PutSFEPKc
                0x0000133e       0x28 _Feed_Timer_IO.o
                0x0000133e                _ZN19class_Display_7_Seg5PutSFEPKc
 .text._ZN19class_Display_7_Seg3ClsEv
                0x00001366       0x20 _Feed_Timer_IO.o
                0x00001366                _ZN19class_Display_7_Seg3ClsEv
 .text._ZN19class_Display_7_Seg12KeyReadFlashEv
                0x00001386       0x1e _Feed_Timer_IO.o
                0x00001386                _ZN19class_Display_7_Seg12KeyReadFlashEv
 .text._ZN19class_Display_7_Seg14KeyWaitReleaseEv
                0x000013a4       0x32 _Feed_Timer_IO.o
                0x000013a4                _ZN19class_Display_7_Seg14KeyWaitReleaseEv
 .text._ZN19class_Display_7_Seg10PutToSleepEv
                0x000013d6       0x1c _Feed_Timer_IO.o
                0x000013d6                _ZN19class_Display_7_Seg10PutToSleepEv
 .text._ZN19class_Display_7_Seg9DisableIOEv
                0x000013f2       0x20 _Feed_Timer_IO.o
                0x000013f2                _ZN19class_Display_7_Seg9DisableIOEv
 .text._ZN19class_Display_7_Seg8EnableIOEv
                0x00001412       0x10 _Feed_Timer_IO.o
                0x00001412                _ZN19class_Display_7_Seg8EnableIOEv
 .text._ZN19class_Display_7_Seg13MotorGetStateEv
                0x00001422        0x8 _Feed_Timer_IO.o
                0x00001422                _ZN19class_Display_7_Seg13MotorGetStateEv
 .text._ZN19class_Display_7_Seg17SetSecondCallBackEPFvvE
                0x0000142a        0xa _Feed_Timer_IO.o
                0x0000142a                _ZN19class_Display_7_Seg17SetSecondCallBackEPFvvE
 .text.startup._GLOBAL__sub_I__Display_7_Seg
                0x00001434       0x12 _Feed_Timer_IO.o
 .text._Z14_timeInterruptv
                0x00001446       0x18 _Time_Lib.o
                0x00001446                _Z14_timeInterruptv
 .text._Z10_timeClockv
                0x0000145e       0xa6 _Time_Lib.o
                0x0000145e                _Z10_timeClockv
 .text._ZN10class_Time10InitializeEv
                0x00001504       0x36 _Time_Lib.o
                0x00001504                _ZN10class_Time10InitializeEv
 .text._ZN10class_TimeC2Ev
                0x0000153a       0x1e _Time_Lib.o
                0x0000153a                _ZN10class_TimeC2Ev
                0x0000153a                _ZN10class_TimeC1Ev
 .text.__vector_14
                0x00001558       0x82 _Time_Lib.o
                0x00001558                __vector_14
 .text._ZN10class_Time15GetMillisecondsEv
                0x000015da       0x38 _Time_Lib.o
                0x000015da                _ZN10class_Time15GetMillisecondsEv
 .text._ZN10class_Time10SetElapsedEPm
                0x00001612       0x18 _Time_Lib.o
                0x00001612                _ZN10class_Time10SetElapsedEPm
 .text._ZN10class_Time10GetElapsedEPm
                0x0000162a       0x28 _Time_Lib.o
                0x0000162a                _ZN10class_Time10GetElapsedEPm
 .text._ZN10class_Time8DelayMsIEm
                0x00001652       0x5c _Time_Lib.o
                0x00001652                _ZN10class_Time8DelayMsIEm
 .text._ZN10class_Time24SetTimeInterruptCallbackEPFvvE
                0x000016ae        0xa _Time_Lib.o
                0x000016ae                _ZN10class_Time24SetTimeInterruptCallbackEPFvvE
 .text._ZN10class_Time17SetInterruptStateEb
                0x000016b8        0x6 _Time_Lib.o
                0x000016b8                _ZN10class_Time17SetInterruptStateEb
 .text.libgcc.mul
                0x000016be       0x1e c:/program files (x86)/atmel/studio/7.0/toolchain/avr8/avr8-gnu-toolchain/bin/../lib/gcc/avr/4.9.2/avr5\libgcc.a(_umulhisi3.o)
                0x000016be                __umulhisi3
 .text.libgcc   0x000016dc        0xc c:/program files (x86)/atmel/studio/7.0/toolchain/avr8/avr8-gnu-toolchain/bin/../lib/gcc/avr/4.9.2/avr5\libgcc.a(_tablejump2.o)
                0x000016dc                __tablejump2__
 .text.avr-libc
                0x000016e8       0x1a c:/program files (x86)/atmel/studio/7.0/toolchain/avr8/avr8-gnu-toolchain/bin/../lib/gcc/avr/4.9.2/../../../../avr/lib/avr5\libc.a(memcmp.o)
                0x000016e8                memcmp
 .text.avr-libc
                0x00001702       0x46 c:/program files (x86)/atmel/studio/7.0/toolchain/avr8/avr8-gnu-toolchain/bin/../lib/gcc/avr/4.9.2/../../../../avr/lib/avr5\libc.a(sprintf.o)
                0x00001702                sprintf
 .text.avr-libc
                0x00001748      0x3a4 c:/program files (x86)/atmel/studio/7.0/toolchain/avr8/avr8-gnu-toolchain/bin/../lib/gcc/avr/4.9.2/../../../../avr/lib/avr5\libc.a(vfprintf_std.o)
                0x00001748                vfprintf
 .text.avr-libc
                0x00001aec       0x16 c:/program files (x86)/atmel/studio/7.0/toolchain/avr8/avr8-gnu-toolchain/bin/../lib/gcc/avr/4.9.2/../../../../avr/lib/avr5\libc.a(strnlen_P.o)
                0x00001aec                strnlen_P
 .text.avr-libc
                0x00001b02       0x16 c:/program files (x86)/atmel/studio/7.0/toolchain/avr8/avr8-gnu-toolchain/bin/../lib/gcc/avr/4.9.2/../../../../avr/lib/avr5\libc.a(strnlen.o)
                0x00001b02                strnlen
 .text.avr-libc
                0x00001b18       0x70 c:/program files (x86)/atmel/studio/7.0/toolchain/avr8/avr8-gnu-toolchain/bin/../lib/gcc/avr/4.9.2/../../../../avr/lib/avr5\libc.a(fputc.o)
                0x00001b18                fputc
 .text.avr-libc
                0x00001b88       0xbc c:/program files (x86)/atmel/studio/7.0/toolchain/avr8/avr8-gnu-toolchain/bin/../lib/gcc/avr/4.9.2/../../../../avr/lib/avr5\libc.a(ultoa_invert.o)
                0x00001b88                __ultoa_invert
 .text.avr-libc
                0x00001c44       0x20 C:/Program Files (x86)/Atmel/Studio/7.0/Packs/atmel/ATmega_DFP/1.0.90/gcc/dev/atmega328p/avr5\libatmega328p.a(eerd_block.o)
                0x00001c44                eeprom_read_block
                0x00001c48                eeprom_read_blraw
 .text.avr-libc
                0x00001c64       0x10 C:/Program Files (x86)/Atmel/Studio/7.0/Packs/atmel/ATmega_DFP/1.0.90/gcc/dev/atmega328p/avr5\libatmega328p.a(eerd_byte.o)
                0x00001c64                eeprom_read_byte
 .text.avr-libc
                0x00001c74       0x14 C:/Program Files (x86)/Atmel/Studio/7.0/Packs/atmel/ATmega_DFP/1.0.90/gcc/dev/atmega328p/avr5\libatmega328p.a(eewr_block.o)
                0x00001c74                eeprom_write_block
 .text.avr-libc
                0x00001c88       0x1c C:/Program Files (x86)/Atmel/Studio/7.0/Packs/atmel/ATmega_DFP/1.0.90/gcc/dev/atmega328p/avr5\libatmega328p.a(eewr_byte.o)
                0x00001c88                eeprom_write_byte
                0x00001c8a                eeprom_write_r18
 .text.libgcc.prologue
                0x00001ca4       0x38 c:/program files (x86)/atmel/studio/7.0/toolchain/avr8/avr8-gnu-toolchain/bin/../lib/gcc/avr/4.9.2/avr5\libgcc.a(_prologue.o)
                0x00001ca4                __prologue_saves__
 .text.libgcc.prologue
                0x00001cdc       0x36 c:/program files (x86)/atmel/studio/7.0/toolchain/avr8/avr8-gnu-toolchain/bin/../lib/gcc/avr/4.9.2/avr5\libgcc.a(_epilogue.o)
                0x00001cdc                __epilogue_restores__
                0x00001d12                . = ALIGN (0x2)
 *(.fini9)
 .fini9         0x00001d12        0x0 c:/program files (x86)/atmel/studio/7.0/toolchain/avr8/avr8-gnu-toolchain/bin/../lib/gcc/avr/4.9.2/avr5\libgcc.a(_exit.o)
                0x00001d12                _exit
                0x00001d12                exit
 *(.fini9)
 *(.fini8)
 *(.fini8)
 *(.fini7)
 *(.fini7)
 *(.fini6)
 *(.fini6)
 *(.fini5)
 *(.fini5)
 *(.fini4)
 *(.fini4)
 *(.fini3)
 *(.fini3)
 *(.fini2)
 *(.fini2)
 *(.fini1)
 *(.fini1)
 *(.fini0)
 .fini0         0x00001d12        0x4 c:/program files (x86)/atmel/studio/7.0/toolchain/avr8/avr8-gnu-toolchain/bin/../lib/gcc/avr/4.9.2/avr5\libgcc.a(_exit.o)
 *(.fini0)
                0x00001d16                _etext = .

.data           0x00800100       0x30 load address 0x00001d16
                0x00800100                PROVIDE (__data_start, .)
 *(.data)
 *(.data*)
 .data._ZN16class_Feed_Timer10SleepStateE
                0x00800100        0x1 _Feed_Timer_DP7_Seg.o
                0x00800100                _ZN16class_Feed_Timer10SleepStateE
 .data._ZN16class_Feed_Timer4PtrsE
                0x00800101        0x2 _Feed_Timer_DP7_Seg.o
                0x00800101                _ZN16class_Feed_Timer4PtrsE
 *(.rodata)
 *(.rodata*)
 .rodata.str1.1
                0x00800103       0x15 _Feed_Timer_DP7_Seg.o
                                 0x1a (size before relaxing)
 .rodata.CSWTCH.85
                0x00800118        0xa _Feed_Timer_DP7_Seg.o
 .rodata.CSWTCH.80
                0x00800122        0xe _Feed_Timer_DP7_Seg.o
 *(.gnu.linkonce.d*)
                0x00800130                . = ALIGN (0x2)
                0x00800130                _edata = .
                0x00800130                PROVIDE (__data_end, .)

.bss            0x00800130      0x22f
                0x00800130                PROVIDE (__bss_start, .)
 *(.bss)
 *(.bss*)
 .bss._ZZN16class_Feed_Timer8ShowLIVEEvE4live
                0x00800130        0x1 _Feed_Timer_DP7_Seg.o
 .bss._ZN16class_Feed_Timer9TickCountE
                0x00800131        0x4 _Feed_Timer_DP7_Seg.o
                0x00800131                _ZN16class_Feed_Timer9TickCountE
 .bss.bf        0x00800135        0xa _Feed_Timer_DP7_Seg.o
                0x00800135                bf
 .bss.EventsCount
                0x0080013f      0x1f4 _Feed_Timer_DP7_Seg.o
                0x0080013f                EventsCount
 .bss.dp        0x00800333        0x7 _Feed_Timer_DP7_Seg.o
                0x00800333                dp
 .bss.time      0x0080033a        0x7 _Feed_Timer_DP7_Seg.o
                0x0080033a                time
 .bss._Display_7_Seg
                0x00800341        0x9 _Feed_Timer_IO.o
                0x00800341                _Display_7_Seg
 .bss._time     0x0080034a       0x15 _Time_Lib.o
 *(COMMON)
                0x0080035f                PROVIDE (__bss_end, .)
                0x00001d16                __data_load_start = LOADADDR (.data)
                0x00001d46                __data_load_end = (__data_load_start + SIZEOF (.data))

.noinit         0x0080035f        0x0
                0x0080035f                PROVIDE (__noinit_start, .)
 *(.noinit*)
                0x0080035f                PROVIDE (__noinit_end, .)
                0x0080035f                _end = .
                0x0080035f                PROVIDE (__heap_start, .)

.eeprom         0x00810000      0x2bd
 *(.eeprom*)
 .eeprom        0x00810000      0x2bd _Feed_Timer_DP7_Seg.o
                0x00810000                EE_Events
                0x008102bc                EE_EventsSize
                0x008102bd                __eeprom_end = .

.fuse
 *(.fuse)
 *(.lfuse)
 *(.hfuse)
 *(.efuse)

.lock
 *(.lock*)

.signature
 *(.signature*)

.user_signatures
 *(.user_signatures*)

.stab
 *(.stab)

.stabstr
 *(.stabstr)

.stab.excl
 *(.stab.excl)

.stab.exclstr
 *(.stab.exclstr)

.stab.index
 *(.stab.index)

.stab.indexstr
 *(.stab.indexstr)

.comment        0x00000000       0x5c
 *(.comment)
 .comment       0x00000000       0x30 _Feed_Timer_DP7_Seg.o
                                 0x31 (size before relaxing)
 .comment       0x00000030       0x31 _Feed_Timer_IO.o
 .comment       0x00000030       0x31 _Time_Lib.o
 .comment       0x00000030       0x31 c:/program files (x86)/atmel/studio/7.0/toolchain/avr8/avr8-gnu-toolchain/bin/../lib/gcc/avr/4.9.2/../../../../avr/lib/avr5\libc.a(sprintf.o)
 .comment       0x00000030       0x2c c:/program files (x86)/atmel/studio/7.0/toolchain/avr8/avr8-gnu-toolchain/bin/../lib/gcc/avr/4.9.2/../../../../avr/lib/avr5\libc.a(vfprintf_std.o)
                                 0x2d (size before relaxing)
 .comment       0x0000005c       0x31 c:/program files (x86)/atmel/studio/7.0/toolchain/avr8/avr8-gnu-toolchain/bin/../lib/gcc/avr/4.9.2/../../../../avr/lib/avr5\libc.a(fputc.o)

.note.gnu.avr.deviceinfo
                0x00000000       0x40
 .note.gnu.avr.deviceinfo
                0x00000000       0x40 C:/Program Files (x86)/Atmel/Studio/7.0/Packs/atmel/ATmega_DFP/1.0.90/gcc/dev/atmega328p/avr5/crtatmega328p.o

.note.gnu.build-id
 *(.note.gnu.build-id)

.debug
 *(.debug)

.line
 *(.line)

.debug_srcinfo
 *(.debug_srcinfo)

.debug_sfnames
 *(.debug_sfnames)

.debug_aranges  0x00000000      0x2b8
 *(.debug_aranges)
 .debug_aranges
                0x00000000       0x90 _Feed_Timer_DP7_Seg.o
 .debug_aranges
                0x00000090      0x108 _Feed_Timer_IO.o
 .debug_aranges
                0x00000198      0x120 _Time_Lib.o

.debug_pubnames
 *(.debug_pubnames)

.debug_info     0x00000000     0x5174
 *(.debug_info .gnu.linkonce.wi.*)
 .debug_info    0x00000000     0x2cac _Feed_Timer_DP7_Seg.o
 .debug_info    0x00002cac     0x15a4 _Feed_Timer_IO.o
 .debug_info    0x00004250      0xf24 _Time_Lib.o

.debug_abbrev   0x00000000      0xc3f
 *(.debug_abbrev)
 .debug_abbrev  0x00000000      0x552 _Feed_Timer_DP7_Seg.o
 .debug_abbrev  0x00000552      0x3f7 _Feed_Timer_IO.o
 .debug_abbrev  0x00000949      0x2f6 _Time_Lib.o

.debug_line     0x00000000      0xd02
 *(.debug_line .debug_line.* .debug_line_end)
 .debug_line    0x00000000      0x5b3 _Feed_Timer_DP7_Seg.o
 .debug_line    0x000005b3      0x3d7 _Feed_Timer_IO.o
 .debug_line    0x0000098a      0x378 _Time_Lib.o

.debug_frame    0x00000000      0x854
 *(.debug_frame)
 .debug_frame   0x00000000      0x24c _Feed_Timer_DP7_Seg.o
 .debug_frame   0x0000024c      0x2f0 _Feed_Timer_IO.o
 .debug_frame   0x0000053c      0x318 _Time_Lib.o

.debug_str      0x00000000     0x1523
 *(.debug_str)
 .debug_str     0x00000000     0x12ba _Feed_Timer_DP7_Seg.o
                               0x1364 (size before relaxing)
 .debug_str     0x000012ba      0x152 _Feed_Timer_IO.o
                                0xefe (size before relaxing)
 .debug_str     0x0000140c      0x117 _Time_Lib.o
                                0x83f (size before relaxing)

.debug_loc      0x00000000     0x1dbb
 *(.debug_loc)
 .debug_loc     0x00000000      0xa61 _Feed_Timer_DP7_Seg.o
 .debug_loc     0x00000a61      0xb5a _Feed_Timer_IO.o
 .debug_loc     0x000015bb      0x800 _Time_Lib.o

.debug_macinfo
 *(.debug_macinfo)

.debug_weaknames
 *(.debug_weaknames)

.debug_funcnames
 *(.debug_funcnames)

.debug_typenames
 *(.debug_typenames)

.debug_varnames
 *(.debug_varnames)

.debug_pubtypes
 *(.debug_pubtypes)

.debug_ranges   0x00000000      0x2e8
 *(.debug_ranges)
 .debug_ranges  0x00000000       0xc8 _Feed_Timer_DP7_Seg.o
 .debug_ranges  0x000000c8      0x110 _Feed_Timer_IO.o
 .debug_ranges  0x000001d8      0x110 _Time_Lib.o

.debug_macro
 *(.debug_macro)
OUTPUT(_Feed_Timer_DP7_Seg.elf elf32-avr)
LOAD linker stubs
