   1               		.file	"main.c"
   2               	__SREG__ = 0x3f
   3               	__SP_H__ = 0x3e
   4               	__SP_L__ = 0x3d
   5               	__CCP__  = 0x34
   6               	__tmp_reg__ = 0
   7               	__zero_reg__ = 1
  15               	.Ltext0:
  16               		.section	.init3,"ax",@progbits
  17               	.global	get_mcusr
  19               	get_mcusr:
  20               	.LFB14:
  21               	.LSM0:
  22               	/* prologue: naked */
  23               	/* frame size = 0 */
  24               	.LSM1:
  25 0000 14BE      		out 84-32,__zero_reg__
  26               	.LSM2:
  27 0002 88E1      		ldi r24,lo8(24)
  28               	/* #APP */
  29               	 ;  33 "main.c" 1
  30 0004 0FB6      		in __tmp_reg__, __SREG__
  31 0006 F894      		cli
  32 0008 8093 6000 		sts 96, r24
  33 000c 1092 6000 		sts 96, __zero_reg__
  34 0010 0FBE      		out __SREG__,__tmp_reg__
  35               		
  36               	 ;  0 "" 2
  37               	/* epilogue start */
  38               	.LSM3:
  39               	/* #NOAPP */
  40               	.LFE14:
  42               		.data
  43               	.LC0:
  44 0000 0D0A 4D49 		.string	"\r\nMICKBOOT V1.0 Uart"
  44      434B 424F 
  44      4F54 2056 
  44      312E 3020 
  44      5561 7274 
  45               	.LC1:
  46 0015 3100      		.string	"1"
  47               	.LC2:
  48 0017 3000      		.string	"0"
  49               	.LC3:
  50 0019 0D0A 5365 		.string	"\r\nSend Z\r\n"
  50      6E64 205A 
  50      0D0A 00
  51               	.LC4:
  52 0024 0D0A 5365 		.string	"\r\nSend hex file in ASCII\r\n"
  52      6E64 2068 
  52      6578 2066 
  52      696C 6520 
  52      696E 2041 
  53               	.LC5:
  54 003f 5375 6363 		.string	"Success!\r\n"
  54      6573 7321 
  54      0D0A 00
  55               	.LC6:
  56 004a 5469 6D65 		.string	"Timeout waiting for hex data\r\n"
  56      6F75 7420 
  56      7761 6974 
  56      696E 6720 
  56      666F 7220 
  57               	.LC7:
  58 0069 4865 7820 		.string	"Hex file ERROR!\r\n"
  58      6669 6C65 
  58      2045 5252 
  58      4F52 210D 
  58      0A00 
  59               	.LC8:
  60 007b 5469 6D65 		.string	"Timeout waiting for Z\r\n"
  60      6F75 7420 
  60      7761 6974 
  60      696E 6720 
  60      666F 7220 
  61               	.LC9:
  62 0093 5255 4E4E 		.string	"RUNNING\r\n"
  62      494E 470D 
  62      0A00 
  63               		.text
  64               	.global	main
  66               	main:
  67               	.LFB15:
  68               	.LM1:
  69 0000 EF92      		push r14
  70 0002 FF92      		push r15
  71 0004 1F93      		push r17
  72 0006 CF93      		push r28
  73 0008 DF93      		push r29
  74               	/* prologue: function */
  75               	/* frame size = 0 */
  76               	.LM2:
  77 000a 0E94 0000 		call uart_init
  78 000e 8823      		tst r24
  79 0010 01F4      		brne .+2
  80 0012 00C0      		rjmp .L4
  81               	.LM3:
  82 0014 81E0      		ldi r24,lo8(1)
  83 0016 85BF      		out 85-32,r24
  84               	.LM4:
  85 0018 82E0      		ldi r24,lo8(2)
  86 001a 85BF      		out 85-32,r24
  87               	.LM5:
  88               	/* #APP */
  89               	 ;  47 "main.c" 1
  90 001c 7894      		sei
  91               	 ;  0 "" 2
  92               	/* #NOAPP */
  93               	.LBB24:
  94               	.LBB25:
  95               	.LBB26:
  96               	.LBB27:
  97               	.LM6:
  98 001e 80E2      		ldi r24,lo8(20000)
  99 0020 E82E      		mov r14,r24
 100 0022 8EE4      		ldi r24,hi8(20000)
 101 0024 F82E      		mov r15,r24
 102               	.LVL0:
 103               	.L24:
 104               	.LBE27:
 105               	.LBE26:
 106               	.LBE25:
 107               	.LBE24:
 108               	.LM7:
 109 0026 80E0      		ldi r24,lo8(.LC0)
 110 0028 90E0      		ldi r25,hi8(.LC0)
 111 002a 0E94 0000 		call uart_write_string
 112               	.LVL1:
 113               	.LM8:
 114 002e 8091 C900 		lds r24,201
 115 0032 84FF      		sbrs r24,4
 116 0034 00C0      		rjmp .L5
 117               	.LM9:
 118 0036 80E0      		ldi r24,lo8(.LC1)
 119 0038 90E0      		ldi r25,hi8(.LC1)
 120 003a 00C0      		rjmp .L32
 121               	.L5:
 122               	.LM10:
 123 003c 80E0      		ldi r24,lo8(.LC2)
 124 003e 90E0      		ldi r25,hi8(.LC2)
 125               	.L32:
 126 0040 0E94 0000 		call uart_write_string
 127               	.LM11:
 128 0044 80E0      		ldi r24,lo8(.LC3)
 129 0046 90E0      		ldi r25,hi8(.LC3)
 130 0048 0E94 0000 		call uart_write_string
 131               	.L33:
 132 004c 28EB      		ldi r18,lo8(3000)
 133 004e 3BE0      		ldi r19,hi8(3000)
 134               	.LVL2:
 135               	.L31:
 136               	.LM12:
 137 0050 8091 0000 		lds r24,uart_fifo_rx+4
 138               	.LVL3:
 139 0054 8823      		tst r24
 140 0056 01F0      		breq .+2
 141 0058 00C0      		rjmp .L7
 142               	.LM13:
 143 005a 80E0      		ldi r24,lo8(uart_fifo_rx)
 144 005c 90E0      		ldi r25,hi8(uart_fifo_rx)
 145 005e 0E94 0000 		call fifo_read_char
 146               	.LVL4:
 147 0062 8A35      		cpi r24,lo8(90)
 148 0064 01F4      		brne .L33
 149               	.LM14:
 150 0066 80E0      		ldi r24,lo8(.LC4)
 151 0068 90E0      		ldi r25,hi8(.LC4)
 152 006a 0E94 0000 		call uart_write_string
 153               	.LM15:
 154 006e 0E94 0000 		call ihex_init
 155 0072 C0E7      		ldi r28,lo8(6000)
 156 0074 D7E1      		ldi r29,hi8(6000)
 157               	.LVL5:
 158               	.L19:
 159               	.LM16:
 160 0076 8091 0000 		lds r24,uart_fifo_rx+4
 161 007a 8823      		tst r24
 162 007c 01F0      		breq .+2
 163 007e 00C0      		rjmp .L9
 164               	.LM17:
 165 0080 80E0      		ldi r24,lo8(uart_fifo_rx)
 166 0082 90E0      		ldi r25,hi8(uart_fifo_rx)
 167 0084 0E94 0000 		call fifo_read_char
 168               	.LVL6:
 169 0088 0E94 0000 		call ihex_char
 170               	.LM18:
 171 008c 8091 0000 		lds r24,ihex_byte_count
 172 0090 8823      		tst r24
 173 0092 01F0      		breq .L10
 174 0094 C0E0      		ldi r28,lo8(ihex_data)
 175 0096 D0E0      		ldi r29,hi8(ihex_data)
 176               	.LVL7:
 177 0098 00C0      		rjmp .L11
 178               	.L12:
 179               	.LM19:
 180 009a 6091 0000 		lds r22,ihex_address
 181 009e 7091 0000 		lds r23,(ihex_address)+1
 182 00a2 8091 0000 		lds r24,(ihex_address)+2
 183 00a6 9091 0000 		lds r25,(ihex_address)+3
 184 00aa 6F5F      		subi r22,lo8(-(1))
 185 00ac 7F4F      		sbci r23,hi8(-(1))
 186 00ae 8F4F      		sbci r24,hlo8(-(1))
 187 00b0 9F4F      		sbci r25,hhi8(-(1))
 188 00b2 6093 0000 		sts ihex_address,r22
 189 00b6 7093 0000 		sts (ihex_address)+1,r23
 190 00ba 8093 0000 		sts (ihex_address)+2,r24
 191 00be 9093 0000 		sts (ihex_address)+3,r25
 192 00c2 6150      		subi r22,lo8(-(-1))
 193 00c4 7040      		sbci r23,hi8(-(-1))
 194 00c6 8040      		sbci r24,hlo8(-(-1))
 195 00c8 9040      		sbci r25,hhi8(-(-1))
 196 00ca 4991      		ld r20,Y+
 197 00cc 0E94 0000 		call flash_byte
 198               	.L11:
 199               	.LM20:
 200 00d0 8091 0000 		lds r24,ihex_byte_count
 201 00d4 8150      		subi r24,lo8(-(-1))
 202 00d6 8093 0000 		sts ihex_byte_count,r24
 203 00da 8F5F      		subi r24,lo8(-(1))
 204 00dc 01F4      		brne .L12
 205               	.LM21:
 206 00de 1092 0000 		sts ihex_byte_count,__zero_reg__
 207               	.LVL8:
 208               	.L10:
 209               	.LM22:
 210 00e2 8091 0000 		lds r24,ihex_status
 211 00e6 8130      		cpi r24,lo8(1)
 212 00e8 01F0      		breq .+2
 213 00ea 00C0      		rjmp .L13
 214               	.LM23:
 215 00ec 0E94 0000 		call flash_finish
 216               	.LM24:
 217 00f0 8091 0000 		lds r24,writer_failed
 218 00f4 8823      		tst r24
 219 00f6 01F0      		breq .+2
 220 00f8 00C0      		rjmp .L13
 221               	.LM25:
 222 00fa 80E0      		ldi r24,lo8(.LC5)
 223 00fc 90E0      		ldi r25,hi8(.LC5)
 224 00fe 0E94 0000 		call uart_write_string
 225 0102 11E0      		ldi r17,lo8(1)
 226 0104 00C0      		rjmp .L14
 227               	.LVL9:
 228               	.L9:
 229               	.LM26:
 230 0106 2197      		sbiw r28,1
 231               	.LBB31:
 232               	.LBB32:
 233               	.LBB33:
 234               	.LBB34:
 235               	.LM27:
 236 0108 C701      		movw r24,r14
 237               	.LVL10:
 238               	/* #APP */
 239               	 ;  105 "e:/winavr-20100110/lib/gcc/../../avr/include/util/delay_basic.h" 1
 240 010a 0197      		1: sbiw r24,1
 241 010c 01F4      		brne 1b
 242               	 ;  0 "" 2
 243               	/* #NOAPP */
 244               	.LBE34:
 245               	.LBE33:
 246               	.LBE32:
 247               	.LBE31:
 248               	.LM28:
 249 010e 2097      		sbiw r28,0
 250 0110 01F0      		breq .L15
 251 0112 90E0      		ldi r25,lo8(0)
 252 0114 00C0      		rjmp .L34
 253               	.L15:
 254               	.LM29:
 255 0116 80E0      		ldi r24,lo8(.LC6)
 256 0118 90E0      		ldi r25,hi8(.LC6)
 257               	.LVL11:
 258 011a 0E94 0000 		call uart_write_string
 259               	.LVL12:
 260 011e 91E0      		ldi r25,lo8(1)
 261               	.LVL13:
 262               	.L34:
 263 0120 10E0      		ldi r17,lo8(0)
 264               	.L16:
 265               	.LM30:
 266 0122 8091 0000 		lds r24,ihex_status
 267               	.LVL14:
 268 0126 8230      		cpi r24,lo8(2)
 269 0128 01F4      		brne .L17
 270               	.LM31:
 271 012a 80E0      		ldi r24,lo8(.LC7)
 272 012c 90E0      		ldi r25,hi8(.LC7)
 273 012e 0E94 0000 		call uart_write_string
 274               	.LVL15:
 275 0132 00C0      		rjmp .L18
 276               	.LVL16:
 277               	.L17:
 278               	.LM32:
 279 0134 9923      		tst r25
 280 0136 01F0      		breq .+2
 281 0138 00C0      		rjmp .L18
 282 013a 1123      		tst r17
 283 013c 01F4      		brne .+2
 284 013e 00C0      		rjmp .L19
 285 0140 00C0      		rjmp .L20
 286               	.LVL17:
 287               	.L7:
 288               	.LM33:
 289 0142 2150      		subi r18,lo8(-(-1))
 290 0144 3040      		sbci r19,hi8(-(-1))
 291               	.LBB35:
 292               	.LBB30:
 293               	.LBB29:
 294               	.LBB28:
 295               	.LM34:
 296 0146 C701      		movw r24,r14
 297               	.LVL18:
 298               	/* #APP */
 299               	 ;  105 "e:/winavr-20100110/lib/gcc/../../avr/include/util/delay_basic.h" 1
 300 0148 0197      		1: sbiw r24,1
 301 014a 01F4      		brne 1b
 302               	 ;  0 "" 2
 303               	/* #NOAPP */
 304               	.LBE28:
 305               	.LBE29:
 306               	.LBE30:
 307               	.LBE35:
 308               	.LM35:
 309 014c 2115      		cp r18,__zero_reg__
 310 014e 3105      		cpc r19,__zero_reg__
 311 0150 01F0      		breq .+2
 312 0152 00C0      		rjmp .L31
 313               	.LM36:
 314 0154 80E0      		ldi r24,lo8(.LC8)
 315 0156 90E0      		ldi r25,hi8(.LC8)
 316               	.LVL19:
 317 0158 0E94 0000 		call uart_write_string
 318               	.LVL20:
 319               	.L20:
 320               	.LM37:
 321 015c 80E0      		ldi r24,lo8(.LC9)
 322 015e 90E0      		ldi r25,hi8(.LC9)
 323 0160 0E94 0000 		call uart_write_string
 324               	.LVL21:
 325 0164 88E8      		ldi r24,lo8(5000)
 326 0166 93E1      		ldi r25,hi8(5000)
 327               	.LVL22:
 328               	.LBB36:
 329               	.LBB37:
 330               	.LBB38:
 331               	.LBB39:
 332               	.LM38:
 333 0168 28EC      		ldi r18,lo8(200)
 334 016a 30E0      		ldi r19,hi8(200)
 335               	.L22:
 336 016c F901      		movw r30,r18
 337               	.LVL23:
 338               	/* #APP */
 339               	 ;  105 "e:/winavr-20100110/lib/gcc/../../avr/include/util/delay_basic.h" 1
 340 016e 3197      		1: sbiw r30,1
 341 0170 01F4      		brne 1b
 342               	 ;  0 "" 2
 343               	/* #NOAPP */
 344               	.LBE39:
 345               	.LBE38:
 346               	.LM39:
 347 0172 0197      		sbiw r24,1
 348               	.LM40:
 349 0174 01F4      		brne .L22
 350               	.LBE37:
 351               	.LBE36:
 352               	.LM41:
 353               	/* #APP */
 354               	 ;  137 "main.c" 1
 355 0176 F894      		cli
 356               	 ;  0 "" 2
 357               	.LM42:
 358               	/* #NOAPP */
 359 0178 81E0      		ldi r24,lo8(1)
 360               	.LVL24:
 361 017a 85BF      		out 85-32,r24
 362               	.LM43:
 363 017c 15BE      		out 85-32,__zero_reg__
 364               	.LM44:
 365 017e 28E0      		ldi r18,lo8(8)
 366 0180 88E1      		ldi r24,lo8(24)
 367 0182 90E0      		ldi r25,hi8(24)
 368               	/* #APP */
 369               	 ;  140 "main.c" 1
 370 0184 0FB6      		in __tmp_reg__,__SREG__
 371 0186 F894      		cli
 372 0188 A895      		wdr
 373 018a 8093 6000 		sts 96,r24
 374 018e 0FBE      		out __SREG__,__tmp_reg__
 375 0190 2093 6000 		sts 96,r18
 376               		
 377               	 ;  0 "" 2
 378               	/* #NOAPP */
 379               	.L23:
 380 0194 00C0      		rjmp .L23
 381               	.LVL25:
 382               	.L4:
 383               	.LM45:
 384 0196 E091 0000 		lds r30,mainapp
 385 019a F091 0000 		lds r31,(mainapp)+1
 386 019e 0995      		icall
 387               	.LM46:
 388 01a0 80E0      		ldi r24,lo8(0)
 389 01a2 90E0      		ldi r25,hi8(0)
 390               	/* epilogue start */
 391 01a4 DF91      		pop r29
 392 01a6 CF91      		pop r28
 393 01a8 1F91      		pop r17
 394 01aa FF90      		pop r15
 395 01ac EF90      		pop r14
 396 01ae 0895      		ret
 397               	.LVL26:
 398               	.L13:
 399               	.LM47:
 400 01b0 10E0      		ldi r17,lo8(0)
 401               	.L14:
 402 01b2 90E0      		ldi r25,lo8(0)
 403               	.LVL27:
 404 01b4 C0E7      		ldi r28,lo8(6000)
 405 01b6 D7E1      		ldi r29,hi8(6000)
 406               	.LVL28:
 407 01b8 00C0      		rjmp .L16
 408               	.L18:
 409               	.LM48:
 410 01ba 1123      		tst r17
 411 01bc 01F4      		brne .+2
 412 01be 00C0      		rjmp .L24
 413 01c0 00C0      		rjmp .L20
 414               	.LFE15:
 416               	.global	mainapp
 417               	.global	mainapp
 418               		.section .bss
 421               	mainapp:
 422 0000 0000      		.skip 2,0
 455               	.Letext0:
DEFINED SYMBOLS
                            *ABS*:00000000 main.c
E:\DOCUME~1\Michael\LOCALS~1\Temp/ccdSuEzd.s:2      *ABS*:0000003f __SREG__
E:\DOCUME~1\Michael\LOCALS~1\Temp/ccdSuEzd.s:3      *ABS*:0000003e __SP_H__
E:\DOCUME~1\Michael\LOCALS~1\Temp/ccdSuEzd.s:4      *ABS*:0000003d __SP_L__
E:\DOCUME~1\Michael\LOCALS~1\Temp/ccdSuEzd.s:5      *ABS*:00000034 __CCP__
E:\DOCUME~1\Michael\LOCALS~1\Temp/ccdSuEzd.s:6      *ABS*:00000000 __tmp_reg__
E:\DOCUME~1\Michael\LOCALS~1\Temp/ccdSuEzd.s:7      *ABS*:00000001 __zero_reg__
E:\DOCUME~1\Michael\LOCALS~1\Temp/ccdSuEzd.s:19     .init3:00000000 get_mcusr
E:\DOCUME~1\Michael\LOCALS~1\Temp/ccdSuEzd.s:66     .text:00000000 main
E:\DOCUME~1\Michael\LOCALS~1\Temp/ccdSuEzd.s:421    .bss:00000000 mainapp

UNDEFINED SYMBOLS
uart_init
uart_write_string
uart_fifo_rx
fifo_read_char
ihex_init
ihex_char
ihex_byte_count
ihex_data
ihex_address
flash_byte
ihex_status
flash_finish
writer_failed
__do_copy_data
__do_clear_bss
